ARM GAS  C:\Users\ZHANGM~1\AppData\Local\Temp\ccNPBJtR.s 			page 1


   1              		.cpu cortex-m0
   2              		.fpu softvfp
   3              		.eabi_attribute 20, 1
   4              		.eabi_attribute 21, 1
   5              		.eabi_attribute 23, 3
   6              		.eabi_attribute 24, 1
   7              		.eabi_attribute 25, 1
   8              		.eabi_attribute 26, 1
   9              		.eabi_attribute 30, 4
  10              		.eabi_attribute 34, 0
  11              		.eabi_attribute 18, 4
  12              		.code	16
  13              		.file	"Bootloader.c"
  14              		.text
  15              	.Ltext0:
  16              		.cfi_sections	.debug_frame
  17              		.section	.text.Bootloader_LaunchBootloadable,"ax",%progbits
  18              		.align	1
  19              		.code	16
  20              		.thumb_func
  21              		.type	Bootloader_LaunchBootloadable, %function
  22              	Bootloader_LaunchBootloadable:
  23              	.LFB38:
  24              		.file 1 ".\\Generated_Source\\PSoC4\\Bootloader.c"
   1:.\Generated_Source\PSoC4/Bootloader.c **** /*******************************************************************************
   2:.\Generated_Source\PSoC4/Bootloader.c **** * File Name: Bootloader.c
   3:.\Generated_Source\PSoC4/Bootloader.c **** * Version 1.20
   4:.\Generated_Source\PSoC4/Bootloader.c **** *
   5:.\Generated_Source\PSoC4/Bootloader.c **** *  Description:
   6:.\Generated_Source\PSoC4/Bootloader.c **** *   Provides an API for the Bootloader component. The API includes functions
   7:.\Generated_Source\PSoC4/Bootloader.c **** *   for starting boot loading operations, validating the application and
   8:.\Generated_Source\PSoC4/Bootloader.c **** *   jumping to the application.
   9:.\Generated_Source\PSoC4/Bootloader.c **** *
  10:.\Generated_Source\PSoC4/Bootloader.c **** ********************************************************************************
  11:.\Generated_Source\PSoC4/Bootloader.c **** * Copyright 2008-2013, Cypress Semiconductor Corporation.  All rights reserved.
  12:.\Generated_Source\PSoC4/Bootloader.c **** * You may use this file only in accordance with the license, terms, conditions,
  13:.\Generated_Source\PSoC4/Bootloader.c **** * disclaimers, and limitations in the end user license agreement accompanying
  14:.\Generated_Source\PSoC4/Bootloader.c **** * the software package with which this file was provided.
  15:.\Generated_Source\PSoC4/Bootloader.c **** *******************************************************************************/
  16:.\Generated_Source\PSoC4/Bootloader.c **** 
  17:.\Generated_Source\PSoC4/Bootloader.c **** #include "Bootloader_PVT.h"
  18:.\Generated_Source\PSoC4/Bootloader.c **** 
  19:.\Generated_Source\PSoC4/Bootloader.c **** #include "project.h"
  20:.\Generated_Source\PSoC4/Bootloader.c **** #include <string.h>
  21:.\Generated_Source\PSoC4/Bootloader.c **** 
  22:.\Generated_Source\PSoC4/Bootloader.c **** 
  23:.\Generated_Source\PSoC4/Bootloader.c **** /*******************************************************************************
  24:.\Generated_Source\PSoC4/Bootloader.c **** * The Checksum and SizeBytes are forcefully set in code. We then post process
  25:.\Generated_Source\PSoC4/Bootloader.c **** * the hex file from the linker and inject their values then. When the hex file
  26:.\Generated_Source\PSoC4/Bootloader.c **** * is loaded onto the device these two variables should have valid values.
  27:.\Generated_Source\PSoC4/Bootloader.c **** * Because the compiler can do optimizations remove the constant
  28:.\Generated_Source\PSoC4/Bootloader.c **** * accesses, these should not be accessed directly. Instead, the variables
  29:.\Generated_Source\PSoC4/Bootloader.c **** * CyBtldr_ChecksumAccess & CyBtldr_SizeBytesAccess should be used to get the
  30:.\Generated_Source\PSoC4/Bootloader.c **** * proper values at runtime.
  31:.\Generated_Source\PSoC4/Bootloader.c **** *******************************************************************************/
  32:.\Generated_Source\PSoC4/Bootloader.c **** #if defined(__ARMCC_VERSION) || defined (__GNUC__)
  33:.\Generated_Source\PSoC4/Bootloader.c ****     __attribute__((section (".bootloader")))
ARM GAS  C:\Users\ZHANGM~1\AppData\Local\Temp\ccNPBJtR.s 			page 2


  34:.\Generated_Source\PSoC4/Bootloader.c **** #elif defined (__ICCARM__)
  35:.\Generated_Source\PSoC4/Bootloader.c ****     #pragma location=".bootloader"
  36:.\Generated_Source\PSoC4/Bootloader.c **** #endif  /* defined(__ARMCC_VERSION) || defined (__GNUC__) */
  37:.\Generated_Source\PSoC4/Bootloader.c **** 
  38:.\Generated_Source\PSoC4/Bootloader.c **** const uint8  CYCODE Bootloader_Checksum = 0u;
  39:.\Generated_Source\PSoC4/Bootloader.c **** const uint8  CYCODE *Bootloader_ChecksumAccess  = (const uint8  CYCODE *)(&Bootloader_Checksum);
  40:.\Generated_Source\PSoC4/Bootloader.c **** 
  41:.\Generated_Source\PSoC4/Bootloader.c **** #if defined(__ARMCC_VERSION) || defined (__GNUC__)
  42:.\Generated_Source\PSoC4/Bootloader.c ****     __attribute__((section (".bootloader")))
  43:.\Generated_Source\PSoC4/Bootloader.c **** #elif defined (__ICCARM__)
  44:.\Generated_Source\PSoC4/Bootloader.c ****     #pragma location=".bootloader"
  45:.\Generated_Source\PSoC4/Bootloader.c **** #endif  /* defined(__ARMCC_VERSION) || defined (__GNUC__) */
  46:.\Generated_Source\PSoC4/Bootloader.c **** 
  47:.\Generated_Source\PSoC4/Bootloader.c **** const uint32 CYCODE Bootloader_SizeBytes = 0xFFFFFFFFu;
  48:.\Generated_Source\PSoC4/Bootloader.c **** const uint32 CYCODE *Bootloader_SizeBytesAccess = (const uint32 CYCODE *)(&Bootloader_SizeBytes);
  49:.\Generated_Source\PSoC4/Bootloader.c **** 
  50:.\Generated_Source\PSoC4/Bootloader.c **** 
  51:.\Generated_Source\PSoC4/Bootloader.c **** #if(0u != Bootloader_DUAL_APP_BOOTLOADER)
  52:.\Generated_Source\PSoC4/Bootloader.c ****     uint8 Bootloader_activeApp = Bootloader_MD_BTLDB_ACTIVE_NONE;
  53:.\Generated_Source\PSoC4/Bootloader.c **** #else
  54:.\Generated_Source\PSoC4/Bootloader.c ****     #define Bootloader_activeApp      (Bootloader_MD_BTLDB_ACTIVE_0)
  55:.\Generated_Source\PSoC4/Bootloader.c **** #endif  /* (0u != Bootloader_DUAL_APP_BOOTLOADER) */
  56:.\Generated_Source\PSoC4/Bootloader.c **** 
  57:.\Generated_Source\PSoC4/Bootloader.c **** 
  58:.\Generated_Source\PSoC4/Bootloader.c **** /***************************************
  59:.\Generated_Source\PSoC4/Bootloader.c **** *     Function Prototypes
  60:.\Generated_Source\PSoC4/Bootloader.c **** ***************************************/
  61:.\Generated_Source\PSoC4/Bootloader.c **** static cystatus Bootloader_WritePacket(uint8 status, uint8 buffer[], uint16 size) CYSMALL \
  62:.\Generated_Source\PSoC4/Bootloader.c ****                                     ;
  63:.\Generated_Source\PSoC4/Bootloader.c **** 
  64:.\Generated_Source\PSoC4/Bootloader.c **** static uint16   Bootloader_CalcPacketChecksum(const uint8 buffer[], uint16 size) CYSMALL \
  65:.\Generated_Source\PSoC4/Bootloader.c ****                                     ;
  66:.\Generated_Source\PSoC4/Bootloader.c **** 
  67:.\Generated_Source\PSoC4/Bootloader.c **** static uint8    Bootloader_Calc8BitFlashSum(uint32 start, uint32 size) CYSMALL \
  68:.\Generated_Source\PSoC4/Bootloader.c ****                                     ;
  69:.\Generated_Source\PSoC4/Bootloader.c **** #if(!CY_PSOC4)
  70:.\Generated_Source\PSoC4/Bootloader.c **** static uint8    Bootloader_Calc8BitEepromSum(uint32 start, uint32 size) CYSMALL \
  71:.\Generated_Source\PSoC4/Bootloader.c ****                                     ;
  72:.\Generated_Source\PSoC4/Bootloader.c **** #endif /* (!CY_PSOC4) */
  73:.\Generated_Source\PSoC4/Bootloader.c **** 
  74:.\Generated_Source\PSoC4/Bootloader.c **** static void     Bootloader_HostLink(uint8 timeOut) \
  75:.\Generated_Source\PSoC4/Bootloader.c ****                                     ;
  76:.\Generated_Source\PSoC4/Bootloader.c **** 
  77:.\Generated_Source\PSoC4/Bootloader.c **** static void     Bootloader_LaunchApplication(void) CYSMALL \
  78:.\Generated_Source\PSoC4/Bootloader.c ****                                     ;
  79:.\Generated_Source\PSoC4/Bootloader.c **** 
  80:.\Generated_Source\PSoC4/Bootloader.c **** static cystatus Bootloader_ValidateBootloadable(uint8 appId) CYSMALL \
  81:.\Generated_Source\PSoC4/Bootloader.c ****                                     ;
  82:.\Generated_Source\PSoC4/Bootloader.c **** 
  83:.\Generated_Source\PSoC4/Bootloader.c **** static uint32   Bootloader_GetMetadata(uint8 fieldName, uint8 appId)\
  84:.\Generated_Source\PSoC4/Bootloader.c ****                                     ;
  85:.\Generated_Source\PSoC4/Bootloader.c **** 
  86:.\Generated_Source\PSoC4/Bootloader.c **** #if(!CY_PSOC3)
  87:.\Generated_Source\PSoC4/Bootloader.c ****     /* Implementation for the PSoC 3 resides in a Bootloader_psoc3.a51 file.  */
  88:.\Generated_Source\PSoC4/Bootloader.c ****     static void     Bootloader_LaunchBootloadable(uint32 appAddr);
  89:.\Generated_Source\PSoC4/Bootloader.c **** #endif  /* (!CY_PSOC3) */
  90:.\Generated_Source\PSoC4/Bootloader.c **** 
ARM GAS  C:\Users\ZHANGM~1\AppData\Local\Temp\ccNPBJtR.s 			page 3


  91:.\Generated_Source\PSoC4/Bootloader.c **** 
  92:.\Generated_Source\PSoC4/Bootloader.c **** /*******************************************************************************
  93:.\Generated_Source\PSoC4/Bootloader.c **** * Function Name: Bootloader_CalcPacketChecksum
  94:.\Generated_Source\PSoC4/Bootloader.c **** ********************************************************************************
  95:.\Generated_Source\PSoC4/Bootloader.c **** *
  96:.\Generated_Source\PSoC4/Bootloader.c **** * Summary:
  97:.\Generated_Source\PSoC4/Bootloader.c **** *  This computes the 16 bit checksum for the provided number of bytes contained
  98:.\Generated_Source\PSoC4/Bootloader.c **** *  in the provided buffer
  99:.\Generated_Source\PSoC4/Bootloader.c **** *
 100:.\Generated_Source\PSoC4/Bootloader.c **** * Parameters:
 101:.\Generated_Source\PSoC4/Bootloader.c **** *  buffer:
 102:.\Generated_Source\PSoC4/Bootloader.c **** *     The buffer containing the data to compute the checksum for
 103:.\Generated_Source\PSoC4/Bootloader.c **** *  size:
 104:.\Generated_Source\PSoC4/Bootloader.c **** *     The number of bytes in buffer to compute the checksum for
 105:.\Generated_Source\PSoC4/Bootloader.c **** *
 106:.\Generated_Source\PSoC4/Bootloader.c **** * Returns:
 107:.\Generated_Source\PSoC4/Bootloader.c **** *  16 bit checksum for the provided data
 108:.\Generated_Source\PSoC4/Bootloader.c **** *
 109:.\Generated_Source\PSoC4/Bootloader.c **** *******************************************************************************/
 110:.\Generated_Source\PSoC4/Bootloader.c **** static uint16 Bootloader_CalcPacketChecksum(const uint8 buffer[], uint16 size) \
 111:.\Generated_Source\PSoC4/Bootloader.c ****                     CYSMALL 
 112:.\Generated_Source\PSoC4/Bootloader.c **** {
 113:.\Generated_Source\PSoC4/Bootloader.c ****     #if(0u != Bootloader_PACKET_CHECKSUM_CRC)
 114:.\Generated_Source\PSoC4/Bootloader.c **** 
 115:.\Generated_Source\PSoC4/Bootloader.c ****         uint16 CYDATA crc = Bootloader_CRC_CCITT_INITIAL_VALUE;
 116:.\Generated_Source\PSoC4/Bootloader.c ****         uint16 CYDATA tmp;
 117:.\Generated_Source\PSoC4/Bootloader.c ****         uint8  CYDATA i;
 118:.\Generated_Source\PSoC4/Bootloader.c ****         uint16 CYDATA tmpIndex = size;
 119:.\Generated_Source\PSoC4/Bootloader.c **** 
 120:.\Generated_Source\PSoC4/Bootloader.c ****         if(0u == size)
 121:.\Generated_Source\PSoC4/Bootloader.c ****         {
 122:.\Generated_Source\PSoC4/Bootloader.c ****             crc = ~crc;
 123:.\Generated_Source\PSoC4/Bootloader.c ****         }
 124:.\Generated_Source\PSoC4/Bootloader.c ****         else
 125:.\Generated_Source\PSoC4/Bootloader.c ****         {
 126:.\Generated_Source\PSoC4/Bootloader.c ****             do
 127:.\Generated_Source\PSoC4/Bootloader.c ****             {
 128:.\Generated_Source\PSoC4/Bootloader.c ****                 tmp = buffer[tmpIndex - size];
 129:.\Generated_Source\PSoC4/Bootloader.c **** 
 130:.\Generated_Source\PSoC4/Bootloader.c ****                 for (i = 0u; i < 8u; i++)
 131:.\Generated_Source\PSoC4/Bootloader.c ****                 {
 132:.\Generated_Source\PSoC4/Bootloader.c ****                     if (0u != ((crc & 0x0001u) ^ (tmp & 0x0001u)))
 133:.\Generated_Source\PSoC4/Bootloader.c ****                     {
 134:.\Generated_Source\PSoC4/Bootloader.c ****                         crc = (crc >> 1u) ^ Bootloader_CRC_CCITT_POLYNOMIAL;
 135:.\Generated_Source\PSoC4/Bootloader.c ****                     }
 136:.\Generated_Source\PSoC4/Bootloader.c ****                     else
 137:.\Generated_Source\PSoC4/Bootloader.c ****                     {
 138:.\Generated_Source\PSoC4/Bootloader.c ****                         crc >>= 1u;
 139:.\Generated_Source\PSoC4/Bootloader.c ****                     }
 140:.\Generated_Source\PSoC4/Bootloader.c **** 
 141:.\Generated_Source\PSoC4/Bootloader.c ****                     tmp >>= 1u;
 142:.\Generated_Source\PSoC4/Bootloader.c ****                 }
 143:.\Generated_Source\PSoC4/Bootloader.c **** 
 144:.\Generated_Source\PSoC4/Bootloader.c ****                 size--;
 145:.\Generated_Source\PSoC4/Bootloader.c ****             }
 146:.\Generated_Source\PSoC4/Bootloader.c ****             while(0u != size);
 147:.\Generated_Source\PSoC4/Bootloader.c **** 
ARM GAS  C:\Users\ZHANGM~1\AppData\Local\Temp\ccNPBJtR.s 			page 4


 148:.\Generated_Source\PSoC4/Bootloader.c ****             crc = ~crc;
 149:.\Generated_Source\PSoC4/Bootloader.c ****             tmp = crc;
 150:.\Generated_Source\PSoC4/Bootloader.c ****             crc = ( uint16 )(crc << 8u) | (tmp >> 8u);
 151:.\Generated_Source\PSoC4/Bootloader.c ****         }
 152:.\Generated_Source\PSoC4/Bootloader.c **** 
 153:.\Generated_Source\PSoC4/Bootloader.c ****         return(crc);
 154:.\Generated_Source\PSoC4/Bootloader.c **** 
 155:.\Generated_Source\PSoC4/Bootloader.c ****     #else
 156:.\Generated_Source\PSoC4/Bootloader.c **** 
 157:.\Generated_Source\PSoC4/Bootloader.c ****         uint16 CYDATA sum = 0u;
 158:.\Generated_Source\PSoC4/Bootloader.c **** 
 159:.\Generated_Source\PSoC4/Bootloader.c ****         while (size > 0u)
 160:.\Generated_Source\PSoC4/Bootloader.c ****         {
 161:.\Generated_Source\PSoC4/Bootloader.c ****             sum += buffer[size - 1u];
 162:.\Generated_Source\PSoC4/Bootloader.c ****             size--;
 163:.\Generated_Source\PSoC4/Bootloader.c ****         }
 164:.\Generated_Source\PSoC4/Bootloader.c **** 
 165:.\Generated_Source\PSoC4/Bootloader.c ****         return(( uint16 )1u + ( uint16 )(~sum));
 166:.\Generated_Source\PSoC4/Bootloader.c **** 
 167:.\Generated_Source\PSoC4/Bootloader.c ****     #endif /* (0u != Bootloader_PACKET_CHECKSUM_CRC) */
 168:.\Generated_Source\PSoC4/Bootloader.c **** }
 169:.\Generated_Source\PSoC4/Bootloader.c **** 
 170:.\Generated_Source\PSoC4/Bootloader.c **** 
 171:.\Generated_Source\PSoC4/Bootloader.c **** /*******************************************************************************
 172:.\Generated_Source\PSoC4/Bootloader.c **** * Function Name: Bootloader_Calc8BitFlashSum
 173:.\Generated_Source\PSoC4/Bootloader.c **** ********************************************************************************
 174:.\Generated_Source\PSoC4/Bootloader.c **** *
 175:.\Generated_Source\PSoC4/Bootloader.c **** * Summary:
 176:.\Generated_Source\PSoC4/Bootloader.c **** *  This computes the 8 bit sum for the provided number of bytes contained in
 177:.\Generated_Source\PSoC4/Bootloader.c **** *  flash.
 178:.\Generated_Source\PSoC4/Bootloader.c **** *
 179:.\Generated_Source\PSoC4/Bootloader.c **** * Parameters:
 180:.\Generated_Source\PSoC4/Bootloader.c **** *  start:
 181:.\Generated_Source\PSoC4/Bootloader.c **** *     The starting address to start summing data for
 182:.\Generated_Source\PSoC4/Bootloader.c **** *  size:
 183:.\Generated_Source\PSoC4/Bootloader.c **** *     The number of bytes to read and compute the sum for
 184:.\Generated_Source\PSoC4/Bootloader.c **** *
 185:.\Generated_Source\PSoC4/Bootloader.c **** * Returns:
 186:.\Generated_Source\PSoC4/Bootloader.c **** *   8 bit sum for the provided data
 187:.\Generated_Source\PSoC4/Bootloader.c **** *
 188:.\Generated_Source\PSoC4/Bootloader.c **** *******************************************************************************/
 189:.\Generated_Source\PSoC4/Bootloader.c **** static uint8 Bootloader_Calc8BitFlashSum(uint32 start, uint32 size) \
 190:.\Generated_Source\PSoC4/Bootloader.c ****                 CYSMALL 
 191:.\Generated_Source\PSoC4/Bootloader.c **** {
 192:.\Generated_Source\PSoC4/Bootloader.c ****     uint8 CYDATA sum = 0u;
 193:.\Generated_Source\PSoC4/Bootloader.c **** 
 194:.\Generated_Source\PSoC4/Bootloader.c ****     while (size > 0u)
 195:.\Generated_Source\PSoC4/Bootloader.c ****     {
 196:.\Generated_Source\PSoC4/Bootloader.c ****         size--;
 197:.\Generated_Source\PSoC4/Bootloader.c ****         sum += Bootloader_GET_CODE_BYTE(start + size);
 198:.\Generated_Source\PSoC4/Bootloader.c ****     }
 199:.\Generated_Source\PSoC4/Bootloader.c **** 
 200:.\Generated_Source\PSoC4/Bootloader.c ****     return(sum);
 201:.\Generated_Source\PSoC4/Bootloader.c **** }
 202:.\Generated_Source\PSoC4/Bootloader.c **** 
 203:.\Generated_Source\PSoC4/Bootloader.c **** 
 204:.\Generated_Source\PSoC4/Bootloader.c **** #if(!CY_PSOC4)
ARM GAS  C:\Users\ZHANGM~1\AppData\Local\Temp\ccNPBJtR.s 			page 5


 205:.\Generated_Source\PSoC4/Bootloader.c **** 
 206:.\Generated_Source\PSoC4/Bootloader.c ****     /*******************************************************************************
 207:.\Generated_Source\PSoC4/Bootloader.c ****     * Function Name: Bootloader_Calc8BitEepromSum
 208:.\Generated_Source\PSoC4/Bootloader.c ****     ********************************************************************************
 209:.\Generated_Source\PSoC4/Bootloader.c ****     *
 210:.\Generated_Source\PSoC4/Bootloader.c ****     * Summary:
 211:.\Generated_Source\PSoC4/Bootloader.c ****     *  This computes the 8 bit sum for the provided number of bytes contained in
 212:.\Generated_Source\PSoC4/Bootloader.c ****     *  EEPROM.
 213:.\Generated_Source\PSoC4/Bootloader.c ****     *
 214:.\Generated_Source\PSoC4/Bootloader.c ****     * Parameters:
 215:.\Generated_Source\PSoC4/Bootloader.c ****     *  start:
 216:.\Generated_Source\PSoC4/Bootloader.c ****     *     The starting address to start summing data for
 217:.\Generated_Source\PSoC4/Bootloader.c ****     *  size:
 218:.\Generated_Source\PSoC4/Bootloader.c ****     *     The number of bytes to read and compute the sum for
 219:.\Generated_Source\PSoC4/Bootloader.c ****     *
 220:.\Generated_Source\PSoC4/Bootloader.c ****     * Returns:
 221:.\Generated_Source\PSoC4/Bootloader.c ****     *   8 bit sum for the provided data
 222:.\Generated_Source\PSoC4/Bootloader.c ****     *
 223:.\Generated_Source\PSoC4/Bootloader.c ****     *******************************************************************************/
 224:.\Generated_Source\PSoC4/Bootloader.c ****     static uint8 Bootloader_Calc8BitEepromSum(uint32 start, uint32 size) \
 225:.\Generated_Source\PSoC4/Bootloader.c ****                     CYSMALL 
 226:.\Generated_Source\PSoC4/Bootloader.c ****     {
 227:.\Generated_Source\PSoC4/Bootloader.c ****         uint8 CYDATA sum = 0u;
 228:.\Generated_Source\PSoC4/Bootloader.c **** 
 229:.\Generated_Source\PSoC4/Bootloader.c ****         while (size > 0u)
 230:.\Generated_Source\PSoC4/Bootloader.c ****         {
 231:.\Generated_Source\PSoC4/Bootloader.c ****             size--;
 232:.\Generated_Source\PSoC4/Bootloader.c ****             sum += Bootloader_GET_EEPROM_BYTE(start + size);
 233:.\Generated_Source\PSoC4/Bootloader.c ****         }
 234:.\Generated_Source\PSoC4/Bootloader.c **** 
 235:.\Generated_Source\PSoC4/Bootloader.c ****         return(sum);
 236:.\Generated_Source\PSoC4/Bootloader.c ****     }
 237:.\Generated_Source\PSoC4/Bootloader.c **** 
 238:.\Generated_Source\PSoC4/Bootloader.c **** #endif  /* (!CY_PSOC4) */
 239:.\Generated_Source\PSoC4/Bootloader.c **** 
 240:.\Generated_Source\PSoC4/Bootloader.c **** 
 241:.\Generated_Source\PSoC4/Bootloader.c **** /*******************************************************************************
 242:.\Generated_Source\PSoC4/Bootloader.c **** * Function Name: Bootloader_Start
 243:.\Generated_Source\PSoC4/Bootloader.c **** ********************************************************************************
 244:.\Generated_Source\PSoC4/Bootloader.c **** * Summary:
 245:.\Generated_Source\PSoC4/Bootloader.c **** *  This function is called in order executing following algorithm:
 246:.\Generated_Source\PSoC4/Bootloader.c **** *
 247:.\Generated_Source\PSoC4/Bootloader.c **** *  - Identify active bootloadable application (applicable only to
 248:.\Generated_Source\PSoC4/Bootloader.c **** *    Multi-application bootloader)
 249:.\Generated_Source\PSoC4/Bootloader.c **** *
 250:.\Generated_Source\PSoC4/Bootloader.c **** *  - Validate bootloader application (desing-time configurable, Bootloader
 251:.\Generated_Source\PSoC4/Bootloader.c **** *    application validation option of the component customizer)
 252:.\Generated_Source\PSoC4/Bootloader.c **** *
 253:.\Generated_Source\PSoC4/Bootloader.c **** *  - Validate active bootloadable application
 254:.\Generated_Source\PSoC4/Bootloader.c **** *
 255:.\Generated_Source\PSoC4/Bootloader.c **** *  - Run communication subroutine (desing-time configurable, Wait for command
 256:.\Generated_Source\PSoC4/Bootloader.c **** *    option of the component customizer)
 257:.\Generated_Source\PSoC4/Bootloader.c **** *
 258:.\Generated_Source\PSoC4/Bootloader.c **** *  - Schedule bootloadable and reset device
 259:.\Generated_Source\PSoC4/Bootloader.c **** *
 260:.\Generated_Source\PSoC4/Bootloader.c **** * Parameters:
 261:.\Generated_Source\PSoC4/Bootloader.c **** *  None
ARM GAS  C:\Users\ZHANGM~1\AppData\Local\Temp\ccNPBJtR.s 			page 6


 262:.\Generated_Source\PSoC4/Bootloader.c **** *
 263:.\Generated_Source\PSoC4/Bootloader.c **** * Return:
 264:.\Generated_Source\PSoC4/Bootloader.c **** *  This method will never return. It will either load a new application and
 265:.\Generated_Source\PSoC4/Bootloader.c **** *  reset the device or it will jump directly to the existing application.
 266:.\Generated_Source\PSoC4/Bootloader.c **** *
 267:.\Generated_Source\PSoC4/Bootloader.c **** * Side Effects:
 268:.\Generated_Source\PSoC4/Bootloader.c **** *  If this method determines that the bootloader appliation itself is corrupt,
 269:.\Generated_Source\PSoC4/Bootloader.c **** *  this method will not return, instead it will simply hang the application.
 270:.\Generated_Source\PSoC4/Bootloader.c **** *
 271:.\Generated_Source\PSoC4/Bootloader.c **** *******************************************************************************/
 272:.\Generated_Source\PSoC4/Bootloader.c **** void Bootloader_Start(void) CYSMALL 
 273:.\Generated_Source\PSoC4/Bootloader.c **** {
 274:.\Generated_Source\PSoC4/Bootloader.c ****     #if(0u != Bootloader_BOOTLOADER_APP_VALIDATION)
 275:.\Generated_Source\PSoC4/Bootloader.c ****         uint8 CYDATA calcedChecksum;
 276:.\Generated_Source\PSoC4/Bootloader.c ****     #endif    /* (0u != Bootloader_BOOTLOADER_APP_VALIDATION) */
 277:.\Generated_Source\PSoC4/Bootloader.c **** 
 278:.\Generated_Source\PSoC4/Bootloader.c ****     #if(!CY_PSOC4)
 279:.\Generated_Source\PSoC4/Bootloader.c ****         uint8 CYXDATA Bootloader_flashBuffer[Bootloader_FROW_SIZE];
 280:.\Generated_Source\PSoC4/Bootloader.c ****     #endif  /* (!CY_PSOC4) */
 281:.\Generated_Source\PSoC4/Bootloader.c **** 
 282:.\Generated_Source\PSoC4/Bootloader.c ****     cystatus tmpStatus;
 283:.\Generated_Source\PSoC4/Bootloader.c **** 
 284:.\Generated_Source\PSoC4/Bootloader.c **** 
 285:.\Generated_Source\PSoC4/Bootloader.c ****     /* Identify active bootloadable application */
 286:.\Generated_Source\PSoC4/Bootloader.c ****     #if(0u != Bootloader_DUAL_APP_BOOTLOADER)
 287:.\Generated_Source\PSoC4/Bootloader.c **** 
 288:.\Generated_Source\PSoC4/Bootloader.c ****         if(Bootloader_MD_BTLDB_ACTIVE_VALUE(0u) == Bootloader_MD_BTLDB_IS_ACTIVE)
 289:.\Generated_Source\PSoC4/Bootloader.c ****         {
 290:.\Generated_Source\PSoC4/Bootloader.c ****             Bootloader_activeApp = Bootloader_MD_BTLDB_ACTIVE_0;
 291:.\Generated_Source\PSoC4/Bootloader.c ****         }
 292:.\Generated_Source\PSoC4/Bootloader.c ****         else if (Bootloader_MD_BTLDB_ACTIVE_VALUE(1u) == Bootloader_MD_BTLDB_IS_ACTIVE)
 293:.\Generated_Source\PSoC4/Bootloader.c ****         {
 294:.\Generated_Source\PSoC4/Bootloader.c ****             Bootloader_activeApp = Bootloader_MD_BTLDB_ACTIVE_1;
 295:.\Generated_Source\PSoC4/Bootloader.c ****         }
 296:.\Generated_Source\PSoC4/Bootloader.c ****         else
 297:.\Generated_Source\PSoC4/Bootloader.c ****         {
 298:.\Generated_Source\PSoC4/Bootloader.c ****             Bootloader_activeApp = Bootloader_MD_BTLDB_ACTIVE_NONE;
 299:.\Generated_Source\PSoC4/Bootloader.c ****         }
 300:.\Generated_Source\PSoC4/Bootloader.c **** 
 301:.\Generated_Source\PSoC4/Bootloader.c ****     #endif  /* (0u != Bootloader_DUAL_APP_BOOTLOADER) */
 302:.\Generated_Source\PSoC4/Bootloader.c **** 
 303:.\Generated_Source\PSoC4/Bootloader.c **** 
 304:.\Generated_Source\PSoC4/Bootloader.c ****     /* Initialize Flash subsystem for non-PSoC 4 devices */
 305:.\Generated_Source\PSoC4/Bootloader.c ****     #if(!CY_PSOC4)
 306:.\Generated_Source\PSoC4/Bootloader.c ****         if (CYRET_SUCCESS != CySetTemp())
 307:.\Generated_Source\PSoC4/Bootloader.c ****         {
 308:.\Generated_Source\PSoC4/Bootloader.c ****             CyHalt(0x00u);
 309:.\Generated_Source\PSoC4/Bootloader.c ****         }
 310:.\Generated_Source\PSoC4/Bootloader.c **** 
 311:.\Generated_Source\PSoC4/Bootloader.c ****         if (CYRET_SUCCESS != CySetFlashEEBuffer(Bootloader_flashBuffer))
 312:.\Generated_Source\PSoC4/Bootloader.c ****         {
 313:.\Generated_Source\PSoC4/Bootloader.c ****             CyHalt(0x00u);
 314:.\Generated_Source\PSoC4/Bootloader.c ****         }
 315:.\Generated_Source\PSoC4/Bootloader.c ****     #endif  /* (CY_PSOC4) */
 316:.\Generated_Source\PSoC4/Bootloader.c **** 
 317:.\Generated_Source\PSoC4/Bootloader.c **** 
 318:.\Generated_Source\PSoC4/Bootloader.c ****     /***********************************************************************
ARM GAS  C:\Users\ZHANGM~1\AppData\Local\Temp\ccNPBJtR.s 			page 7


 319:.\Generated_Source\PSoC4/Bootloader.c ****     * Bootloader Application Validation
 320:.\Generated_Source\PSoC4/Bootloader.c ****     *
 321:.\Generated_Source\PSoC4/Bootloader.c ****     * Halt device if:
 322:.\Generated_Source\PSoC4/Bootloader.c ****     *  - Calculated checksum does not much one stored in metadata section
 323:.\Generated_Source\PSoC4/Bootloader.c ****     *  - Invalid pointer to the place where bootloader application ends
 324:.\Generated_Source\PSoC4/Bootloader.c ****     *  - Flash subsystem where not initialized correctly
 325:.\Generated_Source\PSoC4/Bootloader.c ****     ***********************************************************************/
 326:.\Generated_Source\PSoC4/Bootloader.c ****     #if(0u != Bootloader_BOOTLOADER_APP_VALIDATION)
 327:.\Generated_Source\PSoC4/Bootloader.c **** 
 328:.\Generated_Source\PSoC4/Bootloader.c ****         /* Calculate Bootloader application checksum */
 329:.\Generated_Source\PSoC4/Bootloader.c ****         calcedChecksum = Bootloader_Calc8BitFlashSum(Bootloader_MD_BTLDR_ADDR_PTR,
 330:.\Generated_Source\PSoC4/Bootloader.c ****                 *Bootloader_SizeBytesAccess - Bootloader_MD_BTLDR_ADDR_PTR);
 331:.\Generated_Source\PSoC4/Bootloader.c **** 
 332:.\Generated_Source\PSoC4/Bootloader.c ****         /* we actually included the checksum, so remove it */
 333:.\Generated_Source\PSoC4/Bootloader.c ****         calcedChecksum -= *Bootloader_ChecksumAccess;
 334:.\Generated_Source\PSoC4/Bootloader.c ****         calcedChecksum = ( uint8 )1u + ( uint8 )(~calcedChecksum);
 335:.\Generated_Source\PSoC4/Bootloader.c **** 
 336:.\Generated_Source\PSoC4/Bootloader.c ****         /* Checksum and pointer to bootloader verification */
 337:.\Generated_Source\PSoC4/Bootloader.c ****         if((calcedChecksum != *Bootloader_ChecksumAccess) ||
 338:.\Generated_Source\PSoC4/Bootloader.c ****            (0u == *Bootloader_SizeBytesAccess))
 339:.\Generated_Source\PSoC4/Bootloader.c ****         {
 340:.\Generated_Source\PSoC4/Bootloader.c ****             CyHalt(0x00u);
 341:.\Generated_Source\PSoC4/Bootloader.c ****         }
 342:.\Generated_Source\PSoC4/Bootloader.c **** 
 343:.\Generated_Source\PSoC4/Bootloader.c ****     #endif  /* (0u != Bootloader_BOOTLOADER_APP_VALIDATION) */
 344:.\Generated_Source\PSoC4/Bootloader.c **** 
 345:.\Generated_Source\PSoC4/Bootloader.c **** 
 346:.\Generated_Source\PSoC4/Bootloader.c ****     /***********************************************************************
 347:.\Generated_Source\PSoC4/Bootloader.c ****     * Active Bootloadable Application Validation
 348:.\Generated_Source\PSoC4/Bootloader.c ****     *
 349:.\Generated_Source\PSoC4/Bootloader.c ****     * If active bootloadable application is invalid or bootloader
 350:.\Generated_Source\PSoC4/Bootloader.c ****     * application is scheduled - do the following:
 351:.\Generated_Source\PSoC4/Bootloader.c ****     *  - schedule bootloader application to be run after software reset
 352:.\Generated_Source\PSoC4/Bootloader.c ****     *  - Go to the communication subroutine. Will wait for commands forever
 353:.\Generated_Source\PSoC4/Bootloader.c ****     ***********************************************************************/
 354:.\Generated_Source\PSoC4/Bootloader.c ****     tmpStatus = Bootloader_ValidateBootloadable(Bootloader_activeApp);
 355:.\Generated_Source\PSoC4/Bootloader.c **** 
 356:.\Generated_Source\PSoC4/Bootloader.c ****     if ((Bootloader_GET_RUN_TYPE == Bootloader_START_BTLDR) ||
 357:.\Generated_Source\PSoC4/Bootloader.c ****         (CYRET_SUCCESS != tmpStatus))
 358:.\Generated_Source\PSoC4/Bootloader.c ****     {
 359:.\Generated_Source\PSoC4/Bootloader.c ****         Bootloader_SET_RUN_TYPE(0u);
 360:.\Generated_Source\PSoC4/Bootloader.c **** 
 361:.\Generated_Source\PSoC4/Bootloader.c ****         Bootloader_HostLink(Bootloader_WAIT_FOR_COMMAND_FOREVER);
 362:.\Generated_Source\PSoC4/Bootloader.c ****     }
 363:.\Generated_Source\PSoC4/Bootloader.c **** 
 364:.\Generated_Source\PSoC4/Bootloader.c **** 
 365:.\Generated_Source\PSoC4/Bootloader.c ****     /* Go to the communication subroutine. Will wait for commands specifed time */
 366:.\Generated_Source\PSoC4/Bootloader.c ****     #if(0u != Bootloader_WAIT_FOR_COMMAND)
 367:.\Generated_Source\PSoC4/Bootloader.c **** 
 368:.\Generated_Source\PSoC4/Bootloader.c ****         /* Timeout is in 100s of miliseconds */
 369:.\Generated_Source\PSoC4/Bootloader.c ****         Bootloader_HostLink(Bootloader_WAIT_FOR_COMMAND_TIME);
 370:.\Generated_Source\PSoC4/Bootloader.c **** 
 371:.\Generated_Source\PSoC4/Bootloader.c ****     #endif  /* (0u != Bootloader_WAIT_FOR_COMMAND) */
 372:.\Generated_Source\PSoC4/Bootloader.c **** 
 373:.\Generated_Source\PSoC4/Bootloader.c **** 
 374:.\Generated_Source\PSoC4/Bootloader.c ****     /* Schedule bootloadable application and perform software reset */
 375:.\Generated_Source\PSoC4/Bootloader.c ****     Bootloader_LaunchApplication();
ARM GAS  C:\Users\ZHANGM~1\AppData\Local\Temp\ccNPBJtR.s 			page 8


 376:.\Generated_Source\PSoC4/Bootloader.c **** }
 377:.\Generated_Source\PSoC4/Bootloader.c **** 
 378:.\Generated_Source\PSoC4/Bootloader.c **** 
 379:.\Generated_Source\PSoC4/Bootloader.c **** /*******************************************************************************
 380:.\Generated_Source\PSoC4/Bootloader.c **** * Function Name: Bootloader_LaunchApplication
 381:.\Generated_Source\PSoC4/Bootloader.c **** ********************************************************************************
 382:.\Generated_Source\PSoC4/Bootloader.c **** *
 383:.\Generated_Source\PSoC4/Bootloader.c **** * Summary:
 384:.\Generated_Source\PSoC4/Bootloader.c **** *  Jumps the PC to the start address of the user application in flash.
 385:.\Generated_Source\PSoC4/Bootloader.c **** *
 386:.\Generated_Source\PSoC4/Bootloader.c **** * Parameters:
 387:.\Generated_Source\PSoC4/Bootloader.c **** *  None
 388:.\Generated_Source\PSoC4/Bootloader.c **** *
 389:.\Generated_Source\PSoC4/Bootloader.c **** * Returns:
 390:.\Generated_Source\PSoC4/Bootloader.c **** *  This method will never return if it succesfully goes to the user application.
 391:.\Generated_Source\PSoC4/Bootloader.c **** *
 392:.\Generated_Source\PSoC4/Bootloader.c **** *******************************************************************************/
 393:.\Generated_Source\PSoC4/Bootloader.c **** static void Bootloader_LaunchApplication(void) CYSMALL 
 394:.\Generated_Source\PSoC4/Bootloader.c **** {
 395:.\Generated_Source\PSoC4/Bootloader.c ****     /* Schedule Bootloadable to start after reset */
 396:.\Generated_Source\PSoC4/Bootloader.c ****     Bootloader_SET_RUN_TYPE(Bootloader_START_APP);
 397:.\Generated_Source\PSoC4/Bootloader.c **** 
 398:.\Generated_Source\PSoC4/Bootloader.c ****     CySoftwareReset();
 399:.\Generated_Source\PSoC4/Bootloader.c **** }
 400:.\Generated_Source\PSoC4/Bootloader.c **** 
 401:.\Generated_Source\PSoC4/Bootloader.c **** 
 402:.\Generated_Source\PSoC4/Bootloader.c **** /*******************************************************************************
 403:.\Generated_Source\PSoC4/Bootloader.c **** * Function Name: CyBtldr_CheckLaunch
 404:.\Generated_Source\PSoC4/Bootloader.c **** ********************************************************************************
 405:.\Generated_Source\PSoC4/Bootloader.c **** *
 406:.\Generated_Source\PSoC4/Bootloader.c **** * Summary:
 407:.\Generated_Source\PSoC4/Bootloader.c **** *  This routine checks to see if the bootloader or the bootloadable application
 408:.\Generated_Source\PSoC4/Bootloader.c **** *  should be run.  If the application is to be run, it will start executing.
 409:.\Generated_Source\PSoC4/Bootloader.c **** *  If the bootloader is to be run, it will return so the bootloader can
 410:.\Generated_Source\PSoC4/Bootloader.c **** *  continue starting up.
 411:.\Generated_Source\PSoC4/Bootloader.c **** *
 412:.\Generated_Source\PSoC4/Bootloader.c **** * Parameters:
 413:.\Generated_Source\PSoC4/Bootloader.c **** *  None
 414:.\Generated_Source\PSoC4/Bootloader.c **** *
 415:.\Generated_Source\PSoC4/Bootloader.c **** * Returns:
 416:.\Generated_Source\PSoC4/Bootloader.c **** *  None
 417:.\Generated_Source\PSoC4/Bootloader.c **** *
 418:.\Generated_Source\PSoC4/Bootloader.c **** *******************************************************************************/
 419:.\Generated_Source\PSoC4/Bootloader.c **** void CyBtldr_CheckLaunch(void) CYSMALL 
 420:.\Generated_Source\PSoC4/Bootloader.c **** {
 421:.\Generated_Source\PSoC4/Bootloader.c **** 
 422:.\Generated_Source\PSoC4/Bootloader.c **** #if(CY_PSOC4)
 423:.\Generated_Source\PSoC4/Bootloader.c **** 
 424:.\Generated_Source\PSoC4/Bootloader.c ****     /*******************************************************************************
 425:.\Generated_Source\PSoC4/Bootloader.c ****     * Set cyBtldrRunType to zero in case of non-software reset occured. This means
 426:.\Generated_Source\PSoC4/Bootloader.c ****     * that bootloader application is scheduled - that is initial clean state. The
 427:.\Generated_Source\PSoC4/Bootloader.c ****     * value of cyBtldrRunType is valid only in case of software reset.
 428:.\Generated_Source\PSoC4/Bootloader.c ****     *******************************************************************************/
 429:.\Generated_Source\PSoC4/Bootloader.c ****     if (0u == (Bootloader_RES_CAUSE_REG & Bootloader_RES_CAUSE_RESET_SOFT))
 430:.\Generated_Source\PSoC4/Bootloader.c ****     {
 431:.\Generated_Source\PSoC4/Bootloader.c ****         cyBtldrRunType = 0u;
 432:.\Generated_Source\PSoC4/Bootloader.c ****     }
ARM GAS  C:\Users\ZHANGM~1\AppData\Local\Temp\ccNPBJtR.s 			page 9


 433:.\Generated_Source\PSoC4/Bootloader.c **** 
 434:.\Generated_Source\PSoC4/Bootloader.c **** #endif /* (CY_PSOC4) */
 435:.\Generated_Source\PSoC4/Bootloader.c **** 
 436:.\Generated_Source\PSoC4/Bootloader.c **** 
 437:.\Generated_Source\PSoC4/Bootloader.c ****     if (Bootloader_GET_RUN_TYPE == Bootloader_START_APP)
 438:.\Generated_Source\PSoC4/Bootloader.c ****     {
 439:.\Generated_Source\PSoC4/Bootloader.c ****         Bootloader_SET_RUN_TYPE(0u);
 440:.\Generated_Source\PSoC4/Bootloader.c **** 
 441:.\Generated_Source\PSoC4/Bootloader.c ****         /*******************************************************************************
 442:.\Generated_Source\PSoC4/Bootloader.c ****         * Indicates that we have told ourselves to jump to the application since we have
 443:.\Generated_Source\PSoC4/Bootloader.c ****         * already told ourselves to jump, we do not do any expensive verification of the
 444:.\Generated_Source\PSoC4/Bootloader.c ****         * application. We just check to make sure that the value at CY_APP_ADDR_ADDRESS
 445:.\Generated_Source\PSoC4/Bootloader.c ****         * is something other than 0.
 446:.\Generated_Source\PSoC4/Bootloader.c ****         *******************************************************************************/
 447:.\Generated_Source\PSoC4/Bootloader.c ****         if(0u != Bootloader_GetMetadata(Bootloader_GET_METADATA_BTLDB_ADDR, Bootloader_activeApp))
 448:.\Generated_Source\PSoC4/Bootloader.c ****         {
 449:.\Generated_Source\PSoC4/Bootloader.c ****             /* Never return from this method */
 450:.\Generated_Source\PSoC4/Bootloader.c ****             Bootloader_LaunchBootloadable(Bootloader_GetMetadata(Bootloader_GET_METADATA_BTLDB_ADDR
 451:.\Generated_Source\PSoC4/Bootloader.c ****                                                                              Bootloader_activeApp))
 452:.\Generated_Source\PSoC4/Bootloader.c ****         }
 453:.\Generated_Source\PSoC4/Bootloader.c ****     }
 454:.\Generated_Source\PSoC4/Bootloader.c **** }
 455:.\Generated_Source\PSoC4/Bootloader.c **** 
 456:.\Generated_Source\PSoC4/Bootloader.c **** 
 457:.\Generated_Source\PSoC4/Bootloader.c **** /* Moves the arguement appAddr (RO) into PC, moving execution to the appAddr */
 458:.\Generated_Source\PSoC4/Bootloader.c **** #if defined (__ARMCC_VERSION)
 459:.\Generated_Source\PSoC4/Bootloader.c **** 
 460:.\Generated_Source\PSoC4/Bootloader.c ****     __asm static void Bootloader_LaunchBootloadable(uint32 appAddr)
 461:.\Generated_Source\PSoC4/Bootloader.c ****     {
 462:.\Generated_Source\PSoC4/Bootloader.c ****         BX  R0
 463:.\Generated_Source\PSoC4/Bootloader.c ****         ALIGN
 464:.\Generated_Source\PSoC4/Bootloader.c ****     }
 465:.\Generated_Source\PSoC4/Bootloader.c **** 
 466:.\Generated_Source\PSoC4/Bootloader.c **** #elif defined(__GNUC__)
 467:.\Generated_Source\PSoC4/Bootloader.c **** 
 468:.\Generated_Source\PSoC4/Bootloader.c ****     __attribute__((noinline)) /* Workaround for GCC toolchain bug with inlining */
 469:.\Generated_Source\PSoC4/Bootloader.c ****     __attribute__((naked))
 470:.\Generated_Source\PSoC4/Bootloader.c ****     static void Bootloader_LaunchBootloadable(uint32 appAddr)
 471:.\Generated_Source\PSoC4/Bootloader.c ****     {
  25              		.loc 1 471 0
  26              		.cfi_startproc
  27              	.LVL0:
 472:.\Generated_Source\PSoC4/Bootloader.c ****         __asm volatile("    BX  R0\n");
  28              		.loc 1 472 0
  29              	@ 472 ".\Generated_Source\PSoC4\Bootloader.c" 1
  30 0000 0047     		    BX  R0
  31              	
  32              	@ 0 "" 2
 473:.\Generated_Source\PSoC4/Bootloader.c ****     }
  33              		.loc 1 473 0
  34              		.code	16
  35              		.cfi_endproc
  36              	.LFE38:
  37              		.size	Bootloader_LaunchBootloadable, .-Bootloader_LaunchBootloadable
  38              		.section	.text.Bootloader_GetMetadata.constprop.1,"ax",%progbits
  39              		.align	1
  40              		.code	16
ARM GAS  C:\Users\ZHANGM~1\AppData\Local\Temp\ccNPBJtR.s 			page 10


  41              		.thumb_func
  42              		.type	Bootloader_GetMetadata.constprop.1, %function
  43              	Bootloader_GetMetadata.constprop.1:
  44              	.LFB44:
 474:.\Generated_Source\PSoC4/Bootloader.c **** 
 475:.\Generated_Source\PSoC4/Bootloader.c **** #elif defined (__ICCARM__)
 476:.\Generated_Source\PSoC4/Bootloader.c **** 
 477:.\Generated_Source\PSoC4/Bootloader.c ****     static void Bootloader_LaunchBootloadable(uint32 appAddr)
 478:.\Generated_Source\PSoC4/Bootloader.c ****     {
 479:.\Generated_Source\PSoC4/Bootloader.c ****         __asm volatile("    BX  R0\n");
 480:.\Generated_Source\PSoC4/Bootloader.c ****     }
 481:.\Generated_Source\PSoC4/Bootloader.c **** 
 482:.\Generated_Source\PSoC4/Bootloader.c **** #endif  /* (__ARMCC_VERSION) */
 483:.\Generated_Source\PSoC4/Bootloader.c **** 
 484:.\Generated_Source\PSoC4/Bootloader.c **** 
 485:.\Generated_Source\PSoC4/Bootloader.c **** /*******************************************************************************
 486:.\Generated_Source\PSoC4/Bootloader.c **** * Function Name: Bootloader_ValidateBootloadable
 487:.\Generated_Source\PSoC4/Bootloader.c **** ********************************************************************************
 488:.\Generated_Source\PSoC4/Bootloader.c **** * Summary:
 489:.\Generated_Source\PSoC4/Bootloader.c **** *  This routine computes the checksum, zero check, 0xFF check of the
 490:.\Generated_Source\PSoC4/Bootloader.c **** *  application area to determine whether a valid application is loaded.
 491:.\Generated_Source\PSoC4/Bootloader.c **** *
 492:.\Generated_Source\PSoC4/Bootloader.c **** * Parameters:
 493:.\Generated_Source\PSoC4/Bootloader.c **** *  appId:
 494:.\Generated_Source\PSoC4/Bootloader.c **** *      The application number to verify
 495:.\Generated_Source\PSoC4/Bootloader.c **** *
 496:.\Generated_Source\PSoC4/Bootloader.c **** * Returns:
 497:.\Generated_Source\PSoC4/Bootloader.c **** *  CYRET_SUCCESS  - if successful
 498:.\Generated_Source\PSoC4/Bootloader.c **** *  CYRET_BAD_DATA - if the bootloadable is corrupt
 499:.\Generated_Source\PSoC4/Bootloader.c **** *
 500:.\Generated_Source\PSoC4/Bootloader.c **** *******************************************************************************/
 501:.\Generated_Source\PSoC4/Bootloader.c **** static cystatus Bootloader_ValidateBootloadable(uint8 appId) CYSMALL \
 502:.\Generated_Source\PSoC4/Bootloader.c **** 
 503:.\Generated_Source\PSoC4/Bootloader.c ****     {
 504:.\Generated_Source\PSoC4/Bootloader.c ****         uint32 CYDATA idx;
 505:.\Generated_Source\PSoC4/Bootloader.c **** 
 506:.\Generated_Source\PSoC4/Bootloader.c ****         uint32 CYDATA end   = Bootloader_FIRST_APP_BYTE(appId) +
 507:.\Generated_Source\PSoC4/Bootloader.c ****                                 Bootloader_GetMetadata(Bootloader_GET_METADATA_BTLDB_LENGTH,
 508:.\Generated_Source\PSoC4/Bootloader.c ****                                                        appId);
 509:.\Generated_Source\PSoC4/Bootloader.c **** 
 510:.\Generated_Source\PSoC4/Bootloader.c ****         CYBIT         valid = 0u; /* Assume bad flash image */
 511:.\Generated_Source\PSoC4/Bootloader.c ****         uint8  CYDATA calcedChecksum = 0u;
 512:.\Generated_Source\PSoC4/Bootloader.c **** 
 513:.\Generated_Source\PSoC4/Bootloader.c **** 
 514:.\Generated_Source\PSoC4/Bootloader.c ****         #if(0u != Bootloader_DUAL_APP_BOOTLOADER)
 515:.\Generated_Source\PSoC4/Bootloader.c **** 
 516:.\Generated_Source\PSoC4/Bootloader.c ****             if(appId > 1u)
 517:.\Generated_Source\PSoC4/Bootloader.c ****             {
 518:.\Generated_Source\PSoC4/Bootloader.c ****                 return(CYRET_BAD_DATA);
 519:.\Generated_Source\PSoC4/Bootloader.c ****             }
 520:.\Generated_Source\PSoC4/Bootloader.c **** 
 521:.\Generated_Source\PSoC4/Bootloader.c ****         #endif  /* (0u != Bootloader_DUAL_APP_BOOTLOADER) */
 522:.\Generated_Source\PSoC4/Bootloader.c **** 
 523:.\Generated_Source\PSoC4/Bootloader.c **** 
 524:.\Generated_Source\PSoC4/Bootloader.c ****         #if(0u != Bootloader_FAST_APP_VALIDATION)
 525:.\Generated_Source\PSoC4/Bootloader.c **** 
 526:.\Generated_Source\PSoC4/Bootloader.c ****             if(Bootloader_MD_BTLDB_VERIFIED_VALUE(appId) == Bootloader_MD_BTLDB_IS_VERIFIED)
ARM GAS  C:\Users\ZHANGM~1\AppData\Local\Temp\ccNPBJtR.s 			page 11


 527:.\Generated_Source\PSoC4/Bootloader.c ****             {
 528:.\Generated_Source\PSoC4/Bootloader.c ****                 return(CYRET_SUCCESS);
 529:.\Generated_Source\PSoC4/Bootloader.c ****             }
 530:.\Generated_Source\PSoC4/Bootloader.c **** 
 531:.\Generated_Source\PSoC4/Bootloader.c ****         #endif  /* (0u != Bootloader_FAST_APP_VALIDATION) */
 532:.\Generated_Source\PSoC4/Bootloader.c **** 
 533:.\Generated_Source\PSoC4/Bootloader.c **** 
 534:.\Generated_Source\PSoC4/Bootloader.c ****         /* Calculate checksum of bootloadable image */
 535:.\Generated_Source\PSoC4/Bootloader.c ****         for(idx = Bootloader_FIRST_APP_BYTE(appId); idx < end; ++idx)
 536:.\Generated_Source\PSoC4/Bootloader.c ****         {
 537:.\Generated_Source\PSoC4/Bootloader.c ****             uint8 CYDATA curByte = Bootloader_GET_CODE_BYTE(idx);
 538:.\Generated_Source\PSoC4/Bootloader.c **** 
 539:.\Generated_Source\PSoC4/Bootloader.c ****             if((curByte != 0u) && (curByte != 0xFFu))
 540:.\Generated_Source\PSoC4/Bootloader.c ****             {
 541:.\Generated_Source\PSoC4/Bootloader.c ****                 valid = 1u;
 542:.\Generated_Source\PSoC4/Bootloader.c ****             }
 543:.\Generated_Source\PSoC4/Bootloader.c **** 
 544:.\Generated_Source\PSoC4/Bootloader.c ****             calcedChecksum += curByte;
 545:.\Generated_Source\PSoC4/Bootloader.c ****         }
 546:.\Generated_Source\PSoC4/Bootloader.c **** 
 547:.\Generated_Source\PSoC4/Bootloader.c **** 
 548:.\Generated_Source\PSoC4/Bootloader.c ****         /***************************************************************************
 549:.\Generated_Source\PSoC4/Bootloader.c ****         * We do not compute checksum over the meta data section, so no need to
 550:.\Generated_Source\PSoC4/Bootloader.c ****         * subtract off App Verified or App Active information here like we do when
 551:.\Generated_Source\PSoC4/Bootloader.c ****         * verifying a row.
 552:.\Generated_Source\PSoC4/Bootloader.c ****         ***************************************************************************/
 553:.\Generated_Source\PSoC4/Bootloader.c **** 
 554:.\Generated_Source\PSoC4/Bootloader.c **** 
 555:.\Generated_Source\PSoC4/Bootloader.c ****         #if((!CY_PSOC4) && (CYDEV_ECC_ENABLE == 0u))
 556:.\Generated_Source\PSoC4/Bootloader.c **** 
 557:.\Generated_Source\PSoC4/Bootloader.c ****             /* Add ECC data to checksum */
 558:.\Generated_Source\PSoC4/Bootloader.c ****             idx = ((Bootloader_FIRST_APP_BYTE(appId)) >> 3u);
 559:.\Generated_Source\PSoC4/Bootloader.c **** 
 560:.\Generated_Source\PSoC4/Bootloader.c ****             /* Flash may run into meta data, ECC does not so use full row */
 561:.\Generated_Source\PSoC4/Bootloader.c ****             end = (end == (CY_FLASH_SIZE - Bootloader_MD_SIZEOF))
 562:.\Generated_Source\PSoC4/Bootloader.c ****                 ? (CY_FLASH_SIZE >> 3u)
 563:.\Generated_Source\PSoC4/Bootloader.c ****                 : (end >> 3u);
 564:.\Generated_Source\PSoC4/Bootloader.c **** 
 565:.\Generated_Source\PSoC4/Bootloader.c ****             for (; idx < end; ++idx)
 566:.\Generated_Source\PSoC4/Bootloader.c ****             {
 567:.\Generated_Source\PSoC4/Bootloader.c ****                 calcedChecksum += CY_GET_XTND_REG8((volatile uint8 *)(CYDEV_ECC_BASE + idx));
 568:.\Generated_Source\PSoC4/Bootloader.c ****             }
 569:.\Generated_Source\PSoC4/Bootloader.c **** 
 570:.\Generated_Source\PSoC4/Bootloader.c ****         #endif  /* ((!CY_PSOC4) && (CYDEV_ECC_ENABLE == 0u)) */
 571:.\Generated_Source\PSoC4/Bootloader.c **** 
 572:.\Generated_Source\PSoC4/Bootloader.c **** 
 573:.\Generated_Source\PSoC4/Bootloader.c ****         calcedChecksum = ( uint8 )1u + ( uint8 )(~calcedChecksum);
 574:.\Generated_Source\PSoC4/Bootloader.c **** 
 575:.\Generated_Source\PSoC4/Bootloader.c ****         if((calcedChecksum != Bootloader_MD_BTLDB_CHECKSUM_VALUE(appId)) ||
 576:.\Generated_Source\PSoC4/Bootloader.c ****            (0u == valid))
 577:.\Generated_Source\PSoC4/Bootloader.c ****         {
 578:.\Generated_Source\PSoC4/Bootloader.c ****             return(CYRET_BAD_DATA);
 579:.\Generated_Source\PSoC4/Bootloader.c ****         }
 580:.\Generated_Source\PSoC4/Bootloader.c **** 
 581:.\Generated_Source\PSoC4/Bootloader.c **** 
 582:.\Generated_Source\PSoC4/Bootloader.c ****         #if(0u != Bootloader_FAST_APP_VALIDATION)
 583:.\Generated_Source\PSoC4/Bootloader.c ****             Bootloader_SetFlashByte((uint32) Bootloader_MD_BTLDB_VERIFIED_OFFSET(appId),
ARM GAS  C:\Users\ZHANGM~1\AppData\Local\Temp\ccNPBJtR.s 			page 12


 584:.\Generated_Source\PSoC4/Bootloader.c ****                                           Bootloader_MD_BTLDB_IS_VERIFIED);
 585:.\Generated_Source\PSoC4/Bootloader.c ****         #endif  /* (0u != Bootloader_FAST_APP_VALIDATION) */
 586:.\Generated_Source\PSoC4/Bootloader.c **** 
 587:.\Generated_Source\PSoC4/Bootloader.c **** 
 588:.\Generated_Source\PSoC4/Bootloader.c ****         return(CYRET_SUCCESS);
 589:.\Generated_Source\PSoC4/Bootloader.c **** }
 590:.\Generated_Source\PSoC4/Bootloader.c **** 
 591:.\Generated_Source\PSoC4/Bootloader.c **** 
 592:.\Generated_Source\PSoC4/Bootloader.c **** /*******************************************************************************
 593:.\Generated_Source\PSoC4/Bootloader.c **** * Function Name: Bootloader_HostLink
 594:.\Generated_Source\PSoC4/Bootloader.c **** ********************************************************************************
 595:.\Generated_Source\PSoC4/Bootloader.c **** *
 596:.\Generated_Source\PSoC4/Bootloader.c **** * Summary:
 597:.\Generated_Source\PSoC4/Bootloader.c **** *  Causes the bootloader to attempt to read data being transmitted by the
 598:.\Generated_Source\PSoC4/Bootloader.c **** *  host application.  If data is sent from the host, this establishes the
 599:.\Generated_Source\PSoC4/Bootloader.c **** *  communication interface to process all requests.
 600:.\Generated_Source\PSoC4/Bootloader.c **** *
 601:.\Generated_Source\PSoC4/Bootloader.c **** * Parameters:
 602:.\Generated_Source\PSoC4/Bootloader.c **** *  timeOut:
 603:.\Generated_Source\PSoC4/Bootloader.c **** *   The amount of time to listen for data before giving up. Timeout is
 604:.\Generated_Source\PSoC4/Bootloader.c **** *   measured in 10s of ms.  Use 0 for infinite wait.
 605:.\Generated_Source\PSoC4/Bootloader.c **** *
 606:.\Generated_Source\PSoC4/Bootloader.c **** * Return:
 607:.\Generated_Source\PSoC4/Bootloader.c **** *   None
 608:.\Generated_Source\PSoC4/Bootloader.c **** *
 609:.\Generated_Source\PSoC4/Bootloader.c **** *******************************************************************************/
 610:.\Generated_Source\PSoC4/Bootloader.c **** static void Bootloader_HostLink(uint8 timeOut) 
 611:.\Generated_Source\PSoC4/Bootloader.c **** {
 612:.\Generated_Source\PSoC4/Bootloader.c ****     uint16    CYDATA numberRead;
 613:.\Generated_Source\PSoC4/Bootloader.c ****     uint16    CYDATA rspSize;
 614:.\Generated_Source\PSoC4/Bootloader.c ****     uint8     CYDATA ackCode;
 615:.\Generated_Source\PSoC4/Bootloader.c ****     uint16    CYDATA pktChecksum;
 616:.\Generated_Source\PSoC4/Bootloader.c ****     cystatus  CYDATA readStat;
 617:.\Generated_Source\PSoC4/Bootloader.c ****     uint16    CYDATA pktSize    = 0u;
 618:.\Generated_Source\PSoC4/Bootloader.c ****     uint16    CYDATA dataOffset = 0u;
 619:.\Generated_Source\PSoC4/Bootloader.c ****     uint8     CYDATA timeOutCnt = 10u;
 620:.\Generated_Source\PSoC4/Bootloader.c **** 
 621:.\Generated_Source\PSoC4/Bootloader.c ****     #if(0u == Bootloader_DUAL_APP_BOOTLOADER)
 622:.\Generated_Source\PSoC4/Bootloader.c ****         uint8 CYDATA clearedMetaData = 0u;
 623:.\Generated_Source\PSoC4/Bootloader.c ****     #endif  /* (0u == Bootloader_DUAL_APP_BOOTLOADER) */
 624:.\Generated_Source\PSoC4/Bootloader.c **** 
 625:.\Generated_Source\PSoC4/Bootloader.c ****     CYBIT     communicationState = Bootloader_COMMUNICATION_STATE_IDLE;
 626:.\Generated_Source\PSoC4/Bootloader.c **** 
 627:.\Generated_Source\PSoC4/Bootloader.c ****     uint8     packetBuffer[Bootloader_SIZEOF_COMMAND_BUFFER];
 628:.\Generated_Source\PSoC4/Bootloader.c ****     uint8     dataBuffer  [Bootloader_SIZEOF_COMMAND_BUFFER];
 629:.\Generated_Source\PSoC4/Bootloader.c **** 
 630:.\Generated_Source\PSoC4/Bootloader.c **** 
 631:.\Generated_Source\PSoC4/Bootloader.c ****     /* Initialize communications channel. */
 632:.\Generated_Source\PSoC4/Bootloader.c ****     CyBtldrCommStart();
 633:.\Generated_Source\PSoC4/Bootloader.c **** 
 634:.\Generated_Source\PSoC4/Bootloader.c ****     /* Enable global interrupts */
 635:.\Generated_Source\PSoC4/Bootloader.c ****     CyGlobalIntEnable;
 636:.\Generated_Source\PSoC4/Bootloader.c **** 
 637:.\Generated_Source\PSoC4/Bootloader.c ****     do
 638:.\Generated_Source\PSoC4/Bootloader.c ****     {
 639:.\Generated_Source\PSoC4/Bootloader.c ****         ackCode = CYRET_SUCCESS;
 640:.\Generated_Source\PSoC4/Bootloader.c **** 
ARM GAS  C:\Users\ZHANGM~1\AppData\Local\Temp\ccNPBJtR.s 			page 13


 641:.\Generated_Source\PSoC4/Bootloader.c ****         do
 642:.\Generated_Source\PSoC4/Bootloader.c ****         {
 643:.\Generated_Source\PSoC4/Bootloader.c ****             readStat = CyBtldrCommRead(packetBuffer,
 644:.\Generated_Source\PSoC4/Bootloader.c ****                                         Bootloader_SIZEOF_COMMAND_BUFFER,
 645:.\Generated_Source\PSoC4/Bootloader.c ****                                         &numberRead,
 646:.\Generated_Source\PSoC4/Bootloader.c ****                                         (0u == timeOut) ? 0xFFu : timeOut);
 647:.\Generated_Source\PSoC4/Bootloader.c ****             if (0u != timeOut)
 648:.\Generated_Source\PSoC4/Bootloader.c ****             {
 649:.\Generated_Source\PSoC4/Bootloader.c ****                 timeOutCnt--;
 650:.\Generated_Source\PSoC4/Bootloader.c ****             }
 651:.\Generated_Source\PSoC4/Bootloader.c **** 
 652:.\Generated_Source\PSoC4/Bootloader.c ****         } while ( (0u != timeOutCnt) && (readStat != CYRET_SUCCESS) );
 653:.\Generated_Source\PSoC4/Bootloader.c **** 
 654:.\Generated_Source\PSoC4/Bootloader.c **** 
 655:.\Generated_Source\PSoC4/Bootloader.c ****         if( readStat != CYRET_SUCCESS )
 656:.\Generated_Source\PSoC4/Bootloader.c ****         {
 657:.\Generated_Source\PSoC4/Bootloader.c ****             continue;
 658:.\Generated_Source\PSoC4/Bootloader.c ****         }
 659:.\Generated_Source\PSoC4/Bootloader.c **** 
 660:.\Generated_Source\PSoC4/Bootloader.c ****         if((numberRead < Bootloader_MIN_PKT_SIZE) ||
 661:.\Generated_Source\PSoC4/Bootloader.c ****            (packetBuffer[Bootloader_SOP_ADDR] != Bootloader_SOP))
 662:.\Generated_Source\PSoC4/Bootloader.c ****         {
 663:.\Generated_Source\PSoC4/Bootloader.c ****             ackCode = Bootloader_ERR_DATA;
 664:.\Generated_Source\PSoC4/Bootloader.c ****         }
 665:.\Generated_Source\PSoC4/Bootloader.c ****         else
 666:.\Generated_Source\PSoC4/Bootloader.c ****         {
 667:.\Generated_Source\PSoC4/Bootloader.c ****             pktSize = ((uint16)((uint16)packetBuffer[Bootloader_SIZE_ADDR + 1u] << 8u)) |
 668:.\Generated_Source\PSoC4/Bootloader.c ****                                packetBuffer[Bootloader_SIZE_ADDR];
 669:.\Generated_Source\PSoC4/Bootloader.c **** 
 670:.\Generated_Source\PSoC4/Bootloader.c ****             pktChecksum = ((uint16)((uint16)packetBuffer[Bootloader_CHK_ADDR(pktSize) + 1u] << 8u))
 671:.\Generated_Source\PSoC4/Bootloader.c ****                                    packetBuffer[Bootloader_CHK_ADDR(pktSize)];
 672:.\Generated_Source\PSoC4/Bootloader.c **** 
 673:.\Generated_Source\PSoC4/Bootloader.c ****             if((pktSize + Bootloader_MIN_PKT_SIZE) > numberRead)
 674:.\Generated_Source\PSoC4/Bootloader.c ****             {
 675:.\Generated_Source\PSoC4/Bootloader.c ****                 ackCode = Bootloader_ERR_LENGTH;
 676:.\Generated_Source\PSoC4/Bootloader.c ****             }
 677:.\Generated_Source\PSoC4/Bootloader.c ****             else if(packetBuffer[Bootloader_EOP_ADDR(pktSize)] != Bootloader_EOP)
 678:.\Generated_Source\PSoC4/Bootloader.c ****             {
 679:.\Generated_Source\PSoC4/Bootloader.c ****                 ackCode = Bootloader_ERR_DATA;
 680:.\Generated_Source\PSoC4/Bootloader.c ****             }
 681:.\Generated_Source\PSoC4/Bootloader.c ****             else if(pktChecksum != Bootloader_CalcPacketChecksum(packetBuffer,
 682:.\Generated_Source\PSoC4/Bootloader.c ****                                                                         pktSize + Bootloader_DATA_A
 683:.\Generated_Source\PSoC4/Bootloader.c ****             {
 684:.\Generated_Source\PSoC4/Bootloader.c ****                 ackCode = Bootloader_ERR_CHECKSUM;
 685:.\Generated_Source\PSoC4/Bootloader.c ****             }
 686:.\Generated_Source\PSoC4/Bootloader.c ****             else
 687:.\Generated_Source\PSoC4/Bootloader.c ****             {
 688:.\Generated_Source\PSoC4/Bootloader.c ****                 /* Empty section */
 689:.\Generated_Source\PSoC4/Bootloader.c ****             }
 690:.\Generated_Source\PSoC4/Bootloader.c ****         }
 691:.\Generated_Source\PSoC4/Bootloader.c **** 
 692:.\Generated_Source\PSoC4/Bootloader.c ****         rspSize = 0u;
 693:.\Generated_Source\PSoC4/Bootloader.c ****         if(ackCode == CYRET_SUCCESS)
 694:.\Generated_Source\PSoC4/Bootloader.c ****         {
 695:.\Generated_Source\PSoC4/Bootloader.c ****             uint8 CYDATA btldrData = packetBuffer[Bootloader_DATA_ADDR];
 696:.\Generated_Source\PSoC4/Bootloader.c **** 
 697:.\Generated_Source\PSoC4/Bootloader.c ****             ackCode = Bootloader_ERR_DATA;
ARM GAS  C:\Users\ZHANGM~1\AppData\Local\Temp\ccNPBJtR.s 			page 14


 698:.\Generated_Source\PSoC4/Bootloader.c ****             switch(packetBuffer[Bootloader_CMD_ADDR])
 699:.\Generated_Source\PSoC4/Bootloader.c ****             {
 700:.\Generated_Source\PSoC4/Bootloader.c **** 
 701:.\Generated_Source\PSoC4/Bootloader.c **** 
 702:.\Generated_Source\PSoC4/Bootloader.c ****             /***************************************************************************
 703:.\Generated_Source\PSoC4/Bootloader.c ****             *   Get metadata
 704:.\Generated_Source\PSoC4/Bootloader.c ****             ***************************************************************************/
 705:.\Generated_Source\PSoC4/Bootloader.c ****             #if(0u != Bootloader_CMD_GET_METADATA)
 706:.\Generated_Source\PSoC4/Bootloader.c **** 
 707:.\Generated_Source\PSoC4/Bootloader.c ****                 case Bootloader_COMMAND_GET_METADATA:
 708:.\Generated_Source\PSoC4/Bootloader.c **** 
 709:.\Generated_Source\PSoC4/Bootloader.c ****                     if((Bootloader_COMMUNICATION_STATE_ACTIVE == communicationState) && (pktSize ==
 710:.\Generated_Source\PSoC4/Bootloader.c ****                     {
 711:.\Generated_Source\PSoC4/Bootloader.c ****                         if (btldrData >= Bootloader_MAX_NUM_OF_BTLDB)
 712:.\Generated_Source\PSoC4/Bootloader.c ****                         {
 713:.\Generated_Source\PSoC4/Bootloader.c ****                             ackCode = Bootloader_ERR_APP;
 714:.\Generated_Source\PSoC4/Bootloader.c ****                         }
 715:.\Generated_Source\PSoC4/Bootloader.c ****                         else if(CYRET_SUCCESS == Bootloader_ValidateBootloadable(btldrData))
 716:.\Generated_Source\PSoC4/Bootloader.c ****                         {
 717:.\Generated_Source\PSoC4/Bootloader.c ****                             #if(CY_PSOC3)
 718:.\Generated_Source\PSoC4/Bootloader.c ****                                 (void) memcpy(&packetBuffer[Bootloader_DATA_ADDR],
 719:.\Generated_Source\PSoC4/Bootloader.c ****                                             ((uint8  CYCODE *) (Bootloader_META_BASE(btldrData))), 
 720:.\Generated_Source\PSoC4/Bootloader.c ****                             #else
 721:.\Generated_Source\PSoC4/Bootloader.c ****                                 (void) memcpy(&packetBuffer[Bootloader_DATA_ADDR],
 722:.\Generated_Source\PSoC4/Bootloader.c ****                                             (uint8 *) Bootloader_META_BASE(btldrData), 56u);
 723:.\Generated_Source\PSoC4/Bootloader.c ****                             #endif  /* (CY_PSOC3) */
 724:.\Generated_Source\PSoC4/Bootloader.c **** 
 725:.\Generated_Source\PSoC4/Bootloader.c ****                             rspSize = 56u;
 726:.\Generated_Source\PSoC4/Bootloader.c ****                             ackCode = CYRET_SUCCESS;
 727:.\Generated_Source\PSoC4/Bootloader.c ****                         }
 728:.\Generated_Source\PSoC4/Bootloader.c ****                         else
 729:.\Generated_Source\PSoC4/Bootloader.c ****                         {
 730:.\Generated_Source\PSoC4/Bootloader.c ****                             ackCode = Bootloader_ERR_APP;
 731:.\Generated_Source\PSoC4/Bootloader.c ****                         }
 732:.\Generated_Source\PSoC4/Bootloader.c ****                     }
 733:.\Generated_Source\PSoC4/Bootloader.c ****                     break;
 734:.\Generated_Source\PSoC4/Bootloader.c **** 
 735:.\Generated_Source\PSoC4/Bootloader.c ****             #endif  /* (0u != Bootloader_CMD_GET_METADATA) */
 736:.\Generated_Source\PSoC4/Bootloader.c **** 
 737:.\Generated_Source\PSoC4/Bootloader.c **** 
 738:.\Generated_Source\PSoC4/Bootloader.c ****             /***************************************************************************
 739:.\Generated_Source\PSoC4/Bootloader.c ****             *   Verify checksum
 740:.\Generated_Source\PSoC4/Bootloader.c ****             ***************************************************************************/
 741:.\Generated_Source\PSoC4/Bootloader.c ****             case Bootloader_COMMAND_CHECKSUM:
 742:.\Generated_Source\PSoC4/Bootloader.c **** 
 743:.\Generated_Source\PSoC4/Bootloader.c ****                 if((Bootloader_COMMUNICATION_STATE_ACTIVE == communicationState) && (pktSize == 0u)
 744:.\Generated_Source\PSoC4/Bootloader.c ****                 {
 745:.\Generated_Source\PSoC4/Bootloader.c ****                     packetBuffer[Bootloader_DATA_ADDR] =
 746:.\Generated_Source\PSoC4/Bootloader.c ****                             (uint8)(Bootloader_ValidateBootloadable(Bootloader_activeApp) == CYRET_
 747:.\Generated_Source\PSoC4/Bootloader.c **** 
 748:.\Generated_Source\PSoC4/Bootloader.c ****                     rspSize = 1u;
 749:.\Generated_Source\PSoC4/Bootloader.c ****                     ackCode = CYRET_SUCCESS;
 750:.\Generated_Source\PSoC4/Bootloader.c ****                 }
 751:.\Generated_Source\PSoC4/Bootloader.c ****                 break;
 752:.\Generated_Source\PSoC4/Bootloader.c **** 
 753:.\Generated_Source\PSoC4/Bootloader.c **** 
 754:.\Generated_Source\PSoC4/Bootloader.c ****             /***************************************************************************
ARM GAS  C:\Users\ZHANGM~1\AppData\Local\Temp\ccNPBJtR.s 			page 15


 755:.\Generated_Source\PSoC4/Bootloader.c ****             *   Get flash size
 756:.\Generated_Source\PSoC4/Bootloader.c ****             ***************************************************************************/
 757:.\Generated_Source\PSoC4/Bootloader.c ****             #if(0u != Bootloader_CMD_GET_FLASH_SIZE_AVAIL)
 758:.\Generated_Source\PSoC4/Bootloader.c **** 
 759:.\Generated_Source\PSoC4/Bootloader.c ****                 case Bootloader_COMMAND_REPORT_SIZE:
 760:.\Generated_Source\PSoC4/Bootloader.c **** 
 761:.\Generated_Source\PSoC4/Bootloader.c ****                     if((Bootloader_COMMUNICATION_STATE_ACTIVE == communicationState) && (pktSize ==
 762:.\Generated_Source\PSoC4/Bootloader.c ****                     {
 763:.\Generated_Source\PSoC4/Bootloader.c ****                         /* btldrData holds flash array ID sent by host */
 764:.\Generated_Source\PSoC4/Bootloader.c ****                         if(btldrData < Bootloader_NUM_OF_FLASH_ARRAYS)
 765:.\Generated_Source\PSoC4/Bootloader.c ****                         {
 766:.\Generated_Source\PSoC4/Bootloader.c ****                             #if (1u == Bootloader_NUM_OF_FLASH_ARRAYS)
 767:.\Generated_Source\PSoC4/Bootloader.c ****                                 uint16 CYDATA startRow = (uint16)*Bootloader_SizeBytesAccess / CYDE
 768:.\Generated_Source\PSoC4/Bootloader.c ****                             #else
 769:.\Generated_Source\PSoC4/Bootloader.c ****                                 uint16 CYDATA startRow = 0u;
 770:.\Generated_Source\PSoC4/Bootloader.c ****                             #endif  /* (1u == Bootloader_NUM_OF_FLASH_ARRAYS) */
 771:.\Generated_Source\PSoC4/Bootloader.c **** 
 772:.\Generated_Source\PSoC4/Bootloader.c ****                             packetBuffer[Bootloader_DATA_ADDR]      = LO8(startRow);
 773:.\Generated_Source\PSoC4/Bootloader.c ****                             packetBuffer[Bootloader_DATA_ADDR + 1u] = HI8(startRow);
 774:.\Generated_Source\PSoC4/Bootloader.c ****                             packetBuffer[Bootloader_DATA_ADDR + 2u] = LO8(CY_FLASH_NUMBER_ROWS - 1u
 775:.\Generated_Source\PSoC4/Bootloader.c ****                             packetBuffer[Bootloader_DATA_ADDR + 3u] = HI8(CY_FLASH_NUMBER_ROWS - 1u
 776:.\Generated_Source\PSoC4/Bootloader.c **** 
 777:.\Generated_Source\PSoC4/Bootloader.c ****                             rspSize = 4u;
 778:.\Generated_Source\PSoC4/Bootloader.c ****                             ackCode = CYRET_SUCCESS;
 779:.\Generated_Source\PSoC4/Bootloader.c ****                         }
 780:.\Generated_Source\PSoC4/Bootloader.c **** 
 781:.\Generated_Source\PSoC4/Bootloader.c ****                     }
 782:.\Generated_Source\PSoC4/Bootloader.c ****                     break;
 783:.\Generated_Source\PSoC4/Bootloader.c **** 
 784:.\Generated_Source\PSoC4/Bootloader.c ****             #endif  /* (0u != Bootloader_CMD_GET_FLASH_SIZE_AVAIL) */
 785:.\Generated_Source\PSoC4/Bootloader.c **** 
 786:.\Generated_Source\PSoC4/Bootloader.c **** 
 787:.\Generated_Source\PSoC4/Bootloader.c ****             /***************************************************************************
 788:.\Generated_Source\PSoC4/Bootloader.c ****             *   Get application status
 789:.\Generated_Source\PSoC4/Bootloader.c ****             ***************************************************************************/
 790:.\Generated_Source\PSoC4/Bootloader.c ****             #if(0u != Bootloader_DUAL_APP_BOOTLOADER)
 791:.\Generated_Source\PSoC4/Bootloader.c **** 
 792:.\Generated_Source\PSoC4/Bootloader.c ****                 #if(0u != Bootloader_CMD_GET_APP_STATUS_AVAIL)
 793:.\Generated_Source\PSoC4/Bootloader.c **** 
 794:.\Generated_Source\PSoC4/Bootloader.c ****                     case Bootloader_COMMAND_APP_STATUS:
 795:.\Generated_Source\PSoC4/Bootloader.c **** 
 796:.\Generated_Source\PSoC4/Bootloader.c ****                         if((Bootloader_COMMUNICATION_STATE_ACTIVE == communicationState) && (pktSiz
 797:.\Generated_Source\PSoC4/Bootloader.c ****                         {
 798:.\Generated_Source\PSoC4/Bootloader.c **** 
 799:.\Generated_Source\PSoC4/Bootloader.c ****                             packetBuffer[Bootloader_DATA_ADDR] =
 800:.\Generated_Source\PSoC4/Bootloader.c ****                                 (uint8)Bootloader_ValidateBootloadable(btldrData);
 801:.\Generated_Source\PSoC4/Bootloader.c **** 
 802:.\Generated_Source\PSoC4/Bootloader.c ****                             packetBuffer[Bootloader_DATA_ADDR + 1u] =
 803:.\Generated_Source\PSoC4/Bootloader.c ****                                 (uint8)Bootloader_MD_BTLDB_ACTIVE_VALUE(btldrData);
 804:.\Generated_Source\PSoC4/Bootloader.c **** 
 805:.\Generated_Source\PSoC4/Bootloader.c ****                             rspSize = 2u;
 806:.\Generated_Source\PSoC4/Bootloader.c ****                             ackCode = CYRET_SUCCESS;
 807:.\Generated_Source\PSoC4/Bootloader.c ****                         }
 808:.\Generated_Source\PSoC4/Bootloader.c ****                         break;
 809:.\Generated_Source\PSoC4/Bootloader.c **** 
 810:.\Generated_Source\PSoC4/Bootloader.c ****                 #endif  /* (0u != Bootloader_CMD_GET_APP_STATUS_AVAIL) */
 811:.\Generated_Source\PSoC4/Bootloader.c **** 
ARM GAS  C:\Users\ZHANGM~1\AppData\Local\Temp\ccNPBJtR.s 			page 16


 812:.\Generated_Source\PSoC4/Bootloader.c ****             #endif  /* (0u != Bootloader_DUAL_APP_BOOTLOADER) */
 813:.\Generated_Source\PSoC4/Bootloader.c **** 
 814:.\Generated_Source\PSoC4/Bootloader.c **** 
 815:.\Generated_Source\PSoC4/Bootloader.c ****             /***************************************************************************
 816:.\Generated_Source\PSoC4/Bootloader.c ****             *   Program / Erase row
 817:.\Generated_Source\PSoC4/Bootloader.c ****             ***************************************************************************/
 818:.\Generated_Source\PSoC4/Bootloader.c ****             case Bootloader_COMMAND_PROGRAM:
 819:.\Generated_Source\PSoC4/Bootloader.c **** 
 820:.\Generated_Source\PSoC4/Bootloader.c ****             /* The btldrData variable holds Flash Array ID */
 821:.\Generated_Source\PSoC4/Bootloader.c **** 
 822:.\Generated_Source\PSoC4/Bootloader.c ****         #if (0u != Bootloader_CMD_ERASE_ROW_AVAIL)
 823:.\Generated_Source\PSoC4/Bootloader.c **** 
 824:.\Generated_Source\PSoC4/Bootloader.c ****             case Bootloader_COMMAND_ERASE:
 825:.\Generated_Source\PSoC4/Bootloader.c ****                 if (Bootloader_COMMAND_ERASE == packetBuffer[Bootloader_CMD_ADDR])
 826:.\Generated_Source\PSoC4/Bootloader.c ****                 {
 827:.\Generated_Source\PSoC4/Bootloader.c ****                     if ((Bootloader_COMMUNICATION_STATE_ACTIVE == communicationState) && (pktSize =
 828:.\Generated_Source\PSoC4/Bootloader.c ****                     {
 829:.\Generated_Source\PSoC4/Bootloader.c ****                         #if(!CY_PSOC4)
 830:.\Generated_Source\PSoC4/Bootloader.c ****                             if((btldrData >= Bootloader_FIRST_EE_ARRAYID) &&
 831:.\Generated_Source\PSoC4/Bootloader.c ****                                (btldrData <= Bootloader_LAST_EE_ARRAYID))
 832:.\Generated_Source\PSoC4/Bootloader.c ****                             {
 833:.\Generated_Source\PSoC4/Bootloader.c ****                                 /* Size of EEPROM row */
 834:.\Generated_Source\PSoC4/Bootloader.c ****                                 dataOffset = CY_EEPROM_SIZEOF_ROW;
 835:.\Generated_Source\PSoC4/Bootloader.c ****                             }
 836:.\Generated_Source\PSoC4/Bootloader.c ****                             else
 837:.\Generated_Source\PSoC4/Bootloader.c ****                             {
 838:.\Generated_Source\PSoC4/Bootloader.c ****                                 /* Size of FLASH row (depends on ECC configuration) */
 839:.\Generated_Source\PSoC4/Bootloader.c ****                                 dataOffset = Bootloader_FROW_SIZE;
 840:.\Generated_Source\PSoC4/Bootloader.c ****                             }
 841:.\Generated_Source\PSoC4/Bootloader.c ****                         #else
 842:.\Generated_Source\PSoC4/Bootloader.c ****                             /* Size of FLASH row (no ECC available) */
 843:.\Generated_Source\PSoC4/Bootloader.c ****                             dataOffset = Bootloader_FROW_SIZE;
 844:.\Generated_Source\PSoC4/Bootloader.c ****                         #endif  /* (!CY_PSOC4) */
 845:.\Generated_Source\PSoC4/Bootloader.c **** 
 846:.\Generated_Source\PSoC4/Bootloader.c ****                         #if(CY_PSOC3)
 847:.\Generated_Source\PSoC4/Bootloader.c ****                             (void) memset(dataBuffer, (char8) 0, (int16) dataOffset);
 848:.\Generated_Source\PSoC4/Bootloader.c ****                         #else
 849:.\Generated_Source\PSoC4/Bootloader.c ****                             (void) memset(dataBuffer, 0, dataOffset);
 850:.\Generated_Source\PSoC4/Bootloader.c ****                         #endif  /* (CY_PSOC3) */
 851:.\Generated_Source\PSoC4/Bootloader.c ****                     }
 852:.\Generated_Source\PSoC4/Bootloader.c ****                     else
 853:.\Generated_Source\PSoC4/Bootloader.c ****                     {
 854:.\Generated_Source\PSoC4/Bootloader.c ****                         break;
 855:.\Generated_Source\PSoC4/Bootloader.c ****                     }
 856:.\Generated_Source\PSoC4/Bootloader.c ****                 }
 857:.\Generated_Source\PSoC4/Bootloader.c **** 
 858:.\Generated_Source\PSoC4/Bootloader.c ****         #endif  /* (0u != Bootloader_CMD_ERASE_ROW_AVAIL) */
 859:.\Generated_Source\PSoC4/Bootloader.c **** 
 860:.\Generated_Source\PSoC4/Bootloader.c **** 
 861:.\Generated_Source\PSoC4/Bootloader.c ****                 if((Bootloader_COMMUNICATION_STATE_ACTIVE == communicationState) && (pktSize >= 3u)
 862:.\Generated_Source\PSoC4/Bootloader.c ****                 {
 863:.\Generated_Source\PSoC4/Bootloader.c **** 
 864:.\Generated_Source\PSoC4/Bootloader.c ****                     /* The command may be sent along with the last block of data, to program the ro
 865:.\Generated_Source\PSoC4/Bootloader.c ****                     #if(CY_PSOC3)
 866:.\Generated_Source\PSoC4/Bootloader.c ****                         (void) memcpy(&dataBuffer[dataOffset],
 867:.\Generated_Source\PSoC4/Bootloader.c ****                                       &packetBuffer[Bootloader_DATA_ADDR + 3u],
 868:.\Generated_Source\PSoC4/Bootloader.c ****                                       ( int16 )pktSize - 3);
ARM GAS  C:\Users\ZHANGM~1\AppData\Local\Temp\ccNPBJtR.s 			page 17


 869:.\Generated_Source\PSoC4/Bootloader.c ****                     #else
 870:.\Generated_Source\PSoC4/Bootloader.c ****                         (void) memcpy(&dataBuffer[dataOffset],
 871:.\Generated_Source\PSoC4/Bootloader.c ****                                       &packetBuffer[Bootloader_DATA_ADDR + 3u],
 872:.\Generated_Source\PSoC4/Bootloader.c ****                                       pktSize - 3u);
 873:.\Generated_Source\PSoC4/Bootloader.c ****                     #endif  /* (CY_PSOC3) */
 874:.\Generated_Source\PSoC4/Bootloader.c **** 
 875:.\Generated_Source\PSoC4/Bootloader.c ****                     dataOffset += (pktSize - 3u);
 876:.\Generated_Source\PSoC4/Bootloader.c **** 
 877:.\Generated_Source\PSoC4/Bootloader.c ****                     #if(!CY_PSOC4)
 878:.\Generated_Source\PSoC4/Bootloader.c ****                         if((btldrData >= Bootloader_FIRST_EE_ARRAYID) &&
 879:.\Generated_Source\PSoC4/Bootloader.c ****                            (btldrData <= Bootloader_LAST_EE_ARRAYID))
 880:.\Generated_Source\PSoC4/Bootloader.c ****                         {
 881:.\Generated_Source\PSoC4/Bootloader.c **** 
 882:.\Generated_Source\PSoC4/Bootloader.c ****                             CyEEPROM_Start();
 883:.\Generated_Source\PSoC4/Bootloader.c **** 
 884:.\Generated_Source\PSoC4/Bootloader.c ****                             /* Size of EEPROM row */
 885:.\Generated_Source\PSoC4/Bootloader.c ****                             pktSize = CY_EEPROM_SIZEOF_ROW;
 886:.\Generated_Source\PSoC4/Bootloader.c ****                         }
 887:.\Generated_Source\PSoC4/Bootloader.c ****                         else
 888:.\Generated_Source\PSoC4/Bootloader.c ****                         {
 889:.\Generated_Source\PSoC4/Bootloader.c ****                             /* Size of FLASH row (depends on ECC configuration) */
 890:.\Generated_Source\PSoC4/Bootloader.c ****                             pktSize = Bootloader_FROW_SIZE;
 891:.\Generated_Source\PSoC4/Bootloader.c ****                         }
 892:.\Generated_Source\PSoC4/Bootloader.c ****                     #else
 893:.\Generated_Source\PSoC4/Bootloader.c ****                         /* Size of FLASH row (no ECC available) */
 894:.\Generated_Source\PSoC4/Bootloader.c ****                         pktSize = Bootloader_FROW_SIZE;
 895:.\Generated_Source\PSoC4/Bootloader.c ****                     #endif  /* (!CY_PSOC4) */
 896:.\Generated_Source\PSoC4/Bootloader.c **** 
 897:.\Generated_Source\PSoC4/Bootloader.c **** 
 898:.\Generated_Source\PSoC4/Bootloader.c ****                     /* Check if we have all data to program */
 899:.\Generated_Source\PSoC4/Bootloader.c ****                     if(dataOffset == pktSize)
 900:.\Generated_Source\PSoC4/Bootloader.c ****                     {
 901:.\Generated_Source\PSoC4/Bootloader.c ****                         /* Get FLASH/EEPROM row number */
 902:.\Generated_Source\PSoC4/Bootloader.c ****                         dataOffset = ((uint16)((uint16)packetBuffer[Bootloader_DATA_ADDR + 2u] << 8
 903:.\Generated_Source\PSoC4/Bootloader.c ****                                               packetBuffer[Bootloader_DATA_ADDR + 1u];
 904:.\Generated_Source\PSoC4/Bootloader.c **** 
 905:.\Generated_Source\PSoC4/Bootloader.c ****                         #if(!CY_PSOC4)
 906:.\Generated_Source\PSoC4/Bootloader.c ****                             if(btldrData <= Bootloader_LAST_FLASH_ARRAYID)
 907:.\Generated_Source\PSoC4/Bootloader.c ****                             {
 908:.\Generated_Source\PSoC4/Bootloader.c ****                         #endif  /* (!CY_PSOC4) */
 909:.\Generated_Source\PSoC4/Bootloader.c **** 
 910:.\Generated_Source\PSoC4/Bootloader.c ****                         #if(0u == Bootloader_DUAL_APP_BOOTLOADER)
 911:.\Generated_Source\PSoC4/Bootloader.c **** 
 912:.\Generated_Source\PSoC4/Bootloader.c ****                             if(0u == clearedMetaData)
 913:.\Generated_Source\PSoC4/Bootloader.c ****                             {
 914:.\Generated_Source\PSoC4/Bootloader.c ****                                 /* Metadata section must be filled with zeroes */
 915:.\Generated_Source\PSoC4/Bootloader.c **** 
 916:.\Generated_Source\PSoC4/Bootloader.c ****                                 uint8 erase[Bootloader_FROW_SIZE];
 917:.\Generated_Source\PSoC4/Bootloader.c **** 
 918:.\Generated_Source\PSoC4/Bootloader.c ****                                 #if(CY_PSOC3)
 919:.\Generated_Source\PSoC4/Bootloader.c ****                                     (void) memset(erase, (char8) 0, (int16) Bootloader_FROW_SIZE);
 920:.\Generated_Source\PSoC4/Bootloader.c ****                                 #else
 921:.\Generated_Source\PSoC4/Bootloader.c ****                                     (void) memset(erase, 0, Bootloader_FROW_SIZE);
 922:.\Generated_Source\PSoC4/Bootloader.c ****                                 #endif  /* (CY_PSOC3) */
 923:.\Generated_Source\PSoC4/Bootloader.c **** 
 924:.\Generated_Source\PSoC4/Bootloader.c ****                                 #if(CY_PSOC4)
 925:.\Generated_Source\PSoC4/Bootloader.c ****                                     (void) CySysFlashWriteRow(Bootloader_MD_ROW, erase);
ARM GAS  C:\Users\ZHANGM~1\AppData\Local\Temp\ccNPBJtR.s 			page 18


 926:.\Generated_Source\PSoC4/Bootloader.c ****                                 #else
 927:.\Generated_Source\PSoC4/Bootloader.c ****                                     (void) CyWriteRowFull((uint8)  Bootloader_MD_FLASH_ARRAY_NUM,
 928:.\Generated_Source\PSoC4/Bootloader.c ****                                                           (uint16) Bootloader_MD_ROW,
 929:.\Generated_Source\PSoC4/Bootloader.c ****                                                                     erase,
 930:.\Generated_Source\PSoC4/Bootloader.c ****                                                                     Bootloader_FROW_SIZE);
 931:.\Generated_Source\PSoC4/Bootloader.c ****                                 #endif  /* (CY_PSOC4) */
 932:.\Generated_Source\PSoC4/Bootloader.c **** 
 933:.\Generated_Source\PSoC4/Bootloader.c ****                                 /* Set up flag that metadata was cleared */
 934:.\Generated_Source\PSoC4/Bootloader.c ****                                 clearedMetaData = 1u;
 935:.\Generated_Source\PSoC4/Bootloader.c ****                             }
 936:.\Generated_Source\PSoC4/Bootloader.c **** 
 937:.\Generated_Source\PSoC4/Bootloader.c ****                         #else
 938:.\Generated_Source\PSoC4/Bootloader.c **** 
 939:.\Generated_Source\PSoC4/Bootloader.c ****                             if(Bootloader_activeApp < Bootloader_MD_BTLDB_ACTIVE_NONE)
 940:.\Generated_Source\PSoC4/Bootloader.c ****                             {
 941:.\Generated_Source\PSoC4/Bootloader.c ****                                 /* First active bootloadable application row */
 942:.\Generated_Source\PSoC4/Bootloader.c ****                                 uint16 firstRow = (uint16) 1u +
 943:.\Generated_Source\PSoC4/Bootloader.c ****                                     (uint16) Bootloader_GetMetadata(Bootloader_GET_METADATA_BTLDR_L
 944:.\Generated_Source\PSoC4/Bootloader.c ****                                                                           Bootloader_activeApp);
 945:.\Generated_Source\PSoC4/Bootloader.c **** 
 946:.\Generated_Source\PSoC4/Bootloader.c ****                                 #if(CY_PSOC4)
 947:.\Generated_Source\PSoC4/Bootloader.c ****                                     uint16 row = dataOffset;
 948:.\Generated_Source\PSoC4/Bootloader.c ****                                 #else
 949:.\Generated_Source\PSoC4/Bootloader.c ****                                     uint16 row = (uint16)(btldrData * (CYDEV_FLS_SECTOR_SIZE / CYDE
 950:.\Generated_Source\PSoC4/Bootloader.c ****                                                   dataOffset;
 951:.\Generated_Source\PSoC4/Bootloader.c ****                                 #endif  /* (CY_PSOC4) */
 952:.\Generated_Source\PSoC4/Bootloader.c **** 
 953:.\Generated_Source\PSoC4/Bootloader.c **** 
 954:.\Generated_Source\PSoC4/Bootloader.c ****                                 /******************************************************************
 955:.\Generated_Source\PSoC4/Bootloader.c ****                                 * Last row is equal to the first row plus the number of rows availa
 956:.\Generated_Source\PSoC4/Bootloader.c ****                                 * app. To compute this, we first subtract the number of appliaction
 957:.\Generated_Source\PSoC4/Bootloader.c ****                                 * the total flash rows: (CY_FLASH_NUMBER_ROWS - 2u).
 958:.\Generated_Source\PSoC4/Bootloader.c ****                                 *
 959:.\Generated_Source\PSoC4/Bootloader.c ****                                 * Then subtract off the first row:
 960:.\Generated_Source\PSoC4/Bootloader.c ****                                 * App Rows = (CY_FLASH_NUMBER_ROWS - 2u - firstRow)
 961:.\Generated_Source\PSoC4/Bootloader.c ****                                 * Then divide that number by the number of application that must fi
 962:.\Generated_Source\PSoC4/Bootloader.c ****                                 * space, if we are app1 then that number is 2, if app2 then 1.  Our
 963:.\Generated_Source\PSoC4/Bootloader.c ****                                 * then: (2u - Bootloader_activeApp).
 964:.\Generated_Source\PSoC4/Bootloader.c ****                                 *
 965:.\Generated_Source\PSoC4/Bootloader.c ****                                 * Adding this number to firstRow gives the address right beyond our
 966:.\Generated_Source\PSoC4/Bootloader.c ****                                 * so we subtract 1.
 967:.\Generated_Source\PSoC4/Bootloader.c ****                                 *******************************************************************
 968:.\Generated_Source\PSoC4/Bootloader.c ****                                 uint16 lastRow = (firstRow - 1u) +
 969:.\Generated_Source\PSoC4/Bootloader.c ****                                                   ((uint16)((CYDEV_FLASH_SIZE / CYDEV_FLS_ROW_SIZE)
 970:.\Generated_Source\PSoC4/Bootloader.c ****                                                   ((uint16)2u - (uint16)Bootloader_activeApp));
 971:.\Generated_Source\PSoC4/Bootloader.c **** 
 972:.\Generated_Source\PSoC4/Bootloader.c **** 
 973:.\Generated_Source\PSoC4/Bootloader.c ****                                 /******************************************************************
 974:.\Generated_Source\PSoC4/Bootloader.c ****                                 * Check to see if the row to program is within the range of the act
 975:.\Generated_Source\PSoC4/Bootloader.c ****                                 * application, or if it maches the active application's metadata ro
 976:.\Generated_Source\PSoC4/Bootloader.c ****                                 * refuse to program as it would corrupt the active app.
 977:.\Generated_Source\PSoC4/Bootloader.c ****                                 *******************************************************************
 978:.\Generated_Source\PSoC4/Bootloader.c ****                                 if(((row >= firstRow) && (row <= lastRow)) ||
 979:.\Generated_Source\PSoC4/Bootloader.c ****                                    ((btldrData == Bootloader_MD_FLASH_ARRAY_NUM) &&
 980:.\Generated_Source\PSoC4/Bootloader.c ****                                    (dataOffset == Bootloader_MD_ROW_NUM(Bootloader_activeApp))))
 981:.\Generated_Source\PSoC4/Bootloader.c ****                                 {
 982:.\Generated_Source\PSoC4/Bootloader.c ****                                     ackCode = Bootloader_ERR_ACTIVE;
ARM GAS  C:\Users\ZHANGM~1\AppData\Local\Temp\ccNPBJtR.s 			page 19


 983:.\Generated_Source\PSoC4/Bootloader.c ****                                     dataOffset = 0u;
 984:.\Generated_Source\PSoC4/Bootloader.c ****                                     break;
 985:.\Generated_Source\PSoC4/Bootloader.c ****                                 }
 986:.\Generated_Source\PSoC4/Bootloader.c ****                             }
 987:.\Generated_Source\PSoC4/Bootloader.c **** 
 988:.\Generated_Source\PSoC4/Bootloader.c ****                         #endif  /* (0u == Bootloader_DUAL_APP_BOOTLOADER) */
 989:.\Generated_Source\PSoC4/Bootloader.c **** 
 990:.\Generated_Source\PSoC4/Bootloader.c ****                         #if(!CY_PSOC4)
 991:.\Generated_Source\PSoC4/Bootloader.c ****                             }
 992:.\Generated_Source\PSoC4/Bootloader.c ****                         #endif  /* (!CY_PSOC4) */
 993:.\Generated_Source\PSoC4/Bootloader.c **** 
 994:.\Generated_Source\PSoC4/Bootloader.c ****                         #if(CY_PSOC4)
 995:.\Generated_Source\PSoC4/Bootloader.c **** 
 996:.\Generated_Source\PSoC4/Bootloader.c ****                             ackCode = (CYRET_SUCCESS != CySysFlashWriteRow((uint32) dataOffset, dat
 997:.\Generated_Source\PSoC4/Bootloader.c ****                                 ? Bootloader_ERR_ROW \
 998:.\Generated_Source\PSoC4/Bootloader.c ****                                 : CYRET_SUCCESS;
 999:.\Generated_Source\PSoC4/Bootloader.c **** 
1000:.\Generated_Source\PSoC4/Bootloader.c ****                         #else
1001:.\Generated_Source\PSoC4/Bootloader.c **** 
1002:.\Generated_Source\PSoC4/Bootloader.c ****                             ackCode = (CYRET_SUCCESS != CyWriteRowFull(btldrData, dataOffset, dataB
1003:.\Generated_Source\PSoC4/Bootloader.c ****                                 ? Bootloader_ERR_ROW \
1004:.\Generated_Source\PSoC4/Bootloader.c ****                                 : CYRET_SUCCESS;
1005:.\Generated_Source\PSoC4/Bootloader.c **** 
1006:.\Generated_Source\PSoC4/Bootloader.c ****                         #endif  /* (CY_PSOC4) */
1007:.\Generated_Source\PSoC4/Bootloader.c **** 
1008:.\Generated_Source\PSoC4/Bootloader.c ****                     }
1009:.\Generated_Source\PSoC4/Bootloader.c ****                     else
1010:.\Generated_Source\PSoC4/Bootloader.c ****                     {
1011:.\Generated_Source\PSoC4/Bootloader.c ****                         ackCode = Bootloader_ERR_LENGTH;
1012:.\Generated_Source\PSoC4/Bootloader.c ****                     }
1013:.\Generated_Source\PSoC4/Bootloader.c **** 
1014:.\Generated_Source\PSoC4/Bootloader.c ****                     dataOffset = 0u;
1015:.\Generated_Source\PSoC4/Bootloader.c ****                 }
1016:.\Generated_Source\PSoC4/Bootloader.c ****                 break;
1017:.\Generated_Source\PSoC4/Bootloader.c **** 
1018:.\Generated_Source\PSoC4/Bootloader.c **** 
1019:.\Generated_Source\PSoC4/Bootloader.c ****             /***************************************************************************
1020:.\Generated_Source\PSoC4/Bootloader.c ****             *   Sync bootloader
1021:.\Generated_Source\PSoC4/Bootloader.c ****             ***************************************************************************/
1022:.\Generated_Source\PSoC4/Bootloader.c ****             #if(0u != Bootloader_CMD_SYNC_BOOTLOADER_AVAIL)
1023:.\Generated_Source\PSoC4/Bootloader.c **** 
1024:.\Generated_Source\PSoC4/Bootloader.c ****             case Bootloader_COMMAND_SYNC:
1025:.\Generated_Source\PSoC4/Bootloader.c **** 
1026:.\Generated_Source\PSoC4/Bootloader.c ****                 if(Bootloader_COMMUNICATION_STATE_ACTIVE == communicationState)
1027:.\Generated_Source\PSoC4/Bootloader.c ****                 {
1028:.\Generated_Source\PSoC4/Bootloader.c ****                     /* If something failed the host would send this command to reset the bootloader
1029:.\Generated_Source\PSoC4/Bootloader.c ****                     dataOffset = 0u;
1030:.\Generated_Source\PSoC4/Bootloader.c **** 
1031:.\Generated_Source\PSoC4/Bootloader.c ****                     /* Don't ack the packet, just get ready to accept the next one */
1032:.\Generated_Source\PSoC4/Bootloader.c ****                     continue;
1033:.\Generated_Source\PSoC4/Bootloader.c ****                 }
1034:.\Generated_Source\PSoC4/Bootloader.c ****                 break;
1035:.\Generated_Source\PSoC4/Bootloader.c **** 
1036:.\Generated_Source\PSoC4/Bootloader.c ****             #endif  /* (0u != Bootloader_CMD_SYNC_BOOTLOADER_AVAIL) */
1037:.\Generated_Source\PSoC4/Bootloader.c **** 
1038:.\Generated_Source\PSoC4/Bootloader.c **** 
1039:.\Generated_Source\PSoC4/Bootloader.c ****             /***************************************************************************
ARM GAS  C:\Users\ZHANGM~1\AppData\Local\Temp\ccNPBJtR.s 			page 20


1040:.\Generated_Source\PSoC4/Bootloader.c ****             *   Set active application
1041:.\Generated_Source\PSoC4/Bootloader.c ****             ***************************************************************************/
1042:.\Generated_Source\PSoC4/Bootloader.c ****             #if(0u != Bootloader_DUAL_APP_BOOTLOADER)
1043:.\Generated_Source\PSoC4/Bootloader.c **** 
1044:.\Generated_Source\PSoC4/Bootloader.c ****                 case Bootloader_COMMAND_APP_ACTIVE:
1045:.\Generated_Source\PSoC4/Bootloader.c **** 
1046:.\Generated_Source\PSoC4/Bootloader.c ****                     if((Bootloader_COMMUNICATION_STATE_ACTIVE == communicationState) && (pktSize ==
1047:.\Generated_Source\PSoC4/Bootloader.c ****                     {
1048:.\Generated_Source\PSoC4/Bootloader.c ****                         if(CYRET_SUCCESS == Bootloader_ValidateBootloadable(btldrData))
1049:.\Generated_Source\PSoC4/Bootloader.c ****                         {
1050:.\Generated_Source\PSoC4/Bootloader.c ****                             uint8 CYDATA idx;
1051:.\Generated_Source\PSoC4/Bootloader.c **** 
1052:.\Generated_Source\PSoC4/Bootloader.c ****                             for(idx = 0u; idx < Bootloader_MAX_NUM_OF_BTLDB; idx++)
1053:.\Generated_Source\PSoC4/Bootloader.c ****                             {
1054:.\Generated_Source\PSoC4/Bootloader.c ****                                 Bootloader_SetFlashByte((uint32) Bootloader_MD_BTLDB_ACTIVE_OFFSET(
1055:.\Generated_Source\PSoC4/Bootloader.c ****                                                               (uint8 )(idx == btldrData));
1056:.\Generated_Source\PSoC4/Bootloader.c ****                             }
1057:.\Generated_Source\PSoC4/Bootloader.c ****                             Bootloader_activeApp = btldrData;
1058:.\Generated_Source\PSoC4/Bootloader.c ****                             ackCode = CYRET_SUCCESS;
1059:.\Generated_Source\PSoC4/Bootloader.c ****                         }
1060:.\Generated_Source\PSoC4/Bootloader.c ****                         else
1061:.\Generated_Source\PSoC4/Bootloader.c ****                         {
1062:.\Generated_Source\PSoC4/Bootloader.c ****                             ackCode = Bootloader_ERR_APP;
1063:.\Generated_Source\PSoC4/Bootloader.c ****                         }
1064:.\Generated_Source\PSoC4/Bootloader.c ****                     }
1065:.\Generated_Source\PSoC4/Bootloader.c ****                     break;
1066:.\Generated_Source\PSoC4/Bootloader.c **** 
1067:.\Generated_Source\PSoC4/Bootloader.c ****             #endif  /* (0u != Bootloader_DUAL_APP_BOOTLOADER) */
1068:.\Generated_Source\PSoC4/Bootloader.c **** 
1069:.\Generated_Source\PSoC4/Bootloader.c **** 
1070:.\Generated_Source\PSoC4/Bootloader.c ****             /***************************************************************************
1071:.\Generated_Source\PSoC4/Bootloader.c ****             *   Send data
1072:.\Generated_Source\PSoC4/Bootloader.c ****             ***************************************************************************/
1073:.\Generated_Source\PSoC4/Bootloader.c ****             #if (0u != Bootloader_CMD_SEND_DATA_AVAIL)
1074:.\Generated_Source\PSoC4/Bootloader.c **** 
1075:.\Generated_Source\PSoC4/Bootloader.c ****                 case Bootloader_COMMAND_DATA:
1076:.\Generated_Source\PSoC4/Bootloader.c **** 
1077:.\Generated_Source\PSoC4/Bootloader.c ****                     if(Bootloader_COMMUNICATION_STATE_ACTIVE == communicationState)
1078:.\Generated_Source\PSoC4/Bootloader.c ****                     {
1079:.\Generated_Source\PSoC4/Bootloader.c ****                         /*  Make sure that dataOffset is valid before copying the data */
1080:.\Generated_Source\PSoC4/Bootloader.c ****                         if((dataOffset + pktSize) <= Bootloader_SIZEOF_COMMAND_BUFFER)
1081:.\Generated_Source\PSoC4/Bootloader.c ****                         {
1082:.\Generated_Source\PSoC4/Bootloader.c ****                             ackCode = CYRET_SUCCESS;
1083:.\Generated_Source\PSoC4/Bootloader.c **** 
1084:.\Generated_Source\PSoC4/Bootloader.c ****                             #if(CY_PSOC3)
1085:.\Generated_Source\PSoC4/Bootloader.c ****                                 (void) memcpy(&dataBuffer[dataOffset],
1086:.\Generated_Source\PSoC4/Bootloader.c ****                                               &packetBuffer[Bootloader_DATA_ADDR],
1087:.\Generated_Source\PSoC4/Bootloader.c ****                                               ( int16 )pktSize);
1088:.\Generated_Source\PSoC4/Bootloader.c ****                             #else
1089:.\Generated_Source\PSoC4/Bootloader.c ****                                 (void) memcpy(&dataBuffer[dataOffset],
1090:.\Generated_Source\PSoC4/Bootloader.c ****                                               &packetBuffer[Bootloader_DATA_ADDR],
1091:.\Generated_Source\PSoC4/Bootloader.c ****                                               pktSize);
1092:.\Generated_Source\PSoC4/Bootloader.c ****                             #endif  /* (CY_PSOC3) */
1093:.\Generated_Source\PSoC4/Bootloader.c **** 
1094:.\Generated_Source\PSoC4/Bootloader.c ****                             dataOffset += pktSize;
1095:.\Generated_Source\PSoC4/Bootloader.c ****                         }
1096:.\Generated_Source\PSoC4/Bootloader.c ****                         else
ARM GAS  C:\Users\ZHANGM~1\AppData\Local\Temp\ccNPBJtR.s 			page 21


1097:.\Generated_Source\PSoC4/Bootloader.c ****                         {
1098:.\Generated_Source\PSoC4/Bootloader.c ****                             ackCode = Bootloader_ERR_LENGTH;
1099:.\Generated_Source\PSoC4/Bootloader.c ****                         }
1100:.\Generated_Source\PSoC4/Bootloader.c ****                     }
1101:.\Generated_Source\PSoC4/Bootloader.c **** 
1102:.\Generated_Source\PSoC4/Bootloader.c ****                     break;
1103:.\Generated_Source\PSoC4/Bootloader.c **** 
1104:.\Generated_Source\PSoC4/Bootloader.c ****             #endif  /* (0u != Bootloader_CMD_SEND_DATA_AVAIL) */
1105:.\Generated_Source\PSoC4/Bootloader.c **** 
1106:.\Generated_Source\PSoC4/Bootloader.c **** 
1107:.\Generated_Source\PSoC4/Bootloader.c ****             /***************************************************************************
1108:.\Generated_Source\PSoC4/Bootloader.c ****             *   Enter bootloader
1109:.\Generated_Source\PSoC4/Bootloader.c ****             ***************************************************************************/
1110:.\Generated_Source\PSoC4/Bootloader.c ****             case Bootloader_COMMAND_ENTER:
1111:.\Generated_Source\PSoC4/Bootloader.c **** 
1112:.\Generated_Source\PSoC4/Bootloader.c ****                 if(pktSize == 0u)
1113:.\Generated_Source\PSoC4/Bootloader.c ****                 {
1114:.\Generated_Source\PSoC4/Bootloader.c ****                     #if(CY_PSOC3)
1115:.\Generated_Source\PSoC4/Bootloader.c **** 
1116:.\Generated_Source\PSoC4/Bootloader.c ****                         Bootloader_ENTER CYDATA BtldrVersion =
1117:.\Generated_Source\PSoC4/Bootloader.c ****                             {CYSWAP_ENDIAN32(CYDEV_CHIP_JTAG_ID), CYDEV_CHIP_REV_EXPECT, Bootloader
1118:.\Generated_Source\PSoC4/Bootloader.c **** 
1119:.\Generated_Source\PSoC4/Bootloader.c ****                     #else
1120:.\Generated_Source\PSoC4/Bootloader.c **** 
1121:.\Generated_Source\PSoC4/Bootloader.c ****                         Bootloader_ENTER CYDATA BtldrVersion =
1122:.\Generated_Source\PSoC4/Bootloader.c ****                             {CYDEV_CHIP_JTAG_ID, CYDEV_CHIP_REV_EXPECT, Bootloader_VERSION};
1123:.\Generated_Source\PSoC4/Bootloader.c **** 
1124:.\Generated_Source\PSoC4/Bootloader.c ****                     #endif  /* (CY_PSOC3) */
1125:.\Generated_Source\PSoC4/Bootloader.c **** 
1126:.\Generated_Source\PSoC4/Bootloader.c ****                     communicationState = Bootloader_COMMUNICATION_STATE_ACTIVE;
1127:.\Generated_Source\PSoC4/Bootloader.c **** 
1128:.\Generated_Source\PSoC4/Bootloader.c ****                     rspSize = sizeof(Bootloader_ENTER);
1129:.\Generated_Source\PSoC4/Bootloader.c **** 
1130:.\Generated_Source\PSoC4/Bootloader.c ****                     #if(CY_PSOC3)
1131:.\Generated_Source\PSoC4/Bootloader.c ****                         (void) memcpy(&packetBuffer[Bootloader_DATA_ADDR],
1132:.\Generated_Source\PSoC4/Bootloader.c ****                                       &BtldrVersion,
1133:.\Generated_Source\PSoC4/Bootloader.c ****                                       ( int16 )rspSize);
1134:.\Generated_Source\PSoC4/Bootloader.c ****                     #else
1135:.\Generated_Source\PSoC4/Bootloader.c ****                         (void) memcpy(&packetBuffer[Bootloader_DATA_ADDR],
1136:.\Generated_Source\PSoC4/Bootloader.c ****                                       &BtldrVersion,
1137:.\Generated_Source\PSoC4/Bootloader.c ****                                       rspSize);
1138:.\Generated_Source\PSoC4/Bootloader.c ****                     #endif  /* (CY_PSOC3) */
1139:.\Generated_Source\PSoC4/Bootloader.c **** 
1140:.\Generated_Source\PSoC4/Bootloader.c ****                     ackCode = CYRET_SUCCESS;
1141:.\Generated_Source\PSoC4/Bootloader.c ****                 }
1142:.\Generated_Source\PSoC4/Bootloader.c ****                 break;
1143:.\Generated_Source\PSoC4/Bootloader.c **** 
1144:.\Generated_Source\PSoC4/Bootloader.c **** 
1145:.\Generated_Source\PSoC4/Bootloader.c ****             /***************************************************************************
1146:.\Generated_Source\PSoC4/Bootloader.c ****             *   Verify row
1147:.\Generated_Source\PSoC4/Bootloader.c ****             ***************************************************************************/
1148:.\Generated_Source\PSoC4/Bootloader.c ****             case Bootloader_COMMAND_VERIFY:
1149:.\Generated_Source\PSoC4/Bootloader.c **** 
1150:.\Generated_Source\PSoC4/Bootloader.c ****                 if((Bootloader_COMMUNICATION_STATE_ACTIVE == communicationState) && (pktSize == 3u)
1151:.\Generated_Source\PSoC4/Bootloader.c ****                 {
1152:.\Generated_Source\PSoC4/Bootloader.c ****                     /* Get FLASH/EEPROM row number */
1153:.\Generated_Source\PSoC4/Bootloader.c ****                     uint16 CYDATA rowNum = ((uint16)((uint16)packetBuffer[Bootloader_DATA_ADDR + 2u
ARM GAS  C:\Users\ZHANGM~1\AppData\Local\Temp\ccNPBJtR.s 			page 22


1154:.\Generated_Source\PSoC4/Bootloader.c ****                                                     packetBuffer[Bootloader_DATA_ADDR + 1u];
1155:.\Generated_Source\PSoC4/Bootloader.c **** 
1156:.\Generated_Source\PSoC4/Bootloader.c ****                     #if(!CY_PSOC4)
1157:.\Generated_Source\PSoC4/Bootloader.c **** 
1158:.\Generated_Source\PSoC4/Bootloader.c ****                         uint32 CYDATA rowAddr;
1159:.\Generated_Source\PSoC4/Bootloader.c ****                         uint8 CYDATA checksum;
1160:.\Generated_Source\PSoC4/Bootloader.c **** 
1161:.\Generated_Source\PSoC4/Bootloader.c ****                         if((btldrData >= Bootloader_FIRST_EE_ARRAYID) &&
1162:.\Generated_Source\PSoC4/Bootloader.c ****                            (btldrData <= Bootloader_LAST_EE_ARRAYID))
1163:.\Generated_Source\PSoC4/Bootloader.c ****                         {
1164:.\Generated_Source\PSoC4/Bootloader.c ****                             /* EEPROM */
1165:.\Generated_Source\PSoC4/Bootloader.c ****                             /* Both PSoC 3 and PSoC 5LP architectures have one EEPROM array. */
1166:.\Generated_Source\PSoC4/Bootloader.c ****                             rowAddr = (uint32)rowNum * CYDEV_EEPROM_ROW_SIZE;
1167:.\Generated_Source\PSoC4/Bootloader.c **** 
1168:.\Generated_Source\PSoC4/Bootloader.c ****                             checksum = Bootloader_Calc8BitEepromSum(rowAddr, CYDEV_EEPROM_ROW_SIZE)
1169:.\Generated_Source\PSoC4/Bootloader.c ****                         }
1170:.\Generated_Source\PSoC4/Bootloader.c ****                         else
1171:.\Generated_Source\PSoC4/Bootloader.c ****                         {
1172:.\Generated_Source\PSoC4/Bootloader.c ****                             /* FLASH */
1173:.\Generated_Source\PSoC4/Bootloader.c ****                             rowAddr = ((uint32)btldrData * CYDEV_FLS_SECTOR_SIZE)
1174:.\Generated_Source\PSoC4/Bootloader.c ****                                        + ((uint32)rowNum * CYDEV_FLS_ROW_SIZE);
1175:.\Generated_Source\PSoC4/Bootloader.c **** 
1176:.\Generated_Source\PSoC4/Bootloader.c ****                             checksum = Bootloader_Calc8BitFlashSum(rowAddr, CYDEV_FLS_ROW_SIZE);
1177:.\Generated_Source\PSoC4/Bootloader.c ****                         }
1178:.\Generated_Source\PSoC4/Bootloader.c **** 
1179:.\Generated_Source\PSoC4/Bootloader.c ****                     #else
1180:.\Generated_Source\PSoC4/Bootloader.c **** 
1181:.\Generated_Source\PSoC4/Bootloader.c ****                         uint32 CYDATA rowAddr = ((uint32)btldrData * CYDEV_FLS_SECTOR_SIZE)
1182:.\Generated_Source\PSoC4/Bootloader.c ****                                             + ((uint32)rowNum * CYDEV_FLS_ROW_SIZE);
1183:.\Generated_Source\PSoC4/Bootloader.c **** 
1184:.\Generated_Source\PSoC4/Bootloader.c ****                         uint8 CYDATA checksum = Bootloader_Calc8BitFlashSum(rowAddr, CYDEV_FLS_ROW_
1185:.\Generated_Source\PSoC4/Bootloader.c **** 
1186:.\Generated_Source\PSoC4/Bootloader.c ****                     #endif  /* (!CY_PSOC4) */
1187:.\Generated_Source\PSoC4/Bootloader.c **** 
1188:.\Generated_Source\PSoC4/Bootloader.c **** 
1189:.\Generated_Source\PSoC4/Bootloader.c ****                     /* Calculate checksum on data from ECC */
1190:.\Generated_Source\PSoC4/Bootloader.c ****                     #if(!CY_PSOC4) && (CYDEV_ECC_ENABLE == 0u)
1191:.\Generated_Source\PSoC4/Bootloader.c **** 
1192:.\Generated_Source\PSoC4/Bootloader.c ****                         if(btldrData <= Bootloader_LAST_FLASH_ARRAYID)
1193:.\Generated_Source\PSoC4/Bootloader.c ****                         {
1194:.\Generated_Source\PSoC4/Bootloader.c ****                             uint16 CYDATA tmpIndex;
1195:.\Generated_Source\PSoC4/Bootloader.c **** 
1196:.\Generated_Source\PSoC4/Bootloader.c ****                             rowAddr = CYDEV_ECC_BASE + ((uint32)btldrData * (CYDEV_FLS_SECTOR_SIZE 
1197:.\Generated_Source\PSoC4/Bootloader.c ****                                         + ((uint32)rowNum * CYDEV_ECC_ROW_SIZE);
1198:.\Generated_Source\PSoC4/Bootloader.c **** 
1199:.\Generated_Source\PSoC4/Bootloader.c ****                             for(tmpIndex = 0u; tmpIndex < CYDEV_ECC_ROW_SIZE; tmpIndex++)
1200:.\Generated_Source\PSoC4/Bootloader.c ****                             {
1201:.\Generated_Source\PSoC4/Bootloader.c ****                                 checksum += CY_GET_XTND_REG8((uint8 CYFAR *)(rowAddr + tmpIndex));
1202:.\Generated_Source\PSoC4/Bootloader.c ****                             }
1203:.\Generated_Source\PSoC4/Bootloader.c ****                         }
1204:.\Generated_Source\PSoC4/Bootloader.c **** 
1205:.\Generated_Source\PSoC4/Bootloader.c ****                     #endif  /* (!CY_PSOC4) && (CYDEV_ECC_ENABLE == 0u) */
1206:.\Generated_Source\PSoC4/Bootloader.c **** 
1207:.\Generated_Source\PSoC4/Bootloader.c **** 
1208:.\Generated_Source\PSoC4/Bootloader.c ****                     /******************************************************************************
1209:.\Generated_Source\PSoC4/Bootloader.c ****                     * App Verified & App Active are information that is updated in flash at runtime
1210:.\Generated_Source\PSoC4/Bootloader.c ****                     * remove these items from the checksum to allow the host to verify everything i
ARM GAS  C:\Users\ZHANGM~1\AppData\Local\Temp\ccNPBJtR.s 			page 23


1211:.\Generated_Source\PSoC4/Bootloader.c ****                     * correct.
1212:.\Generated_Source\PSoC4/Bootloader.c ****                      ******************************************************************************
1213:.\Generated_Source\PSoC4/Bootloader.c ****                     if((Bootloader_MD_FLASH_ARRAY_NUM == btldrData) &&
1214:.\Generated_Source\PSoC4/Bootloader.c ****                        (Bootloader_CONTAIN_METADATA(rowNum)))
1215:.\Generated_Source\PSoC4/Bootloader.c ****                     {
1216:.\Generated_Source\PSoC4/Bootloader.c ****                         checksum -= Bootloader_MD_BTLDB_ACTIVE_VALUE  (Bootloader_GET_APP_ID(rowNum
1217:.\Generated_Source\PSoC4/Bootloader.c ****                         checksum -= Bootloader_MD_BTLDB_VERIFIED_VALUE(Bootloader_GET_APP_ID(rowNum
1218:.\Generated_Source\PSoC4/Bootloader.c ****                     }
1219:.\Generated_Source\PSoC4/Bootloader.c **** 
1220:.\Generated_Source\PSoC4/Bootloader.c ****                     packetBuffer[Bootloader_DATA_ADDR] = (uint8)1u + (uint8)(~checksum);
1221:.\Generated_Source\PSoC4/Bootloader.c ****                     ackCode = CYRET_SUCCESS;
1222:.\Generated_Source\PSoC4/Bootloader.c ****                     rspSize = 1u;
1223:.\Generated_Source\PSoC4/Bootloader.c ****                 }
1224:.\Generated_Source\PSoC4/Bootloader.c ****                 break;
1225:.\Generated_Source\PSoC4/Bootloader.c **** 
1226:.\Generated_Source\PSoC4/Bootloader.c **** 
1227:.\Generated_Source\PSoC4/Bootloader.c ****             /***************************************************************************
1228:.\Generated_Source\PSoC4/Bootloader.c ****             *   Exit bootloader
1229:.\Generated_Source\PSoC4/Bootloader.c ****             ***************************************************************************/
1230:.\Generated_Source\PSoC4/Bootloader.c ****             case Bootloader_COMMAND_EXIT:
1231:.\Generated_Source\PSoC4/Bootloader.c **** 
1232:.\Generated_Source\PSoC4/Bootloader.c ****                 if(CYRET_SUCCESS == Bootloader_ValidateBootloadable(Bootloader_activeApp))
1233:.\Generated_Source\PSoC4/Bootloader.c ****                 {
1234:.\Generated_Source\PSoC4/Bootloader.c ****                     Bootloader_SET_RUN_TYPE(Bootloader_START_APP);
1235:.\Generated_Source\PSoC4/Bootloader.c ****                 }
1236:.\Generated_Source\PSoC4/Bootloader.c **** 
1237:.\Generated_Source\PSoC4/Bootloader.c ****                 CySoftwareReset();
1238:.\Generated_Source\PSoC4/Bootloader.c **** 
1239:.\Generated_Source\PSoC4/Bootloader.c ****                 /* Will never get here */
1240:.\Generated_Source\PSoC4/Bootloader.c ****                 break;
1241:.\Generated_Source\PSoC4/Bootloader.c **** 
1242:.\Generated_Source\PSoC4/Bootloader.c **** 
1243:.\Generated_Source\PSoC4/Bootloader.c ****             /***************************************************************************
1244:.\Generated_Source\PSoC4/Bootloader.c ****             *   Unsupported command
1245:.\Generated_Source\PSoC4/Bootloader.c ****             ***************************************************************************/
1246:.\Generated_Source\PSoC4/Bootloader.c ****             default:
1247:.\Generated_Source\PSoC4/Bootloader.c ****                 ackCode = Bootloader_ERR_CMD;
1248:.\Generated_Source\PSoC4/Bootloader.c ****                 break;
1249:.\Generated_Source\PSoC4/Bootloader.c ****             }
1250:.\Generated_Source\PSoC4/Bootloader.c ****         }
1251:.\Generated_Source\PSoC4/Bootloader.c **** 
1252:.\Generated_Source\PSoC4/Bootloader.c ****         /* ?CK the packet and function. */
1253:.\Generated_Source\PSoC4/Bootloader.c ****         (void) Bootloader_WritePacket(ackCode, packetBuffer, rspSize);
1254:.\Generated_Source\PSoC4/Bootloader.c **** 
1255:.\Generated_Source\PSoC4/Bootloader.c ****     } while ((0u == timeOut) || (Bootloader_COMMUNICATION_STATE_ACTIVE == communicationState));
1256:.\Generated_Source\PSoC4/Bootloader.c **** }
1257:.\Generated_Source\PSoC4/Bootloader.c **** 
1258:.\Generated_Source\PSoC4/Bootloader.c **** 
1259:.\Generated_Source\PSoC4/Bootloader.c **** /*******************************************************************************
1260:.\Generated_Source\PSoC4/Bootloader.c **** * Function Name: Bootloader_WritePacket
1261:.\Generated_Source\PSoC4/Bootloader.c **** ********************************************************************************
1262:.\Generated_Source\PSoC4/Bootloader.c **** *
1263:.\Generated_Source\PSoC4/Bootloader.c **** * Summary:
1264:.\Generated_Source\PSoC4/Bootloader.c **** *  Creates a bootloader responce packet and transmits it back to the bootloader
1265:.\Generated_Source\PSoC4/Bootloader.c **** *  host application over the already established communications protocol.
1266:.\Generated_Source\PSoC4/Bootloader.c **** *
1267:.\Generated_Source\PSoC4/Bootloader.c **** * Parameters:
ARM GAS  C:\Users\ZHANGM~1\AppData\Local\Temp\ccNPBJtR.s 			page 24


1268:.\Generated_Source\PSoC4/Bootloader.c **** *  status:
1269:.\Generated_Source\PSoC4/Bootloader.c **** *      The status code to pass back as the second byte of the packet
1270:.\Generated_Source\PSoC4/Bootloader.c **** *  buffer:
1271:.\Generated_Source\PSoC4/Bootloader.c **** *      The buffer containing the data portion of the packet
1272:.\Generated_Source\PSoC4/Bootloader.c **** *  size:
1273:.\Generated_Source\PSoC4/Bootloader.c **** *      The number of bytes contained within the buffer to pass back
1274:.\Generated_Source\PSoC4/Bootloader.c **** *
1275:.\Generated_Source\PSoC4/Bootloader.c **** * Return:
1276:.\Generated_Source\PSoC4/Bootloader.c **** *   CYRET_SUCCESS if successful.
1277:.\Generated_Source\PSoC4/Bootloader.c **** *   CYRET_UNKNOWN if there was an error tranmitting the packet.
1278:.\Generated_Source\PSoC4/Bootloader.c **** *
1279:.\Generated_Source\PSoC4/Bootloader.c **** *******************************************************************************/
1280:.\Generated_Source\PSoC4/Bootloader.c **** static cystatus Bootloader_WritePacket(uint8 status, uint8 buffer[], uint16 size) CYSMALL \
1281:.\Generated_Source\PSoC4/Bootloader.c ****                                             
1282:.\Generated_Source\PSoC4/Bootloader.c **** {
1283:.\Generated_Source\PSoC4/Bootloader.c ****     uint16 CYDATA checksum;
1284:.\Generated_Source\PSoC4/Bootloader.c **** 
1285:.\Generated_Source\PSoC4/Bootloader.c ****     /* Start of the packet. */
1286:.\Generated_Source\PSoC4/Bootloader.c ****     buffer[Bootloader_SOP_ADDR]      = Bootloader_SOP;
1287:.\Generated_Source\PSoC4/Bootloader.c ****     buffer[Bootloader_CMD_ADDR]      = status;
1288:.\Generated_Source\PSoC4/Bootloader.c ****     buffer[Bootloader_SIZE_ADDR]     = LO8(size);
1289:.\Generated_Source\PSoC4/Bootloader.c ****     buffer[Bootloader_SIZE_ADDR + 1u] = HI8(size);
1290:.\Generated_Source\PSoC4/Bootloader.c **** 
1291:.\Generated_Source\PSoC4/Bootloader.c ****     /* Compute the checksum. */
1292:.\Generated_Source\PSoC4/Bootloader.c ****     checksum = Bootloader_CalcPacketChecksum(buffer, size + Bootloader_DATA_ADDR);
1293:.\Generated_Source\PSoC4/Bootloader.c **** 
1294:.\Generated_Source\PSoC4/Bootloader.c ****     buffer[Bootloader_CHK_ADDR(size)]     = LO8(checksum);
1295:.\Generated_Source\PSoC4/Bootloader.c ****     buffer[Bootloader_CHK_ADDR(1u + size)] = HI8(checksum);
1296:.\Generated_Source\PSoC4/Bootloader.c ****     buffer[Bootloader_EOP_ADDR(size)]     = Bootloader_EOP;
1297:.\Generated_Source\PSoC4/Bootloader.c **** 
1298:.\Generated_Source\PSoC4/Bootloader.c ****     /* Start the packet transmit. */
1299:.\Generated_Source\PSoC4/Bootloader.c ****     return(CyBtldrCommWrite(buffer, size + Bootloader_MIN_PKT_SIZE, &size, 150u));
1300:.\Generated_Source\PSoC4/Bootloader.c **** }
1301:.\Generated_Source\PSoC4/Bootloader.c **** 
1302:.\Generated_Source\PSoC4/Bootloader.c **** 
1303:.\Generated_Source\PSoC4/Bootloader.c **** /*******************************************************************************
1304:.\Generated_Source\PSoC4/Bootloader.c **** * Function Name: Bootloader_SetFlashByte
1305:.\Generated_Source\PSoC4/Bootloader.c **** ********************************************************************************
1306:.\Generated_Source\PSoC4/Bootloader.c **** *
1307:.\Generated_Source\PSoC4/Bootloader.c **** * Summary:
1308:.\Generated_Source\PSoC4/Bootloader.c **** *  Writes byte a flash memory location
1309:.\Generated_Source\PSoC4/Bootloader.c **** *
1310:.\Generated_Source\PSoC4/Bootloader.c **** * Parameters:
1311:.\Generated_Source\PSoC4/Bootloader.c **** *  address:
1312:.\Generated_Source\PSoC4/Bootloader.c **** *      Address in Flash memory where data will be written
1313:.\Generated_Source\PSoC4/Bootloader.c **** *
1314:.\Generated_Source\PSoC4/Bootloader.c **** *  runType:
1315:.\Generated_Source\PSoC4/Bootloader.c **** *      Byte to be written
1316:.\Generated_Source\PSoC4/Bootloader.c **** *
1317:.\Generated_Source\PSoC4/Bootloader.c **** * Return:
1318:.\Generated_Source\PSoC4/Bootloader.c **** *  None
1319:.\Generated_Source\PSoC4/Bootloader.c **** *
1320:.\Generated_Source\PSoC4/Bootloader.c **** *******************************************************************************/
1321:.\Generated_Source\PSoC4/Bootloader.c **** void Bootloader_SetFlashByte(uint32 address, uint8 runType) 
1322:.\Generated_Source\PSoC4/Bootloader.c **** {
1323:.\Generated_Source\PSoC4/Bootloader.c ****     uint32 flsAddr = address - CYDEV_FLASH_BASE;
1324:.\Generated_Source\PSoC4/Bootloader.c ****     uint8  rowData[CYDEV_FLS_ROW_SIZE];
ARM GAS  C:\Users\ZHANGM~1\AppData\Local\Temp\ccNPBJtR.s 			page 25


1325:.\Generated_Source\PSoC4/Bootloader.c **** 
1326:.\Generated_Source\PSoC4/Bootloader.c ****     #if !(CY_PSOC4)
1327:.\Generated_Source\PSoC4/Bootloader.c ****         uint8 arrayId = ( uint8 )(flsAddr / CYDEV_FLS_SECTOR_SIZE);
1328:.\Generated_Source\PSoC4/Bootloader.c ****     #endif  /* !(CY_PSOC4) */
1329:.\Generated_Source\PSoC4/Bootloader.c **** 
1330:.\Generated_Source\PSoC4/Bootloader.c ****     uint16 rowNum = ( uint16 )((flsAddr % CYDEV_FLS_SECTOR_SIZE) / CYDEV_FLS_ROW_SIZE);
1331:.\Generated_Source\PSoC4/Bootloader.c ****     uint32 baseAddr = address - (address % CYDEV_FLS_ROW_SIZE);
1332:.\Generated_Source\PSoC4/Bootloader.c ****     uint16 idx;
1333:.\Generated_Source\PSoC4/Bootloader.c **** 
1334:.\Generated_Source\PSoC4/Bootloader.c ****     for(idx = 0u; idx < CYDEV_FLS_ROW_SIZE; idx++)
1335:.\Generated_Source\PSoC4/Bootloader.c ****     {
1336:.\Generated_Source\PSoC4/Bootloader.c ****         rowData[idx] = Bootloader_GET_CODE_BYTE(baseAddr + idx);
1337:.\Generated_Source\PSoC4/Bootloader.c ****     }
1338:.\Generated_Source\PSoC4/Bootloader.c **** 
1339:.\Generated_Source\PSoC4/Bootloader.c ****     rowData[address % CYDEV_FLS_ROW_SIZE] = runType;
1340:.\Generated_Source\PSoC4/Bootloader.c **** 
1341:.\Generated_Source\PSoC4/Bootloader.c ****     #if(CY_PSOC4)
1342:.\Generated_Source\PSoC4/Bootloader.c ****         (void) CySysFlashWriteRow((uint32) rowNum, rowData);
1343:.\Generated_Source\PSoC4/Bootloader.c ****     #else
1344:.\Generated_Source\PSoC4/Bootloader.c ****         (void) CyWriteRowData(arrayId, rowNum, rowData);
1345:.\Generated_Source\PSoC4/Bootloader.c ****     #endif  /* (CY_PSOC4) */
1346:.\Generated_Source\PSoC4/Bootloader.c **** }
1347:.\Generated_Source\PSoC4/Bootloader.c **** 
1348:.\Generated_Source\PSoC4/Bootloader.c **** 
1349:.\Generated_Source\PSoC4/Bootloader.c **** /*******************************************************************************
1350:.\Generated_Source\PSoC4/Bootloader.c **** * Function Name: Bootloader_GetMetadata
1351:.\Generated_Source\PSoC4/Bootloader.c **** ********************************************************************************
1352:.\Generated_Source\PSoC4/Bootloader.c **** *
1353:.\Generated_Source\PSoC4/Bootloader.c **** * Summary:
1354:.\Generated_Source\PSoC4/Bootloader.c **** *  Returns value of the multi-byte field.
1355:.\Generated_Source\PSoC4/Bootloader.c **** *
1356:.\Generated_Source\PSoC4/Bootloader.c **** * Parameters:
1357:.\Generated_Source\PSoC4/Bootloader.c **** *  fieldName:
1358:.\Generated_Source\PSoC4/Bootloader.c **** *   The field to get data from:
1359:.\Generated_Source\PSoC4/Bootloader.c **** *     Bootloader_GET_METADATA_BTLDB_ADDR
1360:.\Generated_Source\PSoC4/Bootloader.c **** *     Bootloader_GET_METADATA_BTLDR_LAST_ROW
1361:.\Generated_Source\PSoC4/Bootloader.c **** *     Bootloader_GET_METADATA_BTLDB_LENGTH
1362:.\Generated_Source\PSoC4/Bootloader.c **** *     Bootloader_GET_METADATA_BTLDR_APP_VERSION
1363:.\Generated_Source\PSoC4/Bootloader.c **** *     Bootloader_GET_METADATA_BTLDB_APP_VERSION
1364:.\Generated_Source\PSoC4/Bootloader.c **** *     Bootloader_GET_METADATA_BTLDB_APP_ID
1365:.\Generated_Source\PSoC4/Bootloader.c **** *     Bootloader_GET_METADATA_BTLDB_APP_CUST_ID
1366:.\Generated_Source\PSoC4/Bootloader.c **** *
1367:.\Generated_Source\PSoC4/Bootloader.c **** *  appId:
1368:.\Generated_Source\PSoC4/Bootloader.c **** *   Number of the bootlodable application.
1369:.\Generated_Source\PSoC4/Bootloader.c **** *
1370:.\Generated_Source\PSoC4/Bootloader.c **** * Return:
1371:.\Generated_Source\PSoC4/Bootloader.c **** *  None
1372:.\Generated_Source\PSoC4/Bootloader.c **** *
1373:.\Generated_Source\PSoC4/Bootloader.c **** *******************************************************************************/
1374:.\Generated_Source\PSoC4/Bootloader.c **** static uint32 Bootloader_GetMetadata(uint8 fieldName, uint8 appId)
  45              		.loc 1 1374 0
  46              		.cfi_startproc
  47              	.LVL1:
  48 0000 38B5     		push	{r3, r4, r5, lr}
  49              	.LCFI0:
  50              		.cfi_def_cfa_offset 16
  51              		.cfi_offset 3, -16
ARM GAS  C:\Users\ZHANGM~1\AppData\Local\Temp\ccNPBJtR.s 			page 26


  52              		.cfi_offset 4, -12
  53              		.cfi_offset 5, -8
  54              		.cfi_offset 14, -4
  55              		.loc 1 1374 0
  56 0002 041C     		mov	r4, r0
1375:.\Generated_Source\PSoC4/Bootloader.c **** {
1376:.\Generated_Source\PSoC4/Bootloader.c ****     uint32 fieldPtr;
1377:.\Generated_Source\PSoC4/Bootloader.c ****     uint8  fieldSize = 2u;
1378:.\Generated_Source\PSoC4/Bootloader.c ****     uint32 result;
1379:.\Generated_Source\PSoC4/Bootloader.c **** 
1380:.\Generated_Source\PSoC4/Bootloader.c ****     switch (fieldName)
  57              		.loc 1 1380 0
  58 0004 0138     		sub	r0, r0, #1
  59              	.LVL2:
  60 0006 0628     		cmp	r0, #6
  61 0008 0BD8     		bhi	.L3
  62 000a FFF7FEFF 		bl	__gnu_thumb1_case_uqi
  63              	.L11:
  64 000e 24       		.byte	(.L4-.L11)/2
  65 000f 06       		.byte	(.L5-.L11)/2
  66 0010 26       		.byte	(.L16-.L11)/2
  67 0011 0F       		.byte	(.L7-.L11)/2
  68 0012 11       		.byte	(.L17-.L11)/2
  69 0013 08       		.byte	(.L9-.L11)/2
  70 0014 04       		.byte	(.L10-.L11)/2
  71 0015 00       		.align	1
  72              	.L10:
1381:.\Generated_Source\PSoC4/Bootloader.c ****     {
1382:.\Generated_Source\PSoC4/Bootloader.c ****     case Bootloader_GET_METADATA_BTLDB_APP_CUST_ID:
1383:.\Generated_Source\PSoC4/Bootloader.c ****         fieldPtr  = Bootloader_MD_BTLDB_APP_CUST_ID_OFFSET(appId);
  73              		.loc 1 1383 0
  74 0016 1748     		ldr	r0, .L26
  75 0018 20E0     		b	.L6
  76              	.L5:
1384:.\Generated_Source\PSoC4/Bootloader.c ****         fieldSize = 4u;
1385:.\Generated_Source\PSoC4/Bootloader.c ****         break;
1386:.\Generated_Source\PSoC4/Bootloader.c **** 
1387:.\Generated_Source\PSoC4/Bootloader.c ****     case Bootloader_GET_METADATA_BTLDR_APP_VERSION:
1388:.\Generated_Source\PSoC4/Bootloader.c ****         fieldPtr  = Bootloader_MD_BTLDR_APP_VERSION_OFFSET(appId);
1389:.\Generated_Source\PSoC4/Bootloader.c ****         break;
1390:.\Generated_Source\PSoC4/Bootloader.c **** 
1391:.\Generated_Source\PSoC4/Bootloader.c ****     case Bootloader_GET_METADATA_BTLDB_ADDR:
1392:.\Generated_Source\PSoC4/Bootloader.c ****         fieldPtr  = Bootloader_MD_BTLDB_ADDR_OFFSET(appId);
1393:.\Generated_Source\PSoC4/Bootloader.c ****     #if(!CY_PSOC3)
1394:.\Generated_Source\PSoC4/Bootloader.c ****         fieldSize = 4u;
1395:.\Generated_Source\PSoC4/Bootloader.c ****     #endif  /* (!CY_PSOC3) */
1396:.\Generated_Source\PSoC4/Bootloader.c ****         break;
1397:.\Generated_Source\PSoC4/Bootloader.c **** 
1398:.\Generated_Source\PSoC4/Bootloader.c ****     case Bootloader_GET_METADATA_BTLDR_LAST_ROW:
1399:.\Generated_Source\PSoC4/Bootloader.c ****         fieldPtr  = Bootloader_MD_BTLDR_LAST_ROW_OFFSET(appId);
  77              		.loc 1 1399 0
  78 001a 174B     		ldr	r3, .L26+4
  79 001c 09E0     		b	.L8
  80              	.L9:
  81              	.LVL3:
1400:.\Generated_Source\PSoC4/Bootloader.c ****         break;
1401:.\Generated_Source\PSoC4/Bootloader.c **** 
ARM GAS  C:\Users\ZHANGM~1\AppData\Local\Temp\ccNPBJtR.s 			page 27


1402:.\Generated_Source\PSoC4/Bootloader.c ****     case Bootloader_GET_METADATA_BTLDB_LENGTH:
1403:.\Generated_Source\PSoC4/Bootloader.c ****         fieldPtr  = Bootloader_MD_BTLDB_LENGTH_OFFSET(appId);
1404:.\Generated_Source\PSoC4/Bootloader.c ****     #if(!CY_PSOC3)
1405:.\Generated_Source\PSoC4/Bootloader.c ****         fieldSize = 4u;
1406:.\Generated_Source\PSoC4/Bootloader.c ****     #endif  /* (!CY_PSOC3) */
1407:.\Generated_Source\PSoC4/Bootloader.c ****         break;
1408:.\Generated_Source\PSoC4/Bootloader.c **** 
1409:.\Generated_Source\PSoC4/Bootloader.c ****     case Bootloader_GET_METADATA_BTLDB_APP_VERSION:
1410:.\Generated_Source\PSoC4/Bootloader.c ****         fieldPtr  = Bootloader_MD_BTLDB_APP_VERSION_OFFSET(appId);
1411:.\Generated_Source\PSoC4/Bootloader.c ****         break;
1412:.\Generated_Source\PSoC4/Bootloader.c **** 
1413:.\Generated_Source\PSoC4/Bootloader.c ****     case Bootloader_GET_METADATA_BTLDB_APP_ID:
1414:.\Generated_Source\PSoC4/Bootloader.c ****         fieldPtr  = Bootloader_MD_BTLDB_APP_ID_OFFSET(appId);
  82              		.loc 1 1414 0
  83 001e 174B     		ldr	r3, .L26+8
  84 0020 07E0     		b	.L8
  85              	.LVL4:
  86              	.L3:
1415:.\Generated_Source\PSoC4/Bootloader.c ****         break;
1416:.\Generated_Source\PSoC4/Bootloader.c **** 
1417:.\Generated_Source\PSoC4/Bootloader.c ****     default:
1418:.\Generated_Source\PSoC4/Bootloader.c ****         /* Should never be here */
1419:.\Generated_Source\PSoC4/Bootloader.c ****         CYASSERT(0u != 0u);
  87              		.loc 1 1419 0
  88 0022 0020     		mov	r0, #0
  89 0024 FFF7FEFF 		bl	CyHalt
  90              	.LVL5:
1420:.\Generated_Source\PSoC4/Bootloader.c ****         fieldPtr  = 0u;
  91              		.loc 1 1420 0
  92 0028 0023     		mov	r3, #0
  93 002a 02E0     		b	.L8
  94              	.LVL6:
  95              	.L7:
1388:.\Generated_Source\PSoC4/Bootloader.c ****         fieldPtr  = Bootloader_MD_BTLDR_APP_VERSION_OFFSET(appId);
  96              		.loc 1 1388 0
  97 002c 144B     		ldr	r3, .L26+12
  98 002e 00E0     		b	.L8
  99              	.L17:
1410:.\Generated_Source\PSoC4/Bootloader.c ****         fieldPtr  = Bootloader_MD_BTLDB_APP_VERSION_OFFSET(appId);
 100              		.loc 1 1410 0
 101 0030 144B     		ldr	r3, .L26+16
 102              	.L8:
 103              	.LVL7:
1421:.\Generated_Source\PSoC4/Bootloader.c ****         break;
1422:.\Generated_Source\PSoC4/Bootloader.c ****     }
1423:.\Generated_Source\PSoC4/Bootloader.c **** 
1424:.\Generated_Source\PSoC4/Bootloader.c **** 
1425:.\Generated_Source\PSoC4/Bootloader.c ****     /* Read all fields as big-endian */
1426:.\Generated_Source\PSoC4/Bootloader.c ****     if (2u == fieldSize)
1427:.\Generated_Source\PSoC4/Bootloader.c ****     {
1428:.\Generated_Source\PSoC4/Bootloader.c ****         result =  (uint32) CY_GET_XTND_REG8((volatile uint8 *)(fieldPtr + 1u));
 104              		.loc 1 1428 0
 105 0032 5A78     		ldrb	r2, [r3, #1]
 106              	.LVL8:
1429:.\Generated_Source\PSoC4/Bootloader.c ****         result |= (uint32) CY_GET_XTND_REG8((volatile uint8 *) fieldPtr      ) <<  8u;
 107              		.loc 1 1429 0
 108 0034 1878     		ldrb	r0, [r3]
ARM GAS  C:\Users\ZHANGM~1\AppData\Local\Temp\ccNPBJtR.s 			page 28


 109 0036 0002     		lsl	r0, r0, #8
 110 0038 1043     		orr	r0, r2
 111              	.LVL9:
 112              	.L15:
1430:.\Generated_Source\PSoC4/Bootloader.c ****     }
1431:.\Generated_Source\PSoC4/Bootloader.c ****     else
1432:.\Generated_Source\PSoC4/Bootloader.c ****     {
1433:.\Generated_Source\PSoC4/Bootloader.c ****         result =  (uint32) CY_GET_XTND_REG8((volatile uint8 *)(fieldPtr + 3u));
1434:.\Generated_Source\PSoC4/Bootloader.c ****         result |= (uint32) CY_GET_XTND_REG8((volatile uint8 *)(fieldPtr + 2u)) <<  8u;
1435:.\Generated_Source\PSoC4/Bootloader.c ****         result |= (uint32) CY_GET_XTND_REG8((volatile uint8 *)(fieldPtr + 1u)) << 16u;
1436:.\Generated_Source\PSoC4/Bootloader.c ****         result |= (uint32) CY_GET_XTND_REG8((volatile uint8 *)(fieldPtr     )) << 24u;
1437:.\Generated_Source\PSoC4/Bootloader.c ****     }
1438:.\Generated_Source\PSoC4/Bootloader.c **** 
1439:.\Generated_Source\PSoC4/Bootloader.c ****     /* Following fields should be little-endian */
1440:.\Generated_Source\PSoC4/Bootloader.c **** #if(!CY_PSOC3)
1441:.\Generated_Source\PSoC4/Bootloader.c ****     switch (fieldName)
 113              		.loc 1 1441 0
 114 003a 022C     		cmp	r4, #2
 115 003c 04D0     		beq	.L14
 116 003e 032C     		cmp	r4, #3
 117 0040 07D0     		beq	.L13
 118 0042 012C     		cmp	r4, #1
 119 0044 15D1     		bne	.L24
 120 0046 04E0     		b	.L13
 121              	.L14:
1442:.\Generated_Source\PSoC4/Bootloader.c ****     {
1443:.\Generated_Source\PSoC4/Bootloader.c ****     case Bootloader_GET_METADATA_BTLDR_LAST_ROW:
1444:.\Generated_Source\PSoC4/Bootloader.c ****         result = CYSWAP_ENDIAN16(result);
 122              		.loc 1 1444 0
 123 0048 040A     		lsr	r4, r0, #8
 124 004a 0302     		lsl	r3, r0, #8
 125 004c 2343     		orr	r3, r4
 126 004e 98B2     		uxth	r0, r3
 127              	.LVL10:
 128 0050 0FE0     		b	.L24
 129              	.L13:
 130 0052 00BA     		rev	r0, r0
 131              	.LVL11:
 132 0054 0DE0     		b	.L24
 133              	.LVL12:
 134              	.L4:
1392:.\Generated_Source\PSoC4/Bootloader.c ****         fieldPtr  = Bootloader_MD_BTLDB_ADDR_OFFSET(appId);
 135              		.loc 1 1392 0
 136 0056 0C48     		ldr	r0, .L26+20
 137 0058 00E0     		b	.L6
 138              	.L16:
1403:.\Generated_Source\PSoC4/Bootloader.c ****         fieldPtr  = Bootloader_MD_BTLDB_LENGTH_OFFSET(appId);
 139              		.loc 1 1403 0
 140 005a 0C48     		ldr	r0, .L26+24
 141              	.L6:
 142              	.LVL13:
1433:.\Generated_Source\PSoC4/Bootloader.c ****         result =  (uint32) CY_GET_XTND_REG8((volatile uint8 *)(fieldPtr + 3u));
 143              		.loc 1 1433 0
 144 005c C578     		ldrb	r5, [r0, #3]
 145              	.LVL14:
1434:.\Generated_Source\PSoC4/Bootloader.c ****         result |= (uint32) CY_GET_XTND_REG8((volatile uint8 *)(fieldPtr + 2u)) <<  8u;
 146              		.loc 1 1434 0
ARM GAS  C:\Users\ZHANGM~1\AppData\Local\Temp\ccNPBJtR.s 			page 29


 147 005e 8178     		ldrb	r1, [r0, #2]
 148              	.LVL15:
1435:.\Generated_Source\PSoC4/Bootloader.c ****         result |= (uint32) CY_GET_XTND_REG8((volatile uint8 *)(fieldPtr + 1u)) << 16u;
 149              		.loc 1 1435 0
 150 0060 4278     		ldrb	r2, [r0, #1]
 151              	.LVL16:
1436:.\Generated_Source\PSoC4/Bootloader.c ****         result |= (uint32) CY_GET_XTND_REG8((volatile uint8 *)(fieldPtr     )) << 24u;
 152              		.loc 1 1436 0
 153 0062 0378     		ldrb	r3, [r0]
 154 0064 1806     		lsl	r0, r3, #24
 155              	.LVL17:
1434:.\Generated_Source\PSoC4/Bootloader.c ****         result |= (uint32) CY_GET_XTND_REG8((volatile uint8 *)(fieldPtr + 2u)) <<  8u;
 156              		.loc 1 1434 0
 157 0066 2843     		orr	r0, r5
 158 0068 0D02     		lsl	r5, r1, #8
 159              	.LVL18:
1435:.\Generated_Source\PSoC4/Bootloader.c ****         result |= (uint32) CY_GET_XTND_REG8((volatile uint8 *)(fieldPtr + 1u)) << 16u;
 160              		.loc 1 1435 0
 161 006a 2843     		orr	r0, r5
 162 006c 1104     		lsl	r1, r2, #16
1436:.\Generated_Source\PSoC4/Bootloader.c ****         result |= (uint32) CY_GET_XTND_REG8((volatile uint8 *)(fieldPtr     )) << 24u;
 163              		.loc 1 1436 0
 164 006e 0843     		orr	r0, r1
 165              	.LVL19:
 166 0070 E3E7     		b	.L15
 167              	.LVL20:
 168              	.L24:
1445:.\Generated_Source\PSoC4/Bootloader.c ****         break;
1446:.\Generated_Source\PSoC4/Bootloader.c **** 
1447:.\Generated_Source\PSoC4/Bootloader.c ****     case Bootloader_GET_METADATA_BTLDB_ADDR:
1448:.\Generated_Source\PSoC4/Bootloader.c ****     case Bootloader_GET_METADATA_BTLDB_LENGTH:
1449:.\Generated_Source\PSoC4/Bootloader.c ****         result = CYSWAP_ENDIAN32(result);
1450:.\Generated_Source\PSoC4/Bootloader.c ****         break;
1451:.\Generated_Source\PSoC4/Bootloader.c **** 
1452:.\Generated_Source\PSoC4/Bootloader.c ****     default:
1453:.\Generated_Source\PSoC4/Bootloader.c ****         break;
1454:.\Generated_Source\PSoC4/Bootloader.c ****     }
1455:.\Generated_Source\PSoC4/Bootloader.c **** 
1456:.\Generated_Source\PSoC4/Bootloader.c **** #endif  /* (!CY_PSOC3) */
1457:.\Generated_Source\PSoC4/Bootloader.c **** 
1458:.\Generated_Source\PSoC4/Bootloader.c ****     return (result);
1459:.\Generated_Source\PSoC4/Bootloader.c **** }
 169              		.loc 1 1459 0
 170              		@ sp needed for prologue
 171 0072 38BD     		pop	{r3, r4, r5, pc}
 172              	.L27:
 173              		.align	2
 174              	.L26:
 175 0074 D87F0000 		.word	32728
 176 0078 C57F0000 		.word	32709
 177 007c D47F0000 		.word	32724
 178 0080 D27F0000 		.word	32722
 179 0084 D67F0000 		.word	32726
 180 0088 C17F0000 		.word	32705
 181 008c C97F0000 		.word	32713
 182              		.cfi_endproc
 183              	.LFE44:
ARM GAS  C:\Users\ZHANGM~1\AppData\Local\Temp\ccNPBJtR.s 			page 30


 184              		.size	Bootloader_GetMetadata.constprop.1, .-Bootloader_GetMetadata.constprop.1
 185              		.section	.text.Bootloader_ValidateBootloadable.constprop.0,"ax",%progbits
 186              		.align	1
 187              		.code	16
 188              		.thumb_func
 189              		.type	Bootloader_ValidateBootloadable.constprop.0, %function
 190              	Bootloader_ValidateBootloadable.constprop.0:
 191              	.LFB45:
 501:.\Generated_Source\PSoC4/Bootloader.c **** static cystatus Bootloader_ValidateBootloadable(uint8 appId) CYSMALL \
 192              		.loc 1 501 0
 193              		.cfi_startproc
 194              	.LVL21:
 195 0000 38B5     		push	{r3, r4, r5, lr}
 196              	.LCFI1:
 197              		.cfi_def_cfa_offset 16
 198              		.cfi_offset 3, -16
 199              		.cfi_offset 4, -12
 200              		.cfi_offset 5, -8
 201              		.cfi_offset 14, -4
 506:.\Generated_Source\PSoC4/Bootloader.c ****         uint32 CYDATA end   = Bootloader_FIRST_APP_BYTE(appId) +
 202              		.loc 1 506 0
 203 0002 0220     		mov	r0, #2
 204 0004 FFF7FEFF 		bl	Bootloader_GetMetadata.constprop.1
 205              	.LVL22:
 206 0008 051C     		mov	r5, r0
 507:.\Generated_Source\PSoC4/Bootloader.c ****                                 Bootloader_GetMetadata(Bootloader_GET_METADATA_BTLDB_LENGTH,
 207              		.loc 1 507 0
 208 000a 0320     		mov	r0, #3
 209 000c FFF7FEFF 		bl	Bootloader_GetMetadata.constprop.1
 210              	.LVL23:
 506:.\Generated_Source\PSoC4/Bootloader.c ****         uint32 CYDATA end   = Bootloader_FIRST_APP_BYTE(appId) +
 211              		.loc 1 506 0
 212 0010 6C1C     		add	r4, r5, #1
 213 0012 E101     		lsl	r1, r4, #7
 214 0014 0C18     		add	r4, r1, r0
 215              	.LVL24:
 535:.\Generated_Source\PSoC4/Bootloader.c ****         for(idx = Bootloader_FIRST_APP_BYTE(appId); idx < end; ++idx)
 216              		.loc 1 535 0
 217 0016 0220     		mov	r0, #2
 218 0018 FFF7FEFF 		bl	Bootloader_GetMetadata.constprop.1
 219              	.LVL25:
 511:.\Generated_Source\PSoC4/Bootloader.c ****         uint8  CYDATA calcedChecksum = 0u;
 220              		.loc 1 511 0
 221 001c 0023     		mov	r3, #0
 535:.\Generated_Source\PSoC4/Bootloader.c ****         for(idx = Bootloader_FIRST_APP_BYTE(appId); idx < end; ++idx)
 222              		.loc 1 535 0
 223 001e 421C     		add	r2, r0, #1
 224 0020 D201     		lsl	r2, r2, #7
 225              	.LVL26:
 510:.\Generated_Source\PSoC4/Bootloader.c ****         CYBIT         valid = 0u; /* Assume bad flash image */
 226              		.loc 1 510 0
 227 0022 191C     		mov	r1, r3
 228              	.LVL27:
 229              	.L29:
 535:.\Generated_Source\PSoC4/Bootloader.c ****         for(idx = Bootloader_FIRST_APP_BYTE(appId); idx < end; ++idx)
 230              		.loc 1 535 0
 231 0024 A242     		cmp	r2, r4
ARM GAS  C:\Users\ZHANGM~1\AppData\Local\Temp\ccNPBJtR.s 			page 31


 232 0026 09D2     		bcs	.L39
 233              	.L31:
 234              	.LBB3:
 537:.\Generated_Source\PSoC4/Bootloader.c ****             uint8 CYDATA curByte = Bootloader_GET_CODE_BYTE(idx);
 235              		.loc 1 537 0
 236 0028 1078     		ldrb	r0, [r2]
 237              	.LVL28:
 539:.\Generated_Source\PSoC4/Bootloader.c ****             if((curByte != 0u) && (curByte != 0xFFu))
 238              		.loc 1 539 0
 239 002a 451E     		sub	r5, r0, #1
 240 002c EDB2     		uxtb	r5, r5
 241 002e FD2D     		cmp	r5, #253
 242 0030 00D8     		bhi	.L30
 541:.\Generated_Source\PSoC4/Bootloader.c ****                 valid = 1u;
 243              		.loc 1 541 0
 244 0032 0121     		mov	r1, #1
 245              	.L30:
 544:.\Generated_Source\PSoC4/Bootloader.c ****             calcedChecksum += curByte;
 246              		.loc 1 544 0
 247 0034 C318     		add	r3, r0, r3
 248              	.LVL29:
 249 0036 DBB2     		uxtb	r3, r3
 250              	.LVL30:
 251              	.LBE3:
 535:.\Generated_Source\PSoC4/Bootloader.c ****         for(idx = Bootloader_FIRST_APP_BYTE(appId); idx < end; ++idx)
 252              		.loc 1 535 0
 253 0038 0132     		add	r2, r2, #1
 254              	.LVL31:
 255 003a F3E7     		b	.L29
 256              	.LVL32:
 257              	.L39:
 575:.\Generated_Source\PSoC4/Bootloader.c ****         if((calcedChecksum != Bootloader_MD_BTLDB_CHECKSUM_VALUE(appId)) ||
 258              		.loc 1 575 0
 259 003c 0548     		ldr	r0, .L40
 573:.\Generated_Source\PSoC4/Bootloader.c ****         calcedChecksum = ( uint8 )1u + ( uint8 )(~calcedChecksum);
 260              		.loc 1 573 0
 261 003e 5B42     		neg	r3, r3
 262              	.LVL33:
 575:.\Generated_Source\PSoC4/Bootloader.c ****         if((calcedChecksum != Bootloader_MD_BTLDB_CHECKSUM_VALUE(appId)) ||
 263              		.loc 1 575 0
 264 0040 0578     		ldrb	r5, [r0]
 265 0042 DCB2     		uxtb	r4, r3
 266              	.LVL34:
 267 0044 AC42     		cmp	r4, r5
 268 0046 01D0     		beq	.L32
 269              	.L34:
 578:.\Generated_Source\PSoC4/Bootloader.c ****             return(CYRET_BAD_DATA);
 270              		.loc 1 578 0
 271 0048 0620     		mov	r0, #6
 272 004a 02E0     		b	.L33
 273              	.L32:
 575:.\Generated_Source\PSoC4/Bootloader.c ****         if((calcedChecksum != Bootloader_MD_BTLDB_CHECKSUM_VALUE(appId)) ||
 274              		.loc 1 575 0
 275 004c 0029     		cmp	r1, #0
 276 004e FBD0     		beq	.L34
 588:.\Generated_Source\PSoC4/Bootloader.c ****         return(CYRET_SUCCESS);
 277              		.loc 1 588 0
ARM GAS  C:\Users\ZHANGM~1\AppData\Local\Temp\ccNPBJtR.s 			page 32


 278 0050 0020     		mov	r0, #0
 279              	.L33:
 589:.\Generated_Source\PSoC4/Bootloader.c **** }
 280              		.loc 1 589 0
 281              		@ sp needed for prologue
 282 0052 38BD     		pop	{r3, r4, r5, pc}
 283              	.L41:
 284              		.align	2
 285              	.L40:
 286 0054 C07F0000 		.word	32704
 287              		.cfi_endproc
 288              	.LFE45:
 289              		.size	Bootloader_ValidateBootloadable.constprop.0, .-Bootloader_ValidateBootloadable.constprop.0
 290              		.section	.text.Bootloader_HostLink,"ax",%progbits
 291              		.align	1
 292              		.code	16
 293              		.thumb_func
 294              		.type	Bootloader_HostLink, %function
 295              	Bootloader_HostLink:
 296              	.LFB40:
 611:.\Generated_Source\PSoC4/Bootloader.c **** {
 297              		.loc 1 611 0
 298              		.cfi_startproc
 299              	.LVL35:
 300 0000 F0B5     		push	{r4, r5, r6, r7, lr}
 301              	.LCFI2:
 302              		.cfi_def_cfa_offset 20
 303              		.cfi_offset 4, -20
 304              		.cfi_offset 5, -16
 305              		.cfi_offset 6, -12
 306              		.cfi_offset 7, -8
 307              		.cfi_offset 14, -4
 308 0002 AD4C     		ldr	r4, .L122
 309 0004 A544     		add	sp, sp, r4
 310              	.LCFI3:
 311              		.cfi_def_cfa_offset 776
 611:.\Generated_Source\PSoC4/Bootloader.c **** {
 312              		.loc 1 611 0
 313 0006 0190     		str	r0, [sp, #4]
 632:.\Generated_Source\PSoC4/Bootloader.c ****     CyBtldrCommStart();
 314              		.loc 1 632 0
 315 0008 FFF7FEFF 		bl	CyBtldrCommStart
 316              	.LVL36:
 635:.\Generated_Source\PSoC4/Bootloader.c ****     CyGlobalIntEnable;
 317              		.loc 1 635 0
 318              	@ 635 ".\Generated_Source\PSoC4\Bootloader.c" 1
 319 000c 62B6     		CPSIE   i
 320              	@ 0 "" 2
 625:.\Generated_Source\PSoC4/Bootloader.c ****     CYBIT     communicationState = Bootloader_COMMUNICATION_STATE_IDLE;
 321              		.loc 1 625 0
 322              		.code	16
 323 000e 0024     		mov	r4, #0
 619:.\Generated_Source\PSoC4/Bootloader.c ****     uint8     CYDATA timeOutCnt = 10u;
 324              		.loc 1 619 0
 325 0010 0A26     		mov	r6, #10
 622:.\Generated_Source\PSoC4/Bootloader.c ****         uint8 CYDATA clearedMetaData = 0u;
 326              		.loc 1 622 0
ARM GAS  C:\Users\ZHANGM~1\AppData\Local\Temp\ccNPBJtR.s 			page 33


 327 0012 0394     		str	r4, [sp, #12]
 619:.\Generated_Source\PSoC4/Bootloader.c ****     uint8     CYDATA timeOutCnt = 10u;
 328              		.loc 1 619 0
 329 0014 0296     		str	r6, [sp, #8]
 618:.\Generated_Source\PSoC4/Bootloader.c ****     uint16    CYDATA dataOffset = 0u;
 330              		.loc 1 618 0
 331 0016 251C     		mov	r5, r4
 332              	.LVL37:
 333              	.L112:
 643:.\Generated_Source\PSoC4/Bootloader.c ****             readStat = CyBtldrCommRead(packetBuffer,
 334              		.loc 1 643 0
 335 0018 019B     		ldr	r3, [sp, #4]
 336 001a 002B     		cmp	r3, #0
 337 001c 00D1     		bne	.L44
 338              	.L98:
 339 001e FF23     		mov	r3, #255
 340              	.L44:
 643:.\Generated_Source\PSoC4/Bootloader.c ****             readStat = CyBtldrCommRead(packetBuffer,
 341              		.loc 1 643 0 is_stmt 0 discriminator 3
 342 0020 26AF     		add	r7, sp, #152
 343 0022 05AE     		add	r6, sp, #20
 344 0024 9621     		mov	r1, #150
 345 0026 321C     		mov	r2, r6
 346 0028 381C     		mov	r0, r7
 347 002a 4900     		lsl	r1, r1, #1
 348 002c FFF7FEFF 		bl	CyBtldrCommRead
 349              	.LVL38:
 647:.\Generated_Source\PSoC4/Bootloader.c ****             if (0u != timeOut)
 350              		.loc 1 647 0 is_stmt 1 discriminator 3
 351 0030 019A     		ldr	r2, [sp, #4]
 352 0032 002A     		cmp	r2, #0
 353 0034 03D0     		beq	.L45
 649:.\Generated_Source\PSoC4/Bootloader.c ****                 timeOutCnt--;
 354              		.loc 1 649 0
 355 0036 029B     		ldr	r3, [sp, #8]
 356 0038 013B     		sub	r3, r3, #1
 357 003a D9B2     		uxtb	r1, r3
 358 003c 0291     		str	r1, [sp, #8]
 359              	.L45:
 652:.\Generated_Source\PSoC4/Bootloader.c ****         } while ( (0u != timeOutCnt) && (readStat != CYRET_SUCCESS) );
 360              		.loc 1 652 0
 361 003e 029A     		ldr	r2, [sp, #8]
 362 0040 002A     		cmp	r2, #0
 363 0042 02D0     		beq	.L46
 652:.\Generated_Source\PSoC4/Bootloader.c ****         } while ( (0u != timeOutCnt) && (readStat != CYRET_SUCCESS) );
 364              		.loc 1 652 0 is_stmt 0 discriminator 1
 365 0044 0028     		cmp	r0, #0
 366 0046 E7D1     		bne	.L112
 367 0048 02E0     		b	.L48
 368              	.L46:
 655:.\Generated_Source\PSoC4/Bootloader.c ****         if( readStat != CYRET_SUCCESS )
 369              		.loc 1 655 0 is_stmt 1
 370 004a 0028     		cmp	r0, #0
 371 004c 00D0     		beq	.LCB368
 372 004e 94E0     		b	.L49	@long jump
 373              	.LCB368:
 374              	.L48:
ARM GAS  C:\Users\ZHANGM~1\AppData\Local\Temp\ccNPBJtR.s 			page 34


 660:.\Generated_Source\PSoC4/Bootloader.c ****         if((numberRead < Bootloader_MIN_PKT_SIZE) ||
 375              		.loc 1 660 0
 376 0050 3288     		ldrh	r2, [r6]
 377 0052 062A     		cmp	r2, #6
 378 0054 00D8     		bhi	.LCB372
 379 0056 1FE1     		b	.L75	@long jump
 380              	.LCB372:
 660:.\Generated_Source\PSoC4/Bootloader.c ****         if((numberRead < Bootloader_MIN_PKT_SIZE) ||
 381              		.loc 1 660 0 is_stmt 0 discriminator 1
 382 0058 3878     		ldrb	r0, [r7]
 383              	.LVL39:
 663:.\Generated_Source\PSoC4/Bootloader.c ****             ackCode = Bootloader_ERR_DATA;
 384              		.loc 1 663 0 is_stmt 1 discriminator 1
 385 005a 0423     		mov	r3, #4
 660:.\Generated_Source\PSoC4/Bootloader.c ****         if((numberRead < Bootloader_MIN_PKT_SIZE) ||
 386              		.loc 1 660 0 discriminator 1
 387 005c 0128     		cmp	r0, #1
 388 005e 5DD1     		bne	.L115
 667:.\Generated_Source\PSoC4/Bootloader.c ****             pktSize = ((uint16)((uint16)packetBuffer[Bootloader_SIZE_ADDR + 1u] << 8u)) |
 389              		.loc 1 667 0
 390 0060 FE78     		ldrb	r6, [r7, #3]
 391 0062 B978     		ldrb	r1, [r7, #2]
 392 0064 3602     		lsl	r6, r6, #8
 393 0066 0E43     		orr	r6, r1
 394              	.LVL40:
 670:.\Generated_Source\PSoC4/Bootloader.c ****             pktChecksum = ((uint16)((uint16)packetBuffer[Bootloader_CHK_ADDR(pktSize) + 1u] << 8u))
 395              		.loc 1 670 0
 396 0068 BF19     		add	r7, r7, r6
 397 006a 7879     		ldrb	r0, [r7, #5]
 671:.\Generated_Source\PSoC4/Bootloader.c ****                                    packetBuffer[Bootloader_CHK_ADDR(pktSize)];
 398              		.loc 1 671 0
 399 006c 3979     		ldrb	r1, [r7, #4]
 670:.\Generated_Source\PSoC4/Bootloader.c ****             pktChecksum = ((uint16)((uint16)packetBuffer[Bootloader_CHK_ADDR(pktSize) + 1u] << 8u))
 400              		.loc 1 670 0
 401 006e 8446     		mov	ip, r0
 402              	.LVL41:
 673:.\Generated_Source\PSoC4/Bootloader.c ****             if((pktSize + Bootloader_MIN_PKT_SIZE) > numberRead)
 403              		.loc 1 673 0
 404 0070 F01D     		add	r0, r6, #7
 405              	.LVL42:
 406 0072 9042     		cmp	r0, r2
 407 0074 00D9     		bls	.LCB392
 408 0076 11E1     		b	.L77	@long jump
 409              	.LCB392:
 677:.\Generated_Source\PSoC4/Bootloader.c ****             else if(packetBuffer[Bootloader_EOP_ADDR(pktSize)] != Bootloader_EOP)
 410              		.loc 1 677 0
 411 0078 BA79     		ldrb	r2, [r7, #6]
 412 007a 172A     		cmp	r2, #23
 413 007c 4ED1     		bne	.L115
 681:.\Generated_Source\PSoC4/Bootloader.c ****             else if(pktChecksum != Bootloader_CalcPacketChecksum(packetBuffer,
 414              		.loc 1 681 0
 415 007e F318     		add	r3, r6, r3
 416 0080 9BB2     		uxth	r3, r3
 417              	.LVL43:
 157:.\Generated_Source\PSoC4/Bootloader.c ****         uint16 CYDATA sum = 0u;
 418              		.loc 1 157 0
 419 0082 0022     		mov	r2, #0
ARM GAS  C:\Users\ZHANGM~1\AppData\Local\Temp\ccNPBJtR.s 			page 35


 420              	.LVL44:
 421              	.L51:
 422              	.LBB17:
 423              	.LBB18:
 159:.\Generated_Source\PSoC4/Bootloader.c ****         while (size > 0u)
 424              		.loc 1 159 0
 425 0084 002B     		cmp	r3, #0
 426 0086 09D0     		beq	.L118
 427              	.L52:
 161:.\Generated_Source\PSoC4/Bootloader.c ****             sum += buffer[size - 1u];
 428              		.loc 1 161 0
 429 0088 BCAF     		add	r7, sp, #752
 430 008a F818     		add	r0, r7, r3
 431 008c 8B4F     		ldr	r7, .L122+4
 162:.\Generated_Source\PSoC4/Bootloader.c ****             size--;
 432              		.loc 1 162 0
 433 008e 013B     		sub	r3, r3, #1
 434              	.LVL45:
 161:.\Generated_Source\PSoC4/Bootloader.c ****             sum += buffer[size - 1u];
 435              		.loc 1 161 0
 436 0090 C019     		add	r0, r0, r7
 437 0092 0778     		ldrb	r7, [r0]
 162:.\Generated_Source\PSoC4/Bootloader.c ****             size--;
 438              		.loc 1 162 0
 439 0094 9BB2     		uxth	r3, r3
 440              	.LVL46:
 161:.\Generated_Source\PSoC4/Bootloader.c ****             sum += buffer[size - 1u];
 441              		.loc 1 161 0
 442 0096 D219     		add	r2, r2, r7
 443              	.LVL47:
 444 0098 92B2     		uxth	r2, r2
 445              	.LVL48:
 446 009a F3E7     		b	.L51
 447              	.L118:
 448              	.LBE18:
 449              	.LBE17:
 670:.\Generated_Source\PSoC4/Bootloader.c ****             pktChecksum = ((uint16)((uint16)packetBuffer[Bootloader_CHK_ADDR(pktSize) + 1u] << 8u))
 450              		.loc 1 670 0
 451 009c 6746     		mov	r7, ip
 452              	.LBB20:
 453              	.LBB19:
 165:.\Generated_Source\PSoC4/Bootloader.c ****         return(( uint16 )1u + ( uint16 )(~sum));
 454              		.loc 1 165 0
 455 009e 5242     		neg	r2, r2
 456              	.LVL49:
 457              	.LBE19:
 458              	.LBE20:
 670:.\Generated_Source\PSoC4/Bootloader.c ****             pktChecksum = ((uint16)((uint16)packetBuffer[Bootloader_CHK_ADDR(pktSize) + 1u] << 8u))
 459              		.loc 1 670 0
 460 00a0 3802     		lsl	r0, r7, #8
 681:.\Generated_Source\PSoC4/Bootloader.c ****             else if(pktChecksum != Bootloader_CalcPacketChecksum(packetBuffer,
 461              		.loc 1 681 0
 462 00a2 97B2     		uxth	r7, r2
 463 00a4 0143     		orr	r1, r0
 464              	.LVL50:
 684:.\Generated_Source\PSoC4/Bootloader.c ****                 ackCode = Bootloader_ERR_CHECKSUM;
 465              		.loc 1 684 0
ARM GAS  C:\Users\ZHANGM~1\AppData\Local\Temp\ccNPBJtR.s 			page 36


 466 00a6 0823     		mov	r3, #8
 467              	.LVL51:
 681:.\Generated_Source\PSoC4/Bootloader.c ****             else if(pktChecksum != Bootloader_CalcPacketChecksum(packetBuffer,
 468              		.loc 1 681 0
 469 00a8 B942     		cmp	r1, r7
 470 00aa 37D1     		bne	.L115
 471 00ac 6EE0     		b	.L119
 472              	.LVL52:
 473              	.L57:
 474              	.LBB21:
 825:.\Generated_Source\PSoC4/Bootloader.c ****                 if (Bootloader_COMMAND_ERASE == packetBuffer[Bootloader_CMD_ADDR])
 475              		.loc 1 825 0
 476 00ae 3429     		cmp	r1, #52
 477 00b0 00D0     		beq	.LCB463
 478 00b2 98E0     		b	.L58	@long jump
 479              	.LCB463:
 827:.\Generated_Source\PSoC4/Bootloader.c ****                     if ((Bootloader_COMMUNICATION_STATE_ACTIVE == communicationState) && (pktSize =
 480              		.loc 1 827 0
 481 00b4 012C     		cmp	r4, #1
 482 00b6 00D0     		beq	.LCB465
 483 00b8 EEE0     		b	.L75	@long jump
 484              	.LCB465:
 827:.\Generated_Source\PSoC4/Bootloader.c ****                     if ((Bootloader_COMMUNICATION_STATE_ACTIVE == communicationState) && (pktSize =
 485              		.loc 1 827 0 is_stmt 0 discriminator 1
 486 00ba 032E     		cmp	r6, #3
 487 00bc 00D0     		beq	.LCB467
 488 00be EBE0     		b	.L75	@long jump
 489              	.LCB467:
 490              	.LVL53:
 849:.\Generated_Source\PSoC4/Bootloader.c ****                             (void) memset(dataBuffer, 0, dataOffset);
 491              		.loc 1 849 0 is_stmt 1
 492 00c0 71A8     		add	r0, sp, #452
 493 00c2 0021     		mov	r1, #0
 494 00c4 8022     		mov	r2, #128
 495              	.LVL54:
 496 00c6 FFF7FEFF 		bl	memset
 497              	.LVL55:
 843:.\Generated_Source\PSoC4/Bootloader.c ****                             dataOffset = Bootloader_FROW_SIZE;
 498              		.loc 1 843 0
 499 00ca 8025     		mov	r5, #128
 500              	.LVL56:
 501              	.L59:
 870:.\Generated_Source\PSoC4/Bootloader.c ****                         (void) memcpy(&dataBuffer[dataOffset],
 502              		.loc 1 870 0
 503 00cc 71A9     		add	r1, sp, #452
 504 00ce 4819     		add	r0, r1, r5
 505 00d0 2639     		sub	r1, r1, #38
 506 00d2 FF39     		sub	r1, r1, #255
 507 00d4 F21E     		sub	r2, r6, #3
 875:.\Generated_Source\PSoC4/Bootloader.c ****                     dataOffset += (pktSize - 3u);
 508              		.loc 1 875 0
 509 00d6 AC19     		add	r4, r5, r6
 870:.\Generated_Source\PSoC4/Bootloader.c ****                         (void) memcpy(&dataBuffer[dataOffset],
 510              		.loc 1 870 0
 511 00d8 FFF7FEFF 		bl	memcpy
 512              	.LVL57:
 899:.\Generated_Source\PSoC4/Bootloader.c ****                     if(dataOffset == pktSize)
ARM GAS  C:\Users\ZHANGM~1\AppData\Local\Temp\ccNPBJtR.s 			page 37


 513              		.loc 1 899 0
 514 00dc A1B2     		uxth	r1, r4
 515 00de 8329     		cmp	r1, #131
 516 00e0 00D0     		beq	.LCB495
 517 00e2 D4E0     		b	.L89	@long jump
 518              	.LCB495:
 902:.\Generated_Source\PSoC4/Bootloader.c ****                         dataOffset = ((uint16)((uint16)packetBuffer[Bootloader_DATA_ADDR + 2u] << 8
 519              		.loc 1 902 0
 520 00e4 B879     		ldrb	r0, [r7, #6]
 912:.\Generated_Source\PSoC4/Bootloader.c ****                             if(0u == clearedMetaData)
 521              		.loc 1 912 0
 522 00e6 039B     		ldr	r3, [sp, #12]
 902:.\Generated_Source\PSoC4/Bootloader.c ****                         dataOffset = ((uint16)((uint16)packetBuffer[Bootloader_DATA_ADDR + 2u] << 8
 523              		.loc 1 902 0
 524 00e8 7F79     		ldrb	r7, [r7, #5]
 525              	.LVL58:
 526 00ea 0502     		lsl	r5, r0, #8
 527              	.LVL59:
 528 00ec 3D43     		orr	r5, r7
 529              	.LVL60:
 912:.\Generated_Source\PSoC4/Bootloader.c ****                             if(0u == clearedMetaData)
 530              		.loc 1 912 0
 531 00ee 002B     		cmp	r3, #0
 532 00f0 0AD1     		bne	.L60
 533              	.LBB22:
 921:.\Generated_Source\PSoC4/Bootloader.c ****                                     (void) memset(erase, 0, Bootloader_FROW_SIZE);
 534              		.loc 1 921 0
 535 00f2 191C     		mov	r1, r3
 536 00f4 8022     		mov	r2, #128
 537 00f6 06A8     		add	r0, sp, #24
 538 00f8 FFF7FEFF 		bl	memset
 539              	.LVL61:
 925:.\Generated_Source\PSoC4/Bootloader.c ****                                     (void) CySysFlashWriteRow(Bootloader_MD_ROW, erase);
 540              		.loc 1 925 0
 541 00fc FF20     		mov	r0, #255
 542 00fe 06A9     		add	r1, sp, #24
 543 0100 FFF7FEFF 		bl	CySysFlashWriteRow
 544              	.LVL62:
 934:.\Generated_Source\PSoC4/Bootloader.c ****                                 clearedMetaData = 1u;
 545              		.loc 1 934 0
 546 0104 0122     		mov	r2, #1
 547 0106 0392     		str	r2, [sp, #12]
 548              	.LVL63:
 549              	.L60:
 550              	.LBE22:
 996:.\Generated_Source\PSoC4/Bootloader.c ****                             ackCode = (CYRET_SUCCESS != CySysFlashWriteRow((uint32) dataOffset, dat
 551              		.loc 1 996 0
 552 0108 281C     		mov	r0, r5
 553 010a 71A9     		add	r1, sp, #452
 554 010c FFF7FEFF 		bl	CySysFlashWriteRow
 555              	.LVL64:
 556 0110 0124     		mov	r4, #1
 557 0112 0028     		cmp	r0, #0
 558 0114 00D1     		bne	.LCB532
 559 0116 BDE0     		b	.L90	@long jump
 560              	.LCB532:
1014:.\Generated_Source\PSoC4/Bootloader.c ****                     dataOffset = 0u;
ARM GAS  C:\Users\ZHANGM~1\AppData\Local\Temp\ccNPBJtR.s 			page 38


 561              		.loc 1 1014 0
 562 0118 0025     		mov	r5, #0
 563              	.LVL65:
 996:.\Generated_Source\PSoC4/Bootloader.c ****                             ackCode = (CYRET_SUCCESS != CySysFlashWriteRow((uint32) dataOffset, dat
 564              		.loc 1 996 0
 565 011a 0A23     		mov	r3, #10
 566              	.LVL66:
 567              	.L115:
 692:.\Generated_Source\PSoC4/Bootloader.c ****         rspSize = 0u;
 568              		.loc 1 692 0
 569 011c 0021     		mov	r1, #0
 570              	.L55:
 571              	.LVL67:
 572              	.LBE21:
 573              	.LBB28:
 574              	.LBB29:
1286:.\Generated_Source\PSoC4/Bootloader.c ****     buffer[Bootloader_SOP_ADDR]      = Bootloader_SOP;
 575              		.loc 1 1286 0
 576 011e 26AF     		add	r7, sp, #152
 577              	.LVL68:
 578 0120 6E46     		mov	r6, sp
1287:.\Generated_Source\PSoC4/Bootloader.c ****     buffer[Bootloader_CMD_ADDR]      = status;
 579              		.loc 1 1287 0
 580 0122 7B70     		strb	r3, [r7, #1]
1288:.\Generated_Source\PSoC4/Bootloader.c ****     buffer[Bootloader_SIZE_ADDR]     = LO8(size);
 581              		.loc 1 1288 0
 582 0124 6B46     		mov	r3, sp
 583              	.LVL69:
 584 0126 9A33     		add	r3, r3, #154
 585 0128 F182     		strh	r1, [r6, #22]
1286:.\Generated_Source\PSoC4/Bootloader.c ****     buffer[Bootloader_SOP_ADDR]      = Bootloader_SOP;
 586              		.loc 1 1286 0
 587 012a 0120     		mov	r0, #1
1289:.\Generated_Source\PSoC4/Bootloader.c ****     buffer[Bootloader_SIZE_ADDR + 1u] = HI8(size);
 588              		.loc 1 1289 0
 589 012c 0022     		mov	r2, #0
1292:.\Generated_Source\PSoC4/Bootloader.c ****     checksum = Bootloader_CalcPacketChecksum(buffer, size + Bootloader_DATA_ADDR);
 590              		.loc 1 1292 0
 591 012e 0E1D     		add	r6, r1, #4
1288:.\Generated_Source\PSoC4/Bootloader.c ****     buffer[Bootloader_SIZE_ADDR]     = LO8(size);
 592              		.loc 1 1288 0
 593 0130 1970     		strb	r1, [r3]
1289:.\Generated_Source\PSoC4/Bootloader.c ****     buffer[Bootloader_SIZE_ADDR + 1u] = HI8(size);
 594              		.loc 1 1289 0
 595 0132 5A70     		strb	r2, [r3, #1]
1286:.\Generated_Source\PSoC4/Bootloader.c ****     buffer[Bootloader_SOP_ADDR]      = Bootloader_SOP;
 596              		.loc 1 1286 0
 597 0134 3870     		strb	r0, [r7]
1292:.\Generated_Source\PSoC4/Bootloader.c ****     checksum = Bootloader_CalcPacketChecksum(buffer, size + Bootloader_DATA_ADDR);
 598              		.loc 1 1292 0
 599 0136 B3B2     		uxth	r3, r6
 600              	.LVL70:
 601              	.L70:
 602              	.LBB30:
 603              	.LBB31:
 161:.\Generated_Source\PSoC4/Bootloader.c ****             sum += buffer[size - 1u];
 604              		.loc 1 161 0
ARM GAS  C:\Users\ZHANGM~1\AppData\Local\Temp\ccNPBJtR.s 			page 39


 605 0138 604F     		ldr	r7, .L122+4
 606 013a BCAE     		add	r6, sp, #752
 607 013c F018     		add	r0, r6, r3
 608 013e C019     		add	r0, r0, r7
 609 0140 0778     		ldrb	r7, [r0]
 162:.\Generated_Source\PSoC4/Bootloader.c ****             size--;
 610              		.loc 1 162 0
 611 0142 013B     		sub	r3, r3, #1
 161:.\Generated_Source\PSoC4/Bootloader.c ****             sum += buffer[size - 1u];
 612              		.loc 1 161 0
 613 0144 D219     		add	r2, r2, r7
 162:.\Generated_Source\PSoC4/Bootloader.c ****             size--;
 614              		.loc 1 162 0
 615 0146 9BB2     		uxth	r3, r3
 161:.\Generated_Source\PSoC4/Bootloader.c ****             sum += buffer[size - 1u];
 616              		.loc 1 161 0
 617 0148 92B2     		uxth	r2, r2
 618              	.LVL71:
 159:.\Generated_Source\PSoC4/Bootloader.c ****         while (size > 0u)
 619              		.loc 1 159 0
 620 014a 002B     		cmp	r3, #0
 621 014c F4D1     		bne	.L70
 622              	.LBE31:
 623              	.LBE30:
1294:.\Generated_Source\PSoC4/Bootloader.c ****     buffer[Bootloader_CHK_ADDR(size)]     = LO8(checksum);
 624              		.loc 1 1294 0
 625 014e 7318     		add	r3, r6, r1
 626              	.LVL72:
 627 0150 5B4E     		ldr	r6, .L122+8
 628              	.LBB34:
 629              	.LBB32:
 165:.\Generated_Source\PSoC4/Bootloader.c ****         return(( uint16 )1u + ( uint16 )(~sum));
 630              		.loc 1 165 0
 631 0152 5042     		neg	r0, r2
 632              	.LBE32:
 633              	.LBE34:
1294:.\Generated_Source\PSoC4/Bootloader.c ****     buffer[Bootloader_CHK_ADDR(size)]     = LO8(checksum);
 634              		.loc 1 1294 0
 635 0154 9F19     		add	r7, r3, r6
 636              	.LBB35:
 637              	.LBB33:
 165:.\Generated_Source\PSoC4/Bootloader.c ****         return(( uint16 )1u + ( uint16 )(~sum));
 638              		.loc 1 165 0
 639 0156 82B2     		uxth	r2, r0
 640              	.LVL73:
 641              	.LBE33:
 642              	.LBE35:
1295:.\Generated_Source\PSoC4/Bootloader.c ****     buffer[Bootloader_CHK_ADDR(1u + size)] = HI8(checksum);
 643              		.loc 1 1295 0
 644 0158 5A48     		ldr	r0, .L122+12
 645              	.LVL74:
1294:.\Generated_Source\PSoC4/Bootloader.c ****     buffer[Bootloader_CHK_ADDR(size)]     = LO8(checksum);
 646              		.loc 1 1294 0
 647 015a 3A70     		strb	r2, [r7]
1296:.\Generated_Source\PSoC4/Bootloader.c ****     buffer[Bootloader_EOP_ADDR(size)]     = Bootloader_EOP;
 648              		.loc 1 1296 0
 649 015c 5A4F     		ldr	r7, .L122+16
ARM GAS  C:\Users\ZHANGM~1\AppData\Local\Temp\ccNPBJtR.s 			page 40


1295:.\Generated_Source\PSoC4/Bootloader.c ****     buffer[Bootloader_CHK_ADDR(1u + size)] = HI8(checksum);
 650              		.loc 1 1295 0
 651 015e 1E18     		add	r6, r3, r0
 652 0160 120A     		lsr	r2, r2, #8
 653 0162 3270     		strb	r2, [r6]
1296:.\Generated_Source\PSoC4/Bootloader.c ****     buffer[Bootloader_EOP_ADDR(size)]     = Bootloader_EOP;
 654              		.loc 1 1296 0
 655 0164 DB19     		add	r3, r3, r7
 656 0166 1720     		mov	r0, #23
1299:.\Generated_Source\PSoC4/Bootloader.c ****     return(CyBtldrCommWrite(buffer, size + Bootloader_MIN_PKT_SIZE, &size, 150u));
 657              		.loc 1 1299 0
 658 0168 0731     		add	r1, r1, #7
 659              	.LVL75:
 660 016a 6A46     		mov	r2, sp
1296:.\Generated_Source\PSoC4/Bootloader.c ****     buffer[Bootloader_EOP_ADDR(size)]     = Bootloader_EOP;
 661              		.loc 1 1296 0
 662 016c 1870     		strb	r0, [r3]
1299:.\Generated_Source\PSoC4/Bootloader.c ****     return(CyBtldrCommWrite(buffer, size + Bootloader_MIN_PKT_SIZE, &size, 150u));
 663              		.loc 1 1299 0
 664 016e 89B2     		uxth	r1, r1
 665              	.LVL76:
 666 0170 26A8     		add	r0, sp, #152
 667              	.LVL77:
 668 0172 1632     		add	r2, r2, #22
 669 0174 9623     		mov	r3, #150
 670 0176 FFF7FEFF 		bl	CyBtldrCommWrite
 671              	.LVL78:
 672              	.L49:
 673              	.LBE29:
 674              	.LBE28:
1255:.\Generated_Source\PSoC4/Bootloader.c ****     } while ((0u == timeOut) || (Bootloader_COMMUNICATION_STATE_ACTIVE == communicationState));
 675              		.loc 1 1255 0
 676 017a 0199     		ldr	r1, [sp, #4]
 677 017c 0029     		cmp	r1, #0
 678 017e 00D1     		bne	.LCB663
 679 0180 4DE7     		b	.L98	@long jump
 680              	.LCB663:
1255:.\Generated_Source\PSoC4/Bootloader.c ****     } while ((0u == timeOut) || (Bootloader_COMMUNICATION_STATE_ACTIVE == communicationState));
 681              		.loc 1 1255 0 is_stmt 0 discriminator 1
 682 0182 012C     		cmp	r4, #1
 683 0184 00D0     		beq	.LCB665
 684 0186 92E0     		b	.L120	@long jump
 685              	.LCB665:
 686              	.LVL79:
 687              	.L72:
1029:.\Generated_Source\PSoC4/Bootloader.c ****                     dataOffset = 0u;
 688              		.loc 1 1029 0 is_stmt 1
 689 0188 0124     		mov	r4, #1
 690 018a 45E7     		b	.L112
 691              	.LVL80:
 692              	.L119:
 693              	.LBB36:
 695:.\Generated_Source\PSoC4/Bootloader.c ****             uint8 CYDATA btldrData = packetBuffer[Bootloader_DATA_ADDR];
 694              		.loc 1 695 0
 695 018c 26AF     		add	r7, sp, #152
 698:.\Generated_Source\PSoC4/Bootloader.c ****             switch(packetBuffer[Bootloader_CMD_ADDR])
 696              		.loc 1 698 0
ARM GAS  C:\Users\ZHANGM~1\AppData\Local\Temp\ccNPBJtR.s 			page 41


 697 018e 7978     		ldrb	r1, [r7, #1]
 695:.\Generated_Source\PSoC4/Bootloader.c ****             uint8 CYDATA btldrData = packetBuffer[Bootloader_DATA_ADDR];
 698              		.loc 1 695 0
 699 0190 3B79     		ldrb	r3, [r7, #4]
 700              	.LVL81:
 698:.\Generated_Source\PSoC4/Bootloader.c ****             switch(packetBuffer[Bootloader_CMD_ADDR])
 701              		.loc 1 698 0
 702 0192 081C     		mov	r0, r1
 703 0194 3138     		sub	r0, r0, #49
 704 0196 0A28     		cmp	r0, #10
 705 0198 01D9     		bls	.L121
 706              	.LVL82:
 707              	.L96:
1247:.\Generated_Source\PSoC4/Bootloader.c ****                 ackCode = Bootloader_ERR_CMD;
 708              		.loc 1 1247 0
 709 019a 0523     		mov	r3, #5
 710 019c BEE7     		b	.L115
 711              	.LVL83:
 712              	.L121:
 698:.\Generated_Source\PSoC4/Bootloader.c ****             switch(packetBuffer[Bootloader_CMD_ADDR])
 713              		.loc 1 698 0
 714 019e FFF7FEFF 		bl	__gnu_thumb1_case_sqi
 715              	.LVL84:
 716              	.L73:
 717 01a2 06       		.byte	(.L54-.L73)/2
 718 01a3 10       		.byte	(.L56-.L73)/2
 719 01a4 FC       		.byte	(.L96-.L73)/2
 720 01a5 86       		.byte	(.L57-.L73)/2
 721 01a6 27       		.byte	(.L61-.L73)/2
 722 01a7 FC       		.byte	(.L96-.L73)/2
 723 01a8 2A       		.byte	(.L63-.L73)/2
 724 01a9 3A       		.byte	(.L64-.L73)/2
 725 01aa 86       		.byte	(.L57-.L73)/2
 726 01ab 48       		.byte	(.L65-.L73)/2
 727 01ac 6C       		.byte	(.L68-.L73)/2
 728 01ad 00       		.align	1
 729              	.L54:
 743:.\Generated_Source\PSoC4/Bootloader.c ****                 if((Bootloader_COMMUNICATION_STATE_ACTIVE == communicationState) && (pktSize == 0u)
 730              		.loc 1 743 0
 731 01ae 012C     		cmp	r4, #1
 732 01b0 72D1     		bne	.L75
 743:.\Generated_Source\PSoC4/Bootloader.c ****                 if((Bootloader_COMMUNICATION_STATE_ACTIVE == communicationState) && (pktSize == 0u)
 733              		.loc 1 743 0 is_stmt 0 discriminator 1
 734 01b2 002E     		cmp	r6, #0
 735 01b4 70D1     		bne	.L75
 746:.\Generated_Source\PSoC4/Bootloader.c ****                             (uint8)(Bootloader_ValidateBootloadable(Bootloader_activeApp) == CYRET_
 736              		.loc 1 746 0 is_stmt 1
 737 01b6 FFF7FEFF 		bl	Bootloader_ValidateBootloadable.constprop.0
 738              	.LVL85:
 739 01ba 4342     		neg	r3, r0
 740 01bc 4341     		adc	r3, r3, r0
 745:.\Generated_Source\PSoC4/Bootloader.c ****                     packetBuffer[Bootloader_DATA_ADDR] =
 741              		.loc 1 745 0
 742 01be 3B71     		strb	r3, [r7, #4]
 743              	.LVL86:
 744 01c0 58E0     		b	.L116
 745              	.LVL87:
ARM GAS  C:\Users\ZHANGM~1\AppData\Local\Temp\ccNPBJtR.s 			page 42


 746              	.L56:
 761:.\Generated_Source\PSoC4/Bootloader.c ****                     if((Bootloader_COMMUNICATION_STATE_ACTIVE == communicationState) && (pktSize ==
 747              		.loc 1 761 0
 748 01c2 012C     		cmp	r4, #1
 749 01c4 68D1     		bne	.L75
 761:.\Generated_Source\PSoC4/Bootloader.c ****                     if((Bootloader_COMMUNICATION_STATE_ACTIVE == communicationState) && (pktSize ==
 750              		.loc 1 761 0 is_stmt 0 discriminator 1
 751 01c6 012E     		cmp	r6, #1
 752 01c8 66D1     		bne	.L75
 764:.\Generated_Source\PSoC4/Bootloader.c ****                         if(btldrData < Bootloader_NUM_OF_FLASH_ARRAYS)
 753              		.loc 1 764 0 is_stmt 1
 754 01ca 002B     		cmp	r3, #0
 755 01cc 64D1     		bne	.L75
 756              	.LBB23:
 767:.\Generated_Source\PSoC4/Bootloader.c ****                                 uint16 CYDATA startRow = (uint16)*Bootloader_SizeBytesAccess / CYDE
 757              		.loc 1 767 0
 758 01ce 3F4E     		ldr	r6, .L122+20
 759              	.LVL88:
 760 01d0 3168     		ldr	r1, [r6]
 761 01d2 0888     		ldrh	r0, [r1]
 774:.\Generated_Source\PSoC4/Bootloader.c ****                             packetBuffer[Bootloader_DATA_ADDR + 2u] = LO8(CY_FLASH_NUMBER_ROWS - 1u
 762              		.loc 1 774 0
 763 01d4 FF21     		mov	r1, #255
 767:.\Generated_Source\PSoC4/Bootloader.c ****                                 uint16 CYDATA startRow = (uint16)*Bootloader_SizeBytesAccess / CYDE
 764              		.loc 1 767 0
 765 01d6 C209     		lsr	r2, r0, #7
 766              	.LVL89:
 773:.\Generated_Source\PSoC4/Bootloader.c ****                             packetBuffer[Bootloader_DATA_ADDR + 1u] = HI8(startRow);
 767              		.loc 1 773 0
 768 01d8 160A     		lsr	r6, r2, #8
 774:.\Generated_Source\PSoC4/Bootloader.c ****                             packetBuffer[Bootloader_DATA_ADDR + 2u] = LO8(CY_FLASH_NUMBER_ROWS - 1u
 769              		.loc 1 774 0
 770 01da B971     		strb	r1, [r7, #6]
 772:.\Generated_Source\PSoC4/Bootloader.c ****                             packetBuffer[Bootloader_DATA_ADDR]      = LO8(startRow);
 771              		.loc 1 772 0
 772 01dc 3A71     		strb	r2, [r7, #4]
 773:.\Generated_Source\PSoC4/Bootloader.c ****                             packetBuffer[Bootloader_DATA_ADDR + 1u] = HI8(startRow);
 773              		.loc 1 773 0
 774 01de 7E71     		strb	r6, [r7, #5]
 775:.\Generated_Source\PSoC4/Bootloader.c ****                             packetBuffer[Bootloader_DATA_ADDR + 3u] = HI8(CY_FLASH_NUMBER_ROWS - 1u
 775              		.loc 1 775 0
 776 01e0 FB71     		strb	r3, [r7, #7]
 777              	.LVL90:
 777:.\Generated_Source\PSoC4/Bootloader.c ****                             rspSize = 4u;
 778              		.loc 1 777 0
 779 01e2 0421     		mov	r1, #4
 780 01e4 9BE7     		b	.L55
 781              	.LVL91:
 782              	.L58:
 783              	.LBE23:
 861:.\Generated_Source\PSoC4/Bootloader.c ****                 if((Bootloader_COMMUNICATION_STATE_ACTIVE == communicationState) && (pktSize >= 3u)
 784              		.loc 1 861 0
 785 01e6 012C     		cmp	r4, #1
 786 01e8 56D1     		bne	.L75
 861:.\Generated_Source\PSoC4/Bootloader.c ****                 if((Bootloader_COMMUNICATION_STATE_ACTIVE == communicationState) && (pktSize >= 3u)
 787              		.loc 1 861 0 is_stmt 0 discriminator 1
 788 01ea 022E     		cmp	r6, #2
ARM GAS  C:\Users\ZHANGM~1\AppData\Local\Temp\ccNPBJtR.s 			page 43


 789 01ec 54D9     		bls	.L75
 790 01ee 6DE7     		b	.L59
 791              	.LVL92:
 792              	.L61:
1026:.\Generated_Source\PSoC4/Bootloader.c ****                 if(Bootloader_COMMUNICATION_STATE_ACTIVE == communicationState)
 793              		.loc 1 1026 0 is_stmt 1
 794 01f0 012C     		cmp	r4, #1
 795 01f2 51D1     		bne	.L75
 796 01f4 54E0     		b	.L62
 797              	.L63:
1077:.\Generated_Source\PSoC4/Bootloader.c ****                     if(Bootloader_COMMUNICATION_STATE_ACTIVE == communicationState)
 798              		.loc 1 1077 0
 799 01f6 012C     		cmp	r4, #1
 800 01f8 4ED1     		bne	.L75
1080:.\Generated_Source\PSoC4/Bootloader.c ****                         if((dataOffset + pktSize) <= Bootloader_SIZEOF_COMMAND_BUFFER)
 801              		.loc 1 1080 0
 802 01fa 9620     		mov	r0, #150
 803 01fc AF19     		add	r7, r5, r6
 804              	.LVL93:
 805 01fe 4300     		lsl	r3, r0, #1
 806 0200 9F42     		cmp	r7, r3
 807 0202 4BD8     		bhi	.L77
 808              	.LVL94:
1089:.\Generated_Source\PSoC4/Bootloader.c ****                                 (void) memcpy(&dataBuffer[dataOffset],
 809              		.loc 1 1089 0
 810 0204 71AA     		add	r2, sp, #452
 811              	.LVL95:
 812 0206 5019     		add	r0, r2, r5
 813 0208 27A9     		add	r1, sp, #156
 814 020a 321C     		mov	r2, r6
 815 020c FFF7FEFF 		bl	memcpy
 816              	.LVL96:
1094:.\Generated_Source\PSoC4/Bootloader.c ****                             dataOffset += pktSize;
 817              		.loc 1 1094 0
 818 0210 BDB2     		uxth	r5, r7
 819              	.LVL97:
 820              	.L117:
1082:.\Generated_Source\PSoC4/Bootloader.c ****                             ackCode = CYRET_SUCCESS;
 821              		.loc 1 1082 0
 822 0212 0023     		mov	r3, #0
 823 0214 82E7     		b	.L115
 824              	.LVL98:
 825              	.L64:
1112:.\Generated_Source\PSoC4/Bootloader.c ****                 if(pktSize == 0u)
 826              		.loc 1 1112 0
 827 0216 002E     		cmp	r6, #0
 828 0218 3ED1     		bne	.L75
 829              	.LBB24:
1121:.\Generated_Source\PSoC4/Bootloader.c ****                         Bootloader_ENTER CYDATA BtldrVersion =
 830              		.loc 1 1121 0
 831 021a 06AB     		add	r3, sp, #24
 832 021c 2C4A     		ldr	r2, .L122+24
 833              	.LVL99:
 834 021e 191C     		mov	r1, r3
 835 0220 90CA     		ldmia	r2!, {r4, r7}
 836 0222 90C1     		stmia	r1!, {r4, r7}
 837              	.LVL100:
ARM GAS  C:\Users\ZHANGM~1\AppData\Local\Temp\ccNPBJtR.s 			page 44


1135:.\Generated_Source\PSoC4/Bootloader.c ****                         (void) memcpy(&packetBuffer[Bootloader_DATA_ADDR],
 838              		.loc 1 1135 0
 839 0224 27AF     		add	r7, sp, #156
 840 0226 11CB     		ldmia	r3!, {r0, r4}
 841 0228 11C7     		stmia	r7!, {r0, r4}
 842              	.LVL101:
1128:.\Generated_Source\PSoC4/Bootloader.c ****                     rspSize = sizeof(Bootloader_ENTER);
 843              		.loc 1 1128 0
 844 022a 0821     		mov	r1, #8
1126:.\Generated_Source\PSoC4/Bootloader.c ****                     communicationState = Bootloader_COMMUNICATION_STATE_ACTIVE;
 845              		.loc 1 1126 0
 846 022c 0124     		mov	r4, #1
1140:.\Generated_Source\PSoC4/Bootloader.c ****                     ackCode = CYRET_SUCCESS;
 847              		.loc 1 1140 0
 848 022e 331C     		mov	r3, r6
 849 0230 75E7     		b	.L55
 850              	.LVL102:
 851              	.L65:
 852              	.LBE24:
1150:.\Generated_Source\PSoC4/Bootloader.c ****                 if((Bootloader_COMMUNICATION_STATE_ACTIVE == communicationState) && (pktSize == 3u)
 853              		.loc 1 1150 0
 854 0232 012C     		cmp	r4, #1
 855 0234 30D1     		bne	.L75
1150:.\Generated_Source\PSoC4/Bootloader.c ****                 if((Bootloader_COMMUNICATION_STATE_ACTIVE == communicationState) && (pktSize == 3u)
 856              		.loc 1 1150 0 is_stmt 0 discriminator 1
 857 0236 032E     		cmp	r6, #3
 858 0238 2ED1     		bne	.L75
 859              	.LBB25:
1153:.\Generated_Source\PSoC4/Bootloader.c ****                     uint16 CYDATA rowNum = ((uint16)((uint16)packetBuffer[Bootloader_DATA_ADDR + 2u
 860              		.loc 1 1153 0 is_stmt 1
 861 023a B879     		ldrb	r0, [r7, #6]
 862 023c 7A79     		ldrb	r2, [r7, #5]
 863              	.LVL103:
 864 023e 0002     		lsl	r0, r0, #8
 865 0240 1043     		orr	r0, r2
 866              	.LVL104:
1182:.\Generated_Source\PSoC4/Bootloader.c ****                                             + ((uint32)rowNum * CYDEV_FLS_ROW_SIZE);
 867              		.loc 1 1182 0
 868 0242 1F02     		lsl	r7, r3, #8
 869              	.LVL105:
 870 0244 C119     		add	r1, r0, r7
1181:.\Generated_Source\PSoC4/Bootloader.c ****                         uint32 CYDATA rowAddr = ((uint32)btldrData * CYDEV_FLS_SECTOR_SIZE)
 871              		.loc 1 1181 0
 872 0246 CF01     		lsl	r7, r1, #7
 873              	.LVL106:
 192:.\Generated_Source\PSoC4/Bootloader.c ****     uint8 CYDATA sum = 0u;
 874              		.loc 1 192 0
 875 0248 0022     		mov	r2, #0
1181:.\Generated_Source\PSoC4/Bootloader.c ****                         uint32 CYDATA rowAddr = ((uint32)btldrData * CYDEV_FLS_SECTOR_SIZE)
 876              		.loc 1 1181 0
 877 024a 8021     		mov	r1, #128
 878              	.LVL107:
 879              	.L66:
 880              	.LBB26:
 881              	.LBB27:
 196:.\Generated_Source\PSoC4/Bootloader.c ****         size--;
 882              		.loc 1 196 0
ARM GAS  C:\Users\ZHANGM~1\AppData\Local\Temp\ccNPBJtR.s 			page 45


 883 024c 0139     		sub	r1, r1, #1
 884              	.LVL108:
 197:.\Generated_Source\PSoC4/Bootloader.c ****         sum += Bootloader_GET_CODE_BYTE(start + size);
 885              		.loc 1 197 0
 886 024e CE5D     		ldrb	r6, [r1, r7]
 887 0250 9219     		add	r2, r2, r6
 888 0252 D2B2     		uxtb	r2, r2
 889              	.LVL109:
 194:.\Generated_Source\PSoC4/Bootloader.c ****     while (size > 0u)
 890              		.loc 1 194 0
 891 0254 0029     		cmp	r1, #0
 892 0256 F9D1     		bne	.L66
 893              	.LBE27:
 894              	.LBE26:
1213:.\Generated_Source\PSoC4/Bootloader.c ****                     if((Bootloader_MD_FLASH_ARRAY_NUM == btldrData) &&
 895              		.loc 1 1213 0
 896 0258 002B     		cmp	r3, #0
 897 025a 08D1     		bne	.L67
1213:.\Generated_Source\PSoC4/Bootloader.c ****                     if((Bootloader_MD_FLASH_ARRAY_NUM == btldrData) &&
 898              		.loc 1 1213 0 is_stmt 0 discriminator 1
 899 025c FF28     		cmp	r0, #255
 900 025e 06D1     		bne	.L67
1216:.\Generated_Source\PSoC4/Bootloader.c ****                         checksum -= Bootloader_MD_BTLDB_ACTIVE_VALUE  (Bootloader_GET_APP_ID(rowNum
 901              		.loc 1 1216 0 is_stmt 1
 902 0260 1C4B     		ldr	r3, .L122+28
1217:.\Generated_Source\PSoC4/Bootloader.c ****                         checksum -= Bootloader_MD_BTLDB_VERIFIED_VALUE(Bootloader_GET_APP_ID(rowNum
 903              		.loc 1 1217 0
 904 0262 1D49     		ldr	r1, .L122+32
 905              	.LVL110:
1216:.\Generated_Source\PSoC4/Bootloader.c ****                         checksum -= Bootloader_MD_BTLDB_ACTIVE_VALUE  (Bootloader_GET_APP_ID(rowNum
 906              		.loc 1 1216 0
 907 0264 1878     		ldrb	r0, [r3]
 908              	.LVL111:
1217:.\Generated_Source\PSoC4/Bootloader.c ****                         checksum -= Bootloader_MD_BTLDB_VERIFIED_VALUE(Bootloader_GET_APP_ID(rowNum
 909              		.loc 1 1217 0
 910 0266 0E78     		ldrb	r6, [r1]
1216:.\Generated_Source\PSoC4/Bootloader.c ****                         checksum -= Bootloader_MD_BTLDB_ACTIVE_VALUE  (Bootloader_GET_APP_ID(rowNum
 911              		.loc 1 1216 0
 912 0268 171A     		sub	r7, r2, r0
 913              	.LVL112:
1217:.\Generated_Source\PSoC4/Bootloader.c ****                         checksum -= Bootloader_MD_BTLDB_VERIFIED_VALUE(Bootloader_GET_APP_ID(rowNum
 914              		.loc 1 1217 0
 915 026a BA1B     		sub	r2, r7, r6
 916              	.LVL113:
 917 026c D2B2     		uxtb	r2, r2
 918              	.LVL114:
 919              	.L67:
1220:.\Generated_Source\PSoC4/Bootloader.c ****                     packetBuffer[Bootloader_DATA_ADDR] = (uint8)1u + (uint8)(~checksum);
 920              		.loc 1 1220 0
 921 026e 5042     		neg	r0, r2
 922 0270 26AB     		add	r3, sp, #152
 923 0272 1871     		strb	r0, [r3, #4]
 924              	.LVL115:
 925              	.L116:
1221:.\Generated_Source\PSoC4/Bootloader.c ****                     ackCode = CYRET_SUCCESS;
 926              		.loc 1 1221 0
 927 0274 0023     		mov	r3, #0
ARM GAS  C:\Users\ZHANGM~1\AppData\Local\Temp\ccNPBJtR.s 			page 46


1222:.\Generated_Source\PSoC4/Bootloader.c ****                     rspSize = 1u;
 928              		.loc 1 1222 0
 929 0276 0121     		mov	r1, #1
 930 0278 51E7     		b	.L55
 931              	.LVL116:
 932              	.L68:
 933              	.LBE25:
1232:.\Generated_Source\PSoC4/Bootloader.c ****                 if(CYRET_SUCCESS == Bootloader_ValidateBootloadable(Bootloader_activeApp))
 934              		.loc 1 1232 0
 935 027a FFF7FEFF 		bl	Bootloader_ValidateBootloadable.constprop.0
 936              	.LVL117:
 937 027e 0028     		cmp	r0, #0
 938 0280 02D1     		bne	.L69
1234:.\Generated_Source\PSoC4/Bootloader.c ****                     Bootloader_SET_RUN_TYPE(Bootloader_START_APP);
 939              		.loc 1 1234 0
 940 0282 164B     		ldr	r3, .L122+36
 941 0284 8026     		mov	r6, #128
 942              	.LVL118:
 943 0286 1E60     		str	r6, [r3]
 944              	.L69:
1237:.\Generated_Source\PSoC4/Bootloader.c ****                 CySoftwareReset();
 945              		.loc 1 1237 0
 946 0288 FFF7FEFF 		bl	CySoftwareReset
 947              	.LVL119:
 948 028c 04E0     		b	.L75
 949              	.LVL120:
 950              	.L89:
 899:.\Generated_Source\PSoC4/Bootloader.c ****                     if(dataOffset == pktSize)
 951              		.loc 1 899 0
 952 028e 0124     		mov	r4, #1
1014:.\Generated_Source\PSoC4/Bootloader.c ****                     dataOffset = 0u;
 953              		.loc 1 1014 0
 954 0290 0025     		mov	r5, #0
 955              	.LVL121:
 956 0292 03E0     		b	.L77
 957              	.LVL122:
 958              	.L90:
 959 0294 051C     		mov	r5, r0
 960              	.LVL123:
 961 0296 BCE7     		b	.L117
 962              	.LVL124:
 963              	.L75:
 964              	.LBE36:
 663:.\Generated_Source\PSoC4/Bootloader.c ****             ackCode = Bootloader_ERR_DATA;
 965              		.loc 1 663 0
 966 0298 0423     		mov	r3, #4
 967 029a 3FE7     		b	.L115
 968              	.L77:
 675:.\Generated_Source\PSoC4/Bootloader.c ****                 ackCode = Bootloader_ERR_LENGTH;
 969              		.loc 1 675 0
 970 029c 0323     		mov	r3, #3
 971              	.LVL125:
 972 029e 3DE7     		b	.L115
 973              	.LVL126:
 974              	.L62:
1255:.\Generated_Source\PSoC4/Bootloader.c ****     } while ((0u == timeOut) || (Bootloader_COMMUNICATION_STATE_ACTIVE == communicationState));
 975              		.loc 1 1255 0
ARM GAS  C:\Users\ZHANGM~1\AppData\Local\Temp\ccNPBJtR.s 			page 47


 976 02a0 019E     		ldr	r6, [sp, #4]
 977              	.LVL127:
1029:.\Generated_Source\PSoC4/Bootloader.c ****                     dataOffset = 0u;
 978              		.loc 1 1029 0
 979 02a2 0025     		mov	r5, #0
1255:.\Generated_Source\PSoC4/Bootloader.c ****     } while ((0u == timeOut) || (Bootloader_COMMUNICATION_STATE_ACTIVE == communicationState));
 980              		.loc 1 1255 0
 981 02a4 002E     		cmp	r6, #0
 982 02a6 00D0     		beq	.LCB1038
 983 02a8 6EE7     		b	.L72	@long jump
 984              	.LCB1038:
1029:.\Generated_Source\PSoC4/Bootloader.c ****                     dataOffset = 0u;
 985              		.loc 1 1029 0
 986 02aa 019D     		ldr	r5, [sp, #4]
 987 02ac B7E6     		b	.L98
 988              	.LVL128:
 989              	.L120:
1256:.\Generated_Source\PSoC4/Bootloader.c **** }
 990              		.loc 1 1256 0
 991 02ae BD25     		mov	r5, #189
 992              	.LVL129:
 993 02b0 AD00     		lsl	r5, r5, #2
 994 02b2 AD44     		add	sp, sp, r5
 995              		@ sp needed for prologue
 996              	.LVL130:
 997 02b4 F0BD     		pop	{r4, r5, r6, r7, pc}
 998              	.L123:
 999 02b6 C046     		.align	2
 1000              	.L122:
 1001 02b8 0CFDFFFF 		.word	-756
 1002 02bc A7FDFFFF 		.word	-601
 1003 02c0 ACFDFFFF 		.word	-596
 1004 02c4 ADFDFFFF 		.word	-595
 1005 02c8 AEFDFFFF 		.word	-594
 1006 02cc 00000000 		.word	.LANCHOR0
 1007 02d0 00000000 		.word	.LANCHOR1
 1008 02d4 D07F0000 		.word	32720
 1009 02d8 D17F0000 		.word	32721
 1010 02dc 00000000 		.word	cyBtldrRunType
 1011              		.cfi_endproc
 1012              	.LFE40:
 1013              		.size	Bootloader_HostLink, .-Bootloader_HostLink
 1014              		.section	.text.Bootloader_Start,"ax",%progbits
 1015              		.align	1
 1016              		.global	Bootloader_Start
 1017              		.code	16
 1018              		.thumb_func
 1019              		.type	Bootloader_Start, %function
 1020              	Bootloader_Start:
 1021              	.LFB35:
 273:.\Generated_Source\PSoC4/Bootloader.c **** {
 1022              		.loc 1 273 0
 1023              		.cfi_startproc
 330:.\Generated_Source\PSoC4/Bootloader.c ****                 *Bootloader_SizeBytesAccess - Bootloader_MD_BTLDR_ADDR_PTR);
 1024              		.loc 1 330 0
 1025 0000 1548     		ldr	r0, .L138
 273:.\Generated_Source\PSoC4/Bootloader.c **** {
ARM GAS  C:\Users\ZHANGM~1\AppData\Local\Temp\ccNPBJtR.s 			page 48


 1026              		.loc 1 273 0
 1027 0002 10B5     		push	{r4, lr}
 1028              	.LCFI4:
 1029              		.cfi_def_cfa_offset 8
 1030              		.cfi_offset 4, -8
 1031              		.cfi_offset 14, -4
 330:.\Generated_Source\PSoC4/Bootloader.c ****                 *Bootloader_SizeBytesAccess - Bootloader_MD_BTLDR_ADDR_PTR);
 1032              		.loc 1 330 0
 1033 0004 0368     		ldr	r3, [r0]
 192:.\Generated_Source\PSoC4/Bootloader.c ****     uint8 CYDATA sum = 0u;
 1034              		.loc 1 192 0
 1035 0006 0022     		mov	r2, #0
 330:.\Generated_Source\PSoC4/Bootloader.c ****                 *Bootloader_SizeBytesAccess - Bootloader_MD_BTLDR_ADDR_PTR);
 1036              		.loc 1 330 0
 1037 0008 1968     		ldr	r1, [r3]
 1038              	.LVL131:
 1039 000a 0B1C     		mov	r3, r1
 1040              	.LVL132:
 1041              	.L125:
 1042 000c 013B     		sub	r3, r3, #1
 1043              	.LBB41:
 1044              	.LBB42:
 194:.\Generated_Source\PSoC4/Bootloader.c ****     while (size > 0u)
 1045              		.loc 1 194 0
 1046 000e BF2B     		cmp	r3, #191
 1047 0010 03D0     		beq	.L137
 1048              	.L126:
 197:.\Generated_Source\PSoC4/Bootloader.c ****         sum += Bootloader_GET_CODE_BYTE(start + size);
 1049              		.loc 1 197 0
 1050 0012 1C78     		ldrb	r4, [r3]
 1051 0014 1219     		add	r2, r2, r4
 1052              	.LVL133:
 1053 0016 D2B2     		uxtb	r2, r2
 1054              	.LVL134:
 1055 0018 F8E7     		b	.L125
 1056              	.L137:
 1057              	.LBE42:
 1058              	.LBE41:
 333:.\Generated_Source\PSoC4/Bootloader.c ****         calcedChecksum -= *Bootloader_ChecksumAccess;
 1059              		.loc 1 333 0
 1060 001a 4068     		ldr	r0, [r0, #4]
 1061 001c 0478     		ldrb	r4, [r0]
 1062              	.LVL135:
 334:.\Generated_Source\PSoC4/Bootloader.c ****         calcedChecksum = ( uint8 )1u + ( uint8 )(~calcedChecksum);
 1063              		.loc 1 334 0
 1064 001e A21A     		sub	r2, r4, r2
 1065              	.LVL136:
 337:.\Generated_Source\PSoC4/Bootloader.c ****         if((calcedChecksum != *Bootloader_ChecksumAccess) ||
 1066              		.loc 1 337 0
 1067 0020 D3B2     		uxtb	r3, r2
 1068 0022 A342     		cmp	r3, r4
 1069 0024 01D1     		bne	.L127
 337:.\Generated_Source\PSoC4/Bootloader.c ****         if((calcedChecksum != *Bootloader_ChecksumAccess) ||
 1070              		.loc 1 337 0 is_stmt 0 discriminator 1
 1071 0026 0029     		cmp	r1, #0
 1072 0028 02D1     		bne	.L128
 1073              	.L127:
ARM GAS  C:\Users\ZHANGM~1\AppData\Local\Temp\ccNPBJtR.s 			page 49


 340:.\Generated_Source\PSoC4/Bootloader.c ****             CyHalt(0x00u);
 1074              		.loc 1 340 0 is_stmt 1
 1075 002a 0020     		mov	r0, #0
 1076 002c FFF7FEFF 		bl	CyHalt
 1077              	.LVL137:
 1078              	.L128:
 354:.\Generated_Source\PSoC4/Bootloader.c ****     tmpStatus = Bootloader_ValidateBootloadable(Bootloader_activeApp);
 1079              		.loc 1 354 0
 1080 0030 FFF7FEFF 		bl	Bootloader_ValidateBootloadable.constprop.0
 1081              	.LVL138:
 356:.\Generated_Source\PSoC4/Bootloader.c ****     if ((Bootloader_GET_RUN_TYPE == Bootloader_START_BTLDR) ||
 1082              		.loc 1 356 0
 1083 0034 094C     		ldr	r4, .L138+4
 1084 0036 2168     		ldr	r1, [r4]
 1085 0038 4029     		cmp	r1, #64
 1086 003a 01D0     		beq	.L129
 356:.\Generated_Source\PSoC4/Bootloader.c ****     if ((Bootloader_GET_RUN_TYPE == Bootloader_START_BTLDR) ||
 1087              		.loc 1 356 0 is_stmt 0 discriminator 1
 1088 003c 0028     		cmp	r0, #0
 1089 003e 03D0     		beq	.L130
 1090              	.L129:
 359:.\Generated_Source\PSoC4/Bootloader.c ****         Bootloader_SET_RUN_TYPE(0u);
 1091              		.loc 1 359 0 is_stmt 1
 1092 0040 0020     		mov	r0, #0
 1093              	.LVL139:
 1094 0042 2060     		str	r0, [r4]
 361:.\Generated_Source\PSoC4/Bootloader.c ****         Bootloader_HostLink(Bootloader_WAIT_FOR_COMMAND_FOREVER);
 1095              		.loc 1 361 0
 1096 0044 FFF7FEFF 		bl	Bootloader_HostLink
 1097              	.LVL140:
 1098              	.L130:
 369:.\Generated_Source\PSoC4/Bootloader.c ****         Bootloader_HostLink(Bootloader_WAIT_FOR_COMMAND_TIME);
 1099              		.loc 1 369 0
 1100 0048 1420     		mov	r0, #20
 1101 004a FFF7FEFF 		bl	Bootloader_HostLink
 1102              	.LVL141:
 1103              	.LBB43:
 1104              	.LBB44:
 396:.\Generated_Source\PSoC4/Bootloader.c ****     Bootloader_SET_RUN_TYPE(Bootloader_START_APP);
 1105              		.loc 1 396 0
 1106 004e 8020     		mov	r0, #128
 1107 0050 2060     		str	r0, [r4]
 1108              	.LBE44:
 1109              	.LBE43:
 376:.\Generated_Source\PSoC4/Bootloader.c **** }
 1110              		.loc 1 376 0
 1111              		@ sp needed for prologue
 1112              	.LBB46:
 1113              	.LBB45:
 398:.\Generated_Source\PSoC4/Bootloader.c ****     CySoftwareReset();
 1114              		.loc 1 398 0
 1115 0052 FFF7FEFF 		bl	CySoftwareReset
 1116              	.LVL142:
 1117              	.LBE45:
 1118              	.LBE46:
 376:.\Generated_Source\PSoC4/Bootloader.c **** }
 1119              		.loc 1 376 0
ARM GAS  C:\Users\ZHANGM~1\AppData\Local\Temp\ccNPBJtR.s 			page 50


 1120 0056 10BD     		pop	{r4, pc}
 1121              	.L139:
 1122              		.align	2
 1123              	.L138:
 1124 0058 00000000 		.word	.LANCHOR0
 1125 005c 00000000 		.word	cyBtldrRunType
 1126              		.cfi_endproc
 1127              	.LFE35:
 1128              		.size	Bootloader_Start, .-Bootloader_Start
 1129              		.section	.text.CyBtldr_CheckLaunch,"ax",%progbits
 1130              		.align	1
 1131              		.global	CyBtldr_CheckLaunch
 1132              		.code	16
 1133              		.thumb_func
 1134              		.type	CyBtldr_CheckLaunch, %function
 1135              	CyBtldr_CheckLaunch:
 1136              	.LFB37:
 420:.\Generated_Source\PSoC4/Bootloader.c **** {
 1137              		.loc 1 420 0
 1138              		.cfi_startproc
 1139 0000 08B5     		push	{r3, lr}
 1140              	.LCFI5:
 1141              		.cfi_def_cfa_offset 8
 1142              		.cfi_offset 3, -8
 1143              		.cfi_offset 14, -4
 429:.\Generated_Source\PSoC4/Bootloader.c ****     if (0u == (Bootloader_RES_CAUSE_REG & Bootloader_RES_CAUSE_RESET_SOFT))
 1144              		.loc 1 429 0
 1145 0002 0B4B     		ldr	r3, .L148
 1146 0004 1020     		mov	r0, #16
 1147 0006 1A68     		ldr	r2, [r3]
 1148 0008 0A49     		ldr	r1, .L148+4
 1149 000a 0240     		and	r2, r0
 1150 000c 00D1     		bne	.L141
 431:.\Generated_Source\PSoC4/Bootloader.c ****         cyBtldrRunType = 0u;
 1151              		.loc 1 431 0
 1152 000e 0A60     		str	r2, [r1]
 1153              	.L141:
 437:.\Generated_Source\PSoC4/Bootloader.c ****     if (Bootloader_GET_RUN_TYPE == Bootloader_START_APP)
 1154              		.loc 1 437 0
 1155 0010 0B68     		ldr	r3, [r1]
 1156 0012 802B     		cmp	r3, #128
 1157 0014 0BD1     		bne	.L140
 439:.\Generated_Source\PSoC4/Bootloader.c ****         Bootloader_SET_RUN_TYPE(0u);
 1158              		.loc 1 439 0
 1159 0016 0022     		mov	r2, #0
 447:.\Generated_Source\PSoC4/Bootloader.c ****         if(0u != Bootloader_GetMetadata(Bootloader_GET_METADATA_BTLDB_ADDR, Bootloader_activeApp))
 1160              		.loc 1 447 0
 1161 0018 0120     		mov	r0, #1
 439:.\Generated_Source\PSoC4/Bootloader.c ****         Bootloader_SET_RUN_TYPE(0u);
 1162              		.loc 1 439 0
 1163 001a 0A60     		str	r2, [r1]
 447:.\Generated_Source\PSoC4/Bootloader.c ****         if(0u != Bootloader_GetMetadata(Bootloader_GET_METADATA_BTLDB_ADDR, Bootloader_activeApp))
 1164              		.loc 1 447 0
 1165 001c FFF7FEFF 		bl	Bootloader_GetMetadata.constprop.1
 1166              	.LVL143:
 1167 0020 0028     		cmp	r0, #0
 1168 0022 04D0     		beq	.L140
ARM GAS  C:\Users\ZHANGM~1\AppData\Local\Temp\ccNPBJtR.s 			page 51


 450:.\Generated_Source\PSoC4/Bootloader.c ****             Bootloader_LaunchBootloadable(Bootloader_GetMetadata(Bootloader_GET_METADATA_BTLDB_ADDR
 1169              		.loc 1 450 0
 1170 0024 0120     		mov	r0, #1
 1171 0026 FFF7FEFF 		bl	Bootloader_GetMetadata.constprop.1
 1172              	.LVL144:
 1173 002a FFF7FEFF 		bl	Bootloader_LaunchBootloadable
 1174              	.LVL145:
 1175              	.L140:
 454:.\Generated_Source\PSoC4/Bootloader.c **** }
 1176              		.loc 1 454 0
 1177              		@ sp needed for prologue
 1178 002e 08BD     		pop	{r3, pc}
 1179              	.L149:
 1180              		.align	2
 1181              	.L148:
 1182 0030 00030B40 		.word	1074463488
 1183 0034 00000000 		.word	cyBtldrRunType
 1184              		.cfi_endproc
 1185              	.LFE37:
 1186              		.size	CyBtldr_CheckLaunch, .-CyBtldr_CheckLaunch
 1187              		.section	.text.Bootloader_SetFlashByte,"ax",%progbits
 1188              		.align	1
 1189              		.global	Bootloader_SetFlashByte
 1190              		.code	16
 1191              		.thumb_func
 1192              		.type	Bootloader_SetFlashByte, %function
 1193              	Bootloader_SetFlashByte:
 1194              	.LFB42:
1322:.\Generated_Source\PSoC4/Bootloader.c **** {
 1195              		.loc 1 1322 0
 1196              		.cfi_startproc
 1197              	.LVL146:
 1198 0000 70B5     		push	{r4, r5, r6, lr}
 1199              	.LCFI6:
 1200              		.cfi_def_cfa_offset 16
 1201              		.cfi_offset 4, -16
 1202              		.cfi_offset 5, -12
 1203              		.cfi_offset 6, -8
 1204              		.cfi_offset 14, -4
 1205 0002 021C     		mov	r2, r0
1331:.\Generated_Source\PSoC4/Bootloader.c ****     uint32 baseAddr = address - (address % CYDEV_FLS_ROW_SIZE);
 1206              		.loc 1 1331 0
 1207 0004 7F23     		mov	r3, #127
1330:.\Generated_Source\PSoC4/Bootloader.c ****     uint16 rowNum = ( uint16 )((flsAddr % CYDEV_FLS_SECTOR_SIZE) / CYDEV_FLS_ROW_SIZE);
 1208              		.loc 1 1330 0
 1209 0006 4004     		lsl	r0, r0, #17
 1210              	.LVL147:
1331:.\Generated_Source\PSoC4/Bootloader.c ****     uint32 baseAddr = address - (address % CYDEV_FLS_ROW_SIZE);
 1211              		.loc 1 1331 0
 1212 0008 151C     		mov	r5, r2
 1213 000a 9D43     		bic	r5, r3
1322:.\Generated_Source\PSoC4/Bootloader.c **** {
 1214              		.loc 1 1322 0
 1215 000c A0B0     		sub	sp, sp, #128
 1216              	.LCFI7:
 1217              		.cfi_def_cfa_offset 144
1330:.\Generated_Source\PSoC4/Bootloader.c ****     uint16 rowNum = ( uint16 )((flsAddr % CYDEV_FLS_SECTOR_SIZE) / CYDEV_FLS_ROW_SIZE);
ARM GAS  C:\Users\ZHANGM~1\AppData\Local\Temp\ccNPBJtR.s 			page 52


 1218              		.loc 1 1330 0
 1219 000e 000E     		lsr	r0, r0, #24
 1220              	.LVL148:
1331:.\Generated_Source\PSoC4/Bootloader.c ****     uint32 baseAddr = address - (address % CYDEV_FLS_ROW_SIZE);
 1221              		.loc 1 1331 0
 1222 0010 0023     		mov	r3, #0
 1223              	.LVL149:
 1224              	.L151:
1336:.\Generated_Source\PSoC4/Bootloader.c ****         rowData[idx] = Bootloader_GET_CODE_BYTE(baseAddr + idx);
 1225              		.loc 1 1336 0 discriminator 2
 1226 0012 5C5D     		ldrb	r4, [r3, r5]
 1227 0014 6E46     		mov	r6, sp
 1228 0016 9C55     		strb	r4, [r3, r6]
 1229 0018 0133     		add	r3, r3, #1
1334:.\Generated_Source\PSoC4/Bootloader.c ****     for(idx = 0u; idx < CYDEV_FLS_ROW_SIZE; idx++)
 1230              		.loc 1 1334 0 discriminator 2
 1231 001a 802B     		cmp	r3, #128
 1232 001c F9D1     		bne	.L151
1339:.\Generated_Source\PSoC4/Bootloader.c ****     rowData[address % CYDEV_FLS_ROW_SIZE] = runType;
 1233              		.loc 1 1339 0
 1234 001e 7F25     		mov	r5, #127
 1235              	.LVL150:
 1236 0020 2A40     		and	r2, r5
 1237              	.LVL151:
 1238 0022 B154     		strb	r1, [r6, r2]
1342:.\Generated_Source\PSoC4/Bootloader.c ****         (void) CySysFlashWriteRow((uint32) rowNum, rowData);
 1239              		.loc 1 1342 0
 1240 0024 6946     		mov	r1, sp
 1241              	.LVL152:
 1242 0026 FFF7FEFF 		bl	CySysFlashWriteRow
 1243              	.LVL153:
1346:.\Generated_Source\PSoC4/Bootloader.c **** }
 1244              		.loc 1 1346 0
 1245 002a 20B0     		add	sp, sp, #128
 1246              		@ sp needed for prologue
 1247              	.LVL154:
 1248 002c 70BD     		pop	{r4, r5, r6, pc}
 1249              		.cfi_endproc
 1250              	.LFE42:
 1251              		.size	Bootloader_SetFlashByte, .-Bootloader_SetFlashByte
 1252              		.global	Bootloader_SizeBytesAccess
 1253              		.global	Bootloader_SizeBytes
 1254              		.global	Bootloader_ChecksumAccess
 1255              		.global	Bootloader_Checksum
 1256              		.section	.rodata
 1257              		.align	2
 1258              		.set	.LANCHOR1,. + 0
 1259              	.LC0:
 1260 0000 93111604 		.word	68555155
 1261 0004 11       		.byte	17
 1262 0005 14       		.byte	20
 1263 0006 01       		.byte	1
 1264 0007 01       		.byte	1
 1265              		.section	.bootloader,"a",%progbits
 1266              		.align	2
 1267              		.type	Bootloader_SizeBytes, %object
 1268              		.size	Bootloader_SizeBytes, 4
ARM GAS  C:\Users\ZHANGM~1\AppData\Local\Temp\ccNPBJtR.s 			page 53


 1269              	Bootloader_SizeBytes:
 1270 0000 FFFFFFFF 		.word	-1
 1271              		.type	Bootloader_Checksum, %object
 1272              		.size	Bootloader_Checksum, 1
 1273              	Bootloader_Checksum:
 1274 0004 00       		.space	1
 1275 0005 000000   		.data
 1276              		.align	2
 1277              		.set	.LANCHOR0,. + 0
 1278              		.type	Bootloader_SizeBytesAccess, %object
 1279              		.size	Bootloader_SizeBytesAccess, 4
 1280              	Bootloader_SizeBytesAccess:
 1281 0000 00000000 		.word	Bootloader_SizeBytes
 1282              		.type	Bootloader_ChecksumAccess, %object
 1283              		.size	Bootloader_ChecksumAccess, 4
 1284              	Bootloader_ChecksumAccess:
 1285 0004 00000000 		.word	Bootloader_Checksum
 1286              		.text
 1287              	.Letext0:
 1288              		.file 2 ".\\Generated_Source\\PSoC4\\cytypes.h"
 1289              		.file 3 ".\\Generated_Source\\PSoC4\\Bootloader_PVT.h"
 1290              		.file 4 ".\\Generated_Source\\PSoC4\\Bootloader.h"
 1291              		.file 5 "./Generated_Source/PSoC4/CyFlash.h"
 1292              		.file 6 "./Generated_Source/PSoC4/CyLib.h"
 1293              		.section	.debug_info,"",%progbits
 1294              	.Ldebug_info0:
 1295 0000 510A0000 		.4byte	0xa51
 1296 0004 0200     		.2byte	0x2
 1297 0006 00000000 		.4byte	.Ldebug_abbrev0
 1298 000a 04       		.byte	0x4
 1299 000b 01       		.uleb128 0x1
 1300 000c CD020000 		.4byte	.LASF85
 1301 0010 01       		.byte	0x1
 1302 0011 BF040000 		.4byte	.LASF86
 1303 0015 01040000 		.4byte	.LASF87
 1304 0019 A0000000 		.4byte	.Ldebug_ranges0+0xa0
 1305 001d 00000000 		.4byte	0
 1306 0021 00000000 		.4byte	0
 1307 0025 00000000 		.4byte	.Ldebug_line0
 1308 0029 02       		.uleb128 0x2
 1309 002a 01       		.byte	0x1
 1310 002b 06       		.byte	0x6
 1311 002c F3000000 		.4byte	.LASF0
 1312 0030 02       		.uleb128 0x2
 1313 0031 01       		.byte	0x1
 1314 0032 08       		.byte	0x8
 1315 0033 21030000 		.4byte	.LASF1
 1316 0037 02       		.uleb128 0x2
 1317 0038 02       		.byte	0x2
 1318 0039 05       		.byte	0x5
 1319 003a 4F030000 		.4byte	.LASF2
 1320 003e 02       		.uleb128 0x2
 1321 003f 02       		.byte	0x2
 1322 0040 07       		.byte	0x7
 1323 0041 32020000 		.4byte	.LASF3
 1324 0045 02       		.uleb128 0x2
 1325 0046 04       		.byte	0x4
ARM GAS  C:\Users\ZHANGM~1\AppData\Local\Temp\ccNPBJtR.s 			page 54


 1326 0047 05       		.byte	0x5
 1327 0048 24010000 		.4byte	.LASF4
 1328 004c 02       		.uleb128 0x2
 1329 004d 04       		.byte	0x4
 1330 004e 07       		.byte	0x7
 1331 004f E4010000 		.4byte	.LASF5
 1332 0053 02       		.uleb128 0x2
 1333 0054 08       		.byte	0x8
 1334 0055 05       		.byte	0x5
 1335 0056 E5000000 		.4byte	.LASF6
 1336 005a 02       		.uleb128 0x2
 1337 005b 08       		.byte	0x8
 1338 005c 07       		.byte	0x7
 1339 005d 65000000 		.4byte	.LASF7
 1340 0061 03       		.uleb128 0x3
 1341 0062 04       		.byte	0x4
 1342 0063 05       		.byte	0x5
 1343 0064 696E7400 		.ascii	"int\000"
 1344 0068 02       		.uleb128 0x2
 1345 0069 04       		.byte	0x4
 1346 006a 07       		.byte	0x7
 1347 006b B7010000 		.4byte	.LASF8
 1348 006f 04       		.uleb128 0x4
 1349 0070 45010000 		.4byte	.LASF9
 1350 0074 02       		.byte	0x2
 1351 0075 5B       		.byte	0x5b
 1352 0076 30000000 		.4byte	0x30
 1353 007a 04       		.uleb128 0x4
 1354 007b 13000000 		.4byte	.LASF10
 1355 007f 02       		.byte	0x2
 1356 0080 5C       		.byte	0x5c
 1357 0081 3E000000 		.4byte	0x3e
 1358 0085 04       		.uleb128 0x4
 1359 0086 5B010000 		.4byte	.LASF11
 1360 008a 02       		.byte	0x2
 1361 008b 5D       		.byte	0x5d
 1362 008c 4C000000 		.4byte	0x4c
 1363 0090 02       		.uleb128 0x2
 1364 0091 04       		.byte	0x4
 1365 0092 04       		.byte	0x4
 1366 0093 B2020000 		.4byte	.LASF12
 1367 0097 02       		.uleb128 0x2
 1368 0098 08       		.byte	0x8
 1369 0099 04       		.byte	0x4
 1370 009a 4B010000 		.4byte	.LASF13
 1371 009e 02       		.uleb128 0x2
 1372 009f 01       		.byte	0x1
 1373 00a0 08       		.byte	0x8
 1374 00a1 AB030000 		.4byte	.LASF14
 1375 00a5 04       		.uleb128 0x4
 1376 00a6 90040000 		.4byte	.LASF15
 1377 00aa 02       		.byte	0x2
 1378 00ab E8       		.byte	0xe8
 1379 00ac 4C000000 		.4byte	0x4c
 1380 00b0 04       		.uleb128 0x4
 1381 00b1 16030000 		.4byte	.LASF16
 1382 00b5 02       		.byte	0x2
ARM GAS  C:\Users\ZHANGM~1\AppData\Local\Temp\ccNPBJtR.s 			page 55


 1383 00b6 F0       		.byte	0xf0
 1384 00b7 BB000000 		.4byte	0xbb
 1385 00bb 05       		.uleb128 0x5
 1386 00bc 6F000000 		.4byte	0x6f
 1387 00c0 04       		.uleb128 0x4
 1388 00c1 77020000 		.4byte	.LASF17
 1389 00c5 02       		.byte	0x2
 1390 00c6 F2       		.byte	0xf2
 1391 00c7 CB000000 		.4byte	0xcb
 1392 00cb 05       		.uleb128 0x5
 1393 00cc 85000000 		.4byte	0x85
 1394 00d0 06       		.uleb128 0x6
 1395 00d1 08       		.byte	0x8
 1396 00d2 03       		.byte	0x3
 1397 00d3 15       		.byte	0x15
 1398 00d4 03010000 		.4byte	0x103
 1399 00d8 07       		.uleb128 0x7
 1400 00d9 F0030000 		.4byte	.LASF18
 1401 00dd 03       		.byte	0x3
 1402 00de 17       		.byte	0x17
 1403 00df 85000000 		.4byte	0x85
 1404 00e3 02       		.byte	0x2
 1405 00e4 23       		.byte	0x23
 1406 00e5 00       		.uleb128 0
 1407 00e6 07       		.uleb128 0x7
 1408 00e7 CD030000 		.4byte	.LASF19
 1409 00eb 03       		.byte	0x3
 1410 00ec 18       		.byte	0x18
 1411 00ed 6F000000 		.4byte	0x6f
 1412 00f1 02       		.byte	0x2
 1413 00f2 23       		.byte	0x23
 1414 00f3 04       		.uleb128 0x4
 1415 00f4 07       		.uleb128 0x7
 1416 00f5 63040000 		.4byte	.LASF20
 1417 00f9 03       		.byte	0x3
 1418 00fa 19       		.byte	0x19
 1419 00fb 03010000 		.4byte	0x103
 1420 00ff 02       		.byte	0x2
 1421 0100 23       		.byte	0x23
 1422 0101 05       		.uleb128 0x5
 1423 0102 00       		.byte	0
 1424 0103 08       		.uleb128 0x8
 1425 0104 6F000000 		.4byte	0x6f
 1426 0108 13010000 		.4byte	0x113
 1427 010c 09       		.uleb128 0x9
 1428 010d 13010000 		.4byte	0x113
 1429 0111 02       		.byte	0x2
 1430 0112 00       		.byte	0
 1431 0113 02       		.uleb128 0x2
 1432 0114 04       		.byte	0x4
 1433 0115 07       		.byte	0x7
 1434 0116 7D020000 		.4byte	.LASF21
 1435 011a 04       		.uleb128 0x4
 1436 011b 98020000 		.4byte	.LASF22
 1437 011f 03       		.byte	0x3
 1438 0120 1B       		.byte	0x1b
 1439 0121 D0000000 		.4byte	0xd0
ARM GAS  C:\Users\ZHANGM~1\AppData\Local\Temp\ccNPBJtR.s 			page 56


 1440 0125 0A       		.uleb128 0xa
 1441 0126 04       		.byte	0x4
 1442 0127 0B       		.uleb128 0xb
 1443 0128 04       		.byte	0x4
 1444 0129 6F000000 		.4byte	0x6f
 1445 012d 0C       		.uleb128 0xc
 1446 012e 62010000 		.4byte	.LASF28
 1447 0132 01       		.byte	0x1
 1448 0133 5E05     		.2byte	0x55e
 1449 0135 01       		.byte	0x1
 1450 0136 85000000 		.4byte	0x85
 1451 013a 01       		.byte	0x1
 1452 013b 7C010000 		.4byte	0x17c
 1453 013f 0D       		.uleb128 0xd
 1454 0140 C3030000 		.4byte	.LASF23
 1455 0144 01       		.byte	0x1
 1456 0145 5E05     		.2byte	0x55e
 1457 0147 6F000000 		.4byte	0x6f
 1458 014b 0D       		.uleb128 0xd
 1459 014c 1B030000 		.4byte	.LASF24
 1460 0150 01       		.byte	0x1
 1461 0151 5E05     		.2byte	0x55e
 1462 0153 6F000000 		.4byte	0x6f
 1463 0157 0E       		.uleb128 0xe
 1464 0158 A9020000 		.4byte	.LASF25
 1465 015c 01       		.byte	0x1
 1466 015d 6005     		.2byte	0x560
 1467 015f 85000000 		.4byte	0x85
 1468 0163 0E       		.uleb128 0xe
 1469 0164 86020000 		.4byte	.LASF26
 1470 0168 01       		.byte	0x1
 1471 0169 6105     		.2byte	0x561
 1472 016b 6F000000 		.4byte	0x6f
 1473 016f 0E       		.uleb128 0xe
 1474 0170 EC040000 		.4byte	.LASF27
 1475 0174 01       		.byte	0x1
 1476 0175 6205     		.2byte	0x562
 1477 0177 85000000 		.4byte	0x85
 1478 017b 00       		.byte	0
 1479 017c 0C       		.uleb128 0xc
 1480 017d 70030000 		.4byte	.LASF29
 1481 0181 01       		.byte	0x1
 1482 0182 F501     		.2byte	0x1f5
 1483 0184 01       		.byte	0x1
 1484 0185 A5000000 		.4byte	0xa5
 1485 0189 01       		.byte	0x1
 1486 018a D9010000 		.4byte	0x1d9
 1487 018e 0D       		.uleb128 0xd
 1488 018f 1B030000 		.4byte	.LASF24
 1489 0193 01       		.byte	0x1
 1490 0194 F501     		.2byte	0x1f5
 1491 0196 6F000000 		.4byte	0x6f
 1492 019a 0F       		.uleb128 0xf
 1493 019b 69647800 		.ascii	"idx\000"
 1494 019f 01       		.byte	0x1
 1495 01a0 F801     		.2byte	0x1f8
 1496 01a2 85000000 		.4byte	0x85
ARM GAS  C:\Users\ZHANGM~1\AppData\Local\Temp\ccNPBJtR.s 			page 57


 1497 01a6 0F       		.uleb128 0xf
 1498 01a7 656E6400 		.ascii	"end\000"
 1499 01ab 01       		.byte	0x1
 1500 01ac FA01     		.2byte	0x1fa
 1501 01ae 85000000 		.4byte	0x85
 1502 01b2 0E       		.uleb128 0xe
 1503 01b3 6A030000 		.4byte	.LASF30
 1504 01b7 01       		.byte	0x1
 1505 01b8 FE01     		.2byte	0x1fe
 1506 01ba 6F000000 		.4byte	0x6f
 1507 01be 0E       		.uleb128 0xe
 1508 01bf 7C000000 		.4byte	.LASF31
 1509 01c3 01       		.byte	0x1
 1510 01c4 FF01     		.2byte	0x1ff
 1511 01c6 6F000000 		.4byte	0x6f
 1512 01ca 10       		.uleb128 0x10
 1513 01cb 0E       		.uleb128 0xe
 1514 01cc 0B000000 		.4byte	.LASF32
 1515 01d0 01       		.byte	0x1
 1516 01d1 1902     		.2byte	0x219
 1517 01d3 6F000000 		.4byte	0x6f
 1518 01d7 00       		.byte	0
 1519 01d8 00       		.byte	0
 1520 01d9 11       		.uleb128 0x11
 1521 01da 14020000 		.4byte	.LASF41
 1522 01de 01       		.byte	0x1
 1523 01df D601     		.2byte	0x1d6
 1524 01e1 01       		.byte	0x1
 1525 01e2 00000000 		.4byte	.LFB38
 1526 01e6 02000000 		.4byte	.LFE38
 1527 01ea 02       		.byte	0x2
 1528 01eb 7D       		.byte	0x7d
 1529 01ec 00       		.sleb128 0
 1530 01ed 01       		.byte	0x1
 1531 01ee 01020000 		.4byte	0x201
 1532 01f2 12       		.uleb128 0x12
 1533 01f3 C4010000 		.4byte	.LASF43
 1534 01f7 01       		.byte	0x1
 1535 01f8 D601     		.2byte	0x1d6
 1536 01fa 85000000 		.4byte	0x85
 1537 01fe 01       		.byte	0x1
 1538 01ff 50       		.byte	0x50
 1539 0200 00       		.byte	0
 1540 0201 13       		.uleb128 0x13
 1541 0202 2D010000 		.4byte	0x12d
 1542 0206 00000000 		.4byte	.LFB44
 1543 020a 90000000 		.4byte	.LFE44
 1544 020e 00000000 		.4byte	.LLST0
 1545 0212 01       		.byte	0x1
 1546 0213 51020000 		.4byte	0x251
 1547 0217 14       		.uleb128 0x14
 1548 0218 3F010000 		.4byte	0x13f
 1549 021c 20000000 		.4byte	.LLST1
 1550 0220 15       		.uleb128 0x15
 1551 0221 57010000 		.4byte	0x157
 1552 0225 41000000 		.4byte	.LLST2
 1553 0229 15       		.uleb128 0x15
ARM GAS  C:\Users\ZHANGM~1\AppData\Local\Temp\ccNPBJtR.s 			page 58


 1554 022a 63010000 		.4byte	0x163
 1555 022e 79000000 		.4byte	.LLST3
 1556 0232 15       		.uleb128 0x15
 1557 0233 6F010000 		.4byte	0x16f
 1558 0237 A5000000 		.4byte	.LLST4
 1559 023b 16       		.uleb128 0x16
 1560 023c 4B010000 		.4byte	0x14b
 1561 0240 00       		.byte	0
 1562 0241 17       		.uleb128 0x17
 1563 0242 28000000 		.4byte	.LVL5
 1564 0246 76090000 		.4byte	0x976
 1565 024a 18       		.uleb128 0x18
 1566 024b 01       		.byte	0x1
 1567 024c 50       		.byte	0x50
 1568 024d 01       		.byte	0x1
 1569 024e 30       		.byte	0x30
 1570 024f 00       		.byte	0
 1571 0250 00       		.byte	0
 1572 0251 13       		.uleb128 0x13
 1573 0252 7C010000 		.4byte	0x17c
 1574 0256 00000000 		.4byte	.LFB45
 1575 025a 58000000 		.4byte	.LFE45
 1576 025e 0B010000 		.4byte	.LLST5
 1577 0262 01       		.byte	0x1
 1578 0263 DC020000 		.4byte	0x2dc
 1579 0267 19       		.uleb128 0x19
 1580 0268 9A010000 		.4byte	0x19a
 1581 026c 01       		.byte	0x1
 1582 026d 52       		.byte	0x52
 1583 026e 15       		.uleb128 0x15
 1584 026f A6010000 		.4byte	0x1a6
 1585 0273 2B010000 		.4byte	.LLST6
 1586 0277 15       		.uleb128 0x15
 1587 0278 B2010000 		.4byte	0x1b2
 1588 027c 3E010000 		.4byte	.LLST7
 1589 0280 15       		.uleb128 0x15
 1590 0281 BE010000 		.4byte	0x1be
 1591 0285 52010000 		.4byte	.LLST8
 1592 0289 16       		.uleb128 0x16
 1593 028a 8E010000 		.4byte	0x18e
 1594 028e 00       		.byte	0
 1595 028f 1A       		.uleb128 0x1a
 1596 0290 28000000 		.4byte	.LBB3
 1597 0294 38000000 		.4byte	.LBE3
 1598 0298 A6020000 		.4byte	0x2a6
 1599 029c 15       		.uleb128 0x15
 1600 029d CB010000 		.4byte	0x1cb
 1601 02a1 99010000 		.4byte	.LLST9
 1602 02a5 00       		.byte	0
 1603 02a6 1B       		.uleb128 0x1b
 1604 02a7 08000000 		.4byte	.LVL22
 1605 02ab 01020000 		.4byte	0x201
 1606 02af B9020000 		.4byte	0x2b9
 1607 02b3 18       		.uleb128 0x18
 1608 02b4 01       		.byte	0x1
 1609 02b5 50       		.byte	0x50
 1610 02b6 01       		.byte	0x1
ARM GAS  C:\Users\ZHANGM~1\AppData\Local\Temp\ccNPBJtR.s 			page 59


 1611 02b7 32       		.byte	0x32
 1612 02b8 00       		.byte	0
 1613 02b9 1B       		.uleb128 0x1b
 1614 02ba 10000000 		.4byte	.LVL23
 1615 02be 01020000 		.4byte	0x201
 1616 02c2 CC020000 		.4byte	0x2cc
 1617 02c6 18       		.uleb128 0x18
 1618 02c7 01       		.byte	0x1
 1619 02c8 50       		.byte	0x50
 1620 02c9 01       		.byte	0x1
 1621 02ca 33       		.byte	0x33
 1622 02cb 00       		.byte	0
 1623 02cc 17       		.uleb128 0x17
 1624 02cd 1C000000 		.4byte	.LVL25
 1625 02d1 01020000 		.4byte	0x201
 1626 02d5 18       		.uleb128 0x18
 1627 02d6 01       		.byte	0x1
 1628 02d7 50       		.byte	0x50
 1629 02d8 01       		.byte	0x1
 1630 02d9 32       		.byte	0x32
 1631 02da 00       		.byte	0
 1632 02db 00       		.byte	0
 1633 02dc 1C       		.uleb128 0x1c
 1634 02dd F6010000 		.4byte	.LASF33
 1635 02e1 01       		.byte	0x1
 1636 02e2 6E       		.byte	0x6e
 1637 02e3 01       		.byte	0x1
 1638 02e4 7A000000 		.4byte	0x7a
 1639 02e8 01       		.byte	0x1
 1640 02e9 0F030000 		.4byte	0x30f
 1641 02ed 1D       		.uleb128 0x1d
 1642 02ee BC030000 		.4byte	.LASF34
 1643 02f2 01       		.byte	0x1
 1644 02f3 6E       		.byte	0x6e
 1645 02f4 0F030000 		.4byte	0x30f
 1646 02f8 1D       		.uleb128 0x1d
 1647 02f9 0E010000 		.4byte	.LASF35
 1648 02fd 01       		.byte	0x1
 1649 02fe 6E       		.byte	0x6e
 1650 02ff 7A000000 		.4byte	0x7a
 1651 0303 1E       		.uleb128 0x1e
 1652 0304 73756D00 		.ascii	"sum\000"
 1653 0308 01       		.byte	0x1
 1654 0309 9D       		.byte	0x9d
 1655 030a 7A000000 		.4byte	0x7a
 1656 030e 00       		.byte	0
 1657 030f 0B       		.uleb128 0xb
 1658 0310 04       		.byte	0x4
 1659 0311 15030000 		.4byte	0x315
 1660 0315 1F       		.uleb128 0x1f
 1661 0316 6F000000 		.4byte	0x6f
 1662 031a 1C       		.uleb128 0x1c
 1663 031b 47040000 		.4byte	.LASF36
 1664 031f 01       		.byte	0x1
 1665 0320 BD       		.byte	0xbd
 1666 0321 01       		.byte	0x1
 1667 0322 6F000000 		.4byte	0x6f
ARM GAS  C:\Users\ZHANGM~1\AppData\Local\Temp\ccNPBJtR.s 			page 60


 1668 0326 01       		.byte	0x1
 1669 0327 4D030000 		.4byte	0x34d
 1670 032b 1D       		.uleb128 0x1d
 1671 032c B9040000 		.4byte	.LASF37
 1672 0330 01       		.byte	0x1
 1673 0331 BD       		.byte	0xbd
 1674 0332 85000000 		.4byte	0x85
 1675 0336 1D       		.uleb128 0x1d
 1676 0337 0E010000 		.4byte	.LASF35
 1677 033b 01       		.byte	0x1
 1678 033c BD       		.byte	0xbd
 1679 033d 85000000 		.4byte	0x85
 1680 0341 1E       		.uleb128 0x1e
 1681 0342 73756D00 		.ascii	"sum\000"
 1682 0346 01       		.byte	0x1
 1683 0347 C0       		.byte	0xc0
 1684 0348 6F000000 		.4byte	0x6f
 1685 034c 00       		.byte	0
 1686 034d 0C       		.uleb128 0xc
 1687 034e C5000000 		.4byte	.LASF38
 1688 0352 01       		.byte	0x1
 1689 0353 0005     		.2byte	0x500
 1690 0355 01       		.byte	0x1
 1691 0356 A5000000 		.4byte	0xa5
 1692 035a 01       		.byte	0x1
 1693 035b 90030000 		.4byte	0x390
 1694 035f 0D       		.uleb128 0xd
 1695 0360 FF000000 		.4byte	.LASF39
 1696 0364 01       		.byte	0x1
 1697 0365 0005     		.2byte	0x500
 1698 0367 6F000000 		.4byte	0x6f
 1699 036b 0D       		.uleb128 0xd
 1700 036c BC030000 		.4byte	.LASF34
 1701 0370 01       		.byte	0x1
 1702 0371 0005     		.2byte	0x500
 1703 0373 27010000 		.4byte	0x127
 1704 0377 0D       		.uleb128 0xd
 1705 0378 0E010000 		.4byte	.LASF35
 1706 037c 01       		.byte	0x1
 1707 037d 0005     		.2byte	0x500
 1708 037f 7A000000 		.4byte	0x7a
 1709 0383 0E       		.uleb128 0xe
 1710 0384 35000000 		.4byte	.LASF40
 1711 0388 01       		.byte	0x1
 1712 0389 0305     		.2byte	0x503
 1713 038b 7A000000 		.4byte	0x7a
 1714 038f 00       		.byte	0
 1715 0390 20       		.uleb128 0x20
 1716 0391 79010000 		.4byte	.LASF42
 1717 0395 01       		.byte	0x1
 1718 0396 6202     		.2byte	0x262
 1719 0398 01       		.byte	0x1
 1720 0399 00000000 		.4byte	.LFB40
 1721 039d E0020000 		.4byte	.LFE40
 1722 03a1 B9010000 		.4byte	.LLST10
 1723 03a5 01       		.byte	0x1
 1724 03a6 35070000 		.4byte	0x735
ARM GAS  C:\Users\ZHANGM~1\AppData\Local\Temp\ccNPBJtR.s 			page 61


 1725 03aa 21       		.uleb128 0x21
 1726 03ab 45020000 		.4byte	.LASF44
 1727 03af 01       		.byte	0x1
 1728 03b0 6202     		.2byte	0x262
 1729 03b2 6F000000 		.4byte	0x6f
 1730 03b6 E6010000 		.4byte	.LLST11
 1731 03ba 22       		.uleb128 0x22
 1732 03bb 19010000 		.4byte	.LASF45
 1733 03bf 01       		.byte	0x1
 1734 03c0 6402     		.2byte	0x264
 1735 03c2 7A000000 		.4byte	0x7a
 1736 03c6 02       		.byte	0x2
 1737 03c7 76       		.byte	0x76
 1738 03c8 00       		.sleb128 0
 1739 03c9 23       		.uleb128 0x23
 1740 03ca 2D000000 		.4byte	.LASF46
 1741 03ce 01       		.byte	0x1
 1742 03cf 6502     		.2byte	0x265
 1743 03d1 7A000000 		.4byte	0x7a
 1744 03d5 07020000 		.4byte	.LLST12
 1745 03d9 23       		.uleb128 0x23
 1746 03da 06010000 		.4byte	.LASF47
 1747 03de 01       		.byte	0x1
 1748 03df 6602     		.2byte	0x266
 1749 03e1 6F000000 		.4byte	0x6f
 1750 03e5 AB020000 		.4byte	.LLST13
 1751 03e9 23       		.uleb128 0x23
 1752 03ea B0030000 		.4byte	.LASF48
 1753 03ee 01       		.byte	0x1
 1754 03ef 6702     		.2byte	0x267
 1755 03f1 7A000000 		.4byte	0x7a
 1756 03f5 71030000 		.4byte	.LLST14
 1757 03f9 23       		.uleb128 0x23
 1758 03fa 52010000 		.4byte	.LASF49
 1759 03fe 01       		.byte	0x1
 1760 03ff 6802     		.2byte	0x268
 1761 0401 A5000000 		.4byte	0xa5
 1762 0405 BC060000 		.4byte	.LLST15
 1763 0409 23       		.uleb128 0x23
 1764 040a 99040000 		.4byte	.LASF50
 1765 040e 01       		.byte	0x1
 1766 040f 6902     		.2byte	0x269
 1767 0411 7A000000 		.4byte	0x7a
 1768 0415 CF060000 		.4byte	.LLST16
 1769 0419 23       		.uleb128 0x23
 1770 041a AC010000 		.4byte	.LASF51
 1771 041e 01       		.byte	0x1
 1772 041f 6A02     		.2byte	0x26a
 1773 0421 7A000000 		.4byte	0x7a
 1774 0425 6E070000 		.4byte	.LLST17
 1775 0429 23       		.uleb128 0x23
 1776 042a 00000000 		.4byte	.LASF52
 1777 042e 01       		.byte	0x1
 1778 042f 6B02     		.2byte	0x26b
 1779 0431 6F000000 		.4byte	0x6f
 1780 0435 01080000 		.4byte	.LLST18
 1781 0439 23       		.uleb128 0x23
ARM GAS  C:\Users\ZHANGM~1\AppData\Local\Temp\ccNPBJtR.s 			page 62


 1782 043a A9040000 		.4byte	.LASF53
 1783 043e 01       		.byte	0x1
 1784 043f 6E02     		.2byte	0x26e
 1785 0441 6F000000 		.4byte	0x6f
 1786 0445 22080000 		.4byte	.LLST19
 1787 0449 23       		.uleb128 0x23
 1788 044a 3E000000 		.4byte	.LASF54
 1789 044e 01       		.byte	0x1
 1790 044f 7102     		.2byte	0x271
 1791 0451 6F000000 		.4byte	0x6f
 1792 0455 76080000 		.4byte	.LLST20
 1793 0459 22       		.uleb128 0x22
 1794 045a 51000000 		.4byte	.LASF55
 1795 045e 01       		.byte	0x1
 1796 045f 7302     		.2byte	0x273
 1797 0461 35070000 		.4byte	0x735
 1798 0465 03       		.byte	0x3
 1799 0466 91       		.byte	0x91
 1800 0467 907B     		.sleb128 -624
 1801 0469 22       		.uleb128 0x22
 1802 046a A1010000 		.4byte	.LASF56
 1803 046e 01       		.byte	0x1
 1804 046f 7402     		.2byte	0x274
 1805 0471 35070000 		.4byte	0x735
 1806 0475 03       		.byte	0x3
 1807 0476 91       		.byte	0x91
 1808 0477 BC7D     		.sleb128 -324
 1809 0479 24       		.uleb128 0x24
 1810 047a DC020000 		.4byte	0x2dc
 1811 047e 84000000 		.4byte	.LBB17
 1812 0482 00000000 		.4byte	.Ldebug_ranges0+0
 1813 0486 01       		.byte	0x1
 1814 0487 A902     		.2byte	0x2a9
 1815 0489 AF040000 		.4byte	0x4af
 1816 048d 14       		.uleb128 0x14
 1817 048e F8020000 		.4byte	0x2f8
 1818 0492 B8080000 		.4byte	.LLST21
 1819 0496 14       		.uleb128 0x14
 1820 0497 ED020000 		.4byte	0x2ed
 1821 049b E3080000 		.4byte	.LLST22
 1822 049f 25       		.uleb128 0x25
 1823 04a0 18000000 		.4byte	.Ldebug_ranges0+0x18
 1824 04a4 15       		.uleb128 0x15
 1825 04a5 03030000 		.4byte	0x303
 1826 04a9 8F090000 		.4byte	.LLST23
 1827 04ad 00       		.byte	0
 1828 04ae 00       		.byte	0
 1829 04af 26       		.uleb128 0x26
 1830 04b0 30000000 		.4byte	.Ldebug_ranges0+0x30
 1831 04b4 7A060000 		.4byte	0x67a
 1832 04b8 23       		.uleb128 0x23
 1833 04b9 23000000 		.4byte	.LASF57
 1834 04bd 01       		.byte	0x1
 1835 04be B702     		.2byte	0x2b7
 1836 04c0 6F000000 		.4byte	0x6f
 1837 04c4 290A0000 		.4byte	.LLST24
 1838 04c8 1A       		.uleb128 0x1a
ARM GAS  C:\Users\ZHANGM~1\AppData\Local\Temp\ccNPBJtR.s 			page 63


 1839 04c9 F2000000 		.4byte	.LBB22
 1840 04cd 08010000 		.4byte	.LBE22
 1841 04d1 20050000 		.4byte	0x520
 1842 04d5 22       		.uleb128 0x22
 1843 04d6 13010000 		.4byte	.LASF58
 1844 04da 01       		.byte	0x1
 1845 04db 9403     		.2byte	0x394
 1846 04dd 46070000 		.4byte	0x746
 1847 04e1 03       		.byte	0x3
 1848 04e2 91       		.byte	0x91
 1849 04e3 907A     		.sleb128 -752
 1850 04e5 1B       		.uleb128 0x1b
 1851 04e6 FC000000 		.4byte	.LVL61
 1852 04ea 8A090000 		.4byte	0x98a
 1853 04ee 08050000 		.4byte	0x508
 1854 04f2 18       		.uleb128 0x18
 1855 04f3 01       		.byte	0x1
 1856 04f4 52       		.byte	0x52
 1857 04f5 02       		.byte	0x2
 1858 04f6 08       		.byte	0x8
 1859 04f7 80       		.byte	0x80
 1860 04f8 18       		.uleb128 0x18
 1861 04f9 01       		.byte	0x1
 1862 04fa 51       		.byte	0x51
 1863 04fb 04       		.byte	0x4
 1864 04fc 91       		.byte	0x91
 1865 04fd 847A     		.sleb128 -764
 1866 04ff 06       		.byte	0x6
 1867 0500 18       		.uleb128 0x18
 1868 0501 01       		.byte	0x1
 1869 0502 50       		.byte	0x50
 1870 0503 03       		.byte	0x3
 1871 0504 91       		.byte	0x91
 1872 0505 907A     		.sleb128 -752
 1873 0507 00       		.byte	0
 1874 0508 17       		.uleb128 0x17
 1875 0509 04010000 		.4byte	.LVL62
 1876 050d AB090000 		.4byte	0x9ab
 1877 0511 18       		.uleb128 0x18
 1878 0512 01       		.byte	0x1
 1879 0513 51       		.byte	0x51
 1880 0514 03       		.byte	0x3
 1881 0515 91       		.byte	0x91
 1882 0516 907A     		.sleb128 -752
 1883 0518 18       		.uleb128 0x18
 1884 0519 01       		.byte	0x1
 1885 051a 50       		.byte	0x50
 1886 051b 02       		.byte	0x2
 1887 051c 08       		.byte	0x8
 1888 051d FF       		.byte	0xff
 1889 051e 00       		.byte	0
 1890 051f 00       		.byte	0
 1891 0520 1A       		.uleb128 0x1a
 1892 0521 CE010000 		.4byte	.LBB23
 1893 0525 E6010000 		.4byte	.LBE23
 1894 0529 3E050000 		.4byte	0x53e
 1895 052d 23       		.uleb128 0x23
ARM GAS  C:\Users\ZHANGM~1\AppData\Local\Temp\ccNPBJtR.s 			page 64


 1896 052e DC000000 		.4byte	.LASF59
 1897 0532 01       		.byte	0x1
 1898 0533 FF02     		.2byte	0x2ff
 1899 0535 7A000000 		.4byte	0x7a
 1900 0539 AD0A0000 		.4byte	.LLST25
 1901 053d 00       		.byte	0
 1902 053e 1A       		.uleb128 0x1a
 1903 053f 1A020000 		.4byte	.LBB24
 1904 0543 32020000 		.4byte	.LBE24
 1905 0547 5C050000 		.4byte	0x55c
 1906 054b 22       		.uleb128 0x22
 1907 054c 4D020000 		.4byte	.LASF60
 1908 0550 01       		.byte	0x1
 1909 0551 6104     		.2byte	0x461
 1910 0553 1A010000 		.4byte	0x11a
 1911 0557 03       		.byte	0x3
 1912 0558 91       		.byte	0x91
 1913 0559 907A     		.sleb128 -752
 1914 055b 00       		.byte	0
 1915 055c 1A       		.uleb128 0x1a
 1916 055d 3A020000 		.4byte	.LBB25
 1917 0561 7A020000 		.4byte	.LBE25
 1918 0565 D0050000 		.4byte	0x5d0
 1919 0569 23       		.uleb128 0x23
 1920 056a 5E000000 		.4byte	.LASF61
 1921 056e 01       		.byte	0x1
 1922 056f 8104     		.2byte	0x481
 1923 0571 7A000000 		.4byte	0x7a
 1924 0575 C00A0000 		.4byte	.LLST26
 1925 0579 23       		.uleb128 0x23
 1926 057a 47030000 		.4byte	.LASF62
 1927 057e 01       		.byte	0x1
 1928 057f 9D04     		.2byte	0x49d
 1929 0581 85000000 		.4byte	0x85
 1930 0585 F10A0000 		.4byte	.LLST27
 1931 0589 23       		.uleb128 0x23
 1932 058a 35000000 		.4byte	.LASF40
 1933 058e 01       		.byte	0x1
 1934 058f A004     		.2byte	0x4a0
 1935 0591 6F000000 		.4byte	0x6f
 1936 0595 2F0B0000 		.4byte	.LLST28
 1937 0599 27       		.uleb128 0x27
 1938 059a 1A030000 		.4byte	0x31a
 1939 059e 4C020000 		.4byte	.LBB26
 1940 05a2 58020000 		.4byte	.LBE26
 1941 05a6 01       		.byte	0x1
 1942 05a7 A004     		.2byte	0x4a0
 1943 05a9 14       		.uleb128 0x14
 1944 05aa 36030000 		.4byte	0x336
 1945 05ae 4D0B0000 		.4byte	.LLST29
 1946 05b2 14       		.uleb128 0x14
 1947 05b3 2B030000 		.4byte	0x32b
 1948 05b7 F10A0000 		.4byte	.LLST27
 1949 05bb 28       		.uleb128 0x28
 1950 05bc 4C020000 		.4byte	.LBB27
 1951 05c0 58020000 		.4byte	.LBE27
 1952 05c4 15       		.uleb128 0x15
ARM GAS  C:\Users\ZHANGM~1\AppData\Local\Temp\ccNPBJtR.s 			page 65


 1953 05c5 41030000 		.4byte	0x341
 1954 05c9 6D0B0000 		.4byte	.LLST31
 1955 05cd 00       		.byte	0
 1956 05ce 00       		.byte	0
 1957 05cf 00       		.byte	0
 1958 05d0 1B       		.uleb128 0x1b
 1959 05d1 CA000000 		.4byte	.LVL55
 1960 05d5 8A090000 		.4byte	0x98a
 1961 05d9 F3050000 		.4byte	0x5f3
 1962 05dd 18       		.uleb128 0x18
 1963 05de 01       		.byte	0x1
 1964 05df 52       		.byte	0x52
 1965 05e0 02       		.byte	0x2
 1966 05e1 08       		.byte	0x8
 1967 05e2 80       		.byte	0x80
 1968 05e3 18       		.uleb128 0x18
 1969 05e4 01       		.byte	0x1
 1970 05e5 51       		.byte	0x51
 1971 05e6 04       		.byte	0x4
 1972 05e7 91       		.byte	0x91
 1973 05e8 847A     		.sleb128 -764
 1974 05ea 06       		.byte	0x6
 1975 05eb 18       		.uleb128 0x18
 1976 05ec 01       		.byte	0x1
 1977 05ed 50       		.byte	0x50
 1978 05ee 03       		.byte	0x3
 1979 05ef 91       		.byte	0x91
 1980 05f0 BC7D     		.sleb128 -324
 1981 05f2 00       		.byte	0
 1982 05f3 1B       		.uleb128 0x1b
 1983 05f4 DC000000 		.4byte	.LVL57
 1984 05f8 C8090000 		.4byte	0x9c8
 1985 05fc 1B060000 		.4byte	0x61b
 1986 0600 18       		.uleb128 0x18
 1987 0601 01       		.byte	0x1
 1988 0602 52       		.byte	0x52
 1989 0603 02       		.byte	0x2
 1990 0604 76       		.byte	0x76
 1991 0605 7D       		.sleb128 -3
 1992 0606 18       		.uleb128 0x18
 1993 0607 01       		.byte	0x1
 1994 0608 51       		.byte	0x51
 1995 0609 03       		.byte	0x3
 1996 060a 91       		.byte	0x91
 1997 060b 977B     		.sleb128 -617
 1998 060d 18       		.uleb128 0x18
 1999 060e 01       		.byte	0x1
 2000 060f 50       		.byte	0x50
 2001 0610 09       		.byte	0x9
 2002 0611 91       		.byte	0x91
 2003 0612 00       		.sleb128 0
 2004 0613 75       		.byte	0x75
 2005 0614 00       		.sleb128 0
 2006 0615 22       		.byte	0x22
 2007 0616 0A       		.byte	0xa
 2008 0617 4401     		.2byte	0x144
 2009 0619 1C       		.byte	0x1c
ARM GAS  C:\Users\ZHANGM~1\AppData\Local\Temp\ccNPBJtR.s 			page 66


 2010 061a 00       		.byte	0
 2011 061b 1B       		.uleb128 0x1b
 2012 061c 10010000 		.4byte	.LVL64
 2013 0620 AB090000 		.4byte	0x9ab
 2014 0624 36060000 		.4byte	0x636
 2015 0628 18       		.uleb128 0x18
 2016 0629 01       		.byte	0x1
 2017 062a 51       		.byte	0x51
 2018 062b 03       		.byte	0x3
 2019 062c 91       		.byte	0x91
 2020 062d BC7D     		.sleb128 -324
 2021 062f 18       		.uleb128 0x18
 2022 0630 01       		.byte	0x1
 2023 0631 50       		.byte	0x50
 2024 0632 02       		.byte	0x2
 2025 0633 75       		.byte	0x75
 2026 0634 00       		.sleb128 0
 2027 0635 00       		.byte	0
 2028 0636 29       		.uleb128 0x29
 2029 0637 BA010000 		.4byte	.LVL85
 2030 063b 51020000 		.4byte	0x251
 2031 063f 1B       		.uleb128 0x1b
 2032 0640 10020000 		.4byte	.LVL96
 2033 0644 C8090000 		.4byte	0x9c8
 2034 0648 67060000 		.4byte	0x667
 2035 064c 18       		.uleb128 0x18
 2036 064d 01       		.byte	0x1
 2037 064e 52       		.byte	0x52
 2038 064f 02       		.byte	0x2
 2039 0650 76       		.byte	0x76
 2040 0651 00       		.sleb128 0
 2041 0652 18       		.uleb128 0x18
 2042 0653 01       		.byte	0x1
 2043 0654 51       		.byte	0x51
 2044 0655 03       		.byte	0x3
 2045 0656 91       		.byte	0x91
 2046 0657 947B     		.sleb128 -620
 2047 0659 18       		.uleb128 0x18
 2048 065a 01       		.byte	0x1
 2049 065b 50       		.byte	0x50
 2050 065c 09       		.byte	0x9
 2051 065d 91       		.byte	0x91
 2052 065e 00       		.sleb128 0
 2053 065f 75       		.byte	0x75
 2054 0660 00       		.sleb128 0
 2055 0661 22       		.byte	0x22
 2056 0662 0A       		.byte	0xa
 2057 0663 4401     		.2byte	0x144
 2058 0665 1C       		.byte	0x1c
 2059 0666 00       		.byte	0
 2060 0667 29       		.uleb128 0x29
 2061 0668 7E020000 		.4byte	.LVL117
 2062 066c 51020000 		.4byte	0x251
 2063 0670 29       		.uleb128 0x29
 2064 0671 8C020000 		.4byte	.LVL119
 2065 0675 F0090000 		.4byte	0x9f0
 2066 0679 00       		.byte	0
ARM GAS  C:\Users\ZHANGM~1\AppData\Local\Temp\ccNPBJtR.s 			page 67


 2067 067a 2A       		.uleb128 0x2a
 2068 067b 4D030000 		.4byte	0x34d
 2069 067f 1E010000 		.4byte	.LBB28
 2070 0683 7A010000 		.4byte	.LBE28
 2071 0687 01       		.byte	0x1
 2072 0688 E504     		.2byte	0x4e5
 2073 068a 0E070000 		.4byte	0x70e
 2074 068e 2B       		.uleb128 0x2b
 2075 068f 77030000 		.4byte	0x377
 2076 0693 02       		.byte	0x2
 2077 0694 76       		.byte	0x76
 2078 0695 16       		.sleb128 22
 2079 0696 14       		.uleb128 0x14
 2080 0697 6B030000 		.4byte	0x36b
 2081 069b 8C0B0000 		.4byte	.LLST32
 2082 069f 14       		.uleb128 0x14
 2083 06a0 5F030000 		.4byte	0x35f
 2084 06a4 D40B0000 		.4byte	.LLST33
 2085 06a8 28       		.uleb128 0x28
 2086 06a9 1E010000 		.4byte	.LBB29
 2087 06ad 7A010000 		.4byte	.LBE29
 2088 06b1 19       		.uleb128 0x19
 2089 06b2 83030000 		.4byte	0x383
 2090 06b6 01       		.byte	0x1
 2091 06b7 52       		.byte	0x52
 2092 06b8 24       		.uleb128 0x24
 2093 06b9 DC020000 		.4byte	0x2dc
 2094 06bd 38010000 		.4byte	.LBB30
 2095 06c1 48000000 		.4byte	.Ldebug_ranges0+0x48
 2096 06c5 01       		.byte	0x1
 2097 06c6 0C05     		.2byte	0x50c
 2098 06c8 EE060000 		.4byte	0x6ee
 2099 06cc 14       		.uleb128 0x14
 2100 06cd F8020000 		.4byte	0x2f8
 2101 06d1 E70B0000 		.4byte	.LLST34
 2102 06d5 14       		.uleb128 0x14
 2103 06d6 ED020000 		.4byte	0x2ed
 2104 06da FA0B0000 		.4byte	.LLST35
 2105 06de 25       		.uleb128 0x25
 2106 06df 68000000 		.4byte	.Ldebug_ranges0+0x68
 2107 06e3 15       		.uleb128 0x15
 2108 06e4 03030000 		.4byte	0x303
 2109 06e8 290C0000 		.4byte	.LLST36
 2110 06ec 00       		.byte	0
 2111 06ed 00       		.byte	0
 2112 06ee 17       		.uleb128 0x17
 2113 06ef 7A010000 		.4byte	.LVL78
 2114 06f3 FA090000 		.4byte	0x9fa
 2115 06f7 18       		.uleb128 0x18
 2116 06f8 01       		.byte	0x1
 2117 06f9 53       		.byte	0x53
 2118 06fa 02       		.byte	0x2
 2119 06fb 09       		.byte	0x9
 2120 06fc 96       		.byte	0x96
 2121 06fd 18       		.uleb128 0x18
 2122 06fe 01       		.byte	0x1
 2123 06ff 52       		.byte	0x52
ARM GAS  C:\Users\ZHANGM~1\AppData\Local\Temp\ccNPBJtR.s 			page 68


 2124 0700 03       		.byte	0x3
 2125 0701 91       		.byte	0x91
 2126 0702 8E7A     		.sleb128 -754
 2127 0704 18       		.uleb128 0x18
 2128 0705 01       		.byte	0x1
 2129 0706 50       		.byte	0x50
 2130 0707 03       		.byte	0x3
 2131 0708 91       		.byte	0x91
 2132 0709 907B     		.sleb128 -624
 2133 070b 00       		.byte	0
 2134 070c 00       		.byte	0
 2135 070d 00       		.byte	0
 2136 070e 29       		.uleb128 0x29
 2137 070f 0C000000 		.4byte	.LVL36
 2138 0713 270A0000 		.4byte	0xa27
 2139 0717 17       		.uleb128 0x17
 2140 0718 30000000 		.4byte	.LVL38
 2141 071c 310A0000 		.4byte	0xa31
 2142 0720 18       		.uleb128 0x18
 2143 0721 01       		.byte	0x1
 2144 0722 52       		.byte	0x52
 2145 0723 02       		.byte	0x2
 2146 0724 76       		.byte	0x76
 2147 0725 00       		.sleb128 0
 2148 0726 18       		.uleb128 0x18
 2149 0727 01       		.byte	0x1
 2150 0728 51       		.byte	0x51
 2151 0729 03       		.byte	0x3
 2152 072a 0A       		.byte	0xa
 2153 072b 2C01     		.2byte	0x12c
 2154 072d 18       		.uleb128 0x18
 2155 072e 01       		.byte	0x1
 2156 072f 50       		.byte	0x50
 2157 0730 02       		.byte	0x2
 2158 0731 77       		.byte	0x77
 2159 0732 00       		.sleb128 0
 2160 0733 00       		.byte	0
 2161 0734 00       		.byte	0
 2162 0735 08       		.uleb128 0x8
 2163 0736 6F000000 		.4byte	0x6f
 2164 073a 46070000 		.4byte	0x746
 2165 073e 2C       		.uleb128 0x2c
 2166 073f 13010000 		.4byte	0x113
 2167 0743 2B01     		.2byte	0x12b
 2168 0745 00       		.byte	0
 2169 0746 08       		.uleb128 0x8
 2170 0747 6F000000 		.4byte	0x6f
 2171 074b 56070000 		.4byte	0x756
 2172 074f 09       		.uleb128 0x9
 2173 0750 13010000 		.4byte	0x113
 2174 0754 7F       		.byte	0x7f
 2175 0755 00       		.byte	0
 2176 0756 2D       		.uleb128 0x2d
 2177 0757 5A020000 		.4byte	.LASF88
 2178 075b 01       		.byte	0x1
 2179 075c 8901     		.2byte	0x189
 2180 075e 01       		.byte	0x1
ARM GAS  C:\Users\ZHANGM~1\AppData\Local\Temp\ccNPBJtR.s 			page 69


 2181 075f 01       		.byte	0x1
 2182 0760 2E       		.uleb128 0x2e
 2183 0761 01       		.byte	0x1
 2184 0762 A4000000 		.4byte	.LASF64
 2185 0766 01       		.byte	0x1
 2186 0767 1001     		.2byte	0x110
 2187 0769 01       		.byte	0x1
 2188 076a 00000000 		.4byte	.LFB35
 2189 076e 60000000 		.4byte	.LFE35
 2190 0772 4A0C0000 		.4byte	.LLST37
 2191 0776 01       		.byte	0x1
 2192 0777 2F080000 		.4byte	0x82f
 2193 077b 23       		.uleb128 0x23
 2194 077c 7C000000 		.4byte	.LASF31
 2195 0780 01       		.byte	0x1
 2196 0781 1301     		.2byte	0x113
 2197 0783 6F000000 		.4byte	0x6f
 2198 0787 6A0C0000 		.4byte	.LLST38
 2199 078b 23       		.uleb128 0x23
 2200 078c 8B000000 		.4byte	.LASF63
 2201 0790 01       		.byte	0x1
 2202 0791 1A01     		.2byte	0x11a
 2203 0793 A5000000 		.4byte	0xa5
 2204 0797 830C0000 		.4byte	.LLST39
 2205 079b 2A       		.uleb128 0x2a
 2206 079c 1A030000 		.4byte	0x31a
 2207 07a0 0E000000 		.4byte	.LBB41
 2208 07a4 1A000000 		.4byte	.LBE41
 2209 07a8 01       		.byte	0x1
 2210 07a9 4901     		.2byte	0x149
 2211 07ab D2070000 		.4byte	0x7d2
 2212 07af 14       		.uleb128 0x14
 2213 07b0 36030000 		.4byte	0x336
 2214 07b4 960C0000 		.4byte	.LLST40
 2215 07b8 16       		.uleb128 0x16
 2216 07b9 2B030000 		.4byte	0x32b
 2217 07bd C0       		.byte	0xc0
 2218 07be 28       		.uleb128 0x28
 2219 07bf 0E000000 		.4byte	.LBB42
 2220 07c3 1A000000 		.4byte	.LBE42
 2221 07c7 15       		.uleb128 0x15
 2222 07c8 41030000 		.4byte	0x341
 2223 07cc AC0C0000 		.4byte	.LLST41
 2224 07d0 00       		.byte	0
 2225 07d1 00       		.byte	0
 2226 07d2 24       		.uleb128 0x24
 2227 07d3 56070000 		.4byte	0x756
 2228 07d7 4E000000 		.4byte	.LBB43
 2229 07db 88000000 		.4byte	.Ldebug_ranges0+0x88
 2230 07df 01       		.byte	0x1
 2231 07e0 7701     		.2byte	0x177
 2232 07e2 F0070000 		.4byte	0x7f0
 2233 07e6 29       		.uleb128 0x29
 2234 07e7 56000000 		.4byte	.LVL142
 2235 07eb F0090000 		.4byte	0x9f0
 2236 07ef 00       		.byte	0
 2237 07f0 1B       		.uleb128 0x1b
ARM GAS  C:\Users\ZHANGM~1\AppData\Local\Temp\ccNPBJtR.s 			page 70


 2238 07f1 30000000 		.4byte	.LVL137
 2239 07f5 76090000 		.4byte	0x976
 2240 07f9 03080000 		.4byte	0x803
 2241 07fd 18       		.uleb128 0x18
 2242 07fe 01       		.byte	0x1
 2243 07ff 50       		.byte	0x50
 2244 0800 01       		.byte	0x1
 2245 0801 30       		.byte	0x30
 2246 0802 00       		.byte	0
 2247 0803 29       		.uleb128 0x29
 2248 0804 34000000 		.4byte	.LVL138
 2249 0808 51020000 		.4byte	0x251
 2250 080c 1B       		.uleb128 0x1b
 2251 080d 48000000 		.4byte	.LVL140
 2252 0811 90030000 		.4byte	0x390
 2253 0815 1F080000 		.4byte	0x81f
 2254 0819 18       		.uleb128 0x18
 2255 081a 01       		.byte	0x1
 2256 081b 50       		.byte	0x50
 2257 081c 01       		.byte	0x1
 2258 081d 30       		.byte	0x30
 2259 081e 00       		.byte	0
 2260 081f 17       		.uleb128 0x17
 2261 0820 4E000000 		.4byte	.LVL141
 2262 0824 90030000 		.4byte	0x390
 2263 0828 18       		.uleb128 0x18
 2264 0829 01       		.byte	0x1
 2265 082a 50       		.byte	0x50
 2266 082b 01       		.byte	0x1
 2267 082c 44       		.byte	0x44
 2268 082d 00       		.byte	0
 2269 082e 00       		.byte	0
 2270 082f 2E       		.uleb128 0x2e
 2271 0830 01       		.byte	0x1
 2272 0831 8D010000 		.4byte	.LASF65
 2273 0835 01       		.byte	0x1
 2274 0836 A301     		.2byte	0x1a3
 2275 0838 01       		.byte	0x1
 2276 0839 00000000 		.4byte	.LFB37
 2277 083d 38000000 		.4byte	.LFE37
 2278 0841 D60C0000 		.4byte	.LLST42
 2279 0845 01       		.byte	0x1
 2280 0846 7A080000 		.4byte	0x87a
 2281 084a 1B       		.uleb128 0x1b
 2282 084b 20000000 		.4byte	.LVL143
 2283 084f 01020000 		.4byte	0x201
 2284 0853 5D080000 		.4byte	0x85d
 2285 0857 18       		.uleb128 0x18
 2286 0858 01       		.byte	0x1
 2287 0859 50       		.byte	0x50
 2288 085a 01       		.byte	0x1
 2289 085b 31       		.byte	0x31
 2290 085c 00       		.byte	0
 2291 085d 1B       		.uleb128 0x1b
 2292 085e 2A000000 		.4byte	.LVL144
 2293 0862 01020000 		.4byte	0x201
 2294 0866 70080000 		.4byte	0x870
ARM GAS  C:\Users\ZHANGM~1\AppData\Local\Temp\ccNPBJtR.s 			page 71


 2295 086a 18       		.uleb128 0x18
 2296 086b 01       		.byte	0x1
 2297 086c 50       		.byte	0x50
 2298 086d 01       		.byte	0x1
 2299 086e 31       		.byte	0x31
 2300 086f 00       		.byte	0
 2301 0870 29       		.uleb128 0x29
 2302 0871 2E000000 		.4byte	.LVL145
 2303 0875 D9010000 		.4byte	0x1d9
 2304 0879 00       		.byte	0
 2305 087a 2E       		.uleb128 0x2e
 2306 087b 01       		.byte	0x1
 2307 087c CC010000 		.4byte	.LASF66
 2308 0880 01       		.byte	0x1
 2309 0881 2905     		.2byte	0x529
 2310 0883 01       		.byte	0x1
 2311 0884 00000000 		.4byte	.LFB42
 2312 0888 2E000000 		.4byte	.LFE42
 2313 088c F60C0000 		.4byte	.LLST43
 2314 0890 01       		.byte	0x1
 2315 0891 16090000 		.4byte	0x916
 2316 0895 21       		.uleb128 0x21
 2317 0896 90020000 		.4byte	.LASF67
 2318 089a 01       		.byte	0x1
 2319 089b 2905     		.2byte	0x529
 2320 089d 85000000 		.4byte	0x85
 2321 08a1 230D0000 		.4byte	.LLST44
 2322 08a5 21       		.uleb128 0x21
 2323 08a6 3F030000 		.4byte	.LASF68
 2324 08aa 01       		.byte	0x1
 2325 08ab 2905     		.2byte	0x529
 2326 08ad 6F000000 		.4byte	0x6f
 2327 08b1 4F0D0000 		.4byte	.LLST45
 2328 08b5 23       		.uleb128 0x23
 2329 08b6 88040000 		.4byte	.LASF69
 2330 08ba 01       		.byte	0x1
 2331 08bb 2B05     		.2byte	0x52b
 2332 08bd 85000000 		.4byte	0x85
 2333 08c1 230D0000 		.4byte	.LLST44
 2334 08c5 22       		.uleb128 0x22
 2335 08c6 A1040000 		.4byte	.LASF70
 2336 08ca 01       		.byte	0x1
 2337 08cb 2C05     		.2byte	0x52c
 2338 08cd 46070000 		.4byte	0x746
 2339 08d1 03       		.byte	0x3
 2340 08d2 91       		.byte	0x91
 2341 08d3 F07E     		.sleb128 -144
 2342 08d5 23       		.uleb128 0x23
 2343 08d6 5E000000 		.4byte	.LASF61
 2344 08da 01       		.byte	0x1
 2345 08db 3205     		.2byte	0x532
 2346 08dd 7A000000 		.4byte	0x7a
 2347 08e1 7F0D0000 		.4byte	.LLST47
 2348 08e5 23       		.uleb128 0x23
 2349 08e6 1A000000 		.4byte	.LASF71
 2350 08ea 01       		.byte	0x1
 2351 08eb 3305     		.2byte	0x533
ARM GAS  C:\Users\ZHANGM~1\AppData\Local\Temp\ccNPBJtR.s 			page 72


 2352 08ed 85000000 		.4byte	0x85
 2353 08f1 A40D0000 		.4byte	.LLST48
 2354 08f5 2F       		.uleb128 0x2f
 2355 08f6 69647800 		.ascii	"idx\000"
 2356 08fa 01       		.byte	0x1
 2357 08fb 3405     		.2byte	0x534
 2358 08fd 7A000000 		.4byte	0x7a
 2359 0901 EB0D0000 		.4byte	.LLST49
 2360 0905 17       		.uleb128 0x17
 2361 0906 2A000000 		.4byte	.LVL153
 2362 090a AB090000 		.4byte	0x9ab
 2363 090e 18       		.uleb128 0x18
 2364 090f 01       		.byte	0x1
 2365 0910 51       		.byte	0x51
 2366 0911 02       		.byte	0x2
 2367 0912 76       		.byte	0x76
 2368 0913 00       		.sleb128 0
 2369 0914 00       		.byte	0
 2370 0915 00       		.byte	0
 2371 0916 30       		.uleb128 0x30
 2372 0917 F3040000 		.4byte	.LASF72
 2373 091b 01       		.byte	0x1
 2374 091c 26       		.byte	0x26
 2375 091d 15030000 		.4byte	0x315
 2376 0921 01       		.byte	0x1
 2377 0922 05       		.byte	0x5
 2378 0923 03       		.byte	0x3
 2379 0924 00000000 		.4byte	Bootloader_Checksum
 2380 0928 30       		.uleb128 0x30
 2381 0929 D6030000 		.4byte	.LASF73
 2382 092d 01       		.byte	0x1
 2383 092e 27       		.byte	0x27
 2384 092f 0F030000 		.4byte	0x30f
 2385 0933 01       		.byte	0x1
 2386 0934 05       		.byte	0x5
 2387 0935 03       		.byte	0x3
 2388 0936 00000000 		.4byte	Bootloader_ChecksumAccess
 2389 093a 30       		.uleb128 0x30
 2390 093b B8020000 		.4byte	.LASF74
 2391 093f 01       		.byte	0x1
 2392 0940 2F       		.byte	0x2f
 2393 0941 4C090000 		.4byte	0x94c
 2394 0945 01       		.byte	0x1
 2395 0946 05       		.byte	0x5
 2396 0947 03       		.byte	0x3
 2397 0948 00000000 		.4byte	Bootloader_SizeBytes
 2398 094c 1F       		.uleb128 0x1f
 2399 094d 85000000 		.4byte	0x85
 2400 0951 30       		.uleb128 0x30
 2401 0952 90030000 		.4byte	.LASF75
 2402 0956 01       		.byte	0x1
 2403 0957 30       		.byte	0x30
 2404 0958 63090000 		.4byte	0x963
 2405 095c 01       		.byte	0x1
 2406 095d 05       		.byte	0x5
 2407 095e 03       		.byte	0x3
 2408 095f 00000000 		.4byte	Bootloader_SizeBytesAccess
ARM GAS  C:\Users\ZHANGM~1\AppData\Local\Temp\ccNPBJtR.s 			page 73


 2409 0963 0B       		.uleb128 0xb
 2410 0964 04       		.byte	0x4
 2411 0965 4C090000 		.4byte	0x94c
 2412 0969 31       		.uleb128 0x31
 2413 096a 95000000 		.4byte	.LASF76
 2414 096e 04       		.byte	0x4
 2415 096f 60       		.byte	0x60
 2416 0970 CB000000 		.4byte	0xcb
 2417 0974 01       		.byte	0x1
 2418 0975 01       		.byte	0x1
 2419 0976 32       		.uleb128 0x32
 2420 0977 01       		.byte	0x1
 2421 0978 E5040000 		.4byte	.LASF77
 2422 097c 06       		.byte	0x6
 2423 097d 75       		.byte	0x75
 2424 097e 01       		.byte	0x1
 2425 097f 01       		.byte	0x1
 2426 0980 8A090000 		.4byte	0x98a
 2427 0984 33       		.uleb128 0x33
 2428 0985 6F000000 		.4byte	0x6f
 2429 0989 00       		.byte	0
 2430 098a 34       		.uleb128 0x34
 2431 098b 01       		.byte	0x1
 2432 098c FA030000 		.4byte	.LASF78
 2433 0990 01       		.byte	0x1
 2434 0991 25010000 		.4byte	0x125
 2435 0995 01       		.byte	0x1
 2436 0996 01       		.byte	0x1
 2437 0997 AB090000 		.4byte	0x9ab
 2438 099b 33       		.uleb128 0x33
 2439 099c 25010000 		.4byte	0x125
 2440 09a0 33       		.uleb128 0x33
 2441 09a1 61000000 		.4byte	0x61
 2442 09a5 33       		.uleb128 0x33
 2443 09a6 13010000 		.4byte	0x113
 2444 09aa 00       		.byte	0
 2445 09ab 35       		.uleb128 0x35
 2446 09ac 01       		.byte	0x1
 2447 09ad 75040000 		.4byte	.LASF80
 2448 09b1 05       		.byte	0x5
 2449 09b2 1C       		.byte	0x1c
 2450 09b3 01       		.byte	0x1
 2451 09b4 A5000000 		.4byte	0xa5
 2452 09b8 01       		.byte	0x1
 2453 09b9 C8090000 		.4byte	0x9c8
 2454 09bd 33       		.uleb128 0x33
 2455 09be 85000000 		.4byte	0x85
 2456 09c2 33       		.uleb128 0x33
 2457 09c3 0F030000 		.4byte	0x30f
 2458 09c7 00       		.byte	0
 2459 09c8 34       		.uleb128 0x34
 2460 09c9 01       		.byte	0x1
 2461 09ca 3E010000 		.4byte	.LASF79
 2462 09ce 01       		.byte	0x1
 2463 09cf 25010000 		.4byte	0x125
 2464 09d3 01       		.byte	0x1
 2465 09d4 01       		.byte	0x1
ARM GAS  C:\Users\ZHANGM~1\AppData\Local\Temp\ccNPBJtR.s 			page 74


 2466 09d5 E9090000 		.4byte	0x9e9
 2467 09d9 33       		.uleb128 0x33
 2468 09da 25010000 		.4byte	0x125
 2469 09de 33       		.uleb128 0x33
 2470 09df E9090000 		.4byte	0x9e9
 2471 09e3 33       		.uleb128 0x33
 2472 09e4 13010000 		.4byte	0x113
 2473 09e8 00       		.byte	0
 2474 09e9 0B       		.uleb128 0xb
 2475 09ea 04       		.byte	0x4
 2476 09eb EF090000 		.4byte	0x9ef
 2477 09ef 36       		.uleb128 0x36
 2478 09f0 37       		.uleb128 0x37
 2479 09f1 01       		.byte	0x1
 2480 09f2 B5000000 		.4byte	.LASF82
 2481 09f6 06       		.byte	0x6
 2482 09f7 72       		.byte	0x72
 2483 09f8 01       		.byte	0x1
 2484 09f9 01       		.byte	0x1
 2485 09fa 35       		.uleb128 0x35
 2486 09fb 01       		.byte	0x1
 2487 09fc 2D010000 		.4byte	.LASF81
 2488 0a00 04       		.byte	0x4
 2489 0a01 A0       		.byte	0xa0
 2490 0a02 01       		.byte	0x1
 2491 0a03 A5000000 		.4byte	0xa5
 2492 0a07 01       		.byte	0x1
 2493 0a08 210A0000 		.4byte	0xa21
 2494 0a0c 33       		.uleb128 0x33
 2495 0a0d 27010000 		.4byte	0x127
 2496 0a11 33       		.uleb128 0x33
 2497 0a12 7A000000 		.4byte	0x7a
 2498 0a16 33       		.uleb128 0x33
 2499 0a17 210A0000 		.4byte	0xa21
 2500 0a1b 33       		.uleb128 0x33
 2501 0a1c 6F000000 		.4byte	0x6f
 2502 0a20 00       		.byte	0
 2503 0a21 0B       		.uleb128 0xb
 2504 0a22 04       		.byte	0x4
 2505 0a23 7A000000 		.4byte	0x7a
 2506 0a27 37       		.uleb128 0x37
 2507 0a28 01       		.byte	0x1
 2508 0a29 59030000 		.4byte	.LASF83
 2509 0a2d 04       		.byte	0x4
 2510 0a2e 9D       		.byte	0x9d
 2511 0a2f 01       		.byte	0x1
 2512 0a30 01       		.byte	0x1
 2513 0a31 38       		.uleb128 0x38
 2514 0a32 01       		.byte	0x1
 2515 0a33 2F030000 		.4byte	.LASF84
 2516 0a37 04       		.byte	0x4
 2517 0a38 A1       		.byte	0xa1
 2518 0a39 01       		.byte	0x1
 2519 0a3a A5000000 		.4byte	0xa5
 2520 0a3e 01       		.byte	0x1
 2521 0a3f 33       		.uleb128 0x33
 2522 0a40 27010000 		.4byte	0x127
ARM GAS  C:\Users\ZHANGM~1\AppData\Local\Temp\ccNPBJtR.s 			page 75


 2523 0a44 33       		.uleb128 0x33
 2524 0a45 7A000000 		.4byte	0x7a
 2525 0a49 33       		.uleb128 0x33
 2526 0a4a 210A0000 		.4byte	0xa21
 2527 0a4e 33       		.uleb128 0x33
 2528 0a4f 6F000000 		.4byte	0x6f
 2529 0a53 00       		.byte	0
 2530 0a54 00       		.byte	0
 2531              		.section	.debug_abbrev,"",%progbits
 2532              	.Ldebug_abbrev0:
 2533 0000 01       		.uleb128 0x1
 2534 0001 11       		.uleb128 0x11
 2535 0002 01       		.byte	0x1
 2536 0003 25       		.uleb128 0x25
 2537 0004 0E       		.uleb128 0xe
 2538 0005 13       		.uleb128 0x13
 2539 0006 0B       		.uleb128 0xb
 2540 0007 03       		.uleb128 0x3
 2541 0008 0E       		.uleb128 0xe
 2542 0009 1B       		.uleb128 0x1b
 2543 000a 0E       		.uleb128 0xe
 2544 000b 55       		.uleb128 0x55
 2545 000c 06       		.uleb128 0x6
 2546 000d 11       		.uleb128 0x11
 2547 000e 01       		.uleb128 0x1
 2548 000f 52       		.uleb128 0x52
 2549 0010 01       		.uleb128 0x1
 2550 0011 10       		.uleb128 0x10
 2551 0012 06       		.uleb128 0x6
 2552 0013 00       		.byte	0
 2553 0014 00       		.byte	0
 2554 0015 02       		.uleb128 0x2
 2555 0016 24       		.uleb128 0x24
 2556 0017 00       		.byte	0
 2557 0018 0B       		.uleb128 0xb
 2558 0019 0B       		.uleb128 0xb
 2559 001a 3E       		.uleb128 0x3e
 2560 001b 0B       		.uleb128 0xb
 2561 001c 03       		.uleb128 0x3
 2562 001d 0E       		.uleb128 0xe
 2563 001e 00       		.byte	0
 2564 001f 00       		.byte	0
 2565 0020 03       		.uleb128 0x3
 2566 0021 24       		.uleb128 0x24
 2567 0022 00       		.byte	0
 2568 0023 0B       		.uleb128 0xb
 2569 0024 0B       		.uleb128 0xb
 2570 0025 3E       		.uleb128 0x3e
 2571 0026 0B       		.uleb128 0xb
 2572 0027 03       		.uleb128 0x3
 2573 0028 08       		.uleb128 0x8
 2574 0029 00       		.byte	0
 2575 002a 00       		.byte	0
 2576 002b 04       		.uleb128 0x4
 2577 002c 16       		.uleb128 0x16
 2578 002d 00       		.byte	0
 2579 002e 03       		.uleb128 0x3
ARM GAS  C:\Users\ZHANGM~1\AppData\Local\Temp\ccNPBJtR.s 			page 76


 2580 002f 0E       		.uleb128 0xe
 2581 0030 3A       		.uleb128 0x3a
 2582 0031 0B       		.uleb128 0xb
 2583 0032 3B       		.uleb128 0x3b
 2584 0033 0B       		.uleb128 0xb
 2585 0034 49       		.uleb128 0x49
 2586 0035 13       		.uleb128 0x13
 2587 0036 00       		.byte	0
 2588 0037 00       		.byte	0
 2589 0038 05       		.uleb128 0x5
 2590 0039 35       		.uleb128 0x35
 2591 003a 00       		.byte	0
 2592 003b 49       		.uleb128 0x49
 2593 003c 13       		.uleb128 0x13
 2594 003d 00       		.byte	0
 2595 003e 00       		.byte	0
 2596 003f 06       		.uleb128 0x6
 2597 0040 13       		.uleb128 0x13
 2598 0041 01       		.byte	0x1
 2599 0042 0B       		.uleb128 0xb
 2600 0043 0B       		.uleb128 0xb
 2601 0044 3A       		.uleb128 0x3a
 2602 0045 0B       		.uleb128 0xb
 2603 0046 3B       		.uleb128 0x3b
 2604 0047 0B       		.uleb128 0xb
 2605 0048 01       		.uleb128 0x1
 2606 0049 13       		.uleb128 0x13
 2607 004a 00       		.byte	0
 2608 004b 00       		.byte	0
 2609 004c 07       		.uleb128 0x7
 2610 004d 0D       		.uleb128 0xd
 2611 004e 00       		.byte	0
 2612 004f 03       		.uleb128 0x3
 2613 0050 0E       		.uleb128 0xe
 2614 0051 3A       		.uleb128 0x3a
 2615 0052 0B       		.uleb128 0xb
 2616 0053 3B       		.uleb128 0x3b
 2617 0054 0B       		.uleb128 0xb
 2618 0055 49       		.uleb128 0x49
 2619 0056 13       		.uleb128 0x13
 2620 0057 38       		.uleb128 0x38
 2621 0058 0A       		.uleb128 0xa
 2622 0059 00       		.byte	0
 2623 005a 00       		.byte	0
 2624 005b 08       		.uleb128 0x8
 2625 005c 01       		.uleb128 0x1
 2626 005d 01       		.byte	0x1
 2627 005e 49       		.uleb128 0x49
 2628 005f 13       		.uleb128 0x13
 2629 0060 01       		.uleb128 0x1
 2630 0061 13       		.uleb128 0x13
 2631 0062 00       		.byte	0
 2632 0063 00       		.byte	0
 2633 0064 09       		.uleb128 0x9
 2634 0065 21       		.uleb128 0x21
 2635 0066 00       		.byte	0
 2636 0067 49       		.uleb128 0x49
ARM GAS  C:\Users\ZHANGM~1\AppData\Local\Temp\ccNPBJtR.s 			page 77


 2637 0068 13       		.uleb128 0x13
 2638 0069 2F       		.uleb128 0x2f
 2639 006a 0B       		.uleb128 0xb
 2640 006b 00       		.byte	0
 2641 006c 00       		.byte	0
 2642 006d 0A       		.uleb128 0xa
 2643 006e 0F       		.uleb128 0xf
 2644 006f 00       		.byte	0
 2645 0070 0B       		.uleb128 0xb
 2646 0071 0B       		.uleb128 0xb
 2647 0072 00       		.byte	0
 2648 0073 00       		.byte	0
 2649 0074 0B       		.uleb128 0xb
 2650 0075 0F       		.uleb128 0xf
 2651 0076 00       		.byte	0
 2652 0077 0B       		.uleb128 0xb
 2653 0078 0B       		.uleb128 0xb
 2654 0079 49       		.uleb128 0x49
 2655 007a 13       		.uleb128 0x13
 2656 007b 00       		.byte	0
 2657 007c 00       		.byte	0
 2658 007d 0C       		.uleb128 0xc
 2659 007e 2E       		.uleb128 0x2e
 2660 007f 01       		.byte	0x1
 2661 0080 03       		.uleb128 0x3
 2662 0081 0E       		.uleb128 0xe
 2663 0082 3A       		.uleb128 0x3a
 2664 0083 0B       		.uleb128 0xb
 2665 0084 3B       		.uleb128 0x3b
 2666 0085 05       		.uleb128 0x5
 2667 0086 27       		.uleb128 0x27
 2668 0087 0C       		.uleb128 0xc
 2669 0088 49       		.uleb128 0x49
 2670 0089 13       		.uleb128 0x13
 2671 008a 20       		.uleb128 0x20
 2672 008b 0B       		.uleb128 0xb
 2673 008c 01       		.uleb128 0x1
 2674 008d 13       		.uleb128 0x13
 2675 008e 00       		.byte	0
 2676 008f 00       		.byte	0
 2677 0090 0D       		.uleb128 0xd
 2678 0091 05       		.uleb128 0x5
 2679 0092 00       		.byte	0
 2680 0093 03       		.uleb128 0x3
 2681 0094 0E       		.uleb128 0xe
 2682 0095 3A       		.uleb128 0x3a
 2683 0096 0B       		.uleb128 0xb
 2684 0097 3B       		.uleb128 0x3b
 2685 0098 05       		.uleb128 0x5
 2686 0099 49       		.uleb128 0x49
 2687 009a 13       		.uleb128 0x13
 2688 009b 00       		.byte	0
 2689 009c 00       		.byte	0
 2690 009d 0E       		.uleb128 0xe
 2691 009e 34       		.uleb128 0x34
 2692 009f 00       		.byte	0
 2693 00a0 03       		.uleb128 0x3
ARM GAS  C:\Users\ZHANGM~1\AppData\Local\Temp\ccNPBJtR.s 			page 78


 2694 00a1 0E       		.uleb128 0xe
 2695 00a2 3A       		.uleb128 0x3a
 2696 00a3 0B       		.uleb128 0xb
 2697 00a4 3B       		.uleb128 0x3b
 2698 00a5 05       		.uleb128 0x5
 2699 00a6 49       		.uleb128 0x49
 2700 00a7 13       		.uleb128 0x13
 2701 00a8 00       		.byte	0
 2702 00a9 00       		.byte	0
 2703 00aa 0F       		.uleb128 0xf
 2704 00ab 34       		.uleb128 0x34
 2705 00ac 00       		.byte	0
 2706 00ad 03       		.uleb128 0x3
 2707 00ae 08       		.uleb128 0x8
 2708 00af 3A       		.uleb128 0x3a
 2709 00b0 0B       		.uleb128 0xb
 2710 00b1 3B       		.uleb128 0x3b
 2711 00b2 05       		.uleb128 0x5
 2712 00b3 49       		.uleb128 0x49
 2713 00b4 13       		.uleb128 0x13
 2714 00b5 00       		.byte	0
 2715 00b6 00       		.byte	0
 2716 00b7 10       		.uleb128 0x10
 2717 00b8 0B       		.uleb128 0xb
 2718 00b9 01       		.byte	0x1
 2719 00ba 00       		.byte	0
 2720 00bb 00       		.byte	0
 2721 00bc 11       		.uleb128 0x11
 2722 00bd 2E       		.uleb128 0x2e
 2723 00be 01       		.byte	0x1
 2724 00bf 03       		.uleb128 0x3
 2725 00c0 0E       		.uleb128 0xe
 2726 00c1 3A       		.uleb128 0x3a
 2727 00c2 0B       		.uleb128 0xb
 2728 00c3 3B       		.uleb128 0x3b
 2729 00c4 05       		.uleb128 0x5
 2730 00c5 27       		.uleb128 0x27
 2731 00c6 0C       		.uleb128 0xc
 2732 00c7 11       		.uleb128 0x11
 2733 00c8 01       		.uleb128 0x1
 2734 00c9 12       		.uleb128 0x12
 2735 00ca 01       		.uleb128 0x1
 2736 00cb 40       		.uleb128 0x40
 2737 00cc 0A       		.uleb128 0xa
 2738 00cd 9742     		.uleb128 0x2117
 2739 00cf 0C       		.uleb128 0xc
 2740 00d0 01       		.uleb128 0x1
 2741 00d1 13       		.uleb128 0x13
 2742 00d2 00       		.byte	0
 2743 00d3 00       		.byte	0
 2744 00d4 12       		.uleb128 0x12
 2745 00d5 05       		.uleb128 0x5
 2746 00d6 00       		.byte	0
 2747 00d7 03       		.uleb128 0x3
 2748 00d8 0E       		.uleb128 0xe
 2749 00d9 3A       		.uleb128 0x3a
 2750 00da 0B       		.uleb128 0xb
ARM GAS  C:\Users\ZHANGM~1\AppData\Local\Temp\ccNPBJtR.s 			page 79


 2751 00db 3B       		.uleb128 0x3b
 2752 00dc 05       		.uleb128 0x5
 2753 00dd 49       		.uleb128 0x49
 2754 00de 13       		.uleb128 0x13
 2755 00df 02       		.uleb128 0x2
 2756 00e0 0A       		.uleb128 0xa
 2757 00e1 00       		.byte	0
 2758 00e2 00       		.byte	0
 2759 00e3 13       		.uleb128 0x13
 2760 00e4 2E       		.uleb128 0x2e
 2761 00e5 01       		.byte	0x1
 2762 00e6 31       		.uleb128 0x31
 2763 00e7 13       		.uleb128 0x13
 2764 00e8 11       		.uleb128 0x11
 2765 00e9 01       		.uleb128 0x1
 2766 00ea 12       		.uleb128 0x12
 2767 00eb 01       		.uleb128 0x1
 2768 00ec 40       		.uleb128 0x40
 2769 00ed 06       		.uleb128 0x6
 2770 00ee 9742     		.uleb128 0x2117
 2771 00f0 0C       		.uleb128 0xc
 2772 00f1 01       		.uleb128 0x1
 2773 00f2 13       		.uleb128 0x13
 2774 00f3 00       		.byte	0
 2775 00f4 00       		.byte	0
 2776 00f5 14       		.uleb128 0x14
 2777 00f6 05       		.uleb128 0x5
 2778 00f7 00       		.byte	0
 2779 00f8 31       		.uleb128 0x31
 2780 00f9 13       		.uleb128 0x13
 2781 00fa 02       		.uleb128 0x2
 2782 00fb 06       		.uleb128 0x6
 2783 00fc 00       		.byte	0
 2784 00fd 00       		.byte	0
 2785 00fe 15       		.uleb128 0x15
 2786 00ff 34       		.uleb128 0x34
 2787 0100 00       		.byte	0
 2788 0101 31       		.uleb128 0x31
 2789 0102 13       		.uleb128 0x13
 2790 0103 02       		.uleb128 0x2
 2791 0104 06       		.uleb128 0x6
 2792 0105 00       		.byte	0
 2793 0106 00       		.byte	0
 2794 0107 16       		.uleb128 0x16
 2795 0108 05       		.uleb128 0x5
 2796 0109 00       		.byte	0
 2797 010a 31       		.uleb128 0x31
 2798 010b 13       		.uleb128 0x13
 2799 010c 1C       		.uleb128 0x1c
 2800 010d 0B       		.uleb128 0xb
 2801 010e 00       		.byte	0
 2802 010f 00       		.byte	0
 2803 0110 17       		.uleb128 0x17
 2804 0111 898201   		.uleb128 0x4109
 2805 0114 01       		.byte	0x1
 2806 0115 11       		.uleb128 0x11
 2807 0116 01       		.uleb128 0x1
ARM GAS  C:\Users\ZHANGM~1\AppData\Local\Temp\ccNPBJtR.s 			page 80


 2808 0117 31       		.uleb128 0x31
 2809 0118 13       		.uleb128 0x13
 2810 0119 00       		.byte	0
 2811 011a 00       		.byte	0
 2812 011b 18       		.uleb128 0x18
 2813 011c 8A8201   		.uleb128 0x410a
 2814 011f 00       		.byte	0
 2815 0120 02       		.uleb128 0x2
 2816 0121 0A       		.uleb128 0xa
 2817 0122 9142     		.uleb128 0x2111
 2818 0124 0A       		.uleb128 0xa
 2819 0125 00       		.byte	0
 2820 0126 00       		.byte	0
 2821 0127 19       		.uleb128 0x19
 2822 0128 34       		.uleb128 0x34
 2823 0129 00       		.byte	0
 2824 012a 31       		.uleb128 0x31
 2825 012b 13       		.uleb128 0x13
 2826 012c 02       		.uleb128 0x2
 2827 012d 0A       		.uleb128 0xa
 2828 012e 00       		.byte	0
 2829 012f 00       		.byte	0
 2830 0130 1A       		.uleb128 0x1a
 2831 0131 0B       		.uleb128 0xb
 2832 0132 01       		.byte	0x1
 2833 0133 11       		.uleb128 0x11
 2834 0134 01       		.uleb128 0x1
 2835 0135 12       		.uleb128 0x12
 2836 0136 01       		.uleb128 0x1
 2837 0137 01       		.uleb128 0x1
 2838 0138 13       		.uleb128 0x13
 2839 0139 00       		.byte	0
 2840 013a 00       		.byte	0
 2841 013b 1B       		.uleb128 0x1b
 2842 013c 898201   		.uleb128 0x4109
 2843 013f 01       		.byte	0x1
 2844 0140 11       		.uleb128 0x11
 2845 0141 01       		.uleb128 0x1
 2846 0142 31       		.uleb128 0x31
 2847 0143 13       		.uleb128 0x13
 2848 0144 01       		.uleb128 0x1
 2849 0145 13       		.uleb128 0x13
 2850 0146 00       		.byte	0
 2851 0147 00       		.byte	0
 2852 0148 1C       		.uleb128 0x1c
 2853 0149 2E       		.uleb128 0x2e
 2854 014a 01       		.byte	0x1
 2855 014b 03       		.uleb128 0x3
 2856 014c 0E       		.uleb128 0xe
 2857 014d 3A       		.uleb128 0x3a
 2858 014e 0B       		.uleb128 0xb
 2859 014f 3B       		.uleb128 0x3b
 2860 0150 0B       		.uleb128 0xb
 2861 0151 27       		.uleb128 0x27
 2862 0152 0C       		.uleb128 0xc
 2863 0153 49       		.uleb128 0x49
 2864 0154 13       		.uleb128 0x13
ARM GAS  C:\Users\ZHANGM~1\AppData\Local\Temp\ccNPBJtR.s 			page 81


 2865 0155 20       		.uleb128 0x20
 2866 0156 0B       		.uleb128 0xb
 2867 0157 01       		.uleb128 0x1
 2868 0158 13       		.uleb128 0x13
 2869 0159 00       		.byte	0
 2870 015a 00       		.byte	0
 2871 015b 1D       		.uleb128 0x1d
 2872 015c 05       		.uleb128 0x5
 2873 015d 00       		.byte	0
 2874 015e 03       		.uleb128 0x3
 2875 015f 0E       		.uleb128 0xe
 2876 0160 3A       		.uleb128 0x3a
 2877 0161 0B       		.uleb128 0xb
 2878 0162 3B       		.uleb128 0x3b
 2879 0163 0B       		.uleb128 0xb
 2880 0164 49       		.uleb128 0x49
 2881 0165 13       		.uleb128 0x13
 2882 0166 00       		.byte	0
 2883 0167 00       		.byte	0
 2884 0168 1E       		.uleb128 0x1e
 2885 0169 34       		.uleb128 0x34
 2886 016a 00       		.byte	0
 2887 016b 03       		.uleb128 0x3
 2888 016c 08       		.uleb128 0x8
 2889 016d 3A       		.uleb128 0x3a
 2890 016e 0B       		.uleb128 0xb
 2891 016f 3B       		.uleb128 0x3b
 2892 0170 0B       		.uleb128 0xb
 2893 0171 49       		.uleb128 0x49
 2894 0172 13       		.uleb128 0x13
 2895 0173 00       		.byte	0
 2896 0174 00       		.byte	0
 2897 0175 1F       		.uleb128 0x1f
 2898 0176 26       		.uleb128 0x26
 2899 0177 00       		.byte	0
 2900 0178 49       		.uleb128 0x49
 2901 0179 13       		.uleb128 0x13
 2902 017a 00       		.byte	0
 2903 017b 00       		.byte	0
 2904 017c 20       		.uleb128 0x20
 2905 017d 2E       		.uleb128 0x2e
 2906 017e 01       		.byte	0x1
 2907 017f 03       		.uleb128 0x3
 2908 0180 0E       		.uleb128 0xe
 2909 0181 3A       		.uleb128 0x3a
 2910 0182 0B       		.uleb128 0xb
 2911 0183 3B       		.uleb128 0x3b
 2912 0184 05       		.uleb128 0x5
 2913 0185 27       		.uleb128 0x27
 2914 0186 0C       		.uleb128 0xc
 2915 0187 11       		.uleb128 0x11
 2916 0188 01       		.uleb128 0x1
 2917 0189 12       		.uleb128 0x12
 2918 018a 01       		.uleb128 0x1
 2919 018b 40       		.uleb128 0x40
 2920 018c 06       		.uleb128 0x6
 2921 018d 9742     		.uleb128 0x2117
ARM GAS  C:\Users\ZHANGM~1\AppData\Local\Temp\ccNPBJtR.s 			page 82


 2922 018f 0C       		.uleb128 0xc
 2923 0190 01       		.uleb128 0x1
 2924 0191 13       		.uleb128 0x13
 2925 0192 00       		.byte	0
 2926 0193 00       		.byte	0
 2927 0194 21       		.uleb128 0x21
 2928 0195 05       		.uleb128 0x5
 2929 0196 00       		.byte	0
 2930 0197 03       		.uleb128 0x3
 2931 0198 0E       		.uleb128 0xe
 2932 0199 3A       		.uleb128 0x3a
 2933 019a 0B       		.uleb128 0xb
 2934 019b 3B       		.uleb128 0x3b
 2935 019c 05       		.uleb128 0x5
 2936 019d 49       		.uleb128 0x49
 2937 019e 13       		.uleb128 0x13
 2938 019f 02       		.uleb128 0x2
 2939 01a0 06       		.uleb128 0x6
 2940 01a1 00       		.byte	0
 2941 01a2 00       		.byte	0
 2942 01a3 22       		.uleb128 0x22
 2943 01a4 34       		.uleb128 0x34
 2944 01a5 00       		.byte	0
 2945 01a6 03       		.uleb128 0x3
 2946 01a7 0E       		.uleb128 0xe
 2947 01a8 3A       		.uleb128 0x3a
 2948 01a9 0B       		.uleb128 0xb
 2949 01aa 3B       		.uleb128 0x3b
 2950 01ab 05       		.uleb128 0x5
 2951 01ac 49       		.uleb128 0x49
 2952 01ad 13       		.uleb128 0x13
 2953 01ae 02       		.uleb128 0x2
 2954 01af 0A       		.uleb128 0xa
 2955 01b0 00       		.byte	0
 2956 01b1 00       		.byte	0
 2957 01b2 23       		.uleb128 0x23
 2958 01b3 34       		.uleb128 0x34
 2959 01b4 00       		.byte	0
 2960 01b5 03       		.uleb128 0x3
 2961 01b6 0E       		.uleb128 0xe
 2962 01b7 3A       		.uleb128 0x3a
 2963 01b8 0B       		.uleb128 0xb
 2964 01b9 3B       		.uleb128 0x3b
 2965 01ba 05       		.uleb128 0x5
 2966 01bb 49       		.uleb128 0x49
 2967 01bc 13       		.uleb128 0x13
 2968 01bd 02       		.uleb128 0x2
 2969 01be 06       		.uleb128 0x6
 2970 01bf 00       		.byte	0
 2971 01c0 00       		.byte	0
 2972 01c1 24       		.uleb128 0x24
 2973 01c2 1D       		.uleb128 0x1d
 2974 01c3 01       		.byte	0x1
 2975 01c4 31       		.uleb128 0x31
 2976 01c5 13       		.uleb128 0x13
 2977 01c6 52       		.uleb128 0x52
 2978 01c7 01       		.uleb128 0x1
ARM GAS  C:\Users\ZHANGM~1\AppData\Local\Temp\ccNPBJtR.s 			page 83


 2979 01c8 55       		.uleb128 0x55
 2980 01c9 06       		.uleb128 0x6
 2981 01ca 58       		.uleb128 0x58
 2982 01cb 0B       		.uleb128 0xb
 2983 01cc 59       		.uleb128 0x59
 2984 01cd 05       		.uleb128 0x5
 2985 01ce 01       		.uleb128 0x1
 2986 01cf 13       		.uleb128 0x13
 2987 01d0 00       		.byte	0
 2988 01d1 00       		.byte	0
 2989 01d2 25       		.uleb128 0x25
 2990 01d3 0B       		.uleb128 0xb
 2991 01d4 01       		.byte	0x1
 2992 01d5 55       		.uleb128 0x55
 2993 01d6 06       		.uleb128 0x6
 2994 01d7 00       		.byte	0
 2995 01d8 00       		.byte	0
 2996 01d9 26       		.uleb128 0x26
 2997 01da 0B       		.uleb128 0xb
 2998 01db 01       		.byte	0x1
 2999 01dc 55       		.uleb128 0x55
 3000 01dd 06       		.uleb128 0x6
 3001 01de 01       		.uleb128 0x1
 3002 01df 13       		.uleb128 0x13
 3003 01e0 00       		.byte	0
 3004 01e1 00       		.byte	0
 3005 01e2 27       		.uleb128 0x27
 3006 01e3 1D       		.uleb128 0x1d
 3007 01e4 01       		.byte	0x1
 3008 01e5 31       		.uleb128 0x31
 3009 01e6 13       		.uleb128 0x13
 3010 01e7 11       		.uleb128 0x11
 3011 01e8 01       		.uleb128 0x1
 3012 01e9 12       		.uleb128 0x12
 3013 01ea 01       		.uleb128 0x1
 3014 01eb 58       		.uleb128 0x58
 3015 01ec 0B       		.uleb128 0xb
 3016 01ed 59       		.uleb128 0x59
 3017 01ee 05       		.uleb128 0x5
 3018 01ef 00       		.byte	0
 3019 01f0 00       		.byte	0
 3020 01f1 28       		.uleb128 0x28
 3021 01f2 0B       		.uleb128 0xb
 3022 01f3 01       		.byte	0x1
 3023 01f4 11       		.uleb128 0x11
 3024 01f5 01       		.uleb128 0x1
 3025 01f6 12       		.uleb128 0x12
 3026 01f7 01       		.uleb128 0x1
 3027 01f8 00       		.byte	0
 3028 01f9 00       		.byte	0
 3029 01fa 29       		.uleb128 0x29
 3030 01fb 898201   		.uleb128 0x4109
 3031 01fe 00       		.byte	0
 3032 01ff 11       		.uleb128 0x11
 3033 0200 01       		.uleb128 0x1
 3034 0201 31       		.uleb128 0x31
 3035 0202 13       		.uleb128 0x13
ARM GAS  C:\Users\ZHANGM~1\AppData\Local\Temp\ccNPBJtR.s 			page 84


 3036 0203 00       		.byte	0
 3037 0204 00       		.byte	0
 3038 0205 2A       		.uleb128 0x2a
 3039 0206 1D       		.uleb128 0x1d
 3040 0207 01       		.byte	0x1
 3041 0208 31       		.uleb128 0x31
 3042 0209 13       		.uleb128 0x13
 3043 020a 11       		.uleb128 0x11
 3044 020b 01       		.uleb128 0x1
 3045 020c 12       		.uleb128 0x12
 3046 020d 01       		.uleb128 0x1
 3047 020e 58       		.uleb128 0x58
 3048 020f 0B       		.uleb128 0xb
 3049 0210 59       		.uleb128 0x59
 3050 0211 05       		.uleb128 0x5
 3051 0212 01       		.uleb128 0x1
 3052 0213 13       		.uleb128 0x13
 3053 0214 00       		.byte	0
 3054 0215 00       		.byte	0
 3055 0216 2B       		.uleb128 0x2b
 3056 0217 05       		.uleb128 0x5
 3057 0218 00       		.byte	0
 3058 0219 31       		.uleb128 0x31
 3059 021a 13       		.uleb128 0x13
 3060 021b 02       		.uleb128 0x2
 3061 021c 0A       		.uleb128 0xa
 3062 021d 00       		.byte	0
 3063 021e 00       		.byte	0
 3064 021f 2C       		.uleb128 0x2c
 3065 0220 21       		.uleb128 0x21
 3066 0221 00       		.byte	0
 3067 0222 49       		.uleb128 0x49
 3068 0223 13       		.uleb128 0x13
 3069 0224 2F       		.uleb128 0x2f
 3070 0225 05       		.uleb128 0x5
 3071 0226 00       		.byte	0
 3072 0227 00       		.byte	0
 3073 0228 2D       		.uleb128 0x2d
 3074 0229 2E       		.uleb128 0x2e
 3075 022a 00       		.byte	0
 3076 022b 03       		.uleb128 0x3
 3077 022c 0E       		.uleb128 0xe
 3078 022d 3A       		.uleb128 0x3a
 3079 022e 0B       		.uleb128 0xb
 3080 022f 3B       		.uleb128 0x3b
 3081 0230 05       		.uleb128 0x5
 3082 0231 27       		.uleb128 0x27
 3083 0232 0C       		.uleb128 0xc
 3084 0233 20       		.uleb128 0x20
 3085 0234 0B       		.uleb128 0xb
 3086 0235 00       		.byte	0
 3087 0236 00       		.byte	0
 3088 0237 2E       		.uleb128 0x2e
 3089 0238 2E       		.uleb128 0x2e
 3090 0239 01       		.byte	0x1
 3091 023a 3F       		.uleb128 0x3f
 3092 023b 0C       		.uleb128 0xc
ARM GAS  C:\Users\ZHANGM~1\AppData\Local\Temp\ccNPBJtR.s 			page 85


 3093 023c 03       		.uleb128 0x3
 3094 023d 0E       		.uleb128 0xe
 3095 023e 3A       		.uleb128 0x3a
 3096 023f 0B       		.uleb128 0xb
 3097 0240 3B       		.uleb128 0x3b
 3098 0241 05       		.uleb128 0x5
 3099 0242 27       		.uleb128 0x27
 3100 0243 0C       		.uleb128 0xc
 3101 0244 11       		.uleb128 0x11
 3102 0245 01       		.uleb128 0x1
 3103 0246 12       		.uleb128 0x12
 3104 0247 01       		.uleb128 0x1
 3105 0248 40       		.uleb128 0x40
 3106 0249 06       		.uleb128 0x6
 3107 024a 9742     		.uleb128 0x2117
 3108 024c 0C       		.uleb128 0xc
 3109 024d 01       		.uleb128 0x1
 3110 024e 13       		.uleb128 0x13
 3111 024f 00       		.byte	0
 3112 0250 00       		.byte	0
 3113 0251 2F       		.uleb128 0x2f
 3114 0252 34       		.uleb128 0x34
 3115 0253 00       		.byte	0
 3116 0254 03       		.uleb128 0x3
 3117 0255 08       		.uleb128 0x8
 3118 0256 3A       		.uleb128 0x3a
 3119 0257 0B       		.uleb128 0xb
 3120 0258 3B       		.uleb128 0x3b
 3121 0259 05       		.uleb128 0x5
 3122 025a 49       		.uleb128 0x49
 3123 025b 13       		.uleb128 0x13
 3124 025c 02       		.uleb128 0x2
 3125 025d 06       		.uleb128 0x6
 3126 025e 00       		.byte	0
 3127 025f 00       		.byte	0
 3128 0260 30       		.uleb128 0x30
 3129 0261 34       		.uleb128 0x34
 3130 0262 00       		.byte	0
 3131 0263 03       		.uleb128 0x3
 3132 0264 0E       		.uleb128 0xe
 3133 0265 3A       		.uleb128 0x3a
 3134 0266 0B       		.uleb128 0xb
 3135 0267 3B       		.uleb128 0x3b
 3136 0268 0B       		.uleb128 0xb
 3137 0269 49       		.uleb128 0x49
 3138 026a 13       		.uleb128 0x13
 3139 026b 3F       		.uleb128 0x3f
 3140 026c 0C       		.uleb128 0xc
 3141 026d 02       		.uleb128 0x2
 3142 026e 0A       		.uleb128 0xa
 3143 026f 00       		.byte	0
 3144 0270 00       		.byte	0
 3145 0271 31       		.uleb128 0x31
 3146 0272 34       		.uleb128 0x34
 3147 0273 00       		.byte	0
 3148 0274 03       		.uleb128 0x3
 3149 0275 0E       		.uleb128 0xe
ARM GAS  C:\Users\ZHANGM~1\AppData\Local\Temp\ccNPBJtR.s 			page 86


 3150 0276 3A       		.uleb128 0x3a
 3151 0277 0B       		.uleb128 0xb
 3152 0278 3B       		.uleb128 0x3b
 3153 0279 0B       		.uleb128 0xb
 3154 027a 49       		.uleb128 0x49
 3155 027b 13       		.uleb128 0x13
 3156 027c 3F       		.uleb128 0x3f
 3157 027d 0C       		.uleb128 0xc
 3158 027e 3C       		.uleb128 0x3c
 3159 027f 0C       		.uleb128 0xc
 3160 0280 00       		.byte	0
 3161 0281 00       		.byte	0
 3162 0282 32       		.uleb128 0x32
 3163 0283 2E       		.uleb128 0x2e
 3164 0284 01       		.byte	0x1
 3165 0285 3F       		.uleb128 0x3f
 3166 0286 0C       		.uleb128 0xc
 3167 0287 03       		.uleb128 0x3
 3168 0288 0E       		.uleb128 0xe
 3169 0289 3A       		.uleb128 0x3a
 3170 028a 0B       		.uleb128 0xb
 3171 028b 3B       		.uleb128 0x3b
 3172 028c 0B       		.uleb128 0xb
 3173 028d 27       		.uleb128 0x27
 3174 028e 0C       		.uleb128 0xc
 3175 028f 3C       		.uleb128 0x3c
 3176 0290 0C       		.uleb128 0xc
 3177 0291 01       		.uleb128 0x1
 3178 0292 13       		.uleb128 0x13
 3179 0293 00       		.byte	0
 3180 0294 00       		.byte	0
 3181 0295 33       		.uleb128 0x33
 3182 0296 05       		.uleb128 0x5
 3183 0297 00       		.byte	0
 3184 0298 49       		.uleb128 0x49
 3185 0299 13       		.uleb128 0x13
 3186 029a 00       		.byte	0
 3187 029b 00       		.byte	0
 3188 029c 34       		.uleb128 0x34
 3189 029d 2E       		.uleb128 0x2e
 3190 029e 01       		.byte	0x1
 3191 029f 3F       		.uleb128 0x3f
 3192 02a0 0C       		.uleb128 0xc
 3193 02a1 03       		.uleb128 0x3
 3194 02a2 0E       		.uleb128 0xe
 3195 02a3 27       		.uleb128 0x27
 3196 02a4 0C       		.uleb128 0xc
 3197 02a5 49       		.uleb128 0x49
 3198 02a6 13       		.uleb128 0x13
 3199 02a7 34       		.uleb128 0x34
 3200 02a8 0C       		.uleb128 0xc
 3201 02a9 3C       		.uleb128 0x3c
 3202 02aa 0C       		.uleb128 0xc
 3203 02ab 01       		.uleb128 0x1
 3204 02ac 13       		.uleb128 0x13
 3205 02ad 00       		.byte	0
 3206 02ae 00       		.byte	0
ARM GAS  C:\Users\ZHANGM~1\AppData\Local\Temp\ccNPBJtR.s 			page 87


 3207 02af 35       		.uleb128 0x35
 3208 02b0 2E       		.uleb128 0x2e
 3209 02b1 01       		.byte	0x1
 3210 02b2 3F       		.uleb128 0x3f
 3211 02b3 0C       		.uleb128 0xc
 3212 02b4 03       		.uleb128 0x3
 3213 02b5 0E       		.uleb128 0xe
 3214 02b6 3A       		.uleb128 0x3a
 3215 02b7 0B       		.uleb128 0xb
 3216 02b8 3B       		.uleb128 0x3b
 3217 02b9 0B       		.uleb128 0xb
 3218 02ba 27       		.uleb128 0x27
 3219 02bb 0C       		.uleb128 0xc
 3220 02bc 49       		.uleb128 0x49
 3221 02bd 13       		.uleb128 0x13
 3222 02be 3C       		.uleb128 0x3c
 3223 02bf 0C       		.uleb128 0xc
 3224 02c0 01       		.uleb128 0x1
 3225 02c1 13       		.uleb128 0x13
 3226 02c2 00       		.byte	0
 3227 02c3 00       		.byte	0
 3228 02c4 36       		.uleb128 0x36
 3229 02c5 26       		.uleb128 0x26
 3230 02c6 00       		.byte	0
 3231 02c7 00       		.byte	0
 3232 02c8 00       		.byte	0
 3233 02c9 37       		.uleb128 0x37
 3234 02ca 2E       		.uleb128 0x2e
 3235 02cb 00       		.byte	0
 3236 02cc 3F       		.uleb128 0x3f
 3237 02cd 0C       		.uleb128 0xc
 3238 02ce 03       		.uleb128 0x3
 3239 02cf 0E       		.uleb128 0xe
 3240 02d0 3A       		.uleb128 0x3a
 3241 02d1 0B       		.uleb128 0xb
 3242 02d2 3B       		.uleb128 0x3b
 3243 02d3 0B       		.uleb128 0xb
 3244 02d4 27       		.uleb128 0x27
 3245 02d5 0C       		.uleb128 0xc
 3246 02d6 3C       		.uleb128 0x3c
 3247 02d7 0C       		.uleb128 0xc
 3248 02d8 00       		.byte	0
 3249 02d9 00       		.byte	0
 3250 02da 38       		.uleb128 0x38
 3251 02db 2E       		.uleb128 0x2e
 3252 02dc 01       		.byte	0x1
 3253 02dd 3F       		.uleb128 0x3f
 3254 02de 0C       		.uleb128 0xc
 3255 02df 03       		.uleb128 0x3
 3256 02e0 0E       		.uleb128 0xe
 3257 02e1 3A       		.uleb128 0x3a
 3258 02e2 0B       		.uleb128 0xb
 3259 02e3 3B       		.uleb128 0x3b
 3260 02e4 0B       		.uleb128 0xb
 3261 02e5 27       		.uleb128 0x27
 3262 02e6 0C       		.uleb128 0xc
 3263 02e7 49       		.uleb128 0x49
ARM GAS  C:\Users\ZHANGM~1\AppData\Local\Temp\ccNPBJtR.s 			page 88


 3264 02e8 13       		.uleb128 0x13
 3265 02e9 3C       		.uleb128 0x3c
 3266 02ea 0C       		.uleb128 0xc
 3267 02eb 00       		.byte	0
 3268 02ec 00       		.byte	0
 3269 02ed 00       		.byte	0
 3270              		.section	.debug_loc,"",%progbits
 3271              	.Ldebug_loc0:
 3272              	.LLST0:
 3273 0000 00000000 		.4byte	.LFB44
 3274 0004 02000000 		.4byte	.LCFI0
 3275 0008 0200     		.2byte	0x2
 3276 000a 7D       		.byte	0x7d
 3277 000b 00       		.sleb128 0
 3278 000c 02000000 		.4byte	.LCFI0
 3279 0010 90000000 		.4byte	.LFE44
 3280 0014 0200     		.2byte	0x2
 3281 0016 7D       		.byte	0x7d
 3282 0017 10       		.sleb128 16
 3283 0018 00000000 		.4byte	0
 3284 001c 00000000 		.4byte	0
 3285              	.LLST1:
 3286 0020 00000000 		.4byte	.LVL1
 3287 0024 06000000 		.4byte	.LVL2
 3288 0028 0100     		.2byte	0x1
 3289 002a 50       		.byte	0x50
 3290 002b 06000000 		.4byte	.LVL2
 3291 002f 90000000 		.4byte	.LFE44
 3292 0033 0400     		.2byte	0x4
 3293 0035 F3       		.byte	0xf3
 3294 0036 01       		.uleb128 0x1
 3295 0037 50       		.byte	0x50
 3296 0038 9F       		.byte	0x9f
 3297 0039 00000000 		.4byte	0
 3298 003d 00000000 		.4byte	0
 3299              	.LLST2:
 3300 0041 1E000000 		.4byte	.LVL3
 3301 0045 22000000 		.4byte	.LVL4
 3302 0049 0400     		.2byte	0x4
 3303 004b 0A       		.byte	0xa
 3304 004c D47F     		.2byte	0x7fd4
 3305 004e 9F       		.byte	0x9f
 3306 004f 28000000 		.4byte	.LVL5
 3307 0053 2C000000 		.4byte	.LVL6
 3308 0057 0200     		.2byte	0x2
 3309 0059 30       		.byte	0x30
 3310 005a 9F       		.byte	0x9f
 3311 005b 32000000 		.4byte	.LVL7
 3312 005f 3A000000 		.4byte	.LVL9
 3313 0063 0100     		.2byte	0x1
 3314 0065 53       		.byte	0x53
 3315 0066 5C000000 		.4byte	.LVL13
 3316 006a 66000000 		.4byte	.LVL17
 3317 006e 0100     		.2byte	0x1
 3318 0070 50       		.byte	0x50
 3319 0071 00000000 		.4byte	0
 3320 0075 00000000 		.4byte	0
ARM GAS  C:\Users\ZHANGM~1\AppData\Local\Temp\ccNPBJtR.s 			page 89


 3321              	.LLST3:
 3322 0079 00000000 		.4byte	.LVL1
 3323 007d 3A000000 		.4byte	.LVL9
 3324 0081 0200     		.2byte	0x2
 3325 0083 32       		.byte	0x32
 3326 0084 9F       		.byte	0x9f
 3327 0085 56000000 		.4byte	.LVL12
 3328 0089 5C000000 		.4byte	.LVL13
 3329 008d 0200     		.2byte	0x2
 3330 008f 32       		.byte	0x32
 3331 0090 9F       		.byte	0x9f
 3332 0091 5C000000 		.4byte	.LVL13
 3333 0095 72000000 		.4byte	.LVL20
 3334 0099 0200     		.2byte	0x2
 3335 009b 34       		.byte	0x34
 3336 009c 9F       		.byte	0x9f
 3337 009d 00000000 		.4byte	0
 3338 00a1 00000000 		.4byte	0
 3339              	.LLST4:
 3340 00a5 34000000 		.4byte	.LVL8
 3341 00a9 3A000000 		.4byte	.LVL9
 3342 00ad 0100     		.2byte	0x1
 3343 00af 52       		.byte	0x52
 3344 00b0 3A000000 		.4byte	.LVL9
 3345 00b4 56000000 		.4byte	.LVL12
 3346 00b8 0100     		.2byte	0x1
 3347 00ba 50       		.byte	0x50
 3348 00bb 5E000000 		.4byte	.LVL14
 3349 00bf 60000000 		.4byte	.LVL15
 3350 00c3 0100     		.2byte	0x1
 3351 00c5 55       		.byte	0x55
 3352 00c6 60000000 		.4byte	.LVL15
 3353 00ca 62000000 		.4byte	.LVL16
 3354 00ce 0B00     		.2byte	0xb
 3355 00d0 71       		.byte	0x71
 3356 00d1 00       		.sleb128 0
 3357 00d2 08       		.byte	0x8
 3358 00d3 FF       		.byte	0xff
 3359 00d4 1A       		.byte	0x1a
 3360 00d5 38       		.byte	0x38
 3361 00d6 24       		.byte	0x24
 3362 00d7 75       		.byte	0x75
 3363 00d8 00       		.sleb128 0
 3364 00d9 21       		.byte	0x21
 3365 00da 9F       		.byte	0x9f
 3366 00db 62000000 		.4byte	.LVL16
 3367 00df 6A000000 		.4byte	.LVL18
 3368 00e3 1300     		.2byte	0x13
 3369 00e5 71       		.byte	0x71
 3370 00e6 00       		.sleb128 0
 3371 00e7 08       		.byte	0x8
 3372 00e8 FF       		.byte	0xff
 3373 00e9 1A       		.byte	0x1a
 3374 00ea 38       		.byte	0x38
 3375 00eb 24       		.byte	0x24
 3376 00ec 72       		.byte	0x72
 3377 00ed 00       		.sleb128 0
ARM GAS  C:\Users\ZHANGM~1\AppData\Local\Temp\ccNPBJtR.s 			page 90


 3378 00ee 08       		.byte	0x8
 3379 00ef FF       		.byte	0xff
 3380 00f0 1A       		.byte	0x1a
 3381 00f1 40       		.byte	0x40
 3382 00f2 24       		.byte	0x24
 3383 00f3 21       		.byte	0x21
 3384 00f4 75       		.byte	0x75
 3385 00f5 00       		.sleb128 0
 3386 00f6 21       		.byte	0x21
 3387 00f7 9F       		.byte	0x9f
 3388 00f8 70000000 		.4byte	.LVL19
 3389 00fc 90000000 		.4byte	.LFE44
 3390 0100 0100     		.2byte	0x1
 3391 0102 50       		.byte	0x50
 3392 0103 00000000 		.4byte	0
 3393 0107 00000000 		.4byte	0
 3394              	.LLST5:
 3395 010b 00000000 		.4byte	.LFB45
 3396 010f 02000000 		.4byte	.LCFI1
 3397 0113 0200     		.2byte	0x2
 3398 0115 7D       		.byte	0x7d
 3399 0116 00       		.sleb128 0
 3400 0117 02000000 		.4byte	.LCFI1
 3401 011b 58000000 		.4byte	.LFE45
 3402 011f 0200     		.2byte	0x2
 3403 0121 7D       		.byte	0x7d
 3404 0122 10       		.sleb128 16
 3405 0123 00000000 		.4byte	0
 3406 0127 00000000 		.4byte	0
 3407              	.LLST6:
 3408 012b 16000000 		.4byte	.LVL24
 3409 012f 44000000 		.4byte	.LVL34
 3410 0133 0100     		.2byte	0x1
 3411 0135 54       		.byte	0x54
 3412 0136 00000000 		.4byte	0
 3413 013a 00000000 		.4byte	0
 3414              	.LLST7:
 3415 013e 16000000 		.4byte	.LVL24
 3416 0142 24000000 		.4byte	.LVL27
 3417 0146 0200     		.2byte	0x2
 3418 0148 30       		.byte	0x30
 3419 0149 9F       		.byte	0x9f
 3420 014a 00000000 		.4byte	0
 3421 014e 00000000 		.4byte	0
 3422              	.LLST8:
 3423 0152 16000000 		.4byte	.LVL24
 3424 0156 24000000 		.4byte	.LVL27
 3425 015a 0200     		.2byte	0x2
 3426 015c 30       		.byte	0x30
 3427 015d 9F       		.byte	0x9f
 3428 015e 24000000 		.4byte	.LVL27
 3429 0162 36000000 		.4byte	.LVL29
 3430 0166 0100     		.2byte	0x1
 3431 0168 53       		.byte	0x53
 3432 0169 38000000 		.4byte	.LVL30
 3433 016d 3C000000 		.4byte	.LVL32
 3434 0171 0100     		.2byte	0x1
ARM GAS  C:\Users\ZHANGM~1\AppData\Local\Temp\ccNPBJtR.s 			page 91


 3435 0173 53       		.byte	0x53
 3436 0174 3C000000 		.4byte	.LVL32
 3437 0178 40000000 		.4byte	.LVL33
 3438 017c 0400     		.2byte	0x4
 3439 017e 73       		.byte	0x73
 3440 017f 00       		.sleb128 0
 3441 0180 1F       		.byte	0x1f
 3442 0181 9F       		.byte	0x9f
 3443 0182 40000000 		.4byte	.LVL33
 3444 0186 58000000 		.4byte	.LFE45
 3445 018a 0500     		.2byte	0x5
 3446 018c 73       		.byte	0x73
 3447 018d 00       		.sleb128 0
 3448 018e 1F       		.byte	0x1f
 3449 018f 1F       		.byte	0x1f
 3450 0190 9F       		.byte	0x9f
 3451 0191 00000000 		.4byte	0
 3452 0195 00000000 		.4byte	0
 3453              	.LLST9:
 3454 0199 2A000000 		.4byte	.LVL28
 3455 019d 3A000000 		.4byte	.LVL31
 3456 01a1 0200     		.2byte	0x2
 3457 01a3 72       		.byte	0x72
 3458 01a4 00       		.sleb128 0
 3459 01a5 3A000000 		.4byte	.LVL31
 3460 01a9 3C000000 		.4byte	.LVL32
 3461 01ad 0200     		.2byte	0x2
 3462 01af 72       		.byte	0x72
 3463 01b0 7F       		.sleb128 -1
 3464 01b1 00000000 		.4byte	0
 3465 01b5 00000000 		.4byte	0
 3466              	.LLST10:
 3467 01b9 00000000 		.4byte	.LFB40
 3468 01bd 02000000 		.4byte	.LCFI2
 3469 01c1 0200     		.2byte	0x2
 3470 01c3 7D       		.byte	0x7d
 3471 01c4 00       		.sleb128 0
 3472 01c5 02000000 		.4byte	.LCFI2
 3473 01c9 06000000 		.4byte	.LCFI3
 3474 01cd 0200     		.2byte	0x2
 3475 01cf 7D       		.byte	0x7d
 3476 01d0 14       		.sleb128 20
 3477 01d1 06000000 		.4byte	.LCFI3
 3478 01d5 E0020000 		.4byte	.LFE40
 3479 01d9 0300     		.2byte	0x3
 3480 01db 7D       		.byte	0x7d
 3481 01dc 8806     		.sleb128 776
 3482 01de 00000000 		.4byte	0
 3483 01e2 00000000 		.4byte	0
 3484              	.LLST11:
 3485 01e6 00000000 		.4byte	.LVL35
 3486 01ea 0B000000 		.4byte	.LVL36-1
 3487 01ee 0100     		.2byte	0x1
 3488 01f0 50       		.byte	0x50
 3489 01f1 0B000000 		.4byte	.LVL36-1
 3490 01f5 E0020000 		.4byte	.LFE40
 3491 01f9 0400     		.2byte	0x4
ARM GAS  C:\Users\ZHANGM~1\AppData\Local\Temp\ccNPBJtR.s 			page 92


 3492 01fb F3       		.byte	0xf3
 3493 01fc 01       		.uleb128 0x1
 3494 01fd 50       		.byte	0x50
 3495 01fe 9F       		.byte	0x9f
 3496 01ff 00000000 		.4byte	0
 3497 0203 00000000 		.4byte	0
 3498              	.LLST12:
 3499 0207 AE000000 		.4byte	.LVL52
 3500 020b 1C010000 		.4byte	.LVL66
 3501 020f 0200     		.2byte	0x2
 3502 0211 30       		.byte	0x30
 3503 0212 9F       		.byte	0x9f
 3504 0213 1E010000 		.4byte	.LVL67
 3505 0217 6A010000 		.4byte	.LVL75
 3506 021b 0100     		.2byte	0x1
 3507 021d 51       		.byte	0x51
 3508 021e 6A010000 		.4byte	.LVL75
 3509 0222 70010000 		.4byte	.LVL76
 3510 0226 0300     		.2byte	0x3
 3511 0228 71       		.byte	0x71
 3512 0229 79       		.sleb128 -7
 3513 022a 9F       		.byte	0x9f
 3514 022b 8C010000 		.4byte	.LVL80
 3515 022f C0010000 		.4byte	.LVL86
 3516 0233 0200     		.2byte	0x2
 3517 0235 30       		.byte	0x30
 3518 0236 9F       		.byte	0x9f
 3519 0237 C0010000 		.4byte	.LVL86
 3520 023b C2010000 		.4byte	.LVL87
 3521 023f 0200     		.2byte	0x2
 3522 0241 31       		.byte	0x31
 3523 0242 9F       		.byte	0x9f
 3524 0243 C2010000 		.4byte	.LVL87
 3525 0247 E2010000 		.4byte	.LVL90
 3526 024b 0200     		.2byte	0x2
 3527 024d 30       		.byte	0x30
 3528 024e 9F       		.byte	0x9f
 3529 024f E2010000 		.4byte	.LVL90
 3530 0253 E6010000 		.4byte	.LVL91
 3531 0257 0200     		.2byte	0x2
 3532 0259 34       		.byte	0x34
 3533 025a 9F       		.byte	0x9f
 3534 025b E6010000 		.4byte	.LVL91
 3535 025f 24020000 		.4byte	.LVL100
 3536 0263 0200     		.2byte	0x2
 3537 0265 30       		.byte	0x30
 3538 0266 9F       		.byte	0x9f
 3539 0267 24020000 		.4byte	.LVL100
 3540 026b 32020000 		.4byte	.LVL102
 3541 026f 0200     		.2byte	0x2
 3542 0271 38       		.byte	0x38
 3543 0272 9F       		.byte	0x9f
 3544 0273 32020000 		.4byte	.LVL102
 3545 0277 74020000 		.4byte	.LVL115
 3546 027b 0200     		.2byte	0x2
 3547 027d 30       		.byte	0x30
 3548 027e 9F       		.byte	0x9f
ARM GAS  C:\Users\ZHANGM~1\AppData\Local\Temp\ccNPBJtR.s 			page 93


 3549 027f 74020000 		.4byte	.LVL115
 3550 0283 7A020000 		.4byte	.LVL116
 3551 0287 0200     		.2byte	0x2
 3552 0289 31       		.byte	0x31
 3553 028a 9F       		.byte	0x9f
 3554 028b 7A020000 		.4byte	.LVL116
 3555 028f 98020000 		.4byte	.LVL124
 3556 0293 0200     		.2byte	0x2
 3557 0295 30       		.byte	0x30
 3558 0296 9F       		.byte	0x9f
 3559 0297 9E020000 		.4byte	.LVL125
 3560 029b AE020000 		.4byte	.LVL128
 3561 029f 0200     		.2byte	0x2
 3562 02a1 30       		.byte	0x30
 3563 02a2 9F       		.byte	0x9f
 3564 02a3 00000000 		.4byte	0
 3565 02a7 00000000 		.4byte	0
 3566              	.LLST13:
 3567 02ab AE000000 		.4byte	.LVL52
 3568 02af 1C010000 		.4byte	.LVL66
 3569 02b3 0200     		.2byte	0x2
 3570 02b5 34       		.byte	0x34
 3571 02b6 9F       		.byte	0x9f
 3572 02b7 1E010000 		.4byte	.LVL67
 3573 02bb 26010000 		.4byte	.LVL69
 3574 02bf 0100     		.2byte	0x1
 3575 02c1 53       		.byte	0x53
 3576 02c2 8C010000 		.4byte	.LVL80
 3577 02c6 92010000 		.4byte	.LVL81
 3578 02ca 0200     		.2byte	0x2
 3579 02cc 30       		.byte	0x30
 3580 02cd 9F       		.byte	0x9f
 3581 02ce 92010000 		.4byte	.LVL81
 3582 02d2 C0010000 		.4byte	.LVL86
 3583 02d6 0200     		.2byte	0x2
 3584 02d8 34       		.byte	0x34
 3585 02d9 9F       		.byte	0x9f
 3586 02da C0010000 		.4byte	.LVL86
 3587 02de C2010000 		.4byte	.LVL87
 3588 02e2 0200     		.2byte	0x2
 3589 02e4 30       		.byte	0x30
 3590 02e5 9F       		.byte	0x9f
 3591 02e6 C2010000 		.4byte	.LVL87
 3592 02ea E2010000 		.4byte	.LVL90
 3593 02ee 0200     		.2byte	0x2
 3594 02f0 34       		.byte	0x34
 3595 02f1 9F       		.byte	0x9f
 3596 02f2 E2010000 		.4byte	.LVL90
 3597 02f6 E6010000 		.4byte	.LVL91
 3598 02fa 0200     		.2byte	0x2
 3599 02fc 30       		.byte	0x30
 3600 02fd 9F       		.byte	0x9f
 3601 02fe E6010000 		.4byte	.LVL91
 3602 0302 04020000 		.4byte	.LVL94
 3603 0306 0200     		.2byte	0x2
 3604 0308 34       		.byte	0x34
 3605 0309 9F       		.byte	0x9f
ARM GAS  C:\Users\ZHANGM~1\AppData\Local\Temp\ccNPBJtR.s 			page 94


 3606 030a 04020000 		.4byte	.LVL94
 3607 030e 12020000 		.4byte	.LVL97
 3608 0312 0200     		.2byte	0x2
 3609 0314 30       		.byte	0x30
 3610 0315 9F       		.byte	0x9f
 3611 0316 16020000 		.4byte	.LVL98
 3612 031a 2A020000 		.4byte	.LVL101
 3613 031e 0200     		.2byte	0x2
 3614 0320 34       		.byte	0x34
 3615 0321 9F       		.byte	0x9f
 3616 0322 2A020000 		.4byte	.LVL101
 3617 0326 32020000 		.4byte	.LVL102
 3618 032a 0200     		.2byte	0x2
 3619 032c 30       		.byte	0x30
 3620 032d 9F       		.byte	0x9f
 3621 032e 32020000 		.4byte	.LVL102
 3622 0332 74020000 		.4byte	.LVL115
 3623 0336 0200     		.2byte	0x2
 3624 0338 34       		.byte	0x34
 3625 0339 9F       		.byte	0x9f
 3626 033a 74020000 		.4byte	.LVL115
 3627 033e 7A020000 		.4byte	.LVL116
 3628 0342 0200     		.2byte	0x2
 3629 0344 30       		.byte	0x30
 3630 0345 9F       		.byte	0x9f
 3631 0346 7A020000 		.4byte	.LVL116
 3632 034a 98020000 		.4byte	.LVL124
 3633 034e 0200     		.2byte	0x2
 3634 0350 34       		.byte	0x34
 3635 0351 9F       		.byte	0x9f
 3636 0352 9E020000 		.4byte	.LVL125
 3637 0356 A0020000 		.4byte	.LVL126
 3638 035a 0100     		.2byte	0x1
 3639 035c 53       		.byte	0x53
 3640 035d A0020000 		.4byte	.LVL126
 3641 0361 AE020000 		.4byte	.LVL128
 3642 0365 0200     		.2byte	0x2
 3643 0367 34       		.byte	0x34
 3644 0368 9F       		.byte	0x9f
 3645 0369 00000000 		.4byte	0
 3646 036d 00000000 		.4byte	0
 3647              	.LLST14:
 3648 0371 70000000 		.4byte	.LVL41
 3649 0375 72000000 		.4byte	.LVL42
 3650 0379 0E00     		.2byte	0xe
 3651 037b 70       		.byte	0x70
 3652 037c 00       		.sleb128 0
 3653 037d 08       		.byte	0x8
 3654 037e FF       		.byte	0xff
 3655 037f 1A       		.byte	0x1a
 3656 0380 38       		.byte	0x38
 3657 0381 24       		.byte	0x24
 3658 0382 71       		.byte	0x71
 3659 0383 00       		.sleb128 0
 3660 0384 08       		.byte	0x8
 3661 0385 FF       		.byte	0xff
 3662 0386 1A       		.byte	0x1a
ARM GAS  C:\Users\ZHANGM~1\AppData\Local\Temp\ccNPBJtR.s 			page 95


 3663 0387 21       		.byte	0x21
 3664 0388 9F       		.byte	0x9f
 3665 0389 72000000 		.4byte	.LVL42
 3666 038d A6000000 		.4byte	.LVL50
 3667 0391 0E00     		.2byte	0xe
 3668 0393 7C       		.byte	0x7c
 3669 0394 00       		.sleb128 0
 3670 0395 08       		.byte	0x8
 3671 0396 FF       		.byte	0xff
 3672 0397 1A       		.byte	0x1a
 3673 0398 38       		.byte	0x38
 3674 0399 24       		.byte	0x24
 3675 039a 71       		.byte	0x71
 3676 039b 00       		.sleb128 0
 3677 039c 08       		.byte	0x8
 3678 039d FF       		.byte	0xff
 3679 039e 1A       		.byte	0x1a
 3680 039f 21       		.byte	0x21
 3681 03a0 9F       		.byte	0x9f
 3682 03a1 A6000000 		.4byte	.LVL50
 3683 03a5 AE000000 		.4byte	.LVL52
 3684 03a9 1700     		.2byte	0x17
 3685 03ab 7C       		.byte	0x7c
 3686 03ac 00       		.sleb128 0
 3687 03ad 08       		.byte	0x8
 3688 03ae FF       		.byte	0xff
 3689 03af 1A       		.byte	0x1a
 3690 03b0 38       		.byte	0x38
 3691 03b1 24       		.byte	0x24
 3692 03b2 91       		.byte	0x91
 3693 03b3 00       		.sleb128 0
 3694 03b4 76       		.byte	0x76
 3695 03b5 00       		.sleb128 0
 3696 03b6 22       		.byte	0x22
 3697 03b7 0A       		.byte	0xa
 3698 03b8 6C02     		.2byte	0x26c
 3699 03ba 1C       		.byte	0x1c
 3700 03bb 94       		.byte	0x94
 3701 03bc 01       		.byte	0x1
 3702 03bd 08       		.byte	0x8
 3703 03be FF       		.byte	0xff
 3704 03bf 1A       		.byte	0x1a
 3705 03c0 21       		.byte	0x21
 3706 03c1 9F       		.byte	0x9f
 3707 03c2 AE000000 		.4byte	.LVL52
 3708 03c6 C9000000 		.4byte	.LVL55-1
 3709 03ca 1C00     		.2byte	0x1c
 3710 03cc 77       		.byte	0x77
 3711 03cd 00       		.sleb128 0
 3712 03ce 76       		.byte	0x76
 3713 03cf 00       		.sleb128 0
 3714 03d0 22       		.byte	0x22
 3715 03d1 23       		.byte	0x23
 3716 03d2 05       		.uleb128 0x5
 3717 03d3 94       		.byte	0x94
 3718 03d4 01       		.byte	0x1
 3719 03d5 08       		.byte	0x8
ARM GAS  C:\Users\ZHANGM~1\AppData\Local\Temp\ccNPBJtR.s 			page 96


 3720 03d6 FF       		.byte	0xff
 3721 03d7 1A       		.byte	0x1a
 3722 03d8 38       		.byte	0x38
 3723 03d9 24       		.byte	0x24
 3724 03da 77       		.byte	0x77
 3725 03db 00       		.sleb128 0
 3726 03dc 76       		.byte	0x76
 3727 03dd 00       		.sleb128 0
 3728 03de 22       		.byte	0x22
 3729 03df 23       		.byte	0x23
 3730 03e0 04       		.uleb128 0x4
 3731 03e1 94       		.byte	0x94
 3732 03e2 01       		.byte	0x1
 3733 03e3 08       		.byte	0x8
 3734 03e4 FF       		.byte	0xff
 3735 03e5 1A       		.byte	0x1a
 3736 03e6 21       		.byte	0x21
 3737 03e7 9F       		.byte	0x9f
 3738 03e8 8C010000 		.4byte	.LVL80
 3739 03ec 9A010000 		.4byte	.LVL82
 3740 03f0 1700     		.2byte	0x17
 3741 03f2 7C       		.byte	0x7c
 3742 03f3 00       		.sleb128 0
 3743 03f4 08       		.byte	0x8
 3744 03f5 FF       		.byte	0xff
 3745 03f6 1A       		.byte	0x1a
 3746 03f7 38       		.byte	0x38
 3747 03f8 24       		.byte	0x24
 3748 03f9 91       		.byte	0x91
 3749 03fa 00       		.sleb128 0
 3750 03fb 76       		.byte	0x76
 3751 03fc 00       		.sleb128 0
 3752 03fd 22       		.byte	0x22
 3753 03fe 0A       		.byte	0xa
 3754 03ff 6C02     		.2byte	0x26c
 3755 0401 1C       		.byte	0x1c
 3756 0402 94       		.byte	0x94
 3757 0403 01       		.byte	0x1
 3758 0404 08       		.byte	0x8
 3759 0405 FF       		.byte	0xff
 3760 0406 1A       		.byte	0x1a
 3761 0407 21       		.byte	0x21
 3762 0408 9F       		.byte	0x9f
 3763 0409 9A010000 		.4byte	.LVL82
 3764 040d 9E010000 		.4byte	.LVL83
 3765 0411 2000     		.2byte	0x20
 3766 0413 91       		.byte	0x91
 3767 0414 00       		.sleb128 0
 3768 0415 76       		.byte	0x76
 3769 0416 00       		.sleb128 0
 3770 0417 22       		.byte	0x22
 3771 0418 0A       		.byte	0xa
 3772 0419 6B02     		.2byte	0x26b
 3773 041b 1C       		.byte	0x1c
 3774 041c 94       		.byte	0x94
 3775 041d 01       		.byte	0x1
 3776 041e 08       		.byte	0x8
ARM GAS  C:\Users\ZHANGM~1\AppData\Local\Temp\ccNPBJtR.s 			page 97


 3777 041f FF       		.byte	0xff
 3778 0420 1A       		.byte	0x1a
 3779 0421 38       		.byte	0x38
 3780 0422 24       		.byte	0x24
 3781 0423 91       		.byte	0x91
 3782 0424 00       		.sleb128 0
 3783 0425 76       		.byte	0x76
 3784 0426 00       		.sleb128 0
 3785 0427 22       		.byte	0x22
 3786 0428 0A       		.byte	0xa
 3787 0429 6C02     		.2byte	0x26c
 3788 042b 1C       		.byte	0x1c
 3789 042c 94       		.byte	0x94
 3790 042d 01       		.byte	0x1
 3791 042e 08       		.byte	0x8
 3792 042f FF       		.byte	0xff
 3793 0430 1A       		.byte	0x1a
 3794 0431 21       		.byte	0x21
 3795 0432 9F       		.byte	0x9f
 3796 0433 9E010000 		.4byte	.LVL83
 3797 0437 A2010000 		.4byte	.LVL84
 3798 043b 1700     		.2byte	0x17
 3799 043d 7C       		.byte	0x7c
 3800 043e 00       		.sleb128 0
 3801 043f 08       		.byte	0x8
 3802 0440 FF       		.byte	0xff
 3803 0441 1A       		.byte	0x1a
 3804 0442 38       		.byte	0x38
 3805 0443 24       		.byte	0x24
 3806 0444 91       		.byte	0x91
 3807 0445 00       		.sleb128 0
 3808 0446 76       		.byte	0x76
 3809 0447 00       		.sleb128 0
 3810 0448 22       		.byte	0x22
 3811 0449 0A       		.byte	0xa
 3812 044a 6C02     		.2byte	0x26c
 3813 044c 1C       		.byte	0x1c
 3814 044d 94       		.byte	0x94
 3815 044e 01       		.byte	0x1
 3816 044f 08       		.byte	0x8
 3817 0450 FF       		.byte	0xff
 3818 0451 1A       		.byte	0x1a
 3819 0452 21       		.byte	0x21
 3820 0453 9F       		.byte	0x9f
 3821 0454 A2010000 		.4byte	.LVL84
 3822 0458 B9010000 		.4byte	.LVL85-1
 3823 045c 2000     		.2byte	0x20
 3824 045e 91       		.byte	0x91
 3825 045f 00       		.sleb128 0
 3826 0460 76       		.byte	0x76
 3827 0461 00       		.sleb128 0
 3828 0462 22       		.byte	0x22
 3829 0463 0A       		.byte	0xa
 3830 0464 6B02     		.2byte	0x26b
 3831 0466 1C       		.byte	0x1c
 3832 0467 94       		.byte	0x94
 3833 0468 01       		.byte	0x1
ARM GAS  C:\Users\ZHANGM~1\AppData\Local\Temp\ccNPBJtR.s 			page 98


 3834 0469 08       		.byte	0x8
 3835 046a FF       		.byte	0xff
 3836 046b 1A       		.byte	0x1a
 3837 046c 38       		.byte	0x38
 3838 046d 24       		.byte	0x24
 3839 046e 91       		.byte	0x91
 3840 046f 00       		.sleb128 0
 3841 0470 76       		.byte	0x76
 3842 0471 00       		.sleb128 0
 3843 0472 22       		.byte	0x22
 3844 0473 0A       		.byte	0xa
 3845 0474 6C02     		.2byte	0x26c
 3846 0476 1C       		.byte	0x1c
 3847 0477 94       		.byte	0x94
 3848 0478 01       		.byte	0x1
 3849 0479 08       		.byte	0x8
 3850 047a FF       		.byte	0xff
 3851 047b 1A       		.byte	0x1a
 3852 047c 21       		.byte	0x21
 3853 047d 9F       		.byte	0x9f
 3854 047e C2010000 		.4byte	.LVL87
 3855 0482 D0010000 		.4byte	.LVL88
 3856 0486 1C00     		.2byte	0x1c
 3857 0488 77       		.byte	0x77
 3858 0489 00       		.sleb128 0
 3859 048a 76       		.byte	0x76
 3860 048b 00       		.sleb128 0
 3861 048c 22       		.byte	0x22
 3862 048d 23       		.byte	0x23
 3863 048e 05       		.uleb128 0x5
 3864 048f 94       		.byte	0x94
 3865 0490 01       		.byte	0x1
 3866 0491 08       		.byte	0x8
 3867 0492 FF       		.byte	0xff
 3868 0493 1A       		.byte	0x1a
 3869 0494 38       		.byte	0x38
 3870 0495 24       		.byte	0x24
 3871 0496 77       		.byte	0x77
 3872 0497 00       		.sleb128 0
 3873 0498 76       		.byte	0x76
 3874 0499 00       		.sleb128 0
 3875 049a 22       		.byte	0x22
 3876 049b 23       		.byte	0x23
 3877 049c 04       		.uleb128 0x4
 3878 049d 94       		.byte	0x94
 3879 049e 01       		.byte	0x1
 3880 049f 08       		.byte	0x8
 3881 04a0 FF       		.byte	0xff
 3882 04a1 1A       		.byte	0x1a
 3883 04a2 21       		.byte	0x21
 3884 04a3 9F       		.byte	0x9f
 3885 04a4 D0010000 		.4byte	.LVL88
 3886 04a8 E6010000 		.4byte	.LVL91
 3887 04ac 3A00     		.2byte	0x3a
 3888 04ae 77       		.byte	0x77
 3889 04af 03       		.sleb128 3
 3890 04b0 94       		.byte	0x94
ARM GAS  C:\Users\ZHANGM~1\AppData\Local\Temp\ccNPBJtR.s 			page 99


 3891 04b1 01       		.byte	0x1
 3892 04b2 08       		.byte	0x8
 3893 04b3 FF       		.byte	0xff
 3894 04b4 1A       		.byte	0x1a
 3895 04b5 38       		.byte	0x38
 3896 04b6 24       		.byte	0x24
 3897 04b7 77       		.byte	0x77
 3898 04b8 02       		.sleb128 2
 3899 04b9 94       		.byte	0x94
 3900 04ba 01       		.byte	0x1
 3901 04bb 08       		.byte	0x8
 3902 04bc FF       		.byte	0xff
 3903 04bd 1A       		.byte	0x1a
 3904 04be 21       		.byte	0x21
 3905 04bf 77       		.byte	0x77
 3906 04c0 00       		.sleb128 0
 3907 04c1 22       		.byte	0x22
 3908 04c2 23       		.byte	0x23
 3909 04c3 05       		.uleb128 0x5
 3910 04c4 94       		.byte	0x94
 3911 04c5 01       		.byte	0x1
 3912 04c6 08       		.byte	0x8
 3913 04c7 FF       		.byte	0xff
 3914 04c8 1A       		.byte	0x1a
 3915 04c9 38       		.byte	0x38
 3916 04ca 24       		.byte	0x24
 3917 04cb 77       		.byte	0x77
 3918 04cc 03       		.sleb128 3
 3919 04cd 94       		.byte	0x94
 3920 04ce 01       		.byte	0x1
 3921 04cf 08       		.byte	0x8
 3922 04d0 FF       		.byte	0xff
 3923 04d1 1A       		.byte	0x1a
 3924 04d2 38       		.byte	0x38
 3925 04d3 24       		.byte	0x24
 3926 04d4 77       		.byte	0x77
 3927 04d5 02       		.sleb128 2
 3928 04d6 94       		.byte	0x94
 3929 04d7 01       		.byte	0x1
 3930 04d8 08       		.byte	0x8
 3931 04d9 FF       		.byte	0xff
 3932 04da 1A       		.byte	0x1a
 3933 04db 21       		.byte	0x21
 3934 04dc 77       		.byte	0x77
 3935 04dd 00       		.sleb128 0
 3936 04de 22       		.byte	0x22
 3937 04df 23       		.byte	0x23
 3938 04e0 04       		.uleb128 0x4
 3939 04e1 94       		.byte	0x94
 3940 04e2 01       		.byte	0x1
 3941 04e3 08       		.byte	0x8
 3942 04e4 FF       		.byte	0xff
 3943 04e5 1A       		.byte	0x1a
 3944 04e6 21       		.byte	0x21
 3945 04e7 9F       		.byte	0x9f
 3946 04e8 E6010000 		.4byte	.LVL91
 3947 04ec FE010000 		.4byte	.LVL93
ARM GAS  C:\Users\ZHANGM~1\AppData\Local\Temp\ccNPBJtR.s 			page 100


 3948 04f0 1C00     		.2byte	0x1c
 3949 04f2 77       		.byte	0x77
 3950 04f3 00       		.sleb128 0
 3951 04f4 76       		.byte	0x76
 3952 04f5 00       		.sleb128 0
 3953 04f6 22       		.byte	0x22
 3954 04f7 23       		.byte	0x23
 3955 04f8 05       		.uleb128 0x5
 3956 04f9 94       		.byte	0x94
 3957 04fa 01       		.byte	0x1
 3958 04fb 08       		.byte	0x8
 3959 04fc FF       		.byte	0xff
 3960 04fd 1A       		.byte	0x1a
 3961 04fe 38       		.byte	0x38
 3962 04ff 24       		.byte	0x24
 3963 0500 77       		.byte	0x77
 3964 0501 00       		.sleb128 0
 3965 0502 76       		.byte	0x76
 3966 0503 00       		.sleb128 0
 3967 0504 22       		.byte	0x22
 3968 0505 23       		.byte	0x23
 3969 0506 04       		.uleb128 0x4
 3970 0507 94       		.byte	0x94
 3971 0508 01       		.byte	0x1
 3972 0509 08       		.byte	0x8
 3973 050a FF       		.byte	0xff
 3974 050b 1A       		.byte	0x1a
 3975 050c 21       		.byte	0x21
 3976 050d 9F       		.byte	0x9f
 3977 050e FE010000 		.4byte	.LVL93
 3978 0512 0F020000 		.4byte	.LVL96-1
 3979 0516 2000     		.2byte	0x20
 3980 0518 91       		.byte	0x91
 3981 0519 00       		.sleb128 0
 3982 051a 76       		.byte	0x76
 3983 051b 00       		.sleb128 0
 3984 051c 22       		.byte	0x22
 3985 051d 0A       		.byte	0xa
 3986 051e 6B02     		.2byte	0x26b
 3987 0520 1C       		.byte	0x1c
 3988 0521 94       		.byte	0x94
 3989 0522 01       		.byte	0x1
 3990 0523 08       		.byte	0x8
 3991 0524 FF       		.byte	0xff
 3992 0525 1A       		.byte	0x1a
 3993 0526 38       		.byte	0x38
 3994 0527 24       		.byte	0x24
 3995 0528 91       		.byte	0x91
 3996 0529 00       		.sleb128 0
 3997 052a 76       		.byte	0x76
 3998 052b 00       		.sleb128 0
 3999 052c 22       		.byte	0x22
 4000 052d 0A       		.byte	0xa
 4001 052e 6C02     		.2byte	0x26c
 4002 0530 1C       		.byte	0x1c
 4003 0531 94       		.byte	0x94
 4004 0532 01       		.byte	0x1
ARM GAS  C:\Users\ZHANGM~1\AppData\Local\Temp\ccNPBJtR.s 			page 101


 4005 0533 08       		.byte	0x8
 4006 0534 FF       		.byte	0xff
 4007 0535 1A       		.byte	0x1a
 4008 0536 21       		.byte	0x21
 4009 0537 9F       		.byte	0x9f
 4010 0538 16020000 		.4byte	.LVL98
 4011 053c 24020000 		.4byte	.LVL100
 4012 0540 1C00     		.2byte	0x1c
 4013 0542 77       		.byte	0x77
 4014 0543 00       		.sleb128 0
 4015 0544 76       		.byte	0x76
 4016 0545 00       		.sleb128 0
 4017 0546 22       		.byte	0x22
 4018 0547 23       		.byte	0x23
 4019 0548 05       		.uleb128 0x5
 4020 0549 94       		.byte	0x94
 4021 054a 01       		.byte	0x1
 4022 054b 08       		.byte	0x8
 4023 054c FF       		.byte	0xff
 4024 054d 1A       		.byte	0x1a
 4025 054e 38       		.byte	0x38
 4026 054f 24       		.byte	0x24
 4027 0550 77       		.byte	0x77
 4028 0551 00       		.sleb128 0
 4029 0552 76       		.byte	0x76
 4030 0553 00       		.sleb128 0
 4031 0554 22       		.byte	0x22
 4032 0555 23       		.byte	0x23
 4033 0556 04       		.uleb128 0x4
 4034 0557 94       		.byte	0x94
 4035 0558 01       		.byte	0x1
 4036 0559 08       		.byte	0x8
 4037 055a FF       		.byte	0xff
 4038 055b 1A       		.byte	0x1a
 4039 055c 21       		.byte	0x21
 4040 055d 9F       		.byte	0x9f
 4041 055e 24020000 		.4byte	.LVL100
 4042 0562 32020000 		.4byte	.LVL102
 4043 0566 2000     		.2byte	0x20
 4044 0568 91       		.byte	0x91
 4045 0569 00       		.sleb128 0
 4046 056a 76       		.byte	0x76
 4047 056b 00       		.sleb128 0
 4048 056c 22       		.byte	0x22
 4049 056d 0A       		.byte	0xa
 4050 056e 6B02     		.2byte	0x26b
 4051 0570 1C       		.byte	0x1c
 4052 0571 94       		.byte	0x94
 4053 0572 01       		.byte	0x1
 4054 0573 08       		.byte	0x8
 4055 0574 FF       		.byte	0xff
 4056 0575 1A       		.byte	0x1a
 4057 0576 38       		.byte	0x38
 4058 0577 24       		.byte	0x24
 4059 0578 91       		.byte	0x91
 4060 0579 00       		.sleb128 0
 4061 057a 76       		.byte	0x76
ARM GAS  C:\Users\ZHANGM~1\AppData\Local\Temp\ccNPBJtR.s 			page 102


 4062 057b 00       		.sleb128 0
 4063 057c 22       		.byte	0x22
 4064 057d 0A       		.byte	0xa
 4065 057e 6C02     		.2byte	0x26c
 4066 0580 1C       		.byte	0x1c
 4067 0581 94       		.byte	0x94
 4068 0582 01       		.byte	0x1
 4069 0583 08       		.byte	0x8
 4070 0584 FF       		.byte	0xff
 4071 0585 1A       		.byte	0x1a
 4072 0586 21       		.byte	0x21
 4073 0587 9F       		.byte	0x9f
 4074 0588 32020000 		.4byte	.LVL102
 4075 058c 44020000 		.4byte	.LVL105
 4076 0590 1C00     		.2byte	0x1c
 4077 0592 77       		.byte	0x77
 4078 0593 00       		.sleb128 0
 4079 0594 76       		.byte	0x76
 4080 0595 00       		.sleb128 0
 4081 0596 22       		.byte	0x22
 4082 0597 23       		.byte	0x23
 4083 0598 05       		.uleb128 0x5
 4084 0599 94       		.byte	0x94
 4085 059a 01       		.byte	0x1
 4086 059b 08       		.byte	0x8
 4087 059c FF       		.byte	0xff
 4088 059d 1A       		.byte	0x1a
 4089 059e 38       		.byte	0x38
 4090 059f 24       		.byte	0x24
 4091 05a0 77       		.byte	0x77
 4092 05a1 00       		.sleb128 0
 4093 05a2 76       		.byte	0x76
 4094 05a3 00       		.sleb128 0
 4095 05a4 22       		.byte	0x22
 4096 05a5 23       		.byte	0x23
 4097 05a6 04       		.uleb128 0x4
 4098 05a7 94       		.byte	0x94
 4099 05a8 01       		.byte	0x1
 4100 05a9 08       		.byte	0x8
 4101 05aa FF       		.byte	0xff
 4102 05ab 1A       		.byte	0x1a
 4103 05ac 21       		.byte	0x21
 4104 05ad 9F       		.byte	0x9f
 4105 05ae 44020000 		.4byte	.LVL105
 4106 05b2 4C020000 		.4byte	.LVL107
 4107 05b6 2000     		.2byte	0x20
 4108 05b8 91       		.byte	0x91
 4109 05b9 00       		.sleb128 0
 4110 05ba 76       		.byte	0x76
 4111 05bb 00       		.sleb128 0
 4112 05bc 22       		.byte	0x22
 4113 05bd 0A       		.byte	0xa
 4114 05be 6B02     		.2byte	0x26b
 4115 05c0 1C       		.byte	0x1c
 4116 05c1 94       		.byte	0x94
 4117 05c2 01       		.byte	0x1
 4118 05c3 08       		.byte	0x8
ARM GAS  C:\Users\ZHANGM~1\AppData\Local\Temp\ccNPBJtR.s 			page 103


 4119 05c4 FF       		.byte	0xff
 4120 05c5 1A       		.byte	0x1a
 4121 05c6 38       		.byte	0x38
 4122 05c7 24       		.byte	0x24
 4123 05c8 91       		.byte	0x91
 4124 05c9 00       		.sleb128 0
 4125 05ca 76       		.byte	0x76
 4126 05cb 00       		.sleb128 0
 4127 05cc 22       		.byte	0x22
 4128 05cd 0A       		.byte	0xa
 4129 05ce 6C02     		.2byte	0x26c
 4130 05d0 1C       		.byte	0x1c
 4131 05d1 94       		.byte	0x94
 4132 05d2 01       		.byte	0x1
 4133 05d3 08       		.byte	0x8
 4134 05d4 FF       		.byte	0xff
 4135 05d5 1A       		.byte	0x1a
 4136 05d6 21       		.byte	0x21
 4137 05d7 9F       		.byte	0x9f
 4138 05d8 4C020000 		.4byte	.LVL107
 4139 05dc 74020000 		.4byte	.LVL115
 4140 05e0 4200     		.2byte	0x42
 4141 05e2 91       		.byte	0x91
 4142 05e3 937B     		.sleb128 -621
 4143 05e5 94       		.byte	0x94
 4144 05e6 01       		.byte	0x1
 4145 05e7 08       		.byte	0x8
 4146 05e8 FF       		.byte	0xff
 4147 05e9 1A       		.byte	0x1a
 4148 05ea 38       		.byte	0x38
 4149 05eb 24       		.byte	0x24
 4150 05ec 91       		.byte	0x91
 4151 05ed 927B     		.sleb128 -622
 4152 05ef 94       		.byte	0x94
 4153 05f0 01       		.byte	0x1
 4154 05f1 08       		.byte	0x8
 4155 05f2 FF       		.byte	0xff
 4156 05f3 1A       		.byte	0x1a
 4157 05f4 21       		.byte	0x21
 4158 05f5 91       		.byte	0x91
 4159 05f6 00       		.sleb128 0
 4160 05f7 22       		.byte	0x22
 4161 05f8 0A       		.byte	0xa
 4162 05f9 6B02     		.2byte	0x26b
 4163 05fb 1C       		.byte	0x1c
 4164 05fc 94       		.byte	0x94
 4165 05fd 01       		.byte	0x1
 4166 05fe 08       		.byte	0x8
 4167 05ff FF       		.byte	0xff
 4168 0600 1A       		.byte	0x1a
 4169 0601 38       		.byte	0x38
 4170 0602 24       		.byte	0x24
 4171 0603 91       		.byte	0x91
 4172 0604 937B     		.sleb128 -621
 4173 0606 94       		.byte	0x94
 4174 0607 01       		.byte	0x1
 4175 0608 08       		.byte	0x8
ARM GAS  C:\Users\ZHANGM~1\AppData\Local\Temp\ccNPBJtR.s 			page 104


 4176 0609 FF       		.byte	0xff
 4177 060a 1A       		.byte	0x1a
 4178 060b 38       		.byte	0x38
 4179 060c 24       		.byte	0x24
 4180 060d 91       		.byte	0x91
 4181 060e 927B     		.sleb128 -622
 4182 0610 94       		.byte	0x94
 4183 0611 01       		.byte	0x1
 4184 0612 08       		.byte	0x8
 4185 0613 FF       		.byte	0xff
 4186 0614 1A       		.byte	0x1a
 4187 0615 21       		.byte	0x21
 4188 0616 91       		.byte	0x91
 4189 0617 00       		.sleb128 0
 4190 0618 22       		.byte	0x22
 4191 0619 0A       		.byte	0xa
 4192 061a 6C02     		.2byte	0x26c
 4193 061c 1C       		.byte	0x1c
 4194 061d 94       		.byte	0x94
 4195 061e 01       		.byte	0x1
 4196 061f 08       		.byte	0x8
 4197 0620 FF       		.byte	0xff
 4198 0621 1A       		.byte	0x1a
 4199 0622 21       		.byte	0x21
 4200 0623 9F       		.byte	0x9f
 4201 0624 7A020000 		.4byte	.LVL116
 4202 0628 7D020000 		.4byte	.LVL117-1
 4203 062c 1C00     		.2byte	0x1c
 4204 062e 77       		.byte	0x77
 4205 062f 00       		.sleb128 0
 4206 0630 76       		.byte	0x76
 4207 0631 00       		.sleb128 0
 4208 0632 22       		.byte	0x22
 4209 0633 23       		.byte	0x23
 4210 0634 05       		.uleb128 0x5
 4211 0635 94       		.byte	0x94
 4212 0636 01       		.byte	0x1
 4213 0637 08       		.byte	0x8
 4214 0638 FF       		.byte	0xff
 4215 0639 1A       		.byte	0x1a
 4216 063a 38       		.byte	0x38
 4217 063b 24       		.byte	0x24
 4218 063c 77       		.byte	0x77
 4219 063d 00       		.sleb128 0
 4220 063e 76       		.byte	0x76
 4221 063f 00       		.sleb128 0
 4222 0640 22       		.byte	0x22
 4223 0641 23       		.byte	0x23
 4224 0642 04       		.uleb128 0x4
 4225 0643 94       		.byte	0x94
 4226 0644 01       		.byte	0x1
 4227 0645 08       		.byte	0x8
 4228 0646 FF       		.byte	0xff
 4229 0647 1A       		.byte	0x1a
 4230 0648 21       		.byte	0x21
 4231 0649 9F       		.byte	0x9f
 4232 064a A0020000 		.4byte	.LVL126
ARM GAS  C:\Users\ZHANGM~1\AppData\Local\Temp\ccNPBJtR.s 			page 105


 4233 064e A2020000 		.4byte	.LVL127
 4234 0652 1C00     		.2byte	0x1c
 4235 0654 77       		.byte	0x77
 4236 0655 00       		.sleb128 0
 4237 0656 76       		.byte	0x76
 4238 0657 00       		.sleb128 0
 4239 0658 22       		.byte	0x22
 4240 0659 23       		.byte	0x23
 4241 065a 05       		.uleb128 0x5
 4242 065b 94       		.byte	0x94
 4243 065c 01       		.byte	0x1
 4244 065d 08       		.byte	0x8
 4245 065e FF       		.byte	0xff
 4246 065f 1A       		.byte	0x1a
 4247 0660 38       		.byte	0x38
 4248 0661 24       		.byte	0x24
 4249 0662 77       		.byte	0x77
 4250 0663 00       		.sleb128 0
 4251 0664 76       		.byte	0x76
 4252 0665 00       		.sleb128 0
 4253 0666 22       		.byte	0x22
 4254 0667 23       		.byte	0x23
 4255 0668 04       		.uleb128 0x4
 4256 0669 94       		.byte	0x94
 4257 066a 01       		.byte	0x1
 4258 066b 08       		.byte	0x8
 4259 066c FF       		.byte	0xff
 4260 066d 1A       		.byte	0x1a
 4261 066e 21       		.byte	0x21
 4262 066f 9F       		.byte	0x9f
 4263 0670 A2020000 		.4byte	.LVL127
 4264 0674 AE020000 		.4byte	.LVL128
 4265 0678 3A00     		.2byte	0x3a
 4266 067a 77       		.byte	0x77
 4267 067b 03       		.sleb128 3
 4268 067c 94       		.byte	0x94
 4269 067d 01       		.byte	0x1
 4270 067e 08       		.byte	0x8
 4271 067f FF       		.byte	0xff
 4272 0680 1A       		.byte	0x1a
 4273 0681 38       		.byte	0x38
 4274 0682 24       		.byte	0x24
 4275 0683 77       		.byte	0x77
 4276 0684 02       		.sleb128 2
 4277 0685 94       		.byte	0x94
 4278 0686 01       		.byte	0x1
 4279 0687 08       		.byte	0x8
 4280 0688 FF       		.byte	0xff
 4281 0689 1A       		.byte	0x1a
 4282 068a 21       		.byte	0x21
 4283 068b 77       		.byte	0x77
 4284 068c 00       		.sleb128 0
 4285 068d 22       		.byte	0x22
 4286 068e 23       		.byte	0x23
 4287 068f 05       		.uleb128 0x5
 4288 0690 94       		.byte	0x94
 4289 0691 01       		.byte	0x1
ARM GAS  C:\Users\ZHANGM~1\AppData\Local\Temp\ccNPBJtR.s 			page 106


 4290 0692 08       		.byte	0x8
 4291 0693 FF       		.byte	0xff
 4292 0694 1A       		.byte	0x1a
 4293 0695 38       		.byte	0x38
 4294 0696 24       		.byte	0x24
 4295 0697 77       		.byte	0x77
 4296 0698 03       		.sleb128 3
 4297 0699 94       		.byte	0x94
 4298 069a 01       		.byte	0x1
 4299 069b 08       		.byte	0x8
 4300 069c FF       		.byte	0xff
 4301 069d 1A       		.byte	0x1a
 4302 069e 38       		.byte	0x38
 4303 069f 24       		.byte	0x24
 4304 06a0 77       		.byte	0x77
 4305 06a1 02       		.sleb128 2
 4306 06a2 94       		.byte	0x94
 4307 06a3 01       		.byte	0x1
 4308 06a4 08       		.byte	0x8
 4309 06a5 FF       		.byte	0xff
 4310 06a6 1A       		.byte	0x1a
 4311 06a7 21       		.byte	0x21
 4312 06a8 77       		.byte	0x77
 4313 06a9 00       		.sleb128 0
 4314 06aa 22       		.byte	0x22
 4315 06ab 23       		.byte	0x23
 4316 06ac 04       		.uleb128 0x4
 4317 06ad 94       		.byte	0x94
 4318 06ae 01       		.byte	0x1
 4319 06af 08       		.byte	0x8
 4320 06b0 FF       		.byte	0xff
 4321 06b1 1A       		.byte	0x1a
 4322 06b2 21       		.byte	0x21
 4323 06b3 9F       		.byte	0x9f
 4324 06b4 00000000 		.4byte	0
 4325 06b8 00000000 		.4byte	0
 4326              	.LLST15:
 4327 06bc 30000000 		.4byte	.LVL38
 4328 06c0 5A000000 		.4byte	.LVL39
 4329 06c4 0100     		.2byte	0x1
 4330 06c6 50       		.byte	0x50
 4331 06c7 00000000 		.4byte	0
 4332 06cb 00000000 		.4byte	0
 4333              	.LLST16:
 4334 06cf 00000000 		.4byte	.LVL35
 4335 06d3 18000000 		.4byte	.LVL37
 4336 06d7 0200     		.2byte	0x2
 4337 06d9 30       		.byte	0x30
 4338 06da 9F       		.byte	0x9f
 4339 06db 68000000 		.4byte	.LVL40
 4340 06df DC000000 		.4byte	.LVL57
 4341 06e3 0100     		.2byte	0x1
 4342 06e5 56       		.byte	0x56
 4343 06e6 DC000000 		.4byte	.LVL57
 4344 06ea 1C010000 		.4byte	.LVL66
 4345 06ee 0300     		.2byte	0x3
 4346 06f0 08       		.byte	0x8
ARM GAS  C:\Users\ZHANGM~1\AppData\Local\Temp\ccNPBJtR.s 			page 107


 4347 06f1 80       		.byte	0x80
 4348 06f2 9F       		.byte	0x9f
 4349 06f3 8C010000 		.4byte	.LVL80
 4350 06f7 D0010000 		.4byte	.LVL88
 4351 06fb 0100     		.2byte	0x1
 4352 06fd 56       		.byte	0x56
 4353 06fe D0010000 		.4byte	.LVL88
 4354 0702 E6010000 		.4byte	.LVL91
 4355 0706 1200     		.2byte	0x12
 4356 0708 77       		.byte	0x77
 4357 0709 03       		.sleb128 3
 4358 070a 94       		.byte	0x94
 4359 070b 01       		.byte	0x1
 4360 070c 08       		.byte	0x8
 4361 070d FF       		.byte	0xff
 4362 070e 1A       		.byte	0x1a
 4363 070f 38       		.byte	0x38
 4364 0710 24       		.byte	0x24
 4365 0711 77       		.byte	0x77
 4366 0712 02       		.sleb128 2
 4367 0713 94       		.byte	0x94
 4368 0714 01       		.byte	0x1
 4369 0715 08       		.byte	0x8
 4370 0716 FF       		.byte	0xff
 4371 0717 1A       		.byte	0x1a
 4372 0718 21       		.byte	0x21
 4373 0719 9F       		.byte	0x9f
 4374 071a E6010000 		.4byte	.LVL91
 4375 071e 12020000 		.4byte	.LVL97
 4376 0722 0100     		.2byte	0x1
 4377 0724 56       		.byte	0x56
 4378 0725 16020000 		.4byte	.LVL98
 4379 0729 4C020000 		.4byte	.LVL107
 4380 072d 0100     		.2byte	0x1
 4381 072f 56       		.byte	0x56
 4382 0730 4C020000 		.4byte	.LVL107
 4383 0734 74020000 		.4byte	.LVL115
 4384 0738 1400     		.2byte	0x14
 4385 073a 91       		.byte	0x91
 4386 073b 937B     		.sleb128 -621
 4387 073d 94       		.byte	0x94
 4388 073e 01       		.byte	0x1
 4389 073f 08       		.byte	0x8
 4390 0740 FF       		.byte	0xff
 4391 0741 1A       		.byte	0x1a
 4392 0742 38       		.byte	0x38
 4393 0743 24       		.byte	0x24
 4394 0744 91       		.byte	0x91
 4395 0745 927B     		.sleb128 -622
 4396 0747 94       		.byte	0x94
 4397 0748 01       		.byte	0x1
 4398 0749 08       		.byte	0x8
 4399 074a FF       		.byte	0xff
 4400 074b 1A       		.byte	0x1a
 4401 074c 21       		.byte	0x21
 4402 074d 9F       		.byte	0x9f
 4403 074e 7A020000 		.4byte	.LVL116
ARM GAS  C:\Users\ZHANGM~1\AppData\Local\Temp\ccNPBJtR.s 			page 108


 4404 0752 86020000 		.4byte	.LVL118
 4405 0756 0100     		.2byte	0x1
 4406 0758 56       		.byte	0x56
 4407 0759 8E020000 		.4byte	.LVL120
 4408 075d 98020000 		.4byte	.LVL124
 4409 0761 0300     		.2byte	0x3
 4410 0763 08       		.byte	0x8
 4411 0764 80       		.byte	0x80
 4412 0765 9F       		.byte	0x9f
 4413 0766 00000000 		.4byte	0
 4414 076a 00000000 		.4byte	0
 4415              	.LLST17:
 4416 076e 00000000 		.4byte	.LVL35
 4417 0772 18000000 		.4byte	.LVL37
 4418 0776 0200     		.2byte	0x2
 4419 0778 30       		.byte	0x30
 4420 0779 9F       		.byte	0x9f
 4421 077a C0000000 		.4byte	.LVL53
 4422 077e CC000000 		.4byte	.LVL56
 4423 0782 0300     		.2byte	0x3
 4424 0784 08       		.byte	0x8
 4425 0785 80       		.byte	0x80
 4426 0786 9F       		.byte	0x9f
 4427 0787 DC000000 		.4byte	.LVL57
 4428 078b EC000000 		.4byte	.LVL59
 4429 078f 0800     		.2byte	0x8
 4430 0791 75       		.byte	0x75
 4431 0792 00       		.sleb128 0
 4432 0793 76       		.byte	0x76
 4433 0794 00       		.sleb128 0
 4434 0795 22       		.byte	0x22
 4435 0796 33       		.byte	0x33
 4436 0797 1C       		.byte	0x1c
 4437 0798 9F       		.byte	0x9f
 4438 0799 EE000000 		.4byte	.LVL60
 4439 079d 1A010000 		.4byte	.LVL65
 4440 07a1 0100     		.2byte	0x1
 4441 07a3 55       		.byte	0x55
 4442 07a4 1E010000 		.4byte	.LVL67
 4443 07a8 88010000 		.4byte	.LVL79
 4444 07ac 0100     		.2byte	0x1
 4445 07ae 55       		.byte	0x55
 4446 07af E6010000 		.4byte	.LVL91
 4447 07b3 F0010000 		.4byte	.LVL92
 4448 07b7 0100     		.2byte	0x1
 4449 07b9 55       		.byte	0x55
 4450 07ba 12020000 		.4byte	.LVL97
 4451 07be 16020000 		.4byte	.LVL98
 4452 07c2 0100     		.2byte	0x1
 4453 07c4 55       		.byte	0x55
 4454 07c5 8E020000 		.4byte	.LVL120
 4455 07c9 92020000 		.4byte	.LVL121
 4456 07cd 0800     		.2byte	0x8
 4457 07cf 75       		.byte	0x75
 4458 07d0 00       		.sleb128 0
 4459 07d1 76       		.byte	0x76
 4460 07d2 00       		.sleb128 0
ARM GAS  C:\Users\ZHANGM~1\AppData\Local\Temp\ccNPBJtR.s 			page 109


 4461 07d3 22       		.byte	0x22
 4462 07d4 33       		.byte	0x33
 4463 07d5 1C       		.byte	0x1c
 4464 07d6 9F       		.byte	0x9f
 4465 07d7 94020000 		.4byte	.LVL122
 4466 07db 96020000 		.4byte	.LVL123
 4467 07df 0100     		.2byte	0x1
 4468 07e1 55       		.byte	0x55
 4469 07e2 A0020000 		.4byte	.LVL126
 4470 07e6 AE020000 		.4byte	.LVL128
 4471 07ea 0200     		.2byte	0x2
 4472 07ec 30       		.byte	0x30
 4473 07ed 9F       		.byte	0x9f
 4474 07ee AE020000 		.4byte	.LVL128
 4475 07f2 B0020000 		.4byte	.LVL129
 4476 07f6 0100     		.2byte	0x1
 4477 07f8 55       		.byte	0x55
 4478 07f9 00000000 		.4byte	0
 4479 07fd 00000000 		.4byte	0
 4480              	.LLST18:
 4481 0801 00000000 		.4byte	.LVL35
 4482 0805 18000000 		.4byte	.LVL37
 4483 0809 0200     		.2byte	0x2
 4484 080b 3A       		.byte	0x3a
 4485 080c 9F       		.byte	0x9f
 4486 080d 18000000 		.4byte	.LVL37
 4487 0811 E0020000 		.4byte	.LFE40
 4488 0815 0300     		.2byte	0x3
 4489 0817 91       		.byte	0x91
 4490 0818 807A     		.sleb128 -768
 4491 081a 00000000 		.4byte	0
 4492 081e 00000000 		.4byte	0
 4493              	.LLST19:
 4494 0822 00000000 		.4byte	.LVL35
 4495 0826 18000000 		.4byte	.LVL37
 4496 082a 0200     		.2byte	0x2
 4497 082c 30       		.byte	0x30
 4498 082d 9F       		.byte	0x9f
 4499 082e 04010000 		.4byte	.LVL62
 4500 0832 08010000 		.4byte	.LVL63
 4501 0836 0200     		.2byte	0x2
 4502 0838 31       		.byte	0x31
 4503 0839 9F       		.byte	0x9f
 4504 083a 08010000 		.4byte	.LVL63
 4505 083e 1C010000 		.4byte	.LVL66
 4506 0842 0300     		.2byte	0x3
 4507 0844 91       		.byte	0x91
 4508 0845 847A     		.sleb128 -764
 4509 0847 1E010000 		.4byte	.LVL67
 4510 084b 8C010000 		.4byte	.LVL80
 4511 084f 0300     		.2byte	0x3
 4512 0851 91       		.byte	0x91
 4513 0852 847A     		.sleb128 -764
 4514 0854 94020000 		.4byte	.LVL122
 4515 0858 98020000 		.4byte	.LVL124
 4516 085c 0300     		.2byte	0x3
 4517 085e 91       		.byte	0x91
ARM GAS  C:\Users\ZHANGM~1\AppData\Local\Temp\ccNPBJtR.s 			page 110


 4518 085f 847A     		.sleb128 -764
 4519 0861 A0020000 		.4byte	.LVL126
 4520 0865 E0020000 		.4byte	.LFE40
 4521 0869 0300     		.2byte	0x3
 4522 086b 91       		.byte	0x91
 4523 086c 847A     		.sleb128 -764
 4524 086e 00000000 		.4byte	0
 4525 0872 00000000 		.4byte	0
 4526              	.LLST20:
 4527 0876 00000000 		.4byte	.LVL35
 4528 087a 18000000 		.4byte	.LVL37
 4529 087e 0200     		.2byte	0x2
 4530 0880 30       		.byte	0x30
 4531 0881 9F       		.byte	0x9f
 4532 0882 1E010000 		.4byte	.LVL67
 4533 0886 88010000 		.4byte	.LVL79
 4534 088a 0100     		.2byte	0x1
 4535 088c 54       		.byte	0x54
 4536 088d 24020000 		.4byte	.LVL100
 4537 0891 32020000 		.4byte	.LVL102
 4538 0895 0200     		.2byte	0x2
 4539 0897 31       		.byte	0x31
 4540 0898 9F       		.byte	0x9f
 4541 0899 A0020000 		.4byte	.LVL126
 4542 089d AE020000 		.4byte	.LVL128
 4543 08a1 0200     		.2byte	0x2
 4544 08a3 31       		.byte	0x31
 4545 08a4 9F       		.byte	0x9f
 4546 08a5 AE020000 		.4byte	.LVL128
 4547 08a9 B4020000 		.4byte	.LVL130
 4548 08ad 0100     		.2byte	0x1
 4549 08af 54       		.byte	0x54
 4550 08b0 00000000 		.4byte	0
 4551 08b4 00000000 		.4byte	0
 4552              	.LLST21:
 4553 08b8 82000000 		.4byte	.LVL43
 4554 08bc 90000000 		.4byte	.LVL45
 4555 08c0 0100     		.2byte	0x1
 4556 08c2 53       		.byte	0x53
 4557 08c3 90000000 		.4byte	.LVL45
 4558 08c7 96000000 		.4byte	.LVL46
 4559 08cb 0300     		.2byte	0x3
 4560 08cd 73       		.byte	0x73
 4561 08ce 01       		.sleb128 1
 4562 08cf 9F       		.byte	0x9f
 4563 08d0 9A000000 		.4byte	.LVL48
 4564 08d4 A8000000 		.4byte	.LVL51
 4565 08d8 0100     		.2byte	0x1
 4566 08da 53       		.byte	0x53
 4567 08db 00000000 		.4byte	0
 4568 08df 00000000 		.4byte	0
 4569              	.LLST22:
 4570 08e3 82000000 		.4byte	.LVL43
 4571 08e7 AE000000 		.4byte	.LVL52
 4572 08eb 0400     		.2byte	0x4
 4573 08ed 91       		.byte	0x91
 4574 08ee 907B     		.sleb128 -624
ARM GAS  C:\Users\ZHANGM~1\AppData\Local\Temp\ccNPBJtR.s 			page 111


 4575 08f0 9F       		.byte	0x9f
 4576 08f1 AE000000 		.4byte	.LVL52
 4577 08f5 EA000000 		.4byte	.LVL58
 4578 08f9 0100     		.2byte	0x1
 4579 08fb 57       		.byte	0x57
 4580 08fc EA000000 		.4byte	.LVL58
 4581 0900 1C010000 		.4byte	.LVL66
 4582 0904 0400     		.2byte	0x4
 4583 0906 91       		.byte	0x91
 4584 0907 907B     		.sleb128 -624
 4585 0909 9F       		.byte	0x9f
 4586 090a 8C010000 		.4byte	.LVL80
 4587 090e C2010000 		.4byte	.LVL87
 4588 0912 0400     		.2byte	0x4
 4589 0914 91       		.byte	0x91
 4590 0915 907B     		.sleb128 -624
 4591 0917 9F       		.byte	0x9f
 4592 0918 C2010000 		.4byte	.LVL87
 4593 091c FE010000 		.4byte	.LVL93
 4594 0920 0100     		.2byte	0x1
 4595 0922 57       		.byte	0x57
 4596 0923 FE010000 		.4byte	.LVL93
 4597 0927 16020000 		.4byte	.LVL98
 4598 092b 0400     		.2byte	0x4
 4599 092d 91       		.byte	0x91
 4600 092e 907B     		.sleb128 -624
 4601 0930 9F       		.byte	0x9f
 4602 0931 16020000 		.4byte	.LVL98
 4603 0935 24020000 		.4byte	.LVL100
 4604 0939 0100     		.2byte	0x1
 4605 093b 57       		.byte	0x57
 4606 093c 24020000 		.4byte	.LVL100
 4607 0940 32020000 		.4byte	.LVL102
 4608 0944 0400     		.2byte	0x4
 4609 0946 91       		.byte	0x91
 4610 0947 907B     		.sleb128 -624
 4611 0949 9F       		.byte	0x9f
 4612 094a 32020000 		.4byte	.LVL102
 4613 094e 44020000 		.4byte	.LVL105
 4614 0952 0100     		.2byte	0x1
 4615 0954 57       		.byte	0x57
 4616 0955 44020000 		.4byte	.LVL105
 4617 0959 7A020000 		.4byte	.LVL116
 4618 095d 0400     		.2byte	0x4
 4619 095f 91       		.byte	0x91
 4620 0960 907B     		.sleb128 -624
 4621 0962 9F       		.byte	0x9f
 4622 0963 7A020000 		.4byte	.LVL116
 4623 0967 94020000 		.4byte	.LVL122
 4624 096b 0100     		.2byte	0x1
 4625 096d 57       		.byte	0x57
 4626 096e 94020000 		.4byte	.LVL122
 4627 0972 98020000 		.4byte	.LVL124
 4628 0976 0400     		.2byte	0x4
 4629 0978 91       		.byte	0x91
 4630 0979 907B     		.sleb128 -624
 4631 097b 9F       		.byte	0x9f
ARM GAS  C:\Users\ZHANGM~1\AppData\Local\Temp\ccNPBJtR.s 			page 112


 4632 097c A0020000 		.4byte	.LVL126
 4633 0980 AE020000 		.4byte	.LVL128
 4634 0984 0100     		.2byte	0x1
 4635 0986 57       		.byte	0x57
 4636 0987 00000000 		.4byte	0
 4637 098b 00000000 		.4byte	0
 4638              	.LLST23:
 4639 098f 82000000 		.4byte	.LVL43
 4640 0993 84000000 		.4byte	.LVL44
 4641 0997 0200     		.2byte	0x2
 4642 0999 30       		.byte	0x30
 4643 099a 9F       		.byte	0x9f
 4644 099b 84000000 		.4byte	.LVL44
 4645 099f 98000000 		.4byte	.LVL47
 4646 09a3 0100     		.2byte	0x1
 4647 09a5 52       		.byte	0x52
 4648 09a6 9A000000 		.4byte	.LVL48
 4649 09aa A0000000 		.4byte	.LVL49
 4650 09ae 0100     		.2byte	0x1
 4651 09b0 52       		.byte	0x52
 4652 09b1 A0000000 		.4byte	.LVL49
 4653 09b5 C6000000 		.4byte	.LVL54
 4654 09b9 0400     		.2byte	0x4
 4655 09bb 72       		.byte	0x72
 4656 09bc 00       		.sleb128 0
 4657 09bd 1F       		.byte	0x1f
 4658 09be 9F       		.byte	0x9f
 4659 09bf 8C010000 		.4byte	.LVL80
 4660 09c3 B9010000 		.4byte	.LVL85-1
 4661 09c7 0400     		.2byte	0x4
 4662 09c9 72       		.byte	0x72
 4663 09ca 00       		.sleb128 0
 4664 09cb 1F       		.byte	0x1f
 4665 09cc 9F       		.byte	0x9f
 4666 09cd C2010000 		.4byte	.LVL87
 4667 09d1 D8010000 		.4byte	.LVL89
 4668 09d5 0400     		.2byte	0x4
 4669 09d7 72       		.byte	0x72
 4670 09d8 00       		.sleb128 0
 4671 09d9 1F       		.byte	0x1f
 4672 09da 9F       		.byte	0x9f
 4673 09db E6010000 		.4byte	.LVL91
 4674 09df 06020000 		.4byte	.LVL95
 4675 09e3 0400     		.2byte	0x4
 4676 09e5 72       		.byte	0x72
 4677 09e6 00       		.sleb128 0
 4678 09e7 1F       		.byte	0x1f
 4679 09e8 9F       		.byte	0x9f
 4680 09e9 16020000 		.4byte	.LVL98
 4681 09ed 1E020000 		.4byte	.LVL99
 4682 09f1 0400     		.2byte	0x4
 4683 09f3 72       		.byte	0x72
 4684 09f4 00       		.sleb128 0
 4685 09f5 1F       		.byte	0x1f
 4686 09f6 9F       		.byte	0x9f
 4687 09f7 32020000 		.4byte	.LVL102
 4688 09fb 3E020000 		.4byte	.LVL103
ARM GAS  C:\Users\ZHANGM~1\AppData\Local\Temp\ccNPBJtR.s 			page 113


 4689 09ff 0400     		.2byte	0x4
 4690 0a01 72       		.byte	0x72
 4691 0a02 00       		.sleb128 0
 4692 0a03 1F       		.byte	0x1f
 4693 0a04 9F       		.byte	0x9f
 4694 0a05 7A020000 		.4byte	.LVL116
 4695 0a09 7D020000 		.4byte	.LVL117-1
 4696 0a0d 0400     		.2byte	0x4
 4697 0a0f 72       		.byte	0x72
 4698 0a10 00       		.sleb128 0
 4699 0a11 1F       		.byte	0x1f
 4700 0a12 9F       		.byte	0x9f
 4701 0a13 A0020000 		.4byte	.LVL126
 4702 0a17 AE020000 		.4byte	.LVL128
 4703 0a1b 0400     		.2byte	0x4
 4704 0a1d 72       		.byte	0x72
 4705 0a1e 00       		.sleb128 0
 4706 0a1f 1F       		.byte	0x1f
 4707 0a20 9F       		.byte	0x9f
 4708 0a21 00000000 		.4byte	0
 4709 0a25 00000000 		.4byte	0
 4710              	.LLST24:
 4711 0a29 AE000000 		.4byte	.LVL52
 4712 0a2d C9000000 		.4byte	.LVL55-1
 4713 0a31 0200     		.2byte	0x2
 4714 0a33 77       		.byte	0x77
 4715 0a34 04       		.sleb128 4
 4716 0a35 92010000 		.4byte	.LVL81
 4717 0a39 B9010000 		.4byte	.LVL85-1
 4718 0a3d 0300     		.2byte	0x3
 4719 0a3f 91       		.byte	0x91
 4720 0a40 947B     		.sleb128 -620
 4721 0a42 C2010000 		.4byte	.LVL87
 4722 0a46 FE010000 		.4byte	.LVL93
 4723 0a4a 0200     		.2byte	0x2
 4724 0a4c 77       		.byte	0x77
 4725 0a4d 04       		.sleb128 4
 4726 0a4e FE010000 		.4byte	.LVL93
 4727 0a52 0F020000 		.4byte	.LVL96-1
 4728 0a56 0300     		.2byte	0x3
 4729 0a58 91       		.byte	0x91
 4730 0a59 947B     		.sleb128 -620
 4731 0a5b 16020000 		.4byte	.LVL98
 4732 0a5f 24020000 		.4byte	.LVL100
 4733 0a63 0200     		.2byte	0x2
 4734 0a65 77       		.byte	0x77
 4735 0a66 04       		.sleb128 4
 4736 0a67 24020000 		.4byte	.LVL100
 4737 0a6b 32020000 		.4byte	.LVL102
 4738 0a6f 0300     		.2byte	0x3
 4739 0a71 91       		.byte	0x91
 4740 0a72 947B     		.sleb128 -620
 4741 0a74 32020000 		.4byte	.LVL102
 4742 0a78 44020000 		.4byte	.LVL105
 4743 0a7c 0200     		.2byte	0x2
 4744 0a7e 77       		.byte	0x77
 4745 0a7f 04       		.sleb128 4
ARM GAS  C:\Users\ZHANGM~1\AppData\Local\Temp\ccNPBJtR.s 			page 114


 4746 0a80 44020000 		.4byte	.LVL105
 4747 0a84 74020000 		.4byte	.LVL115
 4748 0a88 0300     		.2byte	0x3
 4749 0a8a 91       		.byte	0x91
 4750 0a8b 947B     		.sleb128 -620
 4751 0a8d 7A020000 		.4byte	.LVL116
 4752 0a91 7D020000 		.4byte	.LVL117-1
 4753 0a95 0200     		.2byte	0x2
 4754 0a97 77       		.byte	0x77
 4755 0a98 04       		.sleb128 4
 4756 0a99 A0020000 		.4byte	.LVL126
 4757 0a9d AE020000 		.4byte	.LVL128
 4758 0aa1 0200     		.2byte	0x2
 4759 0aa3 77       		.byte	0x77
 4760 0aa4 04       		.sleb128 4
 4761 0aa5 00000000 		.4byte	0
 4762 0aa9 00000000 		.4byte	0
 4763              	.LLST25:
 4764 0aad D8010000 		.4byte	.LVL89
 4765 0ab1 E6010000 		.4byte	.LVL91
 4766 0ab5 0100     		.2byte	0x1
 4767 0ab7 52       		.byte	0x52
 4768 0ab8 00000000 		.4byte	0
 4769 0abc 00000000 		.4byte	0
 4770              	.LLST26:
 4771 0ac0 42020000 		.4byte	.LVL104
 4772 0ac4 66020000 		.4byte	.LVL111
 4773 0ac8 0100     		.2byte	0x1
 4774 0aca 50       		.byte	0x50
 4775 0acb 66020000 		.4byte	.LVL111
 4776 0acf 74020000 		.4byte	.LVL115
 4777 0ad3 1400     		.2byte	0x14
 4778 0ad5 91       		.byte	0x91
 4779 0ad6 967B     		.sleb128 -618
 4780 0ad8 94       		.byte	0x94
 4781 0ad9 01       		.byte	0x1
 4782 0ada 08       		.byte	0x8
 4783 0adb FF       		.byte	0xff
 4784 0adc 1A       		.byte	0x1a
 4785 0add 38       		.byte	0x38
 4786 0ade 24       		.byte	0x24
 4787 0adf 91       		.byte	0x91
 4788 0ae0 957B     		.sleb128 -619
 4789 0ae2 94       		.byte	0x94
 4790 0ae3 01       		.byte	0x1
 4791 0ae4 08       		.byte	0x8
 4792 0ae5 FF       		.byte	0xff
 4793 0ae6 1A       		.byte	0x1a
 4794 0ae7 21       		.byte	0x21
 4795 0ae8 9F       		.byte	0x9f
 4796 0ae9 00000000 		.4byte	0
 4797 0aed 00000000 		.4byte	0
 4798              	.LLST27:
 4799 0af1 48020000 		.4byte	.LVL106
 4800 0af5 6A020000 		.4byte	.LVL112
 4801 0af9 0100     		.2byte	0x1
 4802 0afb 57       		.byte	0x57
ARM GAS  C:\Users\ZHANGM~1\AppData\Local\Temp\ccNPBJtR.s 			page 115


 4803 0afc 6A020000 		.4byte	.LVL112
 4804 0b00 74020000 		.4byte	.LVL115
 4805 0b04 2100     		.2byte	0x21
 4806 0b06 91       		.byte	0x91
 4807 0b07 967B     		.sleb128 -618
 4808 0b09 94       		.byte	0x94
 4809 0b0a 01       		.byte	0x1
 4810 0b0b 08       		.byte	0x8
 4811 0b0c FF       		.byte	0xff
 4812 0b0d 1A       		.byte	0x1a
 4813 0b0e 38       		.byte	0x38
 4814 0b0f 24       		.byte	0x24
 4815 0b10 91       		.byte	0x91
 4816 0b11 957B     		.sleb128 -619
 4817 0b13 94       		.byte	0x94
 4818 0b14 01       		.byte	0x1
 4819 0b15 08       		.byte	0x8
 4820 0b16 FF       		.byte	0xff
 4821 0b17 1A       		.byte	0x1a
 4822 0b18 21       		.byte	0x21
 4823 0b19 91       		.byte	0x91
 4824 0b1a 947B     		.sleb128 -620
 4825 0b1c 94       		.byte	0x94
 4826 0b1d 01       		.byte	0x1
 4827 0b1e 08       		.byte	0x8
 4828 0b1f FF       		.byte	0xff
 4829 0b20 1A       		.byte	0x1a
 4830 0b21 38       		.byte	0x38
 4831 0b22 24       		.byte	0x24
 4832 0b23 22       		.byte	0x22
 4833 0b24 37       		.byte	0x37
 4834 0b25 24       		.byte	0x24
 4835 0b26 9F       		.byte	0x9f
 4836 0b27 00000000 		.4byte	0
 4837 0b2b 00000000 		.4byte	0
 4838              	.LLST28:
 4839 0b2f 6A020000 		.4byte	.LVL112
 4840 0b33 6E020000 		.4byte	.LVL114
 4841 0b37 0100     		.2byte	0x1
 4842 0b39 57       		.byte	0x57
 4843 0b3a 6E020000 		.4byte	.LVL114
 4844 0b3e 74020000 		.4byte	.LVL115
 4845 0b42 0100     		.2byte	0x1
 4846 0b44 52       		.byte	0x52
 4847 0b45 00000000 		.4byte	0
 4848 0b49 00000000 		.4byte	0
 4849              	.LLST29:
 4850 0b4d 48020000 		.4byte	.LVL106
 4851 0b51 4C020000 		.4byte	.LVL107
 4852 0b55 0300     		.2byte	0x3
 4853 0b57 08       		.byte	0x8
 4854 0b58 80       		.byte	0x80
 4855 0b59 9F       		.byte	0x9f
 4856 0b5a 4E020000 		.4byte	.LVL108
 4857 0b5e 64020000 		.4byte	.LVL110
 4858 0b62 0100     		.2byte	0x1
 4859 0b64 51       		.byte	0x51
ARM GAS  C:\Users\ZHANGM~1\AppData\Local\Temp\ccNPBJtR.s 			page 116


 4860 0b65 00000000 		.4byte	0
 4861 0b69 00000000 		.4byte	0
 4862              	.LLST31:
 4863 0b6d 48020000 		.4byte	.LVL106
 4864 0b71 4C020000 		.4byte	.LVL107
 4865 0b75 0200     		.2byte	0x2
 4866 0b77 30       		.byte	0x30
 4867 0b78 9F       		.byte	0x9f
 4868 0b79 54020000 		.4byte	.LVL109
 4869 0b7d 6C020000 		.4byte	.LVL113
 4870 0b81 0100     		.2byte	0x1
 4871 0b83 52       		.byte	0x52
 4872 0b84 00000000 		.4byte	0
 4873 0b88 00000000 		.4byte	0
 4874              	.LLST32:
 4875 0b8c 1E010000 		.4byte	.LVL67
 4876 0b90 20010000 		.4byte	.LVL68
 4877 0b94 0400     		.2byte	0x4
 4878 0b96 91       		.byte	0x91
 4879 0b97 907B     		.sleb128 -624
 4880 0b99 9F       		.byte	0x9f
 4881 0b9a 20010000 		.4byte	.LVL68
 4882 0b9e 38010000 		.4byte	.LVL70
 4883 0ba2 0100     		.2byte	0x1
 4884 0ba4 57       		.byte	0x57
 4885 0ba5 38010000 		.4byte	.LVL70
 4886 0ba9 72010000 		.4byte	.LVL77
 4887 0bad 0400     		.2byte	0x4
 4888 0baf 91       		.byte	0x91
 4889 0bb0 907B     		.sleb128 -624
 4890 0bb2 9F       		.byte	0x9f
 4891 0bb3 72010000 		.4byte	.LVL77
 4892 0bb7 79010000 		.4byte	.LVL78-1
 4893 0bbb 0100     		.2byte	0x1
 4894 0bbd 50       		.byte	0x50
 4895 0bbe 79010000 		.4byte	.LVL78-1
 4896 0bc2 7A010000 		.4byte	.LVL78
 4897 0bc6 0400     		.2byte	0x4
 4898 0bc8 91       		.byte	0x91
 4899 0bc9 907B     		.sleb128 -624
 4900 0bcb 9F       		.byte	0x9f
 4901 0bcc 00000000 		.4byte	0
 4902 0bd0 00000000 		.4byte	0
 4903              	.LLST33:
 4904 0bd4 1E010000 		.4byte	.LVL67
 4905 0bd8 26010000 		.4byte	.LVL69
 4906 0bdc 0100     		.2byte	0x1
 4907 0bde 53       		.byte	0x53
 4908 0bdf 00000000 		.4byte	0
 4909 0be3 00000000 		.4byte	0
 4910              	.LLST34:
 4911 0be7 4A010000 		.4byte	.LVL71
 4912 0beb 50010000 		.4byte	.LVL72
 4913 0bef 0100     		.2byte	0x1
 4914 0bf1 53       		.byte	0x53
 4915 0bf2 00000000 		.4byte	0
 4916 0bf6 00000000 		.4byte	0
ARM GAS  C:\Users\ZHANGM~1\AppData\Local\Temp\ccNPBJtR.s 			page 117


 4917              	.LLST35:
 4918 0bfa 38010000 		.4byte	.LVL70
 4919 0bfe 72010000 		.4byte	.LVL77
 4920 0c02 0400     		.2byte	0x4
 4921 0c04 91       		.byte	0x91
 4922 0c05 907B     		.sleb128 -624
 4923 0c07 9F       		.byte	0x9f
 4924 0c08 72010000 		.4byte	.LVL77
 4925 0c0c 79010000 		.4byte	.LVL78-1
 4926 0c10 0100     		.2byte	0x1
 4927 0c12 50       		.byte	0x50
 4928 0c13 79010000 		.4byte	.LVL78-1
 4929 0c17 7A010000 		.4byte	.LVL78
 4930 0c1b 0400     		.2byte	0x4
 4931 0c1d 91       		.byte	0x91
 4932 0c1e 907B     		.sleb128 -624
 4933 0c20 9F       		.byte	0x9f
 4934 0c21 00000000 		.4byte	0
 4935 0c25 00000000 		.4byte	0
 4936              	.LLST36:
 4937 0c29 4A010000 		.4byte	.LVL71
 4938 0c2d 58010000 		.4byte	.LVL73
 4939 0c31 0100     		.2byte	0x1
 4940 0c33 52       		.byte	0x52
 4941 0c34 58010000 		.4byte	.LVL73
 4942 0c38 5A010000 		.4byte	.LVL74
 4943 0c3c 0400     		.2byte	0x4
 4944 0c3e 70       		.byte	0x70
 4945 0c3f 00       		.sleb128 0
 4946 0c40 1F       		.byte	0x1f
 4947 0c41 9F       		.byte	0x9f
 4948 0c42 00000000 		.4byte	0
 4949 0c46 00000000 		.4byte	0
 4950              	.LLST37:
 4951 0c4a 00000000 		.4byte	.LFB35
 4952 0c4e 04000000 		.4byte	.LCFI4
 4953 0c52 0200     		.2byte	0x2
 4954 0c54 7D       		.byte	0x7d
 4955 0c55 00       		.sleb128 0
 4956 0c56 04000000 		.4byte	.LCFI4
 4957 0c5a 60000000 		.4byte	.LFE35
 4958 0c5e 0200     		.2byte	0x2
 4959 0c60 7D       		.byte	0x7d
 4960 0c61 08       		.sleb128 8
 4961 0c62 00000000 		.4byte	0
 4962 0c66 00000000 		.4byte	0
 4963              	.LLST38:
 4964 0c6a 1E000000 		.4byte	.LVL135
 4965 0c6e 20000000 		.4byte	.LVL136
 4966 0c72 0700     		.2byte	0x7
 4967 0c74 72       		.byte	0x72
 4968 0c75 00       		.sleb128 0
 4969 0c76 74       		.byte	0x74
 4970 0c77 00       		.sleb128 0
 4971 0c78 1C       		.byte	0x1c
 4972 0c79 1F       		.byte	0x1f
 4973 0c7a 9F       		.byte	0x9f
ARM GAS  C:\Users\ZHANGM~1\AppData\Local\Temp\ccNPBJtR.s 			page 118


 4974 0c7b 00000000 		.4byte	0
 4975 0c7f 00000000 		.4byte	0
 4976              	.LLST39:
 4977 0c83 34000000 		.4byte	.LVL138
 4978 0c87 42000000 		.4byte	.LVL139
 4979 0c8b 0100     		.2byte	0x1
 4980 0c8d 50       		.byte	0x50
 4981 0c8e 00000000 		.4byte	0
 4982 0c92 00000000 		.4byte	0
 4983              	.LLST40:
 4984 0c96 0A000000 		.4byte	.LVL131
 4985 0c9a 0C000000 		.4byte	.LVL132
 4986 0c9e 0400     		.2byte	0x4
 4987 0ca0 71       		.byte	0x71
 4988 0ca1 C07E     		.sleb128 -192
 4989 0ca3 9F       		.byte	0x9f
 4990 0ca4 00000000 		.4byte	0
 4991 0ca8 00000000 		.4byte	0
 4992              	.LLST41:
 4993 0cac 0A000000 		.4byte	.LVL131
 4994 0cb0 0C000000 		.4byte	.LVL132
 4995 0cb4 0200     		.2byte	0x2
 4996 0cb6 30       		.byte	0x30
 4997 0cb7 9F       		.byte	0x9f
 4998 0cb8 0C000000 		.4byte	.LVL132
 4999 0cbc 16000000 		.4byte	.LVL133
 5000 0cc0 0100     		.2byte	0x1
 5001 0cc2 52       		.byte	0x52
 5002 0cc3 18000000 		.4byte	.LVL134
 5003 0cc7 20000000 		.4byte	.LVL136
 5004 0ccb 0100     		.2byte	0x1
 5005 0ccd 52       		.byte	0x52
 5006 0cce 00000000 		.4byte	0
 5007 0cd2 00000000 		.4byte	0
 5008              	.LLST42:
 5009 0cd6 00000000 		.4byte	.LFB37
 5010 0cda 02000000 		.4byte	.LCFI5
 5011 0cde 0200     		.2byte	0x2
 5012 0ce0 7D       		.byte	0x7d
 5013 0ce1 00       		.sleb128 0
 5014 0ce2 02000000 		.4byte	.LCFI5
 5015 0ce6 38000000 		.4byte	.LFE37
 5016 0cea 0200     		.2byte	0x2
 5017 0cec 7D       		.byte	0x7d
 5018 0ced 08       		.sleb128 8
 5019 0cee 00000000 		.4byte	0
 5020 0cf2 00000000 		.4byte	0
 5021              	.LLST43:
 5022 0cf6 00000000 		.4byte	.LFB42
 5023 0cfa 02000000 		.4byte	.LCFI6
 5024 0cfe 0200     		.2byte	0x2
 5025 0d00 7D       		.byte	0x7d
 5026 0d01 00       		.sleb128 0
 5027 0d02 02000000 		.4byte	.LCFI6
 5028 0d06 0E000000 		.4byte	.LCFI7
 5029 0d0a 0200     		.2byte	0x2
 5030 0d0c 7D       		.byte	0x7d
ARM GAS  C:\Users\ZHANGM~1\AppData\Local\Temp\ccNPBJtR.s 			page 119


 5031 0d0d 10       		.sleb128 16
 5032 0d0e 0E000000 		.4byte	.LCFI7
 5033 0d12 2E000000 		.4byte	.LFE42
 5034 0d16 0300     		.2byte	0x3
 5035 0d18 7D       		.byte	0x7d
 5036 0d19 9001     		.sleb128 144
 5037 0d1b 00000000 		.4byte	0
 5038 0d1f 00000000 		.4byte	0
 5039              	.LLST44:
 5040 0d23 00000000 		.4byte	.LVL146
 5041 0d27 08000000 		.4byte	.LVL147
 5042 0d2b 0100     		.2byte	0x1
 5043 0d2d 50       		.byte	0x50
 5044 0d2e 08000000 		.4byte	.LVL147
 5045 0d32 22000000 		.4byte	.LVL151
 5046 0d36 0100     		.2byte	0x1
 5047 0d38 52       		.byte	0x52
 5048 0d39 22000000 		.4byte	.LVL151
 5049 0d3d 2E000000 		.4byte	.LFE42
 5050 0d41 0400     		.2byte	0x4
 5051 0d43 F3       		.byte	0xf3
 5052 0d44 01       		.uleb128 0x1
 5053 0d45 50       		.byte	0x50
 5054 0d46 9F       		.byte	0x9f
 5055 0d47 00000000 		.4byte	0
 5056 0d4b 00000000 		.4byte	0
 5057              	.LLST45:
 5058 0d4f 00000000 		.4byte	.LVL146
 5059 0d53 26000000 		.4byte	.LVL152
 5060 0d57 0100     		.2byte	0x1
 5061 0d59 51       		.byte	0x51
 5062 0d5a 26000000 		.4byte	.LVL152
 5063 0d5e 29000000 		.4byte	.LVL153-1
 5064 0d62 0500     		.2byte	0x5
 5065 0d64 71       		.byte	0x71
 5066 0d65 00       		.sleb128 0
 5067 0d66 72       		.byte	0x72
 5068 0d67 00       		.sleb128 0
 5069 0d68 22       		.byte	0x22
 5070 0d69 29000000 		.4byte	.LVL153-1
 5071 0d6d 2E000000 		.4byte	.LFE42
 5072 0d71 0400     		.2byte	0x4
 5073 0d73 F3       		.byte	0xf3
 5074 0d74 01       		.uleb128 0x1
 5075 0d75 51       		.byte	0x51
 5076 0d76 9F       		.byte	0x9f
 5077 0d77 00000000 		.4byte	0
 5078 0d7b 00000000 		.4byte	0
 5079              	.LLST47:
 5080 0d7f 10000000 		.4byte	.LVL148
 5081 0d83 29000000 		.4byte	.LVL153-1
 5082 0d87 0100     		.2byte	0x1
 5083 0d89 50       		.byte	0x50
 5084 0d8a 29000000 		.4byte	.LVL153-1
 5085 0d8e 2E000000 		.4byte	.LFE42
 5086 0d92 0800     		.2byte	0x8
 5087 0d94 F3       		.byte	0xf3
ARM GAS  C:\Users\ZHANGM~1\AppData\Local\Temp\ccNPBJtR.s 			page 120


 5088 0d95 01       		.uleb128 0x1
 5089 0d96 50       		.byte	0x50
 5090 0d97 41       		.byte	0x41
 5091 0d98 24       		.byte	0x24
 5092 0d99 48       		.byte	0x48
 5093 0d9a 25       		.byte	0x25
 5094 0d9b 9F       		.byte	0x9f
 5095 0d9c 00000000 		.4byte	0
 5096 0da0 00000000 		.4byte	0
 5097              	.LLST48:
 5098 0da4 10000000 		.4byte	.LVL148
 5099 0da8 20000000 		.4byte	.LVL150
 5100 0dac 0100     		.2byte	0x1
 5101 0dae 55       		.byte	0x55
 5102 0daf 20000000 		.4byte	.LVL150
 5103 0db3 22000000 		.4byte	.LVL151
 5104 0db7 0700     		.2byte	0x7
 5105 0db9 75       		.byte	0x75
 5106 0dba 00       		.sleb128 0
 5107 0dbb 20       		.byte	0x20
 5108 0dbc 72       		.byte	0x72
 5109 0dbd 00       		.sleb128 0
 5110 0dbe 1A       		.byte	0x1a
 5111 0dbf 9F       		.byte	0x9f
 5112 0dc0 22000000 		.4byte	.LVL151
 5113 0dc4 2C000000 		.4byte	.LVL154
 5114 0dc8 0800     		.2byte	0x8
 5115 0dca 75       		.byte	0x75
 5116 0dcb 00       		.sleb128 0
 5117 0dcc 20       		.byte	0x20
 5118 0dcd F3       		.byte	0xf3
 5119 0dce 01       		.uleb128 0x1
 5120 0dcf 50       		.byte	0x50
 5121 0dd0 1A       		.byte	0x1a
 5122 0dd1 9F       		.byte	0x9f
 5123 0dd2 2C000000 		.4byte	.LVL154
 5124 0dd6 2E000000 		.4byte	.LFE42
 5125 0dda 0700     		.2byte	0x7
 5126 0ddc F3       		.byte	0xf3
 5127 0ddd 01       		.uleb128 0x1
 5128 0dde 50       		.byte	0x50
 5129 0ddf 09       		.byte	0x9
 5130 0de0 80       		.byte	0x80
 5131 0de1 1A       		.byte	0x1a
 5132 0de2 9F       		.byte	0x9f
 5133 0de3 00000000 		.4byte	0
 5134 0de7 00000000 		.4byte	0
 5135              	.LLST49:
 5136 0deb 10000000 		.4byte	.LVL148
 5137 0def 12000000 		.4byte	.LVL149
 5138 0df3 0200     		.2byte	0x2
 5139 0df5 30       		.byte	0x30
 5140 0df6 9F       		.byte	0x9f
 5141 0df7 00000000 		.4byte	0
 5142 0dfb 00000000 		.4byte	0
 5143              		.section	.debug_aranges,"",%progbits
 5144 0000 4C000000 		.4byte	0x4c
ARM GAS  C:\Users\ZHANGM~1\AppData\Local\Temp\ccNPBJtR.s 			page 121


 5145 0004 0200     		.2byte	0x2
 5146 0006 00000000 		.4byte	.Ldebug_info0
 5147 000a 04       		.byte	0x4
 5148 000b 00       		.byte	0
 5149 000c 0000     		.2byte	0
 5150 000e 0000     		.2byte	0
 5151 0010 00000000 		.4byte	.LFB38
 5152 0014 02000000 		.4byte	.LFE38-.LFB38
 5153 0018 00000000 		.4byte	.LFB44
 5154 001c 90000000 		.4byte	.LFE44-.LFB44
 5155 0020 00000000 		.4byte	.LFB45
 5156 0024 58000000 		.4byte	.LFE45-.LFB45
 5157 0028 00000000 		.4byte	.LFB40
 5158 002c E0020000 		.4byte	.LFE40-.LFB40
 5159 0030 00000000 		.4byte	.LFB35
 5160 0034 60000000 		.4byte	.LFE35-.LFB35
 5161 0038 00000000 		.4byte	.LFB37
 5162 003c 38000000 		.4byte	.LFE37-.LFB37
 5163 0040 00000000 		.4byte	.LFB42
 5164 0044 2E000000 		.4byte	.LFE42-.LFB42
 5165 0048 00000000 		.4byte	0
 5166 004c 00000000 		.4byte	0
 5167              		.section	.debug_ranges,"",%progbits
 5168              	.Ldebug_ranges0:
 5169 0000 84000000 		.4byte	.LBB17
 5170 0004 9C000000 		.4byte	.LBE17
 5171 0008 9E000000 		.4byte	.LBB20
 5172 000c A0000000 		.4byte	.LBE20
 5173 0010 00000000 		.4byte	0
 5174 0014 00000000 		.4byte	0
 5175 0018 84000000 		.4byte	.LBB18
 5176 001c 9C000000 		.4byte	.LBE18
 5177 0020 9E000000 		.4byte	.LBB19
 5178 0024 A0000000 		.4byte	.LBE19
 5179 0028 00000000 		.4byte	0
 5180 002c 00000000 		.4byte	0
 5181 0030 AE000000 		.4byte	.LBB21
 5182 0034 1E010000 		.4byte	.LBE21
 5183 0038 8C010000 		.4byte	.LBB36
 5184 003c 98020000 		.4byte	.LBE36
 5185 0040 00000000 		.4byte	0
 5186 0044 00000000 		.4byte	0
 5187 0048 38010000 		.4byte	.LBB30
 5188 004c 4E010000 		.4byte	.LBE30
 5189 0050 52010000 		.4byte	.LBB34
 5190 0054 54010000 		.4byte	.LBE34
 5191 0058 56010000 		.4byte	.LBB35
 5192 005c 58010000 		.4byte	.LBE35
 5193 0060 00000000 		.4byte	0
 5194 0064 00000000 		.4byte	0
 5195 0068 38010000 		.4byte	.LBB31
 5196 006c 4E010000 		.4byte	.LBE31
 5197 0070 52010000 		.4byte	.LBB32
 5198 0074 54010000 		.4byte	.LBE32
 5199 0078 56010000 		.4byte	.LBB33
 5200 007c 58010000 		.4byte	.LBE33
 5201 0080 00000000 		.4byte	0
ARM GAS  C:\Users\ZHANGM~1\AppData\Local\Temp\ccNPBJtR.s 			page 122


 5202 0084 00000000 		.4byte	0
 5203 0088 4E000000 		.4byte	.LBB43
 5204 008c 52000000 		.4byte	.LBE43
 5205 0090 52000000 		.4byte	.LBB46
 5206 0094 56000000 		.4byte	.LBE46
 5207 0098 00000000 		.4byte	0
 5208 009c 00000000 		.4byte	0
 5209 00a0 00000000 		.4byte	.LFB38
 5210 00a4 02000000 		.4byte	.LFE38
 5211 00a8 00000000 		.4byte	.LFB44
 5212 00ac 90000000 		.4byte	.LFE44
 5213 00b0 00000000 		.4byte	.LFB45
 5214 00b4 58000000 		.4byte	.LFE45
 5215 00b8 00000000 		.4byte	.LFB40
 5216 00bc E0020000 		.4byte	.LFE40
 5217 00c0 00000000 		.4byte	.LFB35
 5218 00c4 60000000 		.4byte	.LFE35
 5219 00c8 00000000 		.4byte	.LFB37
 5220 00cc 38000000 		.4byte	.LFE37
 5221 00d0 00000000 		.4byte	.LFB42
 5222 00d4 2E000000 		.4byte	.LFE42
 5223 00d8 00000000 		.4byte	0
 5224 00dc 00000000 		.4byte	0
 5225              		.section	.debug_line,"",%progbits
 5226              	.Ldebug_line0:
 5227 0000 37030000 		.section	.debug_str,"MS",%progbits,1
 5227      02008500 
 5227      00000201 
 5227      FB0E0D00 
 5227      01010101 
 5228              	.LASF52:
 5229 0000 74696D65 		.ascii	"timeOutCnt\000"
 5229      4F757443 
 5229      6E7400
 5230              	.LASF32:
 5231 000b 63757242 		.ascii	"curByte\000"
 5231      79746500 
 5232              	.LASF10:
 5233 0013 75696E74 		.ascii	"uint16\000"
 5233      313600
 5234              	.LASF71:
 5235 001a 62617365 		.ascii	"baseAddr\000"
 5235      41646472 
 5235      00
 5236              	.LASF57:
 5237 0023 62746C64 		.ascii	"btldrData\000"
 5237      72446174 
 5237      6100
 5238              	.LASF46:
 5239 002d 72737053 		.ascii	"rspSize\000"
 5239      697A6500 
 5240              	.LASF40:
 5241 0035 63686563 		.ascii	"checksum\000"
 5241      6B73756D 
 5241      00
 5242              	.LASF54:
 5243 003e 636F6D6D 		.ascii	"communicationState\000"
ARM GAS  C:\Users\ZHANGM~1\AppData\Local\Temp\ccNPBJtR.s 			page 123


 5243      756E6963 
 5243      6174696F 
 5243      6E537461 
 5243      746500
 5244              	.LASF55:
 5245 0051 7061636B 		.ascii	"packetBuffer\000"
 5245      65744275 
 5245      66666572 
 5245      00
 5246              	.LASF61:
 5247 005e 726F774E 		.ascii	"rowNum\000"
 5247      756D00
 5248              	.LASF7:
 5249 0065 6C6F6E67 		.ascii	"long long unsigned int\000"
 5249      206C6F6E 
 5249      6720756E 
 5249      7369676E 
 5249      65642069 
 5250              	.LASF31:
 5251 007c 63616C63 		.ascii	"calcedChecksum\000"
 5251      65644368 
 5251      65636B73 
 5251      756D00
 5252              	.LASF63:
 5253 008b 746D7053 		.ascii	"tmpStatus\000"
 5253      74617475 
 5253      7300
 5254              	.LASF76:
 5255 0095 63794274 		.ascii	"cyBtldrRunType\000"
 5255      6C647252 
 5255      756E5479 
 5255      706500
 5256              	.LASF64:
 5257 00a4 426F6F74 		.ascii	"Bootloader_Start\000"
 5257      6C6F6164 
 5257      65725F53 
 5257      74617274 
 5257      00
 5258              	.LASF82:
 5259 00b5 4379536F 		.ascii	"CySoftwareReset\000"
 5259      66747761 
 5259      72655265 
 5259      73657400 
 5260              	.LASF38:
 5261 00c5 426F6F74 		.ascii	"Bootloader_WritePacket\000"
 5261      6C6F6164 
 5261      65725F57 
 5261      72697465 
 5261      5061636B 
 5262              	.LASF59:
 5263 00dc 73746172 		.ascii	"startRow\000"
 5263      74526F77 
 5263      00
 5264              	.LASF6:
 5265 00e5 6C6F6E67 		.ascii	"long long int\000"
 5265      206C6F6E 
 5265      6720696E 
ARM GAS  C:\Users\ZHANGM~1\AppData\Local\Temp\ccNPBJtR.s 			page 124


 5265      7400
 5266              	.LASF0:
 5267 00f3 7369676E 		.ascii	"signed char\000"
 5267      65642063 
 5267      68617200 
 5268              	.LASF39:
 5269 00ff 73746174 		.ascii	"status\000"
 5269      757300
 5270              	.LASF47:
 5271 0106 61636B43 		.ascii	"ackCode\000"
 5271      6F646500 
 5272              	.LASF35:
 5273 010e 73697A65 		.ascii	"size\000"
 5273      00
 5274              	.LASF58:
 5275 0113 65726173 		.ascii	"erase\000"
 5275      6500
 5276              	.LASF45:
 5277 0119 6E756D62 		.ascii	"numberRead\000"
 5277      65725265 
 5277      616400
 5278              	.LASF4:
 5279 0124 6C6F6E67 		.ascii	"long int\000"
 5279      20696E74 
 5279      00
 5280              	.LASF81:
 5281 012d 43794274 		.ascii	"CyBtldrCommWrite\000"
 5281      6C647243 
 5281      6F6D6D57 
 5281      72697465 
 5281      00
 5282              	.LASF79:
 5283 013e 6D656D63 		.ascii	"memcpy\000"
 5283      707900
 5284              	.LASF9:
 5285 0145 75696E74 		.ascii	"uint8\000"
 5285      3800
 5286              	.LASF13:
 5287 014b 646F7562 		.ascii	"double\000"
 5287      6C6500
 5288              	.LASF49:
 5289 0152 72656164 		.ascii	"readStat\000"
 5289      53746174 
 5289      00
 5290              	.LASF11:
 5291 015b 75696E74 		.ascii	"uint32\000"
 5291      333200
 5292              	.LASF28:
 5293 0162 426F6F74 		.ascii	"Bootloader_GetMetadata\000"
 5293      6C6F6164 
 5293      65725F47 
 5293      65744D65 
 5293      74616461 
 5294              	.LASF42:
 5295 0179 426F6F74 		.ascii	"Bootloader_HostLink\000"
 5295      6C6F6164 
 5295      65725F48 
ARM GAS  C:\Users\ZHANGM~1\AppData\Local\Temp\ccNPBJtR.s 			page 125


 5295      6F73744C 
 5295      696E6B00 
 5296              	.LASF65:
 5297 018d 43794274 		.ascii	"CyBtldr_CheckLaunch\000"
 5297      6C64725F 
 5297      43686563 
 5297      6B4C6175 
 5297      6E636800 
 5298              	.LASF56:
 5299 01a1 64617461 		.ascii	"dataBuffer\000"
 5299      42756666 
 5299      657200
 5300              	.LASF51:
 5301 01ac 64617461 		.ascii	"dataOffset\000"
 5301      4F666673 
 5301      657400
 5302              	.LASF8:
 5303 01b7 756E7369 		.ascii	"unsigned int\000"
 5303      676E6564 
 5303      20696E74 
 5303      00
 5304              	.LASF43:
 5305 01c4 61707041 		.ascii	"appAddr\000"
 5305      64647200 
 5306              	.LASF66:
 5307 01cc 426F6F74 		.ascii	"Bootloader_SetFlashByte\000"
 5307      6C6F6164 
 5307      65725F53 
 5307      6574466C 
 5307      61736842 
 5308              	.LASF5:
 5309 01e4 6C6F6E67 		.ascii	"long unsigned int\000"
 5309      20756E73 
 5309      69676E65 
 5309      6420696E 
 5309      7400
 5310              	.LASF33:
 5311 01f6 426F6F74 		.ascii	"Bootloader_CalcPacketChecksum\000"
 5311      6C6F6164 
 5311      65725F43 
 5311      616C6350 
 5311      61636B65 
 5312              	.LASF41:
 5313 0214 426F6F74 		.ascii	"Bootloader_LaunchBootloadable\000"
 5313      6C6F6164 
 5313      65725F4C 
 5313      61756E63 
 5313      68426F6F 
 5314              	.LASF3:
 5315 0232 73686F72 		.ascii	"short unsigned int\000"
 5315      7420756E 
 5315      7369676E 
 5315      65642069 
 5315      6E7400
 5316              	.LASF44:
 5317 0245 74696D65 		.ascii	"timeOut\000"
 5317      4F757400 
ARM GAS  C:\Users\ZHANGM~1\AppData\Local\Temp\ccNPBJtR.s 			page 126


 5318              	.LASF60:
 5319 024d 42746C64 		.ascii	"BtldrVersion\000"
 5319      72566572 
 5319      73696F6E 
 5319      00
 5320              	.LASF88:
 5321 025a 426F6F74 		.ascii	"Bootloader_LaunchApplication\000"
 5321      6C6F6164 
 5321      65725F4C 
 5321      61756E63 
 5321      68417070 
 5322              	.LASF17:
 5323 0277 72656733 		.ascii	"reg32\000"
 5323      3200
 5324              	.LASF21:
 5325 027d 73697A65 		.ascii	"sizetype\000"
 5325      74797065 
 5325      00
 5326              	.LASF26:
 5327 0286 6669656C 		.ascii	"fieldSize\000"
 5327      6453697A 
 5327      6500
 5328              	.LASF67:
 5329 0290 61646472 		.ascii	"address\000"
 5329      65737300 
 5330              	.LASF22:
 5331 0298 426F6F74 		.ascii	"Bootloader_ENTER\000"
 5331      6C6F6164 
 5331      65725F45 
 5331      4E544552 
 5331      00
 5332              	.LASF25:
 5333 02a9 6669656C 		.ascii	"fieldPtr\000"
 5333      64507472 
 5333      00
 5334              	.LASF12:
 5335 02b2 666C6F61 		.ascii	"float\000"
 5335      7400
 5336              	.LASF74:
 5337 02b8 426F6F74 		.ascii	"Bootloader_SizeBytes\000"
 5337      6C6F6164 
 5337      65725F53 
 5337      697A6542 
 5337      79746573 
 5338              	.LASF85:
 5339 02cd 474E5520 		.ascii	"GNU C 4.7.3 20130312 (release) [ARM/embedded-4_7-br"
 5339      4320342E 
 5339      372E3320 
 5339      32303133 
 5339      30333132 
 5340 0300 616E6368 		.ascii	"anch revision 196615]\000"
 5340      20726576 
 5340      6973696F 
 5340      6E203139 
 5340      36363135 
 5341              	.LASF16:
 5342 0316 72656738 		.ascii	"reg8\000"
ARM GAS  C:\Users\ZHANGM~1\AppData\Local\Temp\ccNPBJtR.s 			page 127


 5342      00
 5343              	.LASF24:
 5344 031b 61707049 		.ascii	"appId\000"
 5344      6400
 5345              	.LASF1:
 5346 0321 756E7369 		.ascii	"unsigned char\000"
 5346      676E6564 
 5346      20636861 
 5346      7200
 5347              	.LASF84:
 5348 032f 43794274 		.ascii	"CyBtldrCommRead\000"
 5348      6C647243 
 5348      6F6D6D52 
 5348      65616400 
 5349              	.LASF68:
 5350 033f 72756E54 		.ascii	"runType\000"
 5350      79706500 
 5351              	.LASF62:
 5352 0347 726F7741 		.ascii	"rowAddr\000"
 5352      64647200 
 5353              	.LASF2:
 5354 034f 73686F72 		.ascii	"short int\000"
 5354      7420696E 
 5354      7400
 5355              	.LASF83:
 5356 0359 43794274 		.ascii	"CyBtldrCommStart\000"
 5356      6C647243 
 5356      6F6D6D53 
 5356      74617274 
 5356      00
 5357              	.LASF30:
 5358 036a 76616C69 		.ascii	"valid\000"
 5358      6400
 5359              	.LASF29:
 5360 0370 426F6F74 		.ascii	"Bootloader_ValidateBootloadable\000"
 5360      6C6F6164 
 5360      65725F56 
 5360      616C6964 
 5360      61746542 
 5361              	.LASF75:
 5362 0390 426F6F74 		.ascii	"Bootloader_SizeBytesAccess\000"
 5362      6C6F6164 
 5362      65725F53 
 5362      697A6542 
 5362      79746573 
 5363              	.LASF14:
 5364 03ab 63686172 		.ascii	"char\000"
 5364      00
 5365              	.LASF48:
 5366 03b0 706B7443 		.ascii	"pktChecksum\000"
 5366      6865636B 
 5366      73756D00 
 5367              	.LASF34:
 5368 03bc 62756666 		.ascii	"buffer\000"
 5368      657200
 5369              	.LASF23:
 5370 03c3 6669656C 		.ascii	"fieldName\000"
ARM GAS  C:\Users\ZHANGM~1\AppData\Local\Temp\ccNPBJtR.s 			page 128


 5370      644E616D 
 5370      6500
 5371              	.LASF19:
 5372 03cd 52657669 		.ascii	"Revision\000"
 5372      73696F6E 
 5372      00
 5373              	.LASF73:
 5374 03d6 426F6F74 		.ascii	"Bootloader_ChecksumAccess\000"
 5374      6C6F6164 
 5374      65725F43 
 5374      6865636B 
 5374      73756D41 
 5375              	.LASF18:
 5376 03f0 53696C69 		.ascii	"SiliconId\000"
 5376      636F6E49 
 5376      6400
 5377              	.LASF78:
 5378 03fa 6D656D73 		.ascii	"memset\000"
 5378      657400
 5379              	.LASF87:
 5380 0401 453A5C63 		.ascii	"E:\\code\\wifi\\1.6\\UartBootloader\\UART_Bootloade"
 5380      6F64655C 
 5380      77696669 
 5380      5C312E36 
 5380      5C556172 
 5381 042f 725C5541 		.ascii	"r\\UART_Bootloader.cydsn\000"
 5381      52545F42 
 5381      6F6F746C 
 5381      6F616465 
 5381      722E6379 
 5382              	.LASF36:
 5383 0447 426F6F74 		.ascii	"Bootloader_Calc8BitFlashSum\000"
 5383      6C6F6164 
 5383      65725F43 
 5383      616C6338 
 5383      42697446 
 5384              	.LASF20:
 5385 0463 426F6F74 		.ascii	"BootLoaderVersion\000"
 5385      4C6F6164 
 5385      65725665 
 5385      7273696F 
 5385      6E00
 5386              	.LASF80:
 5387 0475 43795379 		.ascii	"CySysFlashWriteRow\000"
 5387      73466C61 
 5387      73685772 
 5387      69746552 
 5387      6F7700
 5388              	.LASF69:
 5389 0488 666C7341 		.ascii	"flsAddr\000"
 5389      64647200 
 5390              	.LASF15:
 5391 0490 63797374 		.ascii	"cystatus\000"
 5391      61747573 
 5391      00
 5392              	.LASF50:
 5393 0499 706B7453 		.ascii	"pktSize\000"
ARM GAS  C:\Users\ZHANGM~1\AppData\Local\Temp\ccNPBJtR.s 			page 129


 5393      697A6500 
 5394              	.LASF70:
 5395 04a1 726F7744 		.ascii	"rowData\000"
 5395      61746100 
 5396              	.LASF53:
 5397 04a9 636C6561 		.ascii	"clearedMetaData\000"
 5397      7265644D 
 5397      65746144 
 5397      61746100 
 5398              	.LASF37:
 5399 04b9 73746172 		.ascii	"start\000"
 5399      7400
 5400              	.LASF86:
 5401 04bf 2E5C4765 		.ascii	".\\Generated_Source\\PSoC4\\Bootloader.c\000"
 5401      6E657261 
 5401      7465645F 
 5401      536F7572 
 5401      63655C50 
 5402              	.LASF77:
 5403 04e5 43794861 		.ascii	"CyHalt\000"
 5403      6C7400
 5404              	.LASF27:
 5405 04ec 72657375 		.ascii	"result\000"
 5405      6C7400
 5406              	.LASF72:
 5407 04f3 426F6F74 		.ascii	"Bootloader_Checksum\000"
 5407      6C6F6164 
 5407      65725F43 
 5407      6865636B 
 5407      73756D00 
 5408              		.ident	"GCC: (GNU Tools for ARM Embedded Processors) 4.7.3 20130312 (release) [ARM/embedded-4_7-br
