ARM GAS  C:\Users\ZHANGM~1\AppData\Local\Temp\ccn26lYd.s 			page 1


   1              		.cpu cortex-m0
   2              		.fpu softvfp
   3              		.eabi_attribute 20, 1
   4              		.eabi_attribute 21, 1
   5              		.eabi_attribute 23, 3
   6              		.eabi_attribute 24, 1
   7              		.eabi_attribute 25, 1
   8              		.eabi_attribute 26, 1
   9              		.eabi_attribute 30, 4
  10              		.eabi_attribute 34, 0
  11              		.eabi_attribute 18, 4
  12              		.code	16
  13              		.file	"UART_UART.c"
  14              		.text
  15              	.Ltext0:
  16              		.cfi_sections	.debug_frame
  17              		.section	.text.UART_UartInit,"ax",%progbits
  18              		.align	1
  19              		.global	UART_UartInit
  20              		.code	16
  21              		.thumb_func
  22              		.type	UART_UartInit, %function
  23              	UART_UartInit:
  24              	.LFB0:
  25              		.file 1 ".\\Generated_Source\\PSoC4\\UART_UART.c"
   1:.\Generated_Source\PSoC4/UART_UART.c **** /*******************************************************************************
   2:.\Generated_Source\PSoC4/UART_UART.c **** * File Name: UART_UART.c
   3:.\Generated_Source\PSoC4/UART_UART.c **** * Version 1.20
   4:.\Generated_Source\PSoC4/UART_UART.c **** *
   5:.\Generated_Source\PSoC4/UART_UART.c **** * Description:
   6:.\Generated_Source\PSoC4/UART_UART.c **** *  This file provides the source code to the API for the SCB Component in
   7:.\Generated_Source\PSoC4/UART_UART.c **** *  UART mode.
   8:.\Generated_Source\PSoC4/UART_UART.c **** *
   9:.\Generated_Source\PSoC4/UART_UART.c **** * Note:
  10:.\Generated_Source\PSoC4/UART_UART.c **** *
  11:.\Generated_Source\PSoC4/UART_UART.c **** *******************************************************************************
  12:.\Generated_Source\PSoC4/UART_UART.c **** * Copyright 2013-2014, Cypress Semiconductor Corporation.  All rights reserved.
  13:.\Generated_Source\PSoC4/UART_UART.c **** * You may use this file only in accordance with the license, terms, conditions,
  14:.\Generated_Source\PSoC4/UART_UART.c **** * disclaimers, and limitations in the end user license agreement accompanying
  15:.\Generated_Source\PSoC4/UART_UART.c **** * the software package with which this file was provided.
  16:.\Generated_Source\PSoC4/UART_UART.c **** *******************************************************************************/
  17:.\Generated_Source\PSoC4/UART_UART.c **** 
  18:.\Generated_Source\PSoC4/UART_UART.c **** #include "UART_PVT.h"
  19:.\Generated_Source\PSoC4/UART_UART.c **** #include "UART_SPI_UART_PVT.h"
  20:.\Generated_Source\PSoC4/UART_UART.c **** 
  21:.\Generated_Source\PSoC4/UART_UART.c **** 
  22:.\Generated_Source\PSoC4/UART_UART.c **** #if(UART_SCB_MODE_UNCONFIG_CONST_CFG)
  23:.\Generated_Source\PSoC4/UART_UART.c **** 
  24:.\Generated_Source\PSoC4/UART_UART.c ****     /***************************************
  25:.\Generated_Source\PSoC4/UART_UART.c ****     *  Config Structure Initialization
  26:.\Generated_Source\PSoC4/UART_UART.c ****     ***************************************/
  27:.\Generated_Source\PSoC4/UART_UART.c **** 
  28:.\Generated_Source\PSoC4/UART_UART.c ****     const UART_UART_INIT_STRUCT UART_configUart =
  29:.\Generated_Source\PSoC4/UART_UART.c ****     {
  30:.\Generated_Source\PSoC4/UART_UART.c ****         UART_UART_SUB_MODE,
  31:.\Generated_Source\PSoC4/UART_UART.c ****         UART_UART_DIRECTION,
  32:.\Generated_Source\PSoC4/UART_UART.c ****         UART_UART_DATA_BITS_NUM,
ARM GAS  C:\Users\ZHANGM~1\AppData\Local\Temp\ccn26lYd.s 			page 2


  33:.\Generated_Source\PSoC4/UART_UART.c ****         UART_UART_PARITY_TYPE,
  34:.\Generated_Source\PSoC4/UART_UART.c ****         UART_UART_STOP_BITS_NUM,
  35:.\Generated_Source\PSoC4/UART_UART.c ****         UART_UART_OVS_FACTOR,
  36:.\Generated_Source\PSoC4/UART_UART.c ****         UART_UART_IRDA_LOW_POWER,
  37:.\Generated_Source\PSoC4/UART_UART.c ****         UART_UART_MEDIAN_FILTER_ENABLE,
  38:.\Generated_Source\PSoC4/UART_UART.c ****         UART_UART_RETRY_ON_NACK,
  39:.\Generated_Source\PSoC4/UART_UART.c ****         UART_UART_IRDA_POLARITY,
  40:.\Generated_Source\PSoC4/UART_UART.c ****         UART_UART_DROP_ON_PARITY_ERR,
  41:.\Generated_Source\PSoC4/UART_UART.c ****         UART_UART_DROP_ON_FRAME_ERR,
  42:.\Generated_Source\PSoC4/UART_UART.c ****         UART_UART_WAKE_ENABLE,
  43:.\Generated_Source\PSoC4/UART_UART.c ****         0u,
  44:.\Generated_Source\PSoC4/UART_UART.c ****         NULL,
  45:.\Generated_Source\PSoC4/UART_UART.c ****         0u,
  46:.\Generated_Source\PSoC4/UART_UART.c ****         NULL,
  47:.\Generated_Source\PSoC4/UART_UART.c ****         UART_UART_MP_MODE_ENABLE,
  48:.\Generated_Source\PSoC4/UART_UART.c ****         UART_UART_MP_ACCEPT_ADDRESS,
  49:.\Generated_Source\PSoC4/UART_UART.c ****         UART_UART_MP_RX_ADDRESS,
  50:.\Generated_Source\PSoC4/UART_UART.c ****         UART_UART_MP_RX_ADDRESS_MASK,
  51:.\Generated_Source\PSoC4/UART_UART.c ****         (uint32) UART_SCB_IRQ_INTERNAL,
  52:.\Generated_Source\PSoC4/UART_UART.c ****         UART_UART_INTR_RX_MASK,
  53:.\Generated_Source\PSoC4/UART_UART.c ****         UART_UART_RX_TRIGGER_LEVEL,
  54:.\Generated_Source\PSoC4/UART_UART.c ****         UART_UART_INTR_TX_MASK,
  55:.\Generated_Source\PSoC4/UART_UART.c ****         UART_UART_TX_TRIGGER_LEVEL
  56:.\Generated_Source\PSoC4/UART_UART.c ****     };
  57:.\Generated_Source\PSoC4/UART_UART.c **** 
  58:.\Generated_Source\PSoC4/UART_UART.c **** 
  59:.\Generated_Source\PSoC4/UART_UART.c ****     /*******************************************************************************
  60:.\Generated_Source\PSoC4/UART_UART.c ****     * Function Name: UART_UartInit
  61:.\Generated_Source\PSoC4/UART_UART.c ****     ********************************************************************************
  62:.\Generated_Source\PSoC4/UART_UART.c ****     *
  63:.\Generated_Source\PSoC4/UART_UART.c ****     * Summary:
  64:.\Generated_Source\PSoC4/UART_UART.c ****     *  Configures the SCB for the UART operation.
  65:.\Generated_Source\PSoC4/UART_UART.c ****     *
  66:.\Generated_Source\PSoC4/UART_UART.c ****     * Parameters:
  67:.\Generated_Source\PSoC4/UART_UART.c ****     *  config:  Pointer to a structure that contains the following ordered list of
  68:.\Generated_Source\PSoC4/UART_UART.c ****     *           fields. These fields match the selections available in the
  69:.\Generated_Source\PSoC4/UART_UART.c ****     *           customizer.
  70:.\Generated_Source\PSoC4/UART_UART.c ****     *
  71:.\Generated_Source\PSoC4/UART_UART.c ****     * Return:
  72:.\Generated_Source\PSoC4/UART_UART.c ****     *  None
  73:.\Generated_Source\PSoC4/UART_UART.c ****     *
  74:.\Generated_Source\PSoC4/UART_UART.c ****     *******************************************************************************/
  75:.\Generated_Source\PSoC4/UART_UART.c ****     void UART_UartInit(const UART_UART_INIT_STRUCT *config)
  76:.\Generated_Source\PSoC4/UART_UART.c ****     {
  77:.\Generated_Source\PSoC4/UART_UART.c ****         if(NULL == config)
  78:.\Generated_Source\PSoC4/UART_UART.c ****         {
  79:.\Generated_Source\PSoC4/UART_UART.c ****             CYASSERT(0u != 0u); /* Halt execution due bad function parameter */
  80:.\Generated_Source\PSoC4/UART_UART.c ****         }
  81:.\Generated_Source\PSoC4/UART_UART.c ****         else
  82:.\Generated_Source\PSoC4/UART_UART.c ****         {
  83:.\Generated_Source\PSoC4/UART_UART.c ****             /* Configure pins */
  84:.\Generated_Source\PSoC4/UART_UART.c ****             UART_SetPins(UART_SCB_MODE_UART, config->mode, config->direction);
  85:.\Generated_Source\PSoC4/UART_UART.c **** 
  86:.\Generated_Source\PSoC4/UART_UART.c ****             /* Store internal configuration */
  87:.\Generated_Source\PSoC4/UART_UART.c ****             UART_scbMode       = (uint8) UART_SCB_MODE_UART;
  88:.\Generated_Source\PSoC4/UART_UART.c ****             UART_scbEnableWake = (uint8) config->enableWake;
  89:.\Generated_Source\PSoC4/UART_UART.c ****             UART_scbEnableIntr = (uint8) config->enableInterrupt;
ARM GAS  C:\Users\ZHANGM~1\AppData\Local\Temp\ccn26lYd.s 			page 3


  90:.\Generated_Source\PSoC4/UART_UART.c **** 
  91:.\Generated_Source\PSoC4/UART_UART.c ****             /* Set RX direction internal variables */
  92:.\Generated_Source\PSoC4/UART_UART.c ****             UART_rxBuffer      =         config->rxBuffer;
  93:.\Generated_Source\PSoC4/UART_UART.c ****             UART_rxDataBits    = (uint8) config->dataBits;
  94:.\Generated_Source\PSoC4/UART_UART.c ****             UART_rxBufferSize  = (uint8) config->rxBufferSize;
  95:.\Generated_Source\PSoC4/UART_UART.c **** 
  96:.\Generated_Source\PSoC4/UART_UART.c ****             /* Set TX direction internal variables */
  97:.\Generated_Source\PSoC4/UART_UART.c ****             UART_txBuffer      =         config->txBuffer;
  98:.\Generated_Source\PSoC4/UART_UART.c ****             UART_txDataBits    = (uint8) config->dataBits;
  99:.\Generated_Source\PSoC4/UART_UART.c ****             UART_txBufferSize  = (uint8) config->txBufferSize;
 100:.\Generated_Source\PSoC4/UART_UART.c **** 
 101:.\Generated_Source\PSoC4/UART_UART.c ****             /* Configure UART interface */
 102:.\Generated_Source\PSoC4/UART_UART.c ****             if(UART_UART_MODE_IRDA == config->mode)
 103:.\Generated_Source\PSoC4/UART_UART.c ****             {
 104:.\Generated_Source\PSoC4/UART_UART.c ****                 /* OVS settings: IrDA */
 105:.\Generated_Source\PSoC4/UART_UART.c ****                 UART_CTRL_REG  = ((0u != config->enableIrdaLowPower) ?
 106:.\Generated_Source\PSoC4/UART_UART.c ****                                                 (UART_UART_GET_CTRL_OVS_IRDA_LP(config->oversample)
 107:.\Generated_Source\PSoC4/UART_UART.c ****                                                 (UART_CTRL_OVS_IRDA_OVS16));
 108:.\Generated_Source\PSoC4/UART_UART.c ****             }
 109:.\Generated_Source\PSoC4/UART_UART.c ****             else
 110:.\Generated_Source\PSoC4/UART_UART.c ****             {
 111:.\Generated_Source\PSoC4/UART_UART.c ****                 /* OVS settings: UART and SmartCard */
 112:.\Generated_Source\PSoC4/UART_UART.c ****                 UART_CTRL_REG  = UART_GET_CTRL_OVS(config->oversample);
 113:.\Generated_Source\PSoC4/UART_UART.c ****             }
 114:.\Generated_Source\PSoC4/UART_UART.c **** 
 115:.\Generated_Source\PSoC4/UART_UART.c ****             UART_CTRL_REG     |= UART_GET_CTRL_ADDR_ACCEPT(config->multiprocAcceptAddr) |
 116:.\Generated_Source\PSoC4/UART_UART.c ****                                              UART_CTRL_UART;
 117:.\Generated_Source\PSoC4/UART_UART.c **** 
 118:.\Generated_Source\PSoC4/UART_UART.c ****             /* Configure sub-mode: UART, SmartCard or IrDA */
 119:.\Generated_Source\PSoC4/UART_UART.c ****             UART_UART_CTRL_REG = UART_GET_UART_CTRL_MODE(config->mode);
 120:.\Generated_Source\PSoC4/UART_UART.c **** 
 121:.\Generated_Source\PSoC4/UART_UART.c ****             /* Configure RX direction */
 122:.\Generated_Source\PSoC4/UART_UART.c ****             UART_UART_RX_CTRL_REG = UART_GET_UART_RX_CTRL_MODE(config->stopBits)              |
 123:.\Generated_Source\PSoC4/UART_UART.c ****                                         UART_GET_UART_RX_CTRL_POLARITY(config->enableInvertedRx)   
 124:.\Generated_Source\PSoC4/UART_UART.c ****                                         UART_GET_UART_RX_CTRL_MP_MODE(config->enableMultiproc)     
 125:.\Generated_Source\PSoC4/UART_UART.c ****                                         UART_GET_UART_RX_CTRL_DROP_ON_PARITY_ERR(config->dropOnPari
 126:.\Generated_Source\PSoC4/UART_UART.c ****                                         UART_GET_UART_RX_CTRL_DROP_ON_FRAME_ERR(config->dropOnFrame
 127:.\Generated_Source\PSoC4/UART_UART.c **** 
 128:.\Generated_Source\PSoC4/UART_UART.c ****             if(UART_UART_PARITY_NONE != config->parity)
 129:.\Generated_Source\PSoC4/UART_UART.c ****             {
 130:.\Generated_Source\PSoC4/UART_UART.c ****                UART_UART_RX_CTRL_REG |= UART_GET_UART_RX_CTRL_PARITY(config->parity) |
 131:.\Generated_Source\PSoC4/UART_UART.c ****                                                     UART_UART_RX_CTRL_PARITY_ENABLED;
 132:.\Generated_Source\PSoC4/UART_UART.c ****             }
 133:.\Generated_Source\PSoC4/UART_UART.c **** 
 134:.\Generated_Source\PSoC4/UART_UART.c ****             UART_RX_CTRL_REG      = UART_GET_RX_CTRL_DATA_WIDTH(config->dataBits)       |
 135:.\Generated_Source\PSoC4/UART_UART.c ****                                                 UART_GET_RX_CTRL_MEDIAN(config->enableMedianFilter)
 136:.\Generated_Source\PSoC4/UART_UART.c ****                                                 UART_GET_UART_RX_CTRL_ENABLED(config->direction);
 137:.\Generated_Source\PSoC4/UART_UART.c **** 
 138:.\Generated_Source\PSoC4/UART_UART.c ****             UART_RX_FIFO_CTRL_REG = UART_GET_RX_FIFO_CTRL_TRIGGER_LEVEL(config->rxTriggerLevel);
 139:.\Generated_Source\PSoC4/UART_UART.c **** 
 140:.\Generated_Source\PSoC4/UART_UART.c ****             /* Configure MP address */
 141:.\Generated_Source\PSoC4/UART_UART.c ****             UART_RX_MATCH_REG     = UART_GET_RX_MATCH_ADDR(config->multiprocAddr) |
 142:.\Generated_Source\PSoC4/UART_UART.c ****                                                 UART_GET_RX_MATCH_MASK(config->multiprocAddrMask);
 143:.\Generated_Source\PSoC4/UART_UART.c **** 
 144:.\Generated_Source\PSoC4/UART_UART.c ****             /* Configure RX direction */
 145:.\Generated_Source\PSoC4/UART_UART.c ****             UART_UART_TX_CTRL_REG = UART_GET_UART_TX_CTRL_MODE(config->stopBits) |
 146:.\Generated_Source\PSoC4/UART_UART.c ****                                                 UART_GET_UART_TX_CTRL_RETRY_NACK(config->enableRetr
ARM GAS  C:\Users\ZHANGM~1\AppData\Local\Temp\ccn26lYd.s 			page 4


 147:.\Generated_Source\PSoC4/UART_UART.c **** 
 148:.\Generated_Source\PSoC4/UART_UART.c ****             if(UART_UART_PARITY_NONE != config->parity)
 149:.\Generated_Source\PSoC4/UART_UART.c ****             {
 150:.\Generated_Source\PSoC4/UART_UART.c ****                UART_UART_TX_CTRL_REG |= UART_GET_UART_TX_CTRL_PARITY(config->parity) |
 151:.\Generated_Source\PSoC4/UART_UART.c ****                                                     UART_UART_TX_CTRL_PARITY_ENABLED;
 152:.\Generated_Source\PSoC4/UART_UART.c ****             }
 153:.\Generated_Source\PSoC4/UART_UART.c **** 
 154:.\Generated_Source\PSoC4/UART_UART.c ****             UART_TX_CTRL_REG      = UART_GET_TX_CTRL_DATA_WIDTH(config->dataBits)    |
 155:.\Generated_Source\PSoC4/UART_UART.c ****                                                 UART_GET_UART_TX_CTRL_ENABLED(config->direction);
 156:.\Generated_Source\PSoC4/UART_UART.c **** 
 157:.\Generated_Source\PSoC4/UART_UART.c ****             UART_TX_FIFO_CTRL_REG = UART_GET_TX_FIFO_CTRL_TRIGGER_LEVEL(config->txTriggerLevel);
 158:.\Generated_Source\PSoC4/UART_UART.c **** 
 159:.\Generated_Source\PSoC4/UART_UART.c **** 
 160:.\Generated_Source\PSoC4/UART_UART.c **** 
 161:.\Generated_Source\PSoC4/UART_UART.c ****             /* Configure interrupt with UART handler but do not enable it */
 162:.\Generated_Source\PSoC4/UART_UART.c ****             CyIntDisable    (UART_ISR_NUMBER);
 163:.\Generated_Source\PSoC4/UART_UART.c ****             CyIntSetPriority(UART_ISR_NUMBER, UART_ISR_PRIORITY);
 164:.\Generated_Source\PSoC4/UART_UART.c ****             (void) CyIntSetVector(UART_ISR_NUMBER, &UART_SPI_UART_ISR);
 165:.\Generated_Source\PSoC4/UART_UART.c **** 
 166:.\Generated_Source\PSoC4/UART_UART.c ****             /* Configure WAKE interrupt */
 167:.\Generated_Source\PSoC4/UART_UART.c ****         #if(UART_UART_RX_WAKEUP_IRQ)
 168:.\Generated_Source\PSoC4/UART_UART.c ****             CyIntDisable    (UART_RX_WAKE_ISR_NUMBER);
 169:.\Generated_Source\PSoC4/UART_UART.c ****             CyIntSetPriority(UART_RX_WAKE_ISR_NUMBER, UART_RX_WAKE_ISR_PRIORITY);
 170:.\Generated_Source\PSoC4/UART_UART.c ****             (void) CyIntSetVector(UART_RX_WAKE_ISR_NUMBER, &UART_UART_WAKEUP_ISR);
 171:.\Generated_Source\PSoC4/UART_UART.c ****         #endif /* (UART_UART_RX_WAKEUP_IRQ) */
 172:.\Generated_Source\PSoC4/UART_UART.c **** 
 173:.\Generated_Source\PSoC4/UART_UART.c ****             /* Configure interrupt sources */
 174:.\Generated_Source\PSoC4/UART_UART.c ****             UART_INTR_I2C_EC_MASK_REG = UART_NO_INTR_SOURCES;
 175:.\Generated_Source\PSoC4/UART_UART.c ****             UART_INTR_SPI_EC_MASK_REG = UART_NO_INTR_SOURCES;
 176:.\Generated_Source\PSoC4/UART_UART.c ****             UART_INTR_SLAVE_MASK_REG  = UART_NO_INTR_SOURCES;
 177:.\Generated_Source\PSoC4/UART_UART.c ****             UART_INTR_MASTER_MASK_REG = UART_NO_INTR_SOURCES;
 178:.\Generated_Source\PSoC4/UART_UART.c ****             UART_INTR_RX_MASK_REG     = config->rxInterruptMask;
 179:.\Generated_Source\PSoC4/UART_UART.c ****             UART_INTR_TX_MASK_REG     = config->txInterruptMask;
 180:.\Generated_Source\PSoC4/UART_UART.c **** 
 181:.\Generated_Source\PSoC4/UART_UART.c ****             /* Clear RX buffer indexes */
 182:.\Generated_Source\PSoC4/UART_UART.c ****             UART_rxBufferHead     = 0u;
 183:.\Generated_Source\PSoC4/UART_UART.c ****             UART_rxBufferTail     = 0u;
 184:.\Generated_Source\PSoC4/UART_UART.c ****             UART_rxBufferOverflow = 0u;
 185:.\Generated_Source\PSoC4/UART_UART.c **** 
 186:.\Generated_Source\PSoC4/UART_UART.c ****             /* Clrea TX buffer indexes */
 187:.\Generated_Source\PSoC4/UART_UART.c ****             UART_txBufferHead = 0u;
 188:.\Generated_Source\PSoC4/UART_UART.c ****             UART_txBufferTail = 0u;
 189:.\Generated_Source\PSoC4/UART_UART.c ****         }
 190:.\Generated_Source\PSoC4/UART_UART.c ****     }
 191:.\Generated_Source\PSoC4/UART_UART.c **** 
 192:.\Generated_Source\PSoC4/UART_UART.c **** #else
 193:.\Generated_Source\PSoC4/UART_UART.c **** 
 194:.\Generated_Source\PSoC4/UART_UART.c ****     /*******************************************************************************
 195:.\Generated_Source\PSoC4/UART_UART.c ****     * Function Name: UART_UartInit
 196:.\Generated_Source\PSoC4/UART_UART.c ****     ********************************************************************************
 197:.\Generated_Source\PSoC4/UART_UART.c ****     *
 198:.\Generated_Source\PSoC4/UART_UART.c ****     * Summary:
 199:.\Generated_Source\PSoC4/UART_UART.c ****     *  Configures the SCB for the UART operation.
 200:.\Generated_Source\PSoC4/UART_UART.c ****     *
 201:.\Generated_Source\PSoC4/UART_UART.c ****     * Parameters:
 202:.\Generated_Source\PSoC4/UART_UART.c ****     *  None
 203:.\Generated_Source\PSoC4/UART_UART.c ****     *
ARM GAS  C:\Users\ZHANGM~1\AppData\Local\Temp\ccn26lYd.s 			page 5


 204:.\Generated_Source\PSoC4/UART_UART.c ****     * Return:
 205:.\Generated_Source\PSoC4/UART_UART.c ****     *  None
 206:.\Generated_Source\PSoC4/UART_UART.c ****     *
 207:.\Generated_Source\PSoC4/UART_UART.c ****     *******************************************************************************/
 208:.\Generated_Source\PSoC4/UART_UART.c ****     void UART_UartInit(void)
 209:.\Generated_Source\PSoC4/UART_UART.c ****     {
  26              		.loc 1 209 0
  27              		.cfi_startproc
 210:.\Generated_Source\PSoC4/UART_UART.c ****         /* Configure UART interface */
 211:.\Generated_Source\PSoC4/UART_UART.c ****         UART_CTRL_REG = UART_UART_DEFAULT_CTRL;
  28              		.loc 1 211 0
  29 0000 174A     		ldr	r2, .L2
  30 0002 184B     		ldr	r3, .L2+4
 212:.\Generated_Source\PSoC4/UART_UART.c **** 
 213:.\Generated_Source\PSoC4/UART_UART.c ****         /* Configure sub-mode: UART, SmartCard or IrDA */
 214:.\Generated_Source\PSoC4/UART_UART.c ****         UART_UART_CTRL_REG = UART_UART_DEFAULT_UART_CTRL;
  31              		.loc 1 214 0
  32 0004 1848     		ldr	r0, .L2+8
 209:.\Generated_Source\PSoC4/UART_UART.c ****     {
  33              		.loc 1 209 0
  34 0006 10B5     		push	{r4, lr}
  35              	.LCFI0:
  36              		.cfi_def_cfa_offset 8
  37              		.cfi_offset 4, -8
  38              		.cfi_offset 14, -4
 215:.\Generated_Source\PSoC4/UART_UART.c **** 
 216:.\Generated_Source\PSoC4/UART_UART.c ****         /* Configure RX direction */
 217:.\Generated_Source\PSoC4/UART_UART.c ****         UART_UART_RX_CTRL_REG = UART_UART_DEFAULT_UART_RX_CTRL;
  39              		.loc 1 217 0
  40 0008 1849     		ldr	r1, .L2+12
 214:.\Generated_Source\PSoC4/UART_UART.c ****         UART_UART_CTRL_REG = UART_UART_DEFAULT_UART_CTRL;
  41              		.loc 1 214 0
  42 000a 0024     		mov	r4, #0
 211:.\Generated_Source\PSoC4/UART_UART.c ****         UART_CTRL_REG = UART_UART_DEFAULT_CTRL;
  43              		.loc 1 211 0
  44 000c 1A60     		str	r2, [r3]
 214:.\Generated_Source\PSoC4/UART_UART.c ****         UART_UART_CTRL_REG = UART_UART_DEFAULT_UART_CTRL;
  45              		.loc 1 214 0
  46 000e 0460     		str	r4, [r0]
  47              		.loc 1 217 0
  48 0010 0122     		mov	r2, #1
 218:.\Generated_Source\PSoC4/UART_UART.c ****         UART_RX_CTRL_REG      = UART_UART_DEFAULT_RX_CTRL;
  49              		.loc 1 218 0
  50 0012 174B     		ldr	r3, .L2+16
  51 0014 1748     		ldr	r0, .L2+20
 217:.\Generated_Source\PSoC4/UART_UART.c ****         UART_UART_RX_CTRL_REG = UART_UART_DEFAULT_UART_RX_CTRL;
  52              		.loc 1 217 0
  53 0016 0A60     		str	r2, [r1]
 219:.\Generated_Source\PSoC4/UART_UART.c ****         UART_RX_FIFO_CTRL_REG = UART_UART_DEFAULT_RX_FIFO_CTRL;
  54              		.loc 1 219 0
  55 0018 1749     		ldr	r1, .L2+24
 218:.\Generated_Source\PSoC4/UART_UART.c ****         UART_RX_CTRL_REG      = UART_UART_DEFAULT_RX_CTRL;
  56              		.loc 1 218 0
  57 001a 0360     		str	r3, [r0]
  58              		.loc 1 219 0
  59 001c 0720     		mov	r0, #7
  60 001e 0860     		str	r0, [r1]
ARM GAS  C:\Users\ZHANGM~1\AppData\Local\Temp\ccn26lYd.s 			page 6


 220:.\Generated_Source\PSoC4/UART_UART.c ****         UART_RX_MATCH_REG     = UART_UART_DEFAULT_RX_MATCH_REG;
 221:.\Generated_Source\PSoC4/UART_UART.c **** 
 222:.\Generated_Source\PSoC4/UART_UART.c ****         /* Configure TX direction */
 223:.\Generated_Source\PSoC4/UART_UART.c ****         UART_UART_TX_CTRL_REG = UART_UART_DEFAULT_UART_TX_CTRL;
  61              		.loc 1 223 0
  62 0020 1649     		ldr	r1, .L2+28
 220:.\Generated_Source\PSoC4/UART_UART.c ****         UART_RX_MATCH_REG     = UART_UART_DEFAULT_RX_MATCH_REG;
  63              		.loc 1 220 0
  64 0022 1748     		ldr	r0, .L2+32
 224:.\Generated_Source\PSoC4/UART_UART.c ****         UART_TX_CTRL_REG      = UART_UART_DEFAULT_TX_CTRL;
 225:.\Generated_Source\PSoC4/UART_UART.c ****         UART_TX_FIFO_CTRL_REG = UART_UART_DEFAULT_TX_FIFO_CTRL;
 226:.\Generated_Source\PSoC4/UART_UART.c **** 
 227:.\Generated_Source\PSoC4/UART_UART.c ****         /* Configure interrupt with UART handler but do not enable it */
 228:.\Generated_Source\PSoC4/UART_UART.c ****     #if(UART_SCB_IRQ_INTERNAL)
 229:.\Generated_Source\PSoC4/UART_UART.c ****         CyIntDisable    (UART_ISR_NUMBER);
 230:.\Generated_Source\PSoC4/UART_UART.c ****         CyIntSetPriority(UART_ISR_NUMBER, UART_ISR_PRIORITY);
 231:.\Generated_Source\PSoC4/UART_UART.c ****         (void) CyIntSetVector(UART_ISR_NUMBER, &UART_SPI_UART_ISR);
 232:.\Generated_Source\PSoC4/UART_UART.c ****     #endif /* (UART_SCB_IRQ_INTERNAL) */
 233:.\Generated_Source\PSoC4/UART_UART.c **** 
 234:.\Generated_Source\PSoC4/UART_UART.c ****         /* Configure WAKE interrupt */
 235:.\Generated_Source\PSoC4/UART_UART.c ****     #if(UART_UART_RX_WAKEUP_IRQ)
 236:.\Generated_Source\PSoC4/UART_UART.c ****         CyIntDisable    (UART_RX_WAKE_ISR_NUMBER);
 237:.\Generated_Source\PSoC4/UART_UART.c ****         CyIntSetPriority(UART_RX_WAKE_ISR_NUMBER, UART_RX_WAKE_ISR_PRIORITY);
 238:.\Generated_Source\PSoC4/UART_UART.c ****         (void) CyIntSetVector(UART_RX_WAKE_ISR_NUMBER, &UART_UART_WAKEUP_ISR);
 239:.\Generated_Source\PSoC4/UART_UART.c ****     #endif /* (UART_UART_RX_WAKEUP_IRQ) */
 240:.\Generated_Source\PSoC4/UART_UART.c **** 
 241:.\Generated_Source\PSoC4/UART_UART.c ****         /* Configure interrupt sources */
 242:.\Generated_Source\PSoC4/UART_UART.c ****         UART_INTR_I2C_EC_MASK_REG = UART_UART_DEFAULT_INTR_I2C_EC_MASK;
 243:.\Generated_Source\PSoC4/UART_UART.c ****         UART_INTR_SPI_EC_MASK_REG = UART_UART_DEFAULT_INTR_SPI_EC_MASK;
 244:.\Generated_Source\PSoC4/UART_UART.c ****         UART_INTR_SLAVE_MASK_REG  = UART_UART_DEFAULT_INTR_SLAVE_MASK;
 245:.\Generated_Source\PSoC4/UART_UART.c ****         UART_INTR_MASTER_MASK_REG = UART_UART_DEFAULT_INTR_MASTER_MASK;
 246:.\Generated_Source\PSoC4/UART_UART.c ****         UART_INTR_RX_MASK_REG     = UART_UART_DEFAULT_INTR_RX_MASK;
 247:.\Generated_Source\PSoC4/UART_UART.c ****         UART_INTR_TX_MASK_REG     = UART_UART_DEFAULT_INTR_TX_MASK;
 248:.\Generated_Source\PSoC4/UART_UART.c **** 
 249:.\Generated_Source\PSoC4/UART_UART.c ****     #if(UART_INTERNAL_RX_SW_BUFFER_CONST)
 250:.\Generated_Source\PSoC4/UART_UART.c ****         UART_rxBufferHead     = 0u;
 251:.\Generated_Source\PSoC4/UART_UART.c ****         UART_rxBufferTail     = 0u;
 252:.\Generated_Source\PSoC4/UART_UART.c ****         UART_rxBufferOverflow = 0u;
 253:.\Generated_Source\PSoC4/UART_UART.c ****     #endif /* (UART_INTERNAL_RX_SW_BUFFER_CONST) */
 254:.\Generated_Source\PSoC4/UART_UART.c **** 
 255:.\Generated_Source\PSoC4/UART_UART.c ****     #if(UART_INTERNAL_TX_SW_BUFFER_CONST)
 256:.\Generated_Source\PSoC4/UART_UART.c ****         UART_txBufferHead = 0u;
 257:.\Generated_Source\PSoC4/UART_UART.c ****         UART_txBufferTail = 0u;
 258:.\Generated_Source\PSoC4/UART_UART.c ****     #endif /* (UART_INTERNAL_TX_SW_BUFFER_CONST) */
 259:.\Generated_Source\PSoC4/UART_UART.c ****     }
  65              		.loc 1 259 0
  66              		@ sp needed for prologue
 220:.\Generated_Source\PSoC4/UART_UART.c ****         UART_RX_MATCH_REG     = UART_UART_DEFAULT_RX_MATCH_REG;
  67              		.loc 1 220 0
  68 0024 0460     		str	r4, [r0]
 223:.\Generated_Source\PSoC4/UART_UART.c ****         UART_UART_TX_CTRL_REG = UART_UART_DEFAULT_UART_TX_CTRL;
  69              		.loc 1 223 0
  70 0026 0A60     		str	r2, [r1]
 224:.\Generated_Source\PSoC4/UART_UART.c ****         UART_TX_CTRL_REG      = UART_UART_DEFAULT_TX_CTRL;
  71              		.loc 1 224 0
  72 0028 164A     		ldr	r2, .L2+36
 229:.\Generated_Source\PSoC4/UART_UART.c ****         CyIntDisable    (UART_ISR_NUMBER);
ARM GAS  C:\Users\ZHANGM~1\AppData\Local\Temp\ccn26lYd.s 			page 7


  73              		.loc 1 229 0
  74 002a 0A20     		mov	r0, #10
 224:.\Generated_Source\PSoC4/UART_UART.c ****         UART_TX_CTRL_REG      = UART_UART_DEFAULT_TX_CTRL;
  75              		.loc 1 224 0
  76 002c 1360     		str	r3, [r2]
 225:.\Generated_Source\PSoC4/UART_UART.c ****         UART_TX_FIFO_CTRL_REG = UART_UART_DEFAULT_TX_FIFO_CTRL;
  77              		.loc 1 225 0
  78 002e 164B     		ldr	r3, .L2+40
  79 0030 1C60     		str	r4, [r3]
 229:.\Generated_Source\PSoC4/UART_UART.c ****         CyIntDisable    (UART_ISR_NUMBER);
  80              		.loc 1 229 0
  81 0032 FFF7FEFF 		bl	CyIntDisable
  82              	.LVL0:
 230:.\Generated_Source\PSoC4/UART_UART.c ****         CyIntSetPriority(UART_ISR_NUMBER, UART_ISR_PRIORITY);
  83              		.loc 1 230 0
  84 0036 0A20     		mov	r0, #10
  85 0038 0321     		mov	r1, #3
  86 003a FFF7FEFF 		bl	CyIntSetPriority
  87              	.LVL1:
 231:.\Generated_Source\PSoC4/UART_UART.c ****         (void) CyIntSetVector(UART_ISR_NUMBER, &UART_SPI_UART_ISR);
  88              		.loc 1 231 0
  89 003e 1349     		ldr	r1, .L2+44
  90 0040 0A20     		mov	r0, #10
  91 0042 FFF7FEFF 		bl	CyIntSetVector
  92              	.LVL2:
 242:.\Generated_Source\PSoC4/UART_UART.c ****         UART_INTR_I2C_EC_MASK_REG = UART_UART_DEFAULT_INTR_I2C_EC_MASK;
  93              		.loc 1 242 0
  94 0046 1248     		ldr	r0, .L2+48
 243:.\Generated_Source\PSoC4/UART_UART.c ****         UART_INTR_SPI_EC_MASK_REG = UART_UART_DEFAULT_INTR_SPI_EC_MASK;
  95              		.loc 1 243 0
  96 0048 1249     		ldr	r1, .L2+52
 242:.\Generated_Source\PSoC4/UART_UART.c ****         UART_INTR_I2C_EC_MASK_REG = UART_UART_DEFAULT_INTR_I2C_EC_MASK;
  97              		.loc 1 242 0
  98 004a 0460     		str	r4, [r0]
 244:.\Generated_Source\PSoC4/UART_UART.c ****         UART_INTR_SLAVE_MASK_REG  = UART_UART_DEFAULT_INTR_SLAVE_MASK;
  99              		.loc 1 244 0
 100 004c 124A     		ldr	r2, .L2+56
 243:.\Generated_Source\PSoC4/UART_UART.c ****         UART_INTR_SPI_EC_MASK_REG = UART_UART_DEFAULT_INTR_SPI_EC_MASK;
 101              		.loc 1 243 0
 102 004e 0C60     		str	r4, [r1]
 245:.\Generated_Source\PSoC4/UART_UART.c ****         UART_INTR_MASTER_MASK_REG = UART_UART_DEFAULT_INTR_MASTER_MASK;
 103              		.loc 1 245 0
 104 0050 124B     		ldr	r3, .L2+60
 246:.\Generated_Source\PSoC4/UART_UART.c ****         UART_INTR_RX_MASK_REG     = UART_UART_DEFAULT_INTR_RX_MASK;
 105              		.loc 1 246 0
 106 0052 1348     		ldr	r0, .L2+64
 247:.\Generated_Source\PSoC4/UART_UART.c ****         UART_INTR_TX_MASK_REG     = UART_UART_DEFAULT_INTR_TX_MASK;
 107              		.loc 1 247 0
 108 0054 1349     		ldr	r1, .L2+68
 244:.\Generated_Source\PSoC4/UART_UART.c ****         UART_INTR_SLAVE_MASK_REG  = UART_UART_DEFAULT_INTR_SLAVE_MASK;
 109              		.loc 1 244 0
 110 0056 1460     		str	r4, [r2]
 245:.\Generated_Source\PSoC4/UART_UART.c ****         UART_INTR_MASTER_MASK_REG = UART_UART_DEFAULT_INTR_MASTER_MASK;
 111              		.loc 1 245 0
 112 0058 1C60     		str	r4, [r3]
 246:.\Generated_Source\PSoC4/UART_UART.c ****         UART_INTR_RX_MASK_REG     = UART_UART_DEFAULT_INTR_RX_MASK;
 113              		.loc 1 246 0
ARM GAS  C:\Users\ZHANGM~1\AppData\Local\Temp\ccn26lYd.s 			page 8


 114 005a 0460     		str	r4, [r0]
 247:.\Generated_Source\PSoC4/UART_UART.c ****         UART_INTR_TX_MASK_REG     = UART_UART_DEFAULT_INTR_TX_MASK;
 115              		.loc 1 247 0
 116 005c 0C60     		str	r4, [r1]
 117              		.loc 1 259 0
 118 005e 10BD     		pop	{r4, pc}
 119              	.L3:
 120              		.align	2
 121              	.L2:
 122 0060 0B000002 		.word	33554443
 123 0064 00000640 		.word	1074135040
 124 0068 40000640 		.word	1074135104
 125 006c 48000640 		.word	1074135112
 126 0070 07000080 		.word	-2147483641
 127 0074 00030640 		.word	1074135808
 128 0078 04030640 		.word	1074135812
 129 007c 44000640 		.word	1074135108
 130 0080 10030640 		.word	1074135824
 131 0084 00020640 		.word	1074135552
 132 0088 04020640 		.word	1074135556
 133 008c 00000000 		.word	UART_SPI_UART_ISR
 134 0090 880E0640 		.word	1074138760
 135 0094 C80E0640 		.word	1074138824
 136 0098 480F0640 		.word	1074138952
 137 009c 080F0640 		.word	1074138888
 138 00a0 C80F0640 		.word	1074139080
 139 00a4 880F0640 		.word	1074139016
 140              		.cfi_endproc
 141              	.LFE0:
 142              		.size	UART_UartInit, .-UART_UartInit
 143              		.section	.text.UART_UartSetRxAddress,"ax",%progbits
 144              		.align	1
 145              		.global	UART_UartSetRxAddress
 146              		.code	16
 147              		.thumb_func
 148              		.type	UART_UartSetRxAddress, %function
 149              	UART_UartSetRxAddress:
 150              	.LFB1:
 260:.\Generated_Source\PSoC4/UART_UART.c **** #endif /* (UART_SCB_MODE_UNCONFIG_CONST_CFG) */
 261:.\Generated_Source\PSoC4/UART_UART.c **** 
 262:.\Generated_Source\PSoC4/UART_UART.c **** 
 263:.\Generated_Source\PSoC4/UART_UART.c **** /*******************************************************************************
 264:.\Generated_Source\PSoC4/UART_UART.c **** * Function Name: UART_UartSetRxAddress
 265:.\Generated_Source\PSoC4/UART_UART.c **** ********************************************************************************
 266:.\Generated_Source\PSoC4/UART_UART.c **** *
 267:.\Generated_Source\PSoC4/UART_UART.c **** * Summary:
 268:.\Generated_Source\PSoC4/UART_UART.c **** *  Sets the hardware detectable receiver address for the UART in the Multiprocessor
 269:.\Generated_Source\PSoC4/UART_UART.c **** *  mode.
 270:.\Generated_Source\PSoC4/UART_UART.c **** *
 271:.\Generated_Source\PSoC4/UART_UART.c **** * Parameters:
 272:.\Generated_Source\PSoC4/UART_UART.c **** *  address: Address for hardware address detection.
 273:.\Generated_Source\PSoC4/UART_UART.c **** *
 274:.\Generated_Source\PSoC4/UART_UART.c **** * Return:
 275:.\Generated_Source\PSoC4/UART_UART.c **** *  None
 276:.\Generated_Source\PSoC4/UART_UART.c **** *
 277:.\Generated_Source\PSoC4/UART_UART.c **** *******************************************************************************/
 278:.\Generated_Source\PSoC4/UART_UART.c **** void UART_UartSetRxAddress(uint32 address)
ARM GAS  C:\Users\ZHANGM~1\AppData\Local\Temp\ccn26lYd.s 			page 9


 279:.\Generated_Source\PSoC4/UART_UART.c **** {
 151              		.loc 1 279 0
 152              		.cfi_startproc
 153              	.LVL3:
 280:.\Generated_Source\PSoC4/UART_UART.c ****      uint32 matchReg;
 281:.\Generated_Source\PSoC4/UART_UART.c **** 
 282:.\Generated_Source\PSoC4/UART_UART.c ****     matchReg = UART_RX_MATCH_REG;
 154              		.loc 1 282 0
 155 0000 034B     		ldr	r3, .L5
 283:.\Generated_Source\PSoC4/UART_UART.c **** 
 284:.\Generated_Source\PSoC4/UART_UART.c ****     matchReg &= ((uint32) ~UART_RX_MATCH_ADDR_MASK); /* Clear address bits */
 156              		.loc 1 284 0
 157 0002 FF22     		mov	r2, #255
 282:.\Generated_Source\PSoC4/UART_UART.c ****     matchReg = UART_RX_MATCH_REG;
 158              		.loc 1 282 0
 159 0004 1968     		ldr	r1, [r3]
 160              	.LVL4:
 285:.\Generated_Source\PSoC4/UART_UART.c ****     matchReg |= ((uint32)  (address & UART_RX_MATCH_ADDR_MASK)); /* Set address  */
 286:.\Generated_Source\PSoC4/UART_UART.c **** 
 287:.\Generated_Source\PSoC4/UART_UART.c ****     UART_RX_MATCH_REG = matchReg;
 288:.\Generated_Source\PSoC4/UART_UART.c **** }
 161              		.loc 1 288 0
 162              		@ sp needed for prologue
 284:.\Generated_Source\PSoC4/UART_UART.c ****     matchReg &= ((uint32) ~UART_RX_MATCH_ADDR_MASK); /* Clear address bits */
 163              		.loc 1 284 0
 164 0006 9143     		bic	r1, r2
 165              	.LVL5:
 285:.\Generated_Source\PSoC4/UART_UART.c ****     matchReg |= ((uint32)  (address & UART_RX_MATCH_ADDR_MASK)); /* Set address  */
 166              		.loc 1 285 0
 167 0008 0240     		and	r2, r0
 168 000a 0A43     		orr	r2, r1
 169              	.LVL6:
 287:.\Generated_Source\PSoC4/UART_UART.c ****     UART_RX_MATCH_REG = matchReg;
 170              		.loc 1 287 0
 171 000c 1A60     		str	r2, [r3]
 172              		.loc 1 288 0
 173 000e 7047     		bx	lr
 174              	.L6:
 175              		.align	2
 176              	.L5:
 177 0010 10030640 		.word	1074135824
 178              		.cfi_endproc
 179              	.LFE1:
 180              		.size	UART_UartSetRxAddress, .-UART_UartSetRxAddress
 181              		.section	.text.UART_UartSetRxAddressMask,"ax",%progbits
 182              		.align	1
 183              		.global	UART_UartSetRxAddressMask
 184              		.code	16
 185              		.thumb_func
 186              		.type	UART_UartSetRxAddressMask, %function
 187              	UART_UartSetRxAddressMask:
 188              	.LFB2:
 289:.\Generated_Source\PSoC4/UART_UART.c **** 
 290:.\Generated_Source\PSoC4/UART_UART.c **** 
 291:.\Generated_Source\PSoC4/UART_UART.c **** /*******************************************************************************
 292:.\Generated_Source\PSoC4/UART_UART.c **** * Function Name: UART_UartSetRxAddressMask
 293:.\Generated_Source\PSoC4/UART_UART.c **** ********************************************************************************
ARM GAS  C:\Users\ZHANGM~1\AppData\Local\Temp\ccn26lYd.s 			page 10


 294:.\Generated_Source\PSoC4/UART_UART.c **** *
 295:.\Generated_Source\PSoC4/UART_UART.c **** * Summary:
 296:.\Generated_Source\PSoC4/UART_UART.c **** *  Sets the hardware address mask for the UART in the Multiprocessor mode.
 297:.\Generated_Source\PSoC4/UART_UART.c **** *
 298:.\Generated_Source\PSoC4/UART_UART.c **** * Parameters:
 299:.\Generated_Source\PSoC4/UART_UART.c **** *  addressMask: Address mask.
 300:.\Generated_Source\PSoC4/UART_UART.c **** *   0 - address bit does not care while comparison.
 301:.\Generated_Source\PSoC4/UART_UART.c **** *   1 - address bit is significant while comparison.
 302:.\Generated_Source\PSoC4/UART_UART.c **** *
 303:.\Generated_Source\PSoC4/UART_UART.c **** * Return:
 304:.\Generated_Source\PSoC4/UART_UART.c **** *  None
 305:.\Generated_Source\PSoC4/UART_UART.c **** *
 306:.\Generated_Source\PSoC4/UART_UART.c **** *******************************************************************************/
 307:.\Generated_Source\PSoC4/UART_UART.c **** void UART_UartSetRxAddressMask(uint32 addressMask)
 308:.\Generated_Source\PSoC4/UART_UART.c **** {
 189              		.loc 1 308 0
 190              		.cfi_startproc
 191              	.LVL7:
 309:.\Generated_Source\PSoC4/UART_UART.c ****     uint32 matchReg;
 310:.\Generated_Source\PSoC4/UART_UART.c **** 
 311:.\Generated_Source\PSoC4/UART_UART.c ****     matchReg = UART_RX_MATCH_REG;
 192              		.loc 1 311 0
 193 0000 034B     		ldr	r3, .L8
 312:.\Generated_Source\PSoC4/UART_UART.c **** 
 313:.\Generated_Source\PSoC4/UART_UART.c ****     matchReg &= ((uint32) ~UART_RX_MATCH_MASK_MASK); /* Clear address mask bits */
 194              		.loc 1 313 0
 195 0002 044A     		ldr	r2, .L8+4
 311:.\Generated_Source\PSoC4/UART_UART.c ****     matchReg = UART_RX_MATCH_REG;
 196              		.loc 1 311 0
 197 0004 1968     		ldr	r1, [r3]
 198              	.LVL8:
 314:.\Generated_Source\PSoC4/UART_UART.c ****     matchReg |= ((uint32) (addressMask << UART_RX_MATCH_MASK_POS));
 199              		.loc 1 314 0
 200 0006 0004     		lsl	r0, r0, #16
 201              	.LVL9:
 313:.\Generated_Source\PSoC4/UART_UART.c ****     matchReg &= ((uint32) ~UART_RX_MATCH_MASK_MASK); /* Clear address mask bits */
 202              		.loc 1 313 0
 203 0008 0A40     		and	r2, r1
 204              	.LVL10:
 205              		.loc 1 314 0
 206 000a 1043     		orr	r0, r2
 207              	.LVL11:
 315:.\Generated_Source\PSoC4/UART_UART.c **** 
 316:.\Generated_Source\PSoC4/UART_UART.c ****     UART_RX_MATCH_REG = matchReg;
 208              		.loc 1 316 0
 209 000c 1860     		str	r0, [r3]
 317:.\Generated_Source\PSoC4/UART_UART.c **** }
 210              		.loc 1 317 0
 211              		@ sp needed for prologue
 212 000e 7047     		bx	lr
 213              	.L9:
 214              		.align	2
 215              	.L8:
 216 0010 10030640 		.word	1074135824
 217 0014 FFFF00FF 		.word	-16711681
 218              		.cfi_endproc
 219              	.LFE2:
ARM GAS  C:\Users\ZHANGM~1\AppData\Local\Temp\ccn26lYd.s 			page 11


 220              		.size	UART_UartSetRxAddressMask, .-UART_UartSetRxAddressMask
 221              		.section	.text.UART_UartGetChar,"ax",%progbits
 222              		.align	1
 223              		.global	UART_UartGetChar
 224              		.code	16
 225              		.thumb_func
 226              		.type	UART_UartGetChar, %function
 227              	UART_UartGetChar:
 228              	.LFB3:
 318:.\Generated_Source\PSoC4/UART_UART.c **** 
 319:.\Generated_Source\PSoC4/UART_UART.c **** 
 320:.\Generated_Source\PSoC4/UART_UART.c **** #if(UART_UART_RX_DIRECTION)
 321:.\Generated_Source\PSoC4/UART_UART.c ****     /*******************************************************************************
 322:.\Generated_Source\PSoC4/UART_UART.c ****     * Function Name: UART_UartGetChar
 323:.\Generated_Source\PSoC4/UART_UART.c ****     ********************************************************************************
 324:.\Generated_Source\PSoC4/UART_UART.c ****     *
 325:.\Generated_Source\PSoC4/UART_UART.c ****     * Summary:
 326:.\Generated_Source\PSoC4/UART_UART.c ****     *  Retrieves the next data element from the receive buffer.
 327:.\Generated_Source\PSoC4/UART_UART.c ****     *  This function is designed for ASCII characters and returns a char
 328:.\Generated_Source\PSoC4/UART_UART.c ****     *  where 1 to 255 are valid characters and 0 indicates an error occurred or
 329:.\Generated_Source\PSoC4/UART_UART.c ****     *  no data present.
 330:.\Generated_Source\PSoC4/UART_UART.c ****     *  - The RX software buffer is disabled: returns the data element retrieved from the RX FIFO.
 331:.\Generated_Source\PSoC4/UART_UART.c ****     *    Undefined data will be returned if the RX FIFO is empty.
 332:.\Generated_Source\PSoC4/UART_UART.c ****     *  - The RX software buffer is enabled: returns the data element from the software receive
 333:.\Generated_Source\PSoC4/UART_UART.c ****     *    buffer.
 334:.\Generated_Source\PSoC4/UART_UART.c ****     *
 335:.\Generated_Source\PSoC4/UART_UART.c ****     * Parameters:
 336:.\Generated_Source\PSoC4/UART_UART.c ****     *  None
 337:.\Generated_Source\PSoC4/UART_UART.c ****     *
 338:.\Generated_Source\PSoC4/UART_UART.c ****     * Return:
 339:.\Generated_Source\PSoC4/UART_UART.c ****     *  The next data element from the receive buffer.
 340:.\Generated_Source\PSoC4/UART_UART.c ****     *  ASCII character values from 1 to 255 are valid.
 341:.\Generated_Source\PSoC4/UART_UART.c ****     *  A returned zero signifies an error condition or no data available.
 342:.\Generated_Source\PSoC4/UART_UART.c ****     *
 343:.\Generated_Source\PSoC4/UART_UART.c ****     *******************************************************************************/
 344:.\Generated_Source\PSoC4/UART_UART.c ****     uint32 UART_UartGetChar(void)
 345:.\Generated_Source\PSoC4/UART_UART.c ****     {
 229              		.loc 1 345 0
 230              		.cfi_startproc
 231              	.LVL12:
 232 0000 08B5     		push	{r3, lr}
 233              	.LCFI1:
 234              		.cfi_def_cfa_offset 8
 235              		.cfi_offset 3, -8
 236              		.cfi_offset 14, -4
 346:.\Generated_Source\PSoC4/UART_UART.c ****         uint32 rxData = 0u;
 347:.\Generated_Source\PSoC4/UART_UART.c **** 
 348:.\Generated_Source\PSoC4/UART_UART.c ****         /* Read data only if there is data to read */
 349:.\Generated_Source\PSoC4/UART_UART.c ****         if(0u != UART_SpiUartGetRxBufferSize())
 237              		.loc 1 349 0
 238 0002 FFF7FEFF 		bl	UART_SpiUartGetRxBufferSize
 239              	.LVL13:
 240 0006 031C     		mov	r3, r0
 346:.\Generated_Source\PSoC4/UART_UART.c ****         uint32 rxData = 0u;
 241              		.loc 1 346 0
 242 0008 0020     		mov	r0, #0
 243              		.loc 1 349 0
ARM GAS  C:\Users\ZHANGM~1\AppData\Local\Temp\ccn26lYd.s 			page 12


 244 000a 8342     		cmp	r3, r0
 245 000c 01D0     		beq	.L11
 350:.\Generated_Source\PSoC4/UART_UART.c ****         {
 351:.\Generated_Source\PSoC4/UART_UART.c ****             rxData = UART_SpiUartReadRxData();
 246              		.loc 1 351 0
 247 000e FFF7FEFF 		bl	UART_SpiUartReadRxData
 248              	.LVL14:
 249              	.L11:
 352:.\Generated_Source\PSoC4/UART_UART.c ****         }
 353:.\Generated_Source\PSoC4/UART_UART.c **** 
 354:.\Generated_Source\PSoC4/UART_UART.c ****         if(UART_CHECK_INTR_RX(UART_INTR_RX_ERR))
 250              		.loc 1 354 0
 251 0012 044B     		ldr	r3, .L19
 252 0014 D822     		mov	r2, #216
 253 0016 1968     		ldr	r1, [r3]
 254 0018 9200     		lsl	r2, r2, #2
 255 001a 1142     		tst	r1, r2
 256 001c 01D0     		beq	.L12
 257              	.LVL15:
 355:.\Generated_Source\PSoC4/UART_UART.c ****         {
 356:.\Generated_Source\PSoC4/UART_UART.c ****             rxData = 0u; /* Error occurred: return zero */
 357:.\Generated_Source\PSoC4/UART_UART.c ****             UART_ClearRxInterruptSource(UART_INTR_RX_ERR);
 258              		.loc 1 357 0
 259 001e 1A60     		str	r2, [r3]
 356:.\Generated_Source\PSoC4/UART_UART.c ****             rxData = 0u; /* Error occurred: return zero */
 260              		.loc 1 356 0
 261 0020 0020     		mov	r0, #0
 262              	.LVL16:
 263              	.L12:
 358:.\Generated_Source\PSoC4/UART_UART.c ****         }
 359:.\Generated_Source\PSoC4/UART_UART.c **** 
 360:.\Generated_Source\PSoC4/UART_UART.c ****         return(rxData);
 361:.\Generated_Source\PSoC4/UART_UART.c ****     }
 264              		.loc 1 361 0
 265              		@ sp needed for prologue
 266 0022 08BD     		pop	{r3, pc}
 267              	.L20:
 268              		.align	2
 269              	.L19:
 270 0024 C00F0640 		.word	1074139072
 271              		.cfi_endproc
 272              	.LFE3:
 273              		.size	UART_UartGetChar, .-UART_UartGetChar
 274              		.section	.text.UART_UartGetByte,"ax",%progbits
 275              		.align	1
 276              		.global	UART_UartGetByte
 277              		.code	16
 278              		.thumb_func
 279              		.type	UART_UartGetByte, %function
 280              	UART_UartGetByte:
 281              	.LFB4:
 362:.\Generated_Source\PSoC4/UART_UART.c **** 
 363:.\Generated_Source\PSoC4/UART_UART.c **** 
 364:.\Generated_Source\PSoC4/UART_UART.c ****     /*******************************************************************************
 365:.\Generated_Source\PSoC4/UART_UART.c ****     * Function Name: UART_UartGetByte
 366:.\Generated_Source\PSoC4/UART_UART.c ****     ********************************************************************************
 367:.\Generated_Source\PSoC4/UART_UART.c ****     *
ARM GAS  C:\Users\ZHANGM~1\AppData\Local\Temp\ccn26lYd.s 			page 13


 368:.\Generated_Source\PSoC4/UART_UART.c ****     * Summary:
 369:.\Generated_Source\PSoC4/UART_UART.c ****     *  Retrieves the next data element from the receive buffer, returns the received byte
 370:.\Generated_Source\PSoC4/UART_UART.c ****     *  and error condition.
 371:.\Generated_Source\PSoC4/UART_UART.c ****     *   - The RX software buffer is disabled: returns the data element retrieved from the RX FIFO.
 372:.\Generated_Source\PSoC4/UART_UART.c ****     *     Undefined data will be returned if the RX FIFO is empty.
 373:.\Generated_Source\PSoC4/UART_UART.c ****     *   - The RX software buffer is enabled: returns data element from the software receive
 374:.\Generated_Source\PSoC4/UART_UART.c ****     *     buffer.
 375:.\Generated_Source\PSoC4/UART_UART.c ****     *
 376:.\Generated_Source\PSoC4/UART_UART.c ****     * Parameters:
 377:.\Generated_Source\PSoC4/UART_UART.c ****     *  None
 378:.\Generated_Source\PSoC4/UART_UART.c ****     *
 379:.\Generated_Source\PSoC4/UART_UART.c ****     * Return:
 380:.\Generated_Source\PSoC4/UART_UART.c ****     *  Bits 15-8 contains status and bits 7-0 contains the next data element from
 381:.\Generated_Source\PSoC4/UART_UART.c ****     *  receive buffer. If the bits 15-8 are non-zero, an error has occurred.
 382:.\Generated_Source\PSoC4/UART_UART.c ****     *
 383:.\Generated_Source\PSoC4/UART_UART.c ****     *******************************************************************************/
 384:.\Generated_Source\PSoC4/UART_UART.c ****     uint32 UART_UartGetByte(void)
 385:.\Generated_Source\PSoC4/UART_UART.c ****     {
 282              		.loc 1 385 0
 283              		.cfi_startproc
 284 0000 10B5     		push	{r4, lr}
 285              	.LCFI2:
 286              		.cfi_def_cfa_offset 8
 287              		.cfi_offset 4, -8
 288              		.cfi_offset 14, -4
 386:.\Generated_Source\PSoC4/UART_UART.c ****         uint32 rxData;
 387:.\Generated_Source\PSoC4/UART_UART.c ****         uint32 tmpStatus;
 388:.\Generated_Source\PSoC4/UART_UART.c ****         uint32 intSourceMask;
 389:.\Generated_Source\PSoC4/UART_UART.c **** 
 390:.\Generated_Source\PSoC4/UART_UART.c ****         intSourceMask = UART_SpiUartDisableIntRx();
 289              		.loc 1 390 0
 290 0002 FFF7FEFF 		bl	UART_SpiUartDisableIntRx
 291              	.LVL17:
 292 0006 041C     		mov	r4, r0
 293              	.LVL18:
 391:.\Generated_Source\PSoC4/UART_UART.c **** 
 392:.\Generated_Source\PSoC4/UART_UART.c ****         if(0u != UART_SpiUartGetRxBufferSize())
 294              		.loc 1 392 0
 295 0008 FFF7FEFF 		bl	UART_SpiUartGetRxBufferSize
 296              	.LVL19:
 297 000c 094B     		ldr	r3, .L24
 298 000e 0028     		cmp	r0, #0
 299 0010 03D0     		beq	.L22
 393:.\Generated_Source\PSoC4/UART_UART.c ****         {
 394:.\Generated_Source\PSoC4/UART_UART.c ****              /*
 395:.\Generated_Source\PSoC4/UART_UART.c ****              * Enable interrupt to receive more bytes: at least one byte is in
 396:.\Generated_Source\PSoC4/UART_UART.c ****              * buffer.
 397:.\Generated_Source\PSoC4/UART_UART.c ****              */
 398:.\Generated_Source\PSoC4/UART_UART.c ****             UART_SpiUartEnableIntRx(intSourceMask);
 300              		.loc 1 398 0
 301 0012 1C60     		str	r4, [r3]
 399:.\Generated_Source\PSoC4/UART_UART.c **** 
 400:.\Generated_Source\PSoC4/UART_UART.c ****             /* Get received byte */
 401:.\Generated_Source\PSoC4/UART_UART.c ****             rxData = UART_SpiUartReadRxData();
 302              		.loc 1 401 0
 303 0014 FFF7FEFF 		bl	UART_SpiUartReadRxData
 304              	.LVL20:
ARM GAS  C:\Users\ZHANGM~1\AppData\Local\Temp\ccn26lYd.s 			page 14


 305 0018 02E0     		b	.L23
 306              	.LVL21:
 307              	.L22:
 402:.\Generated_Source\PSoC4/UART_UART.c ****         }
 403:.\Generated_Source\PSoC4/UART_UART.c ****         else
 404:.\Generated_Source\PSoC4/UART_UART.c ****         {
 405:.\Generated_Source\PSoC4/UART_UART.c ****             /*
 406:.\Generated_Source\PSoC4/UART_UART.c ****             * Read byte directly from RX FIFO: the underflow is raised in case
 407:.\Generated_Source\PSoC4/UART_UART.c ****             * of empty. In other case the first received byte will be read.
 408:.\Generated_Source\PSoC4/UART_UART.c ****             */
 409:.\Generated_Source\PSoC4/UART_UART.c ****             rxData = UART_RX_FIFO_RD_REG;
 308              		.loc 1 409 0
 309 001a 074A     		ldr	r2, .L24+4
 310 001c 1068     		ldr	r0, [r2]
 311              	.LVL22:
 410:.\Generated_Source\PSoC4/UART_UART.c **** 
 411:.\Generated_Source\PSoC4/UART_UART.c ****             /*
 412:.\Generated_Source\PSoC4/UART_UART.c ****             * Enable interrupt to receive more bytes.
 413:.\Generated_Source\PSoC4/UART_UART.c ****             * The RX_NOT_EMPTY interrupt is cleared by the interrupt routine in case
 414:.\Generated_Source\PSoC4/UART_UART.c ****             * the byte was received and read above.
 415:.\Generated_Source\PSoC4/UART_UART.c ****             */
 416:.\Generated_Source\PSoC4/UART_UART.c ****             UART_SpiUartEnableIntRx(intSourceMask);
 312              		.loc 1 416 0
 313 001e 1C60     		str	r4, [r3]
 314              	.L23:
 417:.\Generated_Source\PSoC4/UART_UART.c ****         }
 418:.\Generated_Source\PSoC4/UART_UART.c **** 
 419:.\Generated_Source\PSoC4/UART_UART.c ****         /* Get and clear RX error mask */
 420:.\Generated_Source\PSoC4/UART_UART.c ****         tmpStatus = (UART_GetRxInterruptSource() & UART_INTR_RX_ERR);
 315              		.loc 1 420 0
 316 0020 064C     		ldr	r4, .L24+8
 317              	.LVL23:
 421:.\Generated_Source\PSoC4/UART_UART.c ****         UART_ClearRxInterruptSource(UART_INTR_RX_ERR);
 318              		.loc 1 421 0
 319 0022 D823     		mov	r3, #216
 420:.\Generated_Source\PSoC4/UART_UART.c ****         tmpStatus = (UART_GetRxInterruptSource() & UART_INTR_RX_ERR);
 320              		.loc 1 420 0
 321 0024 2168     		ldr	r1, [r4]
 322              	.LVL24:
 323              		.loc 1 421 0
 324 0026 9A00     		lsl	r2, r3, #2
 325 0028 2260     		str	r2, [r4]
 326              	.LVL25:
 420:.\Generated_Source\PSoC4/UART_UART.c ****         tmpStatus = (UART_GetRxInterruptSource() & UART_INTR_RX_ERR);
 327              		.loc 1 420 0
 328 002a 0A40     		and	r2, r1
 422:.\Generated_Source\PSoC4/UART_UART.c **** 
 423:.\Generated_Source\PSoC4/UART_UART.c ****         /*
 424:.\Generated_Source\PSoC4/UART_UART.c ****         * Put together data and error status:
 425:.\Generated_Source\PSoC4/UART_UART.c ****         * MP mode and accept address: the 9th bit is set to notify mark.
 426:.\Generated_Source\PSoC4/UART_UART.c ****         */
 427:.\Generated_Source\PSoC4/UART_UART.c ****         rxData |= ((uint32) (tmpStatus << 8u));
 329              		.loc 1 427 0
 330 002c 1402     		lsl	r4, r2, #8
 331 002e 2043     		orr	r0, r4
 332              	.LVL26:
 428:.\Generated_Source\PSoC4/UART_UART.c **** 
ARM GAS  C:\Users\ZHANGM~1\AppData\Local\Temp\ccn26lYd.s 			page 15


 429:.\Generated_Source\PSoC4/UART_UART.c ****         return(rxData);
 430:.\Generated_Source\PSoC4/UART_UART.c ****     }
 333              		.loc 1 430 0
 334              		@ sp needed for prologue
 335 0030 10BD     		pop	{r4, pc}
 336              	.L25:
 337 0032 C046     		.align	2
 338              	.L24:
 339 0034 C80F0640 		.word	1074139080
 340 0038 40030640 		.word	1074135872
 341 003c C00F0640 		.word	1074139072
 342              		.cfi_endproc
 343              	.LFE4:
 344              		.size	UART_UartGetByte, .-UART_UartGetByte
 345              		.section	.text.UART_UartPutString,"ax",%progbits
 346              		.align	1
 347              		.global	UART_UartPutString
 348              		.code	16
 349              		.thumb_func
 350              		.type	UART_UartPutString, %function
 351              	UART_UartPutString:
 352              	.LFB5:
 431:.\Generated_Source\PSoC4/UART_UART.c **** 
 432:.\Generated_Source\PSoC4/UART_UART.c **** #endif /* (UART_UART_RX_DIRECTION) */
 433:.\Generated_Source\PSoC4/UART_UART.c **** 
 434:.\Generated_Source\PSoC4/UART_UART.c **** 
 435:.\Generated_Source\PSoC4/UART_UART.c **** #if(UART_UART_TX_DIRECTION)
 436:.\Generated_Source\PSoC4/UART_UART.c ****     /*******************************************************************************
 437:.\Generated_Source\PSoC4/UART_UART.c ****     * Function Name: UART_UartPutString
 438:.\Generated_Source\PSoC4/UART_UART.c ****     ********************************************************************************
 439:.\Generated_Source\PSoC4/UART_UART.c ****     *
 440:.\Generated_Source\PSoC4/UART_UART.c ****     * Summary:
 441:.\Generated_Source\PSoC4/UART_UART.c ****     *  Places a NULL terminated string in the transmit buffer to be sent at the
 442:.\Generated_Source\PSoC4/UART_UART.c ****     *  next available bus time.
 443:.\Generated_Source\PSoC4/UART_UART.c ****     *  This function is blocking and waits until there is space available to put
 444:.\Generated_Source\PSoC4/UART_UART.c ****     *  all the requested data into the  transmit buffer.
 445:.\Generated_Source\PSoC4/UART_UART.c ****     *
 446:.\Generated_Source\PSoC4/UART_UART.c ****     * Parameters:
 447:.\Generated_Source\PSoC4/UART_UART.c ****     *  string: pointer to the null terminated string array to be placed in the
 448:.\Generated_Source\PSoC4/UART_UART.c ****     *          transmit buffer.
 449:.\Generated_Source\PSoC4/UART_UART.c ****     *
 450:.\Generated_Source\PSoC4/UART_UART.c ****     * Return:
 451:.\Generated_Source\PSoC4/UART_UART.c ****     *  None
 452:.\Generated_Source\PSoC4/UART_UART.c ****     *
 453:.\Generated_Source\PSoC4/UART_UART.c ****     *******************************************************************************/
 454:.\Generated_Source\PSoC4/UART_UART.c ****     void UART_UartPutString(const char8 string[])
 455:.\Generated_Source\PSoC4/UART_UART.c ****     {
 353              		.loc 1 455 0
 354              		.cfi_startproc
 355              	.LVL27:
 356 0000 10B5     		push	{r4, lr}
 357              	.LCFI3:
 358              		.cfi_def_cfa_offset 8
 359              		.cfi_offset 4, -8
 360              		.cfi_offset 14, -4
 361 0002 041C     		mov	r4, r0
 362              	.LVL28:
ARM GAS  C:\Users\ZHANGM~1\AppData\Local\Temp\ccn26lYd.s 			page 16


 363              	.L27:
 364 0004 0134     		add	r4, r4, #1
 454:.\Generated_Source\PSoC4/UART_UART.c ****     void UART_UartPutString(const char8 string[])
 365              		.loc 1 454 0 discriminator 1
 366 0006 631E     		sub	r3, r4, #1
 456:.\Generated_Source\PSoC4/UART_UART.c ****         uint32 bufIndex;
 457:.\Generated_Source\PSoC4/UART_UART.c **** 
 458:.\Generated_Source\PSoC4/UART_UART.c ****         bufIndex = 0u;
 459:.\Generated_Source\PSoC4/UART_UART.c **** 
 460:.\Generated_Source\PSoC4/UART_UART.c ****         /* Block the control flow until all data has been sent */
 461:.\Generated_Source\PSoC4/UART_UART.c ****         while(string[bufIndex] != ((char8) 0))
 367              		.loc 1 461 0 discriminator 1
 368 0008 1878     		ldrb	r0, [r3]
 369 000a 0028     		cmp	r0, #0
 370 000c 02D0     		beq	.L29
 371              	.L28:
 462:.\Generated_Source\PSoC4/UART_UART.c ****         {
 463:.\Generated_Source\PSoC4/UART_UART.c ****             UART_UartPutChar((uint32) string[bufIndex]);
 372              		.loc 1 463 0
 373 000e FFF7FEFF 		bl	UART_SpiUartWriteTxData
 374              	.LVL29:
 375 0012 F7E7     		b	.L27
 376              	.L29:
 464:.\Generated_Source\PSoC4/UART_UART.c ****             bufIndex++;
 465:.\Generated_Source\PSoC4/UART_UART.c ****         }
 466:.\Generated_Source\PSoC4/UART_UART.c ****     }
 377              		.loc 1 466 0
 378              		@ sp needed for prologue
 379 0014 10BD     		pop	{r4, pc}
 380              		.cfi_endproc
 381              	.LFE5:
 382              		.size	UART_UartPutString, .-UART_UartPutString
 383              		.section	.text.UART_UartPutCRLF,"ax",%progbits
 384              		.align	1
 385              		.global	UART_UartPutCRLF
 386              		.code	16
 387              		.thumb_func
 388              		.type	UART_UartPutCRLF, %function
 389              	UART_UartPutCRLF:
 390              	.LFB6:
 467:.\Generated_Source\PSoC4/UART_UART.c **** 
 468:.\Generated_Source\PSoC4/UART_UART.c **** 
 469:.\Generated_Source\PSoC4/UART_UART.c ****     /*******************************************************************************
 470:.\Generated_Source\PSoC4/UART_UART.c ****     * Function Name: UART_UartPutCRLF
 471:.\Generated_Source\PSoC4/UART_UART.c ****     ********************************************************************************
 472:.\Generated_Source\PSoC4/UART_UART.c ****     *
 473:.\Generated_Source\PSoC4/UART_UART.c ****     * Summary:
 474:.\Generated_Source\PSoC4/UART_UART.c ****     *  Places a byte of data followed by a carriage return (0x0D) and line feed (0x0A)
 475:.\Generated_Source\PSoC4/UART_UART.c ****     *  into the transmit buffer.
 476:.\Generated_Source\PSoC4/UART_UART.c ****     *  This function is blocking and waits until there is space available to put
 477:.\Generated_Source\PSoC4/UART_UART.c ****     *  all the requested data into the  transmit buffer.
 478:.\Generated_Source\PSoC4/UART_UART.c ****     *
 479:.\Generated_Source\PSoC4/UART_UART.c ****     * Parameters:
 480:.\Generated_Source\PSoC4/UART_UART.c ****     *  txDataByte : the data to be transmitted.
 481:.\Generated_Source\PSoC4/UART_UART.c ****     *
 482:.\Generated_Source\PSoC4/UART_UART.c ****     * Return:
 483:.\Generated_Source\PSoC4/UART_UART.c ****     *  None
ARM GAS  C:\Users\ZHANGM~1\AppData\Local\Temp\ccn26lYd.s 			page 17


 484:.\Generated_Source\PSoC4/UART_UART.c ****     *
 485:.\Generated_Source\PSoC4/UART_UART.c ****     *******************************************************************************/
 486:.\Generated_Source\PSoC4/UART_UART.c ****     void UART_UartPutCRLF(uint32 txDataByte)
 487:.\Generated_Source\PSoC4/UART_UART.c ****     {
 391              		.loc 1 487 0
 392              		.cfi_startproc
 393              	.LVL30:
 394 0000 08B5     		push	{r3, lr}
 395              	.LCFI4:
 396              		.cfi_def_cfa_offset 8
 397              		.cfi_offset 3, -8
 398              		.cfi_offset 14, -4
 488:.\Generated_Source\PSoC4/UART_UART.c ****         UART_UartPutChar(txDataByte);  /* Blocks control flow until all data has been sent */
 399              		.loc 1 488 0
 400 0002 FFF7FEFF 		bl	UART_SpiUartWriteTxData
 401              	.LVL31:
 489:.\Generated_Source\PSoC4/UART_UART.c ****         UART_UartPutChar(0x0Du);       /* Blocks control flow until all data has been sent */
 402              		.loc 1 489 0
 403 0006 0D20     		mov	r0, #13
 404 0008 FFF7FEFF 		bl	UART_SpiUartWriteTxData
 405              	.LVL32:
 490:.\Generated_Source\PSoC4/UART_UART.c ****         UART_UartPutChar(0x0Au);       /* Blocks control flow until all data has been sent */
 406              		.loc 1 490 0
 407 000c 0A20     		mov	r0, #10
 408 000e FFF7FEFF 		bl	UART_SpiUartWriteTxData
 409              	.LVL33:
 491:.\Generated_Source\PSoC4/UART_UART.c ****     }
 410              		.loc 1 491 0
 411              		@ sp needed for prologue
 412 0012 08BD     		pop	{r3, pc}
 413              		.cfi_endproc
 414              	.LFE6:
 415              		.size	UART_UartPutCRLF, .-UART_UartPutCRLF
 416              		.text
 417              	.Letext0:
 418              		.file 2 "./Generated_Source/PSoC4/cytypes.h"
 419              		.file 3 "./Generated_Source/PSoC4/CyLib.h"
 420              		.file 4 ".\\Generated_Source\\PSoC4\\UART_SPI_UART.h"
 421              		.file 5 ".\\Generated_Source\\PSoC4\\UART_SPI_UART_PVT.h"