ARM GAS  C:\Users\ZHANGM~1\AppData\Local\Temp\ccVrtFkU.s 			page 1


   1              		.cpu cortex-m0
   2              		.fpu softvfp
   3              		.eabi_attribute 20, 1
   4              		.eabi_attribute 21, 1
   5              		.eabi_attribute 23, 3
   6              		.eabi_attribute 24, 1
   7              		.eabi_attribute 25, 1
   8              		.eabi_attribute 26, 1
   9              		.eabi_attribute 30, 4
  10              		.eabi_attribute 34, 0
  11              		.eabi_attribute 18, 4
  12              		.code	16
  13              		.file	"CapSense_INT.c"
  14              		.text
  15              	.Ltext0:
  16              		.cfi_sections	.debug_frame
  17              		.section	.text.CapSense_ISR,"ax",%progbits
  18              		.align	1
  19              		.global	CapSense_ISR
  20              		.code	16
  21              		.thumb_func
  22              		.type	CapSense_ISR, %function
  23              	CapSense_ISR:
  24              	.LFB33:
  25              		.file 1 ".\\Generated_Source\\PSoC4\\CapSense_INT.c"
   1:.\Generated_Source\PSoC4/CapSense_INT.c **** /*******************************************************************************
   2:.\Generated_Source\PSoC4/CapSense_INT.c **** * File Name: CapSense_INT.c
   3:.\Generated_Source\PSoC4/CapSense_INT.c **** * Version 2.0
   4:.\Generated_Source\PSoC4/CapSense_INT.c **** *
   5:.\Generated_Source\PSoC4/CapSense_INT.c **** * Description:
   6:.\Generated_Source\PSoC4/CapSense_INT.c **** *  This file provides the source code of the  Interrupt Service Routine (ISR)
   7:.\Generated_Source\PSoC4/CapSense_INT.c **** *  for the CapSense CSD component.
   8:.\Generated_Source\PSoC4/CapSense_INT.c **** *
   9:.\Generated_Source\PSoC4/CapSense_INT.c **** * Note:
  10:.\Generated_Source\PSoC4/CapSense_INT.c **** *
  11:.\Generated_Source\PSoC4/CapSense_INT.c **** ********************************************************************************
  12:.\Generated_Source\PSoC4/CapSense_INT.c **** * Copyright 2014, Cypress Semiconductor Corporation.  All rights reserved.
  13:.\Generated_Source\PSoC4/CapSense_INT.c **** * You may use this file only in accordance with the license, terms, conditions,
  14:.\Generated_Source\PSoC4/CapSense_INT.c **** * disclaimers, and limitations in the end user license agreement accompanying
  15:.\Generated_Source\PSoC4/CapSense_INT.c **** * the software package with which this file was provided.
  16:.\Generated_Source\PSoC4/CapSense_INT.c **** *******************************************************************************/
  17:.\Generated_Source\PSoC4/CapSense_INT.c **** 
  18:.\Generated_Source\PSoC4/CapSense_INT.c **** #include "CapSense.h"
  19:.\Generated_Source\PSoC4/CapSense_INT.c **** 
  20:.\Generated_Source\PSoC4/CapSense_INT.c **** /*******************************************************************************
  21:.\Generated_Source\PSoC4/CapSense_INT.c **** *  Place your includes, defines and code here 
  22:.\Generated_Source\PSoC4/CapSense_INT.c **** ********************************************************************************/
  23:.\Generated_Source\PSoC4/CapSense_INT.c **** /* `#START CapSense_ISR_INTC` */
  24:.\Generated_Source\PSoC4/CapSense_INT.c **** 
  25:.\Generated_Source\PSoC4/CapSense_INT.c **** /* `#END` */
  26:.\Generated_Source\PSoC4/CapSense_INT.c **** 
  27:.\Generated_Source\PSoC4/CapSense_INT.c **** /* Extern functions declarations, Start and Compete scan */
  28:.\Generated_Source\PSoC4/CapSense_INT.c **** extern void CapSense_PreScan(uint32 sensor);
  29:.\Generated_Source\PSoC4/CapSense_INT.c **** extern void CapSense_PostScan(uint32 sensor);
  30:.\Generated_Source\PSoC4/CapSense_INT.c **** 
  31:.\Generated_Source\PSoC4/CapSense_INT.c **** extern uint8 CapSense_FindNextSensor(uint8 snsIndex);
  32:.\Generated_Source\PSoC4/CapSense_INT.c ****  
ARM GAS  C:\Users\ZHANGM~1\AppData\Local\Temp\ccVrtFkU.s 			page 2


  33:.\Generated_Source\PSoC4/CapSense_INT.c **** /* Global variables and arrays */
  34:.\Generated_Source\PSoC4/CapSense_INT.c **** extern volatile uint8 CapSense_csdStatusVar;
  35:.\Generated_Source\PSoC4/CapSense_INT.c **** extern volatile uint8 CapSense_sensorIndex;
  36:.\Generated_Source\PSoC4/CapSense_INT.c **** 
  37:.\Generated_Source\PSoC4/CapSense_INT.c **** static uint8 CapSense_snsIndexTmp;
  38:.\Generated_Source\PSoC4/CapSense_INT.c **** 
  39:.\Generated_Source\PSoC4/CapSense_INT.c **** extern volatile uint8 CapSense_sensorEnableMask[];
  40:.\Generated_Source\PSoC4/CapSense_INT.c **** extern uint8 CapSense_sensorEnableMaskBackup[];
  41:.\Generated_Source\PSoC4/CapSense_INT.c **** 
  42:.\Generated_Source\PSoC4/CapSense_INT.c **** /*******************************************************************************
  43:.\Generated_Source\PSoC4/CapSense_INT.c **** * Function Name: CapSense_ISR
  44:.\Generated_Source\PSoC4/CapSense_INT.c **** ********************************************************************************
  45:.\Generated_Source\PSoC4/CapSense_INT.c **** *
  46:.\Generated_Source\PSoC4/CapSense_INT.c **** * Summary:
  47:.\Generated_Source\PSoC4/CapSense_INT.c **** *  This ISR is executed when the measure window is closed. The measure window 
  48:.\Generated_Source\PSoC4/CapSense_INT.c **** *  depends on the sensor scan resolution parameter. 
  49:.\Generated_Source\PSoC4/CapSense_INT.c **** *  The ISR has two modes: 
  50:.\Generated_Source\PSoC4/CapSense_INT.c **** *   1. Scans a single sensor and stores the measure result.
  51:.\Generated_Source\PSoC4/CapSense_INT.c **** *   2. Stores the result of the current measure and starts the next scan till all 
  52:.\Generated_Source\PSoC4/CapSense_INT.c **** *      the enabled sensors are scanned.
  53:.\Generated_Source\PSoC4/CapSense_INT.c **** *  This interrupt handler is only used in one channel designs.
  54:.\Generated_Source\PSoC4/CapSense_INT.c **** *
  55:.\Generated_Source\PSoC4/CapSense_INT.c **** * Parameters:
  56:.\Generated_Source\PSoC4/CapSense_INT.c **** *  None
  57:.\Generated_Source\PSoC4/CapSense_INT.c **** *
  58:.\Generated_Source\PSoC4/CapSense_INT.c **** * Return:
  59:.\Generated_Source\PSoC4/CapSense_INT.c **** *  None
  60:.\Generated_Source\PSoC4/CapSense_INT.c **** *
  61:.\Generated_Source\PSoC4/CapSense_INT.c **** * Global Variables:
  62:.\Generated_Source\PSoC4/CapSense_INT.c **** *  CapSense_csv - used to provide the status and mode of the scanning process.
  63:.\Generated_Source\PSoC4/CapSense_INT.c **** *   Mode - a single scan or scan of all the enabled sensors.
  64:.\Generated_Source\PSoC4/CapSense_INT.c **** *   Status - scan is in progress or ready for new scan.
  65:.\Generated_Source\PSoC4/CapSense_INT.c **** *  CapSense_sensorIndex - used to store a sensor scanning sensor number.
  66:.\Generated_Source\PSoC4/CapSense_INT.c **** *
  67:.\Generated_Source\PSoC4/CapSense_INT.c **** * Reentrant:
  68:.\Generated_Source\PSoC4/CapSense_INT.c **** *  No
  69:.\Generated_Source\PSoC4/CapSense_INT.c **** *
  70:.\Generated_Source\PSoC4/CapSense_INT.c **** *******************************************************************************/
  71:.\Generated_Source\PSoC4/CapSense_INT.c **** CY_ISR(CapSense_ISR)
  72:.\Generated_Source\PSoC4/CapSense_INT.c **** {	
  26              		.loc 1 72 0
  27              		.cfi_startproc
  28 0000 70B5     		push	{r4, r5, r6, lr}
  29              	.LCFI0:
  30              		.cfi_def_cfa_offset 16
  31              		.cfi_offset 4, -16
  32              		.cfi_offset 5, -12
  33              		.cfi_offset 6, -8
  34              		.cfi_offset 14, -4
  73:.\Generated_Source\PSoC4/CapSense_INT.c **** 	/*  Place your Interrupt code here. */
  74:.\Generated_Source\PSoC4/CapSense_INT.c ****     /* `#START CapSense_ISR_ENTER` */
  75:.\Generated_Source\PSoC4/CapSense_INT.c **** 
  76:.\Generated_Source\PSoC4/CapSense_INT.c ****     /* `#END` */
  77:.\Generated_Source\PSoC4/CapSense_INT.c **** 
  78:.\Generated_Source\PSoC4/CapSense_INT.c **** 	CyIntDisable(CapSense_ISR_NUMBER);
  35              		.loc 1 78 0
  36 0002 0F20     		mov	r0, #15
ARM GAS  C:\Users\ZHANGM~1\AppData\Local\Temp\ccVrtFkU.s 			page 3


  37 0004 FFF7FEFF 		bl	CyIntDisable
  38              	.LVL0:
  79:.\Generated_Source\PSoC4/CapSense_INT.c ****     
  80:.\Generated_Source\PSoC4/CapSense_INT.c ****     CapSense_CSD_INTR_REG = 1u;
  39              		.loc 1 80 0
  40 0008 154B     		ldr	r3, .L8
  81:.\Generated_Source\PSoC4/CapSense_INT.c **** 
  82:.\Generated_Source\PSoC4/CapSense_INT.c ****     CapSense_PostScan((uint32)CapSense_sensorIndex);
  41              		.loc 1 82 0
  42 000a 164D     		ldr	r5, .L8+4
  80:.\Generated_Source\PSoC4/CapSense_INT.c ****     CapSense_CSD_INTR_REG = 1u;
  43              		.loc 1 80 0
  44 000c 0126     		mov	r6, #1
  45 000e 1E60     		str	r6, [r3]
  46              		.loc 1 82 0
  47 0010 2878     		ldrb	r0, [r5]
  48 0012 FFF7FEFF 		bl	CapSense_PostScan
  49              	.LVL1:
  83:.\Generated_Source\PSoC4/CapSense_INT.c ****             
  84:.\Generated_Source\PSoC4/CapSense_INT.c ****     if ((CapSense_csdStatusVar & CapSense_SW_CTRL_SINGLE_SCAN) != 0u)
  50              		.loc 1 84 0
  51 0016 144C     		ldr	r4, .L8+8
  52 0018 2078     		ldrb	r0, [r4]
  53 001a 41B2     		sxtb	r1, r0
  54 001c 0029     		cmp	r1, #0
  55 001e 03DA     		bge	.L2
  85:.\Generated_Source\PSoC4/CapSense_INT.c ****     {
  86:.\Generated_Source\PSoC4/CapSense_INT.c ****         CapSense_csdStatusVar &= (uint8)~CapSense_SW_STS_BUSY;
  56              		.loc 1 86 0
  57 0020 2378     		ldrb	r3, [r4]
  58 0022 B343     		bic	r3, r6
  59              	.LVL2:
  60 0024 2370     		strb	r3, [r4]
  61 0026 16E0     		b	.L3
  62              	.LVL3:
  63              	.L2:
  87:.\Generated_Source\PSoC4/CapSense_INT.c ****     }
  88:.\Generated_Source\PSoC4/CapSense_INT.c ****     else
  89:.\Generated_Source\PSoC4/CapSense_INT.c ****     {
  90:.\Generated_Source\PSoC4/CapSense_INT.c ****         /* Proceed scanning */
  91:.\Generated_Source\PSoC4/CapSense_INT.c ****         CapSense_sensorIndex = CapSense_FindNextSensor(CapSense_sensorIndex);
  64              		.loc 1 91 0
  65 0028 2878     		ldrb	r0, [r5]
  66 002a FFF7FEFF 		bl	CapSense_FindNextSensor
  67              	.LVL4:
  68 002e 2870     		strb	r0, [r5]
  92:.\Generated_Source\PSoC4/CapSense_INT.c ****         
  93:.\Generated_Source\PSoC4/CapSense_INT.c ****         /* Check end of scan */
  94:.\Generated_Source\PSoC4/CapSense_INT.c ****         if(CapSense_sensorIndex < CapSense_TOTAL_SENSOR_COUNT)
  69              		.loc 1 94 0
  70 0030 2A78     		ldrb	r2, [r5]
  71 0032 032A     		cmp	r2, #3
  72 0034 03D8     		bhi	.L4
  95:.\Generated_Source\PSoC4/CapSense_INT.c ****         {
  96:.\Generated_Source\PSoC4/CapSense_INT.c ****             CapSense_PreScan((uint32)CapSense_sensorIndex);
  73              		.loc 1 96 0
  74 0036 2878     		ldrb	r0, [r5]
ARM GAS  C:\Users\ZHANGM~1\AppData\Local\Temp\ccVrtFkU.s 			page 4


  75 0038 FFF7FEFF 		bl	CapSense_PreScan
  76              	.LVL5:
  77 003c 0BE0     		b	.L3
  78              	.L4:
  97:.\Generated_Source\PSoC4/CapSense_INT.c ****         }
  98:.\Generated_Source\PSoC4/CapSense_INT.c ****         else
  99:.\Generated_Source\PSoC4/CapSense_INT.c ****         {
 100:.\Generated_Source\PSoC4/CapSense_INT.c ****             CapSense_csdStatusVar &= (uint8)~CapSense_SW_STS_BUSY;
  79              		.loc 1 100 0
  80 003e 2378     		ldrb	r3, [r4]
  81 0040 B343     		bic	r3, r6
  82              	.LVL6:
  83 0042 2370     		strb	r3, [r4]
 101:.\Generated_Source\PSoC4/CapSense_INT.c **** 
 102:.\Generated_Source\PSoC4/CapSense_INT.c **** 			 /* Check if widget has been scanned */
 103:.\Generated_Source\PSoC4/CapSense_INT.c **** 			if((CapSense_csdStatusVar & CapSense_SW_CTRL_WIDGET_SCAN) != 0u)
  84              		.loc 1 103 0
  85 0044 2578     		ldrb	r5, [r4]
  86              	.LVL7:
  87 0046 6A06     		lsl	r2, r5, #25
  88 0048 05D5     		bpl	.L3
 104:.\Generated_Source\PSoC4/CapSense_INT.c **** 			{
 105:.\Generated_Source\PSoC4/CapSense_INT.c **** 			    /* Restore sensorEnableMask array */
 106:.\Generated_Source\PSoC4/CapSense_INT.c **** 				for(CapSense_snsIndexTmp = 0u; 
 107:.\Generated_Source\PSoC4/CapSense_INT.c **** 				    CapSense_snsIndexTmp < CapSense_TOTAL_SENSOR_MASK; 
 108:.\Generated_Source\PSoC4/CapSense_INT.c **** 					CapSense_snsIndexTmp++)
 109:.\Generated_Source\PSoC4/CapSense_INT.c **** 				{
 110:.\Generated_Source\PSoC4/CapSense_INT.c **** 					/* Backup sensorEnableMask array */
 111:.\Generated_Source\PSoC4/CapSense_INT.c **** 					CapSense_sensorEnableMask[CapSense_snsIndexTmp] = CapSense_sensorEnableMaskBackup[CapSense_sns
  89              		.loc 1 111 0
  90 004a 084C     		ldr	r4, .L8+12
  91 004c 0849     		ldr	r1, .L8+16
  92 004e 2078     		ldrb	r0, [r4]
  93 0050 084A     		ldr	r2, .L8+20
  94 0052 0870     		strb	r0, [r1]
  95 0054 1670     		strb	r6, [r2]
  96              	.LVL8:
  97              	.L3:
 112:.\Generated_Source\PSoC4/CapSense_INT.c **** 				}
 113:.\Generated_Source\PSoC4/CapSense_INT.c **** 			}
 114:.\Generated_Source\PSoC4/CapSense_INT.c ****         } 
 115:.\Generated_Source\PSoC4/CapSense_INT.c ****     }
 116:.\Generated_Source\PSoC4/CapSense_INT.c ****     CyIntEnable(CapSense_ISR_NUMBER);
  98              		.loc 1 116 0
  99 0056 0F20     		mov	r0, #15
 100 0058 FFF7FEFF 		bl	CyIntEnable
 101              	.LVL9:
 117:.\Generated_Source\PSoC4/CapSense_INT.c **** 	
 118:.\Generated_Source\PSoC4/CapSense_INT.c **** 	/*  Place your Interrupt code here. */
 119:.\Generated_Source\PSoC4/CapSense_INT.c ****     /* `#START CapSense_ISR_EXIT` */
 120:.\Generated_Source\PSoC4/CapSense_INT.c **** 
 121:.\Generated_Source\PSoC4/CapSense_INT.c ****     /* `#END` */
 122:.\Generated_Source\PSoC4/CapSense_INT.c **** }
 102              		.loc 1 122 0
 103              		@ sp needed for prologue
 104 005c 70BD     		pop	{r4, r5, r6, pc}
 105              	.L9:
ARM GAS  C:\Users\ZHANGM~1\AppData\Local\Temp\ccVrtFkU.s 			page 5


 106 005e C046     		.align	2
 107              	.L8:
 108 0060 14000840 		.word	1074266132
 109 0064 00000000 		.word	CapSense_sensorIndex
 110 0068 00000000 		.word	CapSense_csdStatusVar
 111 006c 00000000 		.word	CapSense_sensorEnableMaskBackup
 112 0070 00000000 		.word	CapSense_sensorEnableMask
 113 0074 00000000 		.word	.LANCHOR0
 114              		.cfi_endproc
 115              	.LFE33:
 116              		.size	CapSense_ISR, .-CapSense_ISR
 117              		.bss
 118              		.set	.LANCHOR0,. + 0
 119              		.type	CapSense_snsIndexTmp, %object
 120              		.size	CapSense_snsIndexTmp, 1
 121              	CapSense_snsIndexTmp:
 122 0000 00       		.space	1
 123              		.text
 124              	.Letext0:
 125              		.file 2 ".\\Generated_Source\\PSoC4\\cytypes.h"
 126              		.file 3 ".\\Generated_Source\\PSoC4\\CyLib.h"