ARM GAS  C:\Users\ZHANGM~1\AppData\Local\Temp\ccIXcGmA.s 			page 1


   1              		.cpu cortex-m0
   2              		.fpu softvfp
   3              		.eabi_attribute 20, 1
   4              		.eabi_attribute 21, 1
   5              		.eabi_attribute 23, 3
   6              		.eabi_attribute 24, 1
   7              		.eabi_attribute 25, 1
   8              		.eabi_attribute 26, 1
   9              		.eabi_attribute 30, 4
  10              		.eabi_attribute 34, 0
  11              		.eabi_attribute 18, 4
  12              		.code	16
  13              		.file	"CapSense_PM.c"
  14              		.text
  15              	.Ltext0:
  16              		.cfi_sections	.debug_frame
  17              		.section	.text.CapSense_SaveConfig,"ax",%progbits
  18              		.align	1
  19              		.global	CapSense_SaveConfig
  20              		.code	16
  21              		.thumb_func
  22              		.type	CapSense_SaveConfig, %function
  23              	CapSense_SaveConfig:
  24              	.LFB33:
  25              		.file 1 ".\\Generated_Source\\PSoC4\\CapSense_PM.c"
   1:.\Generated_Source\PSoC4/CapSense_PM.c **** /*******************************************************************************
   2:.\Generated_Source\PSoC4/CapSense_PM.c **** * File Name: CapSense_PM.c
   3:.\Generated_Source\PSoC4/CapSense_PM.c **** * Version 2.0
   4:.\Generated_Source\PSoC4/CapSense_PM.c **** *
   5:.\Generated_Source\PSoC4/CapSense_PM.c **** * Description:
   6:.\Generated_Source\PSoC4/CapSense_PM.c **** *  This file provides Sleep APIs for CapSense CSD Component.
   7:.\Generated_Source\PSoC4/CapSense_PM.c **** *
   8:.\Generated_Source\PSoC4/CapSense_PM.c **** * Note:
   9:.\Generated_Source\PSoC4/CapSense_PM.c **** *
  10:.\Generated_Source\PSoC4/CapSense_PM.c **** ********************************************************************************
  11:.\Generated_Source\PSoC4/CapSense_PM.c **** * Copyright 2014, Cypress Semiconductor Corporation.  All rights reserved.
  12:.\Generated_Source\PSoC4/CapSense_PM.c **** * You may use this file only in accordance with the license, terms, conditions, 
  13:.\Generated_Source\PSoC4/CapSense_PM.c **** * disclaimers, and limitations in the end user license agreement accompanying 
  14:.\Generated_Source\PSoC4/CapSense_PM.c **** * the software package with which this file was provided.
  15:.\Generated_Source\PSoC4/CapSense_PM.c **** *******************************************************************************/
  16:.\Generated_Source\PSoC4/CapSense_PM.c **** 
  17:.\Generated_Source\PSoC4/CapSense_PM.c **** #include "CapSense.h"
  18:.\Generated_Source\PSoC4/CapSense_PM.c **** 
  19:.\Generated_Source\PSoC4/CapSense_PM.c **** static CapSense_BACKUP_STRUCT CapSense_backup =
  20:.\Generated_Source\PSoC4/CapSense_PM.c **** {   
  21:.\Generated_Source\PSoC4/CapSense_PM.c ****     0x00u, /* enableState; */
  22:.\Generated_Source\PSoC4/CapSense_PM.c **** };
  23:.\Generated_Source\PSoC4/CapSense_PM.c **** 
  24:.\Generated_Source\PSoC4/CapSense_PM.c **** 
  25:.\Generated_Source\PSoC4/CapSense_PM.c **** /*******************************************************************************
  26:.\Generated_Source\PSoC4/CapSense_PM.c **** * Function Name: CapSense_SaveConfig
  27:.\Generated_Source\PSoC4/CapSense_PM.c **** ********************************************************************************
  28:.\Generated_Source\PSoC4/CapSense_PM.c **** *
  29:.\Generated_Source\PSoC4/CapSense_PM.c **** * Summary:
  30:.\Generated_Source\PSoC4/CapSense_PM.c **** *  Saves the customer configuration of CapSense.
  31:.\Generated_Source\PSoC4/CapSense_PM.c **** *
  32:.\Generated_Source\PSoC4/CapSense_PM.c **** * Parameters:
ARM GAS  C:\Users\ZHANGM~1\AppData\Local\Temp\ccIXcGmA.s 			page 2


  33:.\Generated_Source\PSoC4/CapSense_PM.c **** *  None
  34:.\Generated_Source\PSoC4/CapSense_PM.c **** *
  35:.\Generated_Source\PSoC4/CapSense_PM.c **** * Return:
  36:.\Generated_Source\PSoC4/CapSense_PM.c **** *  None
  37:.\Generated_Source\PSoC4/CapSense_PM.c **** *
  38:.\Generated_Source\PSoC4/CapSense_PM.c **** * Global Variables:
  39:.\Generated_Source\PSoC4/CapSense_PM.c **** *  CapSense_backup - used to save the component state before entering the  sleep 
  40:.\Generated_Source\PSoC4/CapSense_PM.c **** *  mode and none-retention registers.
  41:.\Generated_Source\PSoC4/CapSense_PM.c **** *
  42:.\Generated_Source\PSoC4/CapSense_PM.c **** * Side Effects:
  43:.\Generated_Source\PSoC4/CapSense_PM.c **** *  None
  44:.\Generated_Source\PSoC4/CapSense_PM.c **** *
  45:.\Generated_Source\PSoC4/CapSense_PM.c **** *******************************************************************************/
  46:.\Generated_Source\PSoC4/CapSense_PM.c **** void CapSense_SaveConfig(void)
  47:.\Generated_Source\PSoC4/CapSense_PM.c **** {
  26              		.loc 1 47 0
  27              		.cfi_startproc
  48:.\Generated_Source\PSoC4/CapSense_PM.c **** 	if ((CapSense_CSD_CFG_REG & CapSense_CSD_CFG_ENABLE) != 0u)
  28              		.loc 1 48 0
  29 0000 044B     		ldr	r3, .L4
  47:.\Generated_Source\PSoC4/CapSense_PM.c **** {
  30              		.loc 1 47 0
  31 0002 00B5     		push	{lr}
  32              	.LCFI0:
  33              		.cfi_def_cfa_offset 4
  34              		.cfi_offset 14, -4
  35              		.loc 1 48 0
  36 0004 1868     		ldr	r0, [r3]
  37 0006 0028     		cmp	r0, #0
  38 0008 02DA     		bge	.L1
  49:.\Generated_Source\PSoC4/CapSense_PM.c **** 	{
  50:.\Generated_Source\PSoC4/CapSense_PM.c **** 		CapSense_backup.enableState = 1u;
  39              		.loc 1 50 0
  40 000a 0349     		ldr	r1, .L4+4
  41 000c 0122     		mov	r2, #1
  42 000e 0A70     		strb	r2, [r1]
  43              	.L1:
  51:.\Generated_Source\PSoC4/CapSense_PM.c **** 	}
  52:.\Generated_Source\PSoC4/CapSense_PM.c **** }
  44              		.loc 1 52 0
  45              		@ sp needed for prologue
  46 0010 00BD     		pop	{pc}
  47              	.L5:
  48 0012 C046     		.align	2
  49              	.L4:
  50 0014 04000840 		.word	1074266116
  51 0018 00000000 		.word	.LANCHOR0
  52              		.cfi_endproc
  53              	.LFE33:
  54              		.size	CapSense_SaveConfig, .-CapSense_SaveConfig
  55              		.section	.text.CapSense_Sleep,"ax",%progbits
  56              		.align	1
  57              		.global	CapSense_Sleep
  58              		.code	16
  59              		.thumb_func
  60              		.type	CapSense_Sleep, %function
  61              	CapSense_Sleep:
ARM GAS  C:\Users\ZHANGM~1\AppData\Local\Temp\ccIXcGmA.s 			page 3


  62              	.LFB34:
  53:.\Generated_Source\PSoC4/CapSense_PM.c **** 
  54:.\Generated_Source\PSoC4/CapSense_PM.c **** 
  55:.\Generated_Source\PSoC4/CapSense_PM.c **** /*******************************************************************************
  56:.\Generated_Source\PSoC4/CapSense_PM.c **** * Function Name: CapSense_Sleep
  57:.\Generated_Source\PSoC4/CapSense_PM.c **** ********************************************************************************
  58:.\Generated_Source\PSoC4/CapSense_PM.c **** *
  59:.\Generated_Source\PSoC4/CapSense_PM.c **** * Summary:
  60:.\Generated_Source\PSoC4/CapSense_PM.c **** *  Disables the Active mode power.
  61:.\Generated_Source\PSoC4/CapSense_PM.c **** *
  62:.\Generated_Source\PSoC4/CapSense_PM.c **** * Parameters:
  63:.\Generated_Source\PSoC4/CapSense_PM.c **** *  None
  64:.\Generated_Source\PSoC4/CapSense_PM.c **** *
  65:.\Generated_Source\PSoC4/CapSense_PM.c **** * Return:
  66:.\Generated_Source\PSoC4/CapSense_PM.c **** *  None
  67:.\Generated_Source\PSoC4/CapSense_PM.c **** *
  68:.\Generated_Source\PSoC4/CapSense_PM.c **** * Global Variables:
  69:.\Generated_Source\PSoC4/CapSense_PM.c **** *  CapSense_backup - used to save the component state before entering the sleep 
  70:.\Generated_Source\PSoC4/CapSense_PM.c **** *  mode.
  71:.\Generated_Source\PSoC4/CapSense_PM.c **** *
  72:.\Generated_Source\PSoC4/CapSense_PM.c **** *******************************************************************************/
  73:.\Generated_Source\PSoC4/CapSense_PM.c **** void CapSense_Sleep(void)
  74:.\Generated_Source\PSoC4/CapSense_PM.c **** {
  63              		.loc 1 74 0
  64              		.cfi_startproc
  65 0000 08B5     		push	{r3, lr}
  66              	.LCFI1:
  67              		.cfi_def_cfa_offset 8
  68              		.cfi_offset 3, -8
  69              		.cfi_offset 14, -4
  75:.\Generated_Source\PSoC4/CapSense_PM.c **** 	CapSense_SaveConfig();
  70              		.loc 1 75 0
  71 0002 FFF7FEFF 		bl	CapSense_SaveConfig
  72              	.LVL0:
  76:.\Generated_Source\PSoC4/CapSense_PM.c **** 		
  77:.\Generated_Source\PSoC4/CapSense_PM.c **** 	/* Disable interrupt */
  78:.\Generated_Source\PSoC4/CapSense_PM.c **** 	CyIntDisable(CapSense_ISR_NUMBER);
  73              		.loc 1 78 0
  74 0006 0F20     		mov	r0, #15
  75 0008 FFF7FEFF 		bl	CyIntDisable
  76              	.LVL1:
  79:.\Generated_Source\PSoC4/CapSense_PM.c **** 	
  80:.\Generated_Source\PSoC4/CapSense_PM.c **** 	CapSense_CSD_CFG_REG &= ~(CapSense_CSD_CFG_SENSE_COMP_EN | CapSense_CSD_CFG_SENSE_EN);
  77              		.loc 1 80 0
  78 000c 064B     		ldr	r3, .L7
  79 000e 074A     		ldr	r2, .L7+4
  80 0010 1968     		ldr	r1, [r3]
  81:.\Generated_Source\PSoC4/CapSense_PM.c **** 	
  82:.\Generated_Source\PSoC4/CapSense_PM.c **** 	#if(CapSense_IDAC_CNT == 2u)
  83:.\Generated_Source\PSoC4/CapSense_PM.c **** 		CapSense_CSD_CFG_REG &= ~(CapSense_CSD_CFG_ENABLE);
  84:.\Generated_Source\PSoC4/CapSense_PM.c **** 	#endif /* (CapSense_IDAC_CNT == 2u) */
  85:.\Generated_Source\PSoC4/CapSense_PM.c **** 	
  86:.\Generated_Source\PSoC4/CapSense_PM.c **** 	/* Disable Clocks */
  87:.\Generated_Source\PSoC4/CapSense_PM.c ****     CapSense_SenseClk_Stop();
  88:.\Generated_Source\PSoC4/CapSense_PM.c ****     CapSense_SampleClk_Stop();
  89:.\Generated_Source\PSoC4/CapSense_PM.c **** }
  81              		.loc 1 89 0
ARM GAS  C:\Users\ZHANGM~1\AppData\Local\Temp\ccIXcGmA.s 			page 4


  82              		@ sp needed for prologue
  80:.\Generated_Source\PSoC4/CapSense_PM.c **** 	CapSense_CSD_CFG_REG &= ~(CapSense_CSD_CFG_SENSE_COMP_EN | CapSense_CSD_CFG_SENSE_EN);
  83              		.loc 1 80 0
  84 0012 0A40     		and	r2, r1
  85 0014 1A60     		str	r2, [r3]
  83:.\Generated_Source\PSoC4/CapSense_PM.c **** 		CapSense_CSD_CFG_REG &= ~(CapSense_CSD_CFG_ENABLE);
  86              		.loc 1 83 0
  87 0016 1868     		ldr	r0, [r3]
  88 0018 4100     		lsl	r1, r0, #1
  89 001a 4A08     		lsr	r2, r1, #1
  90 001c 1A60     		str	r2, [r3]
  87:.\Generated_Source\PSoC4/CapSense_PM.c ****     CapSense_SenseClk_Stop();
  91              		.loc 1 87 0
  92 001e FFF7FEFF 		bl	CapSense_SenseClk_Stop
  93              	.LVL2:
  88:.\Generated_Source\PSoC4/CapSense_PM.c ****     CapSense_SampleClk_Stop();
  94              		.loc 1 88 0
  95 0022 FFF7FEFF 		bl	CapSense_SampleClk_Stop
  96              	.LVL3:
  97              		.loc 1 89 0
  98 0026 08BD     		pop	{r3, pc}
  99              	.L8:
 100              		.align	2
 101              	.L7:
 102 0028 04000840 		.word	1074266116
 103 002c FFEFF7FF 		.word	-528385
 104              		.cfi_endproc
 105              	.LFE34:
 106              		.size	CapSense_Sleep, .-CapSense_Sleep
 107              		.section	.text.CapSense_RestoreConfig,"ax",%progbits
 108              		.align	1
 109              		.global	CapSense_RestoreConfig
 110              		.code	16
 111              		.thumb_func
 112              		.type	CapSense_RestoreConfig, %function
 113              	CapSense_RestoreConfig:
 114              	.LFB35:
  90:.\Generated_Source\PSoC4/CapSense_PM.c **** 
  91:.\Generated_Source\PSoC4/CapSense_PM.c **** 
  92:.\Generated_Source\PSoC4/CapSense_PM.c **** /*******************************************************************************
  93:.\Generated_Source\PSoC4/CapSense_PM.c **** * Function Name: CapSense_RestoreConfig
  94:.\Generated_Source\PSoC4/CapSense_PM.c **** ********************************************************************************
  95:.\Generated_Source\PSoC4/CapSense_PM.c **** *
  96:.\Generated_Source\PSoC4/CapSense_PM.c **** * Summary:
  97:.\Generated_Source\PSoC4/CapSense_PM.c **** *  Restores the CapSense configuration.
  98:.\Generated_Source\PSoC4/CapSense_PM.c **** *
  99:.\Generated_Source\PSoC4/CapSense_PM.c **** * Parameters:
 100:.\Generated_Source\PSoC4/CapSense_PM.c **** *  None
 101:.\Generated_Source\PSoC4/CapSense_PM.c **** *
 102:.\Generated_Source\PSoC4/CapSense_PM.c **** * Return:
 103:.\Generated_Source\PSoC4/CapSense_PM.c **** *  None
 104:.\Generated_Source\PSoC4/CapSense_PM.c **** *
 105:.\Generated_Source\PSoC4/CapSense_PM.c **** * Side Effects:
 106:.\Generated_Source\PSoC4/CapSense_PM.c **** *  Must be called only after CapSense_SaveConfig() routine. Otherwise 
 107:.\Generated_Source\PSoC4/CapSense_PM.c **** *  the component configuration will be overwritten with its initial setting.  
 108:.\Generated_Source\PSoC4/CapSense_PM.c **** *
 109:.\Generated_Source\PSoC4/CapSense_PM.c **** * Global Variables:
ARM GAS  C:\Users\ZHANGM~1\AppData\Local\Temp\ccIXcGmA.s 			page 5


 110:.\Generated_Source\PSoC4/CapSense_PM.c **** *  CapSense_backup - used to save the component state before entering the sleep 
 111:.\Generated_Source\PSoC4/CapSense_PM.c **** *  mode and none-retention registers.
 112:.\Generated_Source\PSoC4/CapSense_PM.c **** *
 113:.\Generated_Source\PSoC4/CapSense_PM.c **** *******************************************************************************/
 114:.\Generated_Source\PSoC4/CapSense_PM.c **** void CapSense_RestoreConfig(void)
 115:.\Generated_Source\PSoC4/CapSense_PM.c **** {
 115              		.loc 1 115 0
 116              		.cfi_startproc
 116:.\Generated_Source\PSoC4/CapSense_PM.c **** 
 117:.\Generated_Source\PSoC4/CapSense_PM.c **** }
 117              		.loc 1 117 0
 118              		@ sp needed for prologue
 119 0000 7047     		bx	lr
 120              		.cfi_endproc
 121              	.LFE35:
 122              		.size	CapSense_RestoreConfig, .-CapSense_RestoreConfig
 123              		.section	.text.CapSense_Wakeup,"ax",%progbits
 124              		.align	1
 125              		.global	CapSense_Wakeup
 126              		.code	16
 127              		.thumb_func
 128              		.type	CapSense_Wakeup, %function
 129              	CapSense_Wakeup:
 130              	.LFB36:
 118:.\Generated_Source\PSoC4/CapSense_PM.c ****  
 119:.\Generated_Source\PSoC4/CapSense_PM.c ****  
 120:.\Generated_Source\PSoC4/CapSense_PM.c **** /*******************************************************************************
 121:.\Generated_Source\PSoC4/CapSense_PM.c **** * Function Name: CapSense_Wakeup
 122:.\Generated_Source\PSoC4/CapSense_PM.c **** ********************************************************************************
 123:.\Generated_Source\PSoC4/CapSense_PM.c **** *
 124:.\Generated_Source\PSoC4/CapSense_PM.c **** * Summary:
 125:.\Generated_Source\PSoC4/CapSense_PM.c **** *  Restores the CapSense configuration and non-retention register values. 
 126:.\Generated_Source\PSoC4/CapSense_PM.c **** *  Restores the enabled state of the component by setting the Active mode power template 
 127:.\Generated_Source\PSoC4/CapSense_PM.c **** *  bits for a number of components used within CapSense.
 128:.\Generated_Source\PSoC4/CapSense_PM.c **** *
 129:.\Generated_Source\PSoC4/CapSense_PM.c **** * Parameters:
 130:.\Generated_Source\PSoC4/CapSense_PM.c **** *  None
 131:.\Generated_Source\PSoC4/CapSense_PM.c **** *
 132:.\Generated_Source\PSoC4/CapSense_PM.c **** * Return:
 133:.\Generated_Source\PSoC4/CapSense_PM.c **** *  None
 134:.\Generated_Source\PSoC4/CapSense_PM.c **** *
 135:.\Generated_Source\PSoC4/CapSense_PM.c **** * Global Variables:
 136:.\Generated_Source\PSoC4/CapSense_PM.c **** *  CapSense_backup - used to save the component state before entering the sleep 
 137:.\Generated_Source\PSoC4/CapSense_PM.c **** *  mode and none-retention registers.
 138:.\Generated_Source\PSoC4/CapSense_PM.c **** *
 139:.\Generated_Source\PSoC4/CapSense_PM.c **** *******************************************************************************/
 140:.\Generated_Source\PSoC4/CapSense_PM.c **** void CapSense_Wakeup(void)
 141:.\Generated_Source\PSoC4/CapSense_PM.c **** {
 131              		.loc 1 141 0
 132              		.cfi_startproc
 133 0000 08B5     		push	{r3, lr}
 134              	.LCFI2:
 135              		.cfi_def_cfa_offset 8
 136              		.cfi_offset 3, -8
 137              		.cfi_offset 14, -4
 142:.\Generated_Source\PSoC4/CapSense_PM.c **** 	/* Enable the Clocks */
 143:.\Generated_Source\PSoC4/CapSense_PM.c ****     CapSense_SenseClk_Start();
ARM GAS  C:\Users\ZHANGM~1\AppData\Local\Temp\ccIXcGmA.s 			page 6


 138              		.loc 1 143 0
 139 0002 FFF7FEFF 		bl	CapSense_SenseClk_Start
 140              	.LVL4:
 144:.\Generated_Source\PSoC4/CapSense_PM.c ****     CapSense_SampleClk_Start();
 141              		.loc 1 144 0
 142 0006 FFF7FEFF 		bl	CapSense_SampleClk_Start
 143              	.LVL5:
 145:.\Generated_Source\PSoC4/CapSense_PM.c ****     
 146:.\Generated_Source\PSoC4/CapSense_PM.c **** 	/* Restore CapSense Enable state */
 147:.\Generated_Source\PSoC4/CapSense_PM.c ****     if (CapSense_backup.enableState != 0u)
 144              		.loc 1 147 0
 145 000a 034B     		ldr	r3, .L15
 146 000c 1878     		ldrb	r0, [r3]
 147 000e 0028     		cmp	r0, #0
 148 0010 01D0     		beq	.L10
 148:.\Generated_Source\PSoC4/CapSense_PM.c ****     {
 149:.\Generated_Source\PSoC4/CapSense_PM.c ****         CapSense_Enable();
 149              		.loc 1 149 0
 150 0012 FFF7FEFF 		bl	CapSense_Enable
 151              	.LVL6:
 152              	.L10:
 150:.\Generated_Source\PSoC4/CapSense_PM.c ****     }
 151:.\Generated_Source\PSoC4/CapSense_PM.c **** }
 153              		.loc 1 151 0
 154              		@ sp needed for prologue
 155 0016 08BD     		pop	{r3, pc}
 156              	.L16:
 157              		.align	2
 158              	.L15:
 159 0018 00000000 		.word	.LANCHOR0
 160              		.cfi_endproc
 161              	.LFE36:
 162              		.size	CapSense_Wakeup, .-CapSense_Wakeup
 163              		.bss
 164              		.set	.LANCHOR0,. + 0
 165              		.type	CapSense_backup, %object
 166              		.size	CapSense_backup, 1
 167              	CapSense_backup:
 168 0000 00       		.space	1
 169              		.text
 170              	.Letext0:
 171              		.file 2 ".\\Generated_Source\\PSoC4\\cytypes.h"
 172              		.file 3 ".\\Generated_Source\\PSoC4\\CapSense.h"
 173              		.file 4 ".\\Generated_Source\\PSoC4\\CapSense_SenseClk.h"
 174              		.file 5 ".\\Generated_Source\\PSoC4\\CapSense_SampleClk.h"
 175              		.file 6 ".\\Generated_Source\\PSoC4\\CyLib.h"