ARM GAS  C:\Users\ZHANGM~1\AppData\Local\Temp\cc4TYOuS.s 			page 1


   1              		.cpu cortex-m0
   2              		.fpu softvfp
   3              		.eabi_attribute 20, 1
   4              		.eabi_attribute 21, 1
   5              		.eabi_attribute 23, 3
   6              		.eabi_attribute 24, 1
   7              		.eabi_attribute 25, 1
   8              		.eabi_attribute 26, 1
   9              		.eabi_attribute 30, 4
  10              		.eabi_attribute 34, 0
  11              		.eabi_attribute 18, 4
  12              		.code	16
  13              		.file	"CC_ISR.c"
  14              		.text
  15              	.Ltext0:
  16              		.cfi_sections	.debug_frame
  17              		.section	.text.CC_ISR_Interrupt,"ax",%progbits
  18              		.align	1
  19              		.global	CC_ISR_Interrupt
  20              		.code	16
  21              		.thumb_func
  22              		.type	CC_ISR_Interrupt, %function
  23              	CC_ISR_Interrupt:
  24              	.LFB3:
  25              		.file 1 ".\\Generated_Source\\PSoC4\\CC_ISR.c"
   1:.\Generated_Source\PSoC4/CC_ISR.c **** /*******************************************************************************
   2:.\Generated_Source\PSoC4/CC_ISR.c **** * File Name: CC_ISR.c  
   3:.\Generated_Source\PSoC4/CC_ISR.c **** * Version 1.70
   4:.\Generated_Source\PSoC4/CC_ISR.c **** *
   5:.\Generated_Source\PSoC4/CC_ISR.c **** *  Description:
   6:.\Generated_Source\PSoC4/CC_ISR.c **** *   API for controlling the state of an interrupt.
   7:.\Generated_Source\PSoC4/CC_ISR.c **** *
   8:.\Generated_Source\PSoC4/CC_ISR.c **** *
   9:.\Generated_Source\PSoC4/CC_ISR.c **** *  Note:
  10:.\Generated_Source\PSoC4/CC_ISR.c **** *
  11:.\Generated_Source\PSoC4/CC_ISR.c **** ********************************************************************************
  12:.\Generated_Source\PSoC4/CC_ISR.c **** * Copyright 2008-2012, Cypress Semiconductor Corporation.  All rights reserved.
  13:.\Generated_Source\PSoC4/CC_ISR.c **** * You may use this file only in accordance with the license, terms, conditions, 
  14:.\Generated_Source\PSoC4/CC_ISR.c **** * disclaimers, and limitations in the end user license agreement accompanying 
  15:.\Generated_Source\PSoC4/CC_ISR.c **** * the software package with which this file was provided.
  16:.\Generated_Source\PSoC4/CC_ISR.c **** *******************************************************************************/
  17:.\Generated_Source\PSoC4/CC_ISR.c **** 
  18:.\Generated_Source\PSoC4/CC_ISR.c **** 
  19:.\Generated_Source\PSoC4/CC_ISR.c **** #include <cydevice_trm.h>
  20:.\Generated_Source\PSoC4/CC_ISR.c **** #include <CyLib.h>
  21:.\Generated_Source\PSoC4/CC_ISR.c **** #include <CC_ISR.h>
  22:.\Generated_Source\PSoC4/CC_ISR.c **** 
  23:.\Generated_Source\PSoC4/CC_ISR.c **** #if !defined(CC_ISR__REMOVED) /* Check for removal by optimization */
  24:.\Generated_Source\PSoC4/CC_ISR.c **** 
  25:.\Generated_Source\PSoC4/CC_ISR.c **** /*******************************************************************************
  26:.\Generated_Source\PSoC4/CC_ISR.c **** *  Place your includes, defines and code here 
  27:.\Generated_Source\PSoC4/CC_ISR.c **** ********************************************************************************/
  28:.\Generated_Source\PSoC4/CC_ISR.c **** /* `#START CC_ISR_intc` */
  29:.\Generated_Source\PSoC4/CC_ISR.c **** 
  30:.\Generated_Source\PSoC4/CC_ISR.c **** /* `#END` */
  31:.\Generated_Source\PSoC4/CC_ISR.c **** 
  32:.\Generated_Source\PSoC4/CC_ISR.c **** extern cyisraddress CyRamVectors[CYINT_IRQ_BASE + CY_NUM_INTERRUPTS];
ARM GAS  C:\Users\ZHANGM~1\AppData\Local\Temp\cc4TYOuS.s 			page 2


  33:.\Generated_Source\PSoC4/CC_ISR.c **** 
  34:.\Generated_Source\PSoC4/CC_ISR.c **** /* Declared in startup, used to set unused interrupts to. */
  35:.\Generated_Source\PSoC4/CC_ISR.c **** CY_ISR_PROTO(IntDefaultHandler);
  36:.\Generated_Source\PSoC4/CC_ISR.c **** 
  37:.\Generated_Source\PSoC4/CC_ISR.c **** 
  38:.\Generated_Source\PSoC4/CC_ISR.c **** /*******************************************************************************
  39:.\Generated_Source\PSoC4/CC_ISR.c **** * Function Name: CC_ISR_Start
  40:.\Generated_Source\PSoC4/CC_ISR.c **** ********************************************************************************
  41:.\Generated_Source\PSoC4/CC_ISR.c **** *
  42:.\Generated_Source\PSoC4/CC_ISR.c **** * Summary:
  43:.\Generated_Source\PSoC4/CC_ISR.c **** *  Set up the interrupt and enable it.
  44:.\Generated_Source\PSoC4/CC_ISR.c **** *
  45:.\Generated_Source\PSoC4/CC_ISR.c **** * Parameters:  
  46:.\Generated_Source\PSoC4/CC_ISR.c **** *   None
  47:.\Generated_Source\PSoC4/CC_ISR.c **** *
  48:.\Generated_Source\PSoC4/CC_ISR.c **** * Return:
  49:.\Generated_Source\PSoC4/CC_ISR.c **** *   None
  50:.\Generated_Source\PSoC4/CC_ISR.c **** *
  51:.\Generated_Source\PSoC4/CC_ISR.c **** *******************************************************************************/
  52:.\Generated_Source\PSoC4/CC_ISR.c **** void CC_ISR_Start(void)
  53:.\Generated_Source\PSoC4/CC_ISR.c **** {
  54:.\Generated_Source\PSoC4/CC_ISR.c ****     /* For all we know the interrupt is active. */
  55:.\Generated_Source\PSoC4/CC_ISR.c ****     CC_ISR_Disable();
  56:.\Generated_Source\PSoC4/CC_ISR.c **** 
  57:.\Generated_Source\PSoC4/CC_ISR.c ****     /* Set the ISR to point to the CC_ISR Interrupt. */
  58:.\Generated_Source\PSoC4/CC_ISR.c ****     CC_ISR_SetVector(&CC_ISR_Interrupt);
  59:.\Generated_Source\PSoC4/CC_ISR.c **** 
  60:.\Generated_Source\PSoC4/CC_ISR.c ****     /* Set the priority. */
  61:.\Generated_Source\PSoC4/CC_ISR.c ****     CC_ISR_SetPriority((uint8)CC_ISR_INTC_PRIOR_NUMBER);
  62:.\Generated_Source\PSoC4/CC_ISR.c **** 
  63:.\Generated_Source\PSoC4/CC_ISR.c ****     /* Enable it. */
  64:.\Generated_Source\PSoC4/CC_ISR.c ****     CC_ISR_Enable();
  65:.\Generated_Source\PSoC4/CC_ISR.c **** }
  66:.\Generated_Source\PSoC4/CC_ISR.c **** 
  67:.\Generated_Source\PSoC4/CC_ISR.c **** 
  68:.\Generated_Source\PSoC4/CC_ISR.c **** /*******************************************************************************
  69:.\Generated_Source\PSoC4/CC_ISR.c **** * Function Name: CC_ISR_StartEx
  70:.\Generated_Source\PSoC4/CC_ISR.c **** ********************************************************************************
  71:.\Generated_Source\PSoC4/CC_ISR.c **** *
  72:.\Generated_Source\PSoC4/CC_ISR.c **** * Summary:
  73:.\Generated_Source\PSoC4/CC_ISR.c **** *  Set up the interrupt and enable it.
  74:.\Generated_Source\PSoC4/CC_ISR.c **** *
  75:.\Generated_Source\PSoC4/CC_ISR.c **** * Parameters:  
  76:.\Generated_Source\PSoC4/CC_ISR.c **** *   address: Address of the ISR to set in the interrupt vector table.
  77:.\Generated_Source\PSoC4/CC_ISR.c **** *
  78:.\Generated_Source\PSoC4/CC_ISR.c **** * Return:
  79:.\Generated_Source\PSoC4/CC_ISR.c **** *   None
  80:.\Generated_Source\PSoC4/CC_ISR.c **** *
  81:.\Generated_Source\PSoC4/CC_ISR.c **** *******************************************************************************/
  82:.\Generated_Source\PSoC4/CC_ISR.c **** void CC_ISR_StartEx(cyisraddress address)
  83:.\Generated_Source\PSoC4/CC_ISR.c **** {
  84:.\Generated_Source\PSoC4/CC_ISR.c ****     /* For all we know the interrupt is active. */
  85:.\Generated_Source\PSoC4/CC_ISR.c ****     CC_ISR_Disable();
  86:.\Generated_Source\PSoC4/CC_ISR.c **** 
  87:.\Generated_Source\PSoC4/CC_ISR.c ****     /* Set the ISR to point to the CC_ISR Interrupt. */
  88:.\Generated_Source\PSoC4/CC_ISR.c ****     CC_ISR_SetVector(address);
  89:.\Generated_Source\PSoC4/CC_ISR.c **** 
ARM GAS  C:\Users\ZHANGM~1\AppData\Local\Temp\cc4TYOuS.s 			page 3


  90:.\Generated_Source\PSoC4/CC_ISR.c ****     /* Set the priority. */
  91:.\Generated_Source\PSoC4/CC_ISR.c ****     CC_ISR_SetPriority((uint8)CC_ISR_INTC_PRIOR_NUMBER);
  92:.\Generated_Source\PSoC4/CC_ISR.c **** 
  93:.\Generated_Source\PSoC4/CC_ISR.c ****     /* Enable it. */
  94:.\Generated_Source\PSoC4/CC_ISR.c ****     CC_ISR_Enable();
  95:.\Generated_Source\PSoC4/CC_ISR.c **** }
  96:.\Generated_Source\PSoC4/CC_ISR.c **** 
  97:.\Generated_Source\PSoC4/CC_ISR.c **** 
  98:.\Generated_Source\PSoC4/CC_ISR.c **** /*******************************************************************************
  99:.\Generated_Source\PSoC4/CC_ISR.c **** * Function Name: CC_ISR_Stop
 100:.\Generated_Source\PSoC4/CC_ISR.c **** ********************************************************************************
 101:.\Generated_Source\PSoC4/CC_ISR.c **** *
 102:.\Generated_Source\PSoC4/CC_ISR.c **** * Summary:
 103:.\Generated_Source\PSoC4/CC_ISR.c **** *   Disables and removes the interrupt.
 104:.\Generated_Source\PSoC4/CC_ISR.c **** *
 105:.\Generated_Source\PSoC4/CC_ISR.c **** * Parameters:  
 106:.\Generated_Source\PSoC4/CC_ISR.c **** *
 107:.\Generated_Source\PSoC4/CC_ISR.c **** * Return:
 108:.\Generated_Source\PSoC4/CC_ISR.c **** *   None
 109:.\Generated_Source\PSoC4/CC_ISR.c **** *
 110:.\Generated_Source\PSoC4/CC_ISR.c **** *******************************************************************************/
 111:.\Generated_Source\PSoC4/CC_ISR.c **** void CC_ISR_Stop(void)
 112:.\Generated_Source\PSoC4/CC_ISR.c **** {
 113:.\Generated_Source\PSoC4/CC_ISR.c ****     /* Disable this interrupt. */
 114:.\Generated_Source\PSoC4/CC_ISR.c ****     CC_ISR_Disable();
 115:.\Generated_Source\PSoC4/CC_ISR.c **** 
 116:.\Generated_Source\PSoC4/CC_ISR.c ****     /* Set the ISR to point to the passive one. */
 117:.\Generated_Source\PSoC4/CC_ISR.c ****     CC_ISR_SetVector(&IntDefaultHandler);
 118:.\Generated_Source\PSoC4/CC_ISR.c **** }
 119:.\Generated_Source\PSoC4/CC_ISR.c **** 
 120:.\Generated_Source\PSoC4/CC_ISR.c **** 
 121:.\Generated_Source\PSoC4/CC_ISR.c **** /*******************************************************************************
 122:.\Generated_Source\PSoC4/CC_ISR.c **** * Function Name: CC_ISR_Interrupt
 123:.\Generated_Source\PSoC4/CC_ISR.c **** ********************************************************************************
 124:.\Generated_Source\PSoC4/CC_ISR.c **** *
 125:.\Generated_Source\PSoC4/CC_ISR.c **** * Summary:
 126:.\Generated_Source\PSoC4/CC_ISR.c **** *   The default Interrupt Service Routine for CC_ISR.
 127:.\Generated_Source\PSoC4/CC_ISR.c **** *
 128:.\Generated_Source\PSoC4/CC_ISR.c **** *   Add custom code between the coments to keep the next version of this file
 129:.\Generated_Source\PSoC4/CC_ISR.c **** *   from over writting your code.
 130:.\Generated_Source\PSoC4/CC_ISR.c **** *
 131:.\Generated_Source\PSoC4/CC_ISR.c **** * Parameters:  
 132:.\Generated_Source\PSoC4/CC_ISR.c **** *   None
 133:.\Generated_Source\PSoC4/CC_ISR.c **** *
 134:.\Generated_Source\PSoC4/CC_ISR.c **** * Return:
 135:.\Generated_Source\PSoC4/CC_ISR.c **** *   None
 136:.\Generated_Source\PSoC4/CC_ISR.c **** *
 137:.\Generated_Source\PSoC4/CC_ISR.c **** *******************************************************************************/
 138:.\Generated_Source\PSoC4/CC_ISR.c **** CY_ISR(CC_ISR_Interrupt)
 139:.\Generated_Source\PSoC4/CC_ISR.c **** {
  26              		.loc 1 139 0
  27              		.cfi_startproc
 140:.\Generated_Source\PSoC4/CC_ISR.c ****     /*  Place your Interrupt code here. */
 141:.\Generated_Source\PSoC4/CC_ISR.c ****     /* `#START CC_ISR_Interrupt` */
 142:.\Generated_Source\PSoC4/CC_ISR.c **** 
 143:.\Generated_Source\PSoC4/CC_ISR.c ****     /* `#END` */
 144:.\Generated_Source\PSoC4/CC_ISR.c **** }
ARM GAS  C:\Users\ZHANGM~1\AppData\Local\Temp\cc4TYOuS.s 			page 4


  28              		.loc 1 144 0
  29              		@ sp needed for prologue
  30 0000 7047     		bx	lr
  31              		.cfi_endproc
  32              	.LFE3:
  33              		.size	CC_ISR_Interrupt, .-CC_ISR_Interrupt
  34              		.section	.text.CC_ISR_Stop,"ax",%progbits
  35              		.align	1
  36              		.global	CC_ISR_Stop
  37              		.code	16
  38              		.thumb_func
  39              		.type	CC_ISR_Stop, %function
  40              	CC_ISR_Stop:
  41              	.LFB2:
 112:.\Generated_Source\PSoC4/CC_ISR.c **** {
  42              		.loc 1 112 0
  43              		.cfi_startproc
  44              	.LBB18:
  45              	.LBB19:
 145:.\Generated_Source\PSoC4/CC_ISR.c **** 
 146:.\Generated_Source\PSoC4/CC_ISR.c **** 
 147:.\Generated_Source\PSoC4/CC_ISR.c **** /*******************************************************************************
 148:.\Generated_Source\PSoC4/CC_ISR.c **** * Function Name: CC_ISR_SetVector
 149:.\Generated_Source\PSoC4/CC_ISR.c **** ********************************************************************************
 150:.\Generated_Source\PSoC4/CC_ISR.c **** *
 151:.\Generated_Source\PSoC4/CC_ISR.c **** * Summary:
 152:.\Generated_Source\PSoC4/CC_ISR.c **** *   Change the ISR vector for the Interrupt. Note calling CC_ISR_Start
 153:.\Generated_Source\PSoC4/CC_ISR.c **** *   will override any effect this method would have had. To set the vector 
 154:.\Generated_Source\PSoC4/CC_ISR.c **** *   before the component has been started use CC_ISR_StartEx instead.
 155:.\Generated_Source\PSoC4/CC_ISR.c **** *
 156:.\Generated_Source\PSoC4/CC_ISR.c **** * Parameters:
 157:.\Generated_Source\PSoC4/CC_ISR.c **** *   address: Address of the ISR to set in the interrupt vector table.
 158:.\Generated_Source\PSoC4/CC_ISR.c **** *
 159:.\Generated_Source\PSoC4/CC_ISR.c **** * Return:
 160:.\Generated_Source\PSoC4/CC_ISR.c **** *   None
 161:.\Generated_Source\PSoC4/CC_ISR.c **** *
 162:.\Generated_Source\PSoC4/CC_ISR.c **** *******************************************************************************/
 163:.\Generated_Source\PSoC4/CC_ISR.c **** void CC_ISR_SetVector(cyisraddress address)
 164:.\Generated_Source\PSoC4/CC_ISR.c **** {
 165:.\Generated_Source\PSoC4/CC_ISR.c ****     CyRamVectors[CYINT_IRQ_BASE + CC_ISR__INTC_NUMBER] = address;
 166:.\Generated_Source\PSoC4/CC_ISR.c **** }
 167:.\Generated_Source\PSoC4/CC_ISR.c **** 
 168:.\Generated_Source\PSoC4/CC_ISR.c **** 
 169:.\Generated_Source\PSoC4/CC_ISR.c **** /*******************************************************************************
 170:.\Generated_Source\PSoC4/CC_ISR.c **** * Function Name: CC_ISR_GetVector
 171:.\Generated_Source\PSoC4/CC_ISR.c **** ********************************************************************************
 172:.\Generated_Source\PSoC4/CC_ISR.c **** *
 173:.\Generated_Source\PSoC4/CC_ISR.c **** * Summary:
 174:.\Generated_Source\PSoC4/CC_ISR.c **** *   Gets the "address" of the current ISR vector for the Interrupt.
 175:.\Generated_Source\PSoC4/CC_ISR.c **** *
 176:.\Generated_Source\PSoC4/CC_ISR.c **** * Parameters:
 177:.\Generated_Source\PSoC4/CC_ISR.c **** *   None
 178:.\Generated_Source\PSoC4/CC_ISR.c **** *
 179:.\Generated_Source\PSoC4/CC_ISR.c **** * Return:
 180:.\Generated_Source\PSoC4/CC_ISR.c **** *   Address of the ISR in the interrupt vector table.
 181:.\Generated_Source\PSoC4/CC_ISR.c **** *
 182:.\Generated_Source\PSoC4/CC_ISR.c **** *******************************************************************************/
ARM GAS  C:\Users\ZHANGM~1\AppData\Local\Temp\cc4TYOuS.s 			page 5


 183:.\Generated_Source\PSoC4/CC_ISR.c **** cyisraddress CC_ISR_GetVector(void)
 184:.\Generated_Source\PSoC4/CC_ISR.c **** {
 185:.\Generated_Source\PSoC4/CC_ISR.c ****     return CyRamVectors[CYINT_IRQ_BASE + CC_ISR__INTC_NUMBER];
 186:.\Generated_Source\PSoC4/CC_ISR.c **** }
 187:.\Generated_Source\PSoC4/CC_ISR.c **** 
 188:.\Generated_Source\PSoC4/CC_ISR.c **** 
 189:.\Generated_Source\PSoC4/CC_ISR.c **** /*******************************************************************************
 190:.\Generated_Source\PSoC4/CC_ISR.c **** * Function Name: CC_ISR_SetPriority
 191:.\Generated_Source\PSoC4/CC_ISR.c **** ********************************************************************************
 192:.\Generated_Source\PSoC4/CC_ISR.c **** *
 193:.\Generated_Source\PSoC4/CC_ISR.c **** * Summary:
 194:.\Generated_Source\PSoC4/CC_ISR.c **** *   Sets the Priority of the Interrupt. Note calling CC_ISR_Start
 195:.\Generated_Source\PSoC4/CC_ISR.c **** *   or CC_ISR_StartEx will override any effect this method would 
 196:.\Generated_Source\PSoC4/CC_ISR.c **** *   have had. This method should only be called after CC_ISR_Start or 
 197:.\Generated_Source\PSoC4/CC_ISR.c **** *   CC_ISR_StartEx has been called. To set the initial
 198:.\Generated_Source\PSoC4/CC_ISR.c **** *   priority for the component use the cydwr file in the tool.
 199:.\Generated_Source\PSoC4/CC_ISR.c **** *
 200:.\Generated_Source\PSoC4/CC_ISR.c **** * Parameters:
 201:.\Generated_Source\PSoC4/CC_ISR.c **** *   priority: Priority of the interrupt. 0 - 3, 0 being the highest.
 202:.\Generated_Source\PSoC4/CC_ISR.c **** *
 203:.\Generated_Source\PSoC4/CC_ISR.c **** * Return:
 204:.\Generated_Source\PSoC4/CC_ISR.c **** *   None
 205:.\Generated_Source\PSoC4/CC_ISR.c **** *
 206:.\Generated_Source\PSoC4/CC_ISR.c **** *******************************************************************************/
 207:.\Generated_Source\PSoC4/CC_ISR.c **** void CC_ISR_SetPriority(uint8 priority)
 208:.\Generated_Source\PSoC4/CC_ISR.c **** {
 209:.\Generated_Source\PSoC4/CC_ISR.c **** 	uint8 interruptState;
 210:.\Generated_Source\PSoC4/CC_ISR.c ****     uint32 priorityOffset = ((CC_ISR__INTC_NUMBER % 4u) * 8u) + 6u;
 211:.\Generated_Source\PSoC4/CC_ISR.c ****     
 212:.\Generated_Source\PSoC4/CC_ISR.c **** 	interruptState = CyEnterCriticalSection();
 213:.\Generated_Source\PSoC4/CC_ISR.c ****     *CC_ISR_INTC_PRIOR = (*CC_ISR_INTC_PRIOR & (uint32)(~CC_ISR__INTC_PRIOR_MASK)) |
 214:.\Generated_Source\PSoC4/CC_ISR.c ****                                     ((uint32)priority << priorityOffset);
 215:.\Generated_Source\PSoC4/CC_ISR.c **** 	CyExitCriticalSection(interruptState);
 216:.\Generated_Source\PSoC4/CC_ISR.c **** }
 217:.\Generated_Source\PSoC4/CC_ISR.c **** 
 218:.\Generated_Source\PSoC4/CC_ISR.c **** 
 219:.\Generated_Source\PSoC4/CC_ISR.c **** /*******************************************************************************
 220:.\Generated_Source\PSoC4/CC_ISR.c **** * Function Name: CC_ISR_GetPriority
 221:.\Generated_Source\PSoC4/CC_ISR.c **** ********************************************************************************
 222:.\Generated_Source\PSoC4/CC_ISR.c **** *
 223:.\Generated_Source\PSoC4/CC_ISR.c **** * Summary:
 224:.\Generated_Source\PSoC4/CC_ISR.c **** *   Gets the Priority of the Interrupt.
 225:.\Generated_Source\PSoC4/CC_ISR.c **** *
 226:.\Generated_Source\PSoC4/CC_ISR.c **** * Parameters:
 227:.\Generated_Source\PSoC4/CC_ISR.c **** *   None
 228:.\Generated_Source\PSoC4/CC_ISR.c **** *
 229:.\Generated_Source\PSoC4/CC_ISR.c **** * Return:
 230:.\Generated_Source\PSoC4/CC_ISR.c **** *   Priority of the interrupt. 0 - 3, 0 being the highest.
 231:.\Generated_Source\PSoC4/CC_ISR.c **** *
 232:.\Generated_Source\PSoC4/CC_ISR.c **** *******************************************************************************/
 233:.\Generated_Source\PSoC4/CC_ISR.c **** uint8 CC_ISR_GetPriority(void)
 234:.\Generated_Source\PSoC4/CC_ISR.c **** {
 235:.\Generated_Source\PSoC4/CC_ISR.c ****     uint32 priority;
 236:.\Generated_Source\PSoC4/CC_ISR.c **** 	uint32 priorityOffset = ((CC_ISR__INTC_NUMBER % 4u) * 8u) + 6u;
 237:.\Generated_Source\PSoC4/CC_ISR.c **** 
 238:.\Generated_Source\PSoC4/CC_ISR.c ****     priority = (*CC_ISR_INTC_PRIOR & CC_ISR__INTC_PRIOR_MASK) >> priorityOffset;
 239:.\Generated_Source\PSoC4/CC_ISR.c **** 
ARM GAS  C:\Users\ZHANGM~1\AppData\Local\Temp\cc4TYOuS.s 			page 6


 240:.\Generated_Source\PSoC4/CC_ISR.c ****     return (uint8)priority;
 241:.\Generated_Source\PSoC4/CC_ISR.c **** }
 242:.\Generated_Source\PSoC4/CC_ISR.c **** 
 243:.\Generated_Source\PSoC4/CC_ISR.c **** 
 244:.\Generated_Source\PSoC4/CC_ISR.c **** /*******************************************************************************
 245:.\Generated_Source\PSoC4/CC_ISR.c **** * Function Name: CC_ISR_Enable
 246:.\Generated_Source\PSoC4/CC_ISR.c **** ********************************************************************************
 247:.\Generated_Source\PSoC4/CC_ISR.c **** *
 248:.\Generated_Source\PSoC4/CC_ISR.c **** * Summary:
 249:.\Generated_Source\PSoC4/CC_ISR.c **** *   Enables the interrupt.
 250:.\Generated_Source\PSoC4/CC_ISR.c **** *
 251:.\Generated_Source\PSoC4/CC_ISR.c **** * Parameters:
 252:.\Generated_Source\PSoC4/CC_ISR.c **** *   None
 253:.\Generated_Source\PSoC4/CC_ISR.c **** *
 254:.\Generated_Source\PSoC4/CC_ISR.c **** * Return:
 255:.\Generated_Source\PSoC4/CC_ISR.c **** *   None
 256:.\Generated_Source\PSoC4/CC_ISR.c **** *
 257:.\Generated_Source\PSoC4/CC_ISR.c **** *******************************************************************************/
 258:.\Generated_Source\PSoC4/CC_ISR.c **** void CC_ISR_Enable(void)
 259:.\Generated_Source\PSoC4/CC_ISR.c **** {
 260:.\Generated_Source\PSoC4/CC_ISR.c ****     /* Enable the general interrupt. */
 261:.\Generated_Source\PSoC4/CC_ISR.c ****     *CC_ISR_INTC_SET_EN = CC_ISR__INTC_MASK;
 262:.\Generated_Source\PSoC4/CC_ISR.c **** }
 263:.\Generated_Source\PSoC4/CC_ISR.c **** 
 264:.\Generated_Source\PSoC4/CC_ISR.c **** 
 265:.\Generated_Source\PSoC4/CC_ISR.c **** /*******************************************************************************
 266:.\Generated_Source\PSoC4/CC_ISR.c **** * Function Name: CC_ISR_GetState
 267:.\Generated_Source\PSoC4/CC_ISR.c **** ********************************************************************************
 268:.\Generated_Source\PSoC4/CC_ISR.c **** *
 269:.\Generated_Source\PSoC4/CC_ISR.c **** * Summary:
 270:.\Generated_Source\PSoC4/CC_ISR.c **** *   Gets the state (enabled, disabled) of the Interrupt.
 271:.\Generated_Source\PSoC4/CC_ISR.c **** *
 272:.\Generated_Source\PSoC4/CC_ISR.c **** * Parameters:
 273:.\Generated_Source\PSoC4/CC_ISR.c **** *   None
 274:.\Generated_Source\PSoC4/CC_ISR.c **** *
 275:.\Generated_Source\PSoC4/CC_ISR.c **** * Return:
 276:.\Generated_Source\PSoC4/CC_ISR.c **** *   1 if enabled, 0 if disabled.
 277:.\Generated_Source\PSoC4/CC_ISR.c **** *
 278:.\Generated_Source\PSoC4/CC_ISR.c **** *******************************************************************************/
 279:.\Generated_Source\PSoC4/CC_ISR.c **** uint8 CC_ISR_GetState(void)
 280:.\Generated_Source\PSoC4/CC_ISR.c **** {
 281:.\Generated_Source\PSoC4/CC_ISR.c ****     /* Get the state of the general interrupt. */
 282:.\Generated_Source\PSoC4/CC_ISR.c ****     return ((*CC_ISR_INTC_SET_EN & (uint32)CC_ISR__INTC_MASK) != 0u) ? 1u:0u;
 283:.\Generated_Source\PSoC4/CC_ISR.c **** }
 284:.\Generated_Source\PSoC4/CC_ISR.c **** 
 285:.\Generated_Source\PSoC4/CC_ISR.c **** 
 286:.\Generated_Source\PSoC4/CC_ISR.c **** /*******************************************************************************
 287:.\Generated_Source\PSoC4/CC_ISR.c **** * Function Name: CC_ISR_Disable
 288:.\Generated_Source\PSoC4/CC_ISR.c **** ********************************************************************************
 289:.\Generated_Source\PSoC4/CC_ISR.c **** *
 290:.\Generated_Source\PSoC4/CC_ISR.c **** * Summary:
 291:.\Generated_Source\PSoC4/CC_ISR.c **** *   Disables the Interrupt.
 292:.\Generated_Source\PSoC4/CC_ISR.c **** *
 293:.\Generated_Source\PSoC4/CC_ISR.c **** * Parameters:
 294:.\Generated_Source\PSoC4/CC_ISR.c **** *   None
 295:.\Generated_Source\PSoC4/CC_ISR.c **** *
 296:.\Generated_Source\PSoC4/CC_ISR.c **** * Return:
ARM GAS  C:\Users\ZHANGM~1\AppData\Local\Temp\cc4TYOuS.s 			page 7


 297:.\Generated_Source\PSoC4/CC_ISR.c **** *   None
 298:.\Generated_Source\PSoC4/CC_ISR.c **** *
 299:.\Generated_Source\PSoC4/CC_ISR.c **** *******************************************************************************/
 300:.\Generated_Source\PSoC4/CC_ISR.c **** void CC_ISR_Disable(void)
 301:.\Generated_Source\PSoC4/CC_ISR.c **** {
 302:.\Generated_Source\PSoC4/CC_ISR.c ****     /* Disable the general interrupt. */
 303:.\Generated_Source\PSoC4/CC_ISR.c ****     *CC_ISR_INTC_CLR_EN = CC_ISR__INTC_MASK;
  46              		.loc 1 303 0
  47 0000 8022     		mov	r2, #128
  48 0002 5002     		lsl	r0, r2, #9
  49              	.LBE19:
  50              	.LBE18:
  51              	.LBB22:
  52              	.LBB23:
 165:.\Generated_Source\PSoC4/CC_ISR.c ****     CyRamVectors[CYINT_IRQ_BASE + CC_ISR__INTC_NUMBER] = address;
  53              		.loc 1 165 0
  54 0004 034A     		ldr	r2, .L3
  55              	.LBE23:
  56              	.LBE22:
  57              	.LBB26:
  58              	.LBB20:
  59              		.loc 1 303 0
  60 0006 044B     		ldr	r3, .L3+4
  61              	.LBE20:
  62              	.LBE26:
  63              	.LBB27:
  64              	.LBB24:
 165:.\Generated_Source\PSoC4/CC_ISR.c ****     CyRamVectors[CYINT_IRQ_BASE + CC_ISR__INTC_NUMBER] = address;
  65              		.loc 1 165 0
  66 0008 0449     		ldr	r1, .L3+8
  67 000a 0432     		add	r2, r2, #4
  68              	.LBE24:
  69              	.LBE27:
  70              	.LBB28:
  71              	.LBB21:
  72              		.loc 1 303 0
  73 000c 1860     		str	r0, [r3]
  74              	.LVL0:
  75              	.LBE21:
  76              	.LBE28:
 118:.\Generated_Source\PSoC4/CC_ISR.c **** }
  77              		.loc 1 118 0
  78              		@ sp needed for prologue
  79              	.LBB29:
  80              	.LBB25:
 165:.\Generated_Source\PSoC4/CC_ISR.c ****     CyRamVectors[CYINT_IRQ_BASE + CC_ISR__INTC_NUMBER] = address;
  81              		.loc 1 165 0
  82 000e D167     		str	r1, [r2, #124]
  83              	.LBE25:
  84              	.LBE29:
 118:.\Generated_Source\PSoC4/CC_ISR.c **** }
  85              		.loc 1 118 0
  86 0010 7047     		bx	lr
  87              	.L4:
  88 0012 C046     		.align	2
  89              	.L3:
  90 0014 00000000 		.word	CyRamVectors
ARM GAS  C:\Users\ZHANGM~1\AppData\Local\Temp\cc4TYOuS.s 			page 8


  91 0018 80E100E0 		.word	-536813184
  92 001c 00000000 		.word	IntDefaultHandler
  93              		.cfi_endproc
  94              	.LFE2:
  95              		.size	CC_ISR_Stop, .-CC_ISR_Stop
  96              		.section	.text.CC_ISR_SetVector,"ax",%progbits
  97              		.align	1
  98              		.global	CC_ISR_SetVector
  99              		.code	16
 100              		.thumb_func
 101              		.type	CC_ISR_SetVector, %function
 102              	CC_ISR_SetVector:
 103              	.LFB4:
 164:.\Generated_Source\PSoC4/CC_ISR.c **** {
 104              		.loc 1 164 0
 105              		.cfi_startproc
 106              	.LVL1:
 165:.\Generated_Source\PSoC4/CC_ISR.c ****     CyRamVectors[CYINT_IRQ_BASE + CC_ISR__INTC_NUMBER] = address;
 107              		.loc 1 165 0
 108 0000 014B     		ldr	r3, .L6
 166:.\Generated_Source\PSoC4/CC_ISR.c **** }
 109              		.loc 1 166 0
 110              		@ sp needed for prologue
 165:.\Generated_Source\PSoC4/CC_ISR.c ****     CyRamVectors[CYINT_IRQ_BASE + CC_ISR__INTC_NUMBER] = address;
 111              		.loc 1 165 0
 112 0002 0433     		add	r3, r3, #4
 113 0004 D867     		str	r0, [r3, #124]
 166:.\Generated_Source\PSoC4/CC_ISR.c **** }
 114              		.loc 1 166 0
 115 0006 7047     		bx	lr
 116              	.L7:
 117              		.align	2
 118              	.L6:
 119 0008 00000000 		.word	CyRamVectors
 120              		.cfi_endproc
 121              	.LFE4:
 122              		.size	CC_ISR_SetVector, .-CC_ISR_SetVector
 123              		.section	.text.CC_ISR_GetVector,"ax",%progbits
 124              		.align	1
 125              		.global	CC_ISR_GetVector
 126              		.code	16
 127              		.thumb_func
 128              		.type	CC_ISR_GetVector, %function
 129              	CC_ISR_GetVector:
 130              	.LFB5:
 184:.\Generated_Source\PSoC4/CC_ISR.c **** {
 131              		.loc 1 184 0
 132              		.cfi_startproc
 185:.\Generated_Source\PSoC4/CC_ISR.c ****     return CyRamVectors[CYINT_IRQ_BASE + CC_ISR__INTC_NUMBER];
 133              		.loc 1 185 0
 134 0000 014B     		ldr	r3, .L9
 186:.\Generated_Source\PSoC4/CC_ISR.c **** }
 135              		.loc 1 186 0
 136              		@ sp needed for prologue
 185:.\Generated_Source\PSoC4/CC_ISR.c ****     return CyRamVectors[CYINT_IRQ_BASE + CC_ISR__INTC_NUMBER];
 137              		.loc 1 185 0
 138 0002 0433     		add	r3, r3, #4
ARM GAS  C:\Users\ZHANGM~1\AppData\Local\Temp\cc4TYOuS.s 			page 9


 139 0004 D86F     		ldr	r0, [r3, #124]
 186:.\Generated_Source\PSoC4/CC_ISR.c **** }
 140              		.loc 1 186 0
 141 0006 7047     		bx	lr
 142              	.L10:
 143              		.align	2
 144              	.L9:
 145 0008 00000000 		.word	CyRamVectors
 146              		.cfi_endproc
 147              	.LFE5:
 148              		.size	CC_ISR_GetVector, .-CC_ISR_GetVector
 149              		.section	.text.CC_ISR_SetPriority,"ax",%progbits
 150              		.align	1
 151              		.global	CC_ISR_SetPriority
 152              		.code	16
 153              		.thumb_func
 154              		.type	CC_ISR_SetPriority, %function
 155              	CC_ISR_SetPriority:
 156              	.LFB6:
 208:.\Generated_Source\PSoC4/CC_ISR.c **** {
 157              		.loc 1 208 0
 158              		.cfi_startproc
 159              	.LVL2:
 160 0000 10B5     		push	{r4, lr}
 161              	.LCFI0:
 162              		.cfi_def_cfa_offset 8
 163              		.cfi_offset 4, -8
 164              		.cfi_offset 14, -4
 208:.\Generated_Source\PSoC4/CC_ISR.c **** {
 165              		.loc 1 208 0
 166 0002 041C     		mov	r4, r0
 212:.\Generated_Source\PSoC4/CC_ISR.c **** 	interruptState = CyEnterCriticalSection();
 167              		.loc 1 212 0
 168 0004 FFF7FEFF 		bl	CyEnterCriticalSection
 169              	.LVL3:
 213:.\Generated_Source\PSoC4/CC_ISR.c ****     *CC_ISR_INTC_PRIOR = (*CC_ISR_INTC_PRIOR & (uint32)(~CC_ISR__INTC_PRIOR_MASK)) |
 170              		.loc 1 213 0
 171 0008 044B     		ldr	r3, .L12
 214:.\Generated_Source\PSoC4/CC_ISR.c ****                                     ((uint32)priority << priorityOffset);
 172              		.loc 1 214 0
 173 000a A201     		lsl	r2, r4, #6
 213:.\Generated_Source\PSoC4/CC_ISR.c ****     *CC_ISR_INTC_PRIOR = (*CC_ISR_INTC_PRIOR & (uint32)(~CC_ISR__INTC_PRIOR_MASK)) |
 174              		.loc 1 213 0
 175 000c 1968     		ldr	r1, [r3]
 176 000e C024     		mov	r4, #192
 177 0010 A143     		bic	r1, r4
 178 0012 1143     		orr	r1, r2
 179 0014 1960     		str	r1, [r3]
 215:.\Generated_Source\PSoC4/CC_ISR.c **** 	CyExitCriticalSection(interruptState);
 180              		.loc 1 215 0
 181 0016 FFF7FEFF 		bl	CyExitCriticalSection
 182              	.LVL4:
 216:.\Generated_Source\PSoC4/CC_ISR.c **** }
 183              		.loc 1 216 0
 184              		@ sp needed for prologue
 185 001a 10BD     		pop	{r4, pc}
 186              	.L13:
ARM GAS  C:\Users\ZHANGM~1\AppData\Local\Temp\cc4TYOuS.s 			page 10


 187              		.align	2
 188              	.L12:
 189 001c 10E400E0 		.word	-536812528
 190              		.cfi_endproc
 191              	.LFE6:
 192              		.size	CC_ISR_SetPriority, .-CC_ISR_SetPriority
 193              		.section	.text.CC_ISR_StartEx,"ax",%progbits
 194              		.align	1
 195              		.global	CC_ISR_StartEx
 196              		.code	16
 197              		.thumb_func
 198              		.type	CC_ISR_StartEx, %function
 199              	CC_ISR_StartEx:
 200              	.LFB1:
  83:.\Generated_Source\PSoC4/CC_ISR.c **** {
 201              		.loc 1 83 0
 202              		.cfi_startproc
 203              	.LVL5:
 204              	.LBB30:
 205              	.LBB31:
 165:.\Generated_Source\PSoC4/CC_ISR.c ****     CyRamVectors[CYINT_IRQ_BASE + CC_ISR__INTC_NUMBER] = address;
 206              		.loc 1 165 0
 207 0000 0649     		ldr	r1, .L15
 208              	.LBE31:
 209              	.LBE30:
  83:.\Generated_Source\PSoC4/CC_ISR.c **** {
 210              		.loc 1 83 0
 211 0002 10B5     		push	{r4, lr}
 212              	.LCFI1:
 213              		.cfi_def_cfa_offset 8
 214              		.cfi_offset 4, -8
 215              		.cfi_offset 14, -4
 216              	.LBB34:
 217              	.LBB35:
 218              		.loc 1 303 0
 219 0004 064B     		ldr	r3, .L15+4
 220 0006 8024     		mov	r4, #128
 221 0008 6402     		lsl	r4, r4, #9
 222              	.LBE35:
 223              	.LBE34:
 224              	.LBB37:
 225              	.LBB32:
 165:.\Generated_Source\PSoC4/CC_ISR.c ****     CyRamVectors[CYINT_IRQ_BASE + CC_ISR__INTC_NUMBER] = address;
 226              		.loc 1 165 0
 227 000a 0431     		add	r1, r1, #4
 228              	.LBE32:
 229              	.LBE37:
 230              	.LBB38:
 231              	.LBB36:
 232              		.loc 1 303 0
 233 000c 1C60     		str	r4, [r3]
 234              	.LVL6:
 235              	.LBE36:
 236              	.LBE38:
 237              	.LBB39:
 238              	.LBB33:
 165:.\Generated_Source\PSoC4/CC_ISR.c ****     CyRamVectors[CYINT_IRQ_BASE + CC_ISR__INTC_NUMBER] = address;
ARM GAS  C:\Users\ZHANGM~1\AppData\Local\Temp\cc4TYOuS.s 			page 11


 239              		.loc 1 165 0
 240 000e C867     		str	r0, [r1, #124]
 241              	.LBE33:
 242              	.LBE39:
  91:.\Generated_Source\PSoC4/CC_ISR.c ****     CC_ISR_SetPriority((uint8)CC_ISR_INTC_PRIOR_NUMBER);
 243              		.loc 1 91 0
 244 0010 0320     		mov	r0, #3
 245              	.LVL7:
 246 0012 FFF7FEFF 		bl	CC_ISR_SetPriority
 247              	.LVL8:
 248              	.LBB40:
 249              	.LBB41:
 261:.\Generated_Source\PSoC4/CC_ISR.c ****     *CC_ISR_INTC_SET_EN = CC_ISR__INTC_MASK;
 250              		.loc 1 261 0
 251 0016 0348     		ldr	r0, .L15+8
 252              	.LBE41:
 253              	.LBE40:
  95:.\Generated_Source\PSoC4/CC_ISR.c **** }
 254              		.loc 1 95 0
 255              		@ sp needed for prologue
 256              	.LBB43:
 257              	.LBB42:
 261:.\Generated_Source\PSoC4/CC_ISR.c ****     *CC_ISR_INTC_SET_EN = CC_ISR__INTC_MASK;
 258              		.loc 1 261 0
 259 0018 0460     		str	r4, [r0]
 260              	.LBE42:
 261              	.LBE43:
  95:.\Generated_Source\PSoC4/CC_ISR.c **** }
 262              		.loc 1 95 0
 263 001a 10BD     		pop	{r4, pc}
 264              	.L16:
 265              		.align	2
 266              	.L15:
 267 001c 00000000 		.word	CyRamVectors
 268 0020 80E100E0 		.word	-536813184
 269 0024 00E100E0 		.word	-536813312
 270              		.cfi_endproc
 271              	.LFE1:
 272              		.size	CC_ISR_StartEx, .-CC_ISR_StartEx
 273              		.section	.text.CC_ISR_Start,"ax",%progbits
 274              		.align	1
 275              		.global	CC_ISR_Start
 276              		.code	16
 277              		.thumb_func
 278              		.type	CC_ISR_Start, %function
 279              	CC_ISR_Start:
 280              	.LFB0:
  53:.\Generated_Source\PSoC4/CC_ISR.c **** {
 281              		.loc 1 53 0
 282              		.cfi_startproc
 283              	.LBB44:
 284              	.LBB45:
 165:.\Generated_Source\PSoC4/CC_ISR.c ****     CyRamVectors[CYINT_IRQ_BASE + CC_ISR__INTC_NUMBER] = address;
 285              		.loc 1 165 0
 286 0000 0748     		ldr	r0, .L18
 287              	.LBE45:
 288              	.LBE44:
ARM GAS  C:\Users\ZHANGM~1\AppData\Local\Temp\cc4TYOuS.s 			page 12


  53:.\Generated_Source\PSoC4/CC_ISR.c **** {
 289              		.loc 1 53 0
 290 0002 10B5     		push	{r4, lr}
 291              	.LCFI2:
 292              		.cfi_def_cfa_offset 8
 293              		.cfi_offset 4, -8
 294              		.cfi_offset 14, -4
 295              	.LBB49:
 296              	.LBB50:
 297              		.loc 1 303 0
 298 0004 074B     		ldr	r3, .L18+4
 299              	.LBE50:
 300              	.LBE49:
 301              	.LBB53:
 302              	.LBB46:
 165:.\Generated_Source\PSoC4/CC_ISR.c ****     CyRamVectors[CYINT_IRQ_BASE + CC_ISR__INTC_NUMBER] = address;
 303              		.loc 1 165 0
 304 0006 084A     		ldr	r2, .L18+8
 305              	.LBE46:
 306              	.LBE53:
 307              	.LBB54:
 308              	.LBB51:
 309              		.loc 1 303 0
 310 0008 8024     		mov	r4, #128
 311 000a 6402     		lsl	r4, r4, #9
 312              	.LBE51:
 313              	.LBE54:
 314              	.LBB55:
 315              	.LBB47:
 165:.\Generated_Source\PSoC4/CC_ISR.c ****     CyRamVectors[CYINT_IRQ_BASE + CC_ISR__INTC_NUMBER] = address;
 316              		.loc 1 165 0
 317 000c 0430     		add	r0, r0, #4
 318              	.LBE47:
 319              	.LBE55:
 320              	.LBB56:
 321              	.LBB52:
 322              		.loc 1 303 0
 323 000e 1C60     		str	r4, [r3]
 324              	.LVL9:
 325              	.LBE52:
 326              	.LBE56:
 327              	.LBB57:
 328              	.LBB48:
 165:.\Generated_Source\PSoC4/CC_ISR.c ****     CyRamVectors[CYINT_IRQ_BASE + CC_ISR__INTC_NUMBER] = address;
 329              		.loc 1 165 0
 330 0010 C267     		str	r2, [r0, #124]
 331              	.LBE48:
 332              	.LBE57:
  61:.\Generated_Source\PSoC4/CC_ISR.c ****     CC_ISR_SetPriority((uint8)CC_ISR_INTC_PRIOR_NUMBER);
 333              		.loc 1 61 0
 334 0012 0320     		mov	r0, #3
 335 0014 FFF7FEFF 		bl	CC_ISR_SetPriority
 336              	.LVL10:
 337              	.LBB58:
 338              	.LBB59:
 261:.\Generated_Source\PSoC4/CC_ISR.c ****     *CC_ISR_INTC_SET_EN = CC_ISR__INTC_MASK;
 339              		.loc 1 261 0
ARM GAS  C:\Users\ZHANGM~1\AppData\Local\Temp\cc4TYOuS.s 			page 13


 340 0018 0449     		ldr	r1, .L18+12
 341              	.LBE59:
 342              	.LBE58:
  65:.\Generated_Source\PSoC4/CC_ISR.c **** }
 343              		.loc 1 65 0
 344              		@ sp needed for prologue
 345              	.LBB61:
 346              	.LBB60:
 261:.\Generated_Source\PSoC4/CC_ISR.c ****     *CC_ISR_INTC_SET_EN = CC_ISR__INTC_MASK;
 347              		.loc 1 261 0
 348 001a 0C60     		str	r4, [r1]
 349              	.LBE60:
 350              	.LBE61:
  65:.\Generated_Source\PSoC4/CC_ISR.c **** }
 351              		.loc 1 65 0
 352 001c 10BD     		pop	{r4, pc}
 353              	.L19:
 354 001e C046     		.align	2
 355              	.L18:
 356 0020 00000000 		.word	CyRamVectors
 357 0024 80E100E0 		.word	-536813184
 358 0028 00000000 		.word	CC_ISR_Interrupt
 359 002c 00E100E0 		.word	-536813312
 360              		.cfi_endproc
 361              	.LFE0:
 362              		.size	CC_ISR_Start, .-CC_ISR_Start
 363              		.section	.text.CC_ISR_GetPriority,"ax",%progbits
 364              		.align	1
 365              		.global	CC_ISR_GetPriority
 366              		.code	16
 367              		.thumb_func
 368              		.type	CC_ISR_GetPriority, %function
 369              	CC_ISR_GetPriority:
 370              	.LFB7:
 234:.\Generated_Source\PSoC4/CC_ISR.c **** {
 371              		.loc 1 234 0
 372              		.cfi_startproc
 373              	.LVL11:
 238:.\Generated_Source\PSoC4/CC_ISR.c ****     priority = (*CC_ISR_INTC_PRIOR & CC_ISR__INTC_PRIOR_MASK) >> priorityOffset;
 374              		.loc 1 238 0
 375 0000 024B     		ldr	r3, .L21
 241:.\Generated_Source\PSoC4/CC_ISR.c **** }
 376              		.loc 1 241 0
 377              		@ sp needed for prologue
 238:.\Generated_Source\PSoC4/CC_ISR.c ****     priority = (*CC_ISR_INTC_PRIOR & CC_ISR__INTC_PRIOR_MASK) >> priorityOffset;
 378              		.loc 1 238 0
 379 0002 1868     		ldr	r0, [r3]
 380              	.LVL12:
 381 0004 0106     		lsl	r1, r0, #24
 240:.\Generated_Source\PSoC4/CC_ISR.c ****     return (uint8)priority;
 382              		.loc 1 240 0
 383 0006 880F     		lsr	r0, r1, #30
 384              	.LVL13:
 241:.\Generated_Source\PSoC4/CC_ISR.c **** }
 385              		.loc 1 241 0
 386 0008 7047     		bx	lr
 387              	.L22:
ARM GAS  C:\Users\ZHANGM~1\AppData\Local\Temp\cc4TYOuS.s 			page 14


 388 000a C046     		.align	2
 389              	.L21:
 390 000c 10E400E0 		.word	-536812528
 391              		.cfi_endproc
 392              	.LFE7:
 393              		.size	CC_ISR_GetPriority, .-CC_ISR_GetPriority
 394              		.section	.text.CC_ISR_Enable,"ax",%progbits
 395              		.align	1
 396              		.global	CC_ISR_Enable
 397              		.code	16
 398              		.thumb_func
 399              		.type	CC_ISR_Enable, %function
 400              	CC_ISR_Enable:
 401              	.LFB8:
 259:.\Generated_Source\PSoC4/CC_ISR.c **** {
 402              		.loc 1 259 0
 403              		.cfi_startproc
 261:.\Generated_Source\PSoC4/CC_ISR.c ****     *CC_ISR_INTC_SET_EN = CC_ISR__INTC_MASK;
 404              		.loc 1 261 0
 405 0000 8022     		mov	r2, #128
 406 0002 024B     		ldr	r3, .L24
 407 0004 5002     		lsl	r0, r2, #9
 408 0006 1860     		str	r0, [r3]
 262:.\Generated_Source\PSoC4/CC_ISR.c **** }
 409              		.loc 1 262 0
 410              		@ sp needed for prologue
 411 0008 7047     		bx	lr
 412              	.L25:
 413 000a C046     		.align	2
 414              	.L24:
 415 000c 00E100E0 		.word	-536813312
 416              		.cfi_endproc
 417              	.LFE8:
 418              		.size	CC_ISR_Enable, .-CC_ISR_Enable
 419              		.section	.text.CC_ISR_GetState,"ax",%progbits
 420              		.align	1
 421              		.global	CC_ISR_GetState
 422              		.code	16
 423              		.thumb_func
 424              		.type	CC_ISR_GetState, %function
 425              	CC_ISR_GetState:
 426              	.LFB9:
 280:.\Generated_Source\PSoC4/CC_ISR.c **** {
 427              		.loc 1 280 0
 428              		.cfi_startproc
 282:.\Generated_Source\PSoC4/CC_ISR.c ****     return ((*CC_ISR_INTC_SET_EN & (uint32)CC_ISR__INTC_MASK) != 0u) ? 1u:0u;
 429              		.loc 1 282 0
 430 0000 024B     		ldr	r3, .L27
 283:.\Generated_Source\PSoC4/CC_ISR.c **** }
 431              		.loc 1 283 0
 432              		@ sp needed for prologue
 282:.\Generated_Source\PSoC4/CC_ISR.c ****     return ((*CC_ISR_INTC_SET_EN & (uint32)CC_ISR__INTC_MASK) != 0u) ? 1u:0u;
 433              		.loc 1 282 0
 434 0002 1868     		ldr	r0, [r3]
 435 0004 C103     		lsl	r1, r0, #15
 436 0006 C80F     		lsr	r0, r1, #31
 283:.\Generated_Source\PSoC4/CC_ISR.c **** }
ARM GAS  C:\Users\ZHANGM~1\AppData\Local\Temp\cc4TYOuS.s 			page 15


 437              		.loc 1 283 0
 438 0008 7047     		bx	lr
 439              	.L28:
 440 000a C046     		.align	2
 441              	.L27:
 442 000c 00E100E0 		.word	-536813312
 443              		.cfi_endproc
 444              	.LFE9:
 445              		.size	CC_ISR_GetState, .-CC_ISR_GetState
 446              		.section	.text.CC_ISR_Disable,"ax",%progbits
 447              		.align	1
 448              		.global	CC_ISR_Disable
 449              		.code	16
 450              		.thumb_func
 451              		.type	CC_ISR_Disable, %function
 452              	CC_ISR_Disable:
 453              	.LFB10:
 301:.\Generated_Source\PSoC4/CC_ISR.c **** {
 454              		.loc 1 301 0
 455              		.cfi_startproc
 456              		.loc 1 303 0
 457 0000 8022     		mov	r2, #128
 458 0002 024B     		ldr	r3, .L30
 459 0004 5002     		lsl	r0, r2, #9
 460 0006 1860     		str	r0, [r3]
 304:.\Generated_Source\PSoC4/CC_ISR.c **** }
 461              		.loc 1 304 0
 462              		@ sp needed for prologue
 463 0008 7047     		bx	lr
 464              	.L31:
 465 000a C046     		.align	2
 466              	.L30:
 467 000c 80E100E0 		.word	-536813184
 468              		.cfi_endproc
 469              	.LFE10:
 470              		.size	CC_ISR_Disable, .-CC_ISR_Disable
 471              		.section	.text.CC_ISR_SetPending,"ax",%progbits
 472              		.align	1
 473              		.global	CC_ISR_SetPending
 474              		.code	16
 475              		.thumb_func
 476              		.type	CC_ISR_SetPending, %function
 477              	CC_ISR_SetPending:
 478              	.LFB11:
 305:.\Generated_Source\PSoC4/CC_ISR.c **** 
 306:.\Generated_Source\PSoC4/CC_ISR.c **** 
 307:.\Generated_Source\PSoC4/CC_ISR.c **** /*******************************************************************************
 308:.\Generated_Source\PSoC4/CC_ISR.c **** * Function Name: CC_ISR_SetPending
 309:.\Generated_Source\PSoC4/CC_ISR.c **** ********************************************************************************
 310:.\Generated_Source\PSoC4/CC_ISR.c **** *
 311:.\Generated_Source\PSoC4/CC_ISR.c **** * Summary:
 312:.\Generated_Source\PSoC4/CC_ISR.c **** *   Causes the Interrupt to enter the pending state, a software method of
 313:.\Generated_Source\PSoC4/CC_ISR.c **** *   generating the interrupt.
 314:.\Generated_Source\PSoC4/CC_ISR.c **** *
 315:.\Generated_Source\PSoC4/CC_ISR.c **** * Parameters:
 316:.\Generated_Source\PSoC4/CC_ISR.c **** *   None
 317:.\Generated_Source\PSoC4/CC_ISR.c **** *
ARM GAS  C:\Users\ZHANGM~1\AppData\Local\Temp\cc4TYOuS.s 			page 16


 318:.\Generated_Source\PSoC4/CC_ISR.c **** * Return:
 319:.\Generated_Source\PSoC4/CC_ISR.c **** *   None
 320:.\Generated_Source\PSoC4/CC_ISR.c **** *
 321:.\Generated_Source\PSoC4/CC_ISR.c **** *******************************************************************************/
 322:.\Generated_Source\PSoC4/CC_ISR.c **** void CC_ISR_SetPending(void)
 323:.\Generated_Source\PSoC4/CC_ISR.c **** {
 479              		.loc 1 323 0
 480              		.cfi_startproc
 324:.\Generated_Source\PSoC4/CC_ISR.c ****     *CC_ISR_INTC_SET_PD = CC_ISR__INTC_MASK;
 481              		.loc 1 324 0
 482 0000 8022     		mov	r2, #128
 483 0002 024B     		ldr	r3, .L33
 484 0004 5002     		lsl	r0, r2, #9
 485 0006 1860     		str	r0, [r3]
 325:.\Generated_Source\PSoC4/CC_ISR.c **** }
 486              		.loc 1 325 0
 487              		@ sp needed for prologue
 488 0008 7047     		bx	lr
 489              	.L34:
 490 000a C046     		.align	2
 491              	.L33:
 492 000c 00E200E0 		.word	-536813056
 493              		.cfi_endproc
 494              	.LFE11:
 495              		.size	CC_ISR_SetPending, .-CC_ISR_SetPending
 496              		.section	.text.CC_ISR_ClearPending,"ax",%progbits
 497              		.align	1
 498              		.global	CC_ISR_ClearPending
 499              		.code	16
 500              		.thumb_func
 501              		.type	CC_ISR_ClearPending, %function
 502              	CC_ISR_ClearPending:
 503              	.LFB12:
 326:.\Generated_Source\PSoC4/CC_ISR.c **** 
 327:.\Generated_Source\PSoC4/CC_ISR.c **** 
 328:.\Generated_Source\PSoC4/CC_ISR.c **** /*******************************************************************************
 329:.\Generated_Source\PSoC4/CC_ISR.c **** * Function Name: CC_ISR_ClearPending
 330:.\Generated_Source\PSoC4/CC_ISR.c **** ********************************************************************************
 331:.\Generated_Source\PSoC4/CC_ISR.c **** *
 332:.\Generated_Source\PSoC4/CC_ISR.c **** * Summary:
 333:.\Generated_Source\PSoC4/CC_ISR.c **** *   Clears a pending interrupt.
 334:.\Generated_Source\PSoC4/CC_ISR.c **** *
 335:.\Generated_Source\PSoC4/CC_ISR.c **** * Parameters:
 336:.\Generated_Source\PSoC4/CC_ISR.c **** *   None
 337:.\Generated_Source\PSoC4/CC_ISR.c **** *
 338:.\Generated_Source\PSoC4/CC_ISR.c **** * Return:
 339:.\Generated_Source\PSoC4/CC_ISR.c **** *   None
 340:.\Generated_Source\PSoC4/CC_ISR.c **** *
 341:.\Generated_Source\PSoC4/CC_ISR.c **** *******************************************************************************/
 342:.\Generated_Source\PSoC4/CC_ISR.c **** void CC_ISR_ClearPending(void)
 343:.\Generated_Source\PSoC4/CC_ISR.c **** {
 504              		.loc 1 343 0
 505              		.cfi_startproc
 344:.\Generated_Source\PSoC4/CC_ISR.c ****     *CC_ISR_INTC_CLR_PD = CC_ISR__INTC_MASK;
 506              		.loc 1 344 0
 507 0000 8022     		mov	r2, #128
 508 0002 024B     		ldr	r3, .L36
ARM GAS  C:\Users\ZHANGM~1\AppData\Local\Temp\cc4TYOuS.s 			page 17


 509 0004 5002     		lsl	r0, r2, #9
 510 0006 1860     		str	r0, [r3]
 345:.\Generated_Source\PSoC4/CC_ISR.c **** }
 511              		.loc 1 345 0
 512              		@ sp needed for prologue
 513 0008 7047     		bx	lr
 514              	.L37:
 515 000a C046     		.align	2
 516              	.L36:
 517 000c 80E200E0 		.word	-536812928
 518              		.cfi_endproc
 519              	.LFE12:
 520              		.size	CC_ISR_ClearPending, .-CC_ISR_ClearPending
 521              		.text
 522              	.Letext0:
 523              		.file 2 "./Generated_Source/PSoC4/cytypes.h"
 524              		.file 3 "./Generated_Source/PSoC4/CyLib.h"