ARM GAS  C:\Users\ZHANGM~1\AppData\Local\Temp\ccNddcGJ.s 			page 1


   1              		.cpu cortex-m0
   2              		.fpu softvfp
   3              		.eabi_attribute 20, 1
   4              		.eabi_attribute 21, 1
   5              		.eabi_attribute 23, 3
   6              		.eabi_attribute 24, 1
   7              		.eabi_attribute 25, 1
   8              		.eabi_attribute 26, 1
   9              		.eabi_attribute 30, 4
  10              		.eabi_attribute 34, 0
  11              		.eabi_attribute 18, 4
  12              		.code	16
  13              		.file	"cyfitter_cfg.c"
  14              		.text
  15              	.Ltext0:
  16              		.cfi_sections	.debug_frame
  17              		.section	.text.SetAnalogRoutingPumps,"ax",%progbits
  18              		.align	1
  19              		.global	SetAnalogRoutingPumps
  20              		.code	16
  21              		.thumb_func
  22              		.type	SetAnalogRoutingPumps, %function
  23              	SetAnalogRoutingPumps:
  24              	.LFB7:
  25              		.file 1 ".\\Generated_Source\\PSoC4\\cyfitter_cfg.c"
   1:.\Generated_Source\PSoC4/cyfitter_cfg.c **** /*******************************************************************************
   2:.\Generated_Source\PSoC4/cyfitter_cfg.c **** * FILENAME: cyfitter_cfg.c
   3:.\Generated_Source\PSoC4/cyfitter_cfg.c **** * PSoC Creator 3.0 SP2
   4:.\Generated_Source\PSoC4/cyfitter_cfg.c **** *
   5:.\Generated_Source\PSoC4/cyfitter_cfg.c **** * Description:
   6:.\Generated_Source\PSoC4/cyfitter_cfg.c **** * This file is automatically generated by PSoC Creator with device 
   7:.\Generated_Source\PSoC4/cyfitter_cfg.c **** * initialization code.  Except for the user defined sections in
   8:.\Generated_Source\PSoC4/cyfitter_cfg.c **** * CyClockStartupError(), this file should not be modified.
   9:.\Generated_Source\PSoC4/cyfitter_cfg.c **** *
  10:.\Generated_Source\PSoC4/cyfitter_cfg.c **** ********************************************************************************
  11:.\Generated_Source\PSoC4/cyfitter_cfg.c **** * Copyright 2013, Cypress Semiconductor Corporation.  All rights reserved.
  12:.\Generated_Source\PSoC4/cyfitter_cfg.c **** * You may use this file only in accordance with the license, terms, conditions, 
  13:.\Generated_Source\PSoC4/cyfitter_cfg.c **** * disclaimers, and limitations in the end user license agreement accompanying 
  14:.\Generated_Source\PSoC4/cyfitter_cfg.c **** * the software package with which this file was provided.
  15:.\Generated_Source\PSoC4/cyfitter_cfg.c **** ********************************************************************************/
  16:.\Generated_Source\PSoC4/cyfitter_cfg.c **** 
  17:.\Generated_Source\PSoC4/cyfitter_cfg.c **** #include <string.h>
  18:.\Generated_Source\PSoC4/cyfitter_cfg.c **** #include <cytypes.h>
  19:.\Generated_Source\PSoC4/cyfitter_cfg.c **** #include <cydevice_trm.h>
  20:.\Generated_Source\PSoC4/cyfitter_cfg.c **** #include <cyfitter.h>
  21:.\Generated_Source\PSoC4/cyfitter_cfg.c **** #include <CyLib.h>
  22:.\Generated_Source\PSoC4/cyfitter_cfg.c **** #include <cyfitter_cfg.h>
  23:.\Generated_Source\PSoC4/cyfitter_cfg.c **** 
  24:.\Generated_Source\PSoC4/cyfitter_cfg.c **** 
  25:.\Generated_Source\PSoC4/cyfitter_cfg.c **** #if defined(__GNUC__) || defined(__ARMCC_VERSION)
  26:.\Generated_Source\PSoC4/cyfitter_cfg.c ****     #define CYPACKED 
  27:.\Generated_Source\PSoC4/cyfitter_cfg.c ****     #define CYPACKED_ATTR __attribute__ ((packed))
  28:.\Generated_Source\PSoC4/cyfitter_cfg.c ****     #define CYALIGNED __attribute__ ((aligned))
  29:.\Generated_Source\PSoC4/cyfitter_cfg.c ****     #define CY_CFG_UNUSED __attribute__ ((unused))
  30:.\Generated_Source\PSoC4/cyfitter_cfg.c ****     #define CY_CFG_SECTION __attribute__ ((section(".psocinit")))
  31:.\Generated_Source\PSoC4/cyfitter_cfg.c ****     
  32:.\Generated_Source\PSoC4/cyfitter_cfg.c ****     #if defined(__ARMCC_VERSION)
ARM GAS  C:\Users\ZHANGM~1\AppData\Local\Temp\ccNddcGJ.s 			page 2


  33:.\Generated_Source\PSoC4/cyfitter_cfg.c ****         #define CY_CFG_MEMORY_BARRIER() __memory_changed()
  34:.\Generated_Source\PSoC4/cyfitter_cfg.c ****     #else
  35:.\Generated_Source\PSoC4/cyfitter_cfg.c ****         #define CY_CFG_MEMORY_BARRIER() __sync_synchronize()
  36:.\Generated_Source\PSoC4/cyfitter_cfg.c ****     #endif
  37:.\Generated_Source\PSoC4/cyfitter_cfg.c ****     
  38:.\Generated_Source\PSoC4/cyfitter_cfg.c **** #elif defined(__ICCARM__)
  39:.\Generated_Source\PSoC4/cyfitter_cfg.c ****     #include <intrinsics.h>
  40:.\Generated_Source\PSoC4/cyfitter_cfg.c **** 
  41:.\Generated_Source\PSoC4/cyfitter_cfg.c ****     #define CYPACKED __packed
  42:.\Generated_Source\PSoC4/cyfitter_cfg.c ****     #define CYPACKED_ATTR 
  43:.\Generated_Source\PSoC4/cyfitter_cfg.c ****     #define CYALIGNED _Pragma("data_alignment=4")
  44:.\Generated_Source\PSoC4/cyfitter_cfg.c ****     #define CY_CFG_UNUSED _Pragma("diag_suppress=Pe177")
  45:.\Generated_Source\PSoC4/cyfitter_cfg.c ****     #define CY_CFG_SECTION _Pragma("location=\".psocinit\"")
  46:.\Generated_Source\PSoC4/cyfitter_cfg.c ****     
  47:.\Generated_Source\PSoC4/cyfitter_cfg.c ****     #define CY_CFG_MEMORY_BARRIER() __DMB()
  48:.\Generated_Source\PSoC4/cyfitter_cfg.c ****     
  49:.\Generated_Source\PSoC4/cyfitter_cfg.c **** #else
  50:.\Generated_Source\PSoC4/cyfitter_cfg.c ****     #error Unsupported toolchain
  51:.\Generated_Source\PSoC4/cyfitter_cfg.c **** #endif
  52:.\Generated_Source\PSoC4/cyfitter_cfg.c **** 
  53:.\Generated_Source\PSoC4/cyfitter_cfg.c **** 
  54:.\Generated_Source\PSoC4/cyfitter_cfg.c **** CY_CFG_UNUSED
  55:.\Generated_Source\PSoC4/cyfitter_cfg.c **** static void CYMEMZERO(void *s, size_t n);
  56:.\Generated_Source\PSoC4/cyfitter_cfg.c **** CY_CFG_UNUSED
  57:.\Generated_Source\PSoC4/cyfitter_cfg.c **** static void CYMEMZERO(void *s, size_t n)
  58:.\Generated_Source\PSoC4/cyfitter_cfg.c **** {
  59:.\Generated_Source\PSoC4/cyfitter_cfg.c **** 	(void)memset(s, 0, n);
  60:.\Generated_Source\PSoC4/cyfitter_cfg.c **** }
  61:.\Generated_Source\PSoC4/cyfitter_cfg.c **** CY_CFG_UNUSED
  62:.\Generated_Source\PSoC4/cyfitter_cfg.c **** static void CYCONFIGCPY(void *dest, const void *src, size_t n);
  63:.\Generated_Source\PSoC4/cyfitter_cfg.c **** CY_CFG_UNUSED
  64:.\Generated_Source\PSoC4/cyfitter_cfg.c **** static void CYCONFIGCPY(void *dest, const void *src, size_t n)
  65:.\Generated_Source\PSoC4/cyfitter_cfg.c **** {
  66:.\Generated_Source\PSoC4/cyfitter_cfg.c **** 	(void)memcpy(dest, src, n);
  67:.\Generated_Source\PSoC4/cyfitter_cfg.c **** }
  68:.\Generated_Source\PSoC4/cyfitter_cfg.c **** CY_CFG_UNUSED
  69:.\Generated_Source\PSoC4/cyfitter_cfg.c **** static void CYCONFIGCPYCODE(void *dest, const void *src, size_t n);
  70:.\Generated_Source\PSoC4/cyfitter_cfg.c **** CY_CFG_UNUSED
  71:.\Generated_Source\PSoC4/cyfitter_cfg.c **** static void CYCONFIGCPYCODE(void *dest, const void *src, size_t n)
  72:.\Generated_Source\PSoC4/cyfitter_cfg.c **** {
  73:.\Generated_Source\PSoC4/cyfitter_cfg.c **** 	(void)memcpy(dest, src, n);
  74:.\Generated_Source\PSoC4/cyfitter_cfg.c **** }
  75:.\Generated_Source\PSoC4/cyfitter_cfg.c **** 
  76:.\Generated_Source\PSoC4/cyfitter_cfg.c **** 
  77:.\Generated_Source\PSoC4/cyfitter_cfg.c **** 
  78:.\Generated_Source\PSoC4/cyfitter_cfg.c **** /* Clock startup error codes                                                   */
  79:.\Generated_Source\PSoC4/cyfitter_cfg.c **** #define CYCLOCKSTART_NO_ERROR    0u
  80:.\Generated_Source\PSoC4/cyfitter_cfg.c **** #define CYCLOCKSTART_XTAL_ERROR  1u
  81:.\Generated_Source\PSoC4/cyfitter_cfg.c **** #define CYCLOCKSTART_32KHZ_ERROR 2u
  82:.\Generated_Source\PSoC4/cyfitter_cfg.c **** #define CYCLOCKSTART_PLL_ERROR   3u
  83:.\Generated_Source\PSoC4/cyfitter_cfg.c **** 
  84:.\Generated_Source\PSoC4/cyfitter_cfg.c **** #ifdef CY_NEED_CYCLOCKSTARTUPERROR
  85:.\Generated_Source\PSoC4/cyfitter_cfg.c **** /*******************************************************************************
  86:.\Generated_Source\PSoC4/cyfitter_cfg.c **** * Function Name: CyClockStartupError
  87:.\Generated_Source\PSoC4/cyfitter_cfg.c **** ********************************************************************************
  88:.\Generated_Source\PSoC4/cyfitter_cfg.c **** * Summary:
  89:.\Generated_Source\PSoC4/cyfitter_cfg.c **** *  If an error is encountered during clock configuration (crystal startup error,
ARM GAS  C:\Users\ZHANGM~1\AppData\Local\Temp\ccNddcGJ.s 			page 3


  90:.\Generated_Source\PSoC4/cyfitter_cfg.c **** *  PLL lock error, etc.), the system will end up here.  Unless reimplemented by
  91:.\Generated_Source\PSoC4/cyfitter_cfg.c **** *  the customer, this function will stop in an infinite loop.
  92:.\Generated_Source\PSoC4/cyfitter_cfg.c **** *
  93:.\Generated_Source\PSoC4/cyfitter_cfg.c **** * Parameters:
  94:.\Generated_Source\PSoC4/cyfitter_cfg.c **** *   void
  95:.\Generated_Source\PSoC4/cyfitter_cfg.c **** *
  96:.\Generated_Source\PSoC4/cyfitter_cfg.c **** * Return:
  97:.\Generated_Source\PSoC4/cyfitter_cfg.c **** *   void
  98:.\Generated_Source\PSoC4/cyfitter_cfg.c **** *
  99:.\Generated_Source\PSoC4/cyfitter_cfg.c **** *******************************************************************************/
 100:.\Generated_Source\PSoC4/cyfitter_cfg.c **** CY_CFG_UNUSED
 101:.\Generated_Source\PSoC4/cyfitter_cfg.c **** static void CyClockStartupError(uint8 errorCode);
 102:.\Generated_Source\PSoC4/cyfitter_cfg.c **** CY_CFG_UNUSED
 103:.\Generated_Source\PSoC4/cyfitter_cfg.c **** static void CyClockStartupError(uint8 errorCode)
 104:.\Generated_Source\PSoC4/cyfitter_cfg.c **** {
 105:.\Generated_Source\PSoC4/cyfitter_cfg.c ****     /* To remove the compiler warning if errorCode not used.                */
 106:.\Generated_Source\PSoC4/cyfitter_cfg.c ****     errorCode = errorCode;
 107:.\Generated_Source\PSoC4/cyfitter_cfg.c **** 
 108:.\Generated_Source\PSoC4/cyfitter_cfg.c ****     /* `#START CyClockStartupError` */
 109:.\Generated_Source\PSoC4/cyfitter_cfg.c **** 
 110:.\Generated_Source\PSoC4/cyfitter_cfg.c ****     /* If we have a clock startup error (bad MHz crystal, PLL lock, etc.),  */
 111:.\Generated_Source\PSoC4/cyfitter_cfg.c ****     /* we will end up here to allow the customer to implement something to  */
 112:.\Generated_Source\PSoC4/cyfitter_cfg.c ****     /* deal with the clock condition.                                       */
 113:.\Generated_Source\PSoC4/cyfitter_cfg.c **** 
 114:.\Generated_Source\PSoC4/cyfitter_cfg.c ****     /* `#END` */
 115:.\Generated_Source\PSoC4/cyfitter_cfg.c **** 
 116:.\Generated_Source\PSoC4/cyfitter_cfg.c ****     /* If nothing else, stop here since the clocks have not started         */
 117:.\Generated_Source\PSoC4/cyfitter_cfg.c ****     /* correctly.                                                           */
 118:.\Generated_Source\PSoC4/cyfitter_cfg.c ****     while(1) {}
 119:.\Generated_Source\PSoC4/cyfitter_cfg.c **** }
 120:.\Generated_Source\PSoC4/cyfitter_cfg.c **** #endif
 121:.\Generated_Source\PSoC4/cyfitter_cfg.c **** 
 122:.\Generated_Source\PSoC4/cyfitter_cfg.c **** #define CY_CFG_BASE_ADDR_COUNT 7u
 123:.\Generated_Source\PSoC4/cyfitter_cfg.c **** CYPACKED typedef struct
 124:.\Generated_Source\PSoC4/cyfitter_cfg.c **** {
 125:.\Generated_Source\PSoC4/cyfitter_cfg.c **** 	uint8 offset;
 126:.\Generated_Source\PSoC4/cyfitter_cfg.c **** 	uint8 value;
 127:.\Generated_Source\PSoC4/cyfitter_cfg.c **** } CYPACKED_ATTR cy_cfg_addrvalue_t;
 128:.\Generated_Source\PSoC4/cyfitter_cfg.c **** 
 129:.\Generated_Source\PSoC4/cyfitter_cfg.c **** 
 130:.\Generated_Source\PSoC4/cyfitter_cfg.c **** 
 131:.\Generated_Source\PSoC4/cyfitter_cfg.c **** /*******************************************************************************
 132:.\Generated_Source\PSoC4/cyfitter_cfg.c **** * Function Name: cfg_write_bytes32
 133:.\Generated_Source\PSoC4/cyfitter_cfg.c **** ********************************************************************************
 134:.\Generated_Source\PSoC4/cyfitter_cfg.c **** * Summary:
 135:.\Generated_Source\PSoC4/cyfitter_cfg.c **** *  This function is used for setting up the chip configuration areas that
 136:.\Generated_Source\PSoC4/cyfitter_cfg.c **** *  contain relatively sparse data.
 137:.\Generated_Source\PSoC4/cyfitter_cfg.c **** *
 138:.\Generated_Source\PSoC4/cyfitter_cfg.c **** * Parameters:
 139:.\Generated_Source\PSoC4/cyfitter_cfg.c **** *   void
 140:.\Generated_Source\PSoC4/cyfitter_cfg.c **** *
 141:.\Generated_Source\PSoC4/cyfitter_cfg.c **** * Return:
 142:.\Generated_Source\PSoC4/cyfitter_cfg.c **** *   void
 143:.\Generated_Source\PSoC4/cyfitter_cfg.c **** *
 144:.\Generated_Source\PSoC4/cyfitter_cfg.c **** *******************************************************************************/
 145:.\Generated_Source\PSoC4/cyfitter_cfg.c **** static void cfg_write_bytes32(const uint32 addr_table[], const cy_cfg_addrvalue_t data_table[]);
 146:.\Generated_Source\PSoC4/cyfitter_cfg.c **** static void cfg_write_bytes32(const uint32 addr_table[], const cy_cfg_addrvalue_t data_table[])
ARM GAS  C:\Users\ZHANGM~1\AppData\Local\Temp\ccNddcGJ.s 			page 4


 147:.\Generated_Source\PSoC4/cyfitter_cfg.c **** {
 148:.\Generated_Source\PSoC4/cyfitter_cfg.c **** 	/* For 32-bit little-endian architectures */
 149:.\Generated_Source\PSoC4/cyfitter_cfg.c **** 	uint32 i, j = 0u;
 150:.\Generated_Source\PSoC4/cyfitter_cfg.c **** 	for (i = 0u; i < CY_CFG_BASE_ADDR_COUNT; i++)
 151:.\Generated_Source\PSoC4/cyfitter_cfg.c **** 	{
 152:.\Generated_Source\PSoC4/cyfitter_cfg.c **** 		uint32 baseAddr = addr_table[i];
 153:.\Generated_Source\PSoC4/cyfitter_cfg.c **** 		uint8 count = (uint8)baseAddr;
 154:.\Generated_Source\PSoC4/cyfitter_cfg.c **** 		baseAddr &= 0xFFFFFF00u;
 155:.\Generated_Source\PSoC4/cyfitter_cfg.c **** 		while (count != 0u)
 156:.\Generated_Source\PSoC4/cyfitter_cfg.c **** 		{
 157:.\Generated_Source\PSoC4/cyfitter_cfg.c **** 			CY_SET_XTND_REG8((void CYFAR *)(baseAddr + data_table[j].offset), data_table[j].value);
 158:.\Generated_Source\PSoC4/cyfitter_cfg.c **** 			j++;
 159:.\Generated_Source\PSoC4/cyfitter_cfg.c **** 			count--;
 160:.\Generated_Source\PSoC4/cyfitter_cfg.c **** 		}
 161:.\Generated_Source\PSoC4/cyfitter_cfg.c **** 	}
 162:.\Generated_Source\PSoC4/cyfitter_cfg.c **** }
 163:.\Generated_Source\PSoC4/cyfitter_cfg.c **** 
 164:.\Generated_Source\PSoC4/cyfitter_cfg.c **** /*******************************************************************************
 165:.\Generated_Source\PSoC4/cyfitter_cfg.c **** * Function Name: SetIMOBGTrims
 166:.\Generated_Source\PSoC4/cyfitter_cfg.c **** ********************************************************************************
 167:.\Generated_Source\PSoC4/cyfitter_cfg.c **** *
 168:.\Generated_Source\PSoC4/cyfitter_cfg.c **** * Summary:
 169:.\Generated_Source\PSoC4/cyfitter_cfg.c **** *   Performs the configuration of the bandgap trim for the IMO based on the given
 170:.\Generated_Source\PSoC4/cyfitter_cfg.c **** *   expected frequency of the IMO. 
 171:.\Generated_Source\PSoC4/cyfitter_cfg.c **** *
 172:.\Generated_Source\PSoC4/cyfitter_cfg.c **** * Parameters:
 173:.\Generated_Source\PSoC4/cyfitter_cfg.c **** *   imoFreq: Frequency for operation of the IMO.
 174:.\Generated_Source\PSoC4/cyfitter_cfg.c **** *
 175:.\Generated_Source\PSoC4/cyfitter_cfg.c **** * Return:
 176:.\Generated_Source\PSoC4/cyfitter_cfg.c **** *   void
 177:.\Generated_Source\PSoC4/cyfitter_cfg.c **** *
 178:.\Generated_Source\PSoC4/cyfitter_cfg.c **** *******************************************************************************/
 179:.\Generated_Source\PSoC4/cyfitter_cfg.c **** static void SetIMOBGTrims(uint8 imoFreq);
 180:.\Generated_Source\PSoC4/cyfitter_cfg.c **** CY_CFG_SECTION
 181:.\Generated_Source\PSoC4/cyfitter_cfg.c **** static void SetIMOBGTrims(uint8 imoFreq)
 182:.\Generated_Source\PSoC4/cyfitter_cfg.c **** {
 183:.\Generated_Source\PSoC4/cyfitter_cfg.c **** 	CYPACKED typedef struct {
 184:.\Generated_Source\PSoC4/cyfitter_cfg.c **** 		uint8 freq;
 185:.\Generated_Source\PSoC4/cyfitter_cfg.c **** 		uint8 absolute;
 186:.\Generated_Source\PSoC4/cyfitter_cfg.c **** 		uint8 tmpco;
 187:.\Generated_Source\PSoC4/cyfitter_cfg.c **** 	} CYPACKED_ATTR imo_trim_entry_t;
 188:.\Generated_Source\PSoC4/cyfitter_cfg.c **** 
 189:.\Generated_Source\PSoC4/cyfitter_cfg.c **** 	CYPACKED typedef struct {
 190:.\Generated_Source\PSoC4/cyfitter_cfg.c **** 		imo_trim_entry_t entries[4];
 191:.\Generated_Source\PSoC4/cyfitter_cfg.c **** 	} CYPACKED_ATTR imo_trim_table_t;
 192:.\Generated_Source\PSoC4/cyfitter_cfg.c **** 
 193:.\Generated_Source\PSoC4/cyfitter_cfg.c **** 	static const imo_trim_table_t *imo_trim_table = (const imo_trim_table_t *)CYREG_SFLASH_IMO_MAXF0;
 194:.\Generated_Source\PSoC4/cyfitter_cfg.c **** 	static const uint32 IMO_TRIM_FREQ_TABLE_ENTRIES = sizeof(imo_trim_table->entries)/sizeof(imo_trim_
 195:.\Generated_Source\PSoC4/cyfitter_cfg.c **** 
 196:.\Generated_Source\PSoC4/cyfitter_cfg.c **** 	int32 imoTrimIndex;
 197:.\Generated_Source\PSoC4/cyfitter_cfg.c **** 	uint8 setAbs;
 198:.\Generated_Source\PSoC4/cyfitter_cfg.c **** 	uint8 setTmpCo;
 199:.\Generated_Source\PSoC4/cyfitter_cfg.c **** 
 200:.\Generated_Source\PSoC4/cyfitter_cfg.c **** 	/* Traverse the SFLASH IMO frequency-dependent bandgap trim table to
 201:.\Generated_Source\PSoC4/cyfitter_cfg.c **** 	 * locate the appropriate value to trim the IMO bandgap based on freq. */
 202:.\Generated_Source\PSoC4/cyfitter_cfg.c **** 	setAbs = CY_GET_REG8((const void *)CYREG_SFLASH_IMO_ABS4);
 203:.\Generated_Source\PSoC4/cyfitter_cfg.c **** 	setTmpCo = CY_GET_REG8((const void *)CYREG_SFLASH_IMO_TMPCO4);
ARM GAS  C:\Users\ZHANGM~1\AppData\Local\Temp\ccNddcGJ.s 			page 5


 204:.\Generated_Source\PSoC4/cyfitter_cfg.c **** 	for (imoTrimIndex = ((int32)IMO_TRIM_FREQ_TABLE_ENTRIES)-1;
 205:.\Generated_Source\PSoC4/cyfitter_cfg.c **** 	     (imoTrimIndex >= 0) && (imoFreq <= imo_trim_table->entries[imoTrimIndex].freq);
 206:.\Generated_Source\PSoC4/cyfitter_cfg.c **** 	     imoTrimIndex--)
 207:.\Generated_Source\PSoC4/cyfitter_cfg.c **** 	{
 208:.\Generated_Source\PSoC4/cyfitter_cfg.c **** 		setAbs = imo_trim_table->entries[imoTrimIndex].absolute;
 209:.\Generated_Source\PSoC4/cyfitter_cfg.c **** 		setTmpCo = imo_trim_table->entries[imoTrimIndex].tmpco;
 210:.\Generated_Source\PSoC4/cyfitter_cfg.c **** 	}
 211:.\Generated_Source\PSoC4/cyfitter_cfg.c **** 
 212:.\Generated_Source\PSoC4/cyfitter_cfg.c **** 	CY_SET_REG32((void *)CYREG_PWR_BG_TRIM4, setAbs);
 213:.\Generated_Source\PSoC4/cyfitter_cfg.c **** 	CY_SET_REG32((void *)CYREG_PWR_BG_TRIM5, setTmpCo);
 214:.\Generated_Source\PSoC4/cyfitter_cfg.c **** }
 215:.\Generated_Source\PSoC4/cyfitter_cfg.c **** 
 216:.\Generated_Source\PSoC4/cyfitter_cfg.c **** 
 217:.\Generated_Source\PSoC4/cyfitter_cfg.c **** 
 218:.\Generated_Source\PSoC4/cyfitter_cfg.c **** /*******************************************************************************
 219:.\Generated_Source\PSoC4/cyfitter_cfg.c **** * Function Name: ClockSetup
 220:.\Generated_Source\PSoC4/cyfitter_cfg.c **** ********************************************************************************
 221:.\Generated_Source\PSoC4/cyfitter_cfg.c **** *
 222:.\Generated_Source\PSoC4/cyfitter_cfg.c **** * Summary:
 223:.\Generated_Source\PSoC4/cyfitter_cfg.c **** *   Performs the initialization of all of the clocks in the device based on the
 224:.\Generated_Source\PSoC4/cyfitter_cfg.c **** *   settings in the Clock tab of the DWR.  This includes enabling the requested
 225:.\Generated_Source\PSoC4/cyfitter_cfg.c **** *   clocks and setting the necessary dividers to produce the desired frequency. 
 226:.\Generated_Source\PSoC4/cyfitter_cfg.c **** *
 227:.\Generated_Source\PSoC4/cyfitter_cfg.c **** * Parameters:
 228:.\Generated_Source\PSoC4/cyfitter_cfg.c **** *   void
 229:.\Generated_Source\PSoC4/cyfitter_cfg.c **** *
 230:.\Generated_Source\PSoC4/cyfitter_cfg.c **** * Return:
 231:.\Generated_Source\PSoC4/cyfitter_cfg.c **** *   void
 232:.\Generated_Source\PSoC4/cyfitter_cfg.c **** *
 233:.\Generated_Source\PSoC4/cyfitter_cfg.c **** *******************************************************************************/
 234:.\Generated_Source\PSoC4/cyfitter_cfg.c **** static void ClockSetup(void);
 235:.\Generated_Source\PSoC4/cyfitter_cfg.c **** CY_CFG_SECTION
 236:.\Generated_Source\PSoC4/cyfitter_cfg.c **** static void ClockSetup(void)
 237:.\Generated_Source\PSoC4/cyfitter_cfg.c **** {
 238:.\Generated_Source\PSoC4/cyfitter_cfg.c **** 	/* Enable HALF_EN before trimming for the flash accelerator. */
 239:.\Generated_Source\PSoC4/cyfitter_cfg.c **** 	CY_SET_REG32((void CYXDATA *)(CYREG_CLK_SELECT), (CY_GET_REG32((void *)CYREG_CLK_SELECT) | 0x00040
 240:.\Generated_Source\PSoC4/cyfitter_cfg.c **** 
 241:.\Generated_Source\PSoC4/cyfitter_cfg.c **** 	/* Trim IMO BG based on desired frequency. */
 242:.\Generated_Source\PSoC4/cyfitter_cfg.c **** 	SetIMOBGTrims(24u);
 243:.\Generated_Source\PSoC4/cyfitter_cfg.c **** 
 244:.\Generated_Source\PSoC4/cyfitter_cfg.c **** 	/* Going less than or equal to 24MHz, so update the clock speed then adjust trim value. */
 245:.\Generated_Source\PSoC4/cyfitter_cfg.c **** 	CY_SET_REG32((void CYXDATA *)(CYREG_CLK_IMO_TRIM2), (25u));
 246:.\Generated_Source\PSoC4/cyfitter_cfg.c **** 	CyDelayCycles(5u);
 247:.\Generated_Source\PSoC4/cyfitter_cfg.c **** 	CY_SET_REG32((void CYXDATA *)(CYREG_CLK_IMO_TRIM1), (CY_GET_REG8((void *)CYREG_SFLASH_IMO_TRIM21))
 248:.\Generated_Source\PSoC4/cyfitter_cfg.c **** 	CyDelayUs(5u);
 249:.\Generated_Source\PSoC4/cyfitter_cfg.c **** 
 250:.\Generated_Source\PSoC4/cyfitter_cfg.c **** 	/* Disable HALF_EN since it is not required at this IMO frequency. */
 251:.\Generated_Source\PSoC4/cyfitter_cfg.c **** 	CY_SET_REG32((void CYXDATA *)(CYREG_CLK_SELECT), (CY_GET_REG32((void *)CYREG_CLK_SELECT) & 0xFFFBF
 252:.\Generated_Source\PSoC4/cyfitter_cfg.c **** 
 253:.\Generated_Source\PSoC4/cyfitter_cfg.c **** 	/* CYDEV_CLK_SELECT00 Starting address: CYDEV_CLK_SELECT00 */
 254:.\Generated_Source\PSoC4/cyfitter_cfg.c **** 	CY_SET_XTND_REG32((void CYFAR *)(CYREG_CLK_SELECT02), 0x00000011u);
 255:.\Generated_Source\PSoC4/cyfitter_cfg.c **** 	CY_SET_XTND_REG32((void CYFAR *)(CYREG_CLK_SELECT03), 0x00000021u);
 256:.\Generated_Source\PSoC4/cyfitter_cfg.c **** 	CY_SET_XTND_REG32((void CYFAR *)(CYREG_CLK_SELECT05), 0x00000020u);
 257:.\Generated_Source\PSoC4/cyfitter_cfg.c **** 	CY_SET_XTND_REG32((void CYFAR *)(CYREG_CLK_SELECT06), 0x00000010u);
 258:.\Generated_Source\PSoC4/cyfitter_cfg.c **** 	CY_SET_XTND_REG32((void CYFAR *)(CYREG_CLK_SELECT08), 0x00000031u);
 259:.\Generated_Source\PSoC4/cyfitter_cfg.c **** 	CY_SET_XTND_REG32((void CYFAR *)(CYREG_CLK_SELECT09), 0x00000030u);
 260:.\Generated_Source\PSoC4/cyfitter_cfg.c **** 
ARM GAS  C:\Users\ZHANGM~1\AppData\Local\Temp\ccNddcGJ.s 			page 6


 261:.\Generated_Source\PSoC4/cyfitter_cfg.c **** 	/* CYDEV_CLK_IMO_CONFIG Starting address: CYDEV_CLK_IMO_CONFIG */
 262:.\Generated_Source\PSoC4/cyfitter_cfg.c **** 	CY_SET_XTND_REG32((void CYFAR *)(CYREG_CLK_IMO_CONFIG), 0x80000000u);
 263:.\Generated_Source\PSoC4/cyfitter_cfg.c **** 
 264:.\Generated_Source\PSoC4/cyfitter_cfg.c **** 	/* CYDEV_CLK_ILO_CONFIG Starting address: CYDEV_CLK_ILO_CONFIG */
 265:.\Generated_Source\PSoC4/cyfitter_cfg.c **** 	CY_SET_XTND_REG32((void CYFAR *)(CYREG_CLK_ILO_CONFIG), 0x80000000u);
 266:.\Generated_Source\PSoC4/cyfitter_cfg.c **** 
 267:.\Generated_Source\PSoC4/cyfitter_cfg.c **** 	/* CYDEV_CLK_DIVIDER_A00 Starting address: CYDEV_CLK_DIVIDER_A00 */
 268:.\Generated_Source\PSoC4/cyfitter_cfg.c **** 	CY_SET_XTND_REG32((void CYFAR *)(CYREG_CLK_DIVIDER_A00), 0x800000FEu);
 269:.\Generated_Source\PSoC4/cyfitter_cfg.c **** 
 270:.\Generated_Source\PSoC4/cyfitter_cfg.c **** 	/* CYDEV_CLK_DIVIDER_B00 Starting address: CYDEV_CLK_DIVIDER_B00 */
 271:.\Generated_Source\PSoC4/cyfitter_cfg.c **** 	CY_SET_XTND_REG32((void CYFAR *)(CYREG_CLK_DIVIDER_B00), 0xC00000FEu);
 272:.\Generated_Source\PSoC4/cyfitter_cfg.c **** 
 273:.\Generated_Source\PSoC4/cyfitter_cfg.c **** 	/* CYDEV_CLK_DIVIDER_C00 Starting address: CYDEV_CLK_DIVIDER_C00 */
 274:.\Generated_Source\PSoC4/cyfitter_cfg.c **** 	CY_SET_XTND_REG32((void CYFAR *)(CYREG_CLK_DIVIDER_C00), 0x80000017u);
 275:.\Generated_Source\PSoC4/cyfitter_cfg.c **** 
 276:.\Generated_Source\PSoC4/cyfitter_cfg.c **** 	/* CYDEV_CLK_DIVIDER_A01 Starting address: CYDEV_CLK_DIVIDER_A01 */
 277:.\Generated_Source\PSoC4/cyfitter_cfg.c **** 	CY_SET_XTND_REG32((void CYFAR *)(CYREG_CLK_DIVIDER_A01), 0x800000CFu);
 278:.\Generated_Source\PSoC4/cyfitter_cfg.c **** 
 279:.\Generated_Source\PSoC4/cyfitter_cfg.c **** 	/* CYDEV_CLK_DIVIDER_B01 Starting address: CYDEV_CLK_DIVIDER_B01 */
 280:.\Generated_Source\PSoC4/cyfitter_cfg.c **** 	CY_SET_XTND_REG32((void CYFAR *)(CYREG_CLK_DIVIDER_B01), 0x800000CFu);
 281:.\Generated_Source\PSoC4/cyfitter_cfg.c **** 
 282:.\Generated_Source\PSoC4/cyfitter_cfg.c **** 	/* CYDEV_CLK_DIVIDER_C01 Starting address: CYDEV_CLK_DIVIDER_C01 */
 283:.\Generated_Source\PSoC4/cyfitter_cfg.c **** 	CY_SET_XTND_REG32((void CYFAR *)(CYREG_CLK_DIVIDER_C01), 0x80005DBFu);
 284:.\Generated_Source\PSoC4/cyfitter_cfg.c **** 
 285:.\Generated_Source\PSoC4/cyfitter_cfg.c **** }
 286:.\Generated_Source\PSoC4/cyfitter_cfg.c **** 
 287:.\Generated_Source\PSoC4/cyfitter_cfg.c **** 
 288:.\Generated_Source\PSoC4/cyfitter_cfg.c **** /* Analog API Functions */
 289:.\Generated_Source\PSoC4/cyfitter_cfg.c **** 
 290:.\Generated_Source\PSoC4/cyfitter_cfg.c **** 
 291:.\Generated_Source\PSoC4/cyfitter_cfg.c **** /*******************************************************************************
 292:.\Generated_Source\PSoC4/cyfitter_cfg.c **** * Function Name: AnalogSetDefault
 293:.\Generated_Source\PSoC4/cyfitter_cfg.c **** ********************************************************************************
 294:.\Generated_Source\PSoC4/cyfitter_cfg.c **** *
 295:.\Generated_Source\PSoC4/cyfitter_cfg.c **** * Summary:
 296:.\Generated_Source\PSoC4/cyfitter_cfg.c **** *  Sets up the analog portions of the chip to default values based on chip
 297:.\Generated_Source\PSoC4/cyfitter_cfg.c **** *  configuration options from the project.
 298:.\Generated_Source\PSoC4/cyfitter_cfg.c **** *
 299:.\Generated_Source\PSoC4/cyfitter_cfg.c **** * Parameters:
 300:.\Generated_Source\PSoC4/cyfitter_cfg.c **** *  void
 301:.\Generated_Source\PSoC4/cyfitter_cfg.c **** *
 302:.\Generated_Source\PSoC4/cyfitter_cfg.c **** * Return:
 303:.\Generated_Source\PSoC4/cyfitter_cfg.c **** *  void
 304:.\Generated_Source\PSoC4/cyfitter_cfg.c **** *
 305:.\Generated_Source\PSoC4/cyfitter_cfg.c **** *******************************************************************************/
 306:.\Generated_Source\PSoC4/cyfitter_cfg.c **** static void AnalogSetDefault(void);
 307:.\Generated_Source\PSoC4/cyfitter_cfg.c **** static void AnalogSetDefault(void)
 308:.\Generated_Source\PSoC4/cyfitter_cfg.c **** {
 309:.\Generated_Source\PSoC4/cyfitter_cfg.c **** 	SetAnalogRoutingPumps(1);
 310:.\Generated_Source\PSoC4/cyfitter_cfg.c **** }
 311:.\Generated_Source\PSoC4/cyfitter_cfg.c **** 
 312:.\Generated_Source\PSoC4/cyfitter_cfg.c **** 
 313:.\Generated_Source\PSoC4/cyfitter_cfg.c **** /*******************************************************************************
 314:.\Generated_Source\PSoC4/cyfitter_cfg.c **** * Function Name: SetAnalogRoutingPumps
 315:.\Generated_Source\PSoC4/cyfitter_cfg.c **** ********************************************************************************
 316:.\Generated_Source\PSoC4/cyfitter_cfg.c **** *
 317:.\Generated_Source\PSoC4/cyfitter_cfg.c **** * Summary:
ARM GAS  C:\Users\ZHANGM~1\AppData\Local\Temp\ccNddcGJ.s 			page 7


 318:.\Generated_Source\PSoC4/cyfitter_cfg.c **** * Enables or disables the analog pumps feeding analog routing switches.
 319:.\Generated_Source\PSoC4/cyfitter_cfg.c **** * Intended to be called at startup, based on the Vdda system configuration;
 320:.\Generated_Source\PSoC4/cyfitter_cfg.c **** * may be called during operation when the user informs us that the Vdda voltage crossed the pump th
 321:.\Generated_Source\PSoC4/cyfitter_cfg.c **** *
 322:.\Generated_Source\PSoC4/cyfitter_cfg.c **** * Parameters:
 323:.\Generated_Source\PSoC4/cyfitter_cfg.c **** *  enabled - 1 to enable the pumps, 0 to disable the pumps
 324:.\Generated_Source\PSoC4/cyfitter_cfg.c **** *
 325:.\Generated_Source\PSoC4/cyfitter_cfg.c **** * Return:
 326:.\Generated_Source\PSoC4/cyfitter_cfg.c **** *  void
 327:.\Generated_Source\PSoC4/cyfitter_cfg.c **** *
 328:.\Generated_Source\PSoC4/cyfitter_cfg.c **** *******************************************************************************/
 329:.\Generated_Source\PSoC4/cyfitter_cfg.c **** void SetAnalogRoutingPumps(uint8 enabled)
 330:.\Generated_Source\PSoC4/cyfitter_cfg.c **** {
  26              		.loc 1 330 0
  27              		.cfi_startproc
  28              	.LVL0:
 331:.\Generated_Source\PSoC4/cyfitter_cfg.c **** 	uint32 regValue = CY_GET_XTND_REG32((void *)(CYREG_SAR_PUMP_CTRL));
  29              		.loc 1 331 0
  30 0000 0C4B     		ldr	r3, .L7
 330:.\Generated_Source\PSoC4/cyfitter_cfg.c **** {
  31              		.loc 1 330 0
  32 0002 00B5     		push	{lr}
  33              	.LCFI0:
  34              		.cfi_def_cfa_offset 4
  35              		.cfi_offset 14, -4
  36              		.loc 1 331 0
  37 0004 1A68     		ldr	r2, [r3]
  38              	.LVL1:
  39 0006 191C     		mov	r1, r3
 332:.\Generated_Source\PSoC4/cyfitter_cfg.c **** 	if (enabled != 0u)
  40              		.loc 1 332 0
  41 0008 0028     		cmp	r0, #0
  42 000a 03D0     		beq	.L2
 333:.\Generated_Source\PSoC4/cyfitter_cfg.c **** 	{
 334:.\Generated_Source\PSoC4/cyfitter_cfg.c **** 		regValue |= 0x80000000u;
  43              		.loc 1 334 0
  44 000c 8023     		mov	r3, #128
  45 000e 1B06     		lsl	r3, r3, #24
  46 0010 1343     		orr	r3, r2
  47              	.LVL2:
  48 0012 01E0     		b	.L3
  49              	.LVL3:
  50              	.L2:
 335:.\Generated_Source\PSoC4/cyfitter_cfg.c **** 	}
 336:.\Generated_Source\PSoC4/cyfitter_cfg.c **** 	else
 337:.\Generated_Source\PSoC4/cyfitter_cfg.c **** 	{
 338:.\Generated_Source\PSoC4/cyfitter_cfg.c **** 		regValue &= ~0x80000000u;
  51              		.loc 1 338 0
  52 0014 5300     		lsl	r3, r2, #1
  53 0016 5B08     		lsr	r3, r3, #1
  54              	.LVL4:
  55              	.L3:
 339:.\Generated_Source\PSoC4/cyfitter_cfg.c **** 	}
 340:.\Generated_Source\PSoC4/cyfitter_cfg.c **** 	CY_SET_XTND_REG32((void *)(CYREG_SAR_PUMP_CTRL), regValue);
  56              		.loc 1 340 0
  57 0018 0B60     		str	r3, [r1]
 341:.\Generated_Source\PSoC4/cyfitter_cfg.c **** 	regValue = CY_GET_XTND_REG32((void *)(CYREG_CLK_IMO_CONFIG));
ARM GAS  C:\Users\ZHANGM~1\AppData\Local\Temp\ccNddcGJ.s 			page 8


  58              		.loc 1 341 0
  59 001a 0749     		ldr	r1, .L7+4
  60 001c 0A68     		ldr	r2, [r1]
  61              	.LVL5:
 342:.\Generated_Source\PSoC4/cyfitter_cfg.c **** 	if (enabled != 0u)
  62              		.loc 1 342 0
  63 001e 0028     		cmp	r0, #0
  64 0020 03D0     		beq	.L4
 343:.\Generated_Source\PSoC4/cyfitter_cfg.c **** 	{
 344:.\Generated_Source\PSoC4/cyfitter_cfg.c **** 		regValue |= 0x02000000u;
  65              		.loc 1 344 0
  66 0022 8023     		mov	r3, #128
  67 0024 9804     		lsl	r0, r3, #18
  68              	.LVL6:
  69 0026 1043     		orr	r0, r2
  70              	.LVL7:
  71 0028 01E0     		b	.L5
  72              	.LVL8:
  73              	.L4:
 345:.\Generated_Source\PSoC4/cyfitter_cfg.c **** 	}
 346:.\Generated_Source\PSoC4/cyfitter_cfg.c **** 	else
 347:.\Generated_Source\PSoC4/cyfitter_cfg.c **** 	{
 348:.\Generated_Source\PSoC4/cyfitter_cfg.c **** 		regValue &= ~0x02000000u;
  74              		.loc 1 348 0
  75 002a 0448     		ldr	r0, .L7+8
  76              	.LVL9:
  77 002c 1040     		and	r0, r2
  78              	.LVL10:
  79              	.L5:
 349:.\Generated_Source\PSoC4/cyfitter_cfg.c **** 	}
 350:.\Generated_Source\PSoC4/cyfitter_cfg.c **** 	CY_SET_XTND_REG32((void *)(CYREG_CLK_IMO_CONFIG), regValue);
  80              		.loc 1 350 0
  81 002e 0860     		str	r0, [r1]
 351:.\Generated_Source\PSoC4/cyfitter_cfg.c **** }
  82              		.loc 1 351 0
  83              		@ sp needed for prologue
  84 0030 00BD     		pop	{pc}
  85              	.L8:
  86 0032 C046     		.align	2
  87              	.L7:
  88 0034 80031A40 		.word	1075446656
  89 0038 08010B40 		.word	1074462984
  90 003c FFFFFFFD 		.word	-33554433
  91              		.cfi_endproc
  92              	.LFE7:
  93              		.size	SetAnalogRoutingPumps, .-SetAnalogRoutingPumps
  94              		.section	.psocinit,"ax",%progbits
  95              		.align	1
  96              		.global	cyfitter_cfg
  97              		.code	16
  98              		.thumb_func
  99              		.type	cyfitter_cfg, %function
 100              	cyfitter_cfg:
 101              	.LFB8:
 352:.\Generated_Source\PSoC4/cyfitter_cfg.c **** 
 353:.\Generated_Source\PSoC4/cyfitter_cfg.c **** #define CY_AMUX_UNUSED CYREG_CM0_ROM_DWT
 354:.\Generated_Source\PSoC4/cyfitter_cfg.c **** 
ARM GAS  C:\Users\ZHANGM~1\AppData\Local\Temp\ccNddcGJ.s 			page 9


 355:.\Generated_Source\PSoC4/cyfitter_cfg.c **** 
 356:.\Generated_Source\PSoC4/cyfitter_cfg.c **** /*******************************************************************************
 357:.\Generated_Source\PSoC4/cyfitter_cfg.c **** * Function Name: cyfitter_cfg
 358:.\Generated_Source\PSoC4/cyfitter_cfg.c **** ********************************************************************************
 359:.\Generated_Source\PSoC4/cyfitter_cfg.c **** * Summary:
 360:.\Generated_Source\PSoC4/cyfitter_cfg.c **** *  This function is called by the start-up code for the selected device. It
 361:.\Generated_Source\PSoC4/cyfitter_cfg.c **** *  performs all of the necessary device configuration based on the design
 362:.\Generated_Source\PSoC4/cyfitter_cfg.c **** *  settings.  This includes settings from the Design Wide Resources (DWR) such
 363:.\Generated_Source\PSoC4/cyfitter_cfg.c **** *  as Clocks and Pins as well as any component configuration that is necessary.
 364:.\Generated_Source\PSoC4/cyfitter_cfg.c **** *
 365:.\Generated_Source\PSoC4/cyfitter_cfg.c **** * Parameters:  
 366:.\Generated_Source\PSoC4/cyfitter_cfg.c **** *   void
 367:.\Generated_Source\PSoC4/cyfitter_cfg.c **** *
 368:.\Generated_Source\PSoC4/cyfitter_cfg.c **** * Return:
 369:.\Generated_Source\PSoC4/cyfitter_cfg.c **** *   void
 370:.\Generated_Source\PSoC4/cyfitter_cfg.c **** *
 371:.\Generated_Source\PSoC4/cyfitter_cfg.c **** *******************************************************************************/
 372:.\Generated_Source\PSoC4/cyfitter_cfg.c **** CY_CFG_SECTION
 373:.\Generated_Source\PSoC4/cyfitter_cfg.c **** void cyfitter_cfg(void)
 374:.\Generated_Source\PSoC4/cyfitter_cfg.c **** {
 102              		.loc 1 374 0
 103              		.cfi_startproc
 104 0000 F8B5     		push	{r3, r4, r5, r6, r7, lr}
 105              	.LCFI1:
 106              		.cfi_def_cfa_offset 24
 107              		.cfi_offset 3, -24
 108              		.cfi_offset 4, -20
 109              		.cfi_offset 5, -16
 110              		.cfi_offset 6, -12
 111              		.cfi_offset 7, -8
 112              		.cfi_offset 14, -4
 375:.\Generated_Source\PSoC4/cyfitter_cfg.c **** 	/* Disable interrupts by default. Let user enable if/when they want. */
 376:.\Generated_Source\PSoC4/cyfitter_cfg.c **** 	CyGlobalIntDisable;
 113              		.loc 1 376 0
 114              	@ 376 ".\Generated_Source\PSoC4\cyfitter_cfg.c" 1
 115 0002 72B6     		CPSID   i
 116              	@ 0 "" 2
 377:.\Generated_Source\PSoC4/cyfitter_cfg.c **** 
 378:.\Generated_Source\PSoC4/cyfitter_cfg.c **** 	/* Enable the clock in the interrupt controller for the routed interrupts */
 379:.\Generated_Source\PSoC4/cyfitter_cfg.c **** 	CY_SET_REG8((void *)CYREG_UDB_UDBIF_INT_CLK_CTL, 0x01u);
 117              		.loc 1 379 0
 118              		.code	16
 119 0004 674B     		ldr	r3, .L18
 120 0006 0122     		mov	r2, #1
 121              	.LBB16:
 122              	.LBB17:
 123              	.LBB18:
 124              	.LBB19:
  59:.\Generated_Source\PSoC4/cyfitter_cfg.c **** 	(void)memset(s, 0, n);
 125              		.loc 1 59 0
 126 0008 8024     		mov	r4, #128
 127              	.LBE19:
 128              	.LBE18:
 129              	.LBE17:
 130              	.LBE16:
 131              		.loc 1 379 0
 132 000a 1A70     		strb	r2, [r3]
ARM GAS  C:\Users\ZHANGM~1\AppData\Local\Temp\ccNddcGJ.s 			page 10


 133              	.LVL11:
 134              	.LBB26:
 135              	.LBB22:
 136              	.LBB21:
 137              	.LBB20:
  59:.\Generated_Source\PSoC4/cyfitter_cfg.c **** 	(void)memset(s, 0, n);
 138              		.loc 1 59 0
 139 000c 0021     		mov	r1, #0
 140 000e E200     		lsl	r2, r4, #3
 141 0010 6548     		ldr	r0, .L18+4
 142 0012 8025     		mov	r5, #128
 143 0014 FFF7FEFF 		bl	memset
 144              	.LVL12:
 145 0018 0021     		mov	r1, #0
 146 001a 6448     		ldr	r0, .L18+8
 147 001c EA00     		lsl	r2, r5, #3
 148 001e FFF7FEFF 		bl	memset
 149              	.LVL13:
 150 0022 0023     		mov	r3, #0
 151 0024 191C     		mov	r1, r3
 152              	.LVL14:
 153              	.L12:
 154              	.LBE20:
 155              	.LBE21:
 156              	.LBE22:
 157              	.LBB23:
 158              	.LBB24:
 159              	.LBB25:
 152:.\Generated_Source\PSoC4/cyfitter_cfg.c **** 		uint32 baseAddr = addr_table[i];
 160              		.loc 1 152 0
 161 0026 624F     		ldr	r7, .L18+12
 154:.\Generated_Source\PSoC4/cyfitter_cfg.c **** 		baseAddr &= 0xFFFFFF00u;
 162              		.loc 1 154 0
 163 0028 FF22     		mov	r2, #255
 152:.\Generated_Source\PSoC4/cyfitter_cfg.c **** 		uint32 baseAddr = addr_table[i];
 164              		.loc 1 152 0
 165 002a D859     		ldr	r0, [r3, r7]
 166              	.LVL15:
 380:.\Generated_Source\PSoC4/cyfitter_cfg.c **** 	{
 381:.\Generated_Source\PSoC4/cyfitter_cfg.c **** 		static const uint32 CYCODE cy_cfg_addr_table[] = {
 382:.\Generated_Source\PSoC4/cyfitter_cfg.c **** 			0x400F3204u, /* Base address: 0x400F3200 Count: 4 */
 383:.\Generated_Source\PSoC4/cyfitter_cfg.c **** 			0x400F3303u, /* Base address: 0x400F3300 Count: 3 */
 384:.\Generated_Source\PSoC4/cyfitter_cfg.c **** 			0x400F4002u, /* Base address: 0x400F4000 Count: 2 */
 385:.\Generated_Source\PSoC4/cyfitter_cfg.c **** 			0x400F4102u, /* Base address: 0x400F4100 Count: 2 */
 386:.\Generated_Source\PSoC4/cyfitter_cfg.c **** 			0x400F4207u, /* Base address: 0x400F4200 Count: 7 */
 387:.\Generated_Source\PSoC4/cyfitter_cfg.c **** 			0x400F430Au, /* Base address: 0x400F4300 Count: 10 */
 388:.\Generated_Source\PSoC4/cyfitter_cfg.c **** 			0x400F6002u, /* Base address: 0x400F6000 Count: 2 */
 389:.\Generated_Source\PSoC4/cyfitter_cfg.c **** 		};
 390:.\Generated_Source\PSoC4/cyfitter_cfg.c **** 
 391:.\Generated_Source\PSoC4/cyfitter_cfg.c **** 		static const cy_cfg_addrvalue_t CYCODE cy_cfg_data_table[] = {
 392:.\Generated_Source\PSoC4/cyfitter_cfg.c **** 			{0xB8u, 0x80u},
 393:.\Generated_Source\PSoC4/cyfitter_cfg.c **** 			{0xBEu, 0x40u},
 394:.\Generated_Source\PSoC4/cyfitter_cfg.c **** 			{0xD8u, 0x04u},
 395:.\Generated_Source\PSoC4/cyfitter_cfg.c **** 			{0xDFu, 0x01u},
 396:.\Generated_Source\PSoC4/cyfitter_cfg.c **** 			{0x18u, 0x01u},
 397:.\Generated_Source\PSoC4/cyfitter_cfg.c **** 			{0x8Cu, 0x01u},
 398:.\Generated_Source\PSoC4/cyfitter_cfg.c **** 			{0xEEu, 0x08u},
ARM GAS  C:\Users\ZHANGM~1\AppData\Local\Temp\ccNddcGJ.s 			page 11


 399:.\Generated_Source\PSoC4/cyfitter_cfg.c **** 			{0x6Fu, 0x20u},
 400:.\Generated_Source\PSoC4/cyfitter_cfg.c **** 			{0xDAu, 0x80u},
 401:.\Generated_Source\PSoC4/cyfitter_cfg.c **** 			{0xAFu, 0x20u},
 402:.\Generated_Source\PSoC4/cyfitter_cfg.c **** 			{0xEEu, 0x10u},
 403:.\Generated_Source\PSoC4/cyfitter_cfg.c **** 			{0x0Fu, 0x02u},
 404:.\Generated_Source\PSoC4/cyfitter_cfg.c **** 			{0x60u, 0x10u},
 405:.\Generated_Source\PSoC4/cyfitter_cfg.c **** 			{0x6Cu, 0x40u},
 406:.\Generated_Source\PSoC4/cyfitter_cfg.c **** 			{0x70u, 0x08u},
 407:.\Generated_Source\PSoC4/cyfitter_cfg.c **** 			{0xC2u, 0x01u},
 408:.\Generated_Source\PSoC4/cyfitter_cfg.c **** 			{0xD8u, 0x02u},
 409:.\Generated_Source\PSoC4/cyfitter_cfg.c **** 			{0xDCu, 0x03u},
 410:.\Generated_Source\PSoC4/cyfitter_cfg.c **** 			{0x1Cu, 0x10u},
 411:.\Generated_Source\PSoC4/cyfitter_cfg.c **** 			{0x61u, 0x02u},
 412:.\Generated_Source\PSoC4/cyfitter_cfg.c **** 			{0x8Cu, 0x48u},
 413:.\Generated_Source\PSoC4/cyfitter_cfg.c **** 			{0x8Du, 0x02u},
 414:.\Generated_Source\PSoC4/cyfitter_cfg.c **** 			{0x94u, 0x90u},
 415:.\Generated_Source\PSoC4/cyfitter_cfg.c **** 			{0xA4u, 0x08u},
 416:.\Generated_Source\PSoC4/cyfitter_cfg.c **** 			{0xAFu, 0x01u},
 417:.\Generated_Source\PSoC4/cyfitter_cfg.c **** 			{0xC6u, 0x04u},
 418:.\Generated_Source\PSoC4/cyfitter_cfg.c **** 			{0xD8u, 0x02u},
 419:.\Generated_Source\PSoC4/cyfitter_cfg.c **** 			{0xE4u, 0x08u},
 420:.\Generated_Source\PSoC4/cyfitter_cfg.c **** 			{0x02u, 0x01u},
 421:.\Generated_Source\PSoC4/cyfitter_cfg.c **** 			{0x11u, 0x01u},
 422:.\Generated_Source\PSoC4/cyfitter_cfg.c **** 		};
 423:.\Generated_Source\PSoC4/cyfitter_cfg.c **** 
 424:.\Generated_Source\PSoC4/cyfitter_cfg.c **** 
 425:.\Generated_Source\PSoC4/cyfitter_cfg.c **** 
 426:.\Generated_Source\PSoC4/cyfitter_cfg.c **** 		CYPACKED typedef struct {
 427:.\Generated_Source\PSoC4/cyfitter_cfg.c **** 			void CYFAR *address;
 428:.\Generated_Source\PSoC4/cyfitter_cfg.c **** 			uint16 size;
 429:.\Generated_Source\PSoC4/cyfitter_cfg.c **** 		} CYPACKED_ATTR cfg_memset_t;
 430:.\Generated_Source\PSoC4/cyfitter_cfg.c **** 
 431:.\Generated_Source\PSoC4/cyfitter_cfg.c **** 		static const cfg_memset_t CYCODE cfg_memset_list [] = {
 432:.\Generated_Source\PSoC4/cyfitter_cfg.c **** 			/* address, size */
 433:.\Generated_Source\PSoC4/cyfitter_cfg.c **** 			{(void CYFAR *)(CYDEV_UDB_P0_U0_BASE), 1024u},
 434:.\Generated_Source\PSoC4/cyfitter_cfg.c **** 			{(void CYFAR *)(CYDEV_UDB_DSI0_BASE), 1024u},
 435:.\Generated_Source\PSoC4/cyfitter_cfg.c **** 		};
 436:.\Generated_Source\PSoC4/cyfitter_cfg.c **** 
 437:.\Generated_Source\PSoC4/cyfitter_cfg.c **** 		uint8 CYDATA i;
 438:.\Generated_Source\PSoC4/cyfitter_cfg.c **** 
 439:.\Generated_Source\PSoC4/cyfitter_cfg.c **** 		/* Zero out critical memory blocks before beginning configuration */
 440:.\Generated_Source\PSoC4/cyfitter_cfg.c **** 		for (i = 0u; i < (sizeof(cfg_memset_list)/sizeof(cfg_memset_list[0])); i++)
 441:.\Generated_Source\PSoC4/cyfitter_cfg.c **** 		{
 442:.\Generated_Source\PSoC4/cyfitter_cfg.c **** 			const cfg_memset_t CYCODE * CYDATA ms = &cfg_memset_list[i];
 443:.\Generated_Source\PSoC4/cyfitter_cfg.c **** 			CYMEMZERO(ms->address, (uint32)(ms->size));
 444:.\Generated_Source\PSoC4/cyfitter_cfg.c **** 		}
 445:.\Generated_Source\PSoC4/cyfitter_cfg.c **** 
 446:.\Generated_Source\PSoC4/cyfitter_cfg.c **** 		cfg_write_bytes32(cy_cfg_addr_table, cy_cfg_data_table);
 167              		.loc 1 446 0
 168 002c 1C37     		add	r7, r7, #28
 154:.\Generated_Source\PSoC4/cyfitter_cfg.c **** 		baseAddr &= 0xFFFFFF00u;
 169              		.loc 1 154 0
 170 002e 061C     		mov	r6, r0
 171 0030 9643     		bic	r6, r2
 373:.\Generated_Source\PSoC4/cyfitter_cfg.c **** void cyfitter_cfg(void)
 172              		.loc 1 373 0
 173 0032 4A00     		lsl	r2, r1, #1
ARM GAS  C:\Users\ZHANGM~1\AppData\Local\Temp\ccNddcGJ.s 			page 12


 153:.\Generated_Source\PSoC4/cyfitter_cfg.c **** 		uint8 count = (uint8)baseAddr;
 174              		.loc 1 153 0
 175 0034 C4B2     		uxtb	r4, r0
 176              	.LVL16:
 154:.\Generated_Source\PSoC4/cyfitter_cfg.c **** 		baseAddr &= 0xFFFFFF00u;
 177              		.loc 1 154 0
 178 0036 351C     		mov	r5, r6
 179              	.LVL17:
 373:.\Generated_Source\PSoC4/cyfitter_cfg.c **** void cyfitter_cfg(void)
 180              		.loc 1 373 0
 181 0038 BA18     		add	r2, r7, r2
 182              	.LVL18:
 183              	.L10:
 155:.\Generated_Source\PSoC4/cyfitter_cfg.c **** 		while (count != 0u)
 184              		.loc 1 155 0
 185 003a 002C     		cmp	r4, #0
 186 003c 07D0     		beq	.L17
 187              	.L11:
 157:.\Generated_Source\PSoC4/cyfitter_cfg.c **** 			CY_SET_XTND_REG8((void CYFAR *)(baseAddr + data_table[j].offset), data_table[j].value);
 188              		.loc 1 157 0
 189 003e 1778     		ldrb	r7, [r2]
 159:.\Generated_Source\PSoC4/cyfitter_cfg.c **** 			count--;
 190              		.loc 1 159 0
 191 0040 013C     		sub	r4, r4, #1
 192              	.LVL19:
 157:.\Generated_Source\PSoC4/cyfitter_cfg.c **** 			CY_SET_XTND_REG8((void CYFAR *)(baseAddr + data_table[j].offset), data_table[j].value);
 193              		.loc 1 157 0
 194 0042 7E19     		add	r6, r7, r5
 195 0044 5778     		ldrb	r7, [r2, #1]
 159:.\Generated_Source\PSoC4/cyfitter_cfg.c **** 			count--;
 196              		.loc 1 159 0
 197 0046 E4B2     		uxtb	r4, r4
 198              	.LVL20:
 157:.\Generated_Source\PSoC4/cyfitter_cfg.c **** 			CY_SET_XTND_REG8((void CYFAR *)(baseAddr + data_table[j].offset), data_table[j].value);
 199              		.loc 1 157 0
 200 0048 3770     		strb	r7, [r6]
 201              	.LVL21:
 202 004a 0232     		add	r2, r2, #2
 203 004c F5E7     		b	.L10
 204              	.L17:
 373:.\Generated_Source\PSoC4/cyfitter_cfg.c **** void cyfitter_cfg(void)
 205              		.loc 1 373 0
 206 004e C0B2     		uxtb	r0, r0
 207 0050 0433     		add	r3, r3, #4
 208 0052 0918     		add	r1, r1, r0
 209              	.LVL22:
 210              	.LBE25:
 150:.\Generated_Source\PSoC4/cyfitter_cfg.c **** 	for (i = 0u; i < CY_CFG_BASE_ADDR_COUNT; i++)
 211              		.loc 1 150 0
 212 0054 1C2B     		cmp	r3, #28
 213 0056 E6D1     		bne	.L12
 214              	.LBE24:
 215              	.LBE23:
 447:.\Generated_Source\PSoC4/cyfitter_cfg.c **** 
 448:.\Generated_Source\PSoC4/cyfitter_cfg.c **** 		/* HSIOM Starting address: CYDEV_HSIOM_BASE */
 449:.\Generated_Source\PSoC4/cyfitter_cfg.c **** 		CY_SET_XTND_REG32((void CYFAR *)(CYREG_HSIOM_PORT_SEL2), 0x00030000u);
 216              		.loc 1 449 0
ARM GAS  C:\Users\ZHANGM~1\AppData\Local\Temp\ccNddcGJ.s 			page 13


 217 0058 C023     		mov	r3, #192
 218 005a 564D     		ldr	r5, .L18+16
 219              	.LVL23:
 450:.\Generated_Source\PSoC4/cyfitter_cfg.c **** 		CY_SET_XTND_REG32((void CYFAR *)(CYREG_HSIOM_PORT_SEL3), 0x0000EE99u);
 220              		.loc 1 450 0
 221 005c 564F     		ldr	r7, .L18+20
 222 005e 574E     		ldr	r6, .L18+24
 449:.\Generated_Source\PSoC4/cyfitter_cfg.c **** 		CY_SET_XTND_REG32((void CYFAR *)(CYREG_HSIOM_PORT_SEL2), 0x00030000u);
 223              		.loc 1 449 0
 224 0060 9C02     		lsl	r4, r3, #10
 225              	.LVL24:
 226 0062 2C60     		str	r4, [r5]
 451:.\Generated_Source\PSoC4/cyfitter_cfg.c **** 		CY_SET_XTND_REG32((void CYFAR *)(CYREG_HSIOM_PORT_SEL4), 0x00000099u);
 227              		.loc 1 451 0
 228 0064 5648     		ldr	r0, .L18+28
 450:.\Generated_Source\PSoC4/cyfitter_cfg.c **** 		CY_SET_XTND_REG32((void CYFAR *)(CYREG_HSIOM_PORT_SEL3), 0x0000EE99u);
 229              		.loc 1 450 0
 230 0066 3760     		str	r7, [r6]
 452:.\Generated_Source\PSoC4/cyfitter_cfg.c **** 
 453:.\Generated_Source\PSoC4/cyfitter_cfg.c **** 		/* IOPINS0_0 Starting address: CYDEV_PRT0_DR */
 454:.\Generated_Source\PSoC4/cyfitter_cfg.c **** 		CY_SET_XTND_REG32((void CYFAR *)(CYREG_PRT0_DR), 0x0000000Fu);
 231              		.loc 1 454 0
 232 0068 5649     		ldr	r1, .L18+32
 233              	.LVL25:
 455:.\Generated_Source\PSoC4/cyfitter_cfg.c **** 		CY_SET_XTND_REG32((void CYFAR *)(CYREG_PRT0_PC), 0x00D80000u);
 234              		.loc 1 455 0
 235 006a D824     		mov	r4, #216
 236 006c 564F     		ldr	r7, .L18+36
 456:.\Generated_Source\PSoC4/cyfitter_cfg.c **** 		CY_SET_XTND_REG32((void CYFAR *)(CYREG_PRT0_PC2), 0x0000000Fu);
 237              		.loc 1 456 0
 238 006e 574E     		ldr	r6, .L18+40
 454:.\Generated_Source\PSoC4/cyfitter_cfg.c **** 		CY_SET_XTND_REG32((void CYFAR *)(CYREG_PRT0_DR), 0x0000000Fu);
 239              		.loc 1 454 0
 240 0070 0F23     		mov	r3, #15
 455:.\Generated_Source\PSoC4/cyfitter_cfg.c **** 		CY_SET_XTND_REG32((void CYFAR *)(CYREG_PRT0_PC), 0x00D80000u);
 241              		.loc 1 455 0
 242 0072 2504     		lsl	r5, r4, #16
 451:.\Generated_Source\PSoC4/cyfitter_cfg.c **** 		CY_SET_XTND_REG32((void CYFAR *)(CYREG_HSIOM_PORT_SEL4), 0x00000099u);
 243              		.loc 1 451 0
 244 0074 9922     		mov	r2, #153
 245 0076 0260     		str	r2, [r0]
 457:.\Generated_Source\PSoC4/cyfitter_cfg.c **** 
 458:.\Generated_Source\PSoC4/cyfitter_cfg.c **** 		/* IOPINS0_1 Starting address: CYDEV_PRT1_DR */
 459:.\Generated_Source\PSoC4/cyfitter_cfg.c **** 		CY_SET_XTND_REG32((void CYFAR *)(CYREG_PRT1_PC), 0x00DB6DB6u);
 460:.\Generated_Source\PSoC4/cyfitter_cfg.c **** 
 461:.\Generated_Source\PSoC4/cyfitter_cfg.c **** 		/* IOPINS0_2 Starting address: CYDEV_PRT2_DR */
 462:.\Generated_Source\PSoC4/cyfitter_cfg.c **** 		CY_SET_XTND_REG32((void CYFAR *)(CYREG_PRT2_DR), 0x00000016u);
 463:.\Generated_Source\PSoC4/cyfitter_cfg.c **** 		CY_SET_XTND_REG32((void CYFAR *)(CYREG_PRT2_PC), 0x00236C96u);
 246              		.loc 1 463 0
 247 0078 554C     		ldr	r4, .L18+44
 454:.\Generated_Source\PSoC4/cyfitter_cfg.c **** 		CY_SET_XTND_REG32((void CYFAR *)(CYREG_PRT0_DR), 0x0000000Fu);
 248              		.loc 1 454 0
 249 007a 0B60     		str	r3, [r1]
 459:.\Generated_Source\PSoC4/cyfitter_cfg.c **** 		CY_SET_XTND_REG32((void CYFAR *)(CYREG_PRT1_PC), 0x00DB6DB6u);
 250              		.loc 1 459 0
 251 007c 554A     		ldr	r2, .L18+48
 455:.\Generated_Source\PSoC4/cyfitter_cfg.c **** 		CY_SET_XTND_REG32((void CYFAR *)(CYREG_PRT0_PC), 0x00D80000u);
ARM GAS  C:\Users\ZHANGM~1\AppData\Local\Temp\ccNddcGJ.s 			page 14


 252              		.loc 1 455 0
 253 007e 3D60     		str	r5, [r7]
 459:.\Generated_Source\PSoC4/cyfitter_cfg.c **** 		CY_SET_XTND_REG32((void CYFAR *)(CYREG_PRT1_PC), 0x00DB6DB6u);
 254              		.loc 1 459 0
 255 0080 5548     		ldr	r0, .L18+52
 456:.\Generated_Source\PSoC4/cyfitter_cfg.c **** 		CY_SET_XTND_REG32((void CYFAR *)(CYREG_PRT0_PC2), 0x0000000Fu);
 256              		.loc 1 456 0
 257 0082 3360     		str	r3, [r6]
 258              		.loc 1 463 0
 259 0084 554D     		ldr	r5, .L18+56
 462:.\Generated_Source\PSoC4/cyfitter_cfg.c **** 		CY_SET_XTND_REG32((void CYFAR *)(CYREG_PRT2_DR), 0x00000016u);
 260              		.loc 1 462 0
 261 0086 564B     		ldr	r3, .L18+60
 464:.\Generated_Source\PSoC4/cyfitter_cfg.c **** 
 465:.\Generated_Source\PSoC4/cyfitter_cfg.c **** 		/* IOPINS0_3 Starting address: CYDEV_PRT3_DR */
 466:.\Generated_Source\PSoC4/cyfitter_cfg.c **** 		CY_SET_XTND_REG32((void CYFAR *)(CYREG_PRT3_DR), 0x00000012u);
 262              		.loc 1 466 0
 263 0088 564E     		ldr	r6, .L18+64
 462:.\Generated_Source\PSoC4/cyfitter_cfg.c **** 		CY_SET_XTND_REG32((void CYFAR *)(CYREG_PRT2_DR), 0x00000016u);
 264              		.loc 1 462 0
 265 008a 1621     		mov	r1, #22
 266              		.loc 1 466 0
 267 008c 1227     		mov	r7, #18
 459:.\Generated_Source\PSoC4/cyfitter_cfg.c **** 		CY_SET_XTND_REG32((void CYFAR *)(CYREG_PRT1_PC), 0x00DB6DB6u);
 268              		.loc 1 459 0
 269 008e 0260     		str	r2, [r0]
 462:.\Generated_Source\PSoC4/cyfitter_cfg.c **** 		CY_SET_XTND_REG32((void CYFAR *)(CYREG_PRT2_DR), 0x00000016u);
 270              		.loc 1 462 0
 271 0090 1960     		str	r1, [r3]
 467:.\Generated_Source\PSoC4/cyfitter_cfg.c **** 		CY_SET_XTND_REG32((void CYFAR *)(CYREG_PRT3_PC), 0x00009DB1u);
 272              		.loc 1 467 0
 273 0092 554A     		ldr	r2, .L18+68
 463:.\Generated_Source\PSoC4/cyfitter_cfg.c **** 		CY_SET_XTND_REG32((void CYFAR *)(CYREG_PRT2_PC), 0x00236C96u);
 274              		.loc 1 463 0
 275 0094 2C60     		str	r4, [r5]
 276              		.loc 1 467 0
 277 0096 5548     		ldr	r0, .L18+72
 466:.\Generated_Source\PSoC4/cyfitter_cfg.c **** 		CY_SET_XTND_REG32((void CYFAR *)(CYREG_PRT3_DR), 0x00000012u);
 278              		.loc 1 466 0
 279 0098 3760     		str	r7, [r6]
 468:.\Generated_Source\PSoC4/cyfitter_cfg.c **** 		CY_SET_XTND_REG32((void CYFAR *)(CYREG_PRT3_PC2), 0x00000002u);
 280              		.loc 1 468 0
 281 009a 554B     		ldr	r3, .L18+76
 469:.\Generated_Source\PSoC4/cyfitter_cfg.c **** 
 470:.\Generated_Source\PSoC4/cyfitter_cfg.c **** 		/* IOPINS0_4 Starting address: CYDEV_PRT4_DR */
 471:.\Generated_Source\PSoC4/cyfitter_cfg.c **** 		CY_SET_XTND_REG32((void CYFAR *)(CYREG_PRT4_DR), 0x00000006u);
 282              		.loc 1 471 0
 283 009c 554C     		ldr	r4, .L18+80
 472:.\Generated_Source\PSoC4/cyfitter_cfg.c **** 		CY_SET_XTND_REG32((void CYFAR *)(CYREG_PRT4_PC), 0x00000031u);
 284              		.loc 1 472 0
 285 009e 564E     		ldr	r6, .L18+84
 468:.\Generated_Source\PSoC4/cyfitter_cfg.c **** 		CY_SET_XTND_REG32((void CYFAR *)(CYREG_PRT3_PC2), 0x00000002u);
 286              		.loc 1 468 0
 287 00a0 0221     		mov	r1, #2
 471:.\Generated_Source\PSoC4/cyfitter_cfg.c **** 		CY_SET_XTND_REG32((void CYFAR *)(CYREG_PRT4_DR), 0x00000006u);
 288              		.loc 1 471 0
 289 00a2 0625     		mov	r5, #6
ARM GAS  C:\Users\ZHANGM~1\AppData\Local\Temp\ccNddcGJ.s 			page 15


 290              		.loc 1 472 0
 291 00a4 3127     		mov	r7, #49
 467:.\Generated_Source\PSoC4/cyfitter_cfg.c **** 		CY_SET_XTND_REG32((void CYFAR *)(CYREG_PRT3_PC), 0x00009DB1u);
 292              		.loc 1 467 0
 293 00a6 0260     		str	r2, [r0]
 468:.\Generated_Source\PSoC4/cyfitter_cfg.c **** 		CY_SET_XTND_REG32((void CYFAR *)(CYREG_PRT3_PC2), 0x00000002u);
 294              		.loc 1 468 0
 295 00a8 1960     		str	r1, [r3]
 473:.\Generated_Source\PSoC4/cyfitter_cfg.c **** 		CY_SET_XTND_REG32((void CYFAR *)(CYREG_PRT4_PC2), 0x00000006u);
 296              		.loc 1 473 0
 297 00aa 544A     		ldr	r2, .L18+88
 471:.\Generated_Source\PSoC4/cyfitter_cfg.c **** 		CY_SET_XTND_REG32((void CYFAR *)(CYREG_PRT4_DR), 0x00000006u);
 298              		.loc 1 471 0
 299 00ac 2560     		str	r5, [r4]
 474:.\Generated_Source\PSoC4/cyfitter_cfg.c **** 
 475:.\Generated_Source\PSoC4/cyfitter_cfg.c **** 		/* UDB_PA_0 Starting address: CYDEV_UDB_PA0_BASE */
 476:.\Generated_Source\PSoC4/cyfitter_cfg.c **** 		CY_SET_XTND_REG32((void CYFAR *)(CYDEV_UDB_PA0_BASE), 0x00990000u);
 300              		.loc 1 476 0
 301 00ae 9920     		mov	r0, #153
 472:.\Generated_Source\PSoC4/cyfitter_cfg.c **** 		CY_SET_XTND_REG32((void CYFAR *)(CYREG_PRT4_PC), 0x00000031u);
 302              		.loc 1 472 0
 303 00b0 3760     		str	r7, [r6]
 304              		.loc 1 476 0
 305 00b2 534C     		ldr	r4, .L18+92
 477:.\Generated_Source\PSoC4/cyfitter_cfg.c **** 
 478:.\Generated_Source\PSoC4/cyfitter_cfg.c **** 		/* UDB_PA_1 Starting address: CYDEV_UDB_PA1_BASE */
 479:.\Generated_Source\PSoC4/cyfitter_cfg.c **** 		CY_SET_XTND_REG32((void CYFAR *)(CYDEV_UDB_PA1_BASE), 0x00990000u);
 306              		.loc 1 479 0
 307 00b4 534F     		ldr	r7, .L18+96
 476:.\Generated_Source\PSoC4/cyfitter_cfg.c **** 		CY_SET_XTND_REG32((void CYFAR *)(CYDEV_UDB_PA0_BASE), 0x00990000u);
 308              		.loc 1 476 0
 309 00b6 0304     		lsl	r3, r0, #16
 473:.\Generated_Source\PSoC4/cyfitter_cfg.c **** 		CY_SET_XTND_REG32((void CYFAR *)(CYREG_PRT4_PC2), 0x00000006u);
 310              		.loc 1 473 0
 311 00b8 1560     		str	r5, [r2]
 480:.\Generated_Source\PSoC4/cyfitter_cfg.c **** 
 481:.\Generated_Source\PSoC4/cyfitter_cfg.c **** 		/* UDB_PA_2 Starting address: CYDEV_UDB_PA2_BASE */
 482:.\Generated_Source\PSoC4/cyfitter_cfg.c **** 		CY_SET_XTND_REG32((void CYFAR *)(CYDEV_UDB_PA2_BASE), 0x00990004u);
 312              		.loc 1 482 0
 313 00ba 534E     		ldr	r6, .L18+100
 476:.\Generated_Source\PSoC4/cyfitter_cfg.c **** 		CY_SET_XTND_REG32((void CYFAR *)(CYDEV_UDB_PA0_BASE), 0x00990000u);
 314              		.loc 1 476 0
 315 00bc 2360     		str	r3, [r4]
 316              		.loc 1 482 0
 317 00be 534A     		ldr	r2, .L18+104
 479:.\Generated_Source\PSoC4/cyfitter_cfg.c **** 		CY_SET_XTND_REG32((void CYFAR *)(CYDEV_UDB_PA1_BASE), 0x00990000u);
 318              		.loc 1 479 0
 319 00c0 3B60     		str	r3, [r7]
 483:.\Generated_Source\PSoC4/cyfitter_cfg.c **** 		CY_SET_XTND_REG32((void CYFAR *)(CYREG_UDB_PA2_CFG4), 0x80000000u);
 320              		.loc 1 483 0
 321 00c2 8020     		mov	r0, #128
 322 00c4 524F     		ldr	r7, .L18+108
 323 00c6 0406     		lsl	r4, r0, #24
 482:.\Generated_Source\PSoC4/cyfitter_cfg.c **** 		CY_SET_XTND_REG32((void CYFAR *)(CYDEV_UDB_PA2_BASE), 0x00990004u);
 324              		.loc 1 482 0
 325 00c8 1660     		str	r6, [r2]
 484:.\Generated_Source\PSoC4/cyfitter_cfg.c **** 		CY_SET_XTND_REG32((void CYFAR *)(CYREG_UDB_PA2_CFG8), 0x02000000u);
ARM GAS  C:\Users\ZHANGM~1\AppData\Local\Temp\ccNddcGJ.s 			page 16


 326              		.loc 1 484 0
 327 00ca 5248     		ldr	r0, .L18+112
 483:.\Generated_Source\PSoC4/cyfitter_cfg.c **** 		CY_SET_XTND_REG32((void CYFAR *)(CYREG_UDB_PA2_CFG4), 0x80000000u);
 328              		.loc 1 483 0
 329 00cc 3C60     		str	r4, [r7]
 330              		.loc 1 484 0
 331 00ce 8026     		mov	r6, #128
 485:.\Generated_Source\PSoC4/cyfitter_cfg.c **** 
 486:.\Generated_Source\PSoC4/cyfitter_cfg.c **** 		/* UDB_PA_3 Starting address: CYDEV_UDB_PA3_BASE */
 487:.\Generated_Source\PSoC4/cyfitter_cfg.c **** 		CY_SET_XTND_REG32((void CYFAR *)(CYDEV_UDB_PA3_BASE), 0x00990000u);
 332              		.loc 1 487 0
 333 00d0 514C     		ldr	r4, .L18+116
 484:.\Generated_Source\PSoC4/cyfitter_cfg.c **** 		CY_SET_XTND_REG32((void CYFAR *)(CYREG_UDB_PA2_CFG8), 0x02000000u);
 334              		.loc 1 484 0
 335 00d2 B204     		lsl	r2, r6, #18
 336 00d4 0260     		str	r2, [r0]
 488:.\Generated_Source\PSoC4/cyfitter_cfg.c **** 		CY_SET_XTND_REG32((void CYFAR *)(CYREG_UDB_PA3_CFG8), 0x20000000u);
 337              		.loc 1 488 0
 338 00d6 514E     		ldr	r6, .L18+120
 487:.\Generated_Source\PSoC4/cyfitter_cfg.c **** 		CY_SET_XTND_REG32((void CYFAR *)(CYDEV_UDB_PA3_BASE), 0x00990000u);
 339              		.loc 1 487 0
 340 00d8 2360     		str	r3, [r4]
 489:.\Generated_Source\PSoC4/cyfitter_cfg.c **** 
 490:.\Generated_Source\PSoC4/cyfitter_cfg.c **** 		/* INT_SELECT Starting address: CYDEV_CPUSS_INTR_SELECT */
 491:.\Generated_Source\PSoC4/cyfitter_cfg.c **** 		CY_SET_XTND_REG32((void CYFAR *)(CYREG_CPUSS_INTR_SELECT), 0x00000001u);
 341              		.loc 1 491 0
 342 00da 5148     		ldr	r0, .L18+124
 488:.\Generated_Source\PSoC4/cyfitter_cfg.c **** 		CY_SET_XTND_REG32((void CYFAR *)(CYREG_UDB_PA3_CFG8), 0x20000000u);
 343              		.loc 1 488 0
 344 00dc 8023     		mov	r3, #128
 492:.\Generated_Source\PSoC4/cyfitter_cfg.c **** 
 493:.\Generated_Source\PSoC4/cyfitter_cfg.c **** 		/* INT_CONFIG Starting address: CYDEV_UDB_INT_CFG */
 494:.\Generated_Source\PSoC4/cyfitter_cfg.c **** 		CY_SET_XTND_REG32((void CYFAR *)(CYREG_UDB_INT_CFG), 0x00000002u);
 345              		.loc 1 494 0
 346 00de 514C     		ldr	r4, .L18+128
 488:.\Generated_Source\PSoC4/cyfitter_cfg.c **** 		CY_SET_XTND_REG32((void CYFAR *)(CYREG_UDB_PA3_CFG8), 0x20000000u);
 347              		.loc 1 488 0
 348 00e0 9F05     		lsl	r7, r3, #22
 491:.\Generated_Source\PSoC4/cyfitter_cfg.c **** 		CY_SET_XTND_REG32((void CYFAR *)(CYREG_CPUSS_INTR_SELECT), 0x00000001u);
 349              		.loc 1 491 0
 350 00e2 0122     		mov	r2, #1
 495:.\Generated_Source\PSoC4/cyfitter_cfg.c **** 
 496:.\Generated_Source\PSoC4/cyfitter_cfg.c **** 		/* Enable digital routing */
 497:.\Generated_Source\PSoC4/cyfitter_cfg.c **** 		CY_SET_XTND_REG8((void *)CYREG_UDB_UDBIF_BANK_CTL, CY_GET_XTND_REG8((void *)CYREG_UDB_UDBIF_BANK_
 351              		.loc 1 497 0
 352 00e4 504B     		ldr	r3, .L18+132
 488:.\Generated_Source\PSoC4/cyfitter_cfg.c **** 		CY_SET_XTND_REG32((void CYFAR *)(CYREG_UDB_PA3_CFG8), 0x20000000u);
 353              		.loc 1 488 0
 354 00e6 3760     		str	r7, [r6]
 491:.\Generated_Source\PSoC4/cyfitter_cfg.c **** 		CY_SET_XTND_REG32((void CYFAR *)(CYREG_CPUSS_INTR_SELECT), 0x00000001u);
 355              		.loc 1 491 0
 356 00e8 0260     		str	r2, [r0]
 494:.\Generated_Source\PSoC4/cyfitter_cfg.c **** 		CY_SET_XTND_REG32((void CYFAR *)(CYREG_UDB_INT_CFG), 0x00000002u);
 357              		.loc 1 494 0
 358 00ea 2160     		str	r1, [r4]
 359              		.loc 1 497 0
 360 00ec 1F78     		ldrb	r7, [r3]
ARM GAS  C:\Users\ZHANGM~1\AppData\Local\Temp\ccNddcGJ.s 			page 17


 361              	.LBE26:
 362              	.LBB27:
 363              	.LBB28:
 239:.\Generated_Source\PSoC4/cyfitter_cfg.c **** 	CY_SET_REG32((void CYXDATA *)(CYREG_CLK_SELECT), (CY_GET_REG32((void *)CYREG_CLK_SELECT) | 0x00040
 364              		.loc 1 239 0
 365 00ee 8022     		mov	r2, #128
 366              	.LBE28:
 367              	.LBE27:
 368              	.LBB40:
 369              		.loc 1 497 0
 370 00f0 3943     		orr	r1, r7
 371 00f2 1970     		strb	r1, [r3]
 498:.\Generated_Source\PSoC4/cyfitter_cfg.c **** 
 499:.\Generated_Source\PSoC4/cyfitter_cfg.c **** 		/* Enable UDB array */
 500:.\Generated_Source\PSoC4/cyfitter_cfg.c **** 		CY_SET_XTND_REG8((void *)CYREG_UDB_UDBIF_BANK_CTL, CY_GET_XTND_REG8((void *)CYREG_UDB_UDBIF_BANK_
 372              		.loc 1 500 0
 373 00f4 1978     		ldrb	r1, [r3]
 374              	.LBE40:
 375              	.LBB41:
 376              	.LBB37:
 239:.\Generated_Source\PSoC4/cyfitter_cfg.c **** 	CY_SET_REG32((void CYXDATA *)(CYREG_CLK_SELECT), (CY_GET_REG32((void *)CYREG_CLK_SELECT) | 0x00040
 377              		.loc 1 239 0
 378 00f6 D002     		lsl	r0, r2, #11
 379              	.LBE37:
 380              	.LBE41:
 381              	.LBB42:
 382              		.loc 1 500 0
 383 00f8 0D43     		orr	r5, r1
 384 00fa 1D70     		strb	r5, [r3]
 385              	.LBE42:
 386              	.LBB43:
 387              	.LBB38:
 239:.\Generated_Source\PSoC4/cyfitter_cfg.c **** 	CY_SET_REG32((void CYXDATA *)(CYREG_CLK_SELECT), (CY_GET_REG32((void *)CYREG_CLK_SELECT) | 0x00040
 388              		.loc 1 239 0
 389 00fc 4B4D     		ldr	r5, .L18+136
 390              	.LBB29:
 391              	.LBB30:
 202:.\Generated_Source\PSoC4/cyfitter_cfg.c **** 	setAbs = CY_GET_REG8((const void *)CYREG_SFLASH_IMO_ABS4);
 392              		.loc 1 202 0
 393 00fe 4C4C     		ldr	r4, .L18+140
 394              	.LBE30:
 395              	.LBE29:
 239:.\Generated_Source\PSoC4/cyfitter_cfg.c **** 	CY_SET_REG32((void CYXDATA *)(CYREG_CLK_SELECT), (CY_GET_REG32((void *)CYREG_CLK_SELECT) | 0x00040
 396              		.loc 1 239 0
 397 0100 2E68     		ldr	r6, [r5]
 398              	.LBB34:
 399              	.LBB31:
 203:.\Generated_Source\PSoC4/cyfitter_cfg.c **** 	setTmpCo = CY_GET_REG8((const void *)CYREG_SFLASH_IMO_TMPCO4);
 400              		.loc 1 203 0
 401 0102 4C4B     		ldr	r3, .L18+144
 402              	.LBE31:
 403              	.LBE34:
 239:.\Generated_Source\PSoC4/cyfitter_cfg.c **** 	CY_SET_REG32((void CYXDATA *)(CYREG_CLK_SELECT), (CY_GET_REG32((void *)CYREG_CLK_SELECT) | 0x00040
 404              		.loc 1 239 0
 405 0104 3043     		orr	r0, r6
 406 0106 2860     		str	r0, [r5]
 407              	.LVL26:
ARM GAS  C:\Users\ZHANGM~1\AppData\Local\Temp\ccNddcGJ.s 			page 18


 408              	.LBB35:
 409              	.LBB32:
 202:.\Generated_Source\PSoC4/cyfitter_cfg.c **** 	setAbs = CY_GET_REG8((const void *)CYREG_SFLASH_IMO_ABS4);
 410              		.loc 1 202 0
 411 0108 2078     		ldrb	r0, [r4]
 412              	.LVL27:
 413 010a 4B4E     		ldr	r6, .L18+148
 203:.\Generated_Source\PSoC4/cyfitter_cfg.c **** 	setTmpCo = CY_GET_REG8((const void *)CYREG_SFLASH_IMO_TMPCO4);
 414              		.loc 1 203 0
 415 010c 1978     		ldrb	r1, [r3]
 416              	.LVL28:
 417              	.L13:
 205:.\Generated_Source\PSoC4/cyfitter_cfg.c **** 	     (imoTrimIndex >= 0) && (imoFreq <= imo_trim_table->entries[imoTrimIndex].freq);
 418              		.loc 1 205 0
 419 010e 3778     		ldrb	r7, [r6]
 420 0110 172F     		cmp	r7, #23
 421 0112 05D9     		bls	.L14
 422              	.L15:
 204:.\Generated_Source\PSoC4/cyfitter_cfg.c **** 	for (imoTrimIndex = ((int32)IMO_TRIM_FREQ_TABLE_ENTRIES)-1;
 423              		.loc 1 204 0
 424 0114 494A     		ldr	r2, .L18+152
 208:.\Generated_Source\PSoC4/cyfitter_cfg.c **** 		setAbs = imo_trim_table->entries[imoTrimIndex].absolute;
 425              		.loc 1 208 0
 426 0116 7078     		ldrb	r0, [r6, #1]
 209:.\Generated_Source\PSoC4/cyfitter_cfg.c **** 		setTmpCo = imo_trim_table->entries[imoTrimIndex].tmpco;
 427              		.loc 1 209 0
 428 0118 B178     		ldrb	r1, [r6, #2]
 429 011a 033E     		sub	r6, r6, #3
 204:.\Generated_Source\PSoC4/cyfitter_cfg.c **** 	for (imoTrimIndex = ((int32)IMO_TRIM_FREQ_TABLE_ENTRIES)-1;
 430              		.loc 1 204 0
 431 011c 9642     		cmp	r6, r2
 432 011e F6D1     		bne	.L13
 433              	.L14:
 213:.\Generated_Source\PSoC4/cyfitter_cfg.c **** 	CY_SET_REG32((void *)CYREG_PWR_BG_TRIM5, setTmpCo);
 434              		.loc 1 213 0
 435 0120 474B     		ldr	r3, .L18+156
 212:.\Generated_Source\PSoC4/cyfitter_cfg.c **** 	CY_SET_REG32((void *)CYREG_PWR_BG_TRIM4, setAbs);
 436              		.loc 1 212 0
 437 0122 484C     		ldr	r4, .L18+160
 438              	.LBE32:
 439              	.LBE35:
 245:.\Generated_Source\PSoC4/cyfitter_cfg.c **** 	CY_SET_REG32((void CYXDATA *)(CYREG_CLK_IMO_TRIM2), (25u));
 440              		.loc 1 245 0
 441 0124 484E     		ldr	r6, .L18+164
 442 0126 1927     		mov	r7, #25
 443              	.LBB36:
 444              	.LBB33:
 212:.\Generated_Source\PSoC4/cyfitter_cfg.c **** 	CY_SET_REG32((void *)CYREG_PWR_BG_TRIM4, setAbs);
 445              		.loc 1 212 0
 446 0128 2060     		str	r0, [r4]
 213:.\Generated_Source\PSoC4/cyfitter_cfg.c **** 	CY_SET_REG32((void *)CYREG_PWR_BG_TRIM5, setTmpCo);
 447              		.loc 1 213 0
 448 012a 1960     		str	r1, [r3]
 449              	.LBE33:
 450              	.LBE36:
 246:.\Generated_Source\PSoC4/cyfitter_cfg.c **** 	CyDelayCycles(5u);
 451              		.loc 1 246 0
ARM GAS  C:\Users\ZHANGM~1\AppData\Local\Temp\ccNddcGJ.s 			page 19


 452 012c 0520     		mov	r0, #5
 245:.\Generated_Source\PSoC4/cyfitter_cfg.c **** 	CY_SET_REG32((void CYXDATA *)(CYREG_CLK_IMO_TRIM2), (25u));
 453              		.loc 1 245 0
 454 012e 3760     		str	r7, [r6]
 246:.\Generated_Source\PSoC4/cyfitter_cfg.c **** 	CyDelayCycles(5u);
 455              		.loc 1 246 0
 456 0130 FFF7FEFF 		bl	CyDelayCycles
 457              	.LVL29:
 247:.\Generated_Source\PSoC4/cyfitter_cfg.c **** 	CY_SET_REG32((void CYXDATA *)(CYREG_CLK_IMO_TRIM1), (CY_GET_REG8((void *)CYREG_SFLASH_IMO_TRIM21))
 458              		.loc 1 247 0
 459 0134 4548     		ldr	r0, .L18+168
 460 0136 464A     		ldr	r2, .L18+172
 461 0138 0178     		ldrb	r1, [r0]
 248:.\Generated_Source\PSoC4/cyfitter_cfg.c **** 	CyDelayUs(5u);
 462              		.loc 1 248 0
 463 013a 0520     		mov	r0, #5
 247:.\Generated_Source\PSoC4/cyfitter_cfg.c **** 	CY_SET_REG32((void CYXDATA *)(CYREG_CLK_IMO_TRIM1), (CY_GET_REG8((void *)CYREG_SFLASH_IMO_TRIM21))
 464              		.loc 1 247 0
 465 013c 1160     		str	r1, [r2]
 248:.\Generated_Source\PSoC4/cyfitter_cfg.c **** 	CyDelayUs(5u);
 466              		.loc 1 248 0
 467 013e FFF7FEFF 		bl	CyDelayUs
 468              	.LVL30:
 251:.\Generated_Source\PSoC4/cyfitter_cfg.c **** 	CY_SET_REG32((void CYXDATA *)(CYREG_CLK_SELECT), (CY_GET_REG32((void *)CYREG_CLK_SELECT) & 0xFFFBF
 469              		.loc 1 251 0
 470 0142 2C68     		ldr	r4, [r5]
 471 0144 434B     		ldr	r3, .L18+176
 254:.\Generated_Source\PSoC4/cyfitter_cfg.c **** 	CY_SET_XTND_REG32((void CYFAR *)(CYREG_CLK_SELECT02), 0x00000011u);
 472              		.loc 1 254 0
 473 0146 444F     		ldr	r7, .L18+180
 251:.\Generated_Source\PSoC4/cyfitter_cfg.c **** 	CY_SET_REG32((void CYXDATA *)(CYREG_CLK_SELECT), (CY_GET_REG32((void *)CYREG_CLK_SELECT) & 0xFFFBF
 474              		.loc 1 251 0
 475 0148 2340     		and	r3, r4
 255:.\Generated_Source\PSoC4/cyfitter_cfg.c **** 	CY_SET_XTND_REG32((void CYFAR *)(CYREG_CLK_SELECT03), 0x00000021u);
 476              		.loc 1 255 0
 477 014a 4448     		ldr	r0, .L18+184
 251:.\Generated_Source\PSoC4/cyfitter_cfg.c **** 	CY_SET_REG32((void CYXDATA *)(CYREG_CLK_SELECT), (CY_GET_REG32((void *)CYREG_CLK_SELECT) & 0xFFFBF
 478              		.loc 1 251 0
 479 014c 2B60     		str	r3, [r5]
 255:.\Generated_Source\PSoC4/cyfitter_cfg.c **** 	CY_SET_XTND_REG32((void CYFAR *)(CYREG_CLK_SELECT03), 0x00000021u);
 480              		.loc 1 255 0
 481 014e 2126     		mov	r6, #33
 254:.\Generated_Source\PSoC4/cyfitter_cfg.c **** 	CY_SET_XTND_REG32((void CYFAR *)(CYREG_CLK_SELECT02), 0x00000011u);
 482              		.loc 1 254 0
 483 0150 1125     		mov	r5, #17
 484 0152 3D60     		str	r5, [r7]
 256:.\Generated_Source\PSoC4/cyfitter_cfg.c **** 	CY_SET_XTND_REG32((void CYFAR *)(CYREG_CLK_SELECT05), 0x00000020u);
 485              		.loc 1 256 0
 486 0154 424A     		ldr	r2, .L18+188
 255:.\Generated_Source\PSoC4/cyfitter_cfg.c **** 	CY_SET_XTND_REG32((void CYFAR *)(CYREG_CLK_SELECT03), 0x00000021u);
 487              		.loc 1 255 0
 488 0156 0660     		str	r6, [r0]
 257:.\Generated_Source\PSoC4/cyfitter_cfg.c **** 	CY_SET_XTND_REG32((void CYFAR *)(CYREG_CLK_SELECT06), 0x00000010u);
 489              		.loc 1 257 0
 490 0158 424B     		ldr	r3, .L18+192
 258:.\Generated_Source\PSoC4/cyfitter_cfg.c **** 	CY_SET_XTND_REG32((void CYFAR *)(CYREG_CLK_SELECT08), 0x00000031u);
 491              		.loc 1 258 0
ARM GAS  C:\Users\ZHANGM~1\AppData\Local\Temp\ccNddcGJ.s 			page 20


 492 015a 434F     		ldr	r7, .L18+196
 259:.\Generated_Source\PSoC4/cyfitter_cfg.c **** 	CY_SET_XTND_REG32((void CYFAR *)(CYREG_CLK_SELECT09), 0x00000030u);
 493              		.loc 1 259 0
 494 015c 4348     		ldr	r0, .L18+200
 256:.\Generated_Source\PSoC4/cyfitter_cfg.c **** 	CY_SET_XTND_REG32((void CYFAR *)(CYREG_CLK_SELECT05), 0x00000020u);
 495              		.loc 1 256 0
 496 015e 2021     		mov	r1, #32
 257:.\Generated_Source\PSoC4/cyfitter_cfg.c **** 	CY_SET_XTND_REG32((void CYFAR *)(CYREG_CLK_SELECT06), 0x00000010u);
 497              		.loc 1 257 0
 498 0160 1024     		mov	r4, #16
 258:.\Generated_Source\PSoC4/cyfitter_cfg.c **** 	CY_SET_XTND_REG32((void CYFAR *)(CYREG_CLK_SELECT08), 0x00000031u);
 499              		.loc 1 258 0
 500 0162 3125     		mov	r5, #49
 259:.\Generated_Source\PSoC4/cyfitter_cfg.c **** 	CY_SET_XTND_REG32((void CYFAR *)(CYREG_CLK_SELECT09), 0x00000030u);
 501              		.loc 1 259 0
 502 0164 3026     		mov	r6, #48
 256:.\Generated_Source\PSoC4/cyfitter_cfg.c **** 	CY_SET_XTND_REG32((void CYFAR *)(CYREG_CLK_SELECT05), 0x00000020u);
 503              		.loc 1 256 0
 504 0166 1160     		str	r1, [r2]
 257:.\Generated_Source\PSoC4/cyfitter_cfg.c **** 	CY_SET_XTND_REG32((void CYFAR *)(CYREG_CLK_SELECT06), 0x00000010u);
 505              		.loc 1 257 0
 506 0168 1C60     		str	r4, [r3]
 262:.\Generated_Source\PSoC4/cyfitter_cfg.c **** 	CY_SET_XTND_REG32((void CYFAR *)(CYREG_CLK_IMO_CONFIG), 0x80000000u);
 507              		.loc 1 262 0
 508 016a 8021     		mov	r1, #128
 258:.\Generated_Source\PSoC4/cyfitter_cfg.c **** 	CY_SET_XTND_REG32((void CYFAR *)(CYREG_CLK_SELECT08), 0x00000031u);
 509              		.loc 1 258 0
 510 016c 3D60     		str	r5, [r7]
 262:.\Generated_Source\PSoC4/cyfitter_cfg.c **** 	CY_SET_XTND_REG32((void CYFAR *)(CYREG_CLK_IMO_CONFIG), 0x80000000u);
 511              		.loc 1 262 0
 512 016e 404A     		ldr	r2, .L18+204
 259:.\Generated_Source\PSoC4/cyfitter_cfg.c **** 	CY_SET_XTND_REG32((void CYFAR *)(CYREG_CLK_SELECT09), 0x00000030u);
 513              		.loc 1 259 0
 514 0170 0660     		str	r6, [r0]
 265:.\Generated_Source\PSoC4/cyfitter_cfg.c **** 	CY_SET_XTND_REG32((void CYFAR *)(CYREG_CLK_ILO_CONFIG), 0x80000000u);
 515              		.loc 1 265 0
 516 0172 404B     		ldr	r3, .L18+208
 268:.\Generated_Source\PSoC4/cyfitter_cfg.c **** 	CY_SET_XTND_REG32((void CYFAR *)(CYREG_CLK_DIVIDER_A00), 0x800000FEu);
 517              		.loc 1 268 0
 518 0174 404D     		ldr	r5, .L18+212
 519 0176 414F     		ldr	r7, .L18+216
 271:.\Generated_Source\PSoC4/cyfitter_cfg.c **** 	CY_SET_XTND_REG32((void CYFAR *)(CYREG_CLK_DIVIDER_B00), 0xC00000FEu);
 520              		.loc 1 271 0
 521 0178 414E     		ldr	r6, .L18+220
 522 017a 4248     		ldr	r0, .L18+224
 262:.\Generated_Source\PSoC4/cyfitter_cfg.c **** 	CY_SET_XTND_REG32((void CYFAR *)(CYREG_CLK_IMO_CONFIG), 0x80000000u);
 523              		.loc 1 262 0
 524 017c 0C06     		lsl	r4, r1, #24
 525 017e 1460     		str	r4, [r2]
 274:.\Generated_Source\PSoC4/cyfitter_cfg.c **** 	CY_SET_XTND_REG32((void CYFAR *)(CYREG_CLK_DIVIDER_C00), 0x80000017u);
 526              		.loc 1 274 0
 527 0180 4149     		ldr	r1, .L18+228
 265:.\Generated_Source\PSoC4/cyfitter_cfg.c **** 	CY_SET_XTND_REG32((void CYFAR *)(CYREG_CLK_ILO_CONFIG), 0x80000000u);
 528              		.loc 1 265 0
 529 0182 1C60     		str	r4, [r3]
 277:.\Generated_Source\PSoC4/cyfitter_cfg.c **** 	CY_SET_XTND_REG32((void CYFAR *)(CYREG_CLK_DIVIDER_A01), 0x800000CFu);
 530              		.loc 1 277 0
ARM GAS  C:\Users\ZHANGM~1\AppData\Local\Temp\ccNddcGJ.s 			page 21


 531 0184 414A     		ldr	r2, .L18+232
 268:.\Generated_Source\PSoC4/cyfitter_cfg.c **** 	CY_SET_XTND_REG32((void CYFAR *)(CYREG_CLK_DIVIDER_A00), 0x800000FEu);
 532              		.loc 1 268 0
 533 0186 3D60     		str	r5, [r7]
 277:.\Generated_Source\PSoC4/cyfitter_cfg.c **** 	CY_SET_XTND_REG32((void CYFAR *)(CYREG_CLK_DIVIDER_A01), 0x800000CFu);
 534              		.loc 1 277 0
 535 0188 414B     		ldr	r3, .L18+236
 271:.\Generated_Source\PSoC4/cyfitter_cfg.c **** 	CY_SET_XTND_REG32((void CYFAR *)(CYREG_CLK_DIVIDER_B00), 0xC00000FEu);
 536              		.loc 1 271 0
 537 018a 0660     		str	r6, [r0]
 280:.\Generated_Source\PSoC4/cyfitter_cfg.c **** 	CY_SET_XTND_REG32((void CYFAR *)(CYREG_CLK_DIVIDER_B01), 0x800000CFu);
 538              		.loc 1 280 0
 539 018c 414D     		ldr	r5, .L18+240
 283:.\Generated_Source\PSoC4/cyfitter_cfg.c **** 	CY_SET_XTND_REG32((void CYFAR *)(CYREG_CLK_DIVIDER_C01), 0x80005DBFu);
 540              		.loc 1 283 0
 541 018e 424F     		ldr	r7, .L18+244
 542 0190 424E     		ldr	r6, .L18+248
 274:.\Generated_Source\PSoC4/cyfitter_cfg.c **** 	CY_SET_XTND_REG32((void CYFAR *)(CYREG_CLK_DIVIDER_C00), 0x80000017u);
 543              		.loc 1 274 0
 544 0192 434C     		ldr	r4, .L18+252
 545              	.LBE38:
 546              	.LBE43:
 547              	.LBB44:
 548              	.LBB45:
 309:.\Generated_Source\PSoC4/cyfitter_cfg.c **** 	SetAnalogRoutingPumps(1);
 549              		.loc 1 309 0
 550 0194 0120     		mov	r0, #1
 551              	.LBE45:
 552              	.LBE44:
 553              	.LBB47:
 554              	.LBB39:
 274:.\Generated_Source\PSoC4/cyfitter_cfg.c **** 	CY_SET_XTND_REG32((void CYFAR *)(CYREG_CLK_DIVIDER_C00), 0x80000017u);
 555              		.loc 1 274 0
 556 0196 2160     		str	r1, [r4]
 277:.\Generated_Source\PSoC4/cyfitter_cfg.c **** 	CY_SET_XTND_REG32((void CYFAR *)(CYREG_CLK_DIVIDER_A01), 0x800000CFu);
 557              		.loc 1 277 0
 558 0198 1360     		str	r3, [r2]
 280:.\Generated_Source\PSoC4/cyfitter_cfg.c **** 	CY_SET_XTND_REG32((void CYFAR *)(CYREG_CLK_DIVIDER_B01), 0x800000CFu);
 559              		.loc 1 280 0
 560 019a 2B60     		str	r3, [r5]
 283:.\Generated_Source\PSoC4/cyfitter_cfg.c **** 	CY_SET_XTND_REG32((void CYFAR *)(CYREG_CLK_DIVIDER_C01), 0x80005DBFu);
 561              		.loc 1 283 0
 562 019c 3760     		str	r7, [r6]
 563              	.LBE39:
 564              	.LBE47:
 565              	.LBB48:
 566              	.LBB46:
 309:.\Generated_Source\PSoC4/cyfitter_cfg.c **** 	SetAnalogRoutingPumps(1);
 567              		.loc 1 309 0
 568 019e FFF7FEFF 		bl	SetAnalogRoutingPumps
 569              	.LVL31:
 570              	.LBE46:
 571              	.LBE48:
 501:.\Generated_Source\PSoC4/cyfitter_cfg.c **** 	}
 502:.\Generated_Source\PSoC4/cyfitter_cfg.c **** 
 503:.\Generated_Source\PSoC4/cyfitter_cfg.c **** 	/* Setup clocks based on selections from Clock DWR */
 504:.\Generated_Source\PSoC4/cyfitter_cfg.c **** 	ClockSetup();
ARM GAS  C:\Users\ZHANGM~1\AppData\Local\Temp\ccNddcGJ.s 			page 22


 505:.\Generated_Source\PSoC4/cyfitter_cfg.c **** 
 506:.\Generated_Source\PSoC4/cyfitter_cfg.c **** 	/* Perform basic analog initialization to defaults */
 507:.\Generated_Source\PSoC4/cyfitter_cfg.c **** 	AnalogSetDefault();
 508:.\Generated_Source\PSoC4/cyfitter_cfg.c **** 
 509:.\Generated_Source\PSoC4/cyfitter_cfg.c **** }
 572              		.loc 1 509 0
 573              		@ sp needed for prologue
 574 01a2 F8BD     		pop	{r3, r4, r5, r6, r7, pc}
 575              	.L19:
 576              		.align	2
 577              	.L18:
 578 01a4 1C700F40 		.word	1074753564
 579 01a8 00300F40 		.word	1074737152
 580 01ac 00400F40 		.word	1074741248
 581 01b0 00000000 		.word	.LANCHOR0
 582 01b4 08000140 		.word	1073807368
 583 01b8 99EE0000 		.word	61081
 584 01bc 0C000140 		.word	1073807372
 585 01c0 10000140 		.word	1073807376
 586 01c4 00000440 		.word	1074003968
 587 01c8 08000440 		.word	1074003976
 588 01cc 18000440 		.word	1074003992
 589 01d0 966C2300 		.word	2321558
 590 01d4 B66DDB00 		.word	14380470
 591 01d8 08010440 		.word	1074004232
 592 01dc 08020440 		.word	1074004488
 593 01e0 00020440 		.word	1074004480
 594 01e4 00030440 		.word	1074004736
 595 01e8 B19D0000 		.word	40369
 596 01ec 08030440 		.word	1074004744
 597 01f0 18030440 		.word	1074004760
 598 01f4 00040440 		.word	1074004992
 599 01f8 08040440 		.word	1074005000
 600 01fc 18040440 		.word	1074005016
 601 0200 00500F40 		.word	1074745344
 602 0204 10500F40 		.word	1074745360
 603 0208 04009900 		.word	10027012
 604 020c 20500F40 		.word	1074745376
 605 0210 24500F40 		.word	1074745380
 606 0214 28500F40 		.word	1074745384
 607 0218 30500F40 		.word	1074745392
 608 021c 38500F40 		.word	1074745400
 609 0220 20000040 		.word	1073741856
 610 0224 00800F40 		.word	1074757632
 611 0228 00700F40 		.word	1074753536
 612 022c 00010B40 		.word	1074462976
 613 0230 CCF1FF0F 		.word	268431820
 614 0234 CDF1FF0F 		.word	268431821
 615 0238 C9F1FF0F 		.word	268431817
 616 023c BDF1FF0F 		.word	268431805
 617 0240 20FF0B40 		.word	1074528032
 618 0244 1CFF0B40 		.word	1074528028
 619 0248 2CFF0B40 		.word	1074528044
 620 024c E5F1FF0F 		.word	268431845
 621 0250 28FF0B40 		.word	1074528040
 622 0254 FFFFFBFF 		.word	-262145
 623 0258 08020240 		.word	1073873416
ARM GAS  C:\Users\ZHANGM~1\AppData\Local\Temp\ccNddcGJ.s 			page 23


 624 025c 0C020240 		.word	1073873420
 625 0260 14020240 		.word	1073873428
 626 0264 18020240 		.word	1073873432
 627 0268 20020240 		.word	1073873440
 628 026c 24020240 		.word	1073873444
 629 0270 08010B40 		.word	1074462984
 630 0274 04010B40 		.word	1074462980
 631 0278 FE000080 		.word	-2147483394
 632 027c 00000240 		.word	1073872896
 633 0280 FE0000C0 		.word	-1073741570
 634 0284 40000240 		.word	1073872960
 635 0288 17000080 		.word	-2147483625
 636 028c 04000240 		.word	1073872900
 637 0290 CF000080 		.word	-2147483441
 638 0294 44000240 		.word	1073872964
 639 0298 BF5D0080 		.word	-2147459649
 640 029c 84000240 		.word	1073873028
 641 02a0 80000240 		.word	1073873024
 642              		.cfi_endproc
 643              	.LFE8:
 644              		.size	cyfitter_cfg, .-cyfitter_cfg
 645              		.section	.rodata
 646              		.align	2
 647              		.set	.LANCHOR0,. + 0
 648              		.type	cy_cfg_addr_table.4668, %object
 649              		.size	cy_cfg_addr_table.4668, 28
 650              	cy_cfg_addr_table.4668:
 651 0000 04320F40 		.word	1074737668
 652 0004 03330F40 		.word	1074737923
 653 0008 02400F40 		.word	1074741250
 654 000c 02410F40 		.word	1074741506
 655 0010 07420F40 		.word	1074741767
 656 0014 0A430F40 		.word	1074742026
 657 0018 02600F40 		.word	1074749442
 658              		.type	cy_cfg_data_table.4669, %object
 659              		.size	cy_cfg_data_table.4669, 60
 660              	cy_cfg_data_table.4669:
 661 001c B8       		.byte	-72
 662 001d 80       		.byte	-128
 663 001e BE       		.byte	-66
 664 001f 40       		.byte	64
 665 0020 D8       		.byte	-40
 666 0021 04       		.byte	4
 667 0022 DF       		.byte	-33
 668 0023 01       		.byte	1
 669 0024 18       		.byte	24
 670 0025 01       		.byte	1
 671 0026 8C       		.byte	-116
 672 0027 01       		.byte	1
 673 0028 EE       		.byte	-18
 674 0029 08       		.byte	8
 675 002a 6F       		.byte	111
 676 002b 20       		.byte	32
 677 002c DA       		.byte	-38
 678 002d 80       		.byte	-128
 679 002e AF       		.byte	-81
 680 002f 20       		.byte	32
ARM GAS  C:\Users\ZHANGM~1\AppData\Local\Temp\ccNddcGJ.s 			page 24


 681 0030 EE       		.byte	-18
 682 0031 10       		.byte	16
 683 0032 0F       		.byte	15
 684 0033 02       		.byte	2
 685 0034 60       		.byte	96
 686 0035 10       		.byte	16
 687 0036 6C       		.byte	108
 688 0037 40       		.byte	64
 689 0038 70       		.byte	112
 690 0039 08       		.byte	8
 691 003a C2       		.byte	-62
 692 003b 01       		.byte	1
 693 003c D8       		.byte	-40
 694 003d 02       		.byte	2
 695 003e DC       		.byte	-36
 696 003f 03       		.byte	3
 697 0040 1C       		.byte	28
 698 0041 10       		.byte	16
 699 0042 61       		.byte	97
 700 0043 02       		.byte	2
 701 0044 8C       		.byte	-116
 702 0045 48       		.byte	72
 703 0046 8D       		.byte	-115
 704 0047 02       		.byte	2
 705 0048 94       		.byte	-108
 706 0049 90       		.byte	-112
 707 004a A4       		.byte	-92
 708 004b 08       		.byte	8
 709 004c AF       		.byte	-81
 710 004d 01       		.byte	1
 711 004e C6       		.byte	-58
 712 004f 04       		.byte	4
 713 0050 D8       		.byte	-40
 714 0051 02       		.byte	2
 715 0052 E4       		.byte	-28
 716 0053 08       		.byte	8
 717 0054 02       		.byte	2
 718 0055 01       		.byte	1
 719 0056 11       		.byte	17
 720 0057 01       		.byte	1
 721              		.text
 722              	.Letext0:
 723              		.file 2 "c:\\program files\\cypress\\psoc creator\\3.0\\psoc creator\\import\\gnu_cs\\arm\\4.7.3\\
 724              		.file 3 "./Generated_Source/PSoC4/cytypes.h"
 725              		.file 4 "./Generated_Source/PSoC4/CyLib.h"