ARM GAS  C:\Users\ZHANGM~1\AppData\Local\Temp\ccWWGwEp.s 			page 1


   1              		.cpu cortex-m0
   2              		.fpu softvfp
   3              		.eabi_attribute 20, 1
   4              		.eabi_attribute 21, 1
   5              		.eabi_attribute 23, 3
   6              		.eabi_attribute 24, 1
   7              		.eabi_attribute 25, 1
   8              		.eabi_attribute 26, 1
   9              		.eabi_attribute 30, 4
  10              		.eabi_attribute 34, 0
  11              		.eabi_attribute 18, 4
  12              		.code	16
  13              		.file	"display.c"
  14              		.text
  15              	.Ltext0:
  16              		.cfi_sections	.debug_frame
  17              		.section	.text.S164_Trans_abyte,"ax",%progbits
  18              		.align	1
  19              		.global	S164_Trans_abyte
  20              		.code	16
  21              		.thumb_func
  22              		.type	S164_Trans_abyte, %function
  23              	S164_Trans_abyte:
  24              	.LFB33:
  25              		.file 1 ".\\display.c"
   1:.\display.c   **** /* ========================================
   2:.\display.c   ****  *
   3:.\display.c   ****  * Copyright YOUR COMPANY, THE YEAR
   4:.\display.c   ****  * All Rights Reserved
   5:.\display.c   ****  * UNPUBLISHED, LICENSED SOFTWARE.
   6:.\display.c   ****  *
   7:.\display.c   ****  * CONFIDENTIAL AND PROPRIETARY INFORMATION
   8:.\display.c   ****  * WHICH IS THE PROPERTY OF your company.
   9:.\display.c   ****  *
  10:.\display.c   ****  * ========================================
  11:.\display.c   **** */
  12:.\display.c   **** #define _DISPLAY_
  13:.\display.c   **** #include "config.h"
  14:.\display.c   **** extern uint16 Load_Wifi_State (uint8 Sendding_Data );
  15:.\display.c   **** 
  16:.\display.c   **** /*****************************************************************\
  17:.\display.c   ****     74hs164
  18:.\display.c   **** \*****************************************************************/
  19:.\display.c   **** void S164_Trans_abyte(unsigned long ddata)
  20:.\display.c   **** {
  26              		.loc 1 20 0
  27              		.cfi_startproc
  28              	.LVL0:
  29 0000 70B5     		push	{r4, r5, r6, lr}
  30              	.LCFI0:
  31              		.cfi_def_cfa_offset 16
  32              		.cfi_offset 4, -16
  33              		.cfi_offset 5, -12
  34              		.cfi_offset 6, -8
  35              		.cfi_offset 14, -4
  36              		.loc 1 20 0
  37 0002 051C     		mov	r5, r0
ARM GAS  C:\Users\ZHANGM~1\AppData\Local\Temp\ccWWGwEp.s 			page 2


  21:.\display.c   ****     unsigned char k;
  22:.\display.c   ****     unsigned int tm;
  23:.\display.c   ****     
  24:.\display.c   ****     tm = ddata;
  38              		.loc 1 24 0
  39 0004 1824     		mov	r4, #24
  40              	.LVL1:
  41              	.L2:
  25:.\display.c   ****     
  26:.\display.c   ****     for(k=0;k<24;k++)
  27:.\display.c   ****     {
  28:.\display.c   ****         HCLK_Write(0);
  42              		.loc 1 28 0 discriminator 2
  43 0006 0020     		mov	r0, #0
  29:.\display.c   ****         
  30:.\display.c   ****         HSDA_Write(tm & 0x01);
  44              		.loc 1 30 0 discriminator 2
  45 0008 0126     		mov	r6, #1
  28:.\display.c   ****         HCLK_Write(0);
  46              		.loc 1 28 0 discriminator 2
  47 000a FFF7FEFF 		bl	HCLK_Write
  48              	.LVL2:
  49              		.loc 1 30 0 discriminator 2
  50 000e 281C     		mov	r0, r5
  51 0010 3040     		and	r0, r6
  52 0012 FFF7FEFF 		bl	HSDA_Write
  53              	.LVL3:
  31:.\display.c   ****         
  32:.\display.c   ****         CyDelayUs(2);
  54              		.loc 1 32 0 discriminator 2
  55 0016 0220     		mov	r0, #2
  56 0018 FFF7FEFF 		bl	CyDelayUs
  57              	.LVL4:
  58 001c 013C     		sub	r4, r4, #1
  33:.\display.c   ****         
  34:.\display.c   ****         HCLK_Write(1);
  59              		.loc 1 34 0 discriminator 2
  60 001e 301C     		mov	r0, r6
  61 0020 FFF7FEFF 		bl	HCLK_Write
  62              	.LVL5:
  63 0024 E4B2     		uxtb	r4, r4
  35:.\display.c   ****         
  36:.\display.c   ****         CyDelayUs(2);
  64              		.loc 1 36 0 discriminator 2
  65 0026 0220     		mov	r0, #2
  66 0028 FFF7FEFF 		bl	CyDelayUs
  67              	.LVL6:
  37:.\display.c   ****         
  38:.\display.c   ****         tm >>= 1;
  68              		.loc 1 38 0 discriminator 2
  69 002c F540     		lsr	r5, r5, r6
  70              	.LVL7:
  26:.\display.c   ****     for(k=0;k<24;k++)
  71              		.loc 1 26 0 discriminator 2
  72 002e 002C     		cmp	r4, #0
  73 0030 E9D1     		bne	.L2
  39:.\display.c   ****     }
ARM GAS  C:\Users\ZHANGM~1\AppData\Local\Temp\ccWWGwEp.s 			page 3


  40:.\display.c   ****     return;
  41:.\display.c   **** }
  74              		.loc 1 41 0
  75              		@ sp needed for prologue
  76              	.LVL8:
  77 0032 70BD     		pop	{r4, r5, r6, pc}
  78              		.cfi_endproc
  79              	.LFE33:
  80              		.size	S164_Trans_abyte, .-S164_Trans_abyte
  81              		.section	.text.Led_Digital_Trans,"ax",%progbits
  82              		.align	1
  83              		.global	Led_Digital_Trans
  84              		.code	16
  85              		.thumb_func
  86              		.type	Led_Digital_Trans, %function
  87              	Led_Digital_Trans:
  88              	.LFB34:
  42:.\display.c   **** 
  43:.\display.c   **** 
  44:.\display.c   **** /*****************************************************************\
  45:.\display.c   **** \*****************************************************************/
  46:.\display.c   **** void Led_Digital_Trans(unsigned char dig,unsigned char dt)
  47:.\display.c   **** {
  89              		.loc 1 47 0
  90              		.cfi_startproc
  91              	.LVL9:
  92 0000 10B5     		push	{r4, lr}
  93              	.LCFI1:
  94              		.cfi_def_cfa_offset 8
  95              		.cfi_offset 4, -8
  96              		.cfi_offset 14, -4
  97 0002 0124     		mov	r4, #1
  48:.\display.c   ****     switch(dt)
  49:.\display.c   ****     {
  50:.\display.c   ****         case 0:
  51:.\display.c   ****             LedPannelBuf[DIGACON] &= ~(0x00000001 << dig);
  52:.\display.c   ****             LedPannelBuf[DIGBCON] &= ~(0x00000001 << dig);
  53:.\display.c   ****             LedPannelBuf[DIGCCON] &= ~(0x00000001 << dig);
  54:.\display.c   ****             LedPannelBuf[DIGDCON] &= ~(0x00000001 << dig);
  55:.\display.c   ****             LedPannelBuf[DIGECON] &= ~(0x00000001 << dig);
  56:.\display.c   ****             LedPannelBuf[DIGFCON] &= ~(0x00000001 << dig);
  57:.\display.c   ****             LedPannelBuf[DIGGCON] |= (0x00000001 << dig);
  58:.\display.c   ****             break;
  59:.\display.c   ****         case 1:
  60:.\display.c   ****             LedPannelBuf[DIGACON] |= (0x00000001 << dig);
  61:.\display.c   ****             LedPannelBuf[DIGBCON] &= ~(0x00000001 << dig);
  62:.\display.c   ****             LedPannelBuf[DIGCCON] &= ~(0x00000001 << dig);
  63:.\display.c   ****             LedPannelBuf[DIGDCON] |= (0x00000001 << dig);
  64:.\display.c   ****             LedPannelBuf[DIGECON] |= (0x00000001 << dig);
  65:.\display.c   ****             LedPannelBuf[DIGFCON] |= (0x00000001 << dig);
  66:.\display.c   ****             LedPannelBuf[DIGGCON] |= (0x00000001 << dig);
  67:.\display.c   ****             break;
  68:.\display.c   ****         case 2:
  69:.\display.c   ****             LedPannelBuf[DIGACON] &= ~(0x00000001 << dig);
  70:.\display.c   ****             LedPannelBuf[DIGBCON] &= ~(0x00000001 << dig);
  71:.\display.c   ****             LedPannelBuf[DIGCCON] |= (0x00000001 << dig);
  72:.\display.c   ****             LedPannelBuf[DIGDCON] &= ~(0x00000001 << dig);
ARM GAS  C:\Users\ZHANGM~1\AppData\Local\Temp\ccWWGwEp.s 			page 4


  73:.\display.c   ****             LedPannelBuf[DIGECON] &= ~(0x00000001 << dig);
  74:.\display.c   ****             LedPannelBuf[DIGFCON] |= (0x00000001 << dig);
  75:.\display.c   ****             LedPannelBuf[DIGGCON] &= ~(0x00000001 << dig);
  76:.\display.c   ****             break;
  77:.\display.c   ****         case 3:
  78:.\display.c   ****             LedPannelBuf[DIGACON] &= ~(0x00000001 << dig);
  79:.\display.c   ****             LedPannelBuf[DIGBCON] &= ~(0x00000001 << dig);
  80:.\display.c   ****             LedPannelBuf[DIGCCON] &= ~(0x00000001 << dig);
  81:.\display.c   ****             LedPannelBuf[DIGDCON] &= ~(0x00000001 << dig);
  82:.\display.c   ****             LedPannelBuf[DIGECON] |= (0x00000001 << dig);
  83:.\display.c   ****             LedPannelBuf[DIGFCON] |= (0x00000001 << dig);
  84:.\display.c   ****             LedPannelBuf[DIGGCON] &= ~(0x00000001 << dig);
  85:.\display.c   ****             break;
  86:.\display.c   ****         case 4:
  87:.\display.c   ****             LedPannelBuf[DIGACON] |= (0x00000001 << dig);
  88:.\display.c   ****             LedPannelBuf[DIGBCON] &= ~(0x00000001 << dig);
  89:.\display.c   ****             LedPannelBuf[DIGCCON] &= ~(0x00000001 << dig);
  90:.\display.c   ****             LedPannelBuf[DIGDCON] |= (0x00000001 << dig);
  91:.\display.c   ****             LedPannelBuf[DIGECON] |= (0x00000001 << dig);
  92:.\display.c   ****             LedPannelBuf[DIGFCON] &= ~(0x00000001 << dig);
  93:.\display.c   ****             LedPannelBuf[DIGGCON] &= ~(0x00000001 << dig);
  94:.\display.c   ****             break;
  95:.\display.c   ****         case 5:
  96:.\display.c   ****             LedPannelBuf[DIGACON] &= ~(0x00000001 << dig);
  97:.\display.c   ****             LedPannelBuf[DIGBCON] |= (0x00000001 << dig);
  98:.\display.c   ****             LedPannelBuf[DIGCCON] &= ~(0x00000001 << dig);
  99:.\display.c   ****             LedPannelBuf[DIGDCON] &= ~(0x00000001 << dig);
 100:.\display.c   ****             LedPannelBuf[DIGECON] |= (0x00000001 << dig);
 101:.\display.c   ****             LedPannelBuf[DIGFCON] &= ~(0x00000001 << dig);
 102:.\display.c   ****             LedPannelBuf[DIGGCON] &= ~(0x00000001 << dig);
 103:.\display.c   ****             break;
 104:.\display.c   ****         case 6:
 105:.\display.c   ****             LedPannelBuf[DIGACON] &= ~(0x00000001 << dig);
 106:.\display.c   ****             LedPannelBuf[DIGBCON] |= (0x00000001 << dig);
 107:.\display.c   ****             LedPannelBuf[DIGCCON] &= ~(0x00000001 << dig);
 108:.\display.c   ****             LedPannelBuf[DIGDCON] &= ~(0x00000001 << dig);
 109:.\display.c   ****             LedPannelBuf[DIGECON] &= ~(0x00000001 << dig);
 110:.\display.c   ****             LedPannelBuf[DIGFCON] &= ~(0x00000001 << dig);
 111:.\display.c   ****             LedPannelBuf[DIGGCON] &= ~(0x00000001 << dig);
 112:.\display.c   ****             break;
 113:.\display.c   ****         case 7:
 114:.\display.c   ****             LedPannelBuf[DIGACON] &= ~(0x00000001 << dig);
 115:.\display.c   ****             LedPannelBuf[DIGBCON] &= ~(0x00000001 << dig);
 116:.\display.c   ****             LedPannelBuf[DIGCCON] &= ~(0x00000001 << dig);
 117:.\display.c   ****             LedPannelBuf[DIGDCON] |= (0x00000001 << dig);
 118:.\display.c   ****             LedPannelBuf[DIGECON] |= (0x00000001 << dig);
 119:.\display.c   ****             LedPannelBuf[DIGFCON] |= (0x00000001 << dig);
 120:.\display.c   ****             LedPannelBuf[DIGGCON] |= (0x00000001 << dig);
 121:.\display.c   ****             break;
 122:.\display.c   ****         case 8:
 123:.\display.c   ****             LedPannelBuf[DIGACON] &= ~(0x00000001 << dig);
 124:.\display.c   ****             LedPannelBuf[DIGBCON] &= ~(0x00000001 << dig);
 125:.\display.c   ****             LedPannelBuf[DIGCCON] &= ~(0x00000001 << dig);
 126:.\display.c   ****             LedPannelBuf[DIGDCON] &= ~(0x00000001 << dig);
 127:.\display.c   ****             LedPannelBuf[DIGECON] &= ~(0x00000001 << dig);
 128:.\display.c   ****             LedPannelBuf[DIGFCON] &= ~(0x00000001 << dig);
 129:.\display.c   ****             LedPannelBuf[DIGGCON] &= ~(0x00000001 << dig);
ARM GAS  C:\Users\ZHANGM~1\AppData\Local\Temp\ccWWGwEp.s 			page 5


 130:.\display.c   ****             break;
 131:.\display.c   ****         case 9:
 132:.\display.c   ****             LedPannelBuf[DIGACON] &= ~(0x00000001 << dig);
 133:.\display.c   ****             LedPannelBuf[DIGBCON] &= ~(0x00000001 << dig);
 134:.\display.c   ****             LedPannelBuf[DIGCCON] &= ~(0x00000001 << dig);
 135:.\display.c   ****             LedPannelBuf[DIGDCON] &= ~(0x00000001 << dig);
 136:.\display.c   ****             LedPannelBuf[DIGECON] |= (0x00000001 << dig);
 137:.\display.c   ****             LedPannelBuf[DIGFCON] &= ~(0x00000001 << dig);
 138:.\display.c   ****             LedPannelBuf[DIGGCON] &= ~(0x00000001 << dig);
 139:.\display.c   ****             break;
 140:.\display.c   ****         case 14:
 141:.\display.c   ****             
 142:.\display.c   ****             LedPannelBuf[DIGACON]&= ~(0x00000001 << dig);
 143:.\display.c   ****             LedPannelBuf[DIGBCON] |= (0x00000001 << dig);
 144:.\display.c   ****             LedPannelBuf[DIGCCON] |= (0x00000001 << dig);
 145:.\display.c   ****             LedPannelBuf[DIGDCON] &= ~(0x00000001 << dig);
 146:.\display.c   ****             LedPannelBuf[DIGECON] &= ~(0x00000001 << dig);
 147:.\display.c   ****             LedPannelBuf[DIGFCON] &= ~(0x00000001 << dig);
 148:.\display.c   ****             LedPannelBuf[DIGGCON] &= ~(0x00000001 << dig);
 149:.\display.c   ****              break;
 150:.\display.c   ****            
 151:.\display.c   ****             
 152:.\display.c   ****         default:
 153:.\display.c   ****             LedPannelBuf[DIGACON] |= (0x00000001 << dig);
  98              		.loc 1 153 0
  99 0004 8440     		lsl	r4, r4, r0
 100 0006 694B     		ldr	r3, .L29
 101 0008 221C     		mov	r2, r4
  48:.\display.c   ****     switch(dt)
 102              		.loc 1 48 0
 103 000a 0E29     		cmp	r1, #14
 104 000c 00D9     		bls	.LCB69
 105 000e B6E0     		b	.L6	@long jump
 106              	.LCB69:
 107 0010 081C     		mov	r0, r1
 108              	.LVL10:
 109 0012 FFF7FEFF 		bl	__gnu_thumb1_case_uqi
 110              	.L18:
 111 0016 08       		.byte	(.L7-.L18)/2
 112 0017 1B       		.byte	(.L8-.L18)/2
 113 0018 20       		.byte	(.L9-.L18)/2
 114 0019 30       		.byte	(.L10-.L18)/2
 115 001a 43       		.byte	(.L11-.L18)/2
 116 001b 50       		.byte	(.L12-.L18)/2
 117 001c 57       		.byte	(.L13-.L18)/2
 118 001d 61       		.byte	(.L14-.L18)/2
 119 001e 77       		.byte	(.L15-.L18)/2
 120 001f 8D       		.byte	(.L16-.L18)/2
 121 0020 B4       		.byte	(.L6-.L18)/2
 122 0021 B4       		.byte	(.L6-.L18)/2
 123 0022 B4       		.byte	(.L6-.L18)/2
 124 0023 B4       		.byte	(.L6-.L18)/2
 125 0024 9D       		.byte	(.L17-.L18)/2
 126 0025 00       		.align	1
 127              	.L7:
  51:.\display.c   ****             LedPannelBuf[DIGACON] &= ~(0x00000001 << dig);
 128              		.loc 1 51 0
ARM GAS  C:\Users\ZHANGM~1\AppData\Local\Temp\ccWWGwEp.s 			page 6


 129 0026 E143     		mvn	r1, r4
 130              	.LVL11:
 131 0028 1C68     		ldr	r4, [r3]
  52:.\display.c   ****             LedPannelBuf[DIGBCON] &= ~(0x00000001 << dig);
 132              		.loc 1 52 0
 133 002a 5868     		ldr	r0, [r3, #4]
  51:.\display.c   ****             LedPannelBuf[DIGACON] &= ~(0x00000001 << dig);
 134              		.loc 1 51 0
 135 002c 0C40     		and	r4, r1
  52:.\display.c   ****             LedPannelBuf[DIGBCON] &= ~(0x00000001 << dig);
 136              		.loc 1 52 0
 137 002e 0840     		and	r0, r1
  51:.\display.c   ****             LedPannelBuf[DIGACON] &= ~(0x00000001 << dig);
 138              		.loc 1 51 0
 139 0030 1C60     		str	r4, [r3]
  53:.\display.c   ****             LedPannelBuf[DIGCCON] &= ~(0x00000001 << dig);
 140              		.loc 1 53 0
 141 0032 9C68     		ldr	r4, [r3, #8]
  52:.\display.c   ****             LedPannelBuf[DIGBCON] &= ~(0x00000001 << dig);
 142              		.loc 1 52 0
 143 0034 5860     		str	r0, [r3, #4]
  54:.\display.c   ****             LedPannelBuf[DIGDCON] &= ~(0x00000001 << dig);
 144              		.loc 1 54 0
 145 0036 D868     		ldr	r0, [r3, #12]
  53:.\display.c   ****             LedPannelBuf[DIGCCON] &= ~(0x00000001 << dig);
 146              		.loc 1 53 0
 147 0038 0C40     		and	r4, r1
  54:.\display.c   ****             LedPannelBuf[DIGDCON] &= ~(0x00000001 << dig);
 148              		.loc 1 54 0
 149 003a 0840     		and	r0, r1
  53:.\display.c   ****             LedPannelBuf[DIGCCON] &= ~(0x00000001 << dig);
 150              		.loc 1 53 0
 151 003c 9C60     		str	r4, [r3, #8]
  55:.\display.c   ****             LedPannelBuf[DIGECON] &= ~(0x00000001 << dig);
 152              		.loc 1 55 0
 153 003e 1C69     		ldr	r4, [r3, #16]
  54:.\display.c   ****             LedPannelBuf[DIGDCON] &= ~(0x00000001 << dig);
 154              		.loc 1 54 0
 155 0040 D860     		str	r0, [r3, #12]
  56:.\display.c   ****             LedPannelBuf[DIGFCON] &= ~(0x00000001 << dig);
 156              		.loc 1 56 0
 157 0042 5869     		ldr	r0, [r3, #20]
  55:.\display.c   ****             LedPannelBuf[DIGECON] &= ~(0x00000001 << dig);
 158              		.loc 1 55 0
 159 0044 0C40     		and	r4, r1
 160 0046 1C61     		str	r4, [r3, #16]
  56:.\display.c   ****             LedPannelBuf[DIGFCON] &= ~(0x00000001 << dig);
 161              		.loc 1 56 0
 162 0048 0140     		and	r1, r0
 163 004a 57E0     		b	.L27
 164              	.LVL12:
 165              	.L8:
  60:.\display.c   ****             LedPannelBuf[DIGACON] |= (0x00000001 << dig);
 166              		.loc 1 60 0
 167 004c 1968     		ldr	r1, [r3]
 168              	.LVL13:
 169 004e 2143     		orr	r1, r4
ARM GAS  C:\Users\ZHANGM~1\AppData\Local\Temp\ccWWGwEp.s 			page 7


 170 0050 1960     		str	r1, [r3]
  61:.\display.c   ****             LedPannelBuf[DIGBCON] &= ~(0x00000001 << dig);
 171              		.loc 1 61 0
 172 0052 E443     		mvn	r4, r4
 173 0054 44E0     		b	.L28
 174              	.LVL14:
 175              	.L9:
  69:.\display.c   ****             LedPannelBuf[DIGACON] &= ~(0x00000001 << dig);
 176              		.loc 1 69 0
 177 0056 E143     		mvn	r1, r4
 178              	.LVL15:
  70:.\display.c   ****             LedPannelBuf[DIGBCON] &= ~(0x00000001 << dig);
 179              		.loc 1 70 0
 180 0058 5C68     		ldr	r4, [r3, #4]
  69:.\display.c   ****             LedPannelBuf[DIGACON] &= ~(0x00000001 << dig);
 181              		.loc 1 69 0
 182 005a 1868     		ldr	r0, [r3]
  70:.\display.c   ****             LedPannelBuf[DIGBCON] &= ~(0x00000001 << dig);
 183              		.loc 1 70 0
 184 005c 0C40     		and	r4, r1
 185 005e 5C60     		str	r4, [r3, #4]
  72:.\display.c   ****             LedPannelBuf[DIGDCON] &= ~(0x00000001 << dig);
 186              		.loc 1 72 0
 187 0060 DC68     		ldr	r4, [r3, #12]
  69:.\display.c   ****             LedPannelBuf[DIGACON] &= ~(0x00000001 << dig);
 188              		.loc 1 69 0
 189 0062 0840     		and	r0, r1
  72:.\display.c   ****             LedPannelBuf[DIGDCON] &= ~(0x00000001 << dig);
 190              		.loc 1 72 0
 191 0064 0C40     		and	r4, r1
  69:.\display.c   ****             LedPannelBuf[DIGACON] &= ~(0x00000001 << dig);
 192              		.loc 1 69 0
 193 0066 1860     		str	r0, [r3]
  71:.\display.c   ****             LedPannelBuf[DIGCCON] |= (0x00000001 << dig);
 194              		.loc 1 71 0
 195 0068 9868     		ldr	r0, [r3, #8]
  72:.\display.c   ****             LedPannelBuf[DIGDCON] &= ~(0x00000001 << dig);
 196              		.loc 1 72 0
 197 006a DC60     		str	r4, [r3, #12]
  73:.\display.c   ****             LedPannelBuf[DIGECON] &= ~(0x00000001 << dig);
 198              		.loc 1 73 0
 199 006c 1C69     		ldr	r4, [r3, #16]
  71:.\display.c   ****             LedPannelBuf[DIGCCON] |= (0x00000001 << dig);
 200              		.loc 1 71 0
 201 006e 1043     		orr	r0, r2
 202 0070 9860     		str	r0, [r3, #8]
  73:.\display.c   ****             LedPannelBuf[DIGECON] &= ~(0x00000001 << dig);
 203              		.loc 1 73 0
 204 0072 0C40     		and	r4, r1
 205 0074 0EE0     		b	.L26
 206              	.LVL16:
 207              	.L10:
  78:.\display.c   ****             LedPannelBuf[DIGACON] &= ~(0x00000001 << dig);
 208              		.loc 1 78 0
 209 0076 E143     		mvn	r1, r4
 210              	.LVL17:
 211 0078 1C68     		ldr	r4, [r3]
ARM GAS  C:\Users\ZHANGM~1\AppData\Local\Temp\ccWWGwEp.s 			page 8


  79:.\display.c   ****             LedPannelBuf[DIGBCON] &= ~(0x00000001 << dig);
 212              		.loc 1 79 0
 213 007a 5868     		ldr	r0, [r3, #4]
  78:.\display.c   ****             LedPannelBuf[DIGACON] &= ~(0x00000001 << dig);
 214              		.loc 1 78 0
 215 007c 0C40     		and	r4, r1
 216 007e 1C60     		str	r4, [r3]
  80:.\display.c   ****             LedPannelBuf[DIGCCON] &= ~(0x00000001 << dig);
 217              		.loc 1 80 0
 218 0080 9C68     		ldr	r4, [r3, #8]
  79:.\display.c   ****             LedPannelBuf[DIGBCON] &= ~(0x00000001 << dig);
 219              		.loc 1 79 0
 220 0082 0840     		and	r0, r1
  80:.\display.c   ****             LedPannelBuf[DIGCCON] &= ~(0x00000001 << dig);
 221              		.loc 1 80 0
 222 0084 0C40     		and	r4, r1
  79:.\display.c   ****             LedPannelBuf[DIGBCON] &= ~(0x00000001 << dig);
 223              		.loc 1 79 0
 224 0086 5860     		str	r0, [r3, #4]
  81:.\display.c   ****             LedPannelBuf[DIGDCON] &= ~(0x00000001 << dig);
 225              		.loc 1 81 0
 226 0088 D868     		ldr	r0, [r3, #12]
  80:.\display.c   ****             LedPannelBuf[DIGCCON] &= ~(0x00000001 << dig);
 227              		.loc 1 80 0
 228 008a 9C60     		str	r4, [r3, #8]
  82:.\display.c   ****             LedPannelBuf[DIGECON] |= (0x00000001 << dig);
 229              		.loc 1 82 0
 230 008c 1C69     		ldr	r4, [r3, #16]
  81:.\display.c   ****             LedPannelBuf[DIGDCON] &= ~(0x00000001 << dig);
 231              		.loc 1 81 0
 232 008e 0840     		and	r0, r1
 233 0090 D860     		str	r0, [r3, #12]
  82:.\display.c   ****             LedPannelBuf[DIGECON] |= (0x00000001 << dig);
 234              		.loc 1 82 0
 235 0092 1443     		orr	r4, r2
 236              	.L26:
  83:.\display.c   ****             LedPannelBuf[DIGFCON] |= (0x00000001 << dig);
 237              		.loc 1 83 0
 238 0094 5869     		ldr	r0, [r3, #20]
  82:.\display.c   ****             LedPannelBuf[DIGECON] |= (0x00000001 << dig);
 239              		.loc 1 82 0
 240 0096 1C61     		str	r4, [r3, #16]
  83:.\display.c   ****             LedPannelBuf[DIGFCON] |= (0x00000001 << dig);
 241              		.loc 1 83 0
 242 0098 0243     		orr	r2, r0
 243 009a 6BE0     		b	.L23
 244              	.LVL18:
 245              	.L11:
  87:.\display.c   ****             LedPannelBuf[DIGACON] |= (0x00000001 << dig);
 246              		.loc 1 87 0
 247 009c 1968     		ldr	r1, [r3]
 248              	.LVL19:
  88:.\display.c   ****             LedPannelBuf[DIGBCON] &= ~(0x00000001 << dig);
 249              		.loc 1 88 0
 250 009e 5868     		ldr	r0, [r3, #4]
  87:.\display.c   ****             LedPannelBuf[DIGACON] |= (0x00000001 << dig);
 251              		.loc 1 87 0
ARM GAS  C:\Users\ZHANGM~1\AppData\Local\Temp\ccWWGwEp.s 			page 9


 252 00a0 2143     		orr	r1, r4
 253 00a2 1960     		str	r1, [r3]
  88:.\display.c   ****             LedPannelBuf[DIGBCON] &= ~(0x00000001 << dig);
 254              		.loc 1 88 0
 255 00a4 E143     		mvn	r1, r4
  89:.\display.c   ****             LedPannelBuf[DIGCCON] &= ~(0x00000001 << dig);
 256              		.loc 1 89 0
 257 00a6 9C68     		ldr	r4, [r3, #8]
  88:.\display.c   ****             LedPannelBuf[DIGBCON] &= ~(0x00000001 << dig);
 258              		.loc 1 88 0
 259 00a8 0840     		and	r0, r1
  89:.\display.c   ****             LedPannelBuf[DIGCCON] &= ~(0x00000001 << dig);
 260              		.loc 1 89 0
 261 00aa 0C40     		and	r4, r1
 262 00ac 9C60     		str	r4, [r3, #8]
  90:.\display.c   ****             LedPannelBuf[DIGDCON] |= (0x00000001 << dig);
 263              		.loc 1 90 0
 264 00ae DC68     		ldr	r4, [r3, #12]
  88:.\display.c   ****             LedPannelBuf[DIGBCON] &= ~(0x00000001 << dig);
 265              		.loc 1 88 0
 266 00b0 5860     		str	r0, [r3, #4]
  90:.\display.c   ****             LedPannelBuf[DIGDCON] |= (0x00000001 << dig);
 267              		.loc 1 90 0
 268 00b2 1443     		orr	r4, r2
 269 00b4 48E0     		b	.L25
 270              	.LVL20:
 271              	.L12:
  96:.\display.c   ****             LedPannelBuf[DIGACON] &= ~(0x00000001 << dig);
 272              		.loc 1 96 0
 273 00b6 E143     		mvn	r1, r4
 274              	.LVL21:
 275 00b8 1C68     		ldr	r4, [r3]
  97:.\display.c   ****             LedPannelBuf[DIGBCON] |= (0x00000001 << dig);
 276              		.loc 1 97 0
 277 00ba 5868     		ldr	r0, [r3, #4]
  96:.\display.c   ****             LedPannelBuf[DIGACON] &= ~(0x00000001 << dig);
 278              		.loc 1 96 0
 279 00bc 0C40     		and	r4, r1
 280 00be 1C60     		str	r4, [r3]
  97:.\display.c   ****             LedPannelBuf[DIGBCON] |= (0x00000001 << dig);
 281              		.loc 1 97 0
 282 00c0 1043     		orr	r0, r2
 283 00c2 3BE0     		b	.L24
 284              	.LVL22:
 285              	.L13:
 106:.\display.c   ****             LedPannelBuf[DIGBCON] |= (0x00000001 << dig);
 286              		.loc 1 106 0
 287 00c4 5868     		ldr	r0, [r3, #4]
 105:.\display.c   ****             LedPannelBuf[DIGACON] &= ~(0x00000001 << dig);
 288              		.loc 1 105 0
 289 00c6 E143     		mvn	r1, r4
 290              	.LVL23:
 106:.\display.c   ****             LedPannelBuf[DIGBCON] |= (0x00000001 << dig);
 291              		.loc 1 106 0
 292 00c8 0243     		orr	r2, r0
 105:.\display.c   ****             LedPannelBuf[DIGACON] &= ~(0x00000001 << dig);
 293              		.loc 1 105 0
ARM GAS  C:\Users\ZHANGM~1\AppData\Local\Temp\ccWWGwEp.s 			page 10


 294 00ca 1C68     		ldr	r4, [r3]
 106:.\display.c   ****             LedPannelBuf[DIGBCON] |= (0x00000001 << dig);
 295              		.loc 1 106 0
 296 00cc 5A60     		str	r2, [r3, #4]
 107:.\display.c   ****             LedPannelBuf[DIGCCON] &= ~(0x00000001 << dig);
 297              		.loc 1 107 0
 298 00ce 9A68     		ldr	r2, [r3, #8]
 105:.\display.c   ****             LedPannelBuf[DIGACON] &= ~(0x00000001 << dig);
 299              		.loc 1 105 0
 300 00d0 0C40     		and	r4, r1
 301 00d2 1C60     		str	r4, [r3]
 107:.\display.c   ****             LedPannelBuf[DIGCCON] &= ~(0x00000001 << dig);
 302              		.loc 1 107 0
 303 00d4 0A40     		and	r2, r1
 304 00d6 44E0     		b	.L22
 305              	.LVL24:
 306              	.L14:
 114:.\display.c   ****             LedPannelBuf[DIGACON] &= ~(0x00000001 << dig);
 307              		.loc 1 114 0
 308 00d8 1868     		ldr	r0, [r3]
 309 00da E443     		mvn	r4, r4
 310 00dc 2040     		and	r0, r4
 311 00de 1860     		str	r0, [r3]
 312              	.LVL25:
 313              	.L28:
 116:.\display.c   ****             LedPannelBuf[DIGCCON] &= ~(0x00000001 << dig);
 314              		.loc 1 116 0
 315 00e0 9968     		ldr	r1, [r3, #8]
 115:.\display.c   ****             LedPannelBuf[DIGBCON] &= ~(0x00000001 << dig);
 316              		.loc 1 115 0
 317 00e2 5868     		ldr	r0, [r3, #4]
 318 00e4 2040     		and	r0, r4
 116:.\display.c   ****             LedPannelBuf[DIGCCON] &= ~(0x00000001 << dig);
 319              		.loc 1 116 0
 320 00e6 0C40     		and	r4, r1
 115:.\display.c   ****             LedPannelBuf[DIGBCON] &= ~(0x00000001 << dig);
 321              		.loc 1 115 0
 322 00e8 5860     		str	r0, [r3, #4]
 116:.\display.c   ****             LedPannelBuf[DIGCCON] &= ~(0x00000001 << dig);
 323              		.loc 1 116 0
 324 00ea 9C60     		str	r4, [r3, #8]
 118:.\display.c   ****             LedPannelBuf[DIGECON] |= (0x00000001 << dig);
 325              		.loc 1 118 0
 326 00ec 1869     		ldr	r0, [r3, #16]
 117:.\display.c   ****             LedPannelBuf[DIGDCON] |= (0x00000001 << dig);
 327              		.loc 1 117 0
 328 00ee DC68     		ldr	r4, [r3, #12]
 119:.\display.c   ****             LedPannelBuf[DIGFCON] |= (0x00000001 << dig);
 329              		.loc 1 119 0
 330 00f0 5969     		ldr	r1, [r3, #20]
 117:.\display.c   ****             LedPannelBuf[DIGDCON] |= (0x00000001 << dig);
 331              		.loc 1 117 0
 332 00f2 1443     		orr	r4, r2
 118:.\display.c   ****             LedPannelBuf[DIGECON] |= (0x00000001 << dig);
 333              		.loc 1 118 0
 334 00f4 1043     		orr	r0, r2
 117:.\display.c   ****             LedPannelBuf[DIGDCON] |= (0x00000001 << dig);
ARM GAS  C:\Users\ZHANGM~1\AppData\Local\Temp\ccWWGwEp.s 			page 11


 335              		.loc 1 117 0
 336 00f6 DC60     		str	r4, [r3, #12]
 118:.\display.c   ****             LedPannelBuf[DIGECON] |= (0x00000001 << dig);
 337              		.loc 1 118 0
 338 00f8 1861     		str	r0, [r3, #16]
 119:.\display.c   ****             LedPannelBuf[DIGFCON] |= (0x00000001 << dig);
 339              		.loc 1 119 0
 340 00fa 1143     		orr	r1, r2
 341              	.L27:
 342 00fc 5961     		str	r1, [r3, #20]
 120:.\display.c   ****             LedPannelBuf[DIGGCON] |= (0x00000001 << dig);
 343              		.loc 1 120 0
 344 00fe 9969     		ldr	r1, [r3, #24]
 345 0100 0A43     		orr	r2, r1
 346 0102 50E0     		b	.L21
 347              	.LVL26:
 348              	.L15:
 123:.\display.c   ****             LedPannelBuf[DIGACON] &= ~(0x00000001 << dig);
 349              		.loc 1 123 0
 350 0104 1968     		ldr	r1, [r3]
 351              	.LVL27:
 352 0106 E243     		mvn	r2, r4
 353 0108 1140     		and	r1, r2
 124:.\display.c   ****             LedPannelBuf[DIGBCON] &= ~(0x00000001 << dig);
 354              		.loc 1 124 0
 355 010a 5C68     		ldr	r4, [r3, #4]
 125:.\display.c   ****             LedPannelBuf[DIGCCON] &= ~(0x00000001 << dig);
 356              		.loc 1 125 0
 357 010c 9868     		ldr	r0, [r3, #8]
 123:.\display.c   ****             LedPannelBuf[DIGACON] &= ~(0x00000001 << dig);
 358              		.loc 1 123 0
 359 010e 1960     		str	r1, [r3]
 126:.\display.c   ****             LedPannelBuf[DIGDCON] &= ~(0x00000001 << dig);
 360              		.loc 1 126 0
 361 0110 D968     		ldr	r1, [r3, #12]
 124:.\display.c   ****             LedPannelBuf[DIGBCON] &= ~(0x00000001 << dig);
 362              		.loc 1 124 0
 363 0112 1440     		and	r4, r2
 125:.\display.c   ****             LedPannelBuf[DIGCCON] &= ~(0x00000001 << dig);
 364              		.loc 1 125 0
 365 0114 1040     		and	r0, r2
 126:.\display.c   ****             LedPannelBuf[DIGDCON] &= ~(0x00000001 << dig);
 366              		.loc 1 126 0
 367 0116 1140     		and	r1, r2
 124:.\display.c   ****             LedPannelBuf[DIGBCON] &= ~(0x00000001 << dig);
 368              		.loc 1 124 0
 369 0118 5C60     		str	r4, [r3, #4]
 125:.\display.c   ****             LedPannelBuf[DIGCCON] &= ~(0x00000001 << dig);
 370              		.loc 1 125 0
 371 011a 9860     		str	r0, [r3, #8]
 127:.\display.c   ****             LedPannelBuf[DIGECON] &= ~(0x00000001 << dig);
 372              		.loc 1 127 0
 373 011c 1C69     		ldr	r4, [r3, #16]
 128:.\display.c   ****             LedPannelBuf[DIGFCON] &= ~(0x00000001 << dig);
 374              		.loc 1 128 0
 375 011e 5869     		ldr	r0, [r3, #20]
 126:.\display.c   ****             LedPannelBuf[DIGDCON] &= ~(0x00000001 << dig);
ARM GAS  C:\Users\ZHANGM~1\AppData\Local\Temp\ccWWGwEp.s 			page 12


 376              		.loc 1 126 0
 377 0120 D960     		str	r1, [r3, #12]
 129:.\display.c   ****             LedPannelBuf[DIGGCON] &= ~(0x00000001 << dig);
 378              		.loc 1 129 0
 379 0122 9969     		ldr	r1, [r3, #24]
 127:.\display.c   ****             LedPannelBuf[DIGECON] &= ~(0x00000001 << dig);
 380              		.loc 1 127 0
 381 0124 1440     		and	r4, r2
 128:.\display.c   ****             LedPannelBuf[DIGFCON] &= ~(0x00000001 << dig);
 382              		.loc 1 128 0
 383 0126 1040     		and	r0, r2
 127:.\display.c   ****             LedPannelBuf[DIGECON] &= ~(0x00000001 << dig);
 384              		.loc 1 127 0
 385 0128 1C61     		str	r4, [r3, #16]
 128:.\display.c   ****             LedPannelBuf[DIGFCON] &= ~(0x00000001 << dig);
 386              		.loc 1 128 0
 387 012a 5861     		str	r0, [r3, #20]
 129:.\display.c   ****             LedPannelBuf[DIGGCON] &= ~(0x00000001 << dig);
 388              		.loc 1 129 0
 389 012c 0A40     		and	r2, r1
 390 012e 3AE0     		b	.L21
 391              	.LVL28:
 392              	.L16:
 132:.\display.c   ****             LedPannelBuf[DIGACON] &= ~(0x00000001 << dig);
 393              		.loc 1 132 0
 394 0130 E143     		mvn	r1, r4
 395              	.LVL29:
 396 0132 1C68     		ldr	r4, [r3]
 133:.\display.c   ****             LedPannelBuf[DIGBCON] &= ~(0x00000001 << dig);
 397              		.loc 1 133 0
 398 0134 5868     		ldr	r0, [r3, #4]
 132:.\display.c   ****             LedPannelBuf[DIGACON] &= ~(0x00000001 << dig);
 399              		.loc 1 132 0
 400 0136 0C40     		and	r4, r1
 401 0138 1C60     		str	r4, [r3]
 133:.\display.c   ****             LedPannelBuf[DIGBCON] &= ~(0x00000001 << dig);
 402              		.loc 1 133 0
 403 013a 0840     		and	r0, r1
 404              	.L24:
 405 013c 5860     		str	r0, [r3, #4]
 134:.\display.c   ****             LedPannelBuf[DIGCCON] &= ~(0x00000001 << dig);
 406              		.loc 1 134 0
 407 013e 9868     		ldr	r0, [r3, #8]
 135:.\display.c   ****             LedPannelBuf[DIGDCON] &= ~(0x00000001 << dig);
 408              		.loc 1 135 0
 409 0140 DC68     		ldr	r4, [r3, #12]
 134:.\display.c   ****             LedPannelBuf[DIGCCON] &= ~(0x00000001 << dig);
 410              		.loc 1 134 0
 411 0142 0840     		and	r0, r1
 412 0144 9860     		str	r0, [r3, #8]
 135:.\display.c   ****             LedPannelBuf[DIGDCON] &= ~(0x00000001 << dig);
 413              		.loc 1 135 0
 414 0146 0C40     		and	r4, r1
 415              	.L25:
 136:.\display.c   ****             LedPannelBuf[DIGECON] |= (0x00000001 << dig);
 416              		.loc 1 136 0
 417 0148 1869     		ldr	r0, [r3, #16]
ARM GAS  C:\Users\ZHANGM~1\AppData\Local\Temp\ccWWGwEp.s 			page 13


 135:.\display.c   ****             LedPannelBuf[DIGDCON] &= ~(0x00000001 << dig);
 418              		.loc 1 135 0
 419 014a DC60     		str	r4, [r3, #12]
 136:.\display.c   ****             LedPannelBuf[DIGECON] |= (0x00000001 << dig);
 420              		.loc 1 136 0
 421 014c 0243     		orr	r2, r0
 422 014e 0EE0     		b	.L20
 423              	.LVL30:
 424              	.L17:
 142:.\display.c   ****             LedPannelBuf[DIGACON]&= ~(0x00000001 << dig);
 425              		.loc 1 142 0
 426 0150 1868     		ldr	r0, [r3]
 427 0152 E143     		mvn	r1, r4
 428              	.LVL31:
 429 0154 0840     		and	r0, r1
 143:.\display.c   ****             LedPannelBuf[DIGBCON] |= (0x00000001 << dig);
 430              		.loc 1 143 0
 431 0156 5C68     		ldr	r4, [r3, #4]
 142:.\display.c   ****             LedPannelBuf[DIGACON]&= ~(0x00000001 << dig);
 432              		.loc 1 142 0
 433 0158 1860     		str	r0, [r3]
 144:.\display.c   ****             LedPannelBuf[DIGCCON] |= (0x00000001 << dig);
 434              		.loc 1 144 0
 435 015a 9868     		ldr	r0, [r3, #8]
 143:.\display.c   ****             LedPannelBuf[DIGBCON] |= (0x00000001 << dig);
 436              		.loc 1 143 0
 437 015c 1443     		orr	r4, r2
 438 015e 5C60     		str	r4, [r3, #4]
 144:.\display.c   ****             LedPannelBuf[DIGCCON] |= (0x00000001 << dig);
 439              		.loc 1 144 0
 440 0160 0243     		orr	r2, r0
 441              	.L22:
 442 0162 9A60     		str	r2, [r3, #8]
 145:.\display.c   ****             LedPannelBuf[DIGDCON] &= ~(0x00000001 << dig);
 443              		.loc 1 145 0
 444 0164 DA68     		ldr	r2, [r3, #12]
 445 0166 0A40     		and	r2, r1
 446 0168 DA60     		str	r2, [r3, #12]
 146:.\display.c   ****             LedPannelBuf[DIGECON] &= ~(0x00000001 << dig);
 447              		.loc 1 146 0
 448 016a 1A69     		ldr	r2, [r3, #16]
 449 016c 0A40     		and	r2, r1
 450              	.L20:
 451 016e 1A61     		str	r2, [r3, #16]
 147:.\display.c   ****             LedPannelBuf[DIGFCON] &= ~(0x00000001 << dig);
 452              		.loc 1 147 0
 453 0170 5A69     		ldr	r2, [r3, #20]
 454 0172 0A40     		and	r2, r1
 455              	.L23:
 456 0174 5A61     		str	r2, [r3, #20]
 148:.\display.c   ****             LedPannelBuf[DIGGCON] &= ~(0x00000001 << dig);
 457              		.loc 1 148 0
 458 0176 9A69     		ldr	r2, [r3, #24]
 459 0178 1140     		and	r1, r2
 460 017a 9961     		str	r1, [r3, #24]
 149:.\display.c   ****              break;
 461              		.loc 1 149 0
ARM GAS  C:\Users\ZHANGM~1\AppData\Local\Temp\ccWWGwEp.s 			page 14


 462 017c 14E0     		b	.L5
 463              	.LVL32:
 464              	.L6:
 465              		.loc 1 153 0
 466 017e 1C68     		ldr	r4, [r3]
 154:.\display.c   ****             LedPannelBuf[DIGBCON] |= (0x00000001 << dig);
 467              		.loc 1 154 0
 468 0180 5868     		ldr	r0, [r3, #4]
 153:.\display.c   ****             LedPannelBuf[DIGACON] |= (0x00000001 << dig);
 469              		.loc 1 153 0
 470 0182 1443     		orr	r4, r2
 155:.\display.c   ****             LedPannelBuf[DIGCCON] |= (0x00000001 << dig);
 471              		.loc 1 155 0
 472 0184 9968     		ldr	r1, [r3, #8]
 473              	.LVL33:
 153:.\display.c   ****             LedPannelBuf[DIGACON] |= (0x00000001 << dig);
 474              		.loc 1 153 0
 475 0186 1C60     		str	r4, [r3]
 156:.\display.c   ****             LedPannelBuf[DIGDCON] |= (0x00000001 << dig);
 476              		.loc 1 156 0
 477 0188 DC68     		ldr	r4, [r3, #12]
 154:.\display.c   ****             LedPannelBuf[DIGBCON] |= (0x00000001 << dig);
 478              		.loc 1 154 0
 479 018a 1043     		orr	r0, r2
 155:.\display.c   ****             LedPannelBuf[DIGCCON] |= (0x00000001 << dig);
 480              		.loc 1 155 0
 481 018c 1143     		orr	r1, r2
 482              		.loc 1 156 0
 483 018e 1443     		orr	r4, r2
 154:.\display.c   ****             LedPannelBuf[DIGBCON] |= (0x00000001 << dig);
 484              		.loc 1 154 0
 485 0190 5860     		str	r0, [r3, #4]
 155:.\display.c   ****             LedPannelBuf[DIGCCON] |= (0x00000001 << dig);
 486              		.loc 1 155 0
 487 0192 9960     		str	r1, [r3, #8]
 157:.\display.c   ****             LedPannelBuf[DIGECON] |= (0x00000001 << dig);
 488              		.loc 1 157 0
 489 0194 1869     		ldr	r0, [r3, #16]
 158:.\display.c   ****             LedPannelBuf[DIGFCON] |= (0x00000001 << dig);
 490              		.loc 1 158 0
 491 0196 5969     		ldr	r1, [r3, #20]
 156:.\display.c   ****             LedPannelBuf[DIGDCON] |= (0x00000001 << dig);
 492              		.loc 1 156 0
 493 0198 DC60     		str	r4, [r3, #12]
 159:.\display.c   ****             LedPannelBuf[DIGGCON] |= (0x00000001 << dig);
 494              		.loc 1 159 0
 495 019a 9C69     		ldr	r4, [r3, #24]
 157:.\display.c   ****             LedPannelBuf[DIGECON] |= (0x00000001 << dig);
 496              		.loc 1 157 0
 497 019c 1043     		orr	r0, r2
 158:.\display.c   ****             LedPannelBuf[DIGFCON] |= (0x00000001 << dig);
 498              		.loc 1 158 0
 499 019e 1143     		orr	r1, r2
 157:.\display.c   ****             LedPannelBuf[DIGECON] |= (0x00000001 << dig);
 500              		.loc 1 157 0
 501 01a0 1861     		str	r0, [r3, #16]
 158:.\display.c   ****             LedPannelBuf[DIGFCON] |= (0x00000001 << dig);
ARM GAS  C:\Users\ZHANGM~1\AppData\Local\Temp\ccWWGwEp.s 			page 15


 502              		.loc 1 158 0
 503 01a2 5961     		str	r1, [r3, #20]
 504              		.loc 1 159 0
 505 01a4 2243     		orr	r2, r4
 506              	.L21:
 507 01a6 9A61     		str	r2, [r3, #24]
 508              	.L5:
 160:.\display.c   ****             break;
 161:.\display.c   ****     }
 162:.\display.c   **** }
 509              		.loc 1 162 0
 510              		@ sp needed for prologue
 511 01a8 10BD     		pop	{r4, pc}
 512              	.L30:
 513 01aa C046     		.align	2
 514              	.L29:
 515 01ac 00000000 		.word	LedPannelBuf
 516              		.cfi_endproc
 517              	.LFE34:
 518              		.size	Led_Digital_Trans, .-Led_Digital_Trans
 519              		.section	.text.yanshi_Digital_Trans,"ax",%progbits
 520              		.align	1
 521              		.global	yanshi_Digital_Trans
 522              		.code	16
 523              		.thumb_func
 524              		.type	yanshi_Digital_Trans, %function
 525              	yanshi_Digital_Trans:
 526              	.LFB35:
 163:.\display.c   **** /*****************************************************************\
 164:.\display.c   ****        yanshidisplay
 165:.\display.c   **** \*****************************************************************/
 166:.\display.c   **** void yanshi_Digital_Trans(unsigned char dig,unsigned char dt)
 167:.\display.c   **** {
 527              		.loc 1 167 0
 528              		.cfi_startproc
 529              	.LVL34:
 530 0000 10B5     		push	{r4, lr}
 531              	.LCFI2:
 532              		.cfi_def_cfa_offset 8
 533              		.cfi_offset 4, -8
 534              		.cfi_offset 14, -4
 535 0002 0124     		mov	r4, #1
 168:.\display.c   ****     switch(dt)
 169:.\display.c   ****     {
 170:.\display.c   ****         case 0:
 171:.\display.c   ****             temp[DIGACON] &= ~(0x00000001 << dig);
 172:.\display.c   ****             temp[DIGBCON] &= ~(0x00000001 << dig);
 173:.\display.c   ****             temp[DIGCCON] &= ~(0x00000001 << dig);
 174:.\display.c   ****             temp[DIGDCON] &= ~(0x00000001 << dig);
 175:.\display.c   ****             temp[DIGECON] &= ~(0x00000001 << dig);
 176:.\display.c   ****             temp[DIGFCON] &= ~(0x00000001 << dig);
 177:.\display.c   ****             temp[DIGGCON] |= (0x00000001 << dig);
 178:.\display.c   ****             break;
 179:.\display.c   ****         case 1:
 180:.\display.c   ****             temp[DIGACON] |= (0x00000001 << dig);
 181:.\display.c   ****             temp[DIGBCON] &= ~(0x00000001 << dig);
 182:.\display.c   ****             temp[DIGCCON] &= ~(0x00000001 << dig);
ARM GAS  C:\Users\ZHANGM~1\AppData\Local\Temp\ccWWGwEp.s 			page 16


 183:.\display.c   ****             temp[DIGDCON] |= (0x00000001 << dig);
 184:.\display.c   ****             temp[DIGECON] |= (0x00000001 << dig);
 185:.\display.c   ****             temp[DIGFCON] |= (0x00000001 << dig);
 186:.\display.c   ****             temp[DIGGCON] |= (0x00000001 << dig);
 187:.\display.c   ****             break;
 188:.\display.c   ****         case 2:
 189:.\display.c   ****             temp[DIGACON] &= ~(0x00000001 << dig);
 190:.\display.c   ****             temp[DIGBCON] &= ~(0x00000001 << dig);
 191:.\display.c   ****             temp[DIGCCON] |= (0x00000001 << dig);
 192:.\display.c   ****             temp[DIGDCON] &= ~(0x00000001 << dig);
 193:.\display.c   ****             temp[DIGECON] &= ~(0x00000001 << dig);
 194:.\display.c   ****             temp[DIGFCON] |= (0x00000001 << dig);
 195:.\display.c   ****             temp[DIGGCON] &= ~(0x00000001 << dig);
 196:.\display.c   ****             break;
 197:.\display.c   ****         case 3:
 198:.\display.c   ****             temp[DIGACON] &= ~(0x00000001 << dig);
 199:.\display.c   ****             temp[DIGBCON] &= ~(0x00000001 << dig);
 200:.\display.c   ****             temp[DIGCCON] &= ~(0x00000001 << dig);
 201:.\display.c   ****             temp[DIGDCON] &= ~(0x00000001 << dig);
 202:.\display.c   ****             temp[DIGECON] |= (0x00000001 << dig);
 203:.\display.c   ****             temp[DIGFCON] |= (0x00000001 << dig);
 204:.\display.c   ****             temp[DIGGCON] &= ~(0x00000001 << dig);
 205:.\display.c   ****             break;
 206:.\display.c   ****         case 4:
 207:.\display.c   ****             temp[DIGACON] |= (0x00000001 << dig);
 208:.\display.c   ****             temp[DIGBCON] &= ~(0x00000001 << dig);
 209:.\display.c   ****             temp[DIGCCON] &= ~(0x00000001 << dig);
 210:.\display.c   ****             temp[DIGDCON] |= (0x00000001 << dig);
 211:.\display.c   ****             temp[DIGECON] |= (0x00000001 << dig);
 212:.\display.c   ****             temp[DIGFCON] &= ~(0x00000001 << dig);
 213:.\display.c   ****             temp[DIGGCON] &= ~(0x00000001 << dig);
 214:.\display.c   ****             break;
 215:.\display.c   ****         case 5:
 216:.\display.c   ****             temp[DIGACON] &= ~(0x00000001 << dig);
 217:.\display.c   ****             temp[DIGBCON] |= (0x00000001 << dig);
 218:.\display.c   ****             temp[DIGCCON] &= ~(0x00000001 << dig);
 219:.\display.c   ****             temp[DIGDCON] &= ~(0x00000001 << dig);
 220:.\display.c   ****             temp[DIGECON] |= (0x00000001 << dig);
 221:.\display.c   ****             temp[DIGFCON] &= ~(0x00000001 << dig);
 222:.\display.c   ****             temp[DIGGCON] &= ~(0x00000001 << dig);
 223:.\display.c   ****             break;
 224:.\display.c   ****         case 6:
 225:.\display.c   ****             temp[DIGACON] &= ~(0x00000001 << dig);
 226:.\display.c   ****             temp[DIGBCON] |= (0x00000001 << dig);
 227:.\display.c   ****             temp[DIGCCON] &= ~(0x00000001 << dig);
 228:.\display.c   ****             temp[DIGDCON] &= ~(0x00000001 << dig);
 229:.\display.c   ****             temp[DIGECON] &= ~(0x00000001 << dig);
 230:.\display.c   ****             temp[DIGFCON] &= ~(0x00000001 << dig);
 231:.\display.c   ****             temp[DIGGCON] &= ~(0x00000001 << dig);
 232:.\display.c   ****             break;
 233:.\display.c   ****         case 7:
 234:.\display.c   ****             temp[DIGACON] &= ~(0x00000001 << dig);
 235:.\display.c   ****             temp[DIGBCON] &= ~(0x00000001 << dig);
 236:.\display.c   ****             temp[DIGCCON] &= ~(0x00000001 << dig);
 237:.\display.c   ****             temp[DIGDCON] |= (0x00000001 << dig);
 238:.\display.c   ****             temp[DIGECON] |= (0x00000001 << dig);
 239:.\display.c   ****             temp[DIGFCON] |= (0x00000001 << dig);
ARM GAS  C:\Users\ZHANGM~1\AppData\Local\Temp\ccWWGwEp.s 			page 17


 240:.\display.c   ****             temp[DIGGCON] |= (0x00000001 << dig);
 241:.\display.c   ****             break;
 242:.\display.c   ****         case 8:
 243:.\display.c   ****             temp[DIGACON] &= ~(0x00000001 << dig);
 244:.\display.c   ****             temp[DIGBCON] &= ~(0x00000001 << dig);
 245:.\display.c   ****             temp[DIGCCON] &= ~(0x00000001 << dig);
 246:.\display.c   ****             temp[DIGDCON] &= ~(0x00000001 << dig);
 247:.\display.c   ****             temp[DIGECON] &= ~(0x00000001 << dig);
 248:.\display.c   ****             temp[DIGFCON] &= ~(0x00000001 << dig);
 249:.\display.c   ****             temp[DIGGCON] &= ~(0x00000001 << dig);
 250:.\display.c   ****             break;
 251:.\display.c   ****         case 9:
 252:.\display.c   ****             temp[DIGACON] &= ~(0x00000001 << dig);
 253:.\display.c   ****             temp[DIGBCON] &= ~(0x00000001 << dig);
 254:.\display.c   ****             temp[DIGCCON] &= ~(0x00000001 << dig);
 255:.\display.c   ****             temp[DIGDCON] &= ~(0x00000001 << dig);
 256:.\display.c   ****             temp[DIGECON] |= (0x00000001 << dig);
 257:.\display.c   ****             temp[DIGFCON] &= ~(0x00000001 << dig);
 258:.\display.c   ****             temp[DIGGCON] &= ~(0x00000001 << dig);
 259:.\display.c   ****             break;
 260:.\display.c   ****         case 14:
 261:.\display.c   ****             
 262:.\display.c   ****             temp[DIGACON]&= ~(0x00000001 << dig);
 263:.\display.c   ****             temp[DIGBCON] |= (0x00000001 << dig);
 264:.\display.c   ****             temp[DIGCCON] |= (0x00000001 << dig);
 265:.\display.c   ****             temp[DIGDCON] &= ~(0x00000001 << dig);
 266:.\display.c   ****             temp[DIGECON] &= ~(0x00000001 << dig);
 267:.\display.c   ****             temp[DIGFCON] &= ~(0x00000001 << dig);
 268:.\display.c   ****             temp[DIGGCON] &= ~(0x00000001 << dig);
 269:.\display.c   ****              break;
 270:.\display.c   ****             
 271:.\display.c   ****             
 272:.\display.c   ****         default:
 273:.\display.c   ****             temp[DIGACON] |= (0x00000001 << dig);
 536              		.loc 1 273 0
 537 0004 8440     		lsl	r4, r4, r0
 538 0006 694B     		ldr	r3, .L55
 539 0008 221C     		mov	r2, r4
 168:.\display.c   ****     switch(dt)
 540              		.loc 1 168 0
 541 000a 0E29     		cmp	r1, #14
 542 000c 00D9     		bls	.LCB435
 543 000e B6E0     		b	.L32	@long jump
 544              	.LCB435:
 545 0010 081C     		mov	r0, r1
 546              	.LVL35:
 547 0012 FFF7FEFF 		bl	__gnu_thumb1_case_uqi
 548              	.L44:
 549 0016 08       		.byte	(.L33-.L44)/2
 550 0017 1B       		.byte	(.L34-.L44)/2
 551 0018 20       		.byte	(.L35-.L44)/2
 552 0019 30       		.byte	(.L36-.L44)/2
 553 001a 43       		.byte	(.L37-.L44)/2
 554 001b 50       		.byte	(.L38-.L44)/2
 555 001c 57       		.byte	(.L39-.L44)/2
 556 001d 61       		.byte	(.L40-.L44)/2
 557 001e 77       		.byte	(.L41-.L44)/2
ARM GAS  C:\Users\ZHANGM~1\AppData\Local\Temp\ccWWGwEp.s 			page 18


 558 001f 8D       		.byte	(.L42-.L44)/2
 559 0020 B4       		.byte	(.L32-.L44)/2
 560 0021 B4       		.byte	(.L32-.L44)/2
 561 0022 B4       		.byte	(.L32-.L44)/2
 562 0023 B4       		.byte	(.L32-.L44)/2
 563 0024 9D       		.byte	(.L43-.L44)/2
 564 0025 00       		.align	1
 565              	.L33:
 171:.\display.c   ****             temp[DIGACON] &= ~(0x00000001 << dig);
 566              		.loc 1 171 0
 567 0026 E143     		mvn	r1, r4
 568              	.LVL36:
 569 0028 1C68     		ldr	r4, [r3]
 172:.\display.c   ****             temp[DIGBCON] &= ~(0x00000001 << dig);
 570              		.loc 1 172 0
 571 002a 5868     		ldr	r0, [r3, #4]
 171:.\display.c   ****             temp[DIGACON] &= ~(0x00000001 << dig);
 572              		.loc 1 171 0
 573 002c 0C40     		and	r4, r1
 172:.\display.c   ****             temp[DIGBCON] &= ~(0x00000001 << dig);
 574              		.loc 1 172 0
 575 002e 0840     		and	r0, r1
 171:.\display.c   ****             temp[DIGACON] &= ~(0x00000001 << dig);
 576              		.loc 1 171 0
 577 0030 1C60     		str	r4, [r3]
 173:.\display.c   ****             temp[DIGCCON] &= ~(0x00000001 << dig);
 578              		.loc 1 173 0
 579 0032 9C68     		ldr	r4, [r3, #8]
 172:.\display.c   ****             temp[DIGBCON] &= ~(0x00000001 << dig);
 580              		.loc 1 172 0
 581 0034 5860     		str	r0, [r3, #4]
 174:.\display.c   ****             temp[DIGDCON] &= ~(0x00000001 << dig);
 582              		.loc 1 174 0
 583 0036 D868     		ldr	r0, [r3, #12]
 173:.\display.c   ****             temp[DIGCCON] &= ~(0x00000001 << dig);
 584              		.loc 1 173 0
 585 0038 0C40     		and	r4, r1
 174:.\display.c   ****             temp[DIGDCON] &= ~(0x00000001 << dig);
 586              		.loc 1 174 0
 587 003a 0840     		and	r0, r1
 173:.\display.c   ****             temp[DIGCCON] &= ~(0x00000001 << dig);
 588              		.loc 1 173 0
 589 003c 9C60     		str	r4, [r3, #8]
 175:.\display.c   ****             temp[DIGECON] &= ~(0x00000001 << dig);
 590              		.loc 1 175 0
 591 003e 1C69     		ldr	r4, [r3, #16]
 174:.\display.c   ****             temp[DIGDCON] &= ~(0x00000001 << dig);
 592              		.loc 1 174 0
 593 0040 D860     		str	r0, [r3, #12]
 176:.\display.c   ****             temp[DIGFCON] &= ~(0x00000001 << dig);
 594              		.loc 1 176 0
 595 0042 5869     		ldr	r0, [r3, #20]
 175:.\display.c   ****             temp[DIGECON] &= ~(0x00000001 << dig);
 596              		.loc 1 175 0
 597 0044 0C40     		and	r4, r1
 598 0046 1C61     		str	r4, [r3, #16]
 176:.\display.c   ****             temp[DIGFCON] &= ~(0x00000001 << dig);
ARM GAS  C:\Users\ZHANGM~1\AppData\Local\Temp\ccWWGwEp.s 			page 19


 599              		.loc 1 176 0
 600 0048 0140     		and	r1, r0
 601 004a 57E0     		b	.L53
 602              	.LVL37:
 603              	.L34:
 180:.\display.c   ****             temp[DIGACON] |= (0x00000001 << dig);
 604              		.loc 1 180 0
 605 004c 1968     		ldr	r1, [r3]
 606              	.LVL38:
 607 004e 2143     		orr	r1, r4
 608 0050 1960     		str	r1, [r3]
 181:.\display.c   ****             temp[DIGBCON] &= ~(0x00000001 << dig);
 609              		.loc 1 181 0
 610 0052 E443     		mvn	r4, r4
 611 0054 44E0     		b	.L54
 612              	.LVL39:
 613              	.L35:
 189:.\display.c   ****             temp[DIGACON] &= ~(0x00000001 << dig);
 614              		.loc 1 189 0
 615 0056 E143     		mvn	r1, r4
 616              	.LVL40:
 190:.\display.c   ****             temp[DIGBCON] &= ~(0x00000001 << dig);
 617              		.loc 1 190 0
 618 0058 5C68     		ldr	r4, [r3, #4]
 189:.\display.c   ****             temp[DIGACON] &= ~(0x00000001 << dig);
 619              		.loc 1 189 0
 620 005a 1868     		ldr	r0, [r3]
 190:.\display.c   ****             temp[DIGBCON] &= ~(0x00000001 << dig);
 621              		.loc 1 190 0
 622 005c 0C40     		and	r4, r1
 623 005e 5C60     		str	r4, [r3, #4]
 192:.\display.c   ****             temp[DIGDCON] &= ~(0x00000001 << dig);
 624              		.loc 1 192 0
 625 0060 DC68     		ldr	r4, [r3, #12]
 189:.\display.c   ****             temp[DIGACON] &= ~(0x00000001 << dig);
 626              		.loc 1 189 0
 627 0062 0840     		and	r0, r1
 192:.\display.c   ****             temp[DIGDCON] &= ~(0x00000001 << dig);
 628              		.loc 1 192 0
 629 0064 0C40     		and	r4, r1
 189:.\display.c   ****             temp[DIGACON] &= ~(0x00000001 << dig);
 630              		.loc 1 189 0
 631 0066 1860     		str	r0, [r3]
 191:.\display.c   ****             temp[DIGCCON] |= (0x00000001 << dig);
 632              		.loc 1 191 0
 633 0068 9868     		ldr	r0, [r3, #8]
 192:.\display.c   ****             temp[DIGDCON] &= ~(0x00000001 << dig);
 634              		.loc 1 192 0
 635 006a DC60     		str	r4, [r3, #12]
 193:.\display.c   ****             temp[DIGECON] &= ~(0x00000001 << dig);
 636              		.loc 1 193 0
 637 006c 1C69     		ldr	r4, [r3, #16]
 191:.\display.c   ****             temp[DIGCCON] |= (0x00000001 << dig);
 638              		.loc 1 191 0
 639 006e 1043     		orr	r0, r2
 640 0070 9860     		str	r0, [r3, #8]
 193:.\display.c   ****             temp[DIGECON] &= ~(0x00000001 << dig);
ARM GAS  C:\Users\ZHANGM~1\AppData\Local\Temp\ccWWGwEp.s 			page 20


 641              		.loc 1 193 0
 642 0072 0C40     		and	r4, r1
 643 0074 0EE0     		b	.L52
 644              	.LVL41:
 645              	.L36:
 198:.\display.c   ****             temp[DIGACON] &= ~(0x00000001 << dig);
 646              		.loc 1 198 0
 647 0076 E143     		mvn	r1, r4
 648              	.LVL42:
 649 0078 1C68     		ldr	r4, [r3]
 199:.\display.c   ****             temp[DIGBCON] &= ~(0x00000001 << dig);
 650              		.loc 1 199 0
 651 007a 5868     		ldr	r0, [r3, #4]
 198:.\display.c   ****             temp[DIGACON] &= ~(0x00000001 << dig);
 652              		.loc 1 198 0
 653 007c 0C40     		and	r4, r1
 654 007e 1C60     		str	r4, [r3]
 200:.\display.c   ****             temp[DIGCCON] &= ~(0x00000001 << dig);
 655              		.loc 1 200 0
 656 0080 9C68     		ldr	r4, [r3, #8]
 199:.\display.c   ****             temp[DIGBCON] &= ~(0x00000001 << dig);
 657              		.loc 1 199 0
 658 0082 0840     		and	r0, r1
 200:.\display.c   ****             temp[DIGCCON] &= ~(0x00000001 << dig);
 659              		.loc 1 200 0
 660 0084 0C40     		and	r4, r1
 199:.\display.c   ****             temp[DIGBCON] &= ~(0x00000001 << dig);
 661              		.loc 1 199 0
 662 0086 5860     		str	r0, [r3, #4]
 201:.\display.c   ****             temp[DIGDCON] &= ~(0x00000001 << dig);
 663              		.loc 1 201 0
 664 0088 D868     		ldr	r0, [r3, #12]
 200:.\display.c   ****             temp[DIGCCON] &= ~(0x00000001 << dig);
 665              		.loc 1 200 0
 666 008a 9C60     		str	r4, [r3, #8]
 202:.\display.c   ****             temp[DIGECON] |= (0x00000001 << dig);
 667              		.loc 1 202 0
 668 008c 1C69     		ldr	r4, [r3, #16]
 201:.\display.c   ****             temp[DIGDCON] &= ~(0x00000001 << dig);
 669              		.loc 1 201 0
 670 008e 0840     		and	r0, r1
 671 0090 D860     		str	r0, [r3, #12]
 202:.\display.c   ****             temp[DIGECON] |= (0x00000001 << dig);
 672              		.loc 1 202 0
 673 0092 1443     		orr	r4, r2
 674              	.L52:
 203:.\display.c   ****             temp[DIGFCON] |= (0x00000001 << dig);
 675              		.loc 1 203 0
 676 0094 5869     		ldr	r0, [r3, #20]
 202:.\display.c   ****             temp[DIGECON] |= (0x00000001 << dig);
 677              		.loc 1 202 0
 678 0096 1C61     		str	r4, [r3, #16]
 203:.\display.c   ****             temp[DIGFCON] |= (0x00000001 << dig);
 679              		.loc 1 203 0
 680 0098 0243     		orr	r2, r0
 681 009a 6BE0     		b	.L49
 682              	.LVL43:
ARM GAS  C:\Users\ZHANGM~1\AppData\Local\Temp\ccWWGwEp.s 			page 21


 683              	.L37:
 207:.\display.c   ****             temp[DIGACON] |= (0x00000001 << dig);
 684              		.loc 1 207 0
 685 009c 1968     		ldr	r1, [r3]
 686              	.LVL44:
 208:.\display.c   ****             temp[DIGBCON] &= ~(0x00000001 << dig);
 687              		.loc 1 208 0
 688 009e 5868     		ldr	r0, [r3, #4]
 207:.\display.c   ****             temp[DIGACON] |= (0x00000001 << dig);
 689              		.loc 1 207 0
 690 00a0 2143     		orr	r1, r4
 691 00a2 1960     		str	r1, [r3]
 208:.\display.c   ****             temp[DIGBCON] &= ~(0x00000001 << dig);
 692              		.loc 1 208 0
 693 00a4 E143     		mvn	r1, r4
 209:.\display.c   ****             temp[DIGCCON] &= ~(0x00000001 << dig);
 694              		.loc 1 209 0
 695 00a6 9C68     		ldr	r4, [r3, #8]
 208:.\display.c   ****             temp[DIGBCON] &= ~(0x00000001 << dig);
 696              		.loc 1 208 0
 697 00a8 0840     		and	r0, r1
 209:.\display.c   ****             temp[DIGCCON] &= ~(0x00000001 << dig);
 698              		.loc 1 209 0
 699 00aa 0C40     		and	r4, r1
 700 00ac 9C60     		str	r4, [r3, #8]
 210:.\display.c   ****             temp[DIGDCON] |= (0x00000001 << dig);
 701              		.loc 1 210 0
 702 00ae DC68     		ldr	r4, [r3, #12]
 208:.\display.c   ****             temp[DIGBCON] &= ~(0x00000001 << dig);
 703              		.loc 1 208 0
 704 00b0 5860     		str	r0, [r3, #4]
 210:.\display.c   ****             temp[DIGDCON] |= (0x00000001 << dig);
 705              		.loc 1 210 0
 706 00b2 1443     		orr	r4, r2
 707 00b4 48E0     		b	.L51
 708              	.LVL45:
 709              	.L38:
 216:.\display.c   ****             temp[DIGACON] &= ~(0x00000001 << dig);
 710              		.loc 1 216 0
 711 00b6 E143     		mvn	r1, r4
 712              	.LVL46:
 713 00b8 1C68     		ldr	r4, [r3]
 217:.\display.c   ****             temp[DIGBCON] |= (0x00000001 << dig);
 714              		.loc 1 217 0
 715 00ba 5868     		ldr	r0, [r3, #4]
 216:.\display.c   ****             temp[DIGACON] &= ~(0x00000001 << dig);
 716              		.loc 1 216 0
 717 00bc 0C40     		and	r4, r1
 718 00be 1C60     		str	r4, [r3]
 217:.\display.c   ****             temp[DIGBCON] |= (0x00000001 << dig);
 719              		.loc 1 217 0
 720 00c0 1043     		orr	r0, r2
 721 00c2 3BE0     		b	.L50
 722              	.LVL47:
 723              	.L39:
 226:.\display.c   ****             temp[DIGBCON] |= (0x00000001 << dig);
 724              		.loc 1 226 0
ARM GAS  C:\Users\ZHANGM~1\AppData\Local\Temp\ccWWGwEp.s 			page 22


 725 00c4 5868     		ldr	r0, [r3, #4]
 225:.\display.c   ****             temp[DIGACON] &= ~(0x00000001 << dig);
 726              		.loc 1 225 0
 727 00c6 E143     		mvn	r1, r4
 728              	.LVL48:
 226:.\display.c   ****             temp[DIGBCON] |= (0x00000001 << dig);
 729              		.loc 1 226 0
 730 00c8 0243     		orr	r2, r0
 225:.\display.c   ****             temp[DIGACON] &= ~(0x00000001 << dig);
 731              		.loc 1 225 0
 732 00ca 1C68     		ldr	r4, [r3]
 226:.\display.c   ****             temp[DIGBCON] |= (0x00000001 << dig);
 733              		.loc 1 226 0
 734 00cc 5A60     		str	r2, [r3, #4]
 227:.\display.c   ****             temp[DIGCCON] &= ~(0x00000001 << dig);
 735              		.loc 1 227 0
 736 00ce 9A68     		ldr	r2, [r3, #8]
 225:.\display.c   ****             temp[DIGACON] &= ~(0x00000001 << dig);
 737              		.loc 1 225 0
 738 00d0 0C40     		and	r4, r1
 739 00d2 1C60     		str	r4, [r3]
 227:.\display.c   ****             temp[DIGCCON] &= ~(0x00000001 << dig);
 740              		.loc 1 227 0
 741 00d4 0A40     		and	r2, r1
 742 00d6 44E0     		b	.L48
 743              	.LVL49:
 744              	.L40:
 234:.\display.c   ****             temp[DIGACON] &= ~(0x00000001 << dig);
 745              		.loc 1 234 0
 746 00d8 1868     		ldr	r0, [r3]
 747 00da E443     		mvn	r4, r4
 748 00dc 2040     		and	r0, r4
 749 00de 1860     		str	r0, [r3]
 750              	.LVL50:
 751              	.L54:
 236:.\display.c   ****             temp[DIGCCON] &= ~(0x00000001 << dig);
 752              		.loc 1 236 0
 753 00e0 9968     		ldr	r1, [r3, #8]
 235:.\display.c   ****             temp[DIGBCON] &= ~(0x00000001 << dig);
 754              		.loc 1 235 0
 755 00e2 5868     		ldr	r0, [r3, #4]
 756 00e4 2040     		and	r0, r4
 236:.\display.c   ****             temp[DIGCCON] &= ~(0x00000001 << dig);
 757              		.loc 1 236 0
 758 00e6 0C40     		and	r4, r1
 235:.\display.c   ****             temp[DIGBCON] &= ~(0x00000001 << dig);
 759              		.loc 1 235 0
 760 00e8 5860     		str	r0, [r3, #4]
 236:.\display.c   ****             temp[DIGCCON] &= ~(0x00000001 << dig);
 761              		.loc 1 236 0
 762 00ea 9C60     		str	r4, [r3, #8]
 238:.\display.c   ****             temp[DIGECON] |= (0x00000001 << dig);
 763              		.loc 1 238 0
 764 00ec 1869     		ldr	r0, [r3, #16]
 237:.\display.c   ****             temp[DIGDCON] |= (0x00000001 << dig);
 765              		.loc 1 237 0
 766 00ee DC68     		ldr	r4, [r3, #12]
ARM GAS  C:\Users\ZHANGM~1\AppData\Local\Temp\ccWWGwEp.s 			page 23


 239:.\display.c   ****             temp[DIGFCON] |= (0x00000001 << dig);
 767              		.loc 1 239 0
 768 00f0 5969     		ldr	r1, [r3, #20]
 237:.\display.c   ****             temp[DIGDCON] |= (0x00000001 << dig);
 769              		.loc 1 237 0
 770 00f2 1443     		orr	r4, r2
 238:.\display.c   ****             temp[DIGECON] |= (0x00000001 << dig);
 771              		.loc 1 238 0
 772 00f4 1043     		orr	r0, r2
 237:.\display.c   ****             temp[DIGDCON] |= (0x00000001 << dig);
 773              		.loc 1 237 0
 774 00f6 DC60     		str	r4, [r3, #12]
 238:.\display.c   ****             temp[DIGECON] |= (0x00000001 << dig);
 775              		.loc 1 238 0
 776 00f8 1861     		str	r0, [r3, #16]
 239:.\display.c   ****             temp[DIGFCON] |= (0x00000001 << dig);
 777              		.loc 1 239 0
 778 00fa 1143     		orr	r1, r2
 779              	.L53:
 780 00fc 5961     		str	r1, [r3, #20]
 240:.\display.c   ****             temp[DIGGCON] |= (0x00000001 << dig);
 781              		.loc 1 240 0
 782 00fe 9969     		ldr	r1, [r3, #24]
 783 0100 0A43     		orr	r2, r1
 784 0102 50E0     		b	.L47
 785              	.LVL51:
 786              	.L41:
 243:.\display.c   ****             temp[DIGACON] &= ~(0x00000001 << dig);
 787              		.loc 1 243 0
 788 0104 1968     		ldr	r1, [r3]
 789              	.LVL52:
 790 0106 E243     		mvn	r2, r4
 791 0108 1140     		and	r1, r2
 244:.\display.c   ****             temp[DIGBCON] &= ~(0x00000001 << dig);
 792              		.loc 1 244 0
 793 010a 5C68     		ldr	r4, [r3, #4]
 245:.\display.c   ****             temp[DIGCCON] &= ~(0x00000001 << dig);
 794              		.loc 1 245 0
 795 010c 9868     		ldr	r0, [r3, #8]
 243:.\display.c   ****             temp[DIGACON] &= ~(0x00000001 << dig);
 796              		.loc 1 243 0
 797 010e 1960     		str	r1, [r3]
 246:.\display.c   ****             temp[DIGDCON] &= ~(0x00000001 << dig);
 798              		.loc 1 246 0
 799 0110 D968     		ldr	r1, [r3, #12]
 244:.\display.c   ****             temp[DIGBCON] &= ~(0x00000001 << dig);
 800              		.loc 1 244 0
 801 0112 1440     		and	r4, r2
 245:.\display.c   ****             temp[DIGCCON] &= ~(0x00000001 << dig);
 802              		.loc 1 245 0
 803 0114 1040     		and	r0, r2
 246:.\display.c   ****             temp[DIGDCON] &= ~(0x00000001 << dig);
 804              		.loc 1 246 0
 805 0116 1140     		and	r1, r2
 244:.\display.c   ****             temp[DIGBCON] &= ~(0x00000001 << dig);
 806              		.loc 1 244 0
 807 0118 5C60     		str	r4, [r3, #4]
ARM GAS  C:\Users\ZHANGM~1\AppData\Local\Temp\ccWWGwEp.s 			page 24


 245:.\display.c   ****             temp[DIGCCON] &= ~(0x00000001 << dig);
 808              		.loc 1 245 0
 809 011a 9860     		str	r0, [r3, #8]
 247:.\display.c   ****             temp[DIGECON] &= ~(0x00000001 << dig);
 810              		.loc 1 247 0
 811 011c 1C69     		ldr	r4, [r3, #16]
 248:.\display.c   ****             temp[DIGFCON] &= ~(0x00000001 << dig);
 812              		.loc 1 248 0
 813 011e 5869     		ldr	r0, [r3, #20]
 246:.\display.c   ****             temp[DIGDCON] &= ~(0x00000001 << dig);
 814              		.loc 1 246 0
 815 0120 D960     		str	r1, [r3, #12]
 249:.\display.c   ****             temp[DIGGCON] &= ~(0x00000001 << dig);
 816              		.loc 1 249 0
 817 0122 9969     		ldr	r1, [r3, #24]
 247:.\display.c   ****             temp[DIGECON] &= ~(0x00000001 << dig);
 818              		.loc 1 247 0
 819 0124 1440     		and	r4, r2
 248:.\display.c   ****             temp[DIGFCON] &= ~(0x00000001 << dig);
 820              		.loc 1 248 0
 821 0126 1040     		and	r0, r2
 247:.\display.c   ****             temp[DIGECON] &= ~(0x00000001 << dig);
 822              		.loc 1 247 0
 823 0128 1C61     		str	r4, [r3, #16]
 248:.\display.c   ****             temp[DIGFCON] &= ~(0x00000001 << dig);
 824              		.loc 1 248 0
 825 012a 5861     		str	r0, [r3, #20]
 249:.\display.c   ****             temp[DIGGCON] &= ~(0x00000001 << dig);
 826              		.loc 1 249 0
 827 012c 0A40     		and	r2, r1
 828 012e 3AE0     		b	.L47
 829              	.LVL53:
 830              	.L42:
 252:.\display.c   ****             temp[DIGACON] &= ~(0x00000001 << dig);
 831              		.loc 1 252 0
 832 0130 E143     		mvn	r1, r4
 833              	.LVL54:
 834 0132 1C68     		ldr	r4, [r3]
 253:.\display.c   ****             temp[DIGBCON] &= ~(0x00000001 << dig);
 835              		.loc 1 253 0
 836 0134 5868     		ldr	r0, [r3, #4]
 252:.\display.c   ****             temp[DIGACON] &= ~(0x00000001 << dig);
 837              		.loc 1 252 0
 838 0136 0C40     		and	r4, r1
 839 0138 1C60     		str	r4, [r3]
 253:.\display.c   ****             temp[DIGBCON] &= ~(0x00000001 << dig);
 840              		.loc 1 253 0
 841 013a 0840     		and	r0, r1
 842              	.L50:
 843 013c 5860     		str	r0, [r3, #4]
 254:.\display.c   ****             temp[DIGCCON] &= ~(0x00000001 << dig);
 844              		.loc 1 254 0
 845 013e 9868     		ldr	r0, [r3, #8]
 255:.\display.c   ****             temp[DIGDCON] &= ~(0x00000001 << dig);
 846              		.loc 1 255 0
 847 0140 DC68     		ldr	r4, [r3, #12]
 254:.\display.c   ****             temp[DIGCCON] &= ~(0x00000001 << dig);
ARM GAS  C:\Users\ZHANGM~1\AppData\Local\Temp\ccWWGwEp.s 			page 25


 848              		.loc 1 254 0
 849 0142 0840     		and	r0, r1
 850 0144 9860     		str	r0, [r3, #8]
 255:.\display.c   ****             temp[DIGDCON] &= ~(0x00000001 << dig);
 851              		.loc 1 255 0
 852 0146 0C40     		and	r4, r1
 853              	.L51:
 256:.\display.c   ****             temp[DIGECON] |= (0x00000001 << dig);
 854              		.loc 1 256 0
 855 0148 1869     		ldr	r0, [r3, #16]
 255:.\display.c   ****             temp[DIGDCON] &= ~(0x00000001 << dig);
 856              		.loc 1 255 0
 857 014a DC60     		str	r4, [r3, #12]
 256:.\display.c   ****             temp[DIGECON] |= (0x00000001 << dig);
 858              		.loc 1 256 0
 859 014c 0243     		orr	r2, r0
 860 014e 0EE0     		b	.L46
 861              	.LVL55:
 862              	.L43:
 262:.\display.c   ****             temp[DIGACON]&= ~(0x00000001 << dig);
 863              		.loc 1 262 0
 864 0150 1868     		ldr	r0, [r3]
 865 0152 E143     		mvn	r1, r4
 866              	.LVL56:
 867 0154 0840     		and	r0, r1
 263:.\display.c   ****             temp[DIGBCON] |= (0x00000001 << dig);
 868              		.loc 1 263 0
 869 0156 5C68     		ldr	r4, [r3, #4]
 262:.\display.c   ****             temp[DIGACON]&= ~(0x00000001 << dig);
 870              		.loc 1 262 0
 871 0158 1860     		str	r0, [r3]
 264:.\display.c   ****             temp[DIGCCON] |= (0x00000001 << dig);
 872              		.loc 1 264 0
 873 015a 9868     		ldr	r0, [r3, #8]
 263:.\display.c   ****             temp[DIGBCON] |= (0x00000001 << dig);
 874              		.loc 1 263 0
 875 015c 1443     		orr	r4, r2
 876 015e 5C60     		str	r4, [r3, #4]
 264:.\display.c   ****             temp[DIGCCON] |= (0x00000001 << dig);
 877              		.loc 1 264 0
 878 0160 0243     		orr	r2, r0
 879              	.L48:
 880 0162 9A60     		str	r2, [r3, #8]
 265:.\display.c   ****             temp[DIGDCON] &= ~(0x00000001 << dig);
 881              		.loc 1 265 0
 882 0164 DA68     		ldr	r2, [r3, #12]
 883 0166 0A40     		and	r2, r1
 884 0168 DA60     		str	r2, [r3, #12]
 266:.\display.c   ****             temp[DIGECON] &= ~(0x00000001 << dig);
 885              		.loc 1 266 0
 886 016a 1A69     		ldr	r2, [r3, #16]
 887 016c 0A40     		and	r2, r1
 888              	.L46:
 889 016e 1A61     		str	r2, [r3, #16]
 267:.\display.c   ****             temp[DIGFCON] &= ~(0x00000001 << dig);
 890              		.loc 1 267 0
 891 0170 5A69     		ldr	r2, [r3, #20]
ARM GAS  C:\Users\ZHANGM~1\AppData\Local\Temp\ccWWGwEp.s 			page 26


 892 0172 0A40     		and	r2, r1
 893              	.L49:
 894 0174 5A61     		str	r2, [r3, #20]
 268:.\display.c   ****             temp[DIGGCON] &= ~(0x00000001 << dig);
 895              		.loc 1 268 0
 896 0176 9A69     		ldr	r2, [r3, #24]
 897 0178 1140     		and	r1, r2
 898 017a 9961     		str	r1, [r3, #24]
 269:.\display.c   ****              break;
 899              		.loc 1 269 0
 900 017c 14E0     		b	.L31
 901              	.LVL57:
 902              	.L32:
 903              		.loc 1 273 0
 904 017e 1C68     		ldr	r4, [r3]
 274:.\display.c   ****             temp[DIGBCON] |= (0x00000001 << dig);
 905              		.loc 1 274 0
 906 0180 5868     		ldr	r0, [r3, #4]
 273:.\display.c   ****             temp[DIGACON] |= (0x00000001 << dig);
 907              		.loc 1 273 0
 908 0182 1443     		orr	r4, r2
 275:.\display.c   ****             temp[DIGCCON] |= (0x00000001 << dig);
 909              		.loc 1 275 0
 910 0184 9968     		ldr	r1, [r3, #8]
 911              	.LVL58:
 273:.\display.c   ****             temp[DIGACON] |= (0x00000001 << dig);
 912              		.loc 1 273 0
 913 0186 1C60     		str	r4, [r3]
 276:.\display.c   ****             temp[DIGDCON] |= (0x00000001 << dig);
 914              		.loc 1 276 0
 915 0188 DC68     		ldr	r4, [r3, #12]
 274:.\display.c   ****             temp[DIGBCON] |= (0x00000001 << dig);
 916              		.loc 1 274 0
 917 018a 1043     		orr	r0, r2
 275:.\display.c   ****             temp[DIGCCON] |= (0x00000001 << dig);
 918              		.loc 1 275 0
 919 018c 1143     		orr	r1, r2
 920              		.loc 1 276 0
 921 018e 1443     		orr	r4, r2
 274:.\display.c   ****             temp[DIGBCON] |= (0x00000001 << dig);
 922              		.loc 1 274 0
 923 0190 5860     		str	r0, [r3, #4]
 275:.\display.c   ****             temp[DIGCCON] |= (0x00000001 << dig);
 924              		.loc 1 275 0
 925 0192 9960     		str	r1, [r3, #8]
 277:.\display.c   ****             temp[DIGECON] |= (0x00000001 << dig);
 926              		.loc 1 277 0
 927 0194 1869     		ldr	r0, [r3, #16]
 278:.\display.c   ****             temp[DIGFCON] |= (0x00000001 << dig);
 928              		.loc 1 278 0
 929 0196 5969     		ldr	r1, [r3, #20]
 276:.\display.c   ****             temp[DIGDCON] |= (0x00000001 << dig);
 930              		.loc 1 276 0
 931 0198 DC60     		str	r4, [r3, #12]
 279:.\display.c   ****             temp[DIGGCON] |= (0x00000001 << dig);
 932              		.loc 1 279 0
 933 019a 9C69     		ldr	r4, [r3, #24]
ARM GAS  C:\Users\ZHANGM~1\AppData\Local\Temp\ccWWGwEp.s 			page 27


 277:.\display.c   ****             temp[DIGECON] |= (0x00000001 << dig);
 934              		.loc 1 277 0
 935 019c 1043     		orr	r0, r2
 278:.\display.c   ****             temp[DIGFCON] |= (0x00000001 << dig);
 936              		.loc 1 278 0
 937 019e 1143     		orr	r1, r2
 277:.\display.c   ****             temp[DIGECON] |= (0x00000001 << dig);
 938              		.loc 1 277 0
 939 01a0 1861     		str	r0, [r3, #16]
 278:.\display.c   ****             temp[DIGFCON] |= (0x00000001 << dig);
 940              		.loc 1 278 0
 941 01a2 5961     		str	r1, [r3, #20]
 942              		.loc 1 279 0
 943 01a4 2243     		orr	r2, r4
 944              	.L47:
 945 01a6 9A61     		str	r2, [r3, #24]
 946              	.L31:
 280:.\display.c   ****             break;
 281:.\display.c   ****     }
 282:.\display.c   **** }
 947              		.loc 1 282 0
 948              		@ sp needed for prologue
 949 01a8 10BD     		pop	{r4, pc}
 950              	.L56:
 951 01aa C046     		.align	2
 952              	.L55:
 953 01ac 00000000 		.word	temp
 954              		.cfi_endproc
 955              	.LFE35:
 956              		.size	yanshi_Digital_Trans, .-yanshi_Digital_Trans
 957              		.global	__aeabi_uidiv
 958              		.global	__aeabi_uidivmod
 959              		.section	.text.display8888,"ax",%progbits
 960              		.align	1
 961              		.global	display8888
 962              		.code	16
 963              		.thumb_func
 964              		.type	display8888, %function
 965              	display8888:
 966              	.LFB37:
 283:.\display.c   **** 
 284:.\display.c   **** 
 285:.\display.c   **** 
 286:.\display.c   **** 
 287:.\display.c   **** 
 288:.\display.c   **** 
 289:.\display.c   **** 
 290:.\display.c   **** 
 291:.\display.c   **** /*****************************************************************\
 292:.\display.c   **** \*****************************************************************/
 293:.\display.c   **** void Led_Pannel_Updata(void)
 294:.\display.c   **** {
 295:.\display.c   ****     if(Error_Data.bit.Error_00_flag)//2
 296:.\display.c   ****     {
 297:.\display.c   ****         
 298:.\display.c   ****         
 299:.\display.c   ****         
ARM GAS  C:\Users\ZHANGM~1\AppData\Local\Temp\ccWWGwEp.s 			page 28


 300:.\display.c   ****         
 301:.\display.c   ****         
 302:.\display.c   ****         PWM_Start();//
 303:.\display.c   ****           /*E0*/ 
 304:.\display.c   ****         Led_Digital_Trans(DIG3,14);
 305:.\display.c   ****         
 306:.\display.c   ****         
 307:.\display.c   ****         
 308:.\display.c   ****         Led_Digital_Trans(DIG4,0);
 309:.\display.c   ****         /**/
 310:.\display.c   ****         LedPannelBuf[0]|=0x00030000;
 311:.\display.c   ****         LedPannelBuf[1]|=0x00030000;
 312:.\display.c   ****         LedPannelBuf[2]|=0x00030000;
 313:.\display.c   ****         LedPannelBuf[3]|=0x00030000;
 314:.\display.c   ****         LedPannelBuf[4]|=0x00030000;
 315:.\display.c   ****         LedPannelBuf[5]|=0x00030000;
 316:.\display.c   ****         LedPannelBuf[6]|=0x00030000;
 317:.\display.c   ****         
 318:.\display.c   ****         
 319:.\display.c   ****         
 320:.\display.c   ****         
 321:.\display.c   ****         
 322:.\display.c   ****         /*1HZ*/
 323:.\display.c   ****         if(eroorcnt<5)
 324:.\display.c   ****         {
 325:.\display.c   ****             LedPannelBuf[0]|=0x00001fff;
 326:.\display.c   ****             LedPannelBuf[1]|=0x00001fff;
 327:.\display.c   ****             LedPannelBuf[2]|=0x00001fff;
 328:.\display.c   ****             LedPannelBuf[3]|=0x00001fff;
 329:.\display.c   ****             LedPannelBuf[4]|=0x00001fff;
 330:.\display.c   ****             LedPannelBuf[5]|=0x00001fff;
 331:.\display.c   ****             LedPannelBuf[6]|=0x00001fff;
 332:.\display.c   ****         
 333:.\display.c   ****         }
 334:.\display.c   ****         else if(eroorcnt>5&&eroorcnt<=10)
 335:.\display.c   ****         {
 336:.\display.c   ****             LedPannelBuf[0]&=0xffffe000;
 337:.\display.c   ****             LedPannelBuf[1]&=0xffffe000;
 338:.\display.c   ****             LedPannelBuf[2]&=0xffffe000;
 339:.\display.c   ****             LedPannelBuf[3]&=0xffffe000;
 340:.\display.c   ****             LedPannelBuf[4]&=0xffffe000;
 341:.\display.c   ****             LedPannelBuf[5]&=0xffffe000;
 342:.\display.c   ****             LedPannelBuf[6]&=0xffffe000;
 343:.\display.c   ****        
 344:.\display.c   ****             
 345:.\display.c   ****             
 346:.\display.c   ****         }
 347:.\display.c   ****          else if(eroorcnt>10)
 348:.\display.c   ****             eroorcnt=0;
 349:.\display.c   ****         
 350:.\display.c   ****         
 351:.\display.c   ****         
 352:.\display.c   ****         
 353:.\display.c   ****         
 354:.\display.c   ****         
 355:.\display.c   ****     }
 356:.\display.c   ****     else
ARM GAS  C:\Users\ZHANGM~1\AppData\Local\Temp\ccWWGwEp.s 			page 29


 357:.\display.c   ****     {
 358:.\display.c   ****       if(WorkFlag.error&&WorkFlag.zijiansta==1)//
 359:.\display.c   ****         {
 360:.\display.c   ****             
 361:.\display.c   ****           if(Error_Data.bit.Error_02_flag==1&&Error_Data.bit.Error_01_flag==1) 
 362:.\display.c   ****             {
 363:.\display.c   ****             
 364:.\display.c   ****                 Led_Digital_Trans(DIG3,14);
 365:.\display.c   ****                 Led_Digital_Trans(DIG4,2);
 366:.\display.c   ****                 Led_Digital_Trans(DIG1,14);
 367:.\display.c   ****                 Led_Digital_Trans(DIG2,1);
 368:.\display.c   ****                 
 369:.\display.c   ****             
 370:.\display.c   ****             
 371:.\display.c   ****             }
 372:.\display.c   ****             
 373:.\display.c   ****             else
 374:.\display.c   ****             {          
 375:.\display.c   ****                 if(Error_Data.bit.Error_02_flag==1)
 376:.\display.c   ****                 {  /*E2*/ 
 377:.\display.c   ****                     Led_Digital_Trans(DIG3,14);
 378:.\display.c   ****                     Led_Digital_Trans(DIG4,2);
 379:.\display.c   ****                     LedPannelBuf[0]|=0x00030000;
 380:.\display.c   ****                     LedPannelBuf[1]|=0x00030000;
 381:.\display.c   ****                     LedPannelBuf[2]|=0x00030000;
 382:.\display.c   ****                     LedPannelBuf[3]|=0x00030000;//2
 383:.\display.c   ****                     LedPannelBuf[4]|=0x00030000;
 384:.\display.c   ****                     LedPannelBuf[5]|=0x00030000;
 385:.\display.c   ****                     LedPannelBuf[6]|=0x00030000;
 386:.\display.c   ****                 }
 387:.\display.c   ****                     
 388:.\display.c   ****                 if(Error_Data.bit.Error_01_flag==1)    
 389:.\display.c   ****                 {
 390:.\display.c   ****                     /*E1*/ 
 391:.\display.c   ****                     Led_Digital_Trans(DIG3,14);
 392:.\display.c   ****                     Led_Digital_Trans(DIG4,1);
 393:.\display.c   ****                     LedPannelBuf[0]|=0x00030000;
 394:.\display.c   ****                     LedPannelBuf[1]|=0x00030000;
 395:.\display.c   ****                     LedPannelBuf[2]|=0x00030000;
 396:.\display.c   ****                     LedPannelBuf[3]|=0x00030000;//2
 397:.\display.c   ****                     LedPannelBuf[4]|=0x00030000;
 398:.\display.c   ****                     LedPannelBuf[5]|=0x00030000;
 399:.\display.c   ****                     LedPannelBuf[6]|=0x00030000;   
 400:.\display.c   ****                 }    
 401:.\display.c   ****                     
 402:.\display.c   ****                
 403:.\display.c   ****             }               
 404:.\display.c   ****         }
 405:.\display.c   ****       else if(WorkFlag01.bit.tds_00_disp==1)
 406:.\display.c   **** 			  {
 407:.\display.c   **** 			    display8888(Value_Tds0);
 408:.\display.c   **** 			    DisFlag.jsll=0;
 409:.\display.c   **** 			  }
 410:.\display.c   **** 			else if(WorkFlag01.bit.tds_01_disp==1)
 411:.\display.c   **** 			  {
 412:.\display.c   **** 			    display8888(Value_Tds1);
 413:.\display.c   **** 			    DisFlag.jsll=0;
ARM GAS  C:\Users\ZHANGM~1\AppData\Local\Temp\ccWWGwEp.s 			page 30


 414:.\display.c   **** 			  }
 415:.\display.c   ****      	else if(WorkFlag01.bit.water_consumption_02_disp==1)																		//
 416:.\display.c   ****         {
 417:.\display.c   **** 					display8888(jingshuiliang);
 418:.\display.c   **** 					DisFlag.jsll=1;
 419:.\display.c   ****         }
 420:.\display.c   **** 
 421:.\display.c   **** 
 422:.\display.c   ****      
 423:.\display.c   ****         //led updata
 424:.\display.c   ****         LedPannelBuf[S_CON] |= (0x000003ff<<S_SHIFT);
 425:.\display.c   ****         LedPannelBuf[S_CON] &= ~((0x000003ff >> (10-SPercent))<<S_SHIFT);
 426:.\display.c   ****         LedPannelBuf[H_CON] |= (0x000003ff<<H_SHIFT);
 427:.\display.c   ****         LedPannelBuf[H_CON] &= ~((0x000003ff >> (10-HPercent))<<H_SHIFT);
 428:.\display.c   ****         LedPannelBuf[J_CON] |= (0x000003ff<<J_SHIFT);
 429:.\display.c   ****         LedPannelBuf[J_CON] &= ~((0x000003ff >> (10-JPercent))<<J_SHIFT);
 430:.\display.c   ****         LedPannelBuf[K_CON] |= (0x000003ff<<K_SHIFT);
 431:.\display.c   ****         LedPannelBuf[K_CON] &= ~((0x000003ff >> (10-KPercent))<<K_SHIFT);
 432:.\display.c   ****         LedPannelBuf[L_CON] |= (0x000003ff<<L_SHIFT);
 433:.\display.c   ****         LedPannelBuf[L_CON] &= ~((0x000003ff >> (10-LPercent))<<L_SHIFT);
 434:.\display.c   ****         LedPannelBuf[M_CON] |= (0x000003ff<<M_SHIFT);
 435:.\display.c   ****         LedPannelBuf[M_CON] &= ~((0x000003ff >> (10-MPercent))<<M_SHIFT);
 436:.\display.c   ****         if(DisFlag.sflash)
 437:.\display.c   ****         {
 438:.\display.c   ****             if(DisFlag.flashsta)
 439:.\display.c   ****             {
 440:.\display.c   ****                 LedPannelBuf[S_CON] &= ~(0x00000003 << 1);
 441:.\display.c   ****             }else
 442:.\display.c   ****             {
 443:.\display.c   ****                 LedPannelBuf[S_CON] |= (0x00000003 << 1);
 444:.\display.c   ****             }
 445:.\display.c   ****         }else
 446:.\display.c   ****         {
 447:.\display.c   ****             LedPannelBuf[S_CON] &= ~(0x00000003 << 1);
 448:.\display.c   ****         }
 449:.\display.c   ****         if(DisFlag.hflash)
 450:.\display.c   ****         {
 451:.\display.c   ****             if(DisFlag.flashsta)
 452:.\display.c   ****             {
 453:.\display.c   ****                 LedPannelBuf[H_CON] &= ~(0x00000003 << 1);
 454:.\display.c   ****             }else
 455:.\display.c   ****             {
 456:.\display.c   ****                 LedPannelBuf[H_CON] |= (0x00000003 << 1);
 457:.\display.c   ****             }
 458:.\display.c   ****         }else
 459:.\display.c   ****         {
 460:.\display.c   ****             LedPannelBuf[H_CON] &= ~(0x00000003 << 1);
 461:.\display.c   ****         }
 462:.\display.c   ****         if(DisFlag.jflash)
 463:.\display.c   ****         {
 464:.\display.c   ****             if(DisFlag.flashsta)
 465:.\display.c   ****             {
 466:.\display.c   ****                 LedPannelBuf[J_CON] &= ~(0x00000003 << 1);
 467:.\display.c   ****             }else
 468:.\display.c   ****             {
 469:.\display.c   ****                 LedPannelBuf[J_CON] |= (0x00000003 << 1);
 470:.\display.c   ****             }
ARM GAS  C:\Users\ZHANGM~1\AppData\Local\Temp\ccWWGwEp.s 			page 31


 471:.\display.c   ****         }else
 472:.\display.c   ****         {
 473:.\display.c   ****             LedPannelBuf[J_CON] &= ~(0x00000003 << 1);
 474:.\display.c   ****         }
 475:.\display.c   ****         if(DisFlag.kflash)
 476:.\display.c   ****         {
 477:.\display.c   ****             if(DisFlag.flashsta)
 478:.\display.c   ****             {
 479:.\display.c   ****                 LedPannelBuf[K_CON] &= ~(0x00000003 << 1);
 480:.\display.c   ****             }else
 481:.\display.c   ****             {
 482:.\display.c   ****                 LedPannelBuf[K_CON] |= (0x00000003 << 1);
 483:.\display.c   ****             }
 484:.\display.c   ****         }else
 485:.\display.c   ****         {
 486:.\display.c   ****             LedPannelBuf[K_CON] &= ~(0x00000003 << 1);
 487:.\display.c   ****         }
 488:.\display.c   ****         if(DisFlag.lflash)
 489:.\display.c   ****         {
 490:.\display.c   ****             if(DisFlag.flashsta)
 491:.\display.c   ****             {
 492:.\display.c   ****                 LedPannelBuf[L_CON] &= ~(0x00000003 << 1);
 493:.\display.c   ****             }else
 494:.\display.c   ****             {
 495:.\display.c   ****                 LedPannelBuf[L_CON] |= (0x00000003 << 1);
 496:.\display.c   ****             }
 497:.\display.c   ****         }else
 498:.\display.c   ****         {
 499:.\display.c   ****             LedPannelBuf[L_CON] &= ~(0x00000003 << 1);
 500:.\display.c   ****         }
 501:.\display.c   ****         if(DisFlag.mflash)
 502:.\display.c   ****         {
 503:.\display.c   ****             if(DisFlag.flashsta)
 504:.\display.c   ****             {
 505:.\display.c   ****                 LedPannelBuf[M_CON] &= ~(0x00000003 << 1);
 506:.\display.c   ****             }else
 507:.\display.c   ****             {
 508:.\display.c   ****                 LedPannelBuf[M_CON] |= (0x00000003 << 1);
 509:.\display.c   ****             }
 510:.\display.c   ****         }else
 511:.\display.c   ****         {
 512:.\display.c   ****             LedPannelBuf[M_CON] &= ~(0x00000003 << 1);
 513:.\display.c   ****         }
 514:.\display.c   ****         if(FlashCnt > TIMER500MS)
 515:.\display.c   ****         {
 516:.\display.c   ****             FlashCnt = 0;
 517:.\display.c   ****             DisFlag.flashsta = !DisFlag.flashsta;
 518:.\display.c   ****         }       
 519:.\display.c   ****         if(DisFlag.wifierror)
 520:.\display.c   ****         {
 521:.\display.c   ****             LedPannelBuf[P5_CON] &= ~(1 << P5);
 522:.\display.c   ****         }else
 523:.\display.c   ****         {
 524:.\display.c   ****             LedPannelBuf[P5_CON] |= (1 << P5);
 525:.\display.c   ****         }
 526:.\display.c   ****         if(DisFlag.wifilinkingsignflash==0)
 527:.\display.c   ****         {     
ARM GAS  C:\Users\ZHANGM~1\AppData\Local\Temp\ccWWGwEp.s 			page 32


 528:.\display.c   ****             if(DisFlag.wifilinkingsign)
 529:.\display.c   ****             {
 530:.\display.c   ****                 LedPannelBuf[N14_CON] &= ~(1 << N14);
 531:.\display.c   ****             }else
 532:.\display.c   ****             {  
 533:.\display.c   ****                 LedPannelBuf[N14_CON] |= (1 << N14);
 534:.\display.c   ****             }
 535:.\display.c   ****         }
 536:.\display.c   ****         else
 537:.\display.c   ****         {
 538:.\display.c   ****            if(DisFlag.sta)
 539:.\display.c   ****             {
 540:.\display.c   ****                 LedPannelBuf[N14_CON] &= ~(1 << N14);
 541:.\display.c   ****             }else
 542:.\display.c   ****             {
 543:.\display.c   ****                 LedPannelBuf[N14_CON] |= (1 << N14);
 544:.\display.c   ****             }
 545:.\display.c   ****         }
 546:.\display.c   ****         if(DisFlag.working)
 547:.\display.c   ****         {
 548:.\display.c   ****             LedPannelBuf[N3_CON] &= ~(1 << N3);
 549:.\display.c   ****             LedPannelBuf[N4_CON] &= ~(1 << N4);
 550:.\display.c   ****         }else
 551:.\display.c   ****         {
 552:.\display.c   ****             LedPannelBuf[N3_CON] |= (1 << N3);
 553:.\display.c   ****             LedPannelBuf[N4_CON] |= (1 << N4);
 554:.\display.c   ****         }
 555:.\display.c   ****         if(DisFlag.workingsignflash == 0)
 556:.\display.c   ****         {
 557:.\display.c   ****             
 558:.\display.c   ****             if(DisFlag.workingsign)
 559:.\display.c   ****             {
 560:.\display.c   ****                 LedPannelBuf[N1_CON] &= ~(1 << N1);
 561:.\display.c   ****                 LedPannelBuf[N2_CON] &= ~(1 << N2);
 562:.\display.c   ****             }else
 563:.\display.c   ****             {  
 564:.\display.c   ****                 LedPannelBuf[N1_CON] |= (1 << N1);
 565:.\display.c   ****                 LedPannelBuf[N2_CON] |= (1 << N2);
 566:.\display.c   ****             }
 567:.\display.c   ****         }else
 568:.\display.c   ****         {
 569:.\display.c   ****            if(DisFlag.sta)
 570:.\display.c   ****             {
 571:.\display.c   ****                 LedPannelBuf[N1_CON] &= ~(1 << N1);
 572:.\display.c   ****                 LedPannelBuf[N2_CON] &= ~(1 << N2);
 573:.\display.c   ****             }else
 574:.\display.c   ****             {
 575:.\display.c   ****                 LedPannelBuf[N1_CON] |= (1 << N1);
 576:.\display.c   ****                 LedPannelBuf[N2_CON] |= (1 << N2);
 577:.\display.c   ****             }
 578:.\display.c   ****         }
 579:.\display.c   ****         
 580:.\display.c   ****         if(DisFlag.outofwater)
 581:.\display.c   ****         {
 582:.\display.c   ****             LedPannelBuf[N5_CON] &= ~(1 << N5);
 583:.\display.c   ****             LedPannelBuf[N6_CON] &= ~(1 << N6);
 584:.\display.c   ****         }else
ARM GAS  C:\Users\ZHANGM~1\AppData\Local\Temp\ccWWGwEp.s 			page 33


 585:.\display.c   ****         {
 586:.\display.c   ****             LedPannelBuf[N5_CON] |= (1 << N5);
 587:.\display.c   ****             LedPannelBuf[N6_CON] |= (1 << N6);
 588:.\display.c   ****         }
 589:.\display.c   ****         if(DisFlag.outofwatersignflash == 0)
 590:.\display.c   ****         {
 591:.\display.c   ****             if(DisFlag.outofwatersign)
 592:.\display.c   ****             {
 593:.\display.c   ****                 LedPannelBuf[P3_CON] &= ~(1 << P3);
 594:.\display.c   ****                 LedPannelBuf[P4_CON] &= ~(1 << P4);
 595:.\display.c   ****             }else
 596:.\display.c   ****             {
 597:.\display.c   ****                 LedPannelBuf[P3_CON] |= (1 << P3);
 598:.\display.c   ****                 LedPannelBuf[P4_CON] |= (1 << P4);
 599:.\display.c   ****             }
 600:.\display.c   ****         }else
 601:.\display.c   ****         {
 602:.\display.c   ****             if(DisFlag.sta)
 603:.\display.c   ****             {
 604:.\display.c   ****                 LedPannelBuf[P3_CON] &= ~(1 << P3);
 605:.\display.c   ****                 LedPannelBuf[P4_CON] &= ~(1 << P4);
 606:.\display.c   ****             }else
 607:.\display.c   ****             {
 608:.\display.c   ****                 LedPannelBuf[P3_CON] |= (1 << P3);
 609:.\display.c   ****                 LedPannelBuf[P4_CON] |= (1 << P4);
 610:.\display.c   ****             }
 611:.\display.c   ****         }
 612:.\display.c   ****         
 613:.\display.c   ****         if(DisFlag.cleaning)
 614:.\display.c   ****         {
 615:.\display.c   ****             LedPannelBuf[N7_CON] &= ~(1 << N7);
 616:.\display.c   ****             LedPannelBuf[N8_CON] &= ~(1 << N8);
 617:.\display.c   ****         }else
 618:.\display.c   ****         {
 619:.\display.c   ****             LedPannelBuf[N7_CON] |= (1 << N7);
 620:.\display.c   ****             LedPannelBuf[N8_CON] |= (1 << N8);
 621:.\display.c   ****         }
 622:.\display.c   ****         
 623:.\display.c   ****         if(DisFlag.cleaningsignflash == 0)
 624:.\display.c   ****         {
 625:.\display.c   ****             if(DisFlag.cleaningsign)
 626:.\display.c   ****             {
 627:.\display.c   ****                 LedPannelBuf[N9_CON] &= ~(1 << N9);
 628:.\display.c   ****                 LedPannelBuf[N10_CON] &= ~(1 << N10);
 629:.\display.c   ****             }else
 630:.\display.c   ****             {
 631:.\display.c   ****                 LedPannelBuf[N9_CON] |= (1 << N9);
 632:.\display.c   ****                 LedPannelBuf[N10_CON] |= (1 << N10);
 633:.\display.c   ****             }
 634:.\display.c   ****         }else
 635:.\display.c   ****         {
 636:.\display.c   ****             if(DisFlag.sta)
 637:.\display.c   ****             {
 638:.\display.c   ****                 LedPannelBuf[N9_CON] &= ~(1 << N9);
 639:.\display.c   ****                 LedPannelBuf[N10_CON] &= ~(1 << N10);
 640:.\display.c   ****             }else
 641:.\display.c   ****             {
ARM GAS  C:\Users\ZHANGM~1\AppData\Local\Temp\ccWWGwEp.s 			page 34


 642:.\display.c   ****                 LedPannelBuf[N9_CON] |= (1 << N9);
 643:.\display.c   ****                 LedPannelBuf[N10_CON] |= (1 << N10);
 644:.\display.c   ****             }
 645:.\display.c   ****         }
 646:.\display.c   ****         
 647:.\display.c   ****         if(DisFlag.error)
 648:.\display.c   ****         {
 649:.\display.c   ****             LedPannelBuf[N11_CON] &= ~(1 << N11);
 650:.\display.c   ****             LedPannelBuf[N12_CON] &= ~(1 << N12);
 651:.\display.c   ****         }else
 652:.\display.c   ****         {
 653:.\display.c   ****             LedPannelBuf[N11_CON] |= (1 << N11);
 654:.\display.c   ****             LedPannelBuf[N12_CON] |= (1 << N12);
 655:.\display.c   ****         }
 656:.\display.c   ****         
 657:.\display.c   ****         if(DisFlag.errorsignflash == 0)
 658:.\display.c   ****         {
 659:.\display.c   ****             if(DisFlag.errorsign)
 660:.\display.c   ****             {
 661:.\display.c   ****                 LedPannelBuf[P1_CON] &= ~(1 << P1);
 662:.\display.c   ****                 LedPannelBuf[P2_CON] &= ~(1 << P2);
 663:.\display.c   ****             }else
 664:.\display.c   ****             {
 665:.\display.c   ****                 LedPannelBuf[P1_CON] |= (1 << P1);
 666:.\display.c   ****                 LedPannelBuf[P2_CON] |= (1 << P2);
 667:.\display.c   ****             }
 668:.\display.c   ****         }else
 669:.\display.c   ****         {
 670:.\display.c   ****             if(DisFlag.sta)
 671:.\display.c   ****             {
 672:.\display.c   ****                 LedPannelBuf[P1_CON] &= ~(1 << P1);
 673:.\display.c   ****                 LedPannelBuf[P2_CON] &= ~(1 << P2);
 674:.\display.c   ****             }else
 675:.\display.c   ****             {
 676:.\display.c   ****                 LedPannelBuf[P1_CON] |= (1 << P1);
 677:.\display.c   ****                 LedPannelBuf[P2_CON] |= (1 << P2);
 678:.\display.c   ****             }
 679:.\display.c   ****         }
 680:.\display.c   ****         
 681:.\display.c   ****         if(DisFlag.south)
 682:.\display.c   ****         {
 683:.\display.c   ****             LedPannelBuf[N13_CON] &= ~(1 << N13);
 684:.\display.c   ****         }else
 685:.\display.c   ****         {
 686:.\display.c   ****             LedPannelBuf[N13_CON] |= (1 << N13);
 687:.\display.c   ****         }
 688:.\display.c   ****         if(DisFlag.north)
 689:.\display.c   ****         {
 690:.\display.c   ****             LedPannelBuf[N15_CON] &= ~(1 << N15);
 691:.\display.c   ****         }else
 692:.\display.c   ****         {
 693:.\display.c   ****             LedPannelBuf[N15_CON] |= (1 << N15);
 694:.\display.c   ****         }
 695:.\display.c   ****         
 696:.\display.c   ****         if(DisFlag.jsll)
 697:.\display.c   ****         {
 698:.\display.c   ****             LedPannelBuf[N16_CON] &= ~(1 << N16);
ARM GAS  C:\Users\ZHANGM~1\AppData\Local\Temp\ccWWGwEp.s 			page 35


 699:.\display.c   ****             LedPannelBuf[N17_CON] &= ~(1 << N17);
 700:.\display.c   ****             LedPannelBuf[N18_CON] &= ~(1 << N18);
 701:.\display.c   ****             LedPannelBuf[N19_CON] &= ~(1 << N19);
 702:.\display.c   ****         }else
 703:.\display.c   ****         {
 704:.\display.c   ****             LedPannelBuf[N16_CON] |= (1 << N16);
 705:.\display.c   ****             LedPannelBuf[N17_CON] |= (1 << N17);
 706:.\display.c   ****             LedPannelBuf[N18_CON] |= (1 << N18);
 707:.\display.c   ****             LedPannelBuf[N19_CON] |= (1 << N19);
 708:.\display.c   ****         }
 709:.\display.c   ****         
 710:.\display.c   ****         if(DisFlag.slvxinflash == 0)//S,S
 711:.\display.c   ****         {                      
 712:.\display.c   ****         }
 713:.\display.c   ****         else
 714:.\display.c   ****         {
 715:.\display.c   ****             if(DisFlag.sta)
 716:.\display.c   ****             {
 717:.\display.c   ****                 LedPannelBuf[S_CON] |= (0x000003ff<<S_SHIFT);
 718:.\display.c   ****                 LedPannelBuf[S_CON] &= ~((0x000003ff >> (10))<<S_SHIFT);//
 719:.\display.c   ****             }else
 720:.\display.c   ****             {
 721:.\display.c   ****                 LedPannelBuf[S_CON] |= (0x000003ff<<S_SHIFT);
 722:.\display.c   ****                 LedPannelBuf[S_CON] &= ~((0x000003ff >> (0))<<S_SHIFT);//
 723:.\display.c   ****                 
 724:.\display.c   ****             }
 725:.\display.c   ****         }
 726:.\display.c   ****         
 727:.\display.c   ****         if(DisFlag.hlvxinflash == 0)//S,S
 728:.\display.c   ****         {        
 729:.\display.c   ****         }
 730:.\display.c   ****         else
 731:.\display.c   ****         {
 732:.\display.c   ****             if(DisFlag.sta)
 733:.\display.c   ****             {
 734:.\display.c   ****                 LedPannelBuf[H_CON] |= (0x000003ff<<H_SHIFT);
 735:.\display.c   ****                 LedPannelBuf[H_CON] &= ~((0x000003ff >> (10))<<H_SHIFT);//
 736:.\display.c   ****             }else
 737:.\display.c   ****             {
 738:.\display.c   ****                 LedPannelBuf[H_CON] |= (0x000003ff<<H_SHIFT);
 739:.\display.c   ****                 LedPannelBuf[H_CON] &= ~((0x000003ff >> (0))<<H_SHIFT);//
 740:.\display.c   ****                 
 741:.\display.c   ****             }
 742:.\display.c   ****         }
 743:.\display.c   ****         if(DisFlag.jlvxinflash == 0)//S,S
 744:.\display.c   ****         {
 745:.\display.c   ****         }
 746:.\display.c   ****         else
 747:.\display.c   ****         {
 748:.\display.c   ****             if(DisFlag.sta)
 749:.\display.c   ****             {
 750:.\display.c   ****                 LedPannelBuf[J_CON] |= (0x000003ff<<J_SHIFT);
 751:.\display.c   ****                 LedPannelBuf[J_CON] &= ~((0x000003ff >> (10))<<J_SHIFT);//
 752:.\display.c   ****             }else
 753:.\display.c   ****             {
 754:.\display.c   ****                 LedPannelBuf[J_CON] |= (0x000003ff<<J_SHIFT);
 755:.\display.c   ****                 LedPannelBuf[J_CON] &= ~((0x000003ff >> (0))<<J_SHIFT);//
ARM GAS  C:\Users\ZHANGM~1\AppData\Local\Temp\ccWWGwEp.s 			page 36


 756:.\display.c   ****                 
 757:.\display.c   ****             }
 758:.\display.c   ****         }
 759:.\display.c   ****         if(DisFlag.klvxinflash == 0)//S,S
 760:.\display.c   ****         {
 761:.\display.c   ****            
 762:.\display.c   ****            
 763:.\display.c   ****         }
 764:.\display.c   ****         else
 765:.\display.c   ****         {
 766:.\display.c   ****             if(DisFlag.sta)
 767:.\display.c   ****             {
 768:.\display.c   ****                 LedPannelBuf[K_CON] |= (0x000003ff<<K_SHIFT);
 769:.\display.c   ****                 LedPannelBuf[K_CON] &= ~((0x000003ff >> (10))<<K_SHIFT);//
 770:.\display.c   ****             }else
 771:.\display.c   ****             {
 772:.\display.c   ****                 LedPannelBuf[K_CON] |= (0x000003ff<<K_SHIFT);
 773:.\display.c   ****                 LedPannelBuf[K_CON] &= ~((0x000003ff >> (0))<<K_SHIFT);//
 774:.\display.c   ****                 
 775:.\display.c   ****             }
 776:.\display.c   ****         }
 777:.\display.c   ****         
 778:.\display.c   ****         if(DisFlag.llvxinflash == 0)//S,S
 779:.\display.c   ****         {          
 780:.\display.c   ****         }
 781:.\display.c   ****         else
 782:.\display.c   ****         {
 783:.\display.c   ****             if(DisFlag.sta)
 784:.\display.c   ****             {
 785:.\display.c   ****                 LedPannelBuf[L_CON] |= (0x000003ff<<L_SHIFT);
 786:.\display.c   ****                 LedPannelBuf[L_CON] &= ~((0x000003ff >> (10))<<L_SHIFT);//
 787:.\display.c   ****             }else
 788:.\display.c   ****             {
 789:.\display.c   ****                 LedPannelBuf[L_CON] |= (0x000003ff<<L_SHIFT);
 790:.\display.c   ****                 LedPannelBuf[L_CON] &= ~((0x000003ff >> (0))<<L_SHIFT);//
 791:.\display.c   ****                 
 792:.\display.c   ****             }
 793:.\display.c   ****         }
 794:.\display.c   ****         if(DisFlag.mlvxinflash == 0)//S,S
 795:.\display.c   ****         {
 796:.\display.c   ****            
 797:.\display.c   ****            
 798:.\display.c   ****         }
 799:.\display.c   ****         else
 800:.\display.c   ****         {
 801:.\display.c   ****             if(DisFlag.sta)
 802:.\display.c   ****             {
 803:.\display.c   ****                 LedPannelBuf[M_CON] |= (0x000003ff<<M_SHIFT);
 804:.\display.c   ****                 LedPannelBuf[M_CON] &= ~((0x000003ff >> (10))<<M_SHIFT);//
 805:.\display.c   ****             }else
 806:.\display.c   ****             {
 807:.\display.c   ****                 LedPannelBuf[M_CON] |= (0x000003ff<<M_SHIFT);
 808:.\display.c   ****                 LedPannelBuf[M_CON] &= ~((0x000003ff >> (0))<<M_SHIFT);//
 809:.\display.c   ****                 
 810:.\display.c   ****             }
 811:.\display.c   ****         }
 812:.\display.c   ****        
ARM GAS  C:\Users\ZHANGM~1\AppData\Local\Temp\ccWWGwEp.s 			page 37


 813:.\display.c   ****     }    
 814:.\display.c   ****         
 815:.\display.c   **** }
 816:.\display.c   **** 
 817:.\display.c   **** void display8888(uint16 Value)
 818:.\display.c   **** {   
 967              		.loc 1 818 0
 968              		.cfi_startproc
 969              	.LVL59:
 970 0000 38B5     		push	{r3, r4, r5, lr}
 971              	.LCFI3:
 972              		.cfi_def_cfa_offset 16
 973              		.cfi_offset 3, -16
 974              		.cfi_offset 4, -12
 975              		.cfi_offset 5, -8
 976              		.cfi_offset 14, -4
 819:.\display.c   **** 	  unsigned char lpu1;
 820:.\display.c   ****     unsigned int lpu2;
 821:.\display.c   ****     lpu2 = Value;
 822:.\display.c   ****     DisFlag.errorsignflash=0;//
 977              		.loc 1 822 0
 978 0002 184B     		ldr	r3, .L58
 979 0004 7F22     		mov	r2, #127
 980 0006 9978     		ldrb	r1, [r3, #2]
 818:.\display.c   **** {   
 981              		.loc 1 818 0
 982 0008 041C     		mov	r4, r0
 983              		.loc 1 822 0
 984 000a 0A40     		and	r2, r1
 985 000c 9A70     		strb	r2, [r3, #2]
 986              	.LVL60:
 823:.\display.c   ****     lpu1 = lpu2 % 10;
 824:.\display.c   ****     lpu2 /= 10;
 987              		.loc 1 824 0
 988 000e 0A21     		mov	r1, #10
 989 0010 FFF7FEFF 		bl	__aeabi_uidiv
 990              	.LVL61:
 823:.\display.c   ****     lpu1 = lpu2 % 10;
 991              		.loc 1 823 0
 992 0014 0A21     		mov	r1, #10
 993              		.loc 1 824 0
 994 0016 051C     		mov	r5, r0
 995              	.LVL62:
 823:.\display.c   ****     lpu1 = lpu2 % 10;
 996              		.loc 1 823 0
 997 0018 201C     		mov	r0, r4
 998              	.LVL63:
 999 001a FFF7FEFF 		bl	__aeabi_uidivmod
 1000              	.LVL64:
 825:.\display.c   ****     Led_Digital_Trans(DIG4,lpu1);
 1001              		.loc 1 825 0
 1002 001e 0E20     		mov	r0, #14
 1003 0020 C9B2     		uxtb	r1, r1
 1004 0022 FFF7FEFF 		bl	Led_Digital_Trans
 1005              	.LVL65:
 826:.\display.c   ****     lpu1 = lpu2 % 10;
 827:.\display.c   ****     lpu2 /= 10;
ARM GAS  C:\Users\ZHANGM~1\AppData\Local\Temp\ccWWGwEp.s 			page 38


 1006              		.loc 1 827 0
 1007 0026 281C     		mov	r0, r5
 1008 0028 0A21     		mov	r1, #10
 1009 002a FFF7FEFF 		bl	__aeabi_uidiv
 1010              	.LVL66:
 826:.\display.c   ****     lpu1 = lpu2 % 10;
 1011              		.loc 1 826 0
 1012 002e 0A21     		mov	r1, #10
 1013              		.loc 1 827 0
 1014 0030 041C     		mov	r4, r0
 1015              	.LVL67:
 826:.\display.c   ****     lpu1 = lpu2 % 10;
 1016              		.loc 1 826 0
 1017 0032 281C     		mov	r0, r5
 1018              	.LVL68:
 1019 0034 FFF7FEFF 		bl	__aeabi_uidivmod
 1020              	.LVL69:
 828:.\display.c   ****     Led_Digital_Trans(DIG3,lpu1);
 1021              		.loc 1 828 0
 1022 0038 0F20     		mov	r0, #15
 1023 003a C9B2     		uxtb	r1, r1
 1024 003c FFF7FEFF 		bl	Led_Digital_Trans
 1025              	.LVL70:
 829:.\display.c   ****     lpu1 = lpu2 % 10;
 1026              		.loc 1 829 0
 1027 0040 201C     		mov	r0, r4
 1028 0042 0A21     		mov	r1, #10
 1029 0044 FFF7FEFF 		bl	__aeabi_uidivmod
 1030              	.LVL71:
 830:.\display.c   ****     lpu2 /= 10;
 831:.\display.c   ****     Led_Digital_Trans(DIG2,lpu1);  
 1031              		.loc 1 831 0
 1032 0048 1020     		mov	r0, #16
 1033 004a C9B2     		uxtb	r1, r1
 1034 004c FFF7FEFF 		bl	Led_Digital_Trans
 1035              	.LVL72:
 830:.\display.c   ****     lpu2 /= 10;
 1036              		.loc 1 830 0
 1037 0050 201C     		mov	r0, r4
 1038 0052 0A21     		mov	r1, #10
 1039 0054 FFF7FEFF 		bl	__aeabi_uidiv
 1040              	.LVL73:
 832:.\display.c   ****     lpu1 = lpu2;
 833:.\display.c   ****     Led_Digital_Trans(DIG1,lpu1);
 1041              		.loc 1 833 0
 1042 0058 C1B2     		uxtb	r1, r0
 1043 005a 1120     		mov	r0, #17
 1044 005c FFF7FEFF 		bl	Led_Digital_Trans
 1045              	.LVL74:
 834:.\display.c   ****      
 835:.\display.c   **** 	
 836:.\display.c   **** }
 1046              		.loc 1 836 0
 1047              		@ sp needed for prologue
 1048              	.LVL75:
 1049 0060 38BD     		pop	{r3, r4, r5, pc}
 1050              	.L59:
ARM GAS  C:\Users\ZHANGM~1\AppData\Local\Temp\ccWWGwEp.s 			page 39


 1051 0062 C046     		.align	2
 1052              	.L58:
 1053 0064 00000000 		.word	DisFlag
 1054              		.cfi_endproc
 1055              	.LFE37:
 1056              		.size	display8888, .-display8888
 1057              		.section	.text.Led_Pannel_Updata,"ax",%progbits
 1058              		.align	1
 1059              		.global	Led_Pannel_Updata
 1060              		.code	16
 1061              		.thumb_func
 1062              		.type	Led_Pannel_Updata, %function
 1063              	Led_Pannel_Updata:
 1064              	.LFB36:
 294:.\display.c   **** {
 1065              		.loc 1 294 0
 1066              		.cfi_startproc
 1067 0000 F0B5     		push	{r4, r5, r6, r7, lr}
 1068              	.LCFI4:
 1069              		.cfi_def_cfa_offset 20
 1070              		.cfi_offset 4, -20
 1071              		.cfi_offset 5, -16
 1072              		.cfi_offset 6, -12
 1073              		.cfi_offset 7, -8
 1074              		.cfi_offset 14, -4
 295:.\display.c   ****     if(Error_Data.bit.Error_00_flag)//2
 1075              		.loc 1 295 0
 1076 0002 D34D     		ldr	r5, .L197
 1077 0004 0126     		mov	r6, #1
 1078 0006 2B78     		ldrb	r3, [r5]
 294:.\display.c   **** {
 1079              		.loc 1 294 0
 1080 0008 85B0     		sub	sp, sp, #20
 1081              	.LCFI5:
 1082              		.cfi_def_cfa_offset 40
 1083 000a D24C     		ldr	r4, .L197+4
 295:.\display.c   ****     if(Error_Data.bit.Error_00_flag)//2
 1084              		.loc 1 295 0
 1085 000c 3342     		tst	r3, r6
 1086 000e 68D0     		beq	.L61
 302:.\display.c   ****         PWM_Start();//
 1087              		.loc 1 302 0
 1088 0010 FFF7FEFF 		bl	PWM_Start
 1089              	.LVL76:
 304:.\display.c   ****         Led_Digital_Trans(DIG3,14);
 1090              		.loc 1 304 0
 1091 0014 0F20     		mov	r0, #15
 1092 0016 0E21     		mov	r1, #14
 1093 0018 FFF7FEFF 		bl	Led_Digital_Trans
 1094              	.LVL77:
 308:.\display.c   ****         Led_Digital_Trans(DIG4,0);
 1095              		.loc 1 308 0
 1096 001c 0E20     		mov	r0, #14
 1097 001e 0021     		mov	r1, #0
 1098 0020 FFF7FEFF 		bl	Led_Digital_Trans
 1099              	.LVL78:
 310:.\display.c   ****         LedPannelBuf[0]|=0x00030000;
ARM GAS  C:\Users\ZHANGM~1\AppData\Local\Temp\ccWWGwEp.s 			page 40


 1100              		.loc 1 310 0
 1101 0024 C022     		mov	r2, #192
 1102 0026 9302     		lsl	r3, r2, #10
 1103 0028 2768     		ldr	r7, [r4]
 1104 002a 1D1C     		mov	r5, r3
 1105 002c 3D43     		orr	r5, r7
 311:.\display.c   ****         LedPannelBuf[1]|=0x00030000;
 1106              		.loc 1 311 0
 1107 002e 6668     		ldr	r6, [r4, #4]
 310:.\display.c   ****         LedPannelBuf[0]|=0x00030000;
 1108              		.loc 1 310 0
 1109 0030 2560     		str	r5, [r4]
 311:.\display.c   ****         LedPannelBuf[1]|=0x00030000;
 1110              		.loc 1 311 0
 1111 0032 181C     		mov	r0, r3
 312:.\display.c   ****         LedPannelBuf[2]|=0x00030000;
 1112              		.loc 1 312 0
 1113 0034 A568     		ldr	r5, [r4, #8]
 311:.\display.c   ****         LedPannelBuf[1]|=0x00030000;
 1114              		.loc 1 311 0
 1115 0036 3043     		orr	r0, r6
 312:.\display.c   ****         LedPannelBuf[2]|=0x00030000;
 1116              		.loc 1 312 0
 1117 0038 191C     		mov	r1, r3
 1118 003a 2943     		orr	r1, r5
 311:.\display.c   ****         LedPannelBuf[1]|=0x00030000;
 1119              		.loc 1 311 0
 1120 003c 6060     		str	r0, [r4, #4]
 313:.\display.c   ****         LedPannelBuf[3]|=0x00030000;
 1121              		.loc 1 313 0
 1122 003e E068     		ldr	r0, [r4, #12]
 312:.\display.c   ****         LedPannelBuf[2]|=0x00030000;
 1123              		.loc 1 312 0
 1124 0040 A160     		str	r1, [r4, #8]
 313:.\display.c   ****         LedPannelBuf[3]|=0x00030000;
 1125              		.loc 1 313 0
 1126 0042 1A1C     		mov	r2, r3
 314:.\display.c   ****         LedPannelBuf[4]|=0x00030000;
 1127              		.loc 1 314 0
 1128 0044 2169     		ldr	r1, [r4, #16]
 313:.\display.c   ****         LedPannelBuf[3]|=0x00030000;
 1129              		.loc 1 313 0
 1130 0046 0243     		orr	r2, r0
 1131 0048 E260     		str	r2, [r4, #12]
 314:.\display.c   ****         LedPannelBuf[4]|=0x00030000;
 1132              		.loc 1 314 0
 1133 004a 0A1C     		mov	r2, r1
 1134 004c 1A43     		orr	r2, r3
 1135 004e 0391     		str	r1, [sp, #12]
 315:.\display.c   ****         LedPannelBuf[5]|=0x00030000;
 1136              		.loc 1 315 0
 1137 0050 6169     		ldr	r1, [r4, #20]
 314:.\display.c   ****         LedPannelBuf[4]|=0x00030000;
 1138              		.loc 1 314 0
 1139 0052 2261     		str	r2, [r4, #16]
 316:.\display.c   ****         LedPannelBuf[6]|=0x00030000;
 1140              		.loc 1 316 0
ARM GAS  C:\Users\ZHANGM~1\AppData\Local\Temp\ccWWGwEp.s 			page 41


 1141 0054 A269     		ldr	r2, [r4, #24]
 315:.\display.c   ****         LedPannelBuf[5]|=0x00030000;
 1142              		.loc 1 315 0
 1143 0056 0191     		str	r1, [sp, #4]
 1144 0058 1943     		orr	r1, r3
 1145 005a 6161     		str	r1, [r4, #20]
 316:.\display.c   ****         LedPannelBuf[6]|=0x00030000;
 1146              		.loc 1 316 0
 1147 005c 9446     		mov	ip, r2
 1148 005e 111C     		mov	r1, r2
 323:.\display.c   ****         if(eroorcnt<5)
 1149              		.loc 1 323 0
 1150 0060 BD4A     		ldr	r2, .L197+8
 316:.\display.c   ****         LedPannelBuf[6]|=0x00030000;
 1151              		.loc 1 316 0
 1152 0062 1943     		orr	r1, r3
 323:.\display.c   ****         if(eroorcnt<5)
 1153              		.loc 1 323 0
 1154 0064 1288     		ldrh	r2, [r2]
 316:.\display.c   ****         LedPannelBuf[6]|=0x00030000;
 1155              		.loc 1 316 0
 1156 0066 A161     		str	r1, [r4, #24]
 323:.\display.c   ****         if(eroorcnt<5)
 1157              		.loc 1 323 0
 1158 0068 042A     		cmp	r2, #4
 1159 006a 10D8     		bhi	.L62
 325:.\display.c   ****             LedPannelBuf[0]|=0x00001fff;
 1160              		.loc 1 325 0
 1161 006c BB4B     		ldr	r3, .L197+12
 329:.\display.c   ****             LedPannelBuf[4]|=0x00001fff;
 1162              		.loc 1 329 0
 1163 006e 039A     		ldr	r2, [sp, #12]
 328:.\display.c   ****             LedPannelBuf[3]|=0x00001fff;
 1164              		.loc 1 328 0
 1165 0070 1843     		orr	r0, r3
 1166 0072 E060     		str	r0, [r4, #12]
 330:.\display.c   ****             LedPannelBuf[5]|=0x00001fff;
 1167              		.loc 1 330 0
 1168 0074 0198     		ldr	r0, [sp, #4]
 327:.\display.c   ****             LedPannelBuf[2]|=0x00001fff;
 1169              		.loc 1 327 0
 1170 0076 1D43     		orr	r5, r3
 325:.\display.c   ****             LedPannelBuf[0]|=0x00001fff;
 1171              		.loc 1 325 0
 1172 0078 1F43     		orr	r7, r3
 326:.\display.c   ****             LedPannelBuf[1]|=0x00001fff;
 1173              		.loc 1 326 0
 1174 007a 1E43     		orr	r6, r3
 329:.\display.c   ****             LedPannelBuf[4]|=0x00001fff;
 1175              		.loc 1 329 0
 1176 007c 1A43     		orr	r2, r3
 330:.\display.c   ****             LedPannelBuf[5]|=0x00001fff;
 1177              		.loc 1 330 0
 1178 007e 1843     		orr	r0, r3
 327:.\display.c   ****             LedPannelBuf[2]|=0x00001fff;
 1179              		.loc 1 327 0
 1180 0080 A560     		str	r5, [r4, #8]
ARM GAS  C:\Users\ZHANGM~1\AppData\Local\Temp\ccWWGwEp.s 			page 42


 325:.\display.c   ****             LedPannelBuf[0]|=0x00001fff;
 1181              		.loc 1 325 0
 1182 0082 2760     		str	r7, [r4]
 326:.\display.c   ****             LedPannelBuf[1]|=0x00001fff;
 1183              		.loc 1 326 0
 1184 0084 6660     		str	r6, [r4, #4]
 329:.\display.c   ****             LedPannelBuf[4]|=0x00001fff;
 1185              		.loc 1 329 0
 1186 0086 2261     		str	r2, [r4, #16]
 330:.\display.c   ****             LedPannelBuf[5]|=0x00001fff;
 1187              		.loc 1 330 0
 1188 0088 6061     		str	r0, [r4, #20]
 331:.\display.c   ****             LedPannelBuf[6]|=0x00001fff;
 1189              		.loc 1 331 0
 1190 008a 6546     		mov	r5, ip
 1191 008c 1FE0     		b	.L194
 1192              	.L62:
 334:.\display.c   ****         else if(eroorcnt>5&&eroorcnt<=10)
 1193              		.loc 1 334 0
 1194 008e 911F     		sub	r1, r2, #6
 1195 0090 0429     		cmp	r1, #4
 1196 0092 1FD8     		bhi	.L64
 336:.\display.c   ****             LedPannelBuf[0]&=0xffffe000;
 1197              		.loc 1 336 0
 1198 0094 7A0B     		lsr	r2, r7, #13
 338:.\display.c   ****             LedPannelBuf[2]&=0xffffe000;
 1199              		.loc 1 338 0
 1200 0096 6D0B     		lsr	r5, r5, #13
 336:.\display.c   ****             LedPannelBuf[0]&=0xffffe000;
 1201              		.loc 1 336 0
 1202 0098 5103     		lsl	r1, r2, #13
 338:.\display.c   ****             LedPannelBuf[2]&=0xffffe000;
 1203              		.loc 1 338 0
 1204 009a 6A03     		lsl	r2, r5, #13
 337:.\display.c   ****             LedPannelBuf[1]&=0xffffe000;
 1205              		.loc 1 337 0
 1206 009c 760B     		lsr	r6, r6, #13
 338:.\display.c   ****             LedPannelBuf[2]&=0xffffe000;
 1207              		.loc 1 338 0
 1208 009e 1A43     		orr	r2, r3
 336:.\display.c   ****             LedPannelBuf[0]&=0xffffe000;
 1209              		.loc 1 336 0
 1210 00a0 1943     		orr	r1, r3
 337:.\display.c   ****             LedPannelBuf[1]&=0xffffe000;
 1211              		.loc 1 337 0
 1212 00a2 7703     		lsl	r7, r6, #13
 339:.\display.c   ****             LedPannelBuf[3]&=0xffffe000;
 1213              		.loc 1 339 0
 1214 00a4 400B     		lsr	r0, r0, #13
 340:.\display.c   ****             LedPannelBuf[4]&=0xffffe000;
 1215              		.loc 1 340 0
 1216 00a6 039E     		ldr	r6, [sp, #12]
 338:.\display.c   ****             LedPannelBuf[2]&=0xffffe000;
 1217              		.loc 1 338 0
 1218 00a8 A260     		str	r2, [r4, #8]
 341:.\display.c   ****             LedPannelBuf[5]&=0xffffe000;
 1219              		.loc 1 341 0
ARM GAS  C:\Users\ZHANGM~1\AppData\Local\Temp\ccWWGwEp.s 			page 43


 1220 00aa 019A     		ldr	r2, [sp, #4]
 337:.\display.c   ****             LedPannelBuf[1]&=0xffffe000;
 1221              		.loc 1 337 0
 1222 00ac 1F43     		orr	r7, r3
 336:.\display.c   ****             LedPannelBuf[0]&=0xffffe000;
 1223              		.loc 1 336 0
 1224 00ae 2160     		str	r1, [r4]
 339:.\display.c   ****             LedPannelBuf[3]&=0xffffe000;
 1225              		.loc 1 339 0
 1226 00b0 4103     		lsl	r1, r0, #13
 1227 00b2 1943     		orr	r1, r3
 337:.\display.c   ****             LedPannelBuf[1]&=0xffffe000;
 1228              		.loc 1 337 0
 1229 00b4 6760     		str	r7, [r4, #4]
 341:.\display.c   ****             LedPannelBuf[5]&=0xffffe000;
 1230              		.loc 1 341 0
 1231 00b6 500B     		lsr	r0, r2, #13
 340:.\display.c   ****             LedPannelBuf[4]&=0xffffe000;
 1232              		.loc 1 340 0
 1233 00b8 770B     		lsr	r7, r6, #13
 1234 00ba 7D03     		lsl	r5, r7, #13
 339:.\display.c   ****             LedPannelBuf[3]&=0xffffe000;
 1235              		.loc 1 339 0
 1236 00bc E160     		str	r1, [r4, #12]
 342:.\display.c   ****             LedPannelBuf[6]&=0xffffe000;
 1237              		.loc 1 342 0
 1238 00be 6646     		mov	r6, ip
 341:.\display.c   ****             LedPannelBuf[5]&=0xffffe000;
 1239              		.loc 1 341 0
 1240 00c0 4103     		lsl	r1, r0, #13
 340:.\display.c   ****             LedPannelBuf[4]&=0xffffe000;
 1241              		.loc 1 340 0
 1242 00c2 1D43     		orr	r5, r3
 341:.\display.c   ****             LedPannelBuf[5]&=0xffffe000;
 1243              		.loc 1 341 0
 1244 00c4 1943     		orr	r1, r3
 342:.\display.c   ****             LedPannelBuf[6]&=0xffffe000;
 1245              		.loc 1 342 0
 1246 00c6 770B     		lsr	r7, r6, #13
 340:.\display.c   ****             LedPannelBuf[4]&=0xffffe000;
 1247              		.loc 1 340 0
 1248 00c8 2561     		str	r5, [r4, #16]
 341:.\display.c   ****             LedPannelBuf[5]&=0xffffe000;
 1249              		.loc 1 341 0
 1250 00ca 6161     		str	r1, [r4, #20]
 342:.\display.c   ****             LedPannelBuf[6]&=0xffffe000;
 1251              		.loc 1 342 0
 1252 00cc 7D03     		lsl	r5, r7, #13
 1253              	.L194:
 1254 00ce 2B43     		orr	r3, r5
 1255 00d0 A361     		str	r3, [r4, #24]
 1256 00d2 6CE2     		b	.L60
 1257              	.L64:
 347:.\display.c   ****          else if(eroorcnt>10)
 1258              		.loc 1 347 0
 1259 00d4 0A2A     		cmp	r2, #10
 1260 00d6 00D8     		bhi	.LCB1005
ARM GAS  C:\Users\ZHANGM~1\AppData\Local\Temp\ccWWGwEp.s 			page 44


 1261 00d8 69E2     		b	.L60	@long jump
 1262              	.LCB1005:
 348:.\display.c   ****             eroorcnt=0;
 1263              		.loc 1 348 0
 1264 00da 9F4F     		ldr	r7, .L197+8
 1265 00dc 0024     		mov	r4, #0
 1266 00de 3C80     		strh	r4, [r7]
 1267 00e0 65E2     		b	.L60
 1268              	.L61:
 358:.\display.c   ****       if(WorkFlag.error&&WorkFlag.zijiansta==1)//
 1269              		.loc 1 358 0
 1270 00e2 9F4A     		ldr	r2, .L197+16
 1271 00e4 9F48     		ldr	r0, .L197+20
 1272 00e6 1168     		ldr	r1, [r2]
 1273 00e8 0140     		and	r1, r0
 1274 00ea 8142     		cmp	r1, r0
 1275 00ec 58D1     		bne	.L66
 361:.\display.c   ****           if(Error_Data.bit.Error_02_flag==1&&Error_Data.bit.Error_01_flag==1) 
 1276              		.loc 1 361 0
 1277 00ee 0622     		mov	r2, #6
 1278 00f0 1A40     		and	r2, r3
 1279 00f2 062A     		cmp	r2, #6
 1280 00f4 10D1     		bne	.L67
 364:.\display.c   ****                 Led_Digital_Trans(DIG3,14);
 1281              		.loc 1 364 0
 1282 00f6 0F20     		mov	r0, #15
 1283 00f8 0E21     		mov	r1, #14
 1284 00fa FFF7FEFF 		bl	Led_Digital_Trans
 1285              	.LVL79:
 365:.\display.c   ****                 Led_Digital_Trans(DIG4,2);
 1286              		.loc 1 365 0
 1287 00fe 0E20     		mov	r0, #14
 1288 0100 0221     		mov	r1, #2
 1289 0102 FFF7FEFF 		bl	Led_Digital_Trans
 1290              	.LVL80:
 366:.\display.c   ****                 Led_Digital_Trans(DIG1,14);
 1291              		.loc 1 366 0
 1292 0106 1120     		mov	r0, #17
 1293 0108 0E21     		mov	r1, #14
 1294 010a FFF7FEFF 		bl	Led_Digital_Trans
 1295              	.LVL81:
 367:.\display.c   ****                 Led_Digital_Trans(DIG2,1);
 1296              		.loc 1 367 0
 1297 010e 1020     		mov	r0, #16
 1298 0110 311C     		mov	r1, r6
 1299 0112 FFF7FEFF 		bl	Led_Digital_Trans
 1300              	.LVL82:
 1301 0116 5FE0     		b	.L68
 1302              	.L67:
 375:.\display.c   ****                 if(Error_Data.bit.Error_02_flag==1)
 1303              		.loc 1 375 0
 1304 0118 5807     		lsl	r0, r3, #29
 1305 011a 1ED5     		bpl	.L69
 377:.\display.c   ****                     Led_Digital_Trans(DIG3,14);
 1306              		.loc 1 377 0
 1307 011c 0F20     		mov	r0, #15
 1308 011e 0E21     		mov	r1, #14
ARM GAS  C:\Users\ZHANGM~1\AppData\Local\Temp\ccWWGwEp.s 			page 45


 1309 0120 FFF7FEFF 		bl	Led_Digital_Trans
 1310              	.LVL83:
 378:.\display.c   ****                     Led_Digital_Trans(DIG4,2);
 1311              		.loc 1 378 0
 1312 0124 0E20     		mov	r0, #14
 1313 0126 0221     		mov	r1, #2
 1314 0128 FFF7FEFF 		bl	Led_Digital_Trans
 1315              	.LVL84:
 379:.\display.c   ****                     LedPannelBuf[0]|=0x00030000;
 1316              		.loc 1 379 0
 1317 012c C026     		mov	r6, #192
 1318 012e 2168     		ldr	r1, [r4]
 380:.\display.c   ****                     LedPannelBuf[1]|=0x00030000;
 1319              		.loc 1 380 0
 1320 0130 6768     		ldr	r7, [r4, #4]
 379:.\display.c   ****                     LedPannelBuf[0]|=0x00030000;
 1321              		.loc 1 379 0
 1322 0132 B002     		lsl	r0, r6, #10
 1323 0134 0143     		orr	r1, r0
 380:.\display.c   ****                     LedPannelBuf[1]|=0x00030000;
 1324              		.loc 1 380 0
 1325 0136 0743     		orr	r7, r0
 381:.\display.c   ****                     LedPannelBuf[2]|=0x00030000;
 1326              		.loc 1 381 0
 1327 0138 A368     		ldr	r3, [r4, #8]
 382:.\display.c   ****                     LedPannelBuf[3]|=0x00030000;//2
 1328              		.loc 1 382 0
 1329 013a E268     		ldr	r2, [r4, #12]
 383:.\display.c   ****                     LedPannelBuf[4]|=0x00030000;
 1330              		.loc 1 383 0
 1331 013c 2669     		ldr	r6, [r4, #16]
 379:.\display.c   ****                     LedPannelBuf[0]|=0x00030000;
 1332              		.loc 1 379 0
 1333 013e 2160     		str	r1, [r4]
 380:.\display.c   ****                     LedPannelBuf[1]|=0x00030000;
 1334              		.loc 1 380 0
 1335 0140 6760     		str	r7, [r4, #4]
 384:.\display.c   ****                     LedPannelBuf[5]|=0x00030000;
 1336              		.loc 1 384 0
 1337 0142 6169     		ldr	r1, [r4, #20]
 385:.\display.c   ****                     LedPannelBuf[6]|=0x00030000;
 1338              		.loc 1 385 0
 1339 0144 A769     		ldr	r7, [r4, #24]
 381:.\display.c   ****                     LedPannelBuf[2]|=0x00030000;
 1340              		.loc 1 381 0
 1341 0146 0343     		orr	r3, r0
 382:.\display.c   ****                     LedPannelBuf[3]|=0x00030000;//2
 1342              		.loc 1 382 0
 1343 0148 0243     		orr	r2, r0
 383:.\display.c   ****                     LedPannelBuf[4]|=0x00030000;
 1344              		.loc 1 383 0
 1345 014a 0643     		orr	r6, r0
 384:.\display.c   ****                     LedPannelBuf[5]|=0x00030000;
 1346              		.loc 1 384 0
 1347 014c 0143     		orr	r1, r0
 385:.\display.c   ****                     LedPannelBuf[6]|=0x00030000;
 1348              		.loc 1 385 0
ARM GAS  C:\Users\ZHANGM~1\AppData\Local\Temp\ccWWGwEp.s 			page 46


 1349 014e 3843     		orr	r0, r7
 381:.\display.c   ****                     LedPannelBuf[2]|=0x00030000;
 1350              		.loc 1 381 0
 1351 0150 A360     		str	r3, [r4, #8]
 382:.\display.c   ****                     LedPannelBuf[3]|=0x00030000;//2
 1352              		.loc 1 382 0
 1353 0152 E260     		str	r2, [r4, #12]
 383:.\display.c   ****                     LedPannelBuf[4]|=0x00030000;
 1354              		.loc 1 383 0
 1355 0154 2661     		str	r6, [r4, #16]
 384:.\display.c   ****                     LedPannelBuf[5]|=0x00030000;
 1356              		.loc 1 384 0
 1357 0156 6161     		str	r1, [r4, #20]
 385:.\display.c   ****                     LedPannelBuf[6]|=0x00030000;
 1358              		.loc 1 385 0
 1359 0158 A061     		str	r0, [r4, #24]
 1360              	.L69:
 388:.\display.c   ****                 if(Error_Data.bit.Error_01_flag==1)    
 1361              		.loc 1 388 0
 1362 015a 2D78     		ldrb	r5, [r5]
 1363 015c AA07     		lsl	r2, r5, #30
 1364 015e 3BD5     		bpl	.L68
 391:.\display.c   ****                     Led_Digital_Trans(DIG3,14);
 1365              		.loc 1 391 0
 1366 0160 0F20     		mov	r0, #15
 1367 0162 0E21     		mov	r1, #14
 1368 0164 FFF7FEFF 		bl	Led_Digital_Trans
 1369              	.LVL85:
 392:.\display.c   ****                     Led_Digital_Trans(DIG4,1);
 1370              		.loc 1 392 0
 1371 0168 0E20     		mov	r0, #14
 1372 016a 0121     		mov	r1, #1
 1373 016c FFF7FEFF 		bl	Led_Digital_Trans
 1374              	.LVL86:
 393:.\display.c   ****                     LedPannelBuf[0]|=0x00030000;
 1375              		.loc 1 393 0
 1376 0170 C020     		mov	r0, #192
 1377 0172 2268     		ldr	r2, [r4]
 1378 0174 8302     		lsl	r3, r0, #10
 1379 0176 1A43     		orr	r2, r3
 394:.\display.c   ****                     LedPannelBuf[1]|=0x00030000;
 1380              		.loc 1 394 0
 1381 0178 6668     		ldr	r6, [r4, #4]
 395:.\display.c   ****                     LedPannelBuf[2]|=0x00030000;
 1382              		.loc 1 395 0
 1383 017a A168     		ldr	r1, [r4, #8]
 396:.\display.c   ****                     LedPannelBuf[3]|=0x00030000;//2
 1384              		.loc 1 396 0
 1385 017c E768     		ldr	r7, [r4, #12]
 397:.\display.c   ****                     LedPannelBuf[4]|=0x00030000;
 1386              		.loc 1 397 0
 1387 017e 2569     		ldr	r5, [r4, #16]
 398:.\display.c   ****                     LedPannelBuf[5]|=0x00030000;
 1388              		.loc 1 398 0
 1389 0180 6069     		ldr	r0, [r4, #20]
 393:.\display.c   ****                     LedPannelBuf[0]|=0x00030000;
 1390              		.loc 1 393 0
ARM GAS  C:\Users\ZHANGM~1\AppData\Local\Temp\ccWWGwEp.s 			page 47


 1391 0182 2260     		str	r2, [r4]
 399:.\display.c   ****                     LedPannelBuf[6]|=0x00030000;   
 1392              		.loc 1 399 0
 1393 0184 A269     		ldr	r2, [r4, #24]
 394:.\display.c   ****                     LedPannelBuf[1]|=0x00030000;
 1394              		.loc 1 394 0
 1395 0186 1E43     		orr	r6, r3
 395:.\display.c   ****                     LedPannelBuf[2]|=0x00030000;
 1396              		.loc 1 395 0
 1397 0188 1943     		orr	r1, r3
 396:.\display.c   ****                     LedPannelBuf[3]|=0x00030000;//2
 1398              		.loc 1 396 0
 1399 018a 1F43     		orr	r7, r3
 397:.\display.c   ****                     LedPannelBuf[4]|=0x00030000;
 1400              		.loc 1 397 0
 1401 018c 1D43     		orr	r5, r3
 398:.\display.c   ****                     LedPannelBuf[5]|=0x00030000;
 1402              		.loc 1 398 0
 1403 018e 1843     		orr	r0, r3
 399:.\display.c   ****                     LedPannelBuf[6]|=0x00030000;   
 1404              		.loc 1 399 0
 1405 0190 1343     		orr	r3, r2
 394:.\display.c   ****                     LedPannelBuf[1]|=0x00030000;
 1406              		.loc 1 394 0
 1407 0192 6660     		str	r6, [r4, #4]
 395:.\display.c   ****                     LedPannelBuf[2]|=0x00030000;
 1408              		.loc 1 395 0
 1409 0194 A160     		str	r1, [r4, #8]
 396:.\display.c   ****                     LedPannelBuf[3]|=0x00030000;//2
 1410              		.loc 1 396 0
 1411 0196 E760     		str	r7, [r4, #12]
 397:.\display.c   ****                     LedPannelBuf[4]|=0x00030000;
 1412              		.loc 1 397 0
 1413 0198 2561     		str	r5, [r4, #16]
 398:.\display.c   ****                     LedPannelBuf[5]|=0x00030000;
 1414              		.loc 1 398 0
 1415 019a 6061     		str	r0, [r4, #20]
 399:.\display.c   ****                     LedPannelBuf[6]|=0x00030000;   
 1416              		.loc 1 399 0
 1417 019c A361     		str	r3, [r4, #24]
 1418 019e 1BE0     		b	.L68
 1419              	.L66:
 405:.\display.c   ****       else if(WorkFlag01.bit.tds_00_disp==1)
 1420              		.loc 1 405 0
 1421 01a0 714F     		ldr	r7, .L197+24
 1422 01a2 724D     		ldr	r5, .L197+28
 1423 01a4 3B78     		ldrb	r3, [r7]
 1424 01a6 3342     		tst	r3, r6
 1425 01a8 01D0     		beq	.L71
 407:.\display.c   **** 			    display8888(Value_Tds0);
 1426              		.loc 1 407 0
 1427 01aa 7148     		ldr	r0, .L197+32
 1428 01ac 02E0     		b	.L165
 1429              	.L71:
 410:.\display.c   **** 			else if(WorkFlag01.bit.tds_01_disp==1)
 1430              		.loc 1 410 0
 1431 01ae 9E07     		lsl	r6, r3, #30
ARM GAS  C:\Users\ZHANGM~1\AppData\Local\Temp\ccWWGwEp.s 			page 48


 1432 01b0 08D5     		bpl	.L72
 412:.\display.c   **** 			    display8888(Value_Tds1);
 1433              		.loc 1 412 0
 1434 01b2 7048     		ldr	r0, .L197+36
 1435              	.L165:
 1436 01b4 0088     		ldrh	r0, [r0]
 1437 01b6 FFF7FEFF 		bl	display8888
 1438              	.LVL87:
 413:.\display.c   **** 			    DisFlag.jsll=0;
 1439              		.loc 1 413 0
 1440 01ba 6F78     		ldrb	r7, [r5, #1]
 1441 01bc 0423     		mov	r3, #4
 1442 01be 9F43     		bic	r7, r3
 1443 01c0 6F70     		strb	r7, [r5, #1]
 1444 01c2 09E0     		b	.L68
 1445              	.L72:
 415:.\display.c   ****      	else if(WorkFlag01.bit.water_consumption_02_disp==1)																		//
 1446              		.loc 1 415 0
 1447 01c4 0426     		mov	r6, #4
 1448 01c6 3342     		tst	r3, r6
 1449 01c8 06D0     		beq	.L68
 417:.\display.c   **** 					display8888(jingshuiliang);
 1450              		.loc 1 417 0
 1451 01ca 6B4A     		ldr	r2, .L197+40
 1452 01cc 1088     		ldrh	r0, [r2]
 1453 01ce FFF7FEFF 		bl	display8888
 1454              	.LVL88:
 418:.\display.c   **** 					DisFlag.jsll=1;
 1455              		.loc 1 418 0
 1456 01d2 6978     		ldrb	r1, [r5, #1]
 1457 01d4 0E43     		orr	r6, r1
 1458 01d6 6E70     		strb	r6, [r5, #1]
 1459              	.L68:
 425:.\display.c   ****         LedPannelBuf[S_CON] &= ~((0x000003ff >> (10-SPercent))<<S_SHIFT);
 1460              		.loc 1 425 0
 1461 01d8 684B     		ldr	r3, .L197+44
 1462 01da 0A22     		mov	r2, #10
 1463 01dc 1E78     		ldrb	r6, [r3]
 1464 01de 684B     		ldr	r3, .L197+48
 1465 01e0 911B     		sub	r1, r2, r6
 1466 01e2 1F1C     		mov	r7, r3
 1467 01e4 0F41     		asr	r7, r7, r1
 1468 01e6 F800     		lsl	r0, r7, #3
 427:.\display.c   ****         LedPannelBuf[H_CON] &= ~((0x000003ff >> (10-HPercent))<<H_SHIFT);
 1469              		.loc 1 427 0
 1470 01e8 664F     		ldr	r7, .L197+52
 424:.\display.c   ****         LedPannelBuf[S_CON] |= (0x000003ff<<S_SHIFT);
 1471              		.loc 1 424 0
 1472 01ea 6749     		ldr	r1, .L197+56
 1473 01ec 2668     		ldr	r6, [r4]
 427:.\display.c   ****         LedPannelBuf[H_CON] &= ~((0x000003ff >> (10-HPercent))<<H_SHIFT);
 1474              		.loc 1 427 0
 1475 01ee 3D78     		ldrb	r5, [r7]
 424:.\display.c   ****         LedPannelBuf[S_CON] |= (0x000003ff<<S_SHIFT);
 1476              		.loc 1 424 0
 1477 01f0 0E43     		orr	r6, r1
 427:.\display.c   ****         LedPannelBuf[H_CON] &= ~((0x000003ff >> (10-HPercent))<<H_SHIFT);
ARM GAS  C:\Users\ZHANGM~1\AppData\Local\Temp\ccWWGwEp.s 			page 49


 1478              		.loc 1 427 0
 1479 01f2 1F1C     		mov	r7, r3
 425:.\display.c   ****         LedPannelBuf[S_CON] &= ~((0x000003ff >> (10-SPercent))<<S_SHIFT);
 1480              		.loc 1 425 0
 1481 01f4 8643     		bic	r6, r0
 427:.\display.c   ****         LedPannelBuf[H_CON] &= ~((0x000003ff >> (10-HPercent))<<H_SHIFT);
 1482              		.loc 1 427 0
 1483 01f6 501B     		sub	r0, r2, r5
 1484 01f8 0741     		asr	r7, r7, r0
 426:.\display.c   ****         LedPannelBuf[H_CON] |= (0x000003ff<<H_SHIFT);
 1485              		.loc 1 426 0
 1486 01fa 6568     		ldr	r5, [r4, #4]
 427:.\display.c   ****         LedPannelBuf[H_CON] &= ~((0x000003ff >> (10-HPercent))<<H_SHIFT);
 1487              		.loc 1 427 0
 1488 01fc F800     		lsl	r0, r7, #3
 429:.\display.c   ****         LedPannelBuf[J_CON] &= ~((0x000003ff >> (10-JPercent))<<J_SHIFT);
 1489              		.loc 1 429 0
 1490 01fe 634F     		ldr	r7, .L197+60
 426:.\display.c   ****         LedPannelBuf[H_CON] |= (0x000003ff<<H_SHIFT);
 1491              		.loc 1 426 0
 1492 0200 0D43     		orr	r5, r1
 427:.\display.c   ****         LedPannelBuf[H_CON] &= ~((0x000003ff >> (10-HPercent))<<H_SHIFT);
 1493              		.loc 1 427 0
 1494 0202 8543     		bic	r5, r0
 429:.\display.c   ****         LedPannelBuf[J_CON] &= ~((0x000003ff >> (10-JPercent))<<J_SHIFT);
 1495              		.loc 1 429 0
 1496 0204 3878     		ldrb	r0, [r7]
 1497 0206 171A     		sub	r7, r2, r0
 1498 0208 181C     		mov	r0, r3
 1499 020a 3841     		asr	r0, r0, r7
 1500 020c C700     		lsl	r7, r0, #3
 428:.\display.c   ****         LedPannelBuf[J_CON] |= (0x000003ff<<J_SHIFT);
 1501              		.loc 1 428 0
 1502 020e A068     		ldr	r0, [r4, #8]
 1503 0210 0843     		orr	r0, r1
 429:.\display.c   ****         LedPannelBuf[J_CON] &= ~((0x000003ff >> (10-JPercent))<<J_SHIFT);
 1504              		.loc 1 429 0
 1505 0212 B843     		bic	r0, r7
 431:.\display.c   ****         LedPannelBuf[K_CON] &= ~((0x000003ff >> (10-KPercent))<<K_SHIFT);
 1506              		.loc 1 431 0
 1507 0214 5E4F     		ldr	r7, .L197+64
 429:.\display.c   ****         LedPannelBuf[J_CON] &= ~((0x000003ff >> (10-JPercent))<<J_SHIFT);
 1508              		.loc 1 429 0
 1509 0216 0190     		str	r0, [sp, #4]
 431:.\display.c   ****         LedPannelBuf[K_CON] &= ~((0x000003ff >> (10-KPercent))<<K_SHIFT);
 1510              		.loc 1 431 0
 1511 0218 3878     		ldrb	r0, [r7]
 1512 021a 171A     		sub	r7, r2, r0
 1513 021c 181C     		mov	r0, r3
 1514 021e 3841     		asr	r0, r0, r7
 1515 0220 C700     		lsl	r7, r0, #3
 430:.\display.c   ****         LedPannelBuf[K_CON] |= (0x000003ff<<K_SHIFT);
 1516              		.loc 1 430 0
 1517 0222 E068     		ldr	r0, [r4, #12]
 1518 0224 0843     		orr	r0, r1
 431:.\display.c   ****         LedPannelBuf[K_CON] &= ~((0x000003ff >> (10-KPercent))<<K_SHIFT);
 1519              		.loc 1 431 0
ARM GAS  C:\Users\ZHANGM~1\AppData\Local\Temp\ccWWGwEp.s 			page 50


 1520 0226 B843     		bic	r0, r7
 433:.\display.c   ****         LedPannelBuf[L_CON] &= ~((0x000003ff >> (10-LPercent))<<L_SHIFT);
 1521              		.loc 1 433 0
 1522 0228 5A4F     		ldr	r7, .L197+68
 431:.\display.c   ****         LedPannelBuf[K_CON] &= ~((0x000003ff >> (10-KPercent))<<K_SHIFT);
 1523              		.loc 1 431 0
 1524 022a 0290     		str	r0, [sp, #8]
 433:.\display.c   ****         LedPannelBuf[L_CON] &= ~((0x000003ff >> (10-LPercent))<<L_SHIFT);
 1525              		.loc 1 433 0
 1526 022c 3878     		ldrb	r0, [r7]
 1527 022e 171A     		sub	r7, r2, r0
 1528 0230 181C     		mov	r0, r3
 1529 0232 3841     		asr	r0, r0, r7
 1530 0234 C700     		lsl	r7, r0, #3
 432:.\display.c   ****         LedPannelBuf[L_CON] |= (0x000003ff<<L_SHIFT);
 1531              		.loc 1 432 0
 1532 0236 2069     		ldr	r0, [r4, #16]
 1533 0238 0843     		orr	r0, r1
 433:.\display.c   ****         LedPannelBuf[L_CON] &= ~((0x000003ff >> (10-LPercent))<<L_SHIFT);
 1534              		.loc 1 433 0
 1535 023a B843     		bic	r0, r7
 435:.\display.c   ****         LedPannelBuf[M_CON] &= ~((0x000003ff >> (10-MPercent))<<M_SHIFT);
 1536              		.loc 1 435 0
 1537 023c 564F     		ldr	r7, .L197+72
 433:.\display.c   ****         LedPannelBuf[L_CON] &= ~((0x000003ff >> (10-LPercent))<<L_SHIFT);
 1538              		.loc 1 433 0
 1539 023e 8446     		mov	ip, r0
 435:.\display.c   ****         LedPannelBuf[M_CON] &= ~((0x000003ff >> (10-MPercent))<<M_SHIFT);
 1540              		.loc 1 435 0
 1541 0240 3878     		ldrb	r0, [r7]
 1542 0242 121A     		sub	r2, r2, r0
 434:.\display.c   ****         LedPannelBuf[M_CON] |= (0x000003ff<<M_SHIFT);
 1543              		.loc 1 434 0
 1544 0244 6069     		ldr	r0, [r4, #20]
 435:.\display.c   ****         LedPannelBuf[M_CON] &= ~((0x000003ff >> (10-MPercent))<<M_SHIFT);
 1545              		.loc 1 435 0
 1546 0246 1341     		asr	r3, r3, r2
 1547 0248 DB00     		lsl	r3, r3, #3
 434:.\display.c   ****         LedPannelBuf[M_CON] |= (0x000003ff<<M_SHIFT);
 1548              		.loc 1 434 0
 1549 024a 0843     		orr	r0, r1
 435:.\display.c   ****         LedPannelBuf[M_CON] &= ~((0x000003ff >> (10-MPercent))<<M_SHIFT);
 1550              		.loc 1 435 0
 1551 024c 9843     		bic	r0, r3
 436:.\display.c   ****         if(DisFlag.sflash)
 1552              		.loc 1 436 0
 1553 024e 474B     		ldr	r3, .L197+28
 1554 0250 5A78     		ldrb	r2, [r3, #1]
 1555 0252 1707     		lsl	r7, r2, #28
 1556 0254 05D5     		bpl	.L74
 438:.\display.c   ****             if(DisFlag.flashsta)
 1557              		.loc 1 438 0
 1558 0256 DF78     		ldrb	r7, [r3, #3]
 1559 0258 FF09     		lsr	r7, r7, #7
 1560 025a 02D1     		bne	.L74
 1561              	.L75:
 443:.\display.c   ****                 LedPannelBuf[S_CON] |= (0x00000003 << 1);
ARM GAS  C:\Users\ZHANGM~1\AppData\Local\Temp\ccWWGwEp.s 			page 51


 1562              		.loc 1 443 0
 1563 025c 0627     		mov	r7, #6
 1564 025e 3E43     		orr	r6, r7
 1565 0260 01E0     		b	.L166
 1566              	.L74:
 447:.\display.c   ****             LedPannelBuf[S_CON] &= ~(0x00000003 << 1);
 1567              		.loc 1 447 0
 1568 0262 0627     		mov	r7, #6
 1569 0264 BE43     		bic	r6, r7
 1570              	.L166:
 1571 0266 2660     		str	r6, [r4]
 1572 0268 3A4C     		ldr	r4, .L197+4
 449:.\display.c   ****         if(DisFlag.hflash)
 1573              		.loc 1 449 0
 1574 026a D606     		lsl	r6, r2, #27
 1575 026c 05D5     		bpl	.L77
 451:.\display.c   ****             if(DisFlag.flashsta)
 1576              		.loc 1 451 0
 1577 026e DF78     		ldrb	r7, [r3, #3]
 1578 0270 0626     		mov	r6, #6
 1579 0272 FF09     		lsr	r7, r7, #7
 1580 0274 02D1     		bne	.L167
 1581              	.L78:
 456:.\display.c   ****                 LedPannelBuf[H_CON] |= (0x00000003 << 1);
 1582              		.loc 1 456 0
 1583 0276 3543     		orr	r5, r6
 1584 0278 01E0     		b	.L168
 1585              	.L77:
 460:.\display.c   ****             LedPannelBuf[H_CON] &= ~(0x00000003 << 1);
 1586              		.loc 1 460 0
 1587 027a 0626     		mov	r6, #6
 1588              	.L167:
 1589 027c B543     		bic	r5, r6
 1590              	.L168:
 1591 027e 6560     		str	r5, [r4, #4]
 462:.\display.c   ****         if(DisFlag.jflash)
 1592              		.loc 1 462 0
 1593 0280 9706     		lsl	r7, r2, #26
 1594 0282 07D5     		bpl	.L80
 464:.\display.c   ****             if(DisFlag.flashsta)
 1595              		.loc 1 464 0
 1596 0284 DD78     		ldrb	r5, [r3, #3]
 1597 0286 EE09     		lsr	r6, r5, #7
 1598 0288 0625     		mov	r5, #6
 1599 028a 002E     		cmp	r6, #0
 1600 028c 03D1     		bne	.L169
 1601              	.L81:
 469:.\display.c   ****                 LedPannelBuf[J_CON] |= (0x00000003 << 1);
 1602              		.loc 1 469 0
 1603 028e 019F     		ldr	r7, [sp, #4]
 1604 0290 3D43     		orr	r5, r7
 1605 0292 03E0     		b	.L170
 1606              	.L80:
 473:.\display.c   ****             LedPannelBuf[J_CON] &= ~(0x00000003 << 1);
 1607              		.loc 1 473 0
 1608 0294 0625     		mov	r5, #6
 1609              	.L169:
ARM GAS  C:\Users\ZHANGM~1\AppData\Local\Temp\ccWWGwEp.s 			page 52


 1610 0296 019E     		ldr	r6, [sp, #4]
 1611 0298 AE43     		bic	r6, r5
 1612 029a 351C     		mov	r5, r6
 1613              	.L170:
 1614 029c A560     		str	r5, [r4, #8]
 475:.\display.c   ****         if(DisFlag.kflash)
 1615              		.loc 1 475 0
 1616 029e 5706     		lsl	r7, r2, #25
 1617 02a0 06D5     		bpl	.L83
 477:.\display.c   ****             if(DisFlag.flashsta)
 1618              		.loc 1 477 0
 1619 02a2 DF78     		ldrb	r7, [r3, #3]
 1620 02a4 0625     		mov	r5, #6
 1621 02a6 FE09     		lsr	r6, r7, #7
 1622 02a8 03D1     		bne	.L171
 1623              	.L84:
 482:.\display.c   ****                 LedPannelBuf[K_CON] |= (0x00000003 << 1);
 1624              		.loc 1 482 0
 1625 02aa 029F     		ldr	r7, [sp, #8]
 1626 02ac 3D43     		orr	r5, r7
 1627 02ae 03E0     		b	.L172
 1628              	.L83:
 486:.\display.c   ****             LedPannelBuf[K_CON] &= ~(0x00000003 << 1);
 1629              		.loc 1 486 0
 1630 02b0 0625     		mov	r5, #6
 1631              	.L171:
 1632 02b2 029E     		ldr	r6, [sp, #8]
 1633 02b4 AE43     		bic	r6, r5
 1634 02b6 351C     		mov	r5, r6
 1635              	.L172:
 488:.\display.c   ****         if(DisFlag.lflash)
 1636              		.loc 1 488 0
 1637 02b8 7F27     		mov	r7, #127
 1638 02ba 161C     		mov	r6, r2
 486:.\display.c   ****             LedPannelBuf[K_CON] &= ~(0x00000003 << 1);
 1639              		.loc 1 486 0
 1640 02bc E560     		str	r5, [r4, #12]
 488:.\display.c   ****         if(DisFlag.lflash)
 1641              		.loc 1 488 0
 1642 02be BE43     		bic	r6, r7
 1643 02c0 06D0     		beq	.L86
 490:.\display.c   ****             if(DisFlag.flashsta)
 1644              		.loc 1 490 0
 1645 02c2 DE78     		ldrb	r6, [r3, #3]
 1646 02c4 0625     		mov	r5, #6
 1647 02c6 BE43     		bic	r6, r7
 1648 02c8 03D1     		bne	.L173
 1649              	.L87:
 495:.\display.c   ****                 LedPannelBuf[L_CON] |= (0x00000003 << 1);
 1650              		.loc 1 495 0
 1651 02ca 6746     		mov	r7, ip
 1652 02cc 3D43     		orr	r5, r7
 1653 02ce 03E0     		b	.L174
 1654              	.L86:
 499:.\display.c   ****             LedPannelBuf[L_CON] &= ~(0x00000003 << 1);
 1655              		.loc 1 499 0
 1656 02d0 0625     		mov	r5, #6
ARM GAS  C:\Users\ZHANGM~1\AppData\Local\Temp\ccWWGwEp.s 			page 53


 1657              	.L173:
 1658 02d2 6646     		mov	r6, ip
 1659 02d4 AE43     		bic	r6, r5
 1660 02d6 351C     		mov	r5, r6
 1661              	.L174:
 1662 02d8 2561     		str	r5, [r4, #16]
 501:.\display.c   ****         if(DisFlag.mflash)
 1663              		.loc 1 501 0
 1664 02da 9D78     		ldrb	r5, [r3, #2]
 1665 02dc EE07     		lsl	r6, r5, #31
 1666 02de 05D5     		bpl	.L89
 503:.\display.c   ****             if(DisFlag.flashsta)
 1667              		.loc 1 503 0
 1668 02e0 DF78     		ldrb	r7, [r3, #3]
 1669 02e2 0626     		mov	r6, #6
 1670 02e4 FF09     		lsr	r7, r7, #7
 1671 02e6 02D1     		bne	.L175
 1672              	.L90:
 508:.\display.c   ****                 LedPannelBuf[M_CON] |= (0x00000003 << 1);
 1673              		.loc 1 508 0
 1674 02e8 3043     		orr	r0, r6
 1675 02ea 01E0     		b	.L176
 1676              	.L89:
 512:.\display.c   ****             LedPannelBuf[M_CON] &= ~(0x00000003 << 1);
 1677              		.loc 1 512 0
 1678 02ec 0626     		mov	r6, #6
 1679              	.L175:
 1680 02ee B043     		bic	r0, r6
 1681              	.L176:
 1682 02f0 6061     		str	r0, [r4, #20]
 514:.\display.c   ****         if(FlashCnt > TIMER500MS)
 1683              		.loc 1 514 0
 1684 02f2 2A48     		ldr	r0, .L197+76
 1685 02f4 0678     		ldrb	r6, [r0]
 1686 02f6 052E     		cmp	r6, #5
 1687 02f8 0AD9     		bls	.L92
 516:.\display.c   ****             FlashCnt = 0;
 1688              		.loc 1 516 0
 1689 02fa 0027     		mov	r7, #0
 1690 02fc 0770     		strb	r7, [r0]
 517:.\display.c   ****             DisFlag.flashsta = !DisFlag.flashsta;
 1691              		.loc 1 517 0
 1692 02fe D878     		ldrb	r0, [r3, #3]
 1693 0300 C643     		mvn	r6, r0
 1694 0302 F7B2     		uxtb	r7, r6
 1695 0304 FE09     		lsr	r6, r7, #7
 1696 0306 7F27     		mov	r7, #127
 1697 0308 F601     		lsl	r6, r6, #7
 1698 030a 3840     		and	r0, r7
 1699 030c 3043     		orr	r0, r6
 1700 030e D870     		strb	r0, [r3, #3]
 1701              	.L92:
 519:.\display.c   ****         if(DisFlag.wifierror)
 1702              		.loc 1 519 0
 1703 0310 AF07     		lsl	r7, r5, #30
 1704 0312 03D5     		bpl	.L93
 521:.\display.c   ****             LedPannelBuf[P5_CON] &= ~(1 << P5);
ARM GAS  C:\Users\ZHANGM~1\AppData\Local\Temp\ccWWGwEp.s 			page 54


 1705              		.loc 1 521 0
 1706 0314 2248     		ldr	r0, .L197+80
 1707 0316 2769     		ldr	r7, [r4, #16]
 1708 0318 3840     		and	r0, r7
 1709 031a 03E0     		b	.L177
 1710              	.L93:
 524:.\display.c   ****             LedPannelBuf[P5_CON] |= (1 << P5);
 1711              		.loc 1 524 0
 1712 031c 8020     		mov	r0, #128
 1713 031e 2669     		ldr	r6, [r4, #16]
 1714 0320 8001     		lsl	r0, r0, #6
 1715 0322 3043     		orr	r0, r6
 1716              	.L177:
 1717 0324 2061     		str	r0, [r4, #16]
 526:.\display.c   ****         if(DisFlag.wifilinkingsignflash==0)
 1718              		.loc 1 526 0
 1719 0326 2807     		lsl	r0, r5, #28
 1720 0328 09D4     		bmi	.L95
 1721 032a 0120     		mov	r0, #1
 528:.\display.c   ****             if(DisFlag.wifilinkingsign)
 1722              		.loc 1 528 0
 1723 032c 6E07     		lsl	r6, r5, #29
 1724 032e 03D5     		bpl	.L96
 530:.\display.c   ****                 LedPannelBuf[N14_CON] &= ~(1 << N14);
 1725              		.loc 1 530 0
 1726 0330 6668     		ldr	r6, [r4, #4]
 1727 0332 8643     		bic	r6, r0
 1728 0334 301C     		mov	r0, r6
 1729 0336 37E0     		b	.L178
 1730              	.L96:
 533:.\display.c   ****                 LedPannelBuf[N14_CON] |= (1 << N14);
 1731              		.loc 1 533 0
 1732 0338 6768     		ldr	r7, [r4, #4]
 1733 033a 3843     		orr	r0, r7
 1734 033c 34E0     		b	.L178
 1735              	.L95:
 538:.\display.c   ****            if(DisFlag.sta)
 1736              		.loc 1 538 0
 1737 033e DE78     		ldrb	r6, [r3, #3]
 1738 0340 0120     		mov	r0, #1
 1739 0342 7706     		lsl	r7, r6, #25
 1740 0344 2ED5     		bpl	.L98
 540:.\display.c   ****                 LedPannelBuf[N14_CON] &= ~(1 << N14);
 1741              		.loc 1 540 0
 1742 0346 6668     		ldr	r6, [r4, #4]
 1743 0348 8643     		bic	r6, r0
 1744 034a 301C     		mov	r0, r6
 1745 034c 2CE0     		b	.L178
 1746              	.L198:
 1747 034e C046     		.align	2
 1748              	.L197:
 1749 0350 00000000 		.word	Error_Data
 1750 0354 00000000 		.word	LedPannelBuf
 1751 0358 00000000 		.word	eroorcnt
 1752 035c FF1F0300 		.word	204799
 1753 0360 00000000 		.word	WorkFlag
 1754 0364 01000001 		.word	16777217
ARM GAS  C:\Users\ZHANGM~1\AppData\Local\Temp\ccWWGwEp.s 			page 55


 1755 0368 00000000 		.word	WorkFlag01
 1756 036c 00000000 		.word	DisFlag
 1757 0370 00000000 		.word	Value_Tds0
 1758 0374 00000000 		.word	Value_Tds1
 1759 0378 00000000 		.word	jingshuiliang
 1760 037c 00000000 		.word	SPercent
 1761 0380 FF030000 		.word	1023
 1762 0384 00000000 		.word	HPercent
 1763 0388 F81F0000 		.word	8184
 1764 038c 00000000 		.word	JPercent
 1765 0390 00000000 		.word	KPercent
 1766 0394 00000000 		.word	LPercent
 1767 0398 00000000 		.word	MPercent
 1768 039c 00000000 		.word	FlashCnt
 1769 03a0 FFDFFFFF 		.word	-8193
 1770              	.L98:
 543:.\display.c   ****                 LedPannelBuf[N14_CON] |= (1 << N14);
 1771              		.loc 1 543 0
 1772 03a4 6768     		ldr	r7, [r4, #4]
 1773 03a6 3843     		orr	r0, r7
 1774              	.L178:
 1775 03a8 6060     		str	r0, [r4, #4]
 546:.\display.c   ****         if(DisFlag.working)
 1776              		.loc 1 546 0
 1777 03aa 1878     		ldrb	r0, [r3]
 1778 03ac C607     		lsl	r6, r0, #31
 1779 03ae 03D5     		bpl	.L99
 549:.\display.c   ****             LedPannelBuf[N4_CON] &= ~(1 << N4);
 1780              		.loc 1 549 0
 1781 03b0 804E     		ldr	r6, .L199
 1782 03b2 A769     		ldr	r7, [r4, #24]
 1783 03b4 3E40     		and	r6, r7
 1784 03b6 03E0     		b	.L179
 1785              	.L99:
 553:.\display.c   ****             LedPannelBuf[N4_CON] |= (1 << N4);
 1786              		.loc 1 553 0
 1787 03b8 C027     		mov	r7, #192
 1788 03ba FE00     		lsl	r6, r7, #3
 1789 03bc A769     		ldr	r7, [r4, #24]
 1790 03be 3E43     		orr	r6, r7
 1791              	.L179:
 1792 03c0 A661     		str	r6, [r4, #24]
 555:.\display.c   ****         if(DisFlag.workingsignflash == 0)
 1793              		.loc 1 555 0
 1794 03c2 EE06     		lsl	r6, r5, #27
 1795 03c4 02D4     		bmi	.L101
 558:.\display.c   ****             if(DisFlag.workingsign)
 1796              		.loc 1 558 0
 1797 03c6 8707     		lsl	r7, r0, #30
 1798 03c8 07D5     		bpl	.L104
 1799 03ca 02E0     		b	.L195
 1800              	.L101:
 569:.\display.c   ****            if(DisFlag.sta)
 1801              		.loc 1 569 0
 1802 03cc DE78     		ldrb	r6, [r3, #3]
 1803 03ce 7706     		lsl	r7, r6, #25
 1804 03d0 03D5     		bpl	.L104
ARM GAS  C:\Users\ZHANGM~1\AppData\Local\Temp\ccWWGwEp.s 			page 56


 1805              	.L195:
 572:.\display.c   ****                 LedPannelBuf[N2_CON] &= ~(1 << N2);
 1806              		.loc 1 572 0
 1807 03d2 794E     		ldr	r6, .L199+4
 1808 03d4 A769     		ldr	r7, [r4, #24]
 1809 03d6 3E40     		and	r6, r7
 1810 03d8 03E0     		b	.L180
 1811              	.L104:
 576:.\display.c   ****                 LedPannelBuf[N2_CON] |= (1 << N2);
 1812              		.loc 1 576 0
 1813 03da C027     		mov	r7, #192
 1814 03dc 7E01     		lsl	r6, r7, #5
 1815 03de A769     		ldr	r7, [r4, #24]
 1816 03e0 3E43     		orr	r6, r7
 1817              	.L180:
 1818 03e2 A661     		str	r6, [r4, #24]
 580:.\display.c   ****         if(DisFlag.outofwater)
 1819              		.loc 1 580 0
 1820 03e4 4607     		lsl	r6, r0, #29
 1821 03e6 03D5     		bpl	.L105
 583:.\display.c   ****             LedPannelBuf[N6_CON] &= ~(1 << N6);
 1822              		.loc 1 583 0
 1823 03e8 744E     		ldr	r6, .L199+8
 1824 03ea A769     		ldr	r7, [r4, #24]
 1825 03ec 3E40     		and	r6, r7
 1826 03ee 03E0     		b	.L181
 1827              	.L105:
 587:.\display.c   ****             LedPannelBuf[N6_CON] |= (1 << N6);
 1828              		.loc 1 587 0
 1829 03f0 C026     		mov	r6, #192
 1830 03f2 A769     		ldr	r7, [r4, #24]
 1831 03f4 7600     		lsl	r6, r6, #1
 1832 03f6 3E43     		orr	r6, r7
 1833              	.L181:
 1834 03f8 A661     		str	r6, [r4, #24]
 589:.\display.c   ****         if(DisFlag.outofwatersignflash == 0)
 1835              		.loc 1 589 0
 1836 03fa AE06     		lsl	r6, r5, #26
 1837 03fc 02D4     		bmi	.L107
 591:.\display.c   ****             if(DisFlag.outofwatersign)
 1838              		.loc 1 591 0
 1839 03fe 0707     		lsl	r7, r0, #28
 1840 0400 0AD5     		bpl	.L110
 1841 0402 02E0     		b	.L196
 1842              	.L107:
 602:.\display.c   ****             if(DisFlag.sta)
 1843              		.loc 1 602 0
 1844 0404 DE78     		ldrb	r6, [r3, #3]
 1845 0406 7706     		lsl	r7, r6, #25
 1846 0408 06D5     		bpl	.L110
 1847              	.L196:
 604:.\display.c   ****                 LedPannelBuf[P3_CON] &= ~(1 << P3);
 1848              		.loc 1 604 0
 1849 040a 6D4E     		ldr	r6, .L199+12
 1850 040c A768     		ldr	r7, [r4, #8]
 1851 040e 3740     		and	r7, r6
 1852 0410 A760     		str	r7, [r4, #8]
ARM GAS  C:\Users\ZHANGM~1\AppData\Local\Temp\ccWWGwEp.s 			page 57


 605:.\display.c   ****                 LedPannelBuf[P4_CON] &= ~(1 << P4);
 1853              		.loc 1 605 0
 1854 0412 E768     		ldr	r7, [r4, #12]
 1855 0414 3E40     		and	r6, r7
 1856 0416 06E0     		b	.L182
 1857              	.L110:
 608:.\display.c   ****                 LedPannelBuf[P3_CON] |= (1 << P3);
 1858              		.loc 1 608 0
 1859 0418 8027     		mov	r7, #128
 1860 041a BE01     		lsl	r6, r7, #6
 1861 041c A768     		ldr	r7, [r4, #8]
 1862 041e 3743     		orr	r7, r6
 1863 0420 A760     		str	r7, [r4, #8]
 609:.\display.c   ****                 LedPannelBuf[P4_CON] |= (1 << P4);
 1864              		.loc 1 609 0
 1865 0422 E768     		ldr	r7, [r4, #12]
 1866 0424 3E43     		orr	r6, r7
 1867              	.L182:
 1868 0426 E660     		str	r6, [r4, #12]
 1869 0428 6026     		mov	r6, #96
 613:.\display.c   ****         if(DisFlag.cleaning)
 1870              		.loc 1 613 0
 1871 042a 4706     		lsl	r7, r0, #25
 1872 042c 03D5     		bpl	.L111
 616:.\display.c   ****             LedPannelBuf[N8_CON] &= ~(1 << N8);
 1873              		.loc 1 616 0
 1874 042e A769     		ldr	r7, [r4, #24]
 1875 0430 B743     		bic	r7, r6
 1876 0432 3E1C     		mov	r6, r7
 1877 0434 01E0     		b	.L183
 1878              	.L111:
 620:.\display.c   ****             LedPannelBuf[N8_CON] |= (1 << N8);
 1879              		.loc 1 620 0
 1880 0436 A769     		ldr	r7, [r4, #24]
 1881 0438 3E43     		orr	r6, r7
 1882              	.L183:
 623:.\display.c   ****         if(DisFlag.cleaningsignflash == 0)
 1883              		.loc 1 623 0
 1884 043a 4027     		mov	r7, #64
 620:.\display.c   ****             LedPannelBuf[N8_CON] |= (1 << N8);
 1885              		.loc 1 620 0
 1886 043c A661     		str	r6, [r4, #24]
 623:.\display.c   ****         if(DisFlag.cleaningsignflash == 0)
 1887              		.loc 1 623 0
 1888 043e 3D42     		tst	r5, r7
 1889 0440 07D1     		bne	.L113
 625:.\display.c   ****             if(DisFlag.cleaningsign)
 1890              		.loc 1 625 0
 1891 0442 C709     		lsr	r7, r0, #7
 1892 0444 1826     		mov	r6, #24
 1893 0446 002F     		cmp	r7, #0
 1894 0448 0BD0     		beq	.L185
 628:.\display.c   ****                 LedPannelBuf[N10_CON] &= ~(1 << N10);
 1895              		.loc 1 628 0
 1896 044a A769     		ldr	r7, [r4, #24]
 1897 044c B743     		bic	r7, r6
 1898 044e 3E1C     		mov	r6, r7
ARM GAS  C:\Users\ZHANGM~1\AppData\Local\Temp\ccWWGwEp.s 			page 58


 1899 0450 09E0     		b	.L184
 1900              	.L113:
 636:.\display.c   ****             if(DisFlag.sta)
 1901              		.loc 1 636 0
 1902 0452 DE78     		ldrb	r6, [r3, #3]
 1903 0454 3E42     		tst	r6, r7
 1904 0456 03D0     		beq	.L116
 639:.\display.c   ****                 LedPannelBuf[N10_CON] &= ~(1 << N10);
 1905              		.loc 1 639 0
 1906 0458 A669     		ldr	r6, [r4, #24]
 1907 045a 1827     		mov	r7, #24
 1908 045c BE43     		bic	r6, r7
 1909 045e 02E0     		b	.L184
 1910              	.L116:
 643:.\display.c   ****                 LedPannelBuf[N10_CON] |= (1 << N10);
 1911              		.loc 1 643 0
 1912 0460 1826     		mov	r6, #24
 1913              	.L185:
 1914 0462 A769     		ldr	r7, [r4, #24]
 1915 0464 3E43     		orr	r6, r7
 1916              	.L184:
 1917 0466 A661     		str	r6, [r4, #24]
 1918 0468 0626     		mov	r6, #6
 647:.\display.c   ****         if(DisFlag.error)
 1919              		.loc 1 647 0
 1920 046a D707     		lsl	r7, r2, #31
 1921 046c 03D5     		bpl	.L117
 650:.\display.c   ****             LedPannelBuf[N12_CON] &= ~(1 << N12);
 1922              		.loc 1 650 0
 1923 046e A769     		ldr	r7, [r4, #24]
 1924 0470 B743     		bic	r7, r6
 1925 0472 3E1C     		mov	r6, r7
 1926 0474 01E0     		b	.L186
 1927              	.L117:
 654:.\display.c   ****             LedPannelBuf[N12_CON] |= (1 << N12);
 1928              		.loc 1 654 0
 1929 0476 A769     		ldr	r7, [r4, #24]
 1930 0478 3E43     		orr	r6, r7
 1931              	.L186:
 1932 047a A661     		str	r6, [r4, #24]
 657:.\display.c   ****         if(DisFlag.errorsignflash == 0)
 1933              		.loc 1 657 0
 1934 047c ED09     		lsr	r5, r5, #7
 1935 047e 10D1     		bne	.L119
 659:.\display.c   ****             if(DisFlag.errorsign)
 1936              		.loc 1 659 0
 1937 0480 9507     		lsl	r5, r2, #30
 1938 0482 06D5     		bpl	.L120
 661:.\display.c   ****                 LedPannelBuf[P1_CON] &= ~(1 << P1);
 1939              		.loc 1 661 0
 1940 0484 4E4D     		ldr	r5, .L199+12
 1941 0486 2668     		ldr	r6, [r4]
 662:.\display.c   ****                 LedPannelBuf[P2_CON] &= ~(1 << P2);
 1942              		.loc 1 662 0
 1943 0488 6768     		ldr	r7, [r4, #4]
 661:.\display.c   ****                 LedPannelBuf[P1_CON] &= ~(1 << P1);
 1944              		.loc 1 661 0
ARM GAS  C:\Users\ZHANGM~1\AppData\Local\Temp\ccWWGwEp.s 			page 59


 1945 048a 2E40     		and	r6, r5
 1946 048c 2660     		str	r6, [r4]
 662:.\display.c   ****                 LedPannelBuf[P2_CON] &= ~(1 << P2);
 1947              		.loc 1 662 0
 1948 048e 3D40     		and	r5, r7
 1949 0490 18E0     		b	.L187
 1950              	.L120:
 665:.\display.c   ****                 LedPannelBuf[P1_CON] |= (1 << P1);
 1951              		.loc 1 665 0
 1952 0492 2668     		ldr	r6, [r4]
 1953 0494 8025     		mov	r5, #128
 1954 0496 AD01     		lsl	r5, r5, #6
 666:.\display.c   ****                 LedPannelBuf[P2_CON] |= (1 << P2);
 1955              		.loc 1 666 0
 1956 0498 6768     		ldr	r7, [r4, #4]
 665:.\display.c   ****                 LedPannelBuf[P1_CON] |= (1 << P1);
 1957              		.loc 1 665 0
 1958 049a 2E43     		orr	r6, r5
 1959 049c 2660     		str	r6, [r4]
 666:.\display.c   ****                 LedPannelBuf[P2_CON] |= (1 << P2);
 1960              		.loc 1 666 0
 1961 049e 3D43     		orr	r5, r7
 1962 04a0 10E0     		b	.L187
 1963              	.L119:
 670:.\display.c   ****             if(DisFlag.sta)
 1964              		.loc 1 670 0
 1965 04a2 DE78     		ldrb	r6, [r3, #3]
 1966 04a4 7606     		lsl	r6, r6, #25
 1967 04a6 06D5     		bpl	.L122
 672:.\display.c   ****                 LedPannelBuf[P1_CON] &= ~(1 << P1);
 1968              		.loc 1 672 0
 1969 04a8 454D     		ldr	r5, .L199+12
 1970 04aa 2668     		ldr	r6, [r4]
 673:.\display.c   ****                 LedPannelBuf[P2_CON] &= ~(1 << P2);
 1971              		.loc 1 673 0
 1972 04ac 6768     		ldr	r7, [r4, #4]
 672:.\display.c   ****                 LedPannelBuf[P1_CON] &= ~(1 << P1);
 1973              		.loc 1 672 0
 1974 04ae 2E40     		and	r6, r5
 1975 04b0 2660     		str	r6, [r4]
 673:.\display.c   ****                 LedPannelBuf[P2_CON] &= ~(1 << P2);
 1976              		.loc 1 673 0
 1977 04b2 3D40     		and	r5, r7
 1978 04b4 06E0     		b	.L187
 1979              	.L122:
 676:.\display.c   ****                 LedPannelBuf[P1_CON] |= (1 << P1);
 1980              		.loc 1 676 0
 1981 04b6 8027     		mov	r7, #128
 1982 04b8 2668     		ldr	r6, [r4]
 1983 04ba BD01     		lsl	r5, r7, #6
 677:.\display.c   ****                 LedPannelBuf[P2_CON] |= (1 << P2);
 1984              		.loc 1 677 0
 1985 04bc 6768     		ldr	r7, [r4, #4]
 676:.\display.c   ****                 LedPannelBuf[P1_CON] |= (1 << P1);
 1986              		.loc 1 676 0
 1987 04be 2E43     		orr	r6, r5
 1988 04c0 2660     		str	r6, [r4]
ARM GAS  C:\Users\ZHANGM~1\AppData\Local\Temp\ccWWGwEp.s 			page 60


 677:.\display.c   ****                 LedPannelBuf[P2_CON] |= (1 << P2);
 1989              		.loc 1 677 0
 1990 04c2 3D43     		orr	r5, r7
 1991              	.L187:
 1992 04c4 6560     		str	r5, [r4, #4]
 1993 04c6 0125     		mov	r5, #1
 681:.\display.c   ****         if(DisFlag.south)
 1994              		.loc 1 681 0
 1995 04c8 C706     		lsl	r7, r0, #27
 1996 04ca 03D5     		bpl	.L123
 683:.\display.c   ****             LedPannelBuf[N13_CON] &= ~(1 << N13);
 1997              		.loc 1 683 0
 1998 04cc 2768     		ldr	r7, [r4]
 1999 04ce AF43     		bic	r7, r5
 2000 04d0 3D1C     		mov	r5, r7
 2001 04d2 01E0     		b	.L188
 2002              	.L123:
 686:.\display.c   ****             LedPannelBuf[N13_CON] |= (1 << N13);
 2003              		.loc 1 686 0
 2004 04d4 2668     		ldr	r6, [r4]
 2005 04d6 3543     		orr	r5, r6
 2006              	.L188:
 2007 04d8 2560     		str	r5, [r4]
 2008 04da 0125     		mov	r5, #1
 688:.\display.c   ****         if(DisFlag.north)
 2009              		.loc 1 688 0
 2010 04dc 8606     		lsl	r6, r0, #26
 2011 04de 03D5     		bpl	.L125
 690:.\display.c   ****             LedPannelBuf[N15_CON] &= ~(1 << N15);
 2012              		.loc 1 690 0
 2013 04e0 A668     		ldr	r6, [r4, #8]
 2014 04e2 AE43     		bic	r6, r5
 2015 04e4 A660     		str	r6, [r4, #8]
 2016 04e6 02E0     		b	.L126
 2017              	.L125:
 693:.\display.c   ****             LedPannelBuf[N15_CON] |= (1 << N15);
 2018              		.loc 1 693 0
 2019 04e8 A068     		ldr	r0, [r4, #8]
 2020 04ea 0543     		orr	r5, r0
 2021 04ec A560     		str	r5, [r4, #8]
 2022              	.L126:
 2023 04ee 0127     		mov	r7, #1
 696:.\display.c   ****         if(DisFlag.jsll)
 2024              		.loc 1 696 0
 2025 04f0 5507     		lsl	r5, r2, #29
 2026 04f2 0CD5     		bpl	.L127
 698:.\display.c   ****             LedPannelBuf[N16_CON] &= ~(1 << N16);
 2027              		.loc 1 698 0
 2028 04f4 E268     		ldr	r2, [r4, #12]
 699:.\display.c   ****             LedPannelBuf[N17_CON] &= ~(1 << N17);
 2029              		.loc 1 699 0
 2030 04f6 2569     		ldr	r5, [r4, #16]
 700:.\display.c   ****             LedPannelBuf[N18_CON] &= ~(1 << N18);
 2031              		.loc 1 700 0
 2032 04f8 6069     		ldr	r0, [r4, #20]
 701:.\display.c   ****             LedPannelBuf[N19_CON] &= ~(1 << N19);
 2033              		.loc 1 701 0
ARM GAS  C:\Users\ZHANGM~1\AppData\Local\Temp\ccWWGwEp.s 			page 61


 2034 04fa A669     		ldr	r6, [r4, #24]
 698:.\display.c   ****             LedPannelBuf[N16_CON] &= ~(1 << N16);
 2035              		.loc 1 698 0
 2036 04fc BA43     		bic	r2, r7
 699:.\display.c   ****             LedPannelBuf[N17_CON] &= ~(1 << N17);
 2037              		.loc 1 699 0
 2038 04fe BD43     		bic	r5, r7
 700:.\display.c   ****             LedPannelBuf[N18_CON] &= ~(1 << N18);
 2039              		.loc 1 700 0
 2040 0500 B843     		bic	r0, r7
 701:.\display.c   ****             LedPannelBuf[N19_CON] &= ~(1 << N19);
 2041              		.loc 1 701 0
 2042 0502 BE43     		bic	r6, r7
 698:.\display.c   ****             LedPannelBuf[N16_CON] &= ~(1 << N16);
 2043              		.loc 1 698 0
 2044 0504 E260     		str	r2, [r4, #12]
 699:.\display.c   ****             LedPannelBuf[N17_CON] &= ~(1 << N17);
 2045              		.loc 1 699 0
 2046 0506 2561     		str	r5, [r4, #16]
 700:.\display.c   ****             LedPannelBuf[N18_CON] &= ~(1 << N18);
 2047              		.loc 1 700 0
 2048 0508 6061     		str	r0, [r4, #20]
 701:.\display.c   ****             LedPannelBuf[N19_CON] &= ~(1 << N19);
 2049              		.loc 1 701 0
 2050 050a A661     		str	r6, [r4, #24]
 2051 050c 0BE0     		b	.L128
 2052              	.L127:
 704:.\display.c   ****             LedPannelBuf[N16_CON] |= (1 << N16);
 2053              		.loc 1 704 0
 2054 050e E268     		ldr	r2, [r4, #12]
 705:.\display.c   ****             LedPannelBuf[N17_CON] |= (1 << N17);
 2055              		.loc 1 705 0
 2056 0510 2569     		ldr	r5, [r4, #16]
 706:.\display.c   ****             LedPannelBuf[N18_CON] |= (1 << N18);
 2057              		.loc 1 706 0
 2058 0512 6069     		ldr	r0, [r4, #20]
 707:.\display.c   ****             LedPannelBuf[N19_CON] |= (1 << N19);
 2059              		.loc 1 707 0
 2060 0514 A669     		ldr	r6, [r4, #24]
 704:.\display.c   ****             LedPannelBuf[N16_CON] |= (1 << N16);
 2061              		.loc 1 704 0
 2062 0516 3A43     		orr	r2, r7
 705:.\display.c   ****             LedPannelBuf[N17_CON] |= (1 << N17);
 2063              		.loc 1 705 0
 2064 0518 3D43     		orr	r5, r7
 706:.\display.c   ****             LedPannelBuf[N18_CON] |= (1 << N18);
 2065              		.loc 1 706 0
 2066 051a 3843     		orr	r0, r7
 707:.\display.c   ****             LedPannelBuf[N19_CON] |= (1 << N19);
 2067              		.loc 1 707 0
 2068 051c 3743     		orr	r7, r6
 704:.\display.c   ****             LedPannelBuf[N16_CON] |= (1 << N16);
 2069              		.loc 1 704 0
 2070 051e E260     		str	r2, [r4, #12]
 705:.\display.c   ****             LedPannelBuf[N17_CON] |= (1 << N17);
 2071              		.loc 1 705 0
 2072 0520 2561     		str	r5, [r4, #16]
ARM GAS  C:\Users\ZHANGM~1\AppData\Local\Temp\ccWWGwEp.s 			page 62


 706:.\display.c   ****             LedPannelBuf[N18_CON] |= (1 << N18);
 2073              		.loc 1 706 0
 2074 0522 6061     		str	r0, [r4, #20]
 707:.\display.c   ****             LedPannelBuf[N19_CON] |= (1 << N19);
 2075              		.loc 1 707 0
 2076 0524 A761     		str	r7, [r4, #24]
 2077              	.L128:
 710:.\display.c   ****         if(DisFlag.slvxinflash == 0)//S,S
 2078              		.loc 1 710 0
 2079 0526 DB78     		ldrb	r3, [r3, #3]
 2080 0528 DF07     		lsl	r7, r3, #31
 2081 052a 08D5     		bpl	.L129
 715:.\display.c   ****             if(DisFlag.sta)
 2082              		.loc 1 715 0
 2083 052c 5806     		lsl	r0, r3, #25
 2084 052e 02D5     		bpl	.L130
 717:.\display.c   ****                 LedPannelBuf[S_CON] |= (0x000003ff<<S_SHIFT);
 2085              		.loc 1 717 0
 2086 0530 2768     		ldr	r7, [r4]
 2087 0532 0F43     		orr	r7, r1
 2088 0534 02E0     		b	.L189
 2089              	.L130:
 722:.\display.c   ****                 LedPannelBuf[S_CON] &= ~((0x000003ff >> (0))<<S_SHIFT);//
 2090              		.loc 1 722 0
 2091 0536 234F     		ldr	r7, .L199+16
 2092 0538 2268     		ldr	r2, [r4]
 2093 053a 1740     		and	r7, r2
 2094              	.L189:
 2095 053c 2760     		str	r7, [r4]
 2096              	.L129:
 727:.\display.c   ****         if(DisFlag.hlvxinflash == 0)//S,S
 2097              		.loc 1 727 0
 2098 053e 9E07     		lsl	r6, r3, #30
 2099 0540 08D5     		bpl	.L131
 732:.\display.c   ****             if(DisFlag.sta)
 2100              		.loc 1 732 0
 2101 0542 5F06     		lsl	r7, r3, #25
 2102 0544 02D5     		bpl	.L132
 734:.\display.c   ****                 LedPannelBuf[H_CON] |= (0x000003ff<<H_SHIFT);
 2103              		.loc 1 734 0
 2104 0546 6568     		ldr	r5, [r4, #4]
 2105 0548 0D43     		orr	r5, r1
 2106 054a 02E0     		b	.L190
 2107              	.L132:
 739:.\display.c   ****                 LedPannelBuf[H_CON] &= ~((0x000003ff >> (0))<<H_SHIFT);//
 2108              		.loc 1 739 0
 2109 054c 1D4D     		ldr	r5, .L199+16
 2110 054e 6068     		ldr	r0, [r4, #4]
 2111 0550 0540     		and	r5, r0
 2112              	.L190:
 2113 0552 6560     		str	r5, [r4, #4]
 2114              	.L131:
 743:.\display.c   ****         if(DisFlag.jlvxinflash == 0)//S,S
 2115              		.loc 1 743 0
 2116 0554 5A07     		lsl	r2, r3, #29
 2117 0556 08D5     		bpl	.L133
 748:.\display.c   ****             if(DisFlag.sta)
ARM GAS  C:\Users\ZHANGM~1\AppData\Local\Temp\ccWWGwEp.s 			page 63


 2118              		.loc 1 748 0
 2119 0558 5D06     		lsl	r5, r3, #25
 2120 055a 02D5     		bpl	.L134
 750:.\display.c   ****                 LedPannelBuf[J_CON] |= (0x000003ff<<J_SHIFT);
 2121              		.loc 1 750 0
 2122 055c A768     		ldr	r7, [r4, #8]
 2123 055e 0F43     		orr	r7, r1
 2124 0560 02E0     		b	.L191
 2125              	.L134:
 755:.\display.c   ****                 LedPannelBuf[J_CON] &= ~((0x000003ff >> (0))<<J_SHIFT);//
 2126              		.loc 1 755 0
 2127 0562 184F     		ldr	r7, .L199+16
 2128 0564 A668     		ldr	r6, [r4, #8]
 2129 0566 3740     		and	r7, r6
 2130              	.L191:
 2131 0568 A760     		str	r7, [r4, #8]
 2132              	.L133:
 759:.\display.c   ****         if(DisFlag.klvxinflash == 0)//S,S
 2133              		.loc 1 759 0
 2134 056a 1F07     		lsl	r7, r3, #28
 2135 056c 08D5     		bpl	.L135
 766:.\display.c   ****             if(DisFlag.sta)
 2136              		.loc 1 766 0
 2137 056e 5806     		lsl	r0, r3, #25
 2138 0570 02D5     		bpl	.L136
 768:.\display.c   ****                 LedPannelBuf[K_CON] |= (0x000003ff<<K_SHIFT);
 2139              		.loc 1 768 0
 2140 0572 E268     		ldr	r2, [r4, #12]
 2141 0574 0A43     		orr	r2, r1
 2142 0576 02E0     		b	.L192
 2143              	.L136:
 773:.\display.c   ****                 LedPannelBuf[K_CON] &= ~((0x000003ff >> (0))<<K_SHIFT);//
 2144              		.loc 1 773 0
 2145 0578 124A     		ldr	r2, .L199+16
 2146 057a E568     		ldr	r5, [r4, #12]
 2147 057c 2A40     		and	r2, r5
 2148              	.L192:
 2149 057e E260     		str	r2, [r4, #12]
 2150              	.L135:
 778:.\display.c   ****         if(DisFlag.llvxinflash == 0)//S,S
 2151              		.loc 1 778 0
 2152 0580 DE06     		lsl	r6, r3, #27
 2153 0582 08D5     		bpl	.L137
 783:.\display.c   ****             if(DisFlag.sta)
 2154              		.loc 1 783 0
 2155 0584 5F06     		lsl	r7, r3, #25
 2156 0586 02D5     		bpl	.L138
 785:.\display.c   ****                 LedPannelBuf[L_CON] |= (0x000003ff<<L_SHIFT);
 2157              		.loc 1 785 0
 2158 0588 2769     		ldr	r7, [r4, #16]
 2159 058a 0F43     		orr	r7, r1
 2160 058c 02E0     		b	.L193
 2161              	.L138:
 790:.\display.c   ****                 LedPannelBuf[L_CON] &= ~((0x000003ff >> (0))<<L_SHIFT);//
 2162              		.loc 1 790 0
 2163 058e 0D4F     		ldr	r7, .L199+16
 2164 0590 2069     		ldr	r0, [r4, #16]
ARM GAS  C:\Users\ZHANGM~1\AppData\Local\Temp\ccWWGwEp.s 			page 64


 2165 0592 0740     		and	r7, r0
 2166              	.L193:
 2167 0594 2761     		str	r7, [r4, #16]
 2168              	.L137:
 794:.\display.c   ****         if(DisFlag.mlvxinflash == 0)//S,S
 2169              		.loc 1 794 0
 2170 0596 9A06     		lsl	r2, r3, #26
 2171 0598 09D5     		bpl	.L60
 801:.\display.c   ****             if(DisFlag.sta)
 2172              		.loc 1 801 0
 2173 059a 5D06     		lsl	r5, r3, #25
 2174 059c 03D5     		bpl	.L140
 803:.\display.c   ****                 LedPannelBuf[M_CON] |= (0x000003ff<<M_SHIFT);
 2175              		.loc 1 803 0
 2176 059e 6669     		ldr	r6, [r4, #20]
 2177 05a0 3143     		orr	r1, r6
 2178 05a2 6161     		str	r1, [r4, #20]
 2179 05a4 03E0     		b	.L60
 2180              	.L140:
 808:.\display.c   ****                 LedPannelBuf[M_CON] &= ~((0x000003ff >> (0))<<M_SHIFT);//
 2181              		.loc 1 808 0
 2182 05a6 6369     		ldr	r3, [r4, #20]
 2183 05a8 0649     		ldr	r1, .L199+16
 2184 05aa 1940     		and	r1, r3
 2185 05ac 6161     		str	r1, [r4, #20]
 2186              	.L60:
 815:.\display.c   **** }
 2187              		.loc 1 815 0
 2188 05ae 05B0     		add	sp, sp, #20
 2189              		@ sp needed for prologue
 2190 05b0 F0BD     		pop	{r4, r5, r6, r7, pc}
 2191              	.L200:
 2192 05b2 C046     		.align	2
 2193              	.L199:
 2194 05b4 FFF9FFFF 		.word	-1537
 2195 05b8 FFE7FFFF 		.word	-6145
 2196 05bc 7FFEFFFF 		.word	-385
 2197 05c0 FFDFFFFF 		.word	-8193
 2198 05c4 07E0FFFF 		.word	-8185
 2199              		.cfi_endproc
 2200              	.LFE36:
 2201              		.size	Led_Pannel_Updata, .-Led_Pannel_Updata
 2202              		.section	.text.yanshidisplay,"ax",%progbits
 2203              		.align	1
 2204              		.global	yanshidisplay
 2205              		.code	16
 2206              		.thumb_func
 2207              		.type	yanshidisplay, %function
 2208              	yanshidisplay:
 2209              	.LFB38:
 837:.\display.c   **** void yanshidisplay(void)
 838:.\display.c   **** {
 2210              		.loc 1 838 0
 2211              		.cfi_startproc
 2212 0000 70B5     		push	{r4, r5, r6, lr}
 2213              	.LCFI6:
 2214              		.cfi_def_cfa_offset 16
ARM GAS  C:\Users\ZHANGM~1\AppData\Local\Temp\ccWWGwEp.s 			page 65


 2215              		.cfi_offset 4, -16
 2216              		.cfi_offset 5, -12
 2217              		.cfi_offset 6, -8
 2218              		.cfi_offset 14, -4
 839:.\display.c   ****     
 840:.\display.c   ****     
 841:.\display.c   ****     if(WorkFlag.error)//
 2219              		.loc 1 841 0
 2220 0002 A84B     		ldr	r3, .L250
 2221 0004 0125     		mov	r5, #1
 2222 0006 1878     		ldrb	r0, [r3]
 2223 0008 A74C     		ldr	r4, .L250+4
 2224 000a 2842     		tst	r0, r5
 2225 000c 59D0     		beq	.L203
 842:.\display.c   ****         {
 843:.\display.c   ****             
 844:.\display.c   ****              if(Error_Data.bit.Error_02_flag==1&&Error_Data.bit.Error_01_flag==1) 
 2226              		.loc 1 844 0
 2227 000e A74E     		ldr	r6, .L250+8
 2228 0010 0622     		mov	r2, #6
 2229 0012 3178     		ldrb	r1, [r6]
 2230 0014 0A40     		and	r2, r1
 2231 0016 062A     		cmp	r2, #6
 2232 0018 10D1     		bne	.L204
 845:.\display.c   ****             {
 846:.\display.c   ****             
 847:.\display.c   ****                 yanshi_Digital_Trans(DIG3,14);
 2233              		.loc 1 847 0
 2234 001a 0F20     		mov	r0, #15
 2235 001c 0E21     		mov	r1, #14
 2236 001e FFF7FEFF 		bl	yanshi_Digital_Trans
 2237              	.LVL89:
 848:.\display.c   ****                 yanshi_Digital_Trans(DIG4,2);
 2238              		.loc 1 848 0
 2239 0022 0E20     		mov	r0, #14
 2240 0024 0221     		mov	r1, #2
 2241 0026 FFF7FEFF 		bl	yanshi_Digital_Trans
 2242              	.LVL90:
 849:.\display.c   ****                 yanshi_Digital_Trans(DIG1,14);
 2243              		.loc 1 849 0
 2244 002a 1120     		mov	r0, #17
 2245 002c 0E21     		mov	r1, #14
 2246 002e FFF7FEFF 		bl	yanshi_Digital_Trans
 2247              	.LVL91:
 850:.\display.c   ****                 yanshi_Digital_Trans(DIG2,1);
 2248              		.loc 1 850 0
 2249 0032 1020     		mov	r0, #16
 2250 0034 291C     		mov	r1, r5
 2251 0036 FFF7FEFF 		bl	yanshi_Digital_Trans
 2252              	.LVL92:
 2253 003a 42E0     		b	.L203
 2254              	.L204:
 851:.\display.c   ****                 
 852:.\display.c   ****             
 853:.\display.c   ****             
 854:.\display.c   ****             }
 855:.\display.c   ****             
ARM GAS  C:\Users\ZHANGM~1\AppData\Local\Temp\ccWWGwEp.s 			page 66


 856:.\display.c   ****             else
 857:.\display.c   ****             {
 858:.\display.c   ****             
 859:.\display.c   ****             
 860:.\display.c   ****           
 861:.\display.c   ****             
 862:.\display.c   ****                 if(Error_Data.bit.Error_02_flag==1)
 2255              		.loc 1 862 0
 2256 003c 4807     		lsl	r0, r1, #29
 2257 003e 1ED5     		bpl	.L205
 863:.\display.c   ****                 {  /*E2*/ 
 864:.\display.c   ****                     yanshi_Digital_Trans(DIG3,14);
 2258              		.loc 1 864 0
 2259 0040 0F20     		mov	r0, #15
 2260 0042 0E21     		mov	r1, #14
 2261 0044 FFF7FEFF 		bl	yanshi_Digital_Trans
 2262              	.LVL93:
 865:.\display.c   ****                     yanshi_Digital_Trans(DIG4,2);
 2263              		.loc 1 865 0
 2264 0048 0E20     		mov	r0, #14
 2265 004a 0221     		mov	r1, #2
 2266 004c FFF7FEFF 		bl	yanshi_Digital_Trans
 2267              	.LVL94:
 866:.\display.c   ****                     temp[0]|=0x00030000;
 2268              		.loc 1 866 0
 2269 0050 C023     		mov	r3, #192
 2270 0052 2568     		ldr	r5, [r4]
 867:.\display.c   ****                     temp[1]|=0x00030000;
 2271              		.loc 1 867 0
 2272 0054 6168     		ldr	r1, [r4, #4]
 868:.\display.c   ****                     temp[2]|=0x00030000;
 2273              		.loc 1 868 0
 2274 0056 A268     		ldr	r2, [r4, #8]
 866:.\display.c   ****                     temp[0]|=0x00030000;
 2275              		.loc 1 866 0
 2276 0058 9802     		lsl	r0, r3, #10
 2277 005a 0543     		orr	r5, r0
 867:.\display.c   ****                     temp[1]|=0x00030000;
 2278              		.loc 1 867 0
 2279 005c 0143     		orr	r1, r0
 2280              		.loc 1 868 0
 2281 005e 0243     		orr	r2, r0
 869:.\display.c   ****                     temp[3]|=0x00030000;//2
 2282              		.loc 1 869 0
 2283 0060 E368     		ldr	r3, [r4, #12]
 866:.\display.c   ****                     temp[0]|=0x00030000;
 2284              		.loc 1 866 0
 2285 0062 2560     		str	r5, [r4]
 867:.\display.c   ****                     temp[1]|=0x00030000;
 2286              		.loc 1 867 0
 2287 0064 6160     		str	r1, [r4, #4]
 870:.\display.c   ****                     temp[4]|=0x00030000;
 2288              		.loc 1 870 0
 2289 0066 2569     		ldr	r5, [r4, #16]
 871:.\display.c   ****                     temp[5]|=0x00030000;
 2290              		.loc 1 871 0
 2291 0068 6169     		ldr	r1, [r4, #20]
ARM GAS  C:\Users\ZHANGM~1\AppData\Local\Temp\ccWWGwEp.s 			page 67


 868:.\display.c   ****                     temp[2]|=0x00030000;
 2292              		.loc 1 868 0
 2293 006a A260     		str	r2, [r4, #8]
 872:.\display.c   ****                     temp[6]|=0x00030000;
 2294              		.loc 1 872 0
 2295 006c A269     		ldr	r2, [r4, #24]
 869:.\display.c   ****                     temp[3]|=0x00030000;//2
 2296              		.loc 1 869 0
 2297 006e 0343     		orr	r3, r0
 870:.\display.c   ****                     temp[4]|=0x00030000;
 2298              		.loc 1 870 0
 2299 0070 0543     		orr	r5, r0
 871:.\display.c   ****                     temp[5]|=0x00030000;
 2300              		.loc 1 871 0
 2301 0072 0143     		orr	r1, r0
 2302              		.loc 1 872 0
 2303 0074 1043     		orr	r0, r2
 869:.\display.c   ****                     temp[3]|=0x00030000;//2
 2304              		.loc 1 869 0
 2305 0076 E360     		str	r3, [r4, #12]
 870:.\display.c   ****                     temp[4]|=0x00030000;
 2306              		.loc 1 870 0
 2307 0078 2561     		str	r5, [r4, #16]
 871:.\display.c   ****                     temp[5]|=0x00030000;
 2308              		.loc 1 871 0
 2309 007a 6161     		str	r1, [r4, #20]
 2310              		.loc 1 872 0
 2311 007c A061     		str	r0, [r4, #24]
 2312              	.L205:
 873:.\display.c   ****                 }
 874:.\display.c   ****                     
 875:.\display.c   ****                 if(Error_Data.bit.Error_01_flag==1)    
 2313              		.loc 1 875 0
 2314 007e 3678     		ldrb	r6, [r6]
 2315 0080 B207     		lsl	r2, r6, #30
 2316 0082 1ED5     		bpl	.L203
 876:.\display.c   ****                 {
 877:.\display.c   ****                     /*E1*/ 
 878:.\display.c   ****                     yanshi_Digital_Trans(DIG3,14);
 2317              		.loc 1 878 0
 2318 0084 0F20     		mov	r0, #15
 2319 0086 0E21     		mov	r1, #14
 2320 0088 FFF7FEFF 		bl	yanshi_Digital_Trans
 2321              	.LVL95:
 879:.\display.c   ****                     yanshi_Digital_Trans(DIG4,1);
 2322              		.loc 1 879 0
 2323 008c 0E20     		mov	r0, #14
 2324 008e 0121     		mov	r1, #1
 2325 0090 FFF7FEFF 		bl	yanshi_Digital_Trans
 2326              	.LVL96:
 880:.\display.c   ****                     temp[0]|=0x00030000;
 2327              		.loc 1 880 0
 2328 0094 C020     		mov	r0, #192
 2329 0096 2568     		ldr	r5, [r4]
 881:.\display.c   ****                     temp[1]|=0x00030000;
 2330              		.loc 1 881 0
 2331 0098 6168     		ldr	r1, [r4, #4]
ARM GAS  C:\Users\ZHANGM~1\AppData\Local\Temp\ccWWGwEp.s 			page 68


 880:.\display.c   ****                     temp[0]|=0x00030000;
 2332              		.loc 1 880 0
 2333 009a 8302     		lsl	r3, r0, #10
 2334 009c 1D43     		orr	r5, r3
 2335              		.loc 1 881 0
 2336 009e 1943     		orr	r1, r3
 882:.\display.c   ****                     temp[2]|=0x00030000;
 2337              		.loc 1 882 0
 2338 00a0 A268     		ldr	r2, [r4, #8]
 883:.\display.c   ****                     temp[3]|=0x00030000;//2
 2339              		.loc 1 883 0
 2340 00a2 E668     		ldr	r6, [r4, #12]
 884:.\display.c   ****                     temp[4]|=0x00030000;
 2341              		.loc 1 884 0
 2342 00a4 2069     		ldr	r0, [r4, #16]
 880:.\display.c   ****                     temp[0]|=0x00030000;
 2343              		.loc 1 880 0
 2344 00a6 2560     		str	r5, [r4]
 881:.\display.c   ****                     temp[1]|=0x00030000;
 2345              		.loc 1 881 0
 2346 00a8 6160     		str	r1, [r4, #4]
 885:.\display.c   ****                     temp[5]|=0x00030000;
 2347              		.loc 1 885 0
 2348 00aa 6569     		ldr	r5, [r4, #20]
 886:.\display.c   ****                     temp[6]|=0x00030000;   
 2349              		.loc 1 886 0
 2350 00ac A169     		ldr	r1, [r4, #24]
 882:.\display.c   ****                     temp[2]|=0x00030000;
 2351              		.loc 1 882 0
 2352 00ae 1A43     		orr	r2, r3
 883:.\display.c   ****                     temp[3]|=0x00030000;//2
 2353              		.loc 1 883 0
 2354 00b0 1E43     		orr	r6, r3
 884:.\display.c   ****                     temp[4]|=0x00030000;
 2355              		.loc 1 884 0
 2356 00b2 1843     		orr	r0, r3
 885:.\display.c   ****                     temp[5]|=0x00030000;
 2357              		.loc 1 885 0
 2358 00b4 1D43     		orr	r5, r3
 2359              		.loc 1 886 0
 2360 00b6 0B43     		orr	r3, r1
 882:.\display.c   ****                     temp[2]|=0x00030000;
 2361              		.loc 1 882 0
 2362 00b8 A260     		str	r2, [r4, #8]
 883:.\display.c   ****                     temp[3]|=0x00030000;//2
 2363              		.loc 1 883 0
 2364 00ba E660     		str	r6, [r4, #12]
 884:.\display.c   ****                     temp[4]|=0x00030000;
 2365              		.loc 1 884 0
 2366 00bc 2061     		str	r0, [r4, #16]
 885:.\display.c   ****                     temp[5]|=0x00030000;
 2367              		.loc 1 885 0
 2368 00be 6561     		str	r5, [r4, #20]
 2369              		.loc 1 886 0
 2370 00c0 A361     		str	r3, [r4, #24]
 2371              	.L203:
 887:.\display.c   ****                 }    
ARM GAS  C:\Users\ZHANGM~1\AppData\Local\Temp\ccWWGwEp.s 			page 69


 888:.\display.c   ****                     
 889:.\display.c   ****                
 890:.\display.c   ****             }    
 891:.\display.c   ****                 
 892:.\display.c   ****             
 893:.\display.c   ****             
 894:.\display.c   ****         }
 895:.\display.c   ****     
 896:.\display.c   ****     
 897:.\display.c   ****    //*******************************************************
 898:.\display.c   ****     if(DisFlag.sflash)
 2372              		.loc 1 898 0
 2373 00c2 7B4B     		ldr	r3, .L250+12
 2374 00c4 5A78     		ldrb	r2, [r3, #1]
 2375 00c6 1607     		lsl	r6, r2, #28
 2376 00c8 0AD5     		bpl	.L207
 899:.\display.c   ****     {
 900:.\display.c   ****         if(DisFlag.flashsta)
 2377              		.loc 1 900 0
 2378 00ca DD78     		ldrb	r5, [r3, #3]
 2379 00cc 0621     		mov	r1, #6
 2380 00ce E809     		lsr	r0, r5, #7
 2381 00d0 03D0     		beq	.L208
 901:.\display.c   ****         {
 902:.\display.c   ****             temp[S_CON] &= ~(0x00000003 << 1);
 2382              		.loc 1 902 0
 2383 00d2 2568     		ldr	r5, [r4]
 2384 00d4 8D43     		bic	r5, r1
 2385 00d6 291C     		mov	r1, r5
 2386 00d8 06E0     		b	.L240
 2387              	.L208:
 903:.\display.c   ****         }else
 904:.\display.c   ****         {
 905:.\display.c   ****            temp[S_CON] |= (0x00000003 << 1);
 2388              		.loc 1 905 0
 2389 00da 2668     		ldr	r6, [r4]
 2390 00dc 3143     		orr	r1, r6
 2391 00de 03E0     		b	.L240
 2392              	.L207:
 906:.\display.c   ****         }
 907:.\display.c   ****     }else
 908:.\display.c   ****     {
 909:.\display.c   ****         temp[S_CON] &= ~(0x00000003 << 1);
 2393              		.loc 1 909 0
 2394 00e0 2668     		ldr	r6, [r4]
 2395 00e2 0620     		mov	r0, #6
 2396 00e4 8643     		bic	r6, r0
 2397 00e6 311C     		mov	r1, r6
 2398              	.L240:
 2399 00e8 2160     		str	r1, [r4]
 910:.\display.c   ****     }
 911:.\display.c   ****     if(DisFlag.hflash)
 2400              		.loc 1 911 0
 2401 00ea D006     		lsl	r0, r2, #27
 2402 00ec 0AD5     		bpl	.L210
 912:.\display.c   ****     {
 913:.\display.c   ****         if(DisFlag.flashsta)
ARM GAS  C:\Users\ZHANGM~1\AppData\Local\Temp\ccWWGwEp.s 			page 70


 2403              		.loc 1 913 0
 2404 00ee DE78     		ldrb	r6, [r3, #3]
 2405 00f0 0621     		mov	r1, #6
 2406 00f2 F509     		lsr	r5, r6, #7
 2407 00f4 03D0     		beq	.L211
 914:.\display.c   ****         {
 915:.\display.c   ****             temp[H_CON] &= ~(0x00000003 << 1);
 2408              		.loc 1 915 0
 2409 00f6 6668     		ldr	r6, [r4, #4]
 2410 00f8 8E43     		bic	r6, r1
 2411 00fa 311C     		mov	r1, r6
 2412 00fc 06E0     		b	.L241
 2413              	.L211:
 916:.\display.c   ****         }else
 917:.\display.c   ****         {
 918:.\display.c   ****             temp[H_CON] |= (0x00000003 << 1);
 2414              		.loc 1 918 0
 2415 00fe 6068     		ldr	r0, [r4, #4]
 2416 0100 0143     		orr	r1, r0
 2417 0102 03E0     		b	.L241
 2418              	.L210:
 919:.\display.c   ****         }
 920:.\display.c   ****     }else
 921:.\display.c   ****     {
 922:.\display.c   ****         temp[H_CON] &= ~(0x00000003 << 1);
 2419              		.loc 1 922 0
 2420 0104 6068     		ldr	r0, [r4, #4]
 2421 0106 0621     		mov	r1, #6
 2422 0108 8843     		bic	r0, r1
 2423 010a 011C     		mov	r1, r0
 2424              	.L241:
 2425 010c 6160     		str	r1, [r4, #4]
 923:.\display.c   ****     }
 924:.\display.c   ****     if(DisFlag.jflash)
 2426              		.loc 1 924 0
 2427 010e 9106     		lsl	r1, r2, #26
 2428 0110 0AD5     		bpl	.L213
 925:.\display.c   ****     {
 926:.\display.c   ****         if(DisFlag.flashsta)
 2429              		.loc 1 926 0
 2430 0112 D878     		ldrb	r0, [r3, #3]
 2431 0114 0621     		mov	r1, #6
 2432 0116 C609     		lsr	r6, r0, #7
 2433 0118 03D0     		beq	.L214
 927:.\display.c   ****         {
 928:.\display.c   ****             temp[J_CON] &= ~(0x00000003 << 1);
 2434              		.loc 1 928 0
 2435 011a A068     		ldr	r0, [r4, #8]
 2436 011c 8843     		bic	r0, r1
 2437 011e 011C     		mov	r1, r0
 2438 0120 06E0     		b	.L242
 2439              	.L214:
 929:.\display.c   ****         }else
 930:.\display.c   ****         {
 931:.\display.c   ****            temp[J_CON] |= (0x00000003 << 1);
 2440              		.loc 1 931 0
 2441 0122 A568     		ldr	r5, [r4, #8]
ARM GAS  C:\Users\ZHANGM~1\AppData\Local\Temp\ccWWGwEp.s 			page 71


 2442 0124 2943     		orr	r1, r5
 2443 0126 03E0     		b	.L242
 2444              	.L213:
 932:.\display.c   ****         }
 933:.\display.c   ****     }else
 934:.\display.c   ****     {
 935:.\display.c   ****         temp[J_CON] &= ~(0x00000003 << 1);
 2445              		.loc 1 935 0
 2446 0128 A568     		ldr	r5, [r4, #8]
 2447 012a 0621     		mov	r1, #6
 2448 012c 8D43     		bic	r5, r1
 2449 012e 291C     		mov	r1, r5
 2450              	.L242:
 2451 0130 A160     		str	r1, [r4, #8]
 936:.\display.c   ****     }
 937:.\display.c   ****     if(DisFlag.kflash)
 2452              		.loc 1 937 0
 2453 0132 5106     		lsl	r1, r2, #25
 2454 0134 0AD5     		bpl	.L216
 938:.\display.c   ****     {
 939:.\display.c   ****         if(DisFlag.flashsta)
 2455              		.loc 1 939 0
 2456 0136 DD78     		ldrb	r5, [r3, #3]
 2457 0138 0621     		mov	r1, #6
 2458 013a E809     		lsr	r0, r5, #7
 2459 013c 03D0     		beq	.L217
 940:.\display.c   ****         {
 941:.\display.c   ****             temp[K_CON] &= ~(0x00000003 << 1);
 2460              		.loc 1 941 0
 2461 013e E568     		ldr	r5, [r4, #12]
 2462 0140 8D43     		bic	r5, r1
 2463 0142 291C     		mov	r1, r5
 2464 0144 06E0     		b	.L243
 2465              	.L217:
 942:.\display.c   ****         }else
 943:.\display.c   ****         {
 944:.\display.c   ****             temp[K_CON] |= (0x00000003 << 1);
 2466              		.loc 1 944 0
 2467 0146 E668     		ldr	r6, [r4, #12]
 2468 0148 3143     		orr	r1, r6
 2469 014a 03E0     		b	.L243
 2470              	.L216:
 945:.\display.c   ****         }
 946:.\display.c   ****     }else
 947:.\display.c   ****     {
 948:.\display.c   ****         temp[K_CON] &= ~(0x00000003 << 1);
 2471              		.loc 1 948 0
 2472 014c E668     		ldr	r6, [r4, #12]
 2473 014e 0621     		mov	r1, #6
 2474 0150 8E43     		bic	r6, r1
 2475 0152 311C     		mov	r1, r6
 2476              	.L243:
 2477 0154 E160     		str	r1, [r4, #12]
 949:.\display.c   ****     }
 950:.\display.c   ****     if(DisFlag.lflash)
 2478              		.loc 1 950 0
 2479 0156 101C     		mov	r0, r2
ARM GAS  C:\Users\ZHANGM~1\AppData\Local\Temp\ccWWGwEp.s 			page 72


 2480 0158 7F21     		mov	r1, #127
 2481 015a 8843     		bic	r0, r1
 2482 015c 0BD0     		beq	.L219
 951:.\display.c   ****     {
 952:.\display.c   ****         if(DisFlag.flashsta)
 2483              		.loc 1 952 0
 2484 015e D878     		ldrb	r0, [r3, #3]
 2485 0160 8843     		bic	r0, r1
 2486 0162 0621     		mov	r1, #6
 2487 0164 0028     		cmp	r0, #0
 2488 0166 03D0     		beq	.L220
 953:.\display.c   ****         {
 954:.\display.c   ****             temp[L_CON] &= ~(0x00000003 << 1);
 2489              		.loc 1 954 0
 2490 0168 2569     		ldr	r5, [r4, #16]
 2491 016a 8D43     		bic	r5, r1
 2492 016c 291C     		mov	r1, r5
 2493 016e 06E0     		b	.L244
 2494              	.L220:
 955:.\display.c   ****         }else
 956:.\display.c   ****         {
 957:.\display.c   ****             temp[L_CON] |= (0x00000003 << 1);
 2495              		.loc 1 957 0
 2496 0170 2669     		ldr	r6, [r4, #16]
 2497 0172 3143     		orr	r1, r6
 2498 0174 03E0     		b	.L244
 2499              	.L219:
 958:.\display.c   ****         }
 959:.\display.c   ****     }else
 960:.\display.c   ****     {
 961:.\display.c   ****         temp[L_CON] &= ~(0x00000003 << 1);
 2500              		.loc 1 961 0
 2501 0176 2569     		ldr	r5, [r4, #16]
 2502 0178 0626     		mov	r6, #6
 2503 017a B543     		bic	r5, r6
 2504 017c 291C     		mov	r1, r5
 2505              	.L244:
 2506 017e 2161     		str	r1, [r4, #16]
 962:.\display.c   ****     }
 963:.\display.c   ****     if(DisFlag.mflash)
 2507              		.loc 1 963 0
 2508 0180 9978     		ldrb	r1, [r3, #2]
 2509 0182 CD07     		lsl	r5, r1, #31
 2510 0184 07D5     		bpl	.L222
 964:.\display.c   ****     {
 965:.\display.c   ****         if(DisFlag.flashsta)
 2511              		.loc 1 965 0
 2512 0186 D878     		ldrb	r0, [r3, #3]
 2513 0188 C609     		lsr	r6, r0, #7
 2514 018a 0620     		mov	r0, #6
 2515 018c 002E     		cmp	r6, #0
 2516 018e 03D1     		bne	.L245
 2517              	.L223:
 966:.\display.c   ****         {
 967:.\display.c   ****             temp[M_CON] &= ~(0x00000003 << 1);
 968:.\display.c   ****         }else
 969:.\display.c   ****         {
ARM GAS  C:\Users\ZHANGM~1\AppData\Local\Temp\ccWWGwEp.s 			page 73


 970:.\display.c   ****             temp[M_CON] |= (0x00000003 << 1);
 2518              		.loc 1 970 0
 2519 0190 6569     		ldr	r5, [r4, #20]
 2520 0192 2843     		orr	r0, r5
 2521 0194 03E0     		b	.L246
 2522              	.L222:
 971:.\display.c   ****         }
 972:.\display.c   ****     }else
 973:.\display.c   ****     {
 974:.\display.c   ****         temp[M_CON] &= ~(0x00000003 << 1);
 2523              		.loc 1 974 0
 2524 0196 0620     		mov	r0, #6
 2525              	.L245:
 2526 0198 6669     		ldr	r6, [r4, #20]
 2527 019a 8643     		bic	r6, r0
 2528 019c 301C     		mov	r0, r6
 2529              	.L246:
 975:.\display.c   ****     }
 976:.\display.c   ****     if(FlashCnt > TIMER500MS)
 2530              		.loc 1 976 0
 2531 019e 454E     		ldr	r6, .L250+16
 974:.\display.c   ****         temp[M_CON] &= ~(0x00000003 << 1);
 2532              		.loc 1 974 0
 2533 01a0 6061     		str	r0, [r4, #20]
 2534              		.loc 1 976 0
 2535 01a2 3578     		ldrb	r5, [r6]
 2536 01a4 052D     		cmp	r5, #5
 2537 01a6 0AD9     		bls	.L225
 977:.\display.c   ****     	{
 978:.\display.c   ****         FlashCnt = 0;
 2538              		.loc 1 978 0
 2539 01a8 0020     		mov	r0, #0
 2540 01aa 3070     		strb	r0, [r6]
 979:.\display.c   ****         DisFlag.flashsta = !DisFlag.flashsta;
 2541              		.loc 1 979 0
 2542 01ac D878     		ldrb	r0, [r3, #3]
 2543 01ae C643     		mvn	r6, r0
 2544 01b0 F5B2     		uxtb	r5, r6
 2545 01b2 EE09     		lsr	r6, r5, #7
 2546 01b4 F501     		lsl	r5, r6, #7
 2547 01b6 7F26     		mov	r6, #127
 2548 01b8 3040     		and	r0, r6
 2549 01ba 2843     		orr	r0, r5
 2550 01bc D870     		strb	r0, [r3, #3]
 2551              	.L225:
 980:.\display.c   ****     	}
 981:.\display.c   ****       
 982:.\display.c   ****     if(DisFlag.south)
 2552              		.loc 1 982 0
 2553 01be 1D78     		ldrb	r5, [r3]
 2554 01c0 0120     		mov	r0, #1
 2555 01c2 EE06     		lsl	r6, r5, #27
 2556 01c4 03D5     		bpl	.L226
 983:.\display.c   ****     	{
 984:.\display.c   ****         temp[N13_CON] &= ~(1 << N13);
 2557              		.loc 1 984 0
 2558 01c6 2668     		ldr	r6, [r4]
ARM GAS  C:\Users\ZHANGM~1\AppData\Local\Temp\ccWWGwEp.s 			page 74


 2559 01c8 8643     		bic	r6, r0
 2560 01ca 301C     		mov	r0, r6
 2561 01cc 01E0     		b	.L247
 2562              	.L226:
 985:.\display.c   ****     	}
 986:.\display.c   ****     else
 987:.\display.c   ****      {
 988:.\display.c   ****        temp[N13_CON] |= (1 << N13);
 2563              		.loc 1 988 0
 2564 01ce 2668     		ldr	r6, [r4]
 2565 01d0 3043     		orr	r0, r6
 2566              	.L247:
 2567 01d2 2060     		str	r0, [r4]
 2568 01d4 0120     		mov	r0, #1
 989:.\display.c   ****      }
 990:.\display.c   ****     if(DisFlag.north)
 2569              		.loc 1 990 0
 2570 01d6 AE06     		lsl	r6, r5, #26
 2571 01d8 03D5     		bpl	.L228
 991:.\display.c   ****     {
 992:.\display.c   ****         temp[N15_CON] &= ~(1 << N15);
 2572              		.loc 1 992 0
 2573 01da A668     		ldr	r6, [r4, #8]
 2574 01dc 8643     		bic	r6, r0
 2575 01de 301C     		mov	r0, r6
 2576 01e0 01E0     		b	.L248
 2577              	.L228:
 993:.\display.c   ****     }else
 994:.\display.c   ****     {
 995:.\display.c   ****         temp[N15_CON] |= (1 << N15);
 2578              		.loc 1 995 0
 2579 01e2 A568     		ldr	r5, [r4, #8]
 2580 01e4 2843     		orr	r0, r5
 2581              	.L248:
 2582 01e6 A060     		str	r0, [r4, #8]
 996:.\display.c   ****     }
 997:.\display.c   ****     
 998:.\display.c   ****     if(DisFlag.errorsignflash == 0)
 2583              		.loc 1 998 0
 2584 01e8 C909     		lsr	r1, r1, #7
 2585 01ea 10D1     		bne	.L230
 999:.\display.c   ****         {
1000:.\display.c   ****             if(DisFlag.errorsign)
 2586              		.loc 1 1000 0
 2587 01ec 9007     		lsl	r0, r2, #30
 2588 01ee 06D5     		bpl	.L231
1001:.\display.c   ****             {
1002:.\display.c   ****                 temp[P1_CON] &= ~(1 << P1);
 2589              		.loc 1 1002 0
 2590 01f0 314D     		ldr	r5, .L250+20
 2591 01f2 2168     		ldr	r1, [r4]
1003:.\display.c   ****                 temp[P2_CON] &= ~(1 << P2);
 2592              		.loc 1 1003 0
 2593 01f4 6368     		ldr	r3, [r4, #4]
1002:.\display.c   ****                 temp[P1_CON] &= ~(1 << P1);
 2594              		.loc 1 1002 0
 2595 01f6 2940     		and	r1, r5
ARM GAS  C:\Users\ZHANGM~1\AppData\Local\Temp\ccWWGwEp.s 			page 75


 2596 01f8 2160     		str	r1, [r4]
 2597              		.loc 1 1003 0
 2598 01fa 1D40     		and	r5, r3
 2599 01fc 18E0     		b	.L249
 2600              	.L231:
1004:.\display.c   ****             }else
1005:.\display.c   ****             {
1006:.\display.c   ****                 temp[P1_CON] |= (1 << P1);
 2601              		.loc 1 1006 0
 2602 01fe 2068     		ldr	r0, [r4]
 2603 0200 8022     		mov	r2, #128
 2604 0202 9501     		lsl	r5, r2, #6
1007:.\display.c   ****                 temp[P2_CON] |= (1 << P2);
 2605              		.loc 1 1007 0
 2606 0204 6668     		ldr	r6, [r4, #4]
1006:.\display.c   ****                 temp[P1_CON] |= (1 << P1);
 2607              		.loc 1 1006 0
 2608 0206 2843     		orr	r0, r5
 2609 0208 2060     		str	r0, [r4]
 2610              		.loc 1 1007 0
 2611 020a 3543     		orr	r5, r6
 2612 020c 10E0     		b	.L249
 2613              	.L230:
1008:.\display.c   ****             }
1009:.\display.c   ****         }else
1010:.\display.c   ****         {
1011:.\display.c   ****             if(DisFlag.sta)
 2614              		.loc 1 1011 0
 2615 020e DB78     		ldrb	r3, [r3, #3]
 2616 0210 5D06     		lsl	r5, r3, #25
 2617 0212 06D5     		bpl	.L233
1012:.\display.c   ****             {
1013:.\display.c   ****                 temp[P1_CON] &= ~(1 << P1);
 2618              		.loc 1 1013 0
 2619 0214 284D     		ldr	r5, .L250+20
 2620 0216 2168     		ldr	r1, [r4]
1014:.\display.c   ****                 temp[P2_CON] &= ~(1 << P2);
 2621              		.loc 1 1014 0
 2622 0218 6368     		ldr	r3, [r4, #4]
1013:.\display.c   ****                 temp[P1_CON] &= ~(1 << P1);
 2623              		.loc 1 1013 0
 2624 021a 2940     		and	r1, r5
 2625 021c 2160     		str	r1, [r4]
 2626              		.loc 1 1014 0
 2627 021e 1D40     		and	r5, r3
 2628 0220 06E0     		b	.L249
 2629              	.L233:
1015:.\display.c   ****             }else
1016:.\display.c   ****             {
1017:.\display.c   ****                 temp[P1_CON] |= (1 << P1);
 2630              		.loc 1 1017 0
 2631 0222 2068     		ldr	r0, [r4]
 2632 0224 8022     		mov	r2, #128
 2633 0226 9501     		lsl	r5, r2, #6
1018:.\display.c   ****                 temp[P2_CON] |= (1 << P2);
 2634              		.loc 1 1018 0
 2635 0228 6668     		ldr	r6, [r4, #4]
ARM GAS  C:\Users\ZHANGM~1\AppData\Local\Temp\ccWWGwEp.s 			page 76


1017:.\display.c   ****                 temp[P1_CON] |= (1 << P1);
 2636              		.loc 1 1017 0
 2637 022a 2843     		orr	r0, r5
 2638 022c 2060     		str	r0, [r4]
 2639              		.loc 1 1018 0
 2640 022e 3543     		orr	r5, r6
 2641              	.L249:
 2642 0230 6560     		str	r5, [r4, #4]
1019:.\display.c   ****             }
1020:.\display.c   ****         }    
1021:.\display.c   ****         
1022:.\display.c   ****         
1023:.\display.c   ****     
1024:.\display.c   ****     
1025:.\display.c   ****     
1026:.\display.c   ****     
1027:.\display.c   ****     
1028:.\display.c   ****     //*******************************************************,
1029:.\display.c   ****     temp[S_CON] |= (0x000003ff<<S_SHIFT);
1030:.\display.c   ****     temp[S_CON] &= ~((0x000003ff >> temps)<<S_SHIFT);
 2643              		.loc 1 1030 0
 2644 0232 224D     		ldr	r5, .L250+24
 2645 0234 224A     		ldr	r2, .L250+28
 2646 0236 2878     		ldrb	r0, [r5]
 2647 0238 161C     		mov	r6, r2
 2648 023a 0641     		asr	r6, r6, r0
1029:.\display.c   ****     temp[S_CON] |= (0x000003ff<<S_SHIFT);
 2649              		.loc 1 1029 0
 2650 023c 214B     		ldr	r3, .L250+32
 2651              		.loc 1 1030 0
 2652 023e F500     		lsl	r5, r6, #3
1029:.\display.c   ****     temp[S_CON] |= (0x000003ff<<S_SHIFT);
 2653              		.loc 1 1029 0
 2654 0240 2068     		ldr	r0, [r4]
1031:.\display.c   ****     temp[H_CON] |= (0x000003ff<<H_SHIFT);
1032:.\display.c   ****     temp[H_CON] &= ~((0x000003ff >> temph)<<H_SHIFT);
 2655              		.loc 1 1032 0
 2656 0242 214E     		ldr	r6, .L250+36
1029:.\display.c   ****     temp[S_CON] |= (0x000003ff<<S_SHIFT);
 2657              		.loc 1 1029 0
 2658 0244 1843     		orr	r0, r3
 2659              		.loc 1 1032 0
 2660 0246 3178     		ldrb	r1, [r6]
1030:.\display.c   ****     temp[S_CON] &= ~((0x000003ff >> temps)<<S_SHIFT);
 2661              		.loc 1 1030 0
 2662 0248 A843     		bic	r0, r5
 2663              		.loc 1 1032 0
 2664 024a 151C     		mov	r5, r2
 2665 024c 0D41     		asr	r5, r5, r1
 2666 024e EE00     		lsl	r6, r5, #3
1031:.\display.c   ****     temp[H_CON] |= (0x000003ff<<H_SHIFT);
 2667              		.loc 1 1031 0
 2668 0250 6168     		ldr	r1, [r4, #4]
1033:.\display.c   ****     temp[J_CON] |= (0x000003ff<<J_SHIFT);
1034:.\display.c   ****     temp[J_CON] &= ~((0x000003ff >> tempj)<<J_SHIFT);
 2669              		.loc 1 1034 0
 2670 0252 1E4D     		ldr	r5, .L250+40
ARM GAS  C:\Users\ZHANGM~1\AppData\Local\Temp\ccWWGwEp.s 			page 77


1030:.\display.c   ****     temp[S_CON] &= ~((0x000003ff >> temps)<<S_SHIFT);
 2671              		.loc 1 1030 0
 2672 0254 2060     		str	r0, [r4]
1031:.\display.c   ****     temp[H_CON] |= (0x000003ff<<H_SHIFT);
 2673              		.loc 1 1031 0
 2674 0256 1943     		orr	r1, r3
 2675              		.loc 1 1034 0
 2676 0258 2878     		ldrb	r0, [r5]
1032:.\display.c   ****     temp[H_CON] &= ~((0x000003ff >> temph)<<H_SHIFT);
 2677              		.loc 1 1032 0
 2678 025a B143     		bic	r1, r6
 2679              		.loc 1 1034 0
 2680 025c 161C     		mov	r6, r2
 2681 025e 0641     		asr	r6, r6, r0
1033:.\display.c   ****     temp[J_CON] |= (0x000003ff<<J_SHIFT);
 2682              		.loc 1 1033 0
 2683 0260 A068     		ldr	r0, [r4, #8]
 2684              		.loc 1 1034 0
 2685 0262 F500     		lsl	r5, r6, #3
1035:.\display.c   ****     temp[K_CON] |= (0x000003ff<<K_SHIFT);
1036:.\display.c   ****     temp[K_CON] &= ~((0x000003ff >> tempk)<<K_SHIFT);
 2686              		.loc 1 1036 0
 2687 0264 1A4E     		ldr	r6, .L250+44
1033:.\display.c   ****     temp[J_CON] |= (0x000003ff<<J_SHIFT);
 2688              		.loc 1 1033 0
 2689 0266 1843     		orr	r0, r3
1034:.\display.c   ****     temp[J_CON] &= ~((0x000003ff >> tempj)<<J_SHIFT);
 2690              		.loc 1 1034 0
 2691 0268 A843     		bic	r0, r5
 2692              		.loc 1 1036 0
 2693 026a 3578     		ldrb	r5, [r6]
1032:.\display.c   ****     temp[H_CON] &= ~((0x000003ff >> temph)<<H_SHIFT);
 2694              		.loc 1 1032 0
 2695 026c 6160     		str	r1, [r4, #4]
 2696              		.loc 1 1036 0
 2697 026e 111C     		mov	r1, r2
 2698 0270 2941     		asr	r1, r1, r5
 2699 0272 CE00     		lsl	r6, r1, #3
1035:.\display.c   ****     temp[K_CON] |= (0x000003ff<<K_SHIFT);
 2700              		.loc 1 1035 0
 2701 0274 E568     		ldr	r5, [r4, #12]
1037:.\display.c   ****     temp[L_CON] |= (0x000003ff<<L_SHIFT);
1038:.\display.c   ****     temp[L_CON] &= ~((0x000003ff >> templ)<<L_SHIFT);
 2702              		.loc 1 1038 0
 2703 0276 1749     		ldr	r1, .L250+48
1034:.\display.c   ****     temp[J_CON] &= ~((0x000003ff >> tempj)<<J_SHIFT);
 2704              		.loc 1 1034 0
 2705 0278 A060     		str	r0, [r4, #8]
1035:.\display.c   ****     temp[K_CON] |= (0x000003ff<<K_SHIFT);
 2706              		.loc 1 1035 0
 2707 027a 1D43     		orr	r5, r3
 2708              		.loc 1 1038 0
 2709 027c 0878     		ldrb	r0, [r1]
1036:.\display.c   ****     temp[K_CON] &= ~((0x000003ff >> tempk)<<K_SHIFT);
 2710              		.loc 1 1036 0
 2711 027e B543     		bic	r5, r6
 2712              		.loc 1 1038 0
ARM GAS  C:\Users\ZHANGM~1\AppData\Local\Temp\ccWWGwEp.s 			page 78


 2713 0280 161C     		mov	r6, r2
 2714 0282 0641     		asr	r6, r6, r0
 2715 0284 F000     		lsl	r0, r6, #3
1037:.\display.c   ****     temp[L_CON] |= (0x000003ff<<L_SHIFT);
 2716              		.loc 1 1037 0
 2717 0286 2169     		ldr	r1, [r4, #16]
1039:.\display.c   ****     temp[M_CON] |= (0x000003ff<<M_SHIFT);
1040:.\display.c   ****     temp[M_CON] &= ~((0x000003ff >> tempm)<<M_SHIFT);
 2718              		.loc 1 1040 0
 2719 0288 134E     		ldr	r6, .L250+52
1036:.\display.c   ****     temp[K_CON] &= ~((0x000003ff >> tempk)<<K_SHIFT);
 2720              		.loc 1 1036 0
 2721 028a E560     		str	r5, [r4, #12]
1037:.\display.c   ****     temp[L_CON] |= (0x000003ff<<L_SHIFT);
 2722              		.loc 1 1037 0
 2723 028c 1943     		orr	r1, r3
 2724              		.loc 1 1040 0
 2725 028e 3578     		ldrb	r5, [r6]
1038:.\display.c   ****     temp[L_CON] &= ~((0x000003ff >> templ)<<L_SHIFT);
 2726              		.loc 1 1038 0
 2727 0290 8143     		bic	r1, r0
1039:.\display.c   ****     temp[M_CON] |= (0x000003ff<<M_SHIFT);
 2728              		.loc 1 1039 0
 2729 0292 6069     		ldr	r0, [r4, #20]
 2730              		.loc 1 1040 0
 2731 0294 2A41     		asr	r2, r2, r5
 2732 0296 D200     		lsl	r2, r2, #3
1039:.\display.c   ****     temp[M_CON] |= (0x000003ff<<M_SHIFT);
 2733              		.loc 1 1039 0
 2734 0298 0343     		orr	r3, r0
 2735              		.loc 1 1040 0
 2736 029a 9343     		bic	r3, r2
1038:.\display.c   ****     temp[L_CON] &= ~((0x000003ff >> templ)<<L_SHIFT);
 2737              		.loc 1 1038 0
 2738 029c 2161     		str	r1, [r4, #16]
 2739              		.loc 1 1040 0
 2740 029e 6361     		str	r3, [r4, #20]
1041:.\display.c   ****     
1042:.\display.c   ****     
1043:.\display.c   ****     
1044:.\display.c   ****     
1045:.\display.c   ****     
1046:.\display.c   ****     
1047:.\display.c   ****     
1048:.\display.c   ****     
1049:.\display.c   ****     
1050:.\display.c   ****     
1051:.\display.c   ****     
1052:.\display.c   ****     
1053:.\display.c   ****     
1054:.\display.c   ****     
1055:.\display.c   ****     
1056:.\display.c   ****     
1057:.\display.c   ****     
1058:.\display.c   ****     
1059:.\display.c   ****     
1060:.\display.c   ****     
ARM GAS  C:\Users\ZHANGM~1\AppData\Local\Temp\ccWWGwEp.s 			page 79


1061:.\display.c   ****     
1062:.\display.c   ****     
1063:.\display.c   **** 
1064:.\display.c   **** 
1065:.\display.c   **** 
1066:.\display.c   **** 
1067:.\display.c   **** 
1068:.\display.c   **** 
1069:.\display.c   **** }
 2741              		.loc 1 1069 0
 2742              		@ sp needed for prologue
 2743 02a0 70BD     		pop	{r4, r5, r6, pc}
 2744              	.L251:
 2745 02a2 C046     		.align	2
 2746              	.L250:
 2747 02a4 00000000 		.word	WorkFlag
 2748 02a8 00000000 		.word	temp
 2749 02ac 00000000 		.word	Error_Data
 2750 02b0 00000000 		.word	DisFlag
 2751 02b4 00000000 		.word	FlashCnt
 2752 02b8 FFDFFFFF 		.word	-8193
 2753 02bc 00000000 		.word	temps
 2754 02c0 FF030000 		.word	1023
 2755 02c4 F81F0000 		.word	8184
 2756 02c8 00000000 		.word	temph
 2757 02cc 00000000 		.word	tempj
 2758 02d0 00000000 		.word	tempk
 2759 02d4 00000000 		.word	templ
 2760 02d8 00000000 		.word	tempm
 2761              		.cfi_endproc
 2762              	.LFE38:
 2763              		.size	yanshidisplay, .-yanshidisplay
 2764              		.section	.text.Led_Pannel_Initial,"ax",%progbits
 2765              		.align	1
 2766              		.global	Led_Pannel_Initial
 2767              		.code	16
 2768              		.thumb_func
 2769              		.type	Led_Pannel_Initial, %function
 2770              	Led_Pannel_Initial:
 2771              	.LFB39:
1070:.\display.c   **** void Led_Pannel_Initial(void)
1071:.\display.c   **** {
 2772              		.loc 1 1071 0
 2773              		.cfi_startproc
 2774              	.LVL97:
1072:.\display.c   ****     unsigned char i;
1073:.\display.c   ****     
1074:.\display.c   ****     for(i=0;i<7;i++)
1075:.\display.c   ****         LedPannelBuf[i] = 0xffffffff;
 2775              		.loc 1 1075 0
 2776 0000 074B     		ldr	r3, .L253
 2777 0002 0122     		mov	r2, #1
1076:.\display.c   ****         
1077:.\display.c   ****     DigitalBuf = jingshuiliang;
 2778              		.loc 1 1077 0
 2779 0004 0749     		ldr	r1, .L253+4
1075:.\display.c   ****         LedPannelBuf[i] = 0xffffffff;
ARM GAS  C:\Users\ZHANGM~1\AppData\Local\Temp\ccWWGwEp.s 			page 80


 2780              		.loc 1 1075 0
 2781 0006 5042     		neg	r0, r2
 2782 0008 1860     		str	r0, [r3]
 2783              	.LVL98:
 2784 000a 5860     		str	r0, [r3, #4]
 2785              	.LVL99:
 2786 000c 9860     		str	r0, [r3, #8]
 2787              	.LVL100:
 2788 000e D860     		str	r0, [r3, #12]
 2789              	.LVL101:
 2790 0010 1861     		str	r0, [r3, #16]
 2791              	.LVL102:
 2792 0012 5861     		str	r0, [r3, #20]
 2793              	.LVL103:
 2794 0014 9861     		str	r0, [r3, #24]
 2795              	.LVL104:
 2796              		.loc 1 1077 0
 2797 0016 0A88     		ldrh	r2, [r1]
 2798 0018 034B     		ldr	r3, .L253+8
1078:.\display.c   **** }
 2799              		.loc 1 1078 0
 2800              		@ sp needed for prologue
1077:.\display.c   ****     DigitalBuf = jingshuiliang;
 2801              		.loc 1 1077 0
 2802 001a 1A60     		str	r2, [r3]
 2803              		.loc 1 1078 0
 2804 001c 7047     		bx	lr
 2805              	.L254:
 2806 001e C046     		.align	2
 2807              	.L253:
 2808 0020 00000000 		.word	LedPannelBuf
 2809 0024 00000000 		.word	jingshuiliang
 2810 0028 00000000 		.word	DigitalBuf
 2811              		.cfi_endproc
 2812              	.LFE39:
 2813              		.size	Led_Pannel_Initial, .-Led_Pannel_Initial
 2814              		.section	.text.Led_Pannel_Display,"ax",%progbits
 2815              		.align	1
 2816              		.global	Led_Pannel_Display
 2817              		.code	16
 2818              		.thumb_func
 2819              		.type	Led_Pannel_Display, %function
 2820              	Led_Pannel_Display:
 2821              	.LFB40:
1079:.\display.c   **** void Led_Pannel_Display(void)
1080:.\display.c   **** {
 2822              		.loc 1 1080 0
 2823              		.cfi_startproc
 2824 0000 38B5     		push	{r3, r4, r5, lr}
 2825              	.LCFI7:
 2826              		.cfi_def_cfa_offset 16
 2827              		.cfi_offset 3, -16
 2828              		.cfi_offset 4, -12
 2829              		.cfi_offset 5, -8
 2830              		.cfi_offset 14, -4
1081:.\display.c   **** 	  if((WorkFlag.poweroff==1)&&(WorkFlag.poweron==0))
 2831              		.loc 1 1081 0
ARM GAS  C:\Users\ZHANGM~1\AppData\Local\Temp\ccWWGwEp.s 			page 81


 2832 0002 1E4C     		ldr	r4, .L269
 2833 0004 3F22     		mov	r2, #63
 2834 0006 6378     		ldrb	r3, [r4, #1]
 2835 0008 9343     		bic	r3, r2
 2836 000a 802B     		cmp	r3, #128
 2837 000c 03D1     		bne	.L256
 2838              	.L260:
1082:.\display.c   **** 	  	{
1083:.\display.c   ****     	COMN_Write(0);
 2839              		.loc 1 1083 0
 2840 000e 0020     		mov	r0, #0
 2841 0010 FFF7FEFF 		bl	COMN_Write
 2842              	.LVL105:
1084:.\display.c   ****     	return;
 2843              		.loc 1 1084 0
 2844 0014 30E0     		b	.L255
 2845              	.L256:
1085:.\display.c   ****     	}
1086:.\display.c   ****     if(WorkFlag.yanshista == 0&&WorkFlag.standbysta==0&&zijiandisplayfig==1)
 2846              		.loc 1 1086 0
 2847 0016 1A48     		ldr	r0, .L269+4
 2848 0018 2168     		ldr	r1, [r4]
 2849 001a 0142     		tst	r1, r0
 2850 001c 05D1     		bne	.L258
 2851              		.loc 1 1086 0 is_stmt 0 discriminator 1
 2852 001e 194D     		ldr	r5, .L269+8
 2853 0020 2B78     		ldrb	r3, [r5]
 2854 0022 012B     		cmp	r3, #1
 2855 0024 01D1     		bne	.L258
1087:.\display.c   ****       {
1088:.\display.c   ****           Led_Pannel_Updata();    
 2856              		.loc 1 1088 0 is_stmt 1
 2857 0026 FFF7FEFF 		bl	Led_Pannel_Updata
 2858              	.LVL106:
 2859              	.L258:
1089:.\display.c   ****  
1090:.\display.c   ****       }  
1091:.\display.c   ****     if(WorkFlag.yanshista == 1) 		
 2860              		.loc 1 1091 0
 2861 002a 6278     		ldrb	r2, [r4, #1]
 2862 002c 0125     		mov	r5, #1
 2863 002e 2A42     		tst	r2, r5
 2864 0030 01D0     		beq	.L259
1092:.\display.c   ****     	{
1093:.\display.c   ****     		yanshidisplay();
 2865              		.loc 1 1093 0
 2866 0032 FFF7FEFF 		bl	yanshidisplay
 2867              	.LVL107:
 2868              	.L259:
1094:.\display.c   ****     		    		
1095:.\display.c   ****     	}  
1096:.\display.c   ****     if(WorkFlag.standbysta==0)  
 2869              		.loc 1 1096 0
 2870 0036 A078     		ldrb	r0, [r4, #2]
 2871 0038 2840     		and	r0, r5
 2872 003a E8D1     		bne	.L260
1097:.\display.c   ****     {
ARM GAS  C:\Users\ZHANGM~1\AppData\Local\Temp\ccWWGwEp.s 			page 82


1098:.\display.c   ****         COMN_Write(0);
 2873              		.loc 1 1098 0
 2874 003c FFF7FEFF 		bl	COMN_Write
 2875              	.LVL108:
1099:.\display.c   ****         
1100:.\display.c   ****         if(WorkFlag.yanshista==0)
 2876              		.loc 1 1100 0
 2877 0040 6078     		ldrb	r0, [r4, #1]
 2878 0042 0121     		mov	r1, #1
 2879 0044 104C     		ldr	r4, .L269+12
 2880 0046 0842     		tst	r0, r1
 2881 0048 03D1     		bne	.L261
1101:.\display.c   ****             S164_Trans_abyte(LedPannelBuf[LedPannelCnt]);//S164_Trans_abyte
 2882              		.loc 1 1101 0
 2883 004a 2078     		ldrb	r0, [r4]
 2884 004c 0F4D     		ldr	r5, .L269+16
 2885 004e 8200     		lsl	r2, r0, #2
 2886 0050 02E0     		b	.L267
 2887              	.L261:
1102:.\display.c   ****         else
1103:.\display.c   ****             S164_Trans_abyte(temp[LedPannelCnt]);//S164_Trans_abyte
 2888              		.loc 1 1103 0
 2889 0052 2378     		ldrb	r3, [r4]
 2890 0054 0E4D     		ldr	r5, .L269+20
 2891 0056 9A00     		lsl	r2, r3, #2
 2892              	.L267:
 2893 0058 5059     		ldr	r0, [r2, r5]
 2894 005a FFF7FEFF 		bl	S164_Trans_abyte
 2895              	.LVL109:
1104:.\display.c   ****      
1105:.\display.c   ****         
1106:.\display.c   ****         COMN_Write(0x40 >> LedPannelCnt);
 2896              		.loc 1 1106 0
 2897 005e 2178     		ldrb	r1, [r4]
 2898 0060 4023     		mov	r3, #64
 2899 0062 0B41     		asr	r3, r3, r1
 2900 0064 D8B2     		uxtb	r0, r3
 2901 0066 FFF7FEFF 		bl	COMN_Write
 2902              	.LVL110:
1107:.\display.c   ****         
1108:.\display.c   ****         LedPannelCnt++;
 2903              		.loc 1 1108 0
 2904 006a 2278     		ldrb	r2, [r4]
 2905 006c 0132     		add	r2, r2, #1
 2906 006e D5B2     		uxtb	r5, r2
1109:.\display.c   ****         if(LedPannelCnt >= 7)
 2907              		.loc 1 1109 0
 2908 0070 062D     		cmp	r5, #6
 2909 0072 00D9     		bls	.L268
 2910              	.L263:
1110:.\display.c   ****             LedPannelCnt = 0;
 2911              		.loc 1 1110 0
 2912 0074 0025     		mov	r5, #0
 2913              	.L268:
 2914 0076 2570     		strb	r5, [r4]
 2915              	.L255:
1111:.\display.c   ****     }
ARM GAS  C:\Users\ZHANGM~1\AppData\Local\Temp\ccWWGwEp.s 			page 83


1112:.\display.c   ****     else
1113:.\display.c   ****     
1114:.\display.c   ****          COMN_Write(0);
1115:.\display.c   **** 
1116:.\display.c   ****         
1117:.\display.c   **** }
 2916              		.loc 1 1117 0
 2917              		@ sp needed for prologue
 2918 0078 38BD     		pop	{r3, r4, r5, pc}
 2919              	.L270:
 2920 007a C046     		.align	2
 2921              	.L269:
 2922 007c 00000000 		.word	WorkFlag
 2923 0080 00010100 		.word	65792
 2924 0084 00000000 		.word	zijiandisplayfig
 2925 0088 00000000 		.word	LedPannelCnt
 2926 008c 00000000 		.word	LedPannelBuf
 2927 0090 00000000 		.word	temp
 2928              		.cfi_endproc
 2929              	.LFE40:
 2930              		.size	Led_Pannel_Display, .-Led_Pannel_Display
 2931              		.comm	LedPannelCnt,1,1
 2932              		.comm	tempm,1,1
 2933              		.comm	templ,1,1
 2934              		.comm	tempk,1,1
 2935              		.comm	tempj,1,1
 2936              		.comm	temph,1,1
 2937              		.comm	temps,1,1
 2938              		.comm	StaFlashCnt,1,1
 2939              		.comm	DisFlag,8,4
 2940              		.comm	FlashCnt,1,1
 2941              		.comm	MPercent,1,1
 2942              		.comm	LData,4,4
 2943              		.comm	LPercent,1,1
 2944              		.comm	KData,4,4
 2945              		.comm	KPercent,1,1
 2946              		.comm	JData,4,4
 2947              		.comm	JPercent,1,1
 2948              		.comm	HData,4,4
 2949              		.comm	HPercent,1,1
 2950              		.comm	SPercent,1,1
 2951              		.comm	DigitalBuf,4,4
 2952              		.comm	templvxin,6,1
 2953              		.comm	temp,28,4
 2954              		.comm	LedPannelBuf,28,4
 2955              		.text
 2956              	.Letext0:
 2957              		.file 2 "./Generated_Source/PSoC4/cytypes.h"
 2958              		.file 3 ".\\fun.h"
 2959              		.file 4 ".\\display.h"
 2960              		.file 5 ".\\uart_wifi.h"
 2961              		.file 6 "./Generated_Source/PSoC4/HCLK.h"
 2962              		.file 7 "./Generated_Source/PSoC4/HSDA.h"
 2963              		.file 8 "./Generated_Source/PSoC4/CyLib.h"
 2964              		.file 9 "./Generated_Source/PSoC4/PWM.h"
 2965              		.file 10 "./Generated_Source/PSoC4/COMN.h"
 2966              		.section	.debug_info,"",%progbits
ARM GAS  C:\Users\ZHANGM~1\AppData\Local\Temp\ccWWGwEp.s 			page 84


 2967              	.Ldebug_info0:
 2968 0000 A80C0000 		.4byte	0xca8
 2969 0004 0200     		.2byte	0x2
 2970 0006 00000000 		.4byte	.Ldebug_abbrev0
 2971 000a 04       		.byte	0x4
 2972 000b 01       		.uleb128 0x1
 2973 000c B6050000 		.4byte	.LASF134
 2974 0010 01       		.byte	0x1
 2975 0011 FF050000 		.4byte	.LASF135
 2976 0015 7D040000 		.4byte	.LASF136
 2977 0019 00000000 		.4byte	.Ldebug_ranges0+0
 2978 001d 00000000 		.4byte	0
 2979 0021 00000000 		.4byte	0
 2980 0025 00000000 		.4byte	.Ldebug_line0
 2981 0029 02       		.uleb128 0x2
 2982 002a 04       		.byte	0x4
 2983 002b 07       		.byte	0x7
 2984 002c 90000000 		.4byte	.LASF0
 2985 0030 02       		.uleb128 0x2
 2986 0031 01       		.byte	0x1
 2987 0032 06       		.byte	0x6
 2988 0033 7B050000 		.4byte	.LASF1
 2989 0037 02       		.uleb128 0x2
 2990 0038 01       		.byte	0x1
 2991 0039 08       		.byte	0x8
 2992 003a 07050000 		.4byte	.LASF2
 2993 003e 02       		.uleb128 0x2
 2994 003f 02       		.byte	0x2
 2995 0040 05       		.byte	0x5
 2996 0041 65040000 		.4byte	.LASF3
 2997 0045 02       		.uleb128 0x2
 2998 0046 02       		.byte	0x2
 2999 0047 07       		.byte	0x7
 3000 0048 93050000 		.4byte	.LASF4
 3001 004c 02       		.uleb128 0x2
 3002 004d 04       		.byte	0x4
 3003 004e 05       		.byte	0x5
 3004 004f 6F040000 		.4byte	.LASF5
 3005 0053 02       		.uleb128 0x2
 3006 0054 04       		.byte	0x4
 3007 0055 07       		.byte	0x7
 3008 0056 ED040000 		.4byte	.LASF6
 3009 005a 02       		.uleb128 0x2
 3010 005b 08       		.byte	0x8
 3011 005c 05       		.byte	0x5
 3012 005d 47030000 		.4byte	.LASF7
 3013 0061 02       		.uleb128 0x2
 3014 0062 08       		.byte	0x8
 3015 0063 07       		.byte	0x7
 3016 0064 D8010000 		.4byte	.LASF8
 3017 0068 03       		.uleb128 0x3
 3018 0069 04       		.byte	0x4
 3019 006a 05       		.byte	0x5
 3020 006b 696E7400 		.ascii	"int\000"
 3021 006f 04       		.uleb128 0x4
 3022 0070 17060000 		.4byte	.LASF9
 3023 0074 02       		.byte	0x2
ARM GAS  C:\Users\ZHANGM~1\AppData\Local\Temp\ccWWGwEp.s 			page 85


 3024 0075 5B       		.byte	0x5b
 3025 0076 37000000 		.4byte	0x37
 3026 007a 04       		.uleb128 0x4
 3027 007b 2B030000 		.4byte	.LASF10
 3028 007f 02       		.byte	0x2
 3029 0080 5C       		.byte	0x5c
 3030 0081 45000000 		.4byte	0x45
 3031 0085 02       		.uleb128 0x2
 3032 0086 04       		.byte	0x4
 3033 0087 04       		.byte	0x4
 3034 0088 84010000 		.4byte	.LASF11
 3035 008c 02       		.uleb128 0x2
 3036 008d 08       		.byte	0x8
 3037 008e 04       		.byte	0x4
 3038 008f 1D060000 		.4byte	.LASF12
 3039 0093 02       		.uleb128 0x2
 3040 0094 01       		.byte	0x1
 3041 0095 08       		.byte	0x8
 3042 0096 1B030000 		.4byte	.LASF13
 3043 009a 02       		.uleb128 0x2
 3044 009b 04       		.byte	0x4
 3045 009c 07       		.byte	0x7
 3046 009d E4040000 		.4byte	.LASF14
 3047 00a1 05       		.uleb128 0x5
 3048 00a2 04       		.byte	0x4
 3049 00a3 03       		.byte	0x3
 3050 00a4 75       		.byte	0x75
 3051 00a5 A8020000 		.4byte	0x2a8
 3052 00a9 06       		.uleb128 0x6
 3053 00aa 06010000 		.4byte	.LASF15
 3054 00ae 03       		.byte	0x3
 3055 00af 76       		.byte	0x76
 3056 00b0 29000000 		.4byte	0x29
 3057 00b4 04       		.byte	0x4
 3058 00b5 01       		.byte	0x1
 3059 00b6 1F       		.byte	0x1f
 3060 00b7 02       		.byte	0x2
 3061 00b8 23       		.byte	0x23
 3062 00b9 00       		.uleb128 0
 3063 00ba 06       		.uleb128 0x6
 3064 00bb 8A010000 		.4byte	.LASF16
 3065 00bf 03       		.byte	0x3
 3066 00c0 77       		.byte	0x77
 3067 00c1 29000000 		.4byte	0x29
 3068 00c5 04       		.byte	0x4
 3069 00c6 01       		.byte	0x1
 3070 00c7 1E       		.byte	0x1e
 3071 00c8 02       		.byte	0x2
 3072 00c9 23       		.byte	0x23
 3073 00ca 00       		.uleb128 0
 3074 00cb 06       		.uleb128 0x6
 3075 00cc 3F020000 		.4byte	.LASF17
 3076 00d0 03       		.byte	0x3
 3077 00d1 78       		.byte	0x78
 3078 00d2 29000000 		.4byte	0x29
 3079 00d6 04       		.byte	0x4
 3080 00d7 01       		.byte	0x1
ARM GAS  C:\Users\ZHANGM~1\AppData\Local\Temp\ccWWGwEp.s 			page 86


 3081 00d8 1D       		.byte	0x1d
 3082 00d9 02       		.byte	0x2
 3083 00da 23       		.byte	0x23
 3084 00db 00       		.uleb128 0
 3085 00dc 06       		.uleb128 0x6
 3086 00dd 00010000 		.4byte	.LASF18
 3087 00e1 03       		.byte	0x3
 3088 00e2 79       		.byte	0x79
 3089 00e3 29000000 		.4byte	0x29
 3090 00e7 04       		.byte	0x4
 3091 00e8 01       		.byte	0x1
 3092 00e9 1C       		.byte	0x1c
 3093 00ea 02       		.byte	0x2
 3094 00eb 23       		.byte	0x23
 3095 00ec 00       		.uleb128 0
 3096 00ed 06       		.uleb128 0x6
 3097 00ee 9D000000 		.4byte	.LASF19
 3098 00f2 03       		.byte	0x3
 3099 00f3 7A       		.byte	0x7a
 3100 00f4 29000000 		.4byte	0x29
 3101 00f8 04       		.byte	0x4
 3102 00f9 01       		.byte	0x1
 3103 00fa 1B       		.byte	0x1b
 3104 00fb 02       		.byte	0x2
 3105 00fc 23       		.byte	0x23
 3106 00fd 00       		.uleb128 0
 3107 00fe 06       		.uleb128 0x6
 3108 00ff CC010000 		.4byte	.LASF20
 3109 0103 03       		.byte	0x3
 3110 0104 7B       		.byte	0x7b
 3111 0105 29000000 		.4byte	0x29
 3112 0109 04       		.byte	0x4
 3113 010a 01       		.byte	0x1
 3114 010b 1A       		.byte	0x1a
 3115 010c 02       		.byte	0x2
 3116 010d 23       		.byte	0x23
 3117 010e 00       		.uleb128 0
 3118 010f 06       		.uleb128 0x6
 3119 0110 34050000 		.4byte	.LASF21
 3120 0114 03       		.byte	0x3
 3121 0115 7C       		.byte	0x7c
 3122 0116 29000000 		.4byte	0x29
 3123 011a 04       		.byte	0x4
 3124 011b 01       		.byte	0x1
 3125 011c 19       		.byte	0x19
 3126 011d 02       		.byte	0x2
 3127 011e 23       		.byte	0x23
 3128 011f 00       		.uleb128 0
 3129 0120 06       		.uleb128 0x6
 3130 0121 9E010000 		.4byte	.LASF22
 3131 0125 03       		.byte	0x3
 3132 0126 7D       		.byte	0x7d
 3133 0127 29000000 		.4byte	0x29
 3134 012b 04       		.byte	0x4
 3135 012c 01       		.byte	0x1
 3136 012d 18       		.byte	0x18
 3137 012e 02       		.byte	0x2
ARM GAS  C:\Users\ZHANGM~1\AppData\Local\Temp\ccWWGwEp.s 			page 87


 3138 012f 23       		.byte	0x23
 3139 0130 00       		.uleb128 0
 3140 0131 06       		.uleb128 0x6
 3141 0132 C1030000 		.4byte	.LASF23
 3142 0136 03       		.byte	0x3
 3143 0137 7E       		.byte	0x7e
 3144 0138 29000000 		.4byte	0x29
 3145 013c 04       		.byte	0x4
 3146 013d 01       		.byte	0x1
 3147 013e 17       		.byte	0x17
 3148 013f 02       		.byte	0x2
 3149 0140 23       		.byte	0x23
 3150 0141 00       		.uleb128 0
 3151 0142 06       		.uleb128 0x6
 3152 0143 D3030000 		.4byte	.LASF24
 3153 0147 03       		.byte	0x3
 3154 0148 7F       		.byte	0x7f
 3155 0149 29000000 		.4byte	0x29
 3156 014d 04       		.byte	0x4
 3157 014e 01       		.byte	0x1
 3158 014f 16       		.byte	0x16
 3159 0150 02       		.byte	0x2
 3160 0151 23       		.byte	0x23
 3161 0152 00       		.uleb128 0
 3162 0153 06       		.uleb128 0x6
 3163 0154 47010000 		.4byte	.LASF25
 3164 0158 03       		.byte	0x3
 3165 0159 80       		.byte	0x80
 3166 015a 29000000 		.4byte	0x29
 3167 015e 04       		.byte	0x4
 3168 015f 01       		.byte	0x1
 3169 0160 15       		.byte	0x15
 3170 0161 02       		.byte	0x2
 3171 0162 23       		.byte	0x23
 3172 0163 00       		.uleb128 0
 3173 0164 06       		.uleb128 0x6
 3174 0165 29000000 		.4byte	.LASF26
 3175 0169 03       		.byte	0x3
 3176 016a 81       		.byte	0x81
 3177 016b 29000000 		.4byte	0x29
 3178 016f 04       		.byte	0x4
 3179 0170 01       		.byte	0x1
 3180 0171 14       		.byte	0x14
 3181 0172 02       		.byte	0x2
 3182 0173 23       		.byte	0x23
 3183 0174 00       		.uleb128 0
 3184 0175 06       		.uleb128 0x6
 3185 0176 3A060000 		.4byte	.LASF27
 3186 017a 03       		.byte	0x3
 3187 017b 82       		.byte	0x82
 3188 017c 29000000 		.4byte	0x29
 3189 0180 04       		.byte	0x4
 3190 0181 01       		.byte	0x1
 3191 0182 13       		.byte	0x13
 3192 0183 02       		.byte	0x2
 3193 0184 23       		.byte	0x23
 3194 0185 00       		.uleb128 0
ARM GAS  C:\Users\ZHANGM~1\AppData\Local\Temp\ccWWGwEp.s 			page 88


 3195 0186 06       		.uleb128 0x6
 3196 0187 59040000 		.4byte	.LASF28
 3197 018b 03       		.byte	0x3
 3198 018c 83       		.byte	0x83
 3199 018d 29000000 		.4byte	0x29
 3200 0191 04       		.byte	0x4
 3201 0192 01       		.byte	0x1
 3202 0193 12       		.byte	0x12
 3203 0194 02       		.byte	0x2
 3204 0195 23       		.byte	0x23
 3205 0196 00       		.uleb128 0
 3206 0197 06       		.uleb128 0x6
 3207 0198 55030000 		.4byte	.LASF29
 3208 019c 03       		.byte	0x3
 3209 019d 84       		.byte	0x84
 3210 019e 29000000 		.4byte	0x29
 3211 01a2 04       		.byte	0x4
 3212 01a3 01       		.byte	0x1
 3213 01a4 11       		.byte	0x11
 3214 01a5 02       		.byte	0x2
 3215 01a6 23       		.byte	0x23
 3216 01a7 00       		.uleb128 0
 3217 01a8 06       		.uleb128 0x6
 3218 01a9 32030000 		.4byte	.LASF30
 3219 01ad 03       		.byte	0x3
 3220 01ae 85       		.byte	0x85
 3221 01af 29000000 		.4byte	0x29
 3222 01b3 04       		.byte	0x4
 3223 01b4 01       		.byte	0x1
 3224 01b5 10       		.byte	0x10
 3225 01b6 02       		.byte	0x2
 3226 01b7 23       		.byte	0x23
 3227 01b8 00       		.uleb128 0
 3228 01b9 06       		.uleb128 0x6
 3229 01ba 56050000 		.4byte	.LASF31
 3230 01be 03       		.byte	0x3
 3231 01bf 86       		.byte	0x86
 3232 01c0 29000000 		.4byte	0x29
 3233 01c4 04       		.byte	0x4
 3234 01c5 01       		.byte	0x1
 3235 01c6 0F       		.byte	0xf
 3236 01c7 02       		.byte	0x2
 3237 01c8 23       		.byte	0x23
 3238 01c9 00       		.uleb128 0
 3239 01ca 06       		.uleb128 0x6
 3240 01cb 9C020000 		.4byte	.LASF32
 3241 01cf 03       		.byte	0x3
 3242 01d0 87       		.byte	0x87
 3243 01d1 29000000 		.4byte	0x29
 3244 01d5 04       		.byte	0x4
 3245 01d6 01       		.byte	0x1
 3246 01d7 0E       		.byte	0xe
 3247 01d8 02       		.byte	0x2
 3248 01d9 23       		.byte	0x23
 3249 01da 00       		.uleb128 0
 3250 01db 06       		.uleb128 0x6
 3251 01dc 3B030000 		.4byte	.LASF33
ARM GAS  C:\Users\ZHANGM~1\AppData\Local\Temp\ccWWGwEp.s 			page 89


 3252 01e0 03       		.byte	0x3
 3253 01e1 88       		.byte	0x88
 3254 01e2 29000000 		.4byte	0x29
 3255 01e6 04       		.byte	0x4
 3256 01e7 01       		.byte	0x1
 3257 01e8 0D       		.byte	0xd
 3258 01e9 02       		.byte	0x2
 3259 01ea 23       		.byte	0x23
 3260 01eb 00       		.uleb128 0
 3261 01ec 06       		.uleb128 0x6
 3262 01ed 6B020000 		.4byte	.LASF34
 3263 01f1 03       		.byte	0x3
 3264 01f2 89       		.byte	0x89
 3265 01f3 29000000 		.4byte	0x29
 3266 01f7 04       		.byte	0x4
 3267 01f8 01       		.byte	0x1
 3268 01f9 0C       		.byte	0xc
 3269 01fa 02       		.byte	0x2
 3270 01fb 23       		.byte	0x23
 3271 01fc 00       		.uleb128 0
 3272 01fd 06       		.uleb128 0x6
 3273 01fe 35000000 		.4byte	.LASF35
 3274 0202 03       		.byte	0x3
 3275 0203 8A       		.byte	0x8a
 3276 0204 29000000 		.4byte	0x29
 3277 0208 04       		.byte	0x4
 3278 0209 01       		.byte	0x1
 3279 020a 0B       		.byte	0xb
 3280 020b 02       		.byte	0x2
 3281 020c 23       		.byte	0x23
 3282 020d 00       		.uleb128 0
 3283 020e 06       		.uleb128 0x6
 3284 020f A4030000 		.4byte	.LASF36
 3285 0213 03       		.byte	0x3
 3286 0214 8B       		.byte	0x8b
 3287 0215 29000000 		.4byte	0x29
 3288 0219 04       		.byte	0x4
 3289 021a 02       		.byte	0x2
 3290 021b 09       		.byte	0x9
 3291 021c 02       		.byte	0x2
 3292 021d 23       		.byte	0x23
 3293 021e 00       		.uleb128 0
 3294 021f 06       		.uleb128 0x6
 3295 0220 FF040000 		.4byte	.LASF37
 3296 0224 03       		.byte	0x3
 3297 0225 8C       		.byte	0x8c
 3298 0226 29000000 		.4byte	0x29
 3299 022a 04       		.byte	0x4
 3300 022b 01       		.byte	0x1
 3301 022c 08       		.byte	0x8
 3302 022d 02       		.byte	0x2
 3303 022e 23       		.byte	0x23
 3304 022f 00       		.uleb128 0
 3305 0230 06       		.uleb128 0x6
 3306 0231 DA040000 		.4byte	.LASF38
 3307 0235 03       		.byte	0x3
 3308 0236 8D       		.byte	0x8d
ARM GAS  C:\Users\ZHANGM~1\AppData\Local\Temp\ccWWGwEp.s 			page 90


 3309 0237 29000000 		.4byte	0x29
 3310 023b 04       		.byte	0x4
 3311 023c 01       		.byte	0x1
 3312 023d 07       		.byte	0x7
 3313 023e 02       		.byte	0x2
 3314 023f 23       		.byte	0x23
 3315 0240 00       		.uleb128 0
 3316 0241 06       		.uleb128 0x6
 3317 0242 EE030000 		.4byte	.LASF39
 3318 0246 03       		.byte	0x3
 3319 0247 8E       		.byte	0x8e
 3320 0248 29000000 		.4byte	0x29
 3321 024c 04       		.byte	0x4
 3322 024d 01       		.byte	0x1
 3323 024e 06       		.byte	0x6
 3324 024f 02       		.byte	0x2
 3325 0250 23       		.byte	0x23
 3326 0251 00       		.uleb128 0
 3327 0252 06       		.uleb128 0x6
 3328 0253 5F020000 		.4byte	.LASF40
 3329 0257 03       		.byte	0x3
 3330 0258 8F       		.byte	0x8f
 3331 0259 29000000 		.4byte	0x29
 3332 025d 04       		.byte	0x4
 3333 025e 01       		.byte	0x1
 3334 025f 05       		.byte	0x5
 3335 0260 02       		.byte	0x2
 3336 0261 23       		.byte	0x23
 3337 0262 00       		.uleb128 0
 3338 0263 06       		.uleb128 0x6
 3339 0264 46020000 		.4byte	.LASF41
 3340 0268 03       		.byte	0x3
 3341 0269 90       		.byte	0x90
 3342 026a 29000000 		.4byte	0x29
 3343 026e 04       		.byte	0x4
 3344 026f 01       		.byte	0x1
 3345 0270 04       		.byte	0x4
 3346 0271 02       		.byte	0x2
 3347 0272 23       		.byte	0x23
 3348 0273 00       		.uleb128 0
 3349 0274 06       		.uleb128 0x6
 3350 0275 35010000 		.4byte	.LASF42
 3351 0279 03       		.byte	0x3
 3352 027a 91       		.byte	0x91
 3353 027b 29000000 		.4byte	0x29
 3354 027f 04       		.byte	0x4
 3355 0280 01       		.byte	0x1
 3356 0281 03       		.byte	0x3
 3357 0282 02       		.byte	0x2
 3358 0283 23       		.byte	0x23
 3359 0284 00       		.uleb128 0
 3360 0285 06       		.uleb128 0x6
 3361 0286 AB030000 		.4byte	.LASF43
 3362 028a 03       		.byte	0x3
 3363 028b 92       		.byte	0x92
 3364 028c 29000000 		.4byte	0x29
 3365 0290 04       		.byte	0x4
ARM GAS  C:\Users\ZHANGM~1\AppData\Local\Temp\ccWWGwEp.s 			page 91


 3366 0291 01       		.byte	0x1
 3367 0292 02       		.byte	0x2
 3368 0293 02       		.byte	0x2
 3369 0294 23       		.byte	0x23
 3370 0295 00       		.uleb128 0
 3371 0296 06       		.uleb128 0x6
 3372 0297 21010000 		.4byte	.LASF44
 3373 029b 03       		.byte	0x3
 3374 029c 93       		.byte	0x93
 3375 029d 29000000 		.4byte	0x29
 3376 02a1 04       		.byte	0x4
 3377 02a2 01       		.byte	0x1
 3378 02a3 01       		.byte	0x1
 3379 02a4 02       		.byte	0x2
 3380 02a5 23       		.byte	0x23
 3381 02a6 00       		.uleb128 0
 3382 02a7 00       		.byte	0
 3383 02a8 05       		.uleb128 0x5
 3384 02a9 04       		.byte	0x4
 3385 02aa 03       		.byte	0x3
 3386 02ab 97       		.byte	0x97
 3387 02ac E4020000 		.4byte	0x2e4
 3388 02b0 06       		.uleb128 0x6
 3389 02b1 0C040000 		.4byte	.LASF45
 3390 02b5 03       		.byte	0x3
 3391 02b6 99       		.byte	0x99
 3392 02b7 29000000 		.4byte	0x29
 3393 02bb 04       		.byte	0x4
 3394 02bc 01       		.byte	0x1
 3395 02bd 1F       		.byte	0x1f
 3396 02be 02       		.byte	0x2
 3397 02bf 23       		.byte	0x23
 3398 02c0 00       		.uleb128 0
 3399 02c1 06       		.uleb128 0x6
 3400 02c2 70020000 		.4byte	.LASF46
 3401 02c6 03       		.byte	0x3
 3402 02c7 9A       		.byte	0x9a
 3403 02c8 29000000 		.4byte	0x29
 3404 02cc 04       		.byte	0x4
 3405 02cd 01       		.byte	0x1
 3406 02ce 1E       		.byte	0x1e
 3407 02cf 02       		.byte	0x2
 3408 02d0 23       		.byte	0x23
 3409 02d1 00       		.uleb128 0
 3410 02d2 06       		.uleb128 0x6
 3411 02d3 01030000 		.4byte	.LASF47
 3412 02d7 03       		.byte	0x3
 3413 02d8 9B       		.byte	0x9b
 3414 02d9 29000000 		.4byte	0x29
 3415 02dd 04       		.byte	0x4
 3416 02de 01       		.byte	0x1
 3417 02df 1D       		.byte	0x1d
 3418 02e0 02       		.byte	0x2
 3419 02e1 23       		.byte	0x23
 3420 02e2 00       		.uleb128 0
 3421 02e3 00       		.byte	0
 3422 02e4 07       		.uleb128 0x7
ARM GAS  C:\Users\ZHANGM~1\AppData\Local\Temp\ccWWGwEp.s 			page 92


 3423 02e5 04       		.byte	0x4
 3424 02e6 03       		.byte	0x3
 3425 02e7 95       		.byte	0x95
 3426 02e8 03030000 		.4byte	0x303
 3427 02ec 08       		.uleb128 0x8
 3428 02ed 616C6C00 		.ascii	"all\000"
 3429 02f1 03       		.byte	0x3
 3430 02f2 96       		.byte	0x96
 3431 02f3 7A000000 		.4byte	0x7a
 3432 02f7 08       		.uleb128 0x8
 3433 02f8 62697400 		.ascii	"bit\000"
 3434 02fc 03       		.byte	0x3
 3435 02fd 9C       		.byte	0x9c
 3436 02fe A8020000 		.4byte	0x2a8
 3437 0302 00       		.byte	0
 3438 0303 05       		.uleb128 0x5
 3439 0304 04       		.byte	0x4
 3440 0305 03       		.byte	0x3
 3441 0306 B7       		.byte	0xb7
 3442 0307 A5030000 		.4byte	0x3a5
 3443 030b 06       		.uleb128 0x6
 3444 030c 63010000 		.4byte	.LASF48
 3445 0310 03       		.byte	0x3
 3446 0311 B9       		.byte	0xb9
 3447 0312 29000000 		.4byte	0x29
 3448 0316 04       		.byte	0x4
 3449 0317 01       		.byte	0x1
 3450 0318 1F       		.byte	0x1f
 3451 0319 02       		.byte	0x2
 3452 031a 23       		.byte	0x23
 3453 031b 00       		.uleb128 0
 3454 031c 06       		.uleb128 0x6
 3455 031d C5040000 		.4byte	.LASF49
 3456 0321 03       		.byte	0x3
 3457 0322 BA       		.byte	0xba
 3458 0323 29000000 		.4byte	0x29
 3459 0327 04       		.byte	0x4
 3460 0328 01       		.byte	0x1
 3461 0329 1E       		.byte	0x1e
 3462 032a 02       		.byte	0x2
 3463 032b 23       		.byte	0x23
 3464 032c 00       		.uleb128 0
 3465 032d 06       		.uleb128 0x6
 3466 032e E0020000 		.4byte	.LASF50
 3467 0332 03       		.byte	0x3
 3468 0333 BB       		.byte	0xbb
 3469 0334 29000000 		.4byte	0x29
 3470 0338 04       		.byte	0x4
 3471 0339 01       		.byte	0x1
 3472 033a 1D       		.byte	0x1d
 3473 033b 02       		.byte	0x2
 3474 033c 23       		.byte	0x23
 3475 033d 00       		.uleb128 0
 3476 033e 06       		.uleb128 0x6
 3477 033f 3A000000 		.4byte	.LASF51
 3478 0343 03       		.byte	0x3
 3479 0344 BC       		.byte	0xbc
ARM GAS  C:\Users\ZHANGM~1\AppData\Local\Temp\ccWWGwEp.s 			page 93


 3480 0345 29000000 		.4byte	0x29
 3481 0349 04       		.byte	0x4
 3482 034a 01       		.byte	0x1
 3483 034b 1C       		.byte	0x1c
 3484 034c 02       		.byte	0x2
 3485 034d 23       		.byte	0x23
 3486 034e 00       		.uleb128 0
 3487 034f 06       		.uleb128 0x6
 3488 0350 90030000 		.4byte	.LASF52
 3489 0354 03       		.byte	0x3
 3490 0355 BD       		.byte	0xbd
 3491 0356 29000000 		.4byte	0x29
 3492 035a 04       		.byte	0x4
 3493 035b 01       		.byte	0x1
 3494 035c 1B       		.byte	0x1b
 3495 035d 02       		.byte	0x2
 3496 035e 23       		.byte	0x23
 3497 035f 00       		.uleb128 0
 3498 0360 06       		.uleb128 0x6
 3499 0361 4F010000 		.4byte	.LASF53
 3500 0365 03       		.byte	0x3
 3501 0366 BE       		.byte	0xbe
 3502 0367 29000000 		.4byte	0x29
 3503 036b 04       		.byte	0x4
 3504 036c 01       		.byte	0x1
 3505 036d 1A       		.byte	0x1a
 3506 036e 02       		.byte	0x2
 3507 036f 23       		.byte	0x23
 3508 0370 00       		.uleb128 0
 3509 0371 06       		.uleb128 0x6
 3510 0372 15050000 		.4byte	.LASF54
 3511 0376 03       		.byte	0x3
 3512 0377 BF       		.byte	0xbf
 3513 0378 29000000 		.4byte	0x29
 3514 037c 04       		.byte	0x4
 3515 037d 01       		.byte	0x1
 3516 037e 19       		.byte	0x19
 3517 037f 02       		.byte	0x2
 3518 0380 23       		.byte	0x23
 3519 0381 00       		.uleb128 0
 3520 0382 06       		.uleb128 0x6
 3521 0383 A4020000 		.4byte	.LASF55
 3522 0387 03       		.byte	0x3
 3523 0388 C0       		.byte	0xc0
 3524 0389 29000000 		.4byte	0x29
 3525 038d 04       		.byte	0x4
 3526 038e 01       		.byte	0x1
 3527 038f 18       		.byte	0x18
 3528 0390 02       		.byte	0x2
 3529 0391 23       		.byte	0x23
 3530 0392 00       		.uleb128 0
 3531 0393 06       		.uleb128 0x6
 3532 0394 09000000 		.4byte	.LASF56
 3533 0398 03       		.byte	0x3
 3534 0399 C1       		.byte	0xc1
 3535 039a 29000000 		.4byte	0x29
 3536 039e 04       		.byte	0x4
ARM GAS  C:\Users\ZHANGM~1\AppData\Local\Temp\ccWWGwEp.s 			page 94


 3537 039f 01       		.byte	0x1
 3538 03a0 17       		.byte	0x17
 3539 03a1 02       		.byte	0x2
 3540 03a2 23       		.byte	0x23
 3541 03a3 00       		.uleb128 0
 3542 03a4 00       		.byte	0
 3543 03a5 07       		.uleb128 0x7
 3544 03a6 04       		.byte	0x4
 3545 03a7 03       		.byte	0x3
 3546 03a8 B5       		.byte	0xb5
 3547 03a9 C4030000 		.4byte	0x3c4
 3548 03ad 08       		.uleb128 0x8
 3549 03ae 616C6C00 		.ascii	"all\000"
 3550 03b2 03       		.byte	0x3
 3551 03b3 B6       		.byte	0xb6
 3552 03b4 7A000000 		.4byte	0x7a
 3553 03b8 08       		.uleb128 0x8
 3554 03b9 62697400 		.ascii	"bit\000"
 3555 03bd 03       		.byte	0x3
 3556 03be C2       		.byte	0xc2
 3557 03bf 03030000 		.4byte	0x303
 3558 03c3 00       		.byte	0
 3559 03c4 05       		.uleb128 0x5
 3560 03c5 08       		.byte	0x8
 3561 03c6 04       		.byte	0x4
 3562 03c7 7F       		.byte	0x7f
 3563 03c8 ED050000 		.4byte	0x5ed
 3564 03cc 06       		.uleb128 0x6
 3565 03cd 48000000 		.4byte	.LASF57
 3566 03d1 04       		.byte	0x4
 3567 03d2 80       		.byte	0x80
 3568 03d3 29000000 		.4byte	0x29
 3569 03d7 04       		.byte	0x4
 3570 03d8 01       		.byte	0x1
 3571 03d9 1F       		.byte	0x1f
 3572 03da 02       		.byte	0x2
 3573 03db 23       		.byte	0x23
 3574 03dc 00       		.uleb128 0
 3575 03dd 06       		.uleb128 0x6
 3576 03de 92010000 		.4byte	.LASF58
 3577 03e2 04       		.byte	0x4
 3578 03e3 81       		.byte	0x81
 3579 03e4 29000000 		.4byte	0x29
 3580 03e8 04       		.byte	0x4
 3581 03e9 01       		.byte	0x1
 3582 03ea 1E       		.byte	0x1e
 3583 03eb 02       		.byte	0x2
 3584 03ec 23       		.byte	0x23
 3585 03ed 00       		.uleb128 0
 3586 03ee 06       		.uleb128 0x6
 3587 03ef 42050000 		.4byte	.LASF59
 3588 03f3 04       		.byte	0x4
 3589 03f4 82       		.byte	0x82
 3590 03f5 29000000 		.4byte	0x29
 3591 03f9 04       		.byte	0x4
 3592 03fa 01       		.byte	0x1
 3593 03fb 1D       		.byte	0x1d
ARM GAS  C:\Users\ZHANGM~1\AppData\Local\Temp\ccWWGwEp.s 			page 95


 3594 03fc 02       		.byte	0x2
 3595 03fd 23       		.byte	0x23
 3596 03fe 00       		.uleb128 0
 3597 03ff 06       		.uleb128 0x6
 3598 0400 AE000000 		.4byte	.LASF60
 3599 0404 04       		.byte	0x4
 3600 0405 83       		.byte	0x83
 3601 0406 29000000 		.4byte	0x29
 3602 040a 04       		.byte	0x4
 3603 040b 01       		.byte	0x1
 3604 040c 1C       		.byte	0x1c
 3605 040d 02       		.byte	0x2
 3606 040e 23       		.byte	0x23
 3607 040f 00       		.uleb128 0
 3608 0410 06       		.uleb128 0x6
 3609 0411 5D010000 		.4byte	.LASF61
 3610 0415 04       		.byte	0x4
 3611 0416 84       		.byte	0x84
 3612 0417 29000000 		.4byte	0x29
 3613 041b 04       		.byte	0x4
 3614 041c 01       		.byte	0x1
 3615 041d 1B       		.byte	0x1b
 3616 041e 02       		.byte	0x2
 3617 041f 23       		.byte	0x23
 3618 0420 00       		.uleb128 0
 3619 0421 06       		.uleb128 0x6
 3620 0422 BB030000 		.4byte	.LASF62
 3621 0426 04       		.byte	0x4
 3622 0427 85       		.byte	0x85
 3623 0428 29000000 		.4byte	0x29
 3624 042c 04       		.byte	0x4
 3625 042d 01       		.byte	0x1
 3626 042e 1A       		.byte	0x1a
 3627 042f 02       		.byte	0x2
 3628 0430 23       		.byte	0x23
 3629 0431 00       		.uleb128 0
 3630 0432 06       		.uleb128 0x6
 3631 0433 B2020000 		.4byte	.LASF63
 3632 0437 04       		.byte	0x4
 3633 0438 86       		.byte	0x86
 3634 0439 29000000 		.4byte	0x29
 3635 043d 04       		.byte	0x4
 3636 043e 01       		.byte	0x1
 3637 043f 19       		.byte	0x19
 3638 0440 02       		.byte	0x2
 3639 0441 23       		.byte	0x23
 3640 0442 00       		.uleb128 0
 3641 0443 06       		.uleb128 0x6
 3642 0444 6B000000 		.4byte	.LASF64
 3643 0448 04       		.byte	0x4
 3644 0449 87       		.byte	0x87
 3645 044a 29000000 		.4byte	0x29
 3646 044e 04       		.byte	0x4
 3647 044f 01       		.byte	0x1
 3648 0450 18       		.byte	0x18
 3649 0451 02       		.byte	0x2
 3650 0452 23       		.byte	0x23
ARM GAS  C:\Users\ZHANGM~1\AppData\Local\Temp\ccWWGwEp.s 			page 96


 3651 0453 00       		.uleb128 0
 3652 0454 06       		.uleb128 0x6
 3653 0455 06010000 		.4byte	.LASF15
 3654 0459 04       		.byte	0x4
 3655 045a 88       		.byte	0x88
 3656 045b 29000000 		.4byte	0x29
 3657 045f 04       		.byte	0x4
 3658 0460 01       		.byte	0x1
 3659 0461 17       		.byte	0x17
 3660 0462 02       		.byte	0x2
 3661 0463 23       		.byte	0x23
 3662 0464 00       		.uleb128 0
 3663 0465 06       		.uleb128 0x6
 3664 0466 89020000 		.4byte	.LASF65
 3665 046a 04       		.byte	0x4
 3666 046b 89       		.byte	0x89
 3667 046c 29000000 		.4byte	0x29
 3668 0470 04       		.byte	0x4
 3669 0471 01       		.byte	0x1
 3670 0472 16       		.byte	0x16
 3671 0473 02       		.byte	0x2
 3672 0474 23       		.byte	0x23
 3673 0475 00       		.uleb128 0
 3674 0476 06       		.uleb128 0x6
 3675 0477 77030000 		.4byte	.LASF66
 3676 047b 04       		.byte	0x4
 3677 047c 8A       		.byte	0x8a
 3678 047d 29000000 		.4byte	0x29
 3679 0481 04       		.byte	0x4
 3680 0482 01       		.byte	0x1
 3681 0483 15       		.byte	0x15
 3682 0484 02       		.byte	0x2
 3683 0485 23       		.byte	0x23
 3684 0486 00       		.uleb128 0
 3685 0487 06       		.uleb128 0x6
 3686 0488 17000000 		.4byte	.LASF67
 3687 048c 04       		.byte	0x4
 3688 048d 8B       		.byte	0x8b
 3689 048e 29000000 		.4byte	0x29
 3690 0492 04       		.byte	0x4
 3691 0493 01       		.byte	0x1
 3692 0494 14       		.byte	0x14
 3693 0495 02       		.byte	0x2
 3694 0496 23       		.byte	0x23
 3695 0497 00       		.uleb128 0
 3696 0498 06       		.uleb128 0x6
 3697 0499 40030000 		.4byte	.LASF68
 3698 049d 04       		.byte	0x4
 3699 049e 8C       		.byte	0x8c
 3700 049f 29000000 		.4byte	0x29
 3701 04a3 04       		.byte	0x4
 3702 04a4 01       		.byte	0x1
 3703 04a5 13       		.byte	0x13
 3704 04a6 02       		.byte	0x2
 3705 04a7 23       		.byte	0x23
 3706 04a8 00       		.uleb128 0
 3707 04a9 06       		.uleb128 0x6
ARM GAS  C:\Users\ZHANGM~1\AppData\Local\Temp\ccWWGwEp.s 			page 97


 3708 04aa C1020000 		.4byte	.LASF69
 3709 04ae 04       		.byte	0x4
 3710 04af 8D       		.byte	0x8d
 3711 04b0 29000000 		.4byte	0x29
 3712 04b4 04       		.byte	0x4
 3713 04b5 01       		.byte	0x1
 3714 04b6 12       		.byte	0x12
 3715 04b7 02       		.byte	0x2
 3716 04b8 23       		.byte	0x23
 3717 04b9 00       		.uleb128 0
 3718 04ba 06       		.uleb128 0x6
 3719 04bb A7000000 		.4byte	.LASF70
 3720 04bf 04       		.byte	0x4
 3721 04c0 8E       		.byte	0x8e
 3722 04c1 29000000 		.4byte	0x29
 3723 04c5 04       		.byte	0x4
 3724 04c6 01       		.byte	0x1
 3725 04c7 11       		.byte	0x11
 3726 04c8 02       		.byte	0x2
 3727 04c9 23       		.byte	0x23
 3728 04ca 00       		.uleb128 0
 3729 04cb 06       		.uleb128 0x6
 3730 04cc D3040000 		.4byte	.LASF71
 3731 04d0 04       		.byte	0x4
 3732 04d1 8F       		.byte	0x8f
 3733 04d2 29000000 		.4byte	0x29
 3734 04d6 04       		.byte	0x4
 3735 04d7 01       		.byte	0x1
 3736 04d8 10       		.byte	0x10
 3737 04d9 02       		.byte	0x2
 3738 04da 23       		.byte	0x23
 3739 04db 00       		.uleb128 0
 3740 04dc 06       		.uleb128 0x6
 3741 04dd EE020000 		.4byte	.LASF72
 3742 04e1 04       		.byte	0x4
 3743 04e2 90       		.byte	0x90
 3744 04e3 29000000 		.4byte	0x29
 3745 04e7 04       		.byte	0x4
 3746 04e8 01       		.byte	0x1
 3747 04e9 0F       		.byte	0xf
 3748 04ea 02       		.byte	0x2
 3749 04eb 23       		.byte	0x23
 3750 04ec 00       		.uleb128 0
 3751 04ed 06       		.uleb128 0x6
 3752 04ee 24060000 		.4byte	.LASF73
 3753 04f2 04       		.byte	0x4
 3754 04f3 91       		.byte	0x91
 3755 04f4 29000000 		.4byte	0x29
 3756 04f8 04       		.byte	0x4
 3757 04f9 01       		.byte	0x1
 3758 04fa 0E       		.byte	0xe
 3759 04fb 02       		.byte	0x2
 3760 04fc 23       		.byte	0x23
 3761 04fd 00       		.uleb128 0
 3762 04fe 06       		.uleb128 0x6
 3763 04ff A6050000 		.4byte	.LASF74
 3764 0503 04       		.byte	0x4
ARM GAS  C:\Users\ZHANGM~1\AppData\Local\Temp\ccWWGwEp.s 			page 98


 3765 0504 92       		.byte	0x92
 3766 0505 29000000 		.4byte	0x29
 3767 0509 04       		.byte	0x4
 3768 050a 01       		.byte	0x1
 3769 050b 0D       		.byte	0xd
 3770 050c 02       		.byte	0x2
 3771 050d 23       		.byte	0x23
 3772 050e 00       		.uleb128 0
 3773 050f 06       		.uleb128 0x6
 3774 0510 EB000000 		.4byte	.LASF75
 3775 0514 04       		.byte	0x4
 3776 0515 93       		.byte	0x93
 3777 0516 29000000 		.4byte	0x29
 3778 051a 04       		.byte	0x4
 3779 051b 01       		.byte	0x1
 3780 051c 0C       		.byte	0xc
 3781 051d 02       		.byte	0x2
 3782 051e 23       		.byte	0x23
 3783 051f 00       		.uleb128 0
 3784 0520 06       		.uleb128 0x6
 3785 0521 5A000000 		.4byte	.LASF76
 3786 0525 04       		.byte	0x4
 3787 0526 94       		.byte	0x94
 3788 0527 29000000 		.4byte	0x29
 3789 052b 04       		.byte	0x4
 3790 052c 01       		.byte	0x1
 3791 052d 0B       		.byte	0xb
 3792 052e 02       		.byte	0x2
 3793 052f 23       		.byte	0x23
 3794 0530 00       		.uleb128 0
 3795 0531 06       		.uleb128 0x6
 3796 0532 67050000 		.4byte	.LASF77
 3797 0536 04       		.byte	0x4
 3798 0537 95       		.byte	0x95
 3799 0538 29000000 		.4byte	0x29
 3800 053c 04       		.byte	0x4
 3801 053d 01       		.byte	0x1
 3802 053e 0A       		.byte	0xa
 3803 053f 02       		.byte	0x2
 3804 0540 23       		.byte	0x23
 3805 0541 00       		.uleb128 0
 3806 0542 06       		.uleb128 0x6
 3807 0543 D9000000 		.4byte	.LASF78
 3808 0547 04       		.byte	0x4
 3809 0548 96       		.byte	0x96
 3810 0549 29000000 		.4byte	0x29
 3811 054d 04       		.byte	0x4
 3812 054e 01       		.byte	0x1
 3813 054f 09       		.byte	0x9
 3814 0550 02       		.byte	0x2
 3815 0551 23       		.byte	0x23
 3816 0552 00       		.uleb128 0
 3817 0553 06       		.uleb128 0x6
 3818 0554 41040000 		.4byte	.LASF79
 3819 0558 04       		.byte	0x4
 3820 0559 97       		.byte	0x97
 3821 055a 29000000 		.4byte	0x29
ARM GAS  C:\Users\ZHANGM~1\AppData\Local\Temp\ccWWGwEp.s 			page 99


 3822 055e 04       		.byte	0x4
 3823 055f 01       		.byte	0x1
 3824 0560 08       		.byte	0x8
 3825 0561 02       		.byte	0x2
 3826 0562 23       		.byte	0x23
 3827 0563 00       		.uleb128 0
 3828 0564 06       		.uleb128 0x6
 3829 0565 0B060000 		.4byte	.LASF80
 3830 0569 04       		.byte	0x4
 3831 056a 98       		.byte	0x98
 3832 056b 29000000 		.4byte	0x29
 3833 056f 04       		.byte	0x4
 3834 0570 01       		.byte	0x1
 3835 0571 07       		.byte	0x7
 3836 0572 02       		.byte	0x2
 3837 0573 23       		.byte	0x23
 3838 0574 00       		.uleb128 0
 3839 0575 06       		.uleb128 0x6
 3840 0576 87050000 		.4byte	.LASF81
 3841 057a 04       		.byte	0x4
 3842 057b 99       		.byte	0x99
 3843 057c 29000000 		.4byte	0x29
 3844 0580 04       		.byte	0x4
 3845 0581 01       		.byte	0x1
 3846 0582 06       		.byte	0x6
 3847 0583 02       		.byte	0x2
 3848 0584 23       		.byte	0x23
 3849 0585 00       		.uleb128 0
 3850 0586 06       		.uleb128 0x6
 3851 0587 6B030000 		.4byte	.LASF82
 3852 058b 04       		.byte	0x4
 3853 058c 9A       		.byte	0x9a
 3854 058d 29000000 		.4byte	0x29
 3855 0591 04       		.byte	0x4
 3856 0592 01       		.byte	0x1
 3857 0593 05       		.byte	0x5
 3858 0594 02       		.byte	0x2
 3859 0595 23       		.byte	0x23
 3860 0596 00       		.uleb128 0
 3861 0597 06       		.uleb128 0x6
 3862 0598 F5020000 		.4byte	.LASF83
 3863 059c 04       		.byte	0x4
 3864 059d 9B       		.byte	0x9b
 3865 059e 29000000 		.4byte	0x29
 3866 05a2 04       		.byte	0x4
 3867 05a3 01       		.byte	0x1
 3868 05a4 04       		.byte	0x4
 3869 05a5 02       		.byte	0x2
 3870 05a6 23       		.byte	0x23
 3871 05a7 00       		.uleb128 0
 3872 05a8 06       		.uleb128 0x6
 3873 05a9 0C010000 		.4byte	.LASF84
 3874 05ad 04       		.byte	0x4
 3875 05ae 9C       		.byte	0x9c
 3876 05af 29000000 		.4byte	0x29
 3877 05b3 04       		.byte	0x4
 3878 05b4 01       		.byte	0x1
ARM GAS  C:\Users\ZHANGM~1\AppData\Local\Temp\ccWWGwEp.s 			page 100


 3879 05b5 03       		.byte	0x3
 3880 05b6 02       		.byte	0x2
 3881 05b7 23       		.byte	0x23
 3882 05b8 00       		.uleb128 0
 3883 05b9 06       		.uleb128 0x6
 3884 05ba 46060000 		.4byte	.LASF85
 3885 05be 04       		.byte	0x4
 3886 05bf 9D       		.byte	0x9d
 3887 05c0 29000000 		.4byte	0x29
 3888 05c4 04       		.byte	0x4
 3889 05c5 01       		.byte	0x1
 3890 05c6 02       		.byte	0x2
 3891 05c7 02       		.byte	0x2
 3892 05c8 23       		.byte	0x23
 3893 05c9 00       		.uleb128 0
 3894 05ca 09       		.uleb128 0x9
 3895 05cb 73746100 		.ascii	"sta\000"
 3896 05cf 04       		.byte	0x4
 3897 05d0 9E       		.byte	0x9e
 3898 05d1 29000000 		.4byte	0x29
 3899 05d5 04       		.byte	0x4
 3900 05d6 01       		.byte	0x1
 3901 05d7 01       		.byte	0x1
 3902 05d8 02       		.byte	0x2
 3903 05d9 23       		.byte	0x23
 3904 05da 00       		.uleb128 0
 3905 05db 06       		.uleb128 0x6
 3906 05dc 38040000 		.4byte	.LASF86
 3907 05e0 04       		.byte	0x4
 3908 05e1 9F       		.byte	0x9f
 3909 05e2 29000000 		.4byte	0x29
 3910 05e6 04       		.byte	0x4
 3911 05e7 01       		.byte	0x1
 3912 05e8 00       		.byte	0
 3913 05e9 02       		.byte	0x2
 3914 05ea 23       		.byte	0x23
 3915 05eb 00       		.uleb128 0
 3916 05ec 00       		.byte	0
 3917 05ed 0A       		.uleb128 0xa
 3918 05ee 01       		.byte	0x1
 3919 05ef BD000000 		.4byte	.LASF87
 3920 05f3 01       		.byte	0x1
 3921 05f4 13       		.byte	0x13
 3922 05f5 01       		.byte	0x1
 3923 05f6 00000000 		.4byte	.LFB33
 3924 05fa 34000000 		.4byte	.LFE33
 3925 05fe 00000000 		.4byte	.LLST0
 3926 0602 01       		.byte	0x1
 3927 0603 92060000 		.4byte	0x692
 3928 0607 0B       		.uleb128 0xb
 3929 0608 2E060000 		.4byte	.LASF89
 3930 060c 01       		.byte	0x1
 3931 060d 13       		.byte	0x13
 3932 060e 53000000 		.4byte	0x53
 3933 0612 20000000 		.4byte	.LLST1
 3934 0616 0C       		.uleb128 0xc
 3935 0617 6B00     		.ascii	"k\000"
ARM GAS  C:\Users\ZHANGM~1\AppData\Local\Temp\ccWWGwEp.s 			page 101


 3936 0619 01       		.byte	0x1
 3937 061a 15       		.byte	0x15
 3938 061b 37000000 		.4byte	0x37
 3939 061f 41000000 		.4byte	.LLST2
 3940 0623 0C       		.uleb128 0xc
 3941 0624 746D00   		.ascii	"tm\000"
 3942 0627 01       		.byte	0x1
 3943 0628 16       		.byte	0x16
 3944 0629 29000000 		.4byte	0x29
 3945 062d 55000000 		.4byte	.LLST3
 3946 0631 0D       		.uleb128 0xd
 3947 0632 0E000000 		.4byte	.LVL2
 3948 0636 540C0000 		.4byte	0xc54
 3949 063a 44060000 		.4byte	0x644
 3950 063e 0E       		.uleb128 0xe
 3951 063f 01       		.byte	0x1
 3952 0640 50       		.byte	0x50
 3953 0641 01       		.byte	0x1
 3954 0642 30       		.byte	0x30
 3955 0643 00       		.byte	0
 3956 0644 0D       		.uleb128 0xd
 3957 0645 16000000 		.4byte	.LVL3
 3958 0649 680C0000 		.4byte	0xc68
 3959 064d 5B060000 		.4byte	0x65b
 3960 0651 0E       		.uleb128 0xe
 3961 0652 01       		.byte	0x1
 3962 0653 50       		.byte	0x50
 3963 0654 05       		.byte	0x5
 3964 0655 75       		.byte	0x75
 3965 0656 00       		.sleb128 0
 3966 0657 76       		.byte	0x76
 3967 0658 00       		.sleb128 0
 3968 0659 1A       		.byte	0x1a
 3969 065a 00       		.byte	0
 3970 065b 0D       		.uleb128 0xd
 3971 065c 1C000000 		.4byte	.LVL4
 3972 0660 7C0C0000 		.4byte	0xc7c
 3973 0664 6E060000 		.4byte	0x66e
 3974 0668 0E       		.uleb128 0xe
 3975 0669 01       		.byte	0x1
 3976 066a 50       		.byte	0x50
 3977 066b 01       		.byte	0x1
 3978 066c 32       		.byte	0x32
 3979 066d 00       		.byte	0
 3980 066e 0D       		.uleb128 0xd
 3981 066f 24000000 		.4byte	.LVL5
 3982 0673 540C0000 		.4byte	0xc54
 3983 0677 82060000 		.4byte	0x682
 3984 067b 0E       		.uleb128 0xe
 3985 067c 01       		.byte	0x1
 3986 067d 50       		.byte	0x50
 3987 067e 02       		.byte	0x2
 3988 067f 76       		.byte	0x76
 3989 0680 00       		.sleb128 0
 3990 0681 00       		.byte	0
 3991 0682 0F       		.uleb128 0xf
 3992 0683 2C000000 		.4byte	.LVL6
ARM GAS  C:\Users\ZHANGM~1\AppData\Local\Temp\ccWWGwEp.s 			page 102


 3993 0687 7C0C0000 		.4byte	0xc7c
 3994 068b 0E       		.uleb128 0xe
 3995 068c 01       		.byte	0x1
 3996 068d 50       		.byte	0x50
 3997 068e 01       		.byte	0x1
 3998 068f 32       		.byte	0x32
 3999 0690 00       		.byte	0
 4000 0691 00       		.byte	0
 4001 0692 0A       		.uleb128 0xa
 4002 0693 01       		.byte	0x1
 4003 0694 18020000 		.4byte	.LASF88
 4004 0698 01       		.byte	0x1
 4005 0699 2E       		.byte	0x2e
 4006 069a 01       		.byte	0x1
 4007 069b 00000000 		.4byte	.LFB34
 4008 069f B0010000 		.4byte	.LFE34
 4009 06a3 68000000 		.4byte	.LLST4
 4010 06a7 01       		.byte	0x1
 4011 06a8 CA060000 		.4byte	0x6ca
 4012 06ac 10       		.uleb128 0x10
 4013 06ad 64696700 		.ascii	"dig\000"
 4014 06b1 01       		.byte	0x1
 4015 06b2 2E       		.byte	0x2e
 4016 06b3 37000000 		.4byte	0x37
 4017 06b7 88000000 		.4byte	.LLST5
 4018 06bb 10       		.uleb128 0x10
 4019 06bc 647400   		.ascii	"dt\000"
 4020 06bf 01       		.byte	0x1
 4021 06c0 2E       		.byte	0x2e
 4022 06c1 37000000 		.4byte	0x37
 4023 06c5 A9000000 		.4byte	.LLST6
 4024 06c9 00       		.byte	0
 4025 06ca 0A       		.uleb128 0xa
 4026 06cb 01       		.byte	0x1
 4027 06cc 2A020000 		.4byte	.LASF90
 4028 06d0 01       		.byte	0x1
 4029 06d1 A6       		.byte	0xa6
 4030 06d2 01       		.byte	0x1
 4031 06d3 00000000 		.4byte	.LFB35
 4032 06d7 B0010000 		.4byte	.LFE35
 4033 06db DD010000 		.4byte	.LLST7
 4034 06df 01       		.byte	0x1
 4035 06e0 02070000 		.4byte	0x702
 4036 06e4 10       		.uleb128 0x10
 4037 06e5 64696700 		.ascii	"dig\000"
 4038 06e9 01       		.byte	0x1
 4039 06ea A6       		.byte	0xa6
 4040 06eb 37000000 		.4byte	0x37
 4041 06ef FD010000 		.4byte	.LLST8
 4042 06f3 10       		.uleb128 0x10
 4043 06f4 647400   		.ascii	"dt\000"
 4044 06f7 01       		.byte	0x1
 4045 06f8 A6       		.byte	0xa6
 4046 06f9 37000000 		.4byte	0x37
 4047 06fd 1E020000 		.4byte	.LLST9
 4048 0701 00       		.byte	0
 4049 0702 11       		.uleb128 0x11
ARM GAS  C:\Users\ZHANGM~1\AppData\Local\Temp\ccWWGwEp.s 			page 103


 4050 0703 01       		.byte	0x1
 4051 0704 84000000 		.4byte	.LASF91
 4052 0708 01       		.byte	0x1
 4053 0709 3103     		.2byte	0x331
 4054 070b 01       		.byte	0x1
 4055 070c 00000000 		.4byte	.LFB37
 4056 0710 68000000 		.4byte	.LFE37
 4057 0714 52030000 		.4byte	.LLST10
 4058 0718 01       		.byte	0x1
 4059 0719 96070000 		.4byte	0x796
 4060 071d 12       		.uleb128 0x12
 4061 071e 9E030000 		.4byte	.LASF92
 4062 0722 01       		.byte	0x1
 4063 0723 3103     		.2byte	0x331
 4064 0725 7A000000 		.4byte	0x7a
 4065 0729 72030000 		.4byte	.LLST11
 4066 072d 13       		.uleb128 0x13
 4067 072e 50000000 		.4byte	.LASF93
 4068 0732 01       		.byte	0x1
 4069 0733 3303     		.2byte	0x333
 4070 0735 37000000 		.4byte	0x37
 4071 0739 93030000 		.4byte	.LLST12
 4072 073d 13       		.uleb128 0x13
 4073 073e 55000000 		.4byte	.LASF94
 4074 0742 01       		.byte	0x1
 4075 0743 3403     		.2byte	0x334
 4076 0745 29000000 		.4byte	0x29
 4077 0749 EC030000 		.4byte	.LLST13
 4078 074d 0D       		.uleb128 0xd
 4079 074e 26000000 		.4byte	.LVL65
 4080 0752 92060000 		.4byte	0x692
 4081 0756 60070000 		.4byte	0x760
 4082 075a 0E       		.uleb128 0xe
 4083 075b 01       		.byte	0x1
 4084 075c 50       		.byte	0x50
 4085 075d 01       		.byte	0x1
 4086 075e 3E       		.byte	0x3e
 4087 075f 00       		.byte	0
 4088 0760 0D       		.uleb128 0xd
 4089 0761 40000000 		.4byte	.LVL70
 4090 0765 92060000 		.4byte	0x692
 4091 0769 73070000 		.4byte	0x773
 4092 076d 0E       		.uleb128 0xe
 4093 076e 01       		.byte	0x1
 4094 076f 50       		.byte	0x50
 4095 0770 01       		.byte	0x1
 4096 0771 3F       		.byte	0x3f
 4097 0772 00       		.byte	0
 4098 0773 0D       		.uleb128 0xd
 4099 0774 50000000 		.4byte	.LVL72
 4100 0778 92060000 		.4byte	0x692
 4101 077c 86070000 		.4byte	0x786
 4102 0780 0E       		.uleb128 0xe
 4103 0781 01       		.byte	0x1
 4104 0782 50       		.byte	0x50
 4105 0783 01       		.byte	0x1
 4106 0784 40       		.byte	0x40
ARM GAS  C:\Users\ZHANGM~1\AppData\Local\Temp\ccWWGwEp.s 			page 104


 4107 0785 00       		.byte	0
 4108 0786 0F       		.uleb128 0xf
 4109 0787 60000000 		.4byte	.LVL74
 4110 078b 92060000 		.4byte	0x692
 4111 078f 0E       		.uleb128 0xe
 4112 0790 01       		.byte	0x1
 4113 0791 50       		.byte	0x50
 4114 0792 01       		.byte	0x1
 4115 0793 41       		.byte	0x41
 4116 0794 00       		.byte	0
 4117 0795 00       		.byte	0
 4118 0796 14       		.uleb128 0x14
 4119 0797 01       		.byte	0x1
 4120 0798 EF010000 		.4byte	.LASF95
 4121 079c 01       		.byte	0x1
 4122 079d 2501     		.2byte	0x125
 4123 079f 01       		.byte	0x1
 4124 07a0 00000000 		.4byte	.LFB36
 4125 07a4 C8050000 		.4byte	.LFE36
 4126 07a8 4B040000 		.4byte	.LLST14
 4127 07ac 01       		.byte	0x1
 4128 07ad BE080000 		.4byte	0x8be
 4129 07b1 15       		.uleb128 0x15
 4130 07b2 14000000 		.4byte	.LVL76
 4131 07b6 900C0000 		.4byte	0xc90
 4132 07ba 0D       		.uleb128 0xd
 4133 07bb 1C000000 		.4byte	.LVL77
 4134 07bf 92060000 		.4byte	0x692
 4135 07c3 D2070000 		.4byte	0x7d2
 4136 07c7 0E       		.uleb128 0xe
 4137 07c8 01       		.byte	0x1
 4138 07c9 51       		.byte	0x51
 4139 07ca 01       		.byte	0x1
 4140 07cb 3E       		.byte	0x3e
 4141 07cc 0E       		.uleb128 0xe
 4142 07cd 01       		.byte	0x1
 4143 07ce 50       		.byte	0x50
 4144 07cf 01       		.byte	0x1
 4145 07d0 3F       		.byte	0x3f
 4146 07d1 00       		.byte	0
 4147 07d2 0D       		.uleb128 0xd
 4148 07d3 24000000 		.4byte	.LVL78
 4149 07d7 92060000 		.4byte	0x692
 4150 07db EA070000 		.4byte	0x7ea
 4151 07df 0E       		.uleb128 0xe
 4152 07e0 01       		.byte	0x1
 4153 07e1 51       		.byte	0x51
 4154 07e2 01       		.byte	0x1
 4155 07e3 30       		.byte	0x30
 4156 07e4 0E       		.uleb128 0xe
 4157 07e5 01       		.byte	0x1
 4158 07e6 50       		.byte	0x50
 4159 07e7 01       		.byte	0x1
 4160 07e8 3E       		.byte	0x3e
 4161 07e9 00       		.byte	0
 4162 07ea 0D       		.uleb128 0xd
 4163 07eb FE000000 		.4byte	.LVL79
ARM GAS  C:\Users\ZHANGM~1\AppData\Local\Temp\ccWWGwEp.s 			page 105


 4164 07ef 92060000 		.4byte	0x692
 4165 07f3 02080000 		.4byte	0x802
 4166 07f7 0E       		.uleb128 0xe
 4167 07f8 01       		.byte	0x1
 4168 07f9 51       		.byte	0x51
 4169 07fa 01       		.byte	0x1
 4170 07fb 3E       		.byte	0x3e
 4171 07fc 0E       		.uleb128 0xe
 4172 07fd 01       		.byte	0x1
 4173 07fe 50       		.byte	0x50
 4174 07ff 01       		.byte	0x1
 4175 0800 3F       		.byte	0x3f
 4176 0801 00       		.byte	0
 4177 0802 0D       		.uleb128 0xd
 4178 0803 06010000 		.4byte	.LVL80
 4179 0807 92060000 		.4byte	0x692
 4180 080b 1A080000 		.4byte	0x81a
 4181 080f 0E       		.uleb128 0xe
 4182 0810 01       		.byte	0x1
 4183 0811 51       		.byte	0x51
 4184 0812 01       		.byte	0x1
 4185 0813 32       		.byte	0x32
 4186 0814 0E       		.uleb128 0xe
 4187 0815 01       		.byte	0x1
 4188 0816 50       		.byte	0x50
 4189 0817 01       		.byte	0x1
 4190 0818 3E       		.byte	0x3e
 4191 0819 00       		.byte	0
 4192 081a 0D       		.uleb128 0xd
 4193 081b 0E010000 		.4byte	.LVL81
 4194 081f 92060000 		.4byte	0x692
 4195 0823 32080000 		.4byte	0x832
 4196 0827 0E       		.uleb128 0xe
 4197 0828 01       		.byte	0x1
 4198 0829 51       		.byte	0x51
 4199 082a 01       		.byte	0x1
 4200 082b 3E       		.byte	0x3e
 4201 082c 0E       		.uleb128 0xe
 4202 082d 01       		.byte	0x1
 4203 082e 50       		.byte	0x50
 4204 082f 01       		.byte	0x1
 4205 0830 41       		.byte	0x41
 4206 0831 00       		.byte	0
 4207 0832 0D       		.uleb128 0xd
 4208 0833 16010000 		.4byte	.LVL82
 4209 0837 92060000 		.4byte	0x692
 4210 083b 4B080000 		.4byte	0x84b
 4211 083f 0E       		.uleb128 0xe
 4212 0840 01       		.byte	0x1
 4213 0841 51       		.byte	0x51
 4214 0842 02       		.byte	0x2
 4215 0843 76       		.byte	0x76
 4216 0844 00       		.sleb128 0
 4217 0845 0E       		.uleb128 0xe
 4218 0846 01       		.byte	0x1
 4219 0847 50       		.byte	0x50
 4220 0848 01       		.byte	0x1
ARM GAS  C:\Users\ZHANGM~1\AppData\Local\Temp\ccWWGwEp.s 			page 106


 4221 0849 40       		.byte	0x40
 4222 084a 00       		.byte	0
 4223 084b 0D       		.uleb128 0xd
 4224 084c 24010000 		.4byte	.LVL83
 4225 0850 92060000 		.4byte	0x692
 4226 0854 63080000 		.4byte	0x863
 4227 0858 0E       		.uleb128 0xe
 4228 0859 01       		.byte	0x1
 4229 085a 51       		.byte	0x51
 4230 085b 01       		.byte	0x1
 4231 085c 3E       		.byte	0x3e
 4232 085d 0E       		.uleb128 0xe
 4233 085e 01       		.byte	0x1
 4234 085f 50       		.byte	0x50
 4235 0860 01       		.byte	0x1
 4236 0861 3F       		.byte	0x3f
 4237 0862 00       		.byte	0
 4238 0863 0D       		.uleb128 0xd
 4239 0864 2C010000 		.4byte	.LVL84
 4240 0868 92060000 		.4byte	0x692
 4241 086c 7B080000 		.4byte	0x87b
 4242 0870 0E       		.uleb128 0xe
 4243 0871 01       		.byte	0x1
 4244 0872 51       		.byte	0x51
 4245 0873 01       		.byte	0x1
 4246 0874 32       		.byte	0x32
 4247 0875 0E       		.uleb128 0xe
 4248 0876 01       		.byte	0x1
 4249 0877 50       		.byte	0x50
 4250 0878 01       		.byte	0x1
 4251 0879 3E       		.byte	0x3e
 4252 087a 00       		.byte	0
 4253 087b 0D       		.uleb128 0xd
 4254 087c 68010000 		.4byte	.LVL85
 4255 0880 92060000 		.4byte	0x692
 4256 0884 93080000 		.4byte	0x893
 4257 0888 0E       		.uleb128 0xe
 4258 0889 01       		.byte	0x1
 4259 088a 51       		.byte	0x51
 4260 088b 01       		.byte	0x1
 4261 088c 3E       		.byte	0x3e
 4262 088d 0E       		.uleb128 0xe
 4263 088e 01       		.byte	0x1
 4264 088f 50       		.byte	0x50
 4265 0890 01       		.byte	0x1
 4266 0891 3F       		.byte	0x3f
 4267 0892 00       		.byte	0
 4268 0893 0D       		.uleb128 0xd
 4269 0894 70010000 		.4byte	.LVL86
 4270 0898 92060000 		.4byte	0x692
 4271 089c AB080000 		.4byte	0x8ab
 4272 08a0 0E       		.uleb128 0xe
 4273 08a1 01       		.byte	0x1
 4274 08a2 51       		.byte	0x51
 4275 08a3 01       		.byte	0x1
 4276 08a4 31       		.byte	0x31
 4277 08a5 0E       		.uleb128 0xe
ARM GAS  C:\Users\ZHANGM~1\AppData\Local\Temp\ccWWGwEp.s 			page 107


 4278 08a6 01       		.byte	0x1
 4279 08a7 50       		.byte	0x50
 4280 08a8 01       		.byte	0x1
 4281 08a9 3E       		.byte	0x3e
 4282 08aa 00       		.byte	0
 4283 08ab 15       		.uleb128 0x15
 4284 08ac BA010000 		.4byte	.LVL87
 4285 08b0 02070000 		.4byte	0x702
 4286 08b4 15       		.uleb128 0x15
 4287 08b5 D2010000 		.4byte	.LVL88
 4288 08b9 02070000 		.4byte	0x702
 4289 08bd 00       		.byte	0
 4290 08be 14       		.uleb128 0x14
 4291 08bf 01       		.byte	0x1
 4292 08c0 5D030000 		.4byte	.LASF96
 4293 08c4 01       		.byte	0x1
 4294 08c5 4503     		.2byte	0x345
 4295 08c7 01       		.byte	0x1
 4296 08c8 00000000 		.4byte	.LFB38
 4297 08cc DC020000 		.4byte	.LFE38
 4298 08d0 77040000 		.4byte	.LLST15
 4299 08d4 01       		.byte	0x1
 4300 08d5 97090000 		.4byte	0x997
 4301 08d9 0D       		.uleb128 0xd
 4302 08da 22000000 		.4byte	.LVL89
 4303 08de CA060000 		.4byte	0x6ca
 4304 08e2 F1080000 		.4byte	0x8f1
 4305 08e6 0E       		.uleb128 0xe
 4306 08e7 01       		.byte	0x1
 4307 08e8 51       		.byte	0x51
 4308 08e9 01       		.byte	0x1
 4309 08ea 3E       		.byte	0x3e
 4310 08eb 0E       		.uleb128 0xe
 4311 08ec 01       		.byte	0x1
 4312 08ed 50       		.byte	0x50
 4313 08ee 01       		.byte	0x1
 4314 08ef 3F       		.byte	0x3f
 4315 08f0 00       		.byte	0
 4316 08f1 0D       		.uleb128 0xd
 4317 08f2 2A000000 		.4byte	.LVL90
 4318 08f6 CA060000 		.4byte	0x6ca
 4319 08fa 09090000 		.4byte	0x909
 4320 08fe 0E       		.uleb128 0xe
 4321 08ff 01       		.byte	0x1
 4322 0900 51       		.byte	0x51
 4323 0901 01       		.byte	0x1
 4324 0902 32       		.byte	0x32
 4325 0903 0E       		.uleb128 0xe
 4326 0904 01       		.byte	0x1
 4327 0905 50       		.byte	0x50
 4328 0906 01       		.byte	0x1
 4329 0907 3E       		.byte	0x3e
 4330 0908 00       		.byte	0
 4331 0909 0D       		.uleb128 0xd
 4332 090a 32000000 		.4byte	.LVL91
 4333 090e CA060000 		.4byte	0x6ca
 4334 0912 21090000 		.4byte	0x921
ARM GAS  C:\Users\ZHANGM~1\AppData\Local\Temp\ccWWGwEp.s 			page 108


 4335 0916 0E       		.uleb128 0xe
 4336 0917 01       		.byte	0x1
 4337 0918 51       		.byte	0x51
 4338 0919 01       		.byte	0x1
 4339 091a 3E       		.byte	0x3e
 4340 091b 0E       		.uleb128 0xe
 4341 091c 01       		.byte	0x1
 4342 091d 50       		.byte	0x50
 4343 091e 01       		.byte	0x1
 4344 091f 41       		.byte	0x41
 4345 0920 00       		.byte	0
 4346 0921 0D       		.uleb128 0xd
 4347 0922 3A000000 		.4byte	.LVL92
 4348 0926 CA060000 		.4byte	0x6ca
 4349 092a 3A090000 		.4byte	0x93a
 4350 092e 0E       		.uleb128 0xe
 4351 092f 01       		.byte	0x1
 4352 0930 51       		.byte	0x51
 4353 0931 02       		.byte	0x2
 4354 0932 75       		.byte	0x75
 4355 0933 00       		.sleb128 0
 4356 0934 0E       		.uleb128 0xe
 4357 0935 01       		.byte	0x1
 4358 0936 50       		.byte	0x50
 4359 0937 01       		.byte	0x1
 4360 0938 40       		.byte	0x40
 4361 0939 00       		.byte	0
 4362 093a 0D       		.uleb128 0xd
 4363 093b 48000000 		.4byte	.LVL93
 4364 093f CA060000 		.4byte	0x6ca
 4365 0943 52090000 		.4byte	0x952
 4366 0947 0E       		.uleb128 0xe
 4367 0948 01       		.byte	0x1
 4368 0949 51       		.byte	0x51
 4369 094a 01       		.byte	0x1
 4370 094b 3E       		.byte	0x3e
 4371 094c 0E       		.uleb128 0xe
 4372 094d 01       		.byte	0x1
 4373 094e 50       		.byte	0x50
 4374 094f 01       		.byte	0x1
 4375 0950 3F       		.byte	0x3f
 4376 0951 00       		.byte	0
 4377 0952 0D       		.uleb128 0xd
 4378 0953 50000000 		.4byte	.LVL94
 4379 0957 CA060000 		.4byte	0x6ca
 4380 095b 6A090000 		.4byte	0x96a
 4381 095f 0E       		.uleb128 0xe
 4382 0960 01       		.byte	0x1
 4383 0961 51       		.byte	0x51
 4384 0962 01       		.byte	0x1
 4385 0963 32       		.byte	0x32
 4386 0964 0E       		.uleb128 0xe
 4387 0965 01       		.byte	0x1
 4388 0966 50       		.byte	0x50
 4389 0967 01       		.byte	0x1
 4390 0968 3E       		.byte	0x3e
 4391 0969 00       		.byte	0
ARM GAS  C:\Users\ZHANGM~1\AppData\Local\Temp\ccWWGwEp.s 			page 109


 4392 096a 0D       		.uleb128 0xd
 4393 096b 8C000000 		.4byte	.LVL95
 4394 096f CA060000 		.4byte	0x6ca
 4395 0973 82090000 		.4byte	0x982
 4396 0977 0E       		.uleb128 0xe
 4397 0978 01       		.byte	0x1
 4398 0979 51       		.byte	0x51
 4399 097a 01       		.byte	0x1
 4400 097b 3E       		.byte	0x3e
 4401 097c 0E       		.uleb128 0xe
 4402 097d 01       		.byte	0x1
 4403 097e 50       		.byte	0x50
 4404 097f 01       		.byte	0x1
 4405 0980 3F       		.byte	0x3f
 4406 0981 00       		.byte	0
 4407 0982 0F       		.uleb128 0xf
 4408 0983 94000000 		.4byte	.LVL96
 4409 0987 CA060000 		.4byte	0x6ca
 4410 098b 0E       		.uleb128 0xe
 4411 098c 01       		.byte	0x1
 4412 098d 51       		.byte	0x51
 4413 098e 01       		.byte	0x1
 4414 098f 31       		.byte	0x31
 4415 0990 0E       		.uleb128 0xe
 4416 0991 01       		.byte	0x1
 4417 0992 50       		.byte	0x50
 4418 0993 01       		.byte	0x1
 4419 0994 3E       		.byte	0x3e
 4420 0995 00       		.byte	0
 4421 0996 00       		.byte	0
 4422 0997 16       		.uleb128 0x16
 4423 0998 01       		.byte	0x1
 4424 0999 DB030000 		.4byte	.LASF97
 4425 099d 01       		.byte	0x1
 4426 099e 2E04     		.2byte	0x42e
 4427 09a0 01       		.byte	0x1
 4428 09a1 00000000 		.4byte	.LFB39
 4429 09a5 2C000000 		.4byte	.LFE39
 4430 09a9 02       		.byte	0x2
 4431 09aa 7D       		.byte	0x7d
 4432 09ab 00       		.sleb128 0
 4433 09ac 01       		.byte	0x1
 4434 09ad C0090000 		.4byte	0x9c0
 4435 09b1 17       		.uleb128 0x17
 4436 09b2 6900     		.ascii	"i\000"
 4437 09b4 01       		.byte	0x1
 4438 09b5 3004     		.2byte	0x430
 4439 09b7 37000000 		.4byte	0x37
 4440 09bb 97040000 		.4byte	.LLST16
 4441 09bf 00       		.byte	0
 4442 09c0 14       		.uleb128 0x14
 4443 09c1 01       		.byte	0x1
 4444 09c2 71010000 		.4byte	.LASF98
 4445 09c6 01       		.byte	0x1
 4446 09c7 3704     		.2byte	0x437
 4447 09c9 01       		.byte	0x1
 4448 09ca 00000000 		.4byte	.LFB40
ARM GAS  C:\Users\ZHANGM~1\AppData\Local\Temp\ccWWGwEp.s 			page 110


 4449 09ce 94000000 		.4byte	.LFE40
 4450 09d2 FF040000 		.4byte	.LLST17
 4451 09d6 01       		.byte	0x1
 4452 09d7 1C0A0000 		.4byte	0xa1c
 4453 09db 0D       		.uleb128 0xd
 4454 09dc 14000000 		.4byte	.LVL105
 4455 09e0 9B0C0000 		.4byte	0xc9b
 4456 09e4 EE090000 		.4byte	0x9ee
 4457 09e8 0E       		.uleb128 0xe
 4458 09e9 01       		.byte	0x1
 4459 09ea 50       		.byte	0x50
 4460 09eb 01       		.byte	0x1
 4461 09ec 30       		.byte	0x30
 4462 09ed 00       		.byte	0
 4463 09ee 15       		.uleb128 0x15
 4464 09ef 2A000000 		.4byte	.LVL106
 4465 09f3 96070000 		.4byte	0x796
 4466 09f7 15       		.uleb128 0x15
 4467 09f8 36000000 		.4byte	.LVL107
 4468 09fc BE080000 		.4byte	0x8be
 4469 0a00 15       		.uleb128 0x15
 4470 0a01 40000000 		.4byte	.LVL108
 4471 0a05 9B0C0000 		.4byte	0xc9b
 4472 0a09 15       		.uleb128 0x15
 4473 0a0a 5E000000 		.4byte	.LVL109
 4474 0a0e ED050000 		.4byte	0x5ed
 4475 0a12 15       		.uleb128 0x15
 4476 0a13 6A000000 		.4byte	.LVL110
 4477 0a17 9B0C0000 		.4byte	0xc9b
 4478 0a1b 00       		.byte	0
 4479 0a1c 18       		.uleb128 0x18
 4480 0a1d 03040000 		.4byte	.LASF99
 4481 0a21 03       		.byte	0x3
 4482 0a22 5C       		.byte	0x5c
 4483 0a23 7A000000 		.4byte	0x7a
 4484 0a27 01       		.byte	0x1
 4485 0a28 01       		.byte	0x1
 4486 0a29 18       		.uleb128 0x18
 4487 0a2a 23050000 		.4byte	.LASF100
 4488 0a2e 03       		.byte	0x3
 4489 0a2f 5F       		.byte	0x5f
 4490 0a30 6F000000 		.4byte	0x6f
 4491 0a34 01       		.byte	0x1
 4492 0a35 01       		.byte	0x1
 4493 0a36 18       		.uleb128 0x18
 4494 0a37 93020000 		.4byte	.LASF101
 4495 0a3b 03       		.byte	0x3
 4496 0a3c 94       		.byte	0x94
 4497 0a3d A1000000 		.4byte	0xa1
 4498 0a41 01       		.byte	0x1
 4499 0a42 01       		.byte	0x1
 4500 0a43 18       		.uleb128 0x18
 4501 0a44 85030000 		.4byte	.LASF102
 4502 0a48 03       		.byte	0x3
 4503 0a49 9D       		.byte	0x9d
 4504 0a4a E4020000 		.4byte	0x2e4
 4505 0a4e 01       		.byte	0x1
ARM GAS  C:\Users\ZHANGM~1\AppData\Local\Temp\ccWWGwEp.s 			page 111


 4506 0a4f 01       		.byte	0x1
 4507 0a50 18       		.uleb128 0x18
 4508 0a51 1E000000 		.4byte	.LASF103
 4509 0a55 03       		.byte	0x3
 4510 0a56 C3       		.byte	0xc3
 4511 0a57 A5030000 		.4byte	0x3a5
 4512 0a5b 01       		.byte	0x1
 4513 0a5c 01       		.byte	0x1
 4514 0a5d 18       		.uleb128 0x18
 4515 0a5e 0A020000 		.4byte	.LASF104
 4516 0a62 03       		.byte	0x3
 4517 0a63 C5       		.byte	0xc5
 4518 0a64 7A000000 		.4byte	0x7a
 4519 0a68 01       		.byte	0x1
 4520 0a69 01       		.byte	0x1
 4521 0a6a 18       		.uleb128 0x18
 4522 0a6b 2D040000 		.4byte	.LASF105
 4523 0a6f 05       		.byte	0x5
 4524 0a70 B1       		.byte	0xb1
 4525 0a71 7A000000 		.4byte	0x7a
 4526 0a75 01       		.byte	0x1
 4527 0a76 01       		.byte	0x1
 4528 0a77 18       		.uleb128 0x18
 4529 0a78 3C010000 		.4byte	.LASF106
 4530 0a7c 05       		.byte	0x5
 4531 0a7d B2       		.byte	0xb2
 4532 0a7e 7A000000 		.4byte	0x7a
 4533 0a82 01       		.byte	0x1
 4534 0a83 01       		.byte	0x1
 4535 0a84 19       		.uleb128 0x19
 4536 0a85 53000000 		.4byte	0x53
 4537 0a89 940A0000 		.4byte	0xa94
 4538 0a8d 1A       		.uleb128 0x1a
 4539 0a8e 9A000000 		.4byte	0x9a
 4540 0a92 06       		.byte	0x6
 4541 0a93 00       		.byte	0
 4542 0a94 1B       		.uleb128 0x1b
 4543 0a95 7C020000 		.4byte	.LASF107
 4544 0a99 04       		.byte	0x4
 4545 0a9a 20       		.byte	0x20
 4546 0a9b 840A0000 		.4byte	0xa84
 4547 0a9f 01       		.byte	0x1
 4548 0aa0 05       		.byte	0x5
 4549 0aa1 03       		.byte	0x3
 4550 0aa2 00000000 		.4byte	LedPannelBuf
 4551 0aa6 1B       		.uleb128 0x1b
 4552 0aa7 78040000 		.4byte	.LASF108
 4553 0aab 04       		.byte	0x4
 4554 0aac 21       		.byte	0x21
 4555 0aad 840A0000 		.4byte	0xa84
 4556 0ab1 01       		.byte	0x1
 4557 0ab2 05       		.byte	0x5
 4558 0ab3 03       		.byte	0x3
 4559 0ab4 00000000 		.4byte	temp
 4560 0ab8 19       		.uleb128 0x19
 4561 0ab9 37000000 		.4byte	0x37
 4562 0abd C80A0000 		.4byte	0xac8
ARM GAS  C:\Users\ZHANGM~1\AppData\Local\Temp\ccWWGwEp.s 			page 112


 4563 0ac1 1A       		.uleb128 0x1a
 4564 0ac2 9A000000 		.4byte	0x9a
 4565 0ac6 05       		.byte	0x5
 4566 0ac7 00       		.byte	0
 4567 0ac8 1B       		.uleb128 0x1b
 4568 0ac9 23040000 		.4byte	.LASF109
 4569 0acd 04       		.byte	0x4
 4570 0ace 22       		.byte	0x22
 4571 0acf B80A0000 		.4byte	0xab8
 4572 0ad3 01       		.byte	0x1
 4573 0ad4 05       		.byte	0x5
 4574 0ad5 03       		.byte	0x3
 4575 0ad6 00000000 		.4byte	templvxin
 4576 0ada 1B       		.uleb128 0x1b
 4577 0adb CE000000 		.4byte	.LASF110
 4578 0adf 04       		.byte	0x4
 4579 0ae0 23       		.byte	0x23
 4580 0ae1 29000000 		.4byte	0x29
 4581 0ae5 01       		.byte	0x1
 4582 0ae6 05       		.byte	0x5
 4583 0ae7 03       		.byte	0x3
 4584 0ae8 00000000 		.4byte	DigitalBuf
 4585 0aec 1B       		.uleb128 0x1b
 4586 0aed 18010000 		.4byte	.LASF111
 4587 0af1 04       		.byte	0x4
 4588 0af2 26       		.byte	0x26
 4589 0af3 6F000000 		.4byte	0x6f
 4590 0af7 01       		.byte	0x1
 4591 0af8 05       		.byte	0x5
 4592 0af9 03       		.byte	0x3
 4593 0afa 00000000 		.4byte	SPercent
 4594 0afe 1B       		.uleb128 0x1b
 4595 0aff 7C030000 		.4byte	.LASF112
 4596 0b03 04       		.byte	0x4
 4597 0b04 29       		.byte	0x29
 4598 0b05 6F000000 		.4byte	0x6f
 4599 0b09 01       		.byte	0x1
 4600 0b0a 05       		.byte	0x5
 4601 0b0b 03       		.byte	0x3
 4602 0b0c 00000000 		.4byte	HPercent
 4603 0b10 1B       		.uleb128 0x1b
 4604 0b11 4E020000 		.4byte	.LASF113
 4605 0b15 04       		.byte	0x4
 4606 0b16 2A       		.byte	0x2a
 4607 0b17 29000000 		.4byte	0x29
 4608 0b1b 01       		.byte	0x1
 4609 0b1c 05       		.byte	0x5
 4610 0b1d 03       		.byte	0x3
 4611 0b1e 00000000 		.4byte	HData
 4612 0b22 1B       		.uleb128 0x1b
 4613 0b23 4D050000 		.4byte	.LASF114
 4614 0b27 04       		.byte	0x4
 4615 0b28 2D       		.byte	0x2d
 4616 0b29 6F000000 		.4byte	0x6f
 4617 0b2d 01       		.byte	0x1
 4618 0b2e 05       		.byte	0x5
 4619 0b2f 03       		.byte	0x3
ARM GAS  C:\Users\ZHANGM~1\AppData\Local\Temp\ccWWGwEp.s 			page 113


 4620 0b30 00000000 		.4byte	JPercent
 4621 0b34 1B       		.uleb128 0x1b
 4622 0b35 B5030000 		.4byte	.LASF115
 4623 0b39 04       		.byte	0x4
 4624 0b3a 2E       		.byte	0x2e
 4625 0b3b 29000000 		.4byte	0x29
 4626 0b3f 01       		.byte	0x1
 4627 0b40 05       		.byte	0x5
 4628 0b41 03       		.byte	0x3
 4629 0b42 00000000 		.4byte	JData
 4630 0b46 1B       		.uleb128 0x1b
 4631 0b47 01020000 		.4byte	.LASF116
 4632 0b4b 04       		.byte	0x4
 4633 0b4c 31       		.byte	0x31
 4634 0b4d 6F000000 		.4byte	0x6f
 4635 0b51 01       		.byte	0x1
 4636 0b52 05       		.byte	0x5
 4637 0b53 03       		.byte	0x3
 4638 0b54 00000000 		.4byte	KPercent
 4639 0b58 1B       		.uleb128 0x1b
 4640 0b59 AF010000 		.4byte	.LASF117
 4641 0b5d 04       		.byte	0x4
 4642 0b5e 32       		.byte	0x32
 4643 0b5f 29000000 		.4byte	0x29
 4644 0b63 01       		.byte	0x1
 4645 0b64 05       		.byte	0x5
 4646 0b65 03       		.byte	0x3
 4647 0b66 00000000 		.4byte	KData
 4648 0b6a 1B       		.uleb128 0x1b
 4649 0b6b FA030000 		.4byte	.LASF118
 4650 0b6f 04       		.byte	0x4
 4651 0b70 35       		.byte	0x35
 4652 0b71 6F000000 		.4byte	0x6f
 4653 0b75 01       		.byte	0x1
 4654 0b76 05       		.byte	0x5
 4655 0b77 03       		.byte	0x3
 4656 0b78 00000000 		.4byte	LPercent
 4657 0b7c 1B       		.uleb128 0x1b
 4658 0b7d 61050000 		.4byte	.LASF119
 4659 0b81 04       		.byte	0x4
 4660 0b82 36       		.byte	0x36
 4661 0b83 29000000 		.4byte	0x29
 4662 0b87 01       		.byte	0x1
 4663 0b88 05       		.byte	0x5
 4664 0b89 03       		.byte	0x3
 4665 0b8a 00000000 		.4byte	LData
 4666 0b8e 1B       		.uleb128 0x1b
 4667 0b8f 00000000 		.4byte	.LASF120
 4668 0b93 04       		.byte	0x4
 4669 0b94 39       		.byte	0x39
 4670 0b95 6F000000 		.4byte	0x6f
 4671 0b99 01       		.byte	0x1
 4672 0b9a 05       		.byte	0x5
 4673 0b9b 03       		.byte	0x3
 4674 0b9c 00000000 		.4byte	MPercent
 4675 0ba0 1B       		.uleb128 0x1b
 4676 0ba1 50040000 		.4byte	.LASF121
ARM GAS  C:\Users\ZHANGM~1\AppData\Local\Temp\ccWWGwEp.s 			page 114


 4677 0ba5 04       		.byte	0x4
 4678 0ba6 3B       		.byte	0x3b
 4679 0ba7 6F000000 		.4byte	0x6f
 4680 0bab 01       		.byte	0x1
 4681 0bac 05       		.byte	0x5
 4682 0bad 03       		.byte	0x3
 4683 0bae 00000000 		.4byte	FlashCnt
 4684 0bb2 1B       		.uleb128 0x1b
 4685 0bb3 CB030000 		.4byte	.LASF122
 4686 0bb7 04       		.byte	0x4
 4687 0bb8 A1       		.byte	0xa1
 4688 0bb9 C4030000 		.4byte	0x3c4
 4689 0bbd 01       		.byte	0x1
 4690 0bbe 05       		.byte	0x5
 4691 0bbf 03       		.byte	0x3
 4692 0bc0 00000000 		.4byte	DisFlag
 4693 0bc4 1B       		.uleb128 0x1b
 4694 0bc5 78000000 		.4byte	.LASF123
 4695 0bc9 04       		.byte	0x4
 4696 0bca A2       		.byte	0xa2
 4697 0bcb 6F000000 		.4byte	0x6f
 4698 0bcf 01       		.byte	0x1
 4699 0bd0 05       		.byte	0x5
 4700 0bd1 03       		.byte	0x3
 4701 0bd2 00000000 		.4byte	StaFlashCnt
 4702 0bd6 1B       		.uleb128 0x1b
 4703 0bd7 DA020000 		.4byte	.LASF124
 4704 0bdb 04       		.byte	0x4
 4705 0bdc A4       		.byte	0xa4
 4706 0bdd 6F000000 		.4byte	0x6f
 4707 0be1 01       		.byte	0x1
 4708 0be2 05       		.byte	0x5
 4709 0be3 03       		.byte	0x3
 4710 0be4 00000000 		.4byte	temps
 4711 0be8 1B       		.uleb128 0x1b
 4712 0be9 BB020000 		.4byte	.LASF125
 4713 0bed 04       		.byte	0x4
 4714 0bee A4       		.byte	0xa4
 4715 0bef 6F000000 		.4byte	0x6f
 4716 0bf3 01       		.byte	0x1
 4717 0bf4 05       		.byte	0x5
 4718 0bf5 03       		.byte	0x3
 4719 0bf6 00000000 		.4byte	temph
 4720 0bfa 1B       		.uleb128 0x1b
 4721 0bfb 34060000 		.4byte	.LASF126
 4722 0bff 04       		.byte	0x4
 4723 0c00 A4       		.byte	0xa4
 4724 0c01 6F000000 		.4byte	0x6f
 4725 0c05 01       		.byte	0x1
 4726 0c06 05       		.byte	0x5
 4727 0c07 03       		.byte	0x3
 4728 0c08 00000000 		.4byte	tempj
 4729 0c0c 1B       		.uleb128 0x1b
 4730 0c0d C8020000 		.4byte	.LASF127
 4731 0c11 04       		.byte	0x4
 4732 0c12 A4       		.byte	0xa4
 4733 0c13 6F000000 		.4byte	0x6f
ARM GAS  C:\Users\ZHANGM~1\AppData\Local\Temp\ccWWGwEp.s 			page 115


 4734 0c17 01       		.byte	0x1
 4735 0c18 05       		.byte	0x5
 4736 0c19 03       		.byte	0x3
 4737 0c1a 00000000 		.4byte	tempk
 4738 0c1e 1B       		.uleb128 0x1b
 4739 0c1f CE020000 		.4byte	.LASF128
 4740 0c23 04       		.byte	0x4
 4741 0c24 A4       		.byte	0xa4
 4742 0c25 6F000000 		.4byte	0x6f
 4743 0c29 01       		.byte	0x1
 4744 0c2a 05       		.byte	0x5
 4745 0c2b 03       		.byte	0x3
 4746 0c2c 00000000 		.4byte	templ
 4747 0c30 1B       		.uleb128 0x1b
 4748 0c31 D4020000 		.4byte	.LASF129
 4749 0c35 04       		.byte	0x4
 4750 0c36 A4       		.byte	0xa4
 4751 0c37 6F000000 		.4byte	0x6f
 4752 0c3b 01       		.byte	0x1
 4753 0c3c 05       		.byte	0x5
 4754 0c3d 03       		.byte	0x3
 4755 0c3e 00000000 		.4byte	tempm
 4756 0c42 1B       		.uleb128 0x1b
 4757 0c43 B5010000 		.4byte	.LASF130
 4758 0c47 04       		.byte	0x4
 4759 0c48 A7       		.byte	0xa7
 4760 0c49 37000000 		.4byte	0x37
 4761 0c4d 01       		.byte	0x1
 4762 0c4e 05       		.byte	0x5
 4763 0c4f 03       		.byte	0x3
 4764 0c50 00000000 		.4byte	LedPannelCnt
 4765 0c54 1C       		.uleb128 0x1c
 4766 0c55 01       		.byte	0x1
 4767 0c56 54020000 		.4byte	.LASF131
 4768 0c5a 06       		.byte	0x6
 4769 0c5b 1D       		.byte	0x1d
 4770 0c5c 01       		.byte	0x1
 4771 0c5d 01       		.byte	0x1
 4772 0c5e 680C0000 		.4byte	0xc68
 4773 0c62 1D       		.uleb128 0x1d
 4774 0c63 6F000000 		.4byte	0x6f
 4775 0c67 00       		.byte	0
 4776 0c68 1C       		.uleb128 0x1c
 4777 0c69 01       		.byte	0x1
 4778 0c6a 20030000 		.4byte	.LASF132
 4779 0c6e 07       		.byte	0x7
 4780 0c6f 1D       		.byte	0x1d
 4781 0c70 01       		.byte	0x1
 4782 0c71 01       		.byte	0x1
 4783 0c72 7C0C0000 		.4byte	0xc7c
 4784 0c76 1D       		.uleb128 0x1d
 4785 0c77 6F000000 		.4byte	0x6f
 4786 0c7b 00       		.byte	0
 4787 0c7c 1C       		.uleb128 0x1c
 4788 0c7d 01       		.byte	0x1
 4789 0c7e C2010000 		.4byte	.LASF133
 4790 0c82 08       		.byte	0x8
ARM GAS  C:\Users\ZHANGM~1\AppData\Local\Temp\ccWWGwEp.s 			page 116


 4791 0c83 6D       		.byte	0x6d
 4792 0c84 01       		.byte	0x1
 4793 0c85 01       		.byte	0x1
 4794 0c86 900C0000 		.4byte	0xc90
 4795 0c8a 1D       		.uleb128 0x1d
 4796 0c8b 7A000000 		.4byte	0x7a
 4797 0c8f 00       		.byte	0
 4798 0c90 1E       		.uleb128 0x1e
 4799 0c91 01       		.byte	0x1
 4800 0c92 2B010000 		.4byte	.LASF137
 4801 0c96 09       		.byte	0x9
 4802 0c97 2101     		.2byte	0x121
 4803 0c99 01       		.byte	0x1
 4804 0c9a 01       		.byte	0x1
 4805 0c9b 1F       		.uleb128 0x1f
 4806 0c9c 01       		.byte	0x1
 4807 0c9d 18040000 		.4byte	.LASF138
 4808 0ca1 0A       		.byte	0xa
 4809 0ca2 1D       		.byte	0x1d
 4810 0ca3 01       		.byte	0x1
 4811 0ca4 01       		.byte	0x1
 4812 0ca5 1D       		.uleb128 0x1d
 4813 0ca6 6F000000 		.4byte	0x6f
 4814 0caa 00       		.byte	0
 4815 0cab 00       		.byte	0
 4816              		.section	.debug_abbrev,"",%progbits
 4817              	.Ldebug_abbrev0:
 4818 0000 01       		.uleb128 0x1
 4819 0001 11       		.uleb128 0x11
 4820 0002 01       		.byte	0x1
 4821 0003 25       		.uleb128 0x25
 4822 0004 0E       		.uleb128 0xe
 4823 0005 13       		.uleb128 0x13
 4824 0006 0B       		.uleb128 0xb
 4825 0007 03       		.uleb128 0x3
 4826 0008 0E       		.uleb128 0xe
 4827 0009 1B       		.uleb128 0x1b
 4828 000a 0E       		.uleb128 0xe
 4829 000b 55       		.uleb128 0x55
 4830 000c 06       		.uleb128 0x6
 4831 000d 11       		.uleb128 0x11
 4832 000e 01       		.uleb128 0x1
 4833 000f 52       		.uleb128 0x52
 4834 0010 01       		.uleb128 0x1
 4835 0011 10       		.uleb128 0x10
 4836 0012 06       		.uleb128 0x6
 4837 0013 00       		.byte	0
 4838 0014 00       		.byte	0
 4839 0015 02       		.uleb128 0x2
 4840 0016 24       		.uleb128 0x24
 4841 0017 00       		.byte	0
 4842 0018 0B       		.uleb128 0xb
 4843 0019 0B       		.uleb128 0xb
 4844 001a 3E       		.uleb128 0x3e
 4845 001b 0B       		.uleb128 0xb
 4846 001c 03       		.uleb128 0x3
 4847 001d 0E       		.uleb128 0xe
ARM GAS  C:\Users\ZHANGM~1\AppData\Local\Temp\ccWWGwEp.s 			page 117


 4848 001e 00       		.byte	0
 4849 001f 00       		.byte	0
 4850 0020 03       		.uleb128 0x3
 4851 0021 24       		.uleb128 0x24
 4852 0022 00       		.byte	0
 4853 0023 0B       		.uleb128 0xb
 4854 0024 0B       		.uleb128 0xb
 4855 0025 3E       		.uleb128 0x3e
 4856 0026 0B       		.uleb128 0xb
 4857 0027 03       		.uleb128 0x3
 4858 0028 08       		.uleb128 0x8
 4859 0029 00       		.byte	0
 4860 002a 00       		.byte	0
 4861 002b 04       		.uleb128 0x4
 4862 002c 16       		.uleb128 0x16
 4863 002d 00       		.byte	0
 4864 002e 03       		.uleb128 0x3
 4865 002f 0E       		.uleb128 0xe
 4866 0030 3A       		.uleb128 0x3a
 4867 0031 0B       		.uleb128 0xb
 4868 0032 3B       		.uleb128 0x3b
 4869 0033 0B       		.uleb128 0xb
 4870 0034 49       		.uleb128 0x49
 4871 0035 13       		.uleb128 0x13
 4872 0036 00       		.byte	0
 4873 0037 00       		.byte	0
 4874 0038 05       		.uleb128 0x5
 4875 0039 13       		.uleb128 0x13
 4876 003a 01       		.byte	0x1
 4877 003b 0B       		.uleb128 0xb
 4878 003c 0B       		.uleb128 0xb
 4879 003d 3A       		.uleb128 0x3a
 4880 003e 0B       		.uleb128 0xb
 4881 003f 3B       		.uleb128 0x3b
 4882 0040 0B       		.uleb128 0xb
 4883 0041 01       		.uleb128 0x1
 4884 0042 13       		.uleb128 0x13
 4885 0043 00       		.byte	0
 4886 0044 00       		.byte	0
 4887 0045 06       		.uleb128 0x6
 4888 0046 0D       		.uleb128 0xd
 4889 0047 00       		.byte	0
 4890 0048 03       		.uleb128 0x3
 4891 0049 0E       		.uleb128 0xe
 4892 004a 3A       		.uleb128 0x3a
 4893 004b 0B       		.uleb128 0xb
 4894 004c 3B       		.uleb128 0x3b
 4895 004d 0B       		.uleb128 0xb
 4896 004e 49       		.uleb128 0x49
 4897 004f 13       		.uleb128 0x13
 4898 0050 0B       		.uleb128 0xb
 4899 0051 0B       		.uleb128 0xb
 4900 0052 0D       		.uleb128 0xd
 4901 0053 0B       		.uleb128 0xb
 4902 0054 0C       		.uleb128 0xc
 4903 0055 0B       		.uleb128 0xb
 4904 0056 38       		.uleb128 0x38
ARM GAS  C:\Users\ZHANGM~1\AppData\Local\Temp\ccWWGwEp.s 			page 118


 4905 0057 0A       		.uleb128 0xa
 4906 0058 00       		.byte	0
 4907 0059 00       		.byte	0
 4908 005a 07       		.uleb128 0x7
 4909 005b 17       		.uleb128 0x17
 4910 005c 01       		.byte	0x1
 4911 005d 0B       		.uleb128 0xb
 4912 005e 0B       		.uleb128 0xb
 4913 005f 3A       		.uleb128 0x3a
 4914 0060 0B       		.uleb128 0xb
 4915 0061 3B       		.uleb128 0x3b
 4916 0062 0B       		.uleb128 0xb
 4917 0063 01       		.uleb128 0x1
 4918 0064 13       		.uleb128 0x13
 4919 0065 00       		.byte	0
 4920 0066 00       		.byte	0
 4921 0067 08       		.uleb128 0x8
 4922 0068 0D       		.uleb128 0xd
 4923 0069 00       		.byte	0
 4924 006a 03       		.uleb128 0x3
 4925 006b 08       		.uleb128 0x8
 4926 006c 3A       		.uleb128 0x3a
 4927 006d 0B       		.uleb128 0xb
 4928 006e 3B       		.uleb128 0x3b
 4929 006f 0B       		.uleb128 0xb
 4930 0070 49       		.uleb128 0x49
 4931 0071 13       		.uleb128 0x13
 4932 0072 00       		.byte	0
 4933 0073 00       		.byte	0
 4934 0074 09       		.uleb128 0x9
 4935 0075 0D       		.uleb128 0xd
 4936 0076 00       		.byte	0
 4937 0077 03       		.uleb128 0x3
 4938 0078 08       		.uleb128 0x8
 4939 0079 3A       		.uleb128 0x3a
 4940 007a 0B       		.uleb128 0xb
 4941 007b 3B       		.uleb128 0x3b
 4942 007c 0B       		.uleb128 0xb
 4943 007d 49       		.uleb128 0x49
 4944 007e 13       		.uleb128 0x13
 4945 007f 0B       		.uleb128 0xb
 4946 0080 0B       		.uleb128 0xb
 4947 0081 0D       		.uleb128 0xd
 4948 0082 0B       		.uleb128 0xb
 4949 0083 0C       		.uleb128 0xc
 4950 0084 0B       		.uleb128 0xb
 4951 0085 38       		.uleb128 0x38
 4952 0086 0A       		.uleb128 0xa
 4953 0087 00       		.byte	0
 4954 0088 00       		.byte	0
 4955 0089 0A       		.uleb128 0xa
 4956 008a 2E       		.uleb128 0x2e
 4957 008b 01       		.byte	0x1
 4958 008c 3F       		.uleb128 0x3f
 4959 008d 0C       		.uleb128 0xc
 4960 008e 03       		.uleb128 0x3
 4961 008f 0E       		.uleb128 0xe
ARM GAS  C:\Users\ZHANGM~1\AppData\Local\Temp\ccWWGwEp.s 			page 119


 4962 0090 3A       		.uleb128 0x3a
 4963 0091 0B       		.uleb128 0xb
 4964 0092 3B       		.uleb128 0x3b
 4965 0093 0B       		.uleb128 0xb
 4966 0094 27       		.uleb128 0x27
 4967 0095 0C       		.uleb128 0xc
 4968 0096 11       		.uleb128 0x11
 4969 0097 01       		.uleb128 0x1
 4970 0098 12       		.uleb128 0x12
 4971 0099 01       		.uleb128 0x1
 4972 009a 40       		.uleb128 0x40
 4973 009b 06       		.uleb128 0x6
 4974 009c 9742     		.uleb128 0x2117
 4975 009e 0C       		.uleb128 0xc
 4976 009f 01       		.uleb128 0x1
 4977 00a0 13       		.uleb128 0x13
 4978 00a1 00       		.byte	0
 4979 00a2 00       		.byte	0
 4980 00a3 0B       		.uleb128 0xb
 4981 00a4 05       		.uleb128 0x5
 4982 00a5 00       		.byte	0
 4983 00a6 03       		.uleb128 0x3
 4984 00a7 0E       		.uleb128 0xe
 4985 00a8 3A       		.uleb128 0x3a
 4986 00a9 0B       		.uleb128 0xb
 4987 00aa 3B       		.uleb128 0x3b
 4988 00ab 0B       		.uleb128 0xb
 4989 00ac 49       		.uleb128 0x49
 4990 00ad 13       		.uleb128 0x13
 4991 00ae 02       		.uleb128 0x2
 4992 00af 06       		.uleb128 0x6
 4993 00b0 00       		.byte	0
 4994 00b1 00       		.byte	0
 4995 00b2 0C       		.uleb128 0xc
 4996 00b3 34       		.uleb128 0x34
 4997 00b4 00       		.byte	0
 4998 00b5 03       		.uleb128 0x3
 4999 00b6 08       		.uleb128 0x8
 5000 00b7 3A       		.uleb128 0x3a
 5001 00b8 0B       		.uleb128 0xb
 5002 00b9 3B       		.uleb128 0x3b
 5003 00ba 0B       		.uleb128 0xb
 5004 00bb 49       		.uleb128 0x49
 5005 00bc 13       		.uleb128 0x13
 5006 00bd 02       		.uleb128 0x2
 5007 00be 06       		.uleb128 0x6
 5008 00bf 00       		.byte	0
 5009 00c0 00       		.byte	0
 5010 00c1 0D       		.uleb128 0xd
 5011 00c2 898201   		.uleb128 0x4109
 5012 00c5 01       		.byte	0x1
 5013 00c6 11       		.uleb128 0x11
 5014 00c7 01       		.uleb128 0x1
 5015 00c8 31       		.uleb128 0x31
 5016 00c9 13       		.uleb128 0x13
 5017 00ca 01       		.uleb128 0x1
 5018 00cb 13       		.uleb128 0x13
ARM GAS  C:\Users\ZHANGM~1\AppData\Local\Temp\ccWWGwEp.s 			page 120


 5019 00cc 00       		.byte	0
 5020 00cd 00       		.byte	0
 5021 00ce 0E       		.uleb128 0xe
 5022 00cf 8A8201   		.uleb128 0x410a
 5023 00d2 00       		.byte	0
 5024 00d3 02       		.uleb128 0x2
 5025 00d4 0A       		.uleb128 0xa
 5026 00d5 9142     		.uleb128 0x2111
 5027 00d7 0A       		.uleb128 0xa
 5028 00d8 00       		.byte	0
 5029 00d9 00       		.byte	0
 5030 00da 0F       		.uleb128 0xf
 5031 00db 898201   		.uleb128 0x4109
 5032 00de 01       		.byte	0x1
 5033 00df 11       		.uleb128 0x11
 5034 00e0 01       		.uleb128 0x1
 5035 00e1 31       		.uleb128 0x31
 5036 00e2 13       		.uleb128 0x13
 5037 00e3 00       		.byte	0
 5038 00e4 00       		.byte	0
 5039 00e5 10       		.uleb128 0x10
 5040 00e6 05       		.uleb128 0x5
 5041 00e7 00       		.byte	0
 5042 00e8 03       		.uleb128 0x3
 5043 00e9 08       		.uleb128 0x8
 5044 00ea 3A       		.uleb128 0x3a
 5045 00eb 0B       		.uleb128 0xb
 5046 00ec 3B       		.uleb128 0x3b
 5047 00ed 0B       		.uleb128 0xb
 5048 00ee 49       		.uleb128 0x49
 5049 00ef 13       		.uleb128 0x13
 5050 00f0 02       		.uleb128 0x2
 5051 00f1 06       		.uleb128 0x6
 5052 00f2 00       		.byte	0
 5053 00f3 00       		.byte	0
 5054 00f4 11       		.uleb128 0x11
 5055 00f5 2E       		.uleb128 0x2e
 5056 00f6 01       		.byte	0x1
 5057 00f7 3F       		.uleb128 0x3f
 5058 00f8 0C       		.uleb128 0xc
 5059 00f9 03       		.uleb128 0x3
 5060 00fa 0E       		.uleb128 0xe
 5061 00fb 3A       		.uleb128 0x3a
 5062 00fc 0B       		.uleb128 0xb
 5063 00fd 3B       		.uleb128 0x3b
 5064 00fe 05       		.uleb128 0x5
 5065 00ff 27       		.uleb128 0x27
 5066 0100 0C       		.uleb128 0xc
 5067 0101 11       		.uleb128 0x11
 5068 0102 01       		.uleb128 0x1
 5069 0103 12       		.uleb128 0x12
 5070 0104 01       		.uleb128 0x1
 5071 0105 40       		.uleb128 0x40
 5072 0106 06       		.uleb128 0x6
 5073 0107 9642     		.uleb128 0x2116
 5074 0109 0C       		.uleb128 0xc
 5075 010a 01       		.uleb128 0x1
ARM GAS  C:\Users\ZHANGM~1\AppData\Local\Temp\ccWWGwEp.s 			page 121


 5076 010b 13       		.uleb128 0x13
 5077 010c 00       		.byte	0
 5078 010d 00       		.byte	0
 5079 010e 12       		.uleb128 0x12
 5080 010f 05       		.uleb128 0x5
 5081 0110 00       		.byte	0
 5082 0111 03       		.uleb128 0x3
 5083 0112 0E       		.uleb128 0xe
 5084 0113 3A       		.uleb128 0x3a
 5085 0114 0B       		.uleb128 0xb
 5086 0115 3B       		.uleb128 0x3b
 5087 0116 05       		.uleb128 0x5
 5088 0117 49       		.uleb128 0x49
 5089 0118 13       		.uleb128 0x13
 5090 0119 02       		.uleb128 0x2
 5091 011a 06       		.uleb128 0x6
 5092 011b 00       		.byte	0
 5093 011c 00       		.byte	0
 5094 011d 13       		.uleb128 0x13
 5095 011e 34       		.uleb128 0x34
 5096 011f 00       		.byte	0
 5097 0120 03       		.uleb128 0x3
 5098 0121 0E       		.uleb128 0xe
 5099 0122 3A       		.uleb128 0x3a
 5100 0123 0B       		.uleb128 0xb
 5101 0124 3B       		.uleb128 0x3b
 5102 0125 05       		.uleb128 0x5
 5103 0126 49       		.uleb128 0x49
 5104 0127 13       		.uleb128 0x13
 5105 0128 02       		.uleb128 0x2
 5106 0129 06       		.uleb128 0x6
 5107 012a 00       		.byte	0
 5108 012b 00       		.byte	0
 5109 012c 14       		.uleb128 0x14
 5110 012d 2E       		.uleb128 0x2e
 5111 012e 01       		.byte	0x1
 5112 012f 3F       		.uleb128 0x3f
 5113 0130 0C       		.uleb128 0xc
 5114 0131 03       		.uleb128 0x3
 5115 0132 0E       		.uleb128 0xe
 5116 0133 3A       		.uleb128 0x3a
 5117 0134 0B       		.uleb128 0xb
 5118 0135 3B       		.uleb128 0x3b
 5119 0136 05       		.uleb128 0x5
 5120 0137 27       		.uleb128 0x27
 5121 0138 0C       		.uleb128 0xc
 5122 0139 11       		.uleb128 0x11
 5123 013a 01       		.uleb128 0x1
 5124 013b 12       		.uleb128 0x12
 5125 013c 01       		.uleb128 0x1
 5126 013d 40       		.uleb128 0x40
 5127 013e 06       		.uleb128 0x6
 5128 013f 9742     		.uleb128 0x2117
 5129 0141 0C       		.uleb128 0xc
 5130 0142 01       		.uleb128 0x1
 5131 0143 13       		.uleb128 0x13
 5132 0144 00       		.byte	0
ARM GAS  C:\Users\ZHANGM~1\AppData\Local\Temp\ccWWGwEp.s 			page 122


 5133 0145 00       		.byte	0
 5134 0146 15       		.uleb128 0x15
 5135 0147 898201   		.uleb128 0x4109
 5136 014a 00       		.byte	0
 5137 014b 11       		.uleb128 0x11
 5138 014c 01       		.uleb128 0x1
 5139 014d 31       		.uleb128 0x31
 5140 014e 13       		.uleb128 0x13
 5141 014f 00       		.byte	0
 5142 0150 00       		.byte	0
 5143 0151 16       		.uleb128 0x16
 5144 0152 2E       		.uleb128 0x2e
 5145 0153 01       		.byte	0x1
 5146 0154 3F       		.uleb128 0x3f
 5147 0155 0C       		.uleb128 0xc
 5148 0156 03       		.uleb128 0x3
 5149 0157 0E       		.uleb128 0xe
 5150 0158 3A       		.uleb128 0x3a
 5151 0159 0B       		.uleb128 0xb
 5152 015a 3B       		.uleb128 0x3b
 5153 015b 05       		.uleb128 0x5
 5154 015c 27       		.uleb128 0x27
 5155 015d 0C       		.uleb128 0xc
 5156 015e 11       		.uleb128 0x11
 5157 015f 01       		.uleb128 0x1
 5158 0160 12       		.uleb128 0x12
 5159 0161 01       		.uleb128 0x1
 5160 0162 40       		.uleb128 0x40
 5161 0163 0A       		.uleb128 0xa
 5162 0164 9742     		.uleb128 0x2117
 5163 0166 0C       		.uleb128 0xc
 5164 0167 01       		.uleb128 0x1
 5165 0168 13       		.uleb128 0x13
 5166 0169 00       		.byte	0
 5167 016a 00       		.byte	0
 5168 016b 17       		.uleb128 0x17
 5169 016c 34       		.uleb128 0x34
 5170 016d 00       		.byte	0
 5171 016e 03       		.uleb128 0x3
 5172 016f 08       		.uleb128 0x8
 5173 0170 3A       		.uleb128 0x3a
 5174 0171 0B       		.uleb128 0xb
 5175 0172 3B       		.uleb128 0x3b
 5176 0173 05       		.uleb128 0x5
 5177 0174 49       		.uleb128 0x49
 5178 0175 13       		.uleb128 0x13
 5179 0176 02       		.uleb128 0x2
 5180 0177 06       		.uleb128 0x6
 5181 0178 00       		.byte	0
 5182 0179 00       		.byte	0
 5183 017a 18       		.uleb128 0x18
 5184 017b 34       		.uleb128 0x34
 5185 017c 00       		.byte	0
 5186 017d 03       		.uleb128 0x3
 5187 017e 0E       		.uleb128 0xe
 5188 017f 3A       		.uleb128 0x3a
 5189 0180 0B       		.uleb128 0xb
ARM GAS  C:\Users\ZHANGM~1\AppData\Local\Temp\ccWWGwEp.s 			page 123


 5190 0181 3B       		.uleb128 0x3b
 5191 0182 0B       		.uleb128 0xb
 5192 0183 49       		.uleb128 0x49
 5193 0184 13       		.uleb128 0x13
 5194 0185 3F       		.uleb128 0x3f
 5195 0186 0C       		.uleb128 0xc
 5196 0187 3C       		.uleb128 0x3c
 5197 0188 0C       		.uleb128 0xc
 5198 0189 00       		.byte	0
 5199 018a 00       		.byte	0
 5200 018b 19       		.uleb128 0x19
 5201 018c 01       		.uleb128 0x1
 5202 018d 01       		.byte	0x1
 5203 018e 49       		.uleb128 0x49
 5204 018f 13       		.uleb128 0x13
 5205 0190 01       		.uleb128 0x1
 5206 0191 13       		.uleb128 0x13
 5207 0192 00       		.byte	0
 5208 0193 00       		.byte	0
 5209 0194 1A       		.uleb128 0x1a
 5210 0195 21       		.uleb128 0x21
 5211 0196 00       		.byte	0
 5212 0197 49       		.uleb128 0x49
 5213 0198 13       		.uleb128 0x13
 5214 0199 2F       		.uleb128 0x2f
 5215 019a 0B       		.uleb128 0xb
 5216 019b 00       		.byte	0
 5217 019c 00       		.byte	0
 5218 019d 1B       		.uleb128 0x1b
 5219 019e 34       		.uleb128 0x34
 5220 019f 00       		.byte	0
 5221 01a0 03       		.uleb128 0x3
 5222 01a1 0E       		.uleb128 0xe
 5223 01a2 3A       		.uleb128 0x3a
 5224 01a3 0B       		.uleb128 0xb
 5225 01a4 3B       		.uleb128 0x3b
 5226 01a5 0B       		.uleb128 0xb
 5227 01a6 49       		.uleb128 0x49
 5228 01a7 13       		.uleb128 0x13
 5229 01a8 3F       		.uleb128 0x3f
 5230 01a9 0C       		.uleb128 0xc
 5231 01aa 02       		.uleb128 0x2
 5232 01ab 0A       		.uleb128 0xa
 5233 01ac 00       		.byte	0
 5234 01ad 00       		.byte	0
 5235 01ae 1C       		.uleb128 0x1c
 5236 01af 2E       		.uleb128 0x2e
 5237 01b0 01       		.byte	0x1
 5238 01b1 3F       		.uleb128 0x3f
 5239 01b2 0C       		.uleb128 0xc
 5240 01b3 03       		.uleb128 0x3
 5241 01b4 0E       		.uleb128 0xe
 5242 01b5 3A       		.uleb128 0x3a
 5243 01b6 0B       		.uleb128 0xb
 5244 01b7 3B       		.uleb128 0x3b
 5245 01b8 0B       		.uleb128 0xb
 5246 01b9 27       		.uleb128 0x27
ARM GAS  C:\Users\ZHANGM~1\AppData\Local\Temp\ccWWGwEp.s 			page 124


 5247 01ba 0C       		.uleb128 0xc
 5248 01bb 3C       		.uleb128 0x3c
 5249 01bc 0C       		.uleb128 0xc
 5250 01bd 01       		.uleb128 0x1
 5251 01be 13       		.uleb128 0x13
 5252 01bf 00       		.byte	0
 5253 01c0 00       		.byte	0
 5254 01c1 1D       		.uleb128 0x1d
 5255 01c2 05       		.uleb128 0x5
 5256 01c3 00       		.byte	0
 5257 01c4 49       		.uleb128 0x49
 5258 01c5 13       		.uleb128 0x13
 5259 01c6 00       		.byte	0
 5260 01c7 00       		.byte	0
 5261 01c8 1E       		.uleb128 0x1e
 5262 01c9 2E       		.uleb128 0x2e
 5263 01ca 00       		.byte	0
 5264 01cb 3F       		.uleb128 0x3f
 5265 01cc 0C       		.uleb128 0xc
 5266 01cd 03       		.uleb128 0x3
 5267 01ce 0E       		.uleb128 0xe
 5268 01cf 3A       		.uleb128 0x3a
 5269 01d0 0B       		.uleb128 0xb
 5270 01d1 3B       		.uleb128 0x3b
 5271 01d2 05       		.uleb128 0x5
 5272 01d3 27       		.uleb128 0x27
 5273 01d4 0C       		.uleb128 0xc
 5274 01d5 3C       		.uleb128 0x3c
 5275 01d6 0C       		.uleb128 0xc
 5276 01d7 00       		.byte	0
 5277 01d8 00       		.byte	0
 5278 01d9 1F       		.uleb128 0x1f
 5279 01da 2E       		.uleb128 0x2e
 5280 01db 01       		.byte	0x1
 5281 01dc 3F       		.uleb128 0x3f
 5282 01dd 0C       		.uleb128 0xc
 5283 01de 03       		.uleb128 0x3
 5284 01df 0E       		.uleb128 0xe
 5285 01e0 3A       		.uleb128 0x3a
 5286 01e1 0B       		.uleb128 0xb
 5287 01e2 3B       		.uleb128 0x3b
 5288 01e3 0B       		.uleb128 0xb
 5289 01e4 27       		.uleb128 0x27
 5290 01e5 0C       		.uleb128 0xc
 5291 01e6 3C       		.uleb128 0x3c
 5292 01e7 0C       		.uleb128 0xc
 5293 01e8 00       		.byte	0
 5294 01e9 00       		.byte	0
 5295 01ea 00       		.byte	0
 5296              		.section	.debug_loc,"",%progbits
 5297              	.Ldebug_loc0:
 5298              	.LLST0:
 5299 0000 00000000 		.4byte	.LFB33
 5300 0004 02000000 		.4byte	.LCFI0
 5301 0008 0200     		.2byte	0x2
 5302 000a 7D       		.byte	0x7d
 5303 000b 00       		.sleb128 0
ARM GAS  C:\Users\ZHANGM~1\AppData\Local\Temp\ccWWGwEp.s 			page 125


 5304 000c 02000000 		.4byte	.LCFI0
 5305 0010 34000000 		.4byte	.LFE33
 5306 0014 0200     		.2byte	0x2
 5307 0016 7D       		.byte	0x7d
 5308 0017 10       		.sleb128 16
 5309 0018 00000000 		.4byte	0
 5310 001c 00000000 		.4byte	0
 5311              	.LLST1:
 5312 0020 00000000 		.4byte	.LVL0
 5313 0024 06000000 		.4byte	.LVL1
 5314 0028 0100     		.2byte	0x1
 5315 002a 50       		.byte	0x50
 5316 002b 06000000 		.4byte	.LVL1
 5317 002f 34000000 		.4byte	.LFE33
 5318 0033 0400     		.2byte	0x4
 5319 0035 F3       		.byte	0xf3
 5320 0036 01       		.uleb128 0x1
 5321 0037 50       		.byte	0x50
 5322 0038 9F       		.byte	0x9f
 5323 0039 00000000 		.4byte	0
 5324 003d 00000000 		.4byte	0
 5325              	.LLST2:
 5326 0041 00000000 		.4byte	.LVL0
 5327 0045 06000000 		.4byte	.LVL1
 5328 0049 0200     		.2byte	0x2
 5329 004b 30       		.byte	0x30
 5330 004c 9F       		.byte	0x9f
 5331 004d 00000000 		.4byte	0
 5332 0051 00000000 		.4byte	0
 5333              	.LLST3:
 5334 0055 2E000000 		.4byte	.LVL7
 5335 0059 32000000 		.4byte	.LVL8
 5336 005d 0100     		.2byte	0x1
 5337 005f 55       		.byte	0x55
 5338 0060 00000000 		.4byte	0
 5339 0064 00000000 		.4byte	0
 5340              	.LLST4:
 5341 0068 00000000 		.4byte	.LFB34
 5342 006c 02000000 		.4byte	.LCFI1
 5343 0070 0200     		.2byte	0x2
 5344 0072 7D       		.byte	0x7d
 5345 0073 00       		.sleb128 0
 5346 0074 02000000 		.4byte	.LCFI1
 5347 0078 B0010000 		.4byte	.LFE34
 5348 007c 0200     		.2byte	0x2
 5349 007e 7D       		.byte	0x7d
 5350 007f 08       		.sleb128 8
 5351 0080 00000000 		.4byte	0
 5352 0084 00000000 		.4byte	0
 5353              	.LLST5:
 5354 0088 00000000 		.4byte	.LVL9
 5355 008c 12000000 		.4byte	.LVL10
 5356 0090 0100     		.2byte	0x1
 5357 0092 50       		.byte	0x50
 5358 0093 12000000 		.4byte	.LVL10
 5359 0097 B0010000 		.4byte	.LFE34
 5360 009b 0400     		.2byte	0x4
ARM GAS  C:\Users\ZHANGM~1\AppData\Local\Temp\ccWWGwEp.s 			page 126


 5361 009d F3       		.byte	0xf3
 5362 009e 01       		.uleb128 0x1
 5363 009f 50       		.byte	0x50
 5364 00a0 9F       		.byte	0x9f
 5365 00a1 00000000 		.4byte	0
 5366 00a5 00000000 		.4byte	0
 5367              	.LLST6:
 5368 00a9 00000000 		.4byte	.LVL9
 5369 00ad 28000000 		.4byte	.LVL11
 5370 00b1 0100     		.2byte	0x1
 5371 00b3 51       		.byte	0x51
 5372 00b4 28000000 		.4byte	.LVL11
 5373 00b8 4C000000 		.4byte	.LVL12
 5374 00bc 0400     		.2byte	0x4
 5375 00be F3       		.byte	0xf3
 5376 00bf 01       		.uleb128 0x1
 5377 00c0 51       		.byte	0x51
 5378 00c1 9F       		.byte	0x9f
 5379 00c2 4C000000 		.4byte	.LVL12
 5380 00c6 4E000000 		.4byte	.LVL13
 5381 00ca 0100     		.2byte	0x1
 5382 00cc 51       		.byte	0x51
 5383 00cd 4E000000 		.4byte	.LVL13
 5384 00d1 56000000 		.4byte	.LVL14
 5385 00d5 0400     		.2byte	0x4
 5386 00d7 F3       		.byte	0xf3
 5387 00d8 01       		.uleb128 0x1
 5388 00d9 51       		.byte	0x51
 5389 00da 9F       		.byte	0x9f
 5390 00db 56000000 		.4byte	.LVL14
 5391 00df 58000000 		.4byte	.LVL15
 5392 00e3 0100     		.2byte	0x1
 5393 00e5 51       		.byte	0x51
 5394 00e6 58000000 		.4byte	.LVL15
 5395 00ea 76000000 		.4byte	.LVL16
 5396 00ee 0400     		.2byte	0x4
 5397 00f0 F3       		.byte	0xf3
 5398 00f1 01       		.uleb128 0x1
 5399 00f2 51       		.byte	0x51
 5400 00f3 9F       		.byte	0x9f
 5401 00f4 76000000 		.4byte	.LVL16
 5402 00f8 78000000 		.4byte	.LVL17
 5403 00fc 0100     		.2byte	0x1
 5404 00fe 51       		.byte	0x51
 5405 00ff 78000000 		.4byte	.LVL17
 5406 0103 9C000000 		.4byte	.LVL18
 5407 0107 0400     		.2byte	0x4
 5408 0109 F3       		.byte	0xf3
 5409 010a 01       		.uleb128 0x1
 5410 010b 51       		.byte	0x51
 5411 010c 9F       		.byte	0x9f
 5412 010d 9C000000 		.4byte	.LVL18
 5413 0111 9E000000 		.4byte	.LVL19
 5414 0115 0100     		.2byte	0x1
 5415 0117 51       		.byte	0x51
 5416 0118 9E000000 		.4byte	.LVL19
 5417 011c B6000000 		.4byte	.LVL20
ARM GAS  C:\Users\ZHANGM~1\AppData\Local\Temp\ccWWGwEp.s 			page 127


 5418 0120 0400     		.2byte	0x4
 5419 0122 F3       		.byte	0xf3
 5420 0123 01       		.uleb128 0x1
 5421 0124 51       		.byte	0x51
 5422 0125 9F       		.byte	0x9f
 5423 0126 B6000000 		.4byte	.LVL20
 5424 012a B8000000 		.4byte	.LVL21
 5425 012e 0100     		.2byte	0x1
 5426 0130 51       		.byte	0x51
 5427 0131 B8000000 		.4byte	.LVL21
 5428 0135 C4000000 		.4byte	.LVL22
 5429 0139 0400     		.2byte	0x4
 5430 013b F3       		.byte	0xf3
 5431 013c 01       		.uleb128 0x1
 5432 013d 51       		.byte	0x51
 5433 013e 9F       		.byte	0x9f
 5434 013f C4000000 		.4byte	.LVL22
 5435 0143 C8000000 		.4byte	.LVL23
 5436 0147 0100     		.2byte	0x1
 5437 0149 51       		.byte	0x51
 5438 014a C8000000 		.4byte	.LVL23
 5439 014e D8000000 		.4byte	.LVL24
 5440 0152 0400     		.2byte	0x4
 5441 0154 F3       		.byte	0xf3
 5442 0155 01       		.uleb128 0x1
 5443 0156 51       		.byte	0x51
 5444 0157 9F       		.byte	0x9f
 5445 0158 D8000000 		.4byte	.LVL24
 5446 015c E0000000 		.4byte	.LVL25
 5447 0160 0100     		.2byte	0x1
 5448 0162 51       		.byte	0x51
 5449 0163 E0000000 		.4byte	.LVL25
 5450 0167 04010000 		.4byte	.LVL26
 5451 016b 0400     		.2byte	0x4
 5452 016d F3       		.byte	0xf3
 5453 016e 01       		.uleb128 0x1
 5454 016f 51       		.byte	0x51
 5455 0170 9F       		.byte	0x9f
 5456 0171 04010000 		.4byte	.LVL26
 5457 0175 06010000 		.4byte	.LVL27
 5458 0179 0100     		.2byte	0x1
 5459 017b 51       		.byte	0x51
 5460 017c 06010000 		.4byte	.LVL27
 5461 0180 30010000 		.4byte	.LVL28
 5462 0184 0400     		.2byte	0x4
 5463 0186 F3       		.byte	0xf3
 5464 0187 01       		.uleb128 0x1
 5465 0188 51       		.byte	0x51
 5466 0189 9F       		.byte	0x9f
 5467 018a 30010000 		.4byte	.LVL28
 5468 018e 32010000 		.4byte	.LVL29
 5469 0192 0100     		.2byte	0x1
 5470 0194 51       		.byte	0x51
 5471 0195 32010000 		.4byte	.LVL29
 5472 0199 50010000 		.4byte	.LVL30
 5473 019d 0400     		.2byte	0x4
 5474 019f F3       		.byte	0xf3
ARM GAS  C:\Users\ZHANGM~1\AppData\Local\Temp\ccWWGwEp.s 			page 128


 5475 01a0 01       		.uleb128 0x1
 5476 01a1 51       		.byte	0x51
 5477 01a2 9F       		.byte	0x9f
 5478 01a3 50010000 		.4byte	.LVL30
 5479 01a7 54010000 		.4byte	.LVL31
 5480 01ab 0100     		.2byte	0x1
 5481 01ad 51       		.byte	0x51
 5482 01ae 54010000 		.4byte	.LVL31
 5483 01b2 7E010000 		.4byte	.LVL32
 5484 01b6 0400     		.2byte	0x4
 5485 01b8 F3       		.byte	0xf3
 5486 01b9 01       		.uleb128 0x1
 5487 01ba 51       		.byte	0x51
 5488 01bb 9F       		.byte	0x9f
 5489 01bc 7E010000 		.4byte	.LVL32
 5490 01c0 86010000 		.4byte	.LVL33
 5491 01c4 0100     		.2byte	0x1
 5492 01c6 51       		.byte	0x51
 5493 01c7 86010000 		.4byte	.LVL33
 5494 01cb B0010000 		.4byte	.LFE34
 5495 01cf 0400     		.2byte	0x4
 5496 01d1 F3       		.byte	0xf3
 5497 01d2 01       		.uleb128 0x1
 5498 01d3 51       		.byte	0x51
 5499 01d4 9F       		.byte	0x9f
 5500 01d5 00000000 		.4byte	0
 5501 01d9 00000000 		.4byte	0
 5502              	.LLST7:
 5503 01dd 00000000 		.4byte	.LFB35
 5504 01e1 02000000 		.4byte	.LCFI2
 5505 01e5 0200     		.2byte	0x2
 5506 01e7 7D       		.byte	0x7d
 5507 01e8 00       		.sleb128 0
 5508 01e9 02000000 		.4byte	.LCFI2
 5509 01ed B0010000 		.4byte	.LFE35
 5510 01f1 0200     		.2byte	0x2
 5511 01f3 7D       		.byte	0x7d
 5512 01f4 08       		.sleb128 8
 5513 01f5 00000000 		.4byte	0
 5514 01f9 00000000 		.4byte	0
 5515              	.LLST8:
 5516 01fd 00000000 		.4byte	.LVL34
 5517 0201 12000000 		.4byte	.LVL35
 5518 0205 0100     		.2byte	0x1
 5519 0207 50       		.byte	0x50
 5520 0208 12000000 		.4byte	.LVL35
 5521 020c B0010000 		.4byte	.LFE35
 5522 0210 0400     		.2byte	0x4
 5523 0212 F3       		.byte	0xf3
 5524 0213 01       		.uleb128 0x1
 5525 0214 50       		.byte	0x50
 5526 0215 9F       		.byte	0x9f
 5527 0216 00000000 		.4byte	0
 5528 021a 00000000 		.4byte	0
 5529              	.LLST9:
 5530 021e 00000000 		.4byte	.LVL34
 5531 0222 28000000 		.4byte	.LVL36
ARM GAS  C:\Users\ZHANGM~1\AppData\Local\Temp\ccWWGwEp.s 			page 129


 5532 0226 0100     		.2byte	0x1
 5533 0228 51       		.byte	0x51
 5534 0229 28000000 		.4byte	.LVL36
 5535 022d 4C000000 		.4byte	.LVL37
 5536 0231 0400     		.2byte	0x4
 5537 0233 F3       		.byte	0xf3
 5538 0234 01       		.uleb128 0x1
 5539 0235 51       		.byte	0x51
 5540 0236 9F       		.byte	0x9f
 5541 0237 4C000000 		.4byte	.LVL37
 5542 023b 4E000000 		.4byte	.LVL38
 5543 023f 0100     		.2byte	0x1
 5544 0241 51       		.byte	0x51
 5545 0242 4E000000 		.4byte	.LVL38
 5546 0246 56000000 		.4byte	.LVL39
 5547 024a 0400     		.2byte	0x4
 5548 024c F3       		.byte	0xf3
 5549 024d 01       		.uleb128 0x1
 5550 024e 51       		.byte	0x51
 5551 024f 9F       		.byte	0x9f
 5552 0250 56000000 		.4byte	.LVL39
 5553 0254 58000000 		.4byte	.LVL40
 5554 0258 0100     		.2byte	0x1
 5555 025a 51       		.byte	0x51
 5556 025b 58000000 		.4byte	.LVL40
 5557 025f 76000000 		.4byte	.LVL41
 5558 0263 0400     		.2byte	0x4
 5559 0265 F3       		.byte	0xf3
 5560 0266 01       		.uleb128 0x1
 5561 0267 51       		.byte	0x51
 5562 0268 9F       		.byte	0x9f
 5563 0269 76000000 		.4byte	.LVL41
 5564 026d 78000000 		.4byte	.LVL42
 5565 0271 0100     		.2byte	0x1
 5566 0273 51       		.byte	0x51
 5567 0274 78000000 		.4byte	.LVL42
 5568 0278 9C000000 		.4byte	.LVL43
 5569 027c 0400     		.2byte	0x4
 5570 027e F3       		.byte	0xf3
 5571 027f 01       		.uleb128 0x1
 5572 0280 51       		.byte	0x51
 5573 0281 9F       		.byte	0x9f
 5574 0282 9C000000 		.4byte	.LVL43
 5575 0286 9E000000 		.4byte	.LVL44
 5576 028a 0100     		.2byte	0x1
 5577 028c 51       		.byte	0x51
 5578 028d 9E000000 		.4byte	.LVL44
 5579 0291 B6000000 		.4byte	.LVL45
 5580 0295 0400     		.2byte	0x4
 5581 0297 F3       		.byte	0xf3
 5582 0298 01       		.uleb128 0x1
 5583 0299 51       		.byte	0x51
 5584 029a 9F       		.byte	0x9f
 5585 029b B6000000 		.4byte	.LVL45
 5586 029f B8000000 		.4byte	.LVL46
 5587 02a3 0100     		.2byte	0x1
 5588 02a5 51       		.byte	0x51
ARM GAS  C:\Users\ZHANGM~1\AppData\Local\Temp\ccWWGwEp.s 			page 130


 5589 02a6 B8000000 		.4byte	.LVL46
 5590 02aa C4000000 		.4byte	.LVL47
 5591 02ae 0400     		.2byte	0x4
 5592 02b0 F3       		.byte	0xf3
 5593 02b1 01       		.uleb128 0x1
 5594 02b2 51       		.byte	0x51
 5595 02b3 9F       		.byte	0x9f
 5596 02b4 C4000000 		.4byte	.LVL47
 5597 02b8 C8000000 		.4byte	.LVL48
 5598 02bc 0100     		.2byte	0x1
 5599 02be 51       		.byte	0x51
 5600 02bf C8000000 		.4byte	.LVL48
 5601 02c3 D8000000 		.4byte	.LVL49
 5602 02c7 0400     		.2byte	0x4
 5603 02c9 F3       		.byte	0xf3
 5604 02ca 01       		.uleb128 0x1
 5605 02cb 51       		.byte	0x51
 5606 02cc 9F       		.byte	0x9f
 5607 02cd D8000000 		.4byte	.LVL49
 5608 02d1 E0000000 		.4byte	.LVL50
 5609 02d5 0100     		.2byte	0x1
 5610 02d7 51       		.byte	0x51
 5611 02d8 E0000000 		.4byte	.LVL50
 5612 02dc 04010000 		.4byte	.LVL51
 5613 02e0 0400     		.2byte	0x4
 5614 02e2 F3       		.byte	0xf3
 5615 02e3 01       		.uleb128 0x1
 5616 02e4 51       		.byte	0x51
 5617 02e5 9F       		.byte	0x9f
 5618 02e6 04010000 		.4byte	.LVL51
 5619 02ea 06010000 		.4byte	.LVL52
 5620 02ee 0100     		.2byte	0x1
 5621 02f0 51       		.byte	0x51
 5622 02f1 06010000 		.4byte	.LVL52
 5623 02f5 30010000 		.4byte	.LVL53
 5624 02f9 0400     		.2byte	0x4
 5625 02fb F3       		.byte	0xf3
 5626 02fc 01       		.uleb128 0x1
 5627 02fd 51       		.byte	0x51
 5628 02fe 9F       		.byte	0x9f
 5629 02ff 30010000 		.4byte	.LVL53
 5630 0303 32010000 		.4byte	.LVL54
 5631 0307 0100     		.2byte	0x1
 5632 0309 51       		.byte	0x51
 5633 030a 32010000 		.4byte	.LVL54
 5634 030e 50010000 		.4byte	.LVL55
 5635 0312 0400     		.2byte	0x4
 5636 0314 F3       		.byte	0xf3
 5637 0315 01       		.uleb128 0x1
 5638 0316 51       		.byte	0x51
 5639 0317 9F       		.byte	0x9f
 5640 0318 50010000 		.4byte	.LVL55
 5641 031c 54010000 		.4byte	.LVL56
 5642 0320 0100     		.2byte	0x1
 5643 0322 51       		.byte	0x51
 5644 0323 54010000 		.4byte	.LVL56
 5645 0327 7E010000 		.4byte	.LVL57
ARM GAS  C:\Users\ZHANGM~1\AppData\Local\Temp\ccWWGwEp.s 			page 131


 5646 032b 0400     		.2byte	0x4
 5647 032d F3       		.byte	0xf3
 5648 032e 01       		.uleb128 0x1
 5649 032f 51       		.byte	0x51
 5650 0330 9F       		.byte	0x9f
 5651 0331 7E010000 		.4byte	.LVL57
 5652 0335 86010000 		.4byte	.LVL58
 5653 0339 0100     		.2byte	0x1
 5654 033b 51       		.byte	0x51
 5655 033c 86010000 		.4byte	.LVL58
 5656 0340 B0010000 		.4byte	.LFE35
 5657 0344 0400     		.2byte	0x4
 5658 0346 F3       		.byte	0xf3
 5659 0347 01       		.uleb128 0x1
 5660 0348 51       		.byte	0x51
 5661 0349 9F       		.byte	0x9f
 5662 034a 00000000 		.4byte	0
 5663 034e 00000000 		.4byte	0
 5664              	.LLST10:
 5665 0352 00000000 		.4byte	.LFB37
 5666 0356 02000000 		.4byte	.LCFI3
 5667 035a 0200     		.2byte	0x2
 5668 035c 7D       		.byte	0x7d
 5669 035d 00       		.sleb128 0
 5670 035e 02000000 		.4byte	.LCFI3
 5671 0362 68000000 		.4byte	.LFE37
 5672 0366 0200     		.2byte	0x2
 5673 0368 7D       		.byte	0x7d
 5674 0369 10       		.sleb128 16
 5675 036a 00000000 		.4byte	0
 5676 036e 00000000 		.4byte	0
 5677              	.LLST11:
 5678 0372 00000000 		.4byte	.LVL59
 5679 0376 13000000 		.4byte	.LVL61-1
 5680 037a 0100     		.2byte	0x1
 5681 037c 50       		.byte	0x50
 5682 037d 13000000 		.4byte	.LVL61-1
 5683 0381 68000000 		.4byte	.LFE37
 5684 0385 0400     		.2byte	0x4
 5685 0387 F3       		.byte	0xf3
 5686 0388 01       		.uleb128 0x1
 5687 0389 50       		.byte	0x50
 5688 038a 9F       		.byte	0x9f
 5689 038b 00000000 		.4byte	0
 5690 038f 00000000 		.4byte	0
 5691              	.LLST12:
 5692 0393 0E000000 		.4byte	.LVL60
 5693 0397 13000000 		.4byte	.LVL61-1
 5694 039b 0500     		.2byte	0x5
 5695 039d 70       		.byte	0x70
 5696 039e 00       		.sleb128 0
 5697 039f 3A       		.byte	0x3a
 5698 03a0 1D       		.byte	0x1d
 5699 03a1 9F       		.byte	0x9f
 5700 03a2 13000000 		.4byte	.LVL61-1
 5701 03a6 26000000 		.4byte	.LVL65
 5702 03aa 0500     		.2byte	0x5
ARM GAS  C:\Users\ZHANGM~1\AppData\Local\Temp\ccWWGwEp.s 			page 132


 5703 03ac 74       		.byte	0x74
 5704 03ad 00       		.sleb128 0
 5705 03ae 3A       		.byte	0x3a
 5706 03af 1D       		.byte	0x1d
 5707 03b0 9F       		.byte	0x9f
 5708 03b1 26000000 		.4byte	.LVL65
 5709 03b5 40000000 		.4byte	.LVL70
 5710 03b9 0500     		.2byte	0x5
 5711 03bb 75       		.byte	0x75
 5712 03bc 00       		.sleb128 0
 5713 03bd 3A       		.byte	0x3a
 5714 03be 1D       		.byte	0x1d
 5715 03bf 9F       		.byte	0x9f
 5716 03c0 40000000 		.4byte	.LVL70
 5717 03c4 50000000 		.4byte	.LVL72
 5718 03c8 0500     		.2byte	0x5
 5719 03ca 74       		.byte	0x74
 5720 03cb 00       		.sleb128 0
 5721 03cc 3A       		.byte	0x3a
 5722 03cd 1D       		.byte	0x1d
 5723 03ce 9F       		.byte	0x9f
 5724 03cf 50000000 		.4byte	.LVL72
 5725 03d3 60000000 		.4byte	.LVL75
 5726 03d7 0B00     		.2byte	0xb
 5727 03d9 74       		.byte	0x74
 5728 03da 00       		.sleb128 0
 5729 03db F7       		.byte	0xf7
 5730 03dc 29       		.uleb128 0x29
 5731 03dd 3A       		.byte	0x3a
 5732 03de F7       		.byte	0xf7
 5733 03df 29       		.uleb128 0x29
 5734 03e0 1B       		.byte	0x1b
 5735 03e1 F7       		.byte	0xf7
 5736 03e2 00       		.uleb128 0
 5737 03e3 9F       		.byte	0x9f
 5738 03e4 00000000 		.4byte	0
 5739 03e8 00000000 		.4byte	0
 5740              	.LLST13:
 5741 03ec 00000000 		.4byte	.LVL59
 5742 03f0 13000000 		.4byte	.LVL61-1
 5743 03f4 0100     		.2byte	0x1
 5744 03f6 50       		.byte	0x50
 5745 03f7 13000000 		.4byte	.LVL61-1
 5746 03fb 18000000 		.4byte	.LVL62
 5747 03ff 0100     		.2byte	0x1
 5748 0401 54       		.byte	0x54
 5749 0402 18000000 		.4byte	.LVL62
 5750 0406 1A000000 		.4byte	.LVL63
 5751 040a 0100     		.2byte	0x1
 5752 040c 50       		.byte	0x50
 5753 040d 1A000000 		.4byte	.LVL63
 5754 0411 32000000 		.4byte	.LVL67
 5755 0415 0100     		.2byte	0x1
 5756 0417 55       		.byte	0x55
 5757 0418 32000000 		.4byte	.LVL67
 5758 041c 34000000 		.4byte	.LVL68
 5759 0420 0100     		.2byte	0x1
ARM GAS  C:\Users\ZHANGM~1\AppData\Local\Temp\ccWWGwEp.s 			page 133


 5760 0422 50       		.byte	0x50
 5761 0423 34000000 		.4byte	.LVL68
 5762 0427 40000000 		.4byte	.LVL70
 5763 042b 0100     		.2byte	0x1
 5764 042d 54       		.byte	0x54
 5765 042e 40000000 		.4byte	.LVL70
 5766 0432 60000000 		.4byte	.LVL75
 5767 0436 0B00     		.2byte	0xb
 5768 0438 74       		.byte	0x74
 5769 0439 00       		.sleb128 0
 5770 043a F7       		.byte	0xf7
 5771 043b 29       		.uleb128 0x29
 5772 043c 3A       		.byte	0x3a
 5773 043d F7       		.byte	0xf7
 5774 043e 29       		.uleb128 0x29
 5775 043f 1B       		.byte	0x1b
 5776 0440 F7       		.byte	0xf7
 5777 0441 00       		.uleb128 0
 5778 0442 9F       		.byte	0x9f
 5779 0443 00000000 		.4byte	0
 5780 0447 00000000 		.4byte	0
 5781              	.LLST14:
 5782 044b 00000000 		.4byte	.LFB36
 5783 044f 02000000 		.4byte	.LCFI4
 5784 0453 0200     		.2byte	0x2
 5785 0455 7D       		.byte	0x7d
 5786 0456 00       		.sleb128 0
 5787 0457 02000000 		.4byte	.LCFI4
 5788 045b 0A000000 		.4byte	.LCFI5
 5789 045f 0200     		.2byte	0x2
 5790 0461 7D       		.byte	0x7d
 5791 0462 14       		.sleb128 20
 5792 0463 0A000000 		.4byte	.LCFI5
 5793 0467 C8050000 		.4byte	.LFE36
 5794 046b 0200     		.2byte	0x2
 5795 046d 7D       		.byte	0x7d
 5796 046e 28       		.sleb128 40
 5797 046f 00000000 		.4byte	0
 5798 0473 00000000 		.4byte	0
 5799              	.LLST15:
 5800 0477 00000000 		.4byte	.LFB38
 5801 047b 02000000 		.4byte	.LCFI6
 5802 047f 0200     		.2byte	0x2
 5803 0481 7D       		.byte	0x7d
 5804 0482 00       		.sleb128 0
 5805 0483 02000000 		.4byte	.LCFI6
 5806 0487 DC020000 		.4byte	.LFE38
 5807 048b 0200     		.2byte	0x2
 5808 048d 7D       		.byte	0x7d
 5809 048e 10       		.sleb128 16
 5810 048f 00000000 		.4byte	0
 5811 0493 00000000 		.4byte	0
 5812              	.LLST16:
 5813 0497 00000000 		.4byte	.LVL97
 5814 049b 0A000000 		.4byte	.LVL98
 5815 049f 0200     		.2byte	0x2
 5816 04a1 30       		.byte	0x30
ARM GAS  C:\Users\ZHANGM~1\AppData\Local\Temp\ccWWGwEp.s 			page 134


 5817 04a2 9F       		.byte	0x9f
 5818 04a3 0A000000 		.4byte	.LVL98
 5819 04a7 0C000000 		.4byte	.LVL99
 5820 04ab 0200     		.2byte	0x2
 5821 04ad 31       		.byte	0x31
 5822 04ae 9F       		.byte	0x9f
 5823 04af 0C000000 		.4byte	.LVL99
 5824 04b3 0E000000 		.4byte	.LVL100
 5825 04b7 0200     		.2byte	0x2
 5826 04b9 32       		.byte	0x32
 5827 04ba 9F       		.byte	0x9f
 5828 04bb 0E000000 		.4byte	.LVL100
 5829 04bf 10000000 		.4byte	.LVL101
 5830 04c3 0200     		.2byte	0x2
 5831 04c5 33       		.byte	0x33
 5832 04c6 9F       		.byte	0x9f
 5833 04c7 10000000 		.4byte	.LVL101
 5834 04cb 12000000 		.4byte	.LVL102
 5835 04cf 0200     		.2byte	0x2
 5836 04d1 34       		.byte	0x34
 5837 04d2 9F       		.byte	0x9f
 5838 04d3 12000000 		.4byte	.LVL102
 5839 04d7 14000000 		.4byte	.LVL103
 5840 04db 0200     		.2byte	0x2
 5841 04dd 35       		.byte	0x35
 5842 04de 9F       		.byte	0x9f
 5843 04df 14000000 		.4byte	.LVL103
 5844 04e3 16000000 		.4byte	.LVL104
 5845 04e7 0200     		.2byte	0x2
 5846 04e9 36       		.byte	0x36
 5847 04ea 9F       		.byte	0x9f
 5848 04eb 16000000 		.4byte	.LVL104
 5849 04ef 2C000000 		.4byte	.LFE39
 5850 04f3 0200     		.2byte	0x2
 5851 04f5 37       		.byte	0x37
 5852 04f6 9F       		.byte	0x9f
 5853 04f7 00000000 		.4byte	0
 5854 04fb 00000000 		.4byte	0
 5855              	.LLST17:
 5856 04ff 00000000 		.4byte	.LFB40
 5857 0503 02000000 		.4byte	.LCFI7
 5858 0507 0200     		.2byte	0x2
 5859 0509 7D       		.byte	0x7d
 5860 050a 00       		.sleb128 0
 5861 050b 02000000 		.4byte	.LCFI7
 5862 050f 94000000 		.4byte	.LFE40
 5863 0513 0200     		.2byte	0x2
 5864 0515 7D       		.byte	0x7d
 5865 0516 10       		.sleb128 16
 5866 0517 00000000 		.4byte	0
 5867 051b 00000000 		.4byte	0
 5868              		.section	.debug_aranges,"",%progbits
 5869 0000 54000000 		.4byte	0x54
 5870 0004 0200     		.2byte	0x2
 5871 0006 00000000 		.4byte	.Ldebug_info0
 5872 000a 04       		.byte	0x4
 5873 000b 00       		.byte	0
ARM GAS  C:\Users\ZHANGM~1\AppData\Local\Temp\ccWWGwEp.s 			page 135


 5874 000c 0000     		.2byte	0
 5875 000e 0000     		.2byte	0
 5876 0010 00000000 		.4byte	.LFB33
 5877 0014 34000000 		.4byte	.LFE33-.LFB33
 5878 0018 00000000 		.4byte	.LFB34
 5879 001c B0010000 		.4byte	.LFE34-.LFB34
 5880 0020 00000000 		.4byte	.LFB35
 5881 0024 B0010000 		.4byte	.LFE35-.LFB35
 5882 0028 00000000 		.4byte	.LFB37
 5883 002c 68000000 		.4byte	.LFE37-.LFB37
 5884 0030 00000000 		.4byte	.LFB36
 5885 0034 C8050000 		.4byte	.LFE36-.LFB36
 5886 0038 00000000 		.4byte	.LFB38
 5887 003c DC020000 		.4byte	.LFE38-.LFB38
 5888 0040 00000000 		.4byte	.LFB39
 5889 0044 2C000000 		.4byte	.LFE39-.LFB39
 5890 0048 00000000 		.4byte	.LFB40
 5891 004c 94000000 		.4byte	.LFE40-.LFB40
 5892 0050 00000000 		.4byte	0
 5893 0054 00000000 		.4byte	0
 5894              		.section	.debug_ranges,"",%progbits
 5895              	.Ldebug_ranges0:
 5896 0000 00000000 		.4byte	.LFB33
 5897 0004 34000000 		.4byte	.LFE33
 5898 0008 00000000 		.4byte	.LFB34
 5899 000c B0010000 		.4byte	.LFE34
 5900 0010 00000000 		.4byte	.LFB35
 5901 0014 B0010000 		.4byte	.LFE35
 5902 0018 00000000 		.4byte	.LFB37
 5903 001c 68000000 		.4byte	.LFE37
 5904 0020 00000000 		.4byte	.LFB36
 5905 0024 C8050000 		.4byte	.LFE36
 5906 0028 00000000 		.4byte	.LFB38
 5907 002c DC020000 		.4byte	.LFE38
 5908 0030 00000000 		.4byte	.LFB39
 5909 0034 2C000000 		.4byte	.LFE39
 5910 0038 00000000 		.4byte	.LFB40
 5911 003c 94000000 		.4byte	.LFE40
 5912 0040 00000000 		.4byte	0
 5913 0044 00000000 		.4byte	0
 5914              		.section	.debug_line,"",%progbits
 5915              	.Ldebug_line0:
 5916 0000 B0040000 		.section	.debug_str,"MS",%progbits,1
 5916      0200A500 
 5916      00000201 
 5916      FB0E0D00 
 5916      01010101 
 5917              	.LASF120:
 5918 0000 4D506572 		.ascii	"MPercent\000"
 5918      63656E74 
 5918      00
 5919              	.LASF56:
 5920 0009 4572726F 		.ascii	"Error_08_flag\000"
 5920      725F3038 
 5920      5F666C61 
 5920      6700
 5921              	.LASF67:
ARM GAS  C:\Users\ZHANGM~1\AppData\Local\Temp\ccWWGwEp.s 			page 136


 5922 0017 73666C61 		.ascii	"sflash\000"
 5922      736800
 5923              	.LASF103:
 5924 001e 4572726F 		.ascii	"Error_Data\000"
 5924      725F4461 
 5924      746100
 5925              	.LASF26:
 5926 0029 77696669 		.ascii	"wifilinksta\000"
 5926      6C696E6B 
 5926      73746100 
 5927              	.LASF35:
 5928 0035 73646279 		.ascii	"sdby\000"
 5928      00
 5929              	.LASF51:
 5930 003a 4572726F 		.ascii	"Error_03_flag\000"
 5930      725F3033 
 5930      5F666C61 
 5930      6700
 5931              	.LASF57:
 5932 0048 776F726B 		.ascii	"working\000"
 5932      696E6700 
 5933              	.LASF93:
 5934 0050 6C707531 		.ascii	"lpu1\000"
 5934      00
 5935              	.LASF94:
 5936 0055 6C707532 		.ascii	"lpu2\000"
 5936      00
 5937              	.LASF76:
 5938 005a 776F726B 		.ascii	"workingsignflash\000"
 5938      696E6773 
 5938      69676E66 
 5938      6C617368 
 5938      00
 5939              	.LASF64:
 5940 006b 636C6561 		.ascii	"cleaningsign\000"
 5940      6E696E67 
 5940      7369676E 
 5940      00
 5941              	.LASF123:
 5942 0078 53746146 		.ascii	"StaFlashCnt\000"
 5942      6C617368 
 5942      436E7400 
 5943              	.LASF91:
 5944 0084 64697370 		.ascii	"display8888\000"
 5944      6C617938 
 5944      38383800 
 5945              	.LASF0:
 5946 0090 756E7369 		.ascii	"unsigned int\000"
 5946      676E6564 
 5946      20696E74 
 5946      00
 5947              	.LASF19:
 5948 009d 71757975 		.ascii	"quyuxzsta\000"
 5948      787A7374 
 5948      6100
 5949              	.LASF70:
 5950 00a7 6B666C61 		.ascii	"kflash\000"
ARM GAS  C:\Users\ZHANGM~1\AppData\Local\Temp\ccWWGwEp.s 			page 137


 5950      736800
 5951              	.LASF60:
 5952 00ae 6F75746F 		.ascii	"outofwatersign\000"
 5952      66776174 
 5952      65727369 
 5952      676E00
 5953              	.LASF87:
 5954 00bd 53313634 		.ascii	"S164_Trans_abyte\000"
 5954      5F547261 
 5954      6E735F61 
 5954      62797465 
 5954      00
 5955              	.LASF110:
 5956 00ce 44696769 		.ascii	"DigitalBuf\000"
 5956      74616C42 
 5956      756600
 5957              	.LASF78:
 5958 00d9 636C6561 		.ascii	"cleaningsignflash\000"
 5958      6E696E67 
 5958      7369676E 
 5958      666C6173 
 5958      6800
 5959              	.LASF75:
 5960 00eb 77696669 		.ascii	"wifilinkingsignflash\000"
 5960      6C696E6B 
 5960      696E6773 
 5960      69676E66 
 5960      6C617368 
 5961              	.LASF18:
 5962 0100 6A697368 		.ascii	"jishi\000"
 5962      6900
 5963              	.LASF15:
 5964 0106 6572726F 		.ascii	"error\000"
 5964      7200
 5965              	.LASF84:
 5966 010c 6C6C7678 		.ascii	"llvxinflash\000"
 5966      696E666C 
 5966      61736800 
 5967              	.LASF111:
 5968 0118 53506572 		.ascii	"SPercent\000"
 5968      63656E74 
 5968      00
 5969              	.LASF44:
 5970 0121 75617274 		.ascii	"uart_1_tx\000"
 5970      5F315F74 
 5970      7800
 5971              	.LASF137:
 5972 012b 50574D5F 		.ascii	"PWM_Start\000"
 5972      53746172 
 5972      7400
 5973              	.LASF42:
 5974 0135 67796675 		.ascii	"gyfull\000"
 5974      6C6C00
 5975              	.LASF106:
 5976 013c 56616C75 		.ascii	"Value_Tds1\000"
 5976      655F5464 
 5976      733100
ARM GAS  C:\Users\ZHANGM~1\AppData\Local\Temp\ccWWGwEp.s 			page 138


 5977              	.LASF25:
 5978 0147 74647331 		.ascii	"tds1sta\000"
 5978      73746100 
 5979              	.LASF53:
 5980 014f 4572726F 		.ascii	"Error_05_flag\000"
 5980      725F3035 
 5980      5F666C61 
 5980      6700
 5981              	.LASF61:
 5982 015d 736F7574 		.ascii	"south\000"
 5982      6800
 5983              	.LASF48:
 5984 0163 4572726F 		.ascii	"Error_00_flag\000"
 5984      725F3030 
 5984      5F666C61 
 5984      6700
 5985              	.LASF98:
 5986 0171 4C65645F 		.ascii	"Led_Pannel_Display\000"
 5986      50616E6E 
 5986      656C5F44 
 5986      6973706C 
 5986      617900
 5987              	.LASF11:
 5988 0184 666C6F61 		.ascii	"float\000"
 5988      7400
 5989              	.LASF16:
 5990 018a 6E6F7761 		.ascii	"nowater\000"
 5990      74657200 
 5991              	.LASF58:
 5992 0192 776F726B 		.ascii	"workingsign\000"
 5992      696E6773 
 5992      69676E00 
 5993              	.LASF22:
 5994 019e 73686F75 		.ascii	"shoudongbystabak\000"
 5994      646F6E67 
 5994      62797374 
 5994      6162616B 
 5994      00
 5995              	.LASF117:
 5996 01af 4B446174 		.ascii	"KData\000"
 5996      6100
 5997              	.LASF130:
 5998 01b5 4C656450 		.ascii	"LedPannelCnt\000"
 5998      616E6E65 
 5998      6C436E74 
 5998      00
 5999              	.LASF133:
 6000 01c2 43794465 		.ascii	"CyDelayUs\000"
 6000      6C617955 
 6000      7300
 6001              	.LASF20:
 6002 01cc 6C767869 		.ascii	"lvxingxzsta\000"
 6002      6E67787A 
 6002      73746100 
 6003              	.LASF8:
 6004 01d8 6C6F6E67 		.ascii	"long long unsigned int\000"
 6004      206C6F6E 
ARM GAS  C:\Users\ZHANGM~1\AppData\Local\Temp\ccWWGwEp.s 			page 139


 6004      6720756E 
 6004      7369676E 
 6004      65642069 
 6005              	.LASF95:
 6006 01ef 4C65645F 		.ascii	"Led_Pannel_Updata\000"
 6006      50616E6E 
 6006      656C5F55 
 6006      70646174 
 6006      6100
 6007              	.LASF116:
 6008 0201 4B506572 		.ascii	"KPercent\000"
 6008      63656E74 
 6008      00
 6009              	.LASF104:
 6010 020a 6A696E67 		.ascii	"jingshuiliang\000"
 6010      73687569 
 6010      6C69616E 
 6010      6700
 6011              	.LASF88:
 6012 0218 4C65645F 		.ascii	"Led_Digital_Trans\000"
 6012      44696769 
 6012      74616C5F 
 6012      5472616E 
 6012      7300
 6013              	.LASF90:
 6014 022a 79616E73 		.ascii	"yanshi_Digital_Trans\000"
 6014      68695F44 
 6014      69676974 
 6014      616C5F54 
 6014      72616E73 
 6015              	.LASF17:
 6016 023f 73746F70 		.ascii	"stopzs\000"
 6016      7A7300
 6017              	.LASF41:
 6018 0246 7A686973 		.ascii	"zhishui\000"
 6018      68756900 
 6019              	.LASF113:
 6020 024e 48446174 		.ascii	"HData\000"
 6020      6100
 6021              	.LASF131:
 6022 0254 48434C4B 		.ascii	"HCLK_Write\000"
 6022      5F577269 
 6022      746500
 6023              	.LASF40:
 6024 025f 7A69646F 		.ascii	"zidongbysta\000"
 6024      6E676279 
 6024      73746100 
 6025              	.LASF34:
 6026 026b 6C786677 		.ascii	"lxfw\000"
 6026      00
 6027              	.LASF46:
 6028 0270 7464735F 		.ascii	"tds_01_disp\000"
 6028      30315F64 
 6028      69737000 
 6029              	.LASF107:
 6030 027c 4C656450 		.ascii	"LedPannelBuf\000"
 6030      616E6E65 
ARM GAS  C:\Users\ZHANGM~1\AppData\Local\Temp\ccWWGwEp.s 			page 140


 6030      6C427566 
 6030      00
 6031              	.LASF65:
 6032 0289 6572726F 		.ascii	"errorsign\000"
 6032      72736967 
 6032      6E00
 6033              	.LASF101:
 6034 0293 576F726B 		.ascii	"WorkFlag\000"
 6034      466C6167 
 6034      00
 6035              	.LASF32:
 6036 029c 66617374 		.ascii	"fastfig\000"
 6036      66696700 
 6037              	.LASF55:
 6038 02a4 4572726F 		.ascii	"Error_07_flag\000"
 6038      725F3037 
 6038      5F666C61 
 6038      6700
 6039              	.LASF63:
 6040 02b2 636C6561 		.ascii	"cleaning\000"
 6040      6E696E67 
 6040      00
 6041              	.LASF125:
 6042 02bb 74656D70 		.ascii	"temph\000"
 6042      6800
 6043              	.LASF69:
 6044 02c1 6A666C61 		.ascii	"jflash\000"
 6044      736800
 6045              	.LASF127:
 6046 02c8 74656D70 		.ascii	"tempk\000"
 6046      6B00
 6047              	.LASF128:
 6048 02ce 74656D70 		.ascii	"templ\000"
 6048      6C00
 6049              	.LASF129:
 6050 02d4 74656D70 		.ascii	"tempm\000"
 6050      6D00
 6051              	.LASF124:
 6052 02da 74656D70 		.ascii	"temps\000"
 6052      7300
 6053              	.LASF50:
 6054 02e0 4572726F 		.ascii	"Error_02_flag\000"
 6054      725F3032 
 6054      5F666C61 
 6054      6700
 6055              	.LASF72:
 6056 02ee 6D666C61 		.ascii	"mflash\000"
 6056      736800
 6057              	.LASF83:
 6058 02f5 6B6C7678 		.ascii	"klvxinflash\000"
 6058      696E666C 
 6058      61736800 
 6059              	.LASF47:
 6060 0301 77617465 		.ascii	"water_consumption_02_disp\000"
 6060      725F636F 
 6060      6E73756D 
 6060      7074696F 
ARM GAS  C:\Users\ZHANGM~1\AppData\Local\Temp\ccWWGwEp.s 			page 141


 6060      6E5F3032 
 6061              	.LASF13:
 6062 031b 63686172 		.ascii	"char\000"
 6062      00
 6063              	.LASF132:
 6064 0320 48534441 		.ascii	"HSDA_Write\000"
 6064      5F577269 
 6064      746500
 6065              	.LASF10:
 6066 032b 75696E74 		.ascii	"uint16\000"
 6066      313600
 6067              	.LASF30:
 6068 0332 706F7765 		.ascii	"poweroff\000"
 6068      726F6666 
 6068      00
 6069              	.LASF33:
 6070 033b 6C78787A 		.ascii	"lxxz\000"
 6070      00
 6071              	.LASF68:
 6072 0340 68666C61 		.ascii	"hflash\000"
 6072      736800
 6073              	.LASF7:
 6074 0347 6C6F6E67 		.ascii	"long long int\000"
 6074      206C6F6E 
 6074      6720696E 
 6074      7400
 6075              	.LASF29:
 6076 0355 706F7765 		.ascii	"poweron\000"
 6076      726F6E00 
 6077              	.LASF96:
 6078 035d 79616E73 		.ascii	"yanshidisplay\000"
 6078      68696469 
 6078      73706C61 
 6078      7900
 6079              	.LASF82:
 6080 036b 6A6C7678 		.ascii	"jlvxinflash\000"
 6080      696E666C 
 6080      61736800 
 6081              	.LASF66:
 6082 0377 6A736C6C 		.ascii	"jsll\000"
 6082      00
 6083              	.LASF112:
 6084 037c 48506572 		.ascii	"HPercent\000"
 6084      63656E74 
 6084      00
 6085              	.LASF102:
 6086 0385 576F726B 		.ascii	"WorkFlag01\000"
 6086      466C6167 
 6086      303100
 6087              	.LASF52:
 6088 0390 4572726F 		.ascii	"Error_04_flag\000"
 6088      725F3034 
 6088      5F666C61 
 6088      6700
 6089              	.LASF92:
 6090 039e 56616C75 		.ascii	"Value\000"
 6090      6500
ARM GAS  C:\Users\ZHANGM~1\AppData\Local\Temp\ccWWGwEp.s 			page 142


 6091              	.LASF36:
 6092 03a4 6C78787A 		.ascii	"lxxzwf\000"
 6092      776600
 6093              	.LASF43:
 6094 03ab 75617274 		.ascii	"uart_0_tx\000"
 6094      5F305F74 
 6094      7800
 6095              	.LASF115:
 6096 03b5 4A446174 		.ascii	"JData\000"
 6096      6100
 6097              	.LASF62:
 6098 03bb 6E6F7274 		.ascii	"north\000"
 6098      6800
 6099              	.LASF23:
 6100 03c1 79616E73 		.ascii	"yanshista\000"
 6100      68697374 
 6100      6100
 6101              	.LASF122:
 6102 03cb 44697346 		.ascii	"DisFlag\000"
 6102      6C616700 
 6103              	.LASF24:
 6104 03d3 74647330 		.ascii	"tds0sta\000"
 6104      73746100 
 6105              	.LASF97:
 6106 03db 4C65645F 		.ascii	"Led_Pannel_Initial\000"
 6106      50616E6E 
 6106      656C5F49 
 6106      6E697469 
 6106      616C00
 6107              	.LASF39:
 6108 03ee 73686F75 		.ascii	"shoucibysta\000"
 6108      63696279 
 6108      73746100 
 6109              	.LASF118:
 6110 03fa 4C506572 		.ascii	"LPercent\000"
 6110      63656E74 
 6110      00
 6111              	.LASF99:
 6112 0403 65726F6F 		.ascii	"eroorcnt\000"
 6112      72636E74 
 6112      00
 6113              	.LASF45:
 6114 040c 7464735F 		.ascii	"tds_00_disp\000"
 6114      30305F64 
 6114      69737000 
 6115              	.LASF138:
 6116 0418 434F4D4E 		.ascii	"COMN_Write\000"
 6116      5F577269 
 6116      746500
 6117              	.LASF109:
 6118 0423 74656D70 		.ascii	"templvxin\000"
 6118      6C767869 
 6118      6E00
 6119              	.LASF105:
 6120 042d 56616C75 		.ascii	"Value_Tds0\000"
 6120      655F5464 
 6120      733000
ARM GAS  C:\Users\ZHANGM~1\AppData\Local\Temp\ccWWGwEp.s 			page 143


 6121              	.LASF86:
 6122 0438 666C6173 		.ascii	"flashsta\000"
 6122      68737461 
 6122      00
 6123              	.LASF79:
 6124 0441 6572726F 		.ascii	"errorsignflash\000"
 6124      72736967 
 6124      6E666C61 
 6124      736800
 6125              	.LASF121:
 6126 0450 466C6173 		.ascii	"FlashCnt\000"
 6126      68436E74 
 6126      00
 6127              	.LASF28:
 6128 0459 6B756169 		.ascii	"kuaijiansta\000"
 6128      6A69616E 
 6128      73746100 
 6129              	.LASF3:
 6130 0465 73686F72 		.ascii	"short int\000"
 6130      7420696E 
 6130      7400
 6131              	.LASF5:
 6132 046f 6C6F6E67 		.ascii	"long int\000"
 6132      20696E74 
 6132      00
 6133              	.LASF108:
 6134 0478 74656D70 		.ascii	"temp\000"
 6134      00
 6135              	.LASF136:
 6136 047d 453A5C63 		.ascii	"E:\\code\\wifi\\1.6\\UartBootloader\\UART_Bootloade"
 6136      6F64655C 
 6136      77696669 
 6136      5C312E36 
 6136      5C556172 
 6137 04ab 725C5541 		.ascii	"r\\UART_Bootloadable.cydsn\000"
 6137      52545F42 
 6137      6F6F746C 
 6137      6F616461 
 6137      626C652E 
 6138              	.LASF49:
 6139 04c5 4572726F 		.ascii	"Error_01_flag\000"
 6139      725F3031 
 6139      5F666C61 
 6139      6700
 6140              	.LASF71:
 6141 04d3 6C666C61 		.ascii	"lflash\000"
 6141      736800
 6142              	.LASF38:
 6143 04da 7A696A69 		.ascii	"zijiansta\000"
 6143      616E7374 
 6143      6100
 6144              	.LASF14:
 6145 04e4 73697A65 		.ascii	"sizetype\000"
 6145      74797065 
 6145      00
 6146              	.LASF6:
 6147 04ed 6C6F6E67 		.ascii	"long unsigned int\000"
ARM GAS  C:\Users\ZHANGM~1\AppData\Local\Temp\ccWWGwEp.s 			page 144


 6147      20756E73 
 6147      69676E65 
 6147      6420696E 
 6147      7400
 6148              	.LASF37:
 6149 04ff 77696669 		.ascii	"wifiset\000"
 6149      73657400 
 6150              	.LASF2:
 6151 0507 756E7369 		.ascii	"unsigned char\000"
 6151      676E6564 
 6151      20636861 
 6151      7200
 6152              	.LASF54:
 6153 0515 4572726F 		.ascii	"Error_06_flag\000"
 6153      725F3036 
 6153      5F666C61 
 6153      6700
 6154              	.LASF100:
 6155 0523 7A696A69 		.ascii	"zijiandisplayfig\000"
 6155      616E6469 
 6155      73706C61 
 6155      79666967 
 6155      00
 6156              	.LASF21:
 6157 0534 73686F75 		.ascii	"shoudongbysta\000"
 6157      646F6E67 
 6157      62797374 
 6157      6100
 6158              	.LASF59:
 6159 0542 6F75746F 		.ascii	"outofwater\000"
 6159      66776174 
 6159      657200
 6160              	.LASF114:
 6161 054d 4A506572 		.ascii	"JPercent\000"
 6161      63656E74 
 6161      00
 6162              	.LASF31:
 6163 0556 7374616E 		.ascii	"standbysta\000"
 6163      64627973 
 6163      746100
 6164              	.LASF119:
 6165 0561 4C446174 		.ascii	"LData\000"
 6165      6100
 6166              	.LASF77:
 6167 0567 6F75746F 		.ascii	"outofwatersignflash\000"
 6167      66776174 
 6167      65727369 
 6167      676E666C 
 6167      61736800 
 6168              	.LASF1:
 6169 057b 7369676E 		.ascii	"signed char\000"
 6169      65642063 
 6169      68617200 
 6170              	.LASF81:
 6171 0587 686C7678 		.ascii	"hlvxinflash\000"
 6171      696E666C 
 6171      61736800 
ARM GAS  C:\Users\ZHANGM~1\AppData\Local\Temp\ccWWGwEp.s 			page 145


 6172              	.LASF4:
 6173 0593 73686F72 		.ascii	"short unsigned int\000"
 6173      7420756E 
 6173      7369676E 
 6173      65642069 
 6173      6E7400
 6174              	.LASF74:
 6175 05a6 77696669 		.ascii	"wifilinkingsign\000"
 6175      6C696E6B 
 6175      696E6773 
 6175      69676E00 
 6176              	.LASF134:
 6177 05b6 474E5520 		.ascii	"GNU C 4.7.3 20130312 (release) [ARM/embedded-4_7-br"
 6177      4320342E 
 6177      372E3320 
 6177      32303133 
 6177      30333132 
 6178 05e9 616E6368 		.ascii	"anch revision 196615]\000"
 6178      20726576 
 6178      6973696F 
 6178      6E203139 
 6178      36363135 
 6179              	.LASF135:
 6180 05ff 2E5C6469 		.ascii	".\\display.c\000"
 6180      73706C61 
 6180      792E6300 
 6181              	.LASF80:
 6182 060b 736C7678 		.ascii	"slvxinflash\000"
 6182      696E666C 
 6182      61736800 
 6183              	.LASF9:
 6184 0617 75696E74 		.ascii	"uint8\000"
 6184      3800
 6185              	.LASF12:
 6186 061d 646F7562 		.ascii	"double\000"
 6186      6C6500
 6187              	.LASF73:
 6188 0624 77696669 		.ascii	"wifierror\000"
 6188      6572726F 
 6188      7200
 6189              	.LASF89:
 6190 062e 64646174 		.ascii	"ddata\000"
 6190      6100
 6191              	.LASF126:
 6192 0634 74656D70 		.ascii	"tempj\000"
 6192      6A00
 6193              	.LASF27:
 6194 063a 616C6C77 		.ascii	"allwatersta\000"
 6194      61746572 
 6194      73746100 
 6195              	.LASF85:
 6196 0646 6D6C7678 		.ascii	"mlvxinflash\000"
 6196      696E666C 
 6196      61736800 
 6197              		.ident	"GCC: (GNU Tools for ARM Embedded Processors) 4.7.3 20130312 (release) [ARM/embedded-4_7-br
