ARM GAS  C:\Users\ZHANGM~1\AppData\Local\Temp\ccWWGwEp.s 			page 1


   1              		.cpu cortex-m0
   2              		.fpu softvfp
   3              		.eabi_attribute 20, 1
   4              		.eabi_attribute 21, 1
   5              		.eabi_attribute 23, 3
   6              		.eabi_attribute 24, 1
   7              		.eabi_attribute 25, 1
   8              		.eabi_attribute 26, 1
   9              		.eabi_attribute 30, 4
  10              		.eabi_attribute 34, 0
  11              		.eabi_attribute 18, 4
  12              		.code	16
  13              		.file	"display.c"
  14              		.text
  15              	.Ltext0:
  16              		.cfi_sections	.debug_frame
  17              		.section	.text.S164_Trans_abyte,"ax",%progbits
  18              		.align	1
  19              		.global	S164_Trans_abyte
  20              		.code	16
  21              		.thumb_func
  22              		.type	S164_Trans_abyte, %function
  23              	S164_Trans_abyte:
  24              	.LFB33:
  25              		.file 1 ".\\display.c"
   1:.\display.c   **** /* ========================================
   2:.\display.c   ****  *
   3:.\display.c   ****  * Copyright YOUR COMPANY, THE YEAR
   4:.\display.c   ****  * All Rights Reserved
   5:.\display.c   ****  * UNPUBLISHED, LICENSED SOFTWARE.
   6:.\display.c   ****  *
   7:.\display.c   ****  * CONFIDENTIAL AND PROPRIETARY INFORMATION
   8:.\display.c   ****  * WHICH IS THE PROPERTY OF your company.
   9:.\display.c   ****  *
  10:.\display.c   ****  * ========================================
  11:.\display.c   **** */
  12:.\display.c   **** #define _DISPLAY_
  13:.\display.c   **** #include "config.h"
  14:.\display.c   **** extern uint16 Load_Wifi_State (uint8 Sendding_Data );
  15:.\display.c   **** 
  16:.\display.c   **** /*****************************************************************\
  17:.\display.c   ****     74hs164
  18:.\display.c   **** \*****************************************************************/
  19:.\display.c   **** void S164_Trans_abyte(unsigned long ddata)
  20:.\display.c   **** {
  26              		.loc 1 20 0
  27              		.cfi_startproc
  28              	.LVL0:
  29 0000 70B5     		push	{r4, r5, r6, lr}
  30              	.LCFI0:
  31              		.cfi_def_cfa_offset 16
  32              		.cfi_offset 4, -16
  33              		.cfi_offset 5, -12
  34              		.cfi_offset 6, -8
  35              		.cfi_offset 14, -4
  36              		.loc 1 20 0
  37 0002 051C     		mov	r5, r0
ARM GAS  C:\Users\ZHANGM~1\AppData\Local\Temp\ccWWGwEp.s 			page 2


  21:.\display.c   ****     unsigned char k;
  22:.\display.c   ****     unsigned int tm;
  23:.\display.c   ****     
  24:.\display.c   ****     tm = ddata;
  38              		.loc 1 24 0
  39 0004 1824     		mov	r4, #24
  40              	.LVL1:
  41              	.L2:
  25:.\display.c   ****     
  26:.\display.c   ****     for(k=0;k<24;k++)
  27:.\display.c   ****     {
  28:.\display.c   ****         HCLK_Write(0);
  42              		.loc 1 28 0 discriminator 2
  43 0006 0020     		mov	r0, #0
  29:.\display.c   ****         
  30:.\display.c   ****         HSDA_Write(tm & 0x01);
  44              		.loc 1 30 0 discriminator 2
  45 0008 0126     		mov	r6, #1
  28:.\display.c   ****         HCLK_Write(0);
  46              		.loc 1 28 0 discriminator 2
  47 000a FFF7FEFF 		bl	HCLK_Write
  48              	.LVL2:
  49              		.loc 1 30 0 discriminator 2
  50 000e 281C     		mov	r0, r5
  51 0010 3040     		and	r0, r6
  52 0012 FFF7FEFF 		bl	HSDA_Write
  53              	.LVL3:
  31:.\display.c   ****         
  32:.\display.c   ****         CyDelayUs(2);
  54              		.loc 1 32 0 discriminator 2
  55 0016 0220     		mov	r0, #2
  56 0018 FFF7FEFF 		bl	CyDelayUs
  57              	.LVL4:
  58 001c 013C     		sub	r4, r4, #1
  33:.\display.c   ****         
  34:.\display.c   ****         HCLK_Write(1);
  59              		.loc 1 34 0 discriminator 2
  60 001e 301C     		mov	r0, r6
  61 0020 FFF7FEFF 		bl	HCLK_Write
  62              	.LVL5:
  63 0024 E4B2     		uxtb	r4, r4
  35:.\display.c   ****         
  36:.\display.c   ****         CyDelayUs(2);
  64              		.loc 1 36 0 discriminator 2
  65 0026 0220     		mov	r0, #2
  66 0028 FFF7FEFF 		bl	CyDelayUs
  67              	.LVL6:
  37:.\display.c   ****         
  38:.\display.c   ****         tm >>= 1;
  68              		.loc 1 38 0 discriminator 2
  69 002c F540     		lsr	r5, r5, r6
  70              	.LVL7:
  26:.\display.c   ****     for(k=0;k<24;k++)
  71              		.loc 1 26 0 discriminator 2
  72 002e 002C     		cmp	r4, #0
  73 0030 E9D1     		bne	.L2
  39:.\display.c   ****     }
ARM GAS  C:\Users\ZHANGM~1\AppData\Local\Temp\ccWWGwEp.s 			page 3


  40:.\display.c   ****     return;
  41:.\display.c   **** }
  74              		.loc 1 41 0
  75              		@ sp needed for prologue
  76              	.LVL8:
  77 0032 70BD     		pop	{r4, r5, r6, pc}
  78              		.cfi_endproc
  79              	.LFE33:
  80              		.size	S164_Trans_abyte, .-S164_Trans_abyte
  81              		.section	.text.Led_Digital_Trans,"ax",%progbits
  82              		.align	1
  83              		.global	Led_Digital_Trans
  84              		.code	16
  85              		.thumb_func
  86              		.type	Led_Digital_Trans, %function
  87              	Led_Digital_Trans:
  88              	.LFB34:
  42:.\display.c   **** 
  43:.\display.c   **** 
  44:.\display.c   **** /*****************************************************************\
  45:.\display.c   **** \*****************************************************************/
  46:.\display.c   **** void Led_Digital_Trans(unsigned char dig,unsigned char dt)
  47:.\display.c   **** {
  89              		.loc 1 47 0
  90              		.cfi_startproc
  91              	.LVL9:
  92 0000 10B5     		push	{r4, lr}
  93              	.LCFI1:
  94              		.cfi_def_cfa_offset 8
  95              		.cfi_offset 4, -8
  96              		.cfi_offset 14, -4
  97 0002 0124     		mov	r4, #1
  48:.\display.c   ****     switch(dt)
  49:.\display.c   ****     {
  50:.\display.c   ****         case 0:
  51:.\display.c   ****             LedPannelBuf[DIGACON] &= ~(0x00000001 << dig);
  52:.\display.c   ****             LedPannelBuf[DIGBCON] &= ~(0x00000001 << dig);
  53:.\display.c   ****             LedPannelBuf[DIGCCON] &= ~(0x00000001 << dig);
  54:.\display.c   ****             LedPannelBuf[DIGDCON] &= ~(0x00000001 << dig);
  55:.\display.c   ****             LedPannelBuf[DIGECON] &= ~(0x00000001 << dig);
  56:.\display.c   ****             LedPannelBuf[DIGFCON] &= ~(0x00000001 << dig);
  57:.\display.c   ****             LedPannelBuf[DIGGCON] |= (0x00000001 << dig);
  58:.\display.c   ****             break;
  59:.\display.c   ****         case 1:
  60:.\display.c   ****             LedPannelBuf[DIGACON] |= (0x00000001 << dig);
  61:.\display.c   ****             LedPannelBuf[DIGBCON] &= ~(0x00000001 << dig);
  62:.\display.c   ****             LedPannelBuf[DIGCCON] &= ~(0x00000001 << dig);
  63:.\display.c   ****             LedPannelBuf[DIGDCON] |= (0x00000001 << dig);
  64:.\display.c   ****             LedPannelBuf[DIGECON] |= (0x00000001 << dig);
  65:.\display.c   ****             LedPannelBuf[DIGFCON] |= (0x00000001 << dig);
  66:.\display.c   ****             LedPannelBuf[DIGGCON] |= (0x00000001 << dig);
  67:.\display.c   ****             break;
  68:.\display.c   ****         case 2:
  69:.\display.c   ****             LedPannelBuf[DIGACON] &= ~(0x00000001 << dig);
  70:.\display.c   ****             LedPannelBuf[DIGBCON] &= ~(0x00000001 << dig);
  71:.\display.c   ****             LedPannelBuf[DIGCCON] |= (0x00000001 << dig);
  72:.\display.c   ****             LedPannelBuf[DIGDCON] &= ~(0x00000001 << dig);
ARM GAS  C:\Users\ZHANGM~1\AppData\Local\Temp\ccWWGwEp.s 			page 4


  73:.\display.c   ****             LedPannelBuf[DIGECON] &= ~(0x00000001 << dig);
  74:.\display.c   ****             LedPannelBuf[DIGFCON] |= (0x00000001 << dig);
  75:.\display.c   ****             LedPannelBuf[DIGGCON] &= ~(0x00000001 << dig);
  76:.\display.c   ****             break;
  77:.\display.c   ****         case 3:
  78:.\display.c   ****             LedPannelBuf[DIGACON] &= ~(0x00000001 << dig);
  79:.\display.c   ****             LedPannelBuf[DIGBCON] &= ~(0x00000001 << dig);
  80:.\display.c   ****             LedPannelBuf[DIGCCON] &= ~(0x00000001 << dig);
  81:.\display.c   ****             LedPannelBuf[DIGDCON] &= ~(0x00000001 << dig);
  82:.\display.c   ****             LedPannelBuf[DIGECON] |= (0x00000001 << dig);
  83:.\display.c   ****             LedPannelBuf[DIGFCON] |= (0x00000001 << dig);
  84:.\display.c   ****             LedPannelBuf[DIGGCON] &= ~(0x00000001 << dig);
  85:.\display.c   ****             break;
  86:.\display.c   ****         case 4:
  87:.\display.c   ****             LedPannelBuf[DIGACON] |= (0x00000001 << dig);
  88:.\display.c   ****             LedPannelBuf[DIGBCON] &= ~(0x00000001 << dig);
  89:.\display.c   ****             LedPannelBuf[DIGCCON] &= ~(0x00000001 << dig);
  90:.\display.c   ****             LedPannelBuf[DIGDCON] |= (0x00000001 << dig);
  91:.\display.c   ****             LedPannelBuf[DIGECON] |= (0x00000001 << dig);
  92:.\display.c   ****             LedPannelBuf[DIGFCON] &= ~(0x00000001 << dig);
  93:.\display.c   ****             LedPannelBuf[DIGGCON] &= ~(0x00000001 << dig);
  94:.\display.c   ****             break;
  95:.\display.c   ****         case 5:
  96:.\display.c   ****             LedPannelBuf[DIGACON] &= ~(0x00000001 << dig);
  97:.\display.c   ****             LedPannelBuf[DIGBCON] |= (0x00000001 << dig);
  98:.\display.c   ****             LedPannelBuf[DIGCCON] &= ~(0x00000001 << dig);
  99:.\display.c   ****             LedPannelBuf[DIGDCON] &= ~(0x00000001 << dig);
 100:.\display.c   ****             LedPannelBuf[DIGECON] |= (0x00000001 << dig);
 101:.\display.c   ****             LedPannelBuf[DIGFCON] &= ~(0x00000001 << dig);
 102:.\display.c   ****             LedPannelBuf[DIGGCON] &= ~(0x00000001 << dig);
 103:.\display.c   ****             break;
 104:.\display.c   ****         case 6:
 105:.\display.c   ****             LedPannelBuf[DIGACON] &= ~(0x00000001 << dig);
 106:.\display.c   ****             LedPannelBuf[DIGBCON] |= (0x00000001 << dig);
 107:.\display.c   ****             LedPannelBuf[DIGCCON] &= ~(0x00000001 << dig);
 108:.\display.c   ****             LedPannelBuf[DIGDCON] &= ~(0x00000001 << dig);
 109:.\display.c   ****             LedPannelBuf[DIGECON] &= ~(0x00000001 << dig);
 110:.\display.c   ****             LedPannelBuf[DIGFCON] &= ~(0x00000001 << dig);
 111:.\display.c   ****             LedPannelBuf[DIGGCON] &= ~(0x00000001 << dig);
 112:.\display.c   ****             break;
 113:.\display.c   ****         case 7:
 114:.\display.c   ****             LedPannelBuf[DIGACON] &= ~(0x00000001 << dig);
 115:.\display.c   ****             LedPannelBuf[DIGBCON] &= ~(0x00000001 << dig);
 116:.\display.c   ****             LedPannelBuf[DIGCCON] &= ~(0x00000001 << dig);
 117:.\display.c   ****             LedPannelBuf[DIGDCON] |= (0x00000001 << dig);
 118:.\display.c   ****             LedPannelBuf[DIGECON] |= (0x00000001 << dig);
 119:.\display.c   ****             LedPannelBuf[DIGFCON] |= (0x00000001 << dig);
 120:.\display.c   ****             LedPannelBuf[DIGGCON] |= (0x00000001 << dig);
 121:.\display.c   ****             break;
 122:.\display.c   ****         case 8:
 123:.\display.c   ****             LedPannelBuf[DIGACON] &= ~(0x00000001 << dig);
 124:.\display.c   ****             LedPannelBuf[DIGBCON] &= ~(0x00000001 << dig);
 125:.\display.c   ****             LedPannelBuf[DIGCCON] &= ~(0x00000001 << dig);
 126:.\display.c   ****             LedPannelBuf[DIGDCON] &= ~(0x00000001 << dig);
 127:.\display.c   ****             LedPannelBuf[DIGECON] &= ~(0x00000001 << dig);
 128:.\display.c   ****             LedPannelBuf[DIGFCON] &= ~(0x00000001 << dig);
 129:.\display.c   ****             LedPannelBuf[DIGGCON] &= ~(0x00000001 << dig);
ARM GAS  C:\Users\ZHANGM~1\AppData\Local\Temp\ccWWGwEp.s 			page 5


 130:.\display.c   ****             break;
 131:.\display.c   ****         case 9:
 132:.\display.c   ****             LedPannelBuf[DIGACON] &= ~(0x00000001 << dig);
 133:.\display.c   ****             LedPannelBuf[DIGBCON] &= ~(0x00000001 << dig);
 134:.\display.c   ****             LedPannelBuf[DIGCCON] &= ~(0x00000001 << dig);
 135:.\display.c   ****             LedPannelBuf[DIGDCON] &= ~(0x00000001 << dig);
 136:.\display.c   ****             LedPannelBuf[DIGECON] |= (0x00000001 << dig);
 137:.\display.c   ****             LedPannelBuf[DIGFCON] &= ~(0x00000001 << dig);
 138:.\display.c   ****             LedPannelBuf[DIGGCON] &= ~(0x00000001 << dig);
 139:.\display.c   ****             break;
 140:.\display.c   ****         case 14:
 141:.\display.c   ****             
 142:.\display.c   ****             LedPannelBuf[DIGACON]&= ~(0x00000001 << dig);
 143:.\display.c   ****             LedPannelBuf[DIGBCON] |= (0x00000001 << dig);
 144:.\display.c   ****             LedPannelBuf[DIGCCON] |= (0x00000001 << dig);
 145:.\display.c   ****             LedPannelBuf[DIGDCON] &= ~(0x00000001 << dig);
 146:.\display.c   ****             LedPannelBuf[DIGECON] &= ~(0x00000001 << dig);
 147:.\display.c   ****             LedPannelBuf[DIGFCON] &= ~(0x00000001 << dig);
 148:.\display.c   ****             LedPannelBuf[DIGGCON] &= ~(0x00000001 << dig);
 149:.\display.c   ****              break;
 150:.\display.c   ****            
 151:.\display.c   ****             
 152:.\display.c   ****         default:
 153:.\display.c   ****             LedPannelBuf[DIGACON] |= (0x00000001 << dig);
  98              		.loc 1 153 0
  99 0004 8440     		lsl	r4, r4, r0
 100 0006 694B     		ldr	r3, .L29
 101 0008 221C     		mov	r2, r4
  48:.\display.c   ****     switch(dt)
 102              		.loc 1 48 0
 103 000a 0E29     		cmp	r1, #14
 104 000c 00D9     		bls	.LCB69
 105 000e B6E0     		b	.L6	@long jump
 106              	.LCB69:
 107 0010 081C     		mov	r0, r1
 108              	.LVL10:
 109 0012 FFF7FEFF 		bl	__gnu_thumb1_case_uqi
 110              	.L18:
 111 0016 08       		.byte	(.L7-.L18)/2
 112 0017 1B       		.byte	(.L8-.L18)/2
 113 0018 20       		.byte	(.L9-.L18)/2
 114 0019 30       		.byte	(.L10-.L18)/2
 115 001a 43       		.byte	(.L11-.L18)/2
 116 001b 50       		.byte	(.L12-.L18)/2
 117 001c 57       		.byte	(.L13-.L18)/2
 118 001d 61       		.byte	(.L14-.L18)/2
 119 001e 77       		.byte	(.L15-.L18)/2
 120 001f 8D       		.byte	(.L16-.L18)/2
 121 0020 B4       		.byte	(.L6-.L18)/2
 122 0021 B4       		.byte	(.L6-.L18)/2
 123 0022 B4       		.byte	(.L6-.L18)/2
 124 0023 B4       		.byte	(.L6-.L18)/2
 125 0024 9D       		.byte	(.L17-.L18)/2
 126 0025 00       		.align	1
 127              	.L7:
  51:.\display.c   ****             LedPannelBuf[DIGACON] &= ~(0x00000001 << dig);
 128              		.loc 1 51 0
ARM GAS  C:\Users\ZHANGM~1\AppData\Local\Temp\ccWWGwEp.s 			page 6


 129 0026 E143     		mvn	r1, r4
 130              	.LVL11:
 131 0028 1C68     		ldr	r4, [r3]
  52:.\display.c   ****             LedPannelBuf[DIGBCON] &= ~(0x00000001 << dig);
 132              		.loc 1 52 0
 133 002a 5868     		ldr	r0, [r3, #4]
  51:.\display.c   ****             LedPannelBuf[DIGACON] &= ~(0x00000001 << dig);
 134              		.loc 1 51 0
 135 002c 0C40     		and	r4, r1
  52:.\display.c   ****             LedPannelBuf[DIGBCON] &= ~(0x00000001 << dig);
 136              		.loc 1 52 0
 137 002e 0840     		and	r0, r1
  51:.\display.c   ****             LedPannelBuf[DIGACON] &= ~(0x00000001 << dig);
 138              		.loc 1 51 0
 139 0030 1C60     		str	r4, [r3]
  53:.\display.c   ****             LedPannelBuf[DIGCCON] &= ~(0x00000001 << dig);
 140              		.loc 1 53 0
 141 0032 9C68     		ldr	r4, [r3, #8]
  52:.\display.c   ****             LedPannelBuf[DIGBCON] &= ~(0x00000001 << dig);
 142              		.loc 1 52 0
 143 0034 5860     		str	r0, [r3, #4]
  54:.\display.c   ****             LedPannelBuf[DIGDCON] &= ~(0x00000001 << dig);
 144              		.loc 1 54 0
 145 0036 D868     		ldr	r0, [r3, #12]
  53:.\display.c   ****             LedPannelBuf[DIGCCON] &= ~(0x00000001 << dig);
 146              		.loc 1 53 0
 147 0038 0C40     		and	r4, r1
  54:.\display.c   ****             LedPannelBuf[DIGDCON] &= ~(0x00000001 << dig);
 148              		.loc 1 54 0
 149 003a 0840     		and	r0, r1
  53:.\display.c   ****             LedPannelBuf[DIGCCON] &= ~(0x00000001 << dig);
 150              		.loc 1 53 0
 151 003c 9C60     		str	r4, [r3, #8]
  55:.\display.c   ****             LedPannelBuf[DIGECON] &= ~(0x00000001 << dig);
 152              		.loc 1 55 0
 153 003e 1C69     		ldr	r4, [r3, #16]
  54:.\display.c   ****             LedPannelBuf[DIGDCON] &= ~(0x00000001 << dig);
 154              		.loc 1 54 0
 155 0040 D860     		str	r0, [r3, #12]
  56:.\display.c   ****             LedPannelBuf[DIGFCON] &= ~(0x00000001 << dig);
 156              		.loc 1 56 0
 157 0042 5869     		ldr	r0, [r3, #20]
  55:.\display.c   ****             LedPannelBuf[DIGECON] &= ~(0x00000001 << dig);
 158              		.loc 1 55 0
 159 0044 0C40     		and	r4, r1
 160 0046 1C61     		str	r4, [r3, #16]
  56:.\display.c   ****             LedPannelBuf[DIGFCON] &= ~(0x00000001 << dig);
 161              		.loc 1 56 0
 162 0048 0140     		and	r1, r0
 163 004a 57E0     		b	.L27
 164              	.LVL12:
 165              	.L8:
  60:.\display.c   ****             LedPannelBuf[DIGACON] |= (0x00000001 << dig);
 166              		.loc 1 60 0
 167 004c 1968     		ldr	r1, [r3]
 168              	.LVL13:
 169 004e 2143     		orr	r1, r4
ARM GAS  C:\Users\ZHANGM~1\AppData\Local\Temp\ccWWGwEp.s 			page 7


 170 0050 1960     		str	r1, [r3]
  61:.\display.c   ****             LedPannelBuf[DIGBCON] &= ~(0x00000001 << dig);
 171              		.loc 1 61 0
 172 0052 E443     		mvn	r4, r4
 173 0054 44E0     		b	.L28
 174              	.LVL14:
 175              	.L9:
  69:.\display.c   ****             LedPannelBuf[DIGACON] &= ~(0x00000001 << dig);
 176              		.loc 1 69 0
 177 0056 E143     		mvn	r1, r4
 178              	.LVL15:
  70:.\display.c   ****             LedPannelBuf[DIGBCON] &= ~(0x00000001 << dig);
 179              		.loc 1 70 0
 180 0058 5C68     		ldr	r4, [r3, #4]
  69:.\display.c   ****             LedPannelBuf[DIGACON] &= ~(0x00000001 << dig);
 181              		.loc 1 69 0
 182 005a 1868     		ldr	r0, [r3]
  70:.\display.c   ****             LedPannelBuf[DIGBCON] &= ~(0x00000001 << dig);
 183              		.loc 1 70 0
 184 005c 0C40     		and	r4, r1
 185 005e 5C60     		str	r4, [r3, #4]
  72:.\display.c   ****             LedPannelBuf[DIGDCON] &= ~(0x00000001 << dig);
 186              		.loc 1 72 0
 187 0060 DC68     		ldr	r4, [r3, #12]
  69:.\display.c   ****             LedPannelBuf[DIGACON] &= ~(0x00000001 << dig);
 188              		.loc 1 69 0
 189 0062 0840     		and	r0, r1
  72:.\display.c   ****             LedPannelBuf[DIGDCON] &= ~(0x00000001 << dig);
 190              		.loc 1 72 0
 191 0064 0C40     		and	r4, r1
  69:.\display.c   ****             LedPannelBuf[DIGACON] &= ~(0x00000001 << dig);
 192              		.loc 1 69 0
 193 0066 1860     		str	r0, [r3]
  71:.\display.c   ****             LedPannelBuf[DIGCCON] |= (0x00000001 << dig);
 194              		.loc 1 71 0
 195 0068 9868     		ldr	r0, [r3, #8]
  72:.\display.c   ****             LedPannelBuf[DIGDCON] &= ~(0x00000001 << dig);
 196              		.loc 1 72 0
 197 006a DC60     		str	r4, [r3, #12]
  73:.\display.c   ****             LedPannelBuf[DIGECON] &= ~(0x00000001 << dig);
 198              		.loc 1 73 0
 199 006c 1C69     		ldr	r4, [r3, #16]
  71:.\display.c   ****             LedPannelBuf[DIGCCON] |= (0x00000001 << dig);
 200              		.loc 1 71 0
 201 006e 1043     		orr	r0, r2
 202 0070 9860     		str	r0, [r3, #8]
  73:.\display.c   ****             LedPannelBuf[DIGECON] &= ~(0x00000001 << dig);
 203              		.loc 1 73 0
 204 0072 0C40     		and	r4, r1
 205 0074 0EE0     		b	.L26
 206              	.LVL16:
 207              	.L10:
  78:.\display.c   ****             LedPannelBuf[DIGACON] &= ~(0x00000001 << dig);
 208              		.loc 1 78 0
 209 0076 E143     		mvn	r1, r4
 210              	.LVL17:
 211 0078 1C68     		ldr	r4, [r3]
ARM GAS  C:\Users\ZHANGM~1\AppData\Local\Temp\ccWWGwEp.s 			page 8


  79:.\display.c   ****             LedPannelBuf[DIGBCON] &= ~(0x00000001 << dig);
 212              		.loc 1 79 0
 213 007a 5868     		ldr	r0, [r3, #4]
  78:.\display.c   ****             LedPannelBuf[DIGACON] &= ~(0x00000001 << dig);
 214              		.loc 1 78 0
 215 007c 0C40     		and	r4, r1
 216 007e 1C60     		str	r4, [r3]
  80:.\display.c   ****             LedPannelBuf[DIGCCON] &= ~(0x00000001 << dig);
 217              		.loc 1 80 0
 218 0080 9C68     		ldr	r4, [r3, #8]
  79:.\display.c   ****             LedPannelBuf[DIGBCON] &= ~(0x00000001 << dig);
 219              		.loc 1 79 0
 220 0082 0840     		and	r0, r1
  80:.\display.c   ****             LedPannelBuf[DIGCCON] &= ~(0x00000001 << dig);
 221              		.loc 1 80 0
 222 0084 0C40     		and	r4, r1
  79:.\display.c   ****             LedPannelBuf[DIGBCON] &= ~(0x00000001 << dig);
 223              		.loc 1 79 0
 224 0086 5860     		str	r0, [r3, #4]
  81:.\display.c   ****             LedPannelBuf[DIGDCON] &= ~(0x00000001 << dig);
 225              		.loc 1 81 0
 226 0088 D868     		ldr	r0, [r3, #12]
  80:.\display.c   ****             LedPannelBuf[DIGCCON] &= ~(0x00000001 << dig);
 227              		.loc 1 80 0
 228 008a 9C60     		str	r4, [r3, #8]
  82:.\display.c   ****             LedPannelBuf[DIGECON] |= (0x00000001 << dig);
 229              		.loc 1 82 0
 230 008c 1C69     		ldr	r4, [r3, #16]
  81:.\display.c   ****             LedPannelBuf[DIGDCON] &= ~(0x00000001 << dig);
 231              		.loc 1 81 0
 232 008e 0840     		and	r0, r1
 233 0090 D860     		str	r0, [r3, #12]
  82:.\display.c   ****             LedPannelBuf[DIGECON] |= (0x00000001 << dig);
 234              		.loc 1 82 0
 235 0092 1443     		orr	r4, r2
 236              	.L26:
  83:.\display.c   ****             LedPannelBuf[DIGFCON] |= (0x00000001 << dig);
 237              		.loc 1 83 0
 238 0094 5869     		ldr	r0, [r3, #20]
  82:.\display.c   ****             LedPannelBuf[DIGECON] |= (0x00000001 << dig);
 239              		.loc 1 82 0
 240 0096 1C61     		str	r4, [r3, #16]
  83:.\display.c   ****             LedPannelBuf[DIGFCON] |= (0x00000001 << dig);
 241              		.loc 1 83 0
 242 0098 0243     		orr	r2, r0
 243 009a 6BE0     		b	.L23
 244              	.LVL18:
 245              	.L11:
  87:.\display.c   ****             LedPannelBuf[DIGACON] |= (0x00000001 << dig);
 246              		.loc 1 87 0
 247 009c 1968     		ldr	r1, [r3]
 248              	.LVL19:
  88:.\display.c   ****             LedPannelBuf[DIGBCON] &= ~(0x00000001 << dig);
 249              		.loc 1 88 0
 250 009e 5868     		ldr	r0, [r3, #4]
  87:.\display.c   ****             LedPannelBuf[DIGACON] |= (0x00000001 << dig);
 251              		.loc 1 87 0
ARM GAS  C:\Users\ZHANGM~1\AppData\Local\Temp\ccWWGwEp.s 			page 9


 252 00a0 2143     		orr	r1, r4
 253 00a2 1960     		str	r1, [r3]
  88:.\display.c   ****             LedPannelBuf[DIGBCON] &= ~(0x00000001 << dig);
 254              		.loc 1 88 0
 255 00a4 E143     		mvn	r1, r4
  89:.\display.c   ****             LedPannelBuf[DIGCCON] &= ~(0x00000001 << dig);
 256              		.loc 1 89 0
 257 00a6 9C68     		ldr	r4, [r3, #8]
  88:.\display.c   ****             LedPannelBuf[DIGBCON] &= ~(0x00000001 << dig);
 258              		.loc 1 88 0
 259 00a8 0840     		and	r0, r1
  89:.\display.c   ****             LedPannelBuf[DIGCCON] &= ~(0x00000001 << dig);
 260              		.loc 1 89 0
 261 00aa 0C40     		and	r4, r1
 262 00ac 9C60     		str	r4, [r3, #8]
  90:.\display.c   ****             LedPannelBuf[DIGDCON] |= (0x00000001 << dig);
 263              		.loc 1 90 0
 264 00ae DC68     		ldr	r4, [r3, #12]
  88:.\display.c   ****             LedPannelBuf[DIGBCON] &= ~(0x00000001 << dig);
 265              		.loc 1 88 0
 266 00b0 5860     		str	r0, [r3, #4]
  90:.\display.c   ****             LedPannelBuf[DIGDCON] |= (0x00000001 << dig);
 267              		.loc 1 90 0
 268 00b2 1443     		orr	r4, r2
 269 00b4 48E0     		b	.L25
 270              	.LVL20:
 271              	.L12:
  96:.\display.c   ****             LedPannelBuf[DIGACON] &= ~(0x00000001 << dig);
 272              		.loc 1 96 0
 273 00b6 E143     		mvn	r1, r4
 274              	.LVL21:
 275 00b8 1C68     		ldr	r4, [r3]
  97:.\display.c   ****             LedPannelBuf[DIGBCON] |= (0x00000001 << dig);
 276              		.loc 1 97 0
 277 00ba 5868     		ldr	r0, [r3, #4]
  96:.\display.c   ****             LedPannelBuf[DIGACON] &= ~(0x00000001 << dig);
 278              		.loc 1 96 0
 279 00bc 0C40     		and	r4, r1
 280 00be 1C60     		str	r4, [r3]
  97:.\display.c   ****             LedPannelBuf[DIGBCON] |= (0x00000001 << dig);
 281              		.loc 1 97 0
 282 00c0 1043     		orr	r0, r2
 283 00c2 3BE0     		b	.L24
 284              	.LVL22:
 285              	.L13:
 106:.\display.c   ****             LedPannelBuf[DIGBCON] |= (0x00000001 << dig);
 286              		.loc 1 106 0
 287 00c4 5868     		ldr	r0, [r3, #4]
 105:.\display.c   ****             LedPannelBuf[DIGACON] &= ~(0x00000001 << dig);
 288              		.loc 1 105 0
 289 00c6 E143     		mvn	r1, r4
 290              	.LVL23:
 106:.\display.c   ****             LedPannelBuf[DIGBCON] |= (0x00000001 << dig);
 291              		.loc 1 106 0
 292 00c8 0243     		orr	r2, r0
 105:.\display.c   ****             LedPannelBuf[DIGACON] &= ~(0x00000001 << dig);
 293              		.loc 1 105 0
ARM GAS  C:\Users\ZHANGM~1\AppData\Local\Temp\ccWWGwEp.s 			page 10


 294 00ca 1C68     		ldr	r4, [r3]
 106:.\display.c   ****             LedPannelBuf[DIGBCON] |= (0x00000001 << dig);
 295              		.loc 1 106 0
 296 00cc 5A60     		str	r2, [r3, #4]
 107:.\display.c   ****             LedPannelBuf[DIGCCON] &= ~(0x00000001 << dig);
 297              		.loc 1 107 0
 298 00ce 9A68     		ldr	r2, [r3, #8]
 105:.\display.c   ****             LedPannelBuf[DIGACON] &= ~(0x00000001 << dig);
 299              		.loc 1 105 0
 300 00d0 0C40     		and	r4, r1
 301 00d2 1C60     		str	r4, [r3]
 107:.\display.c   ****             LedPannelBuf[DIGCCON] &= ~(0x00000001 << dig);
 302              		.loc 1 107 0
 303 00d4 0A40     		and	r2, r1
 304 00d6 44E0     		b	.L22
 305              	.LVL24:
 306              	.L14:
 114:.\display.c   ****             LedPannelBuf[DIGACON] &= ~(0x00000001 << dig);
 307              		.loc 1 114 0
 308 00d8 1868     		ldr	r0, [r3]
 309 00da E443     		mvn	r4, r4
 310 00dc 2040     		and	r0, r4
 311 00de 1860     		str	r0, [r3]
 312              	.LVL25:
 313              	.L28:
 116:.\display.c   ****             LedPannelBuf[DIGCCON] &= ~(0x00000001 << dig);
 314              		.loc 1 116 0
 315 00e0 9968     		ldr	r1, [r3, #8]
 115:.\display.c   ****             LedPannelBuf[DIGBCON] &= ~(0x00000001 << dig);
 316              		.loc 1 115 0
 317 00e2 5868     		ldr	r0, [r3, #4]
 318 00e4 2040     		and	r0, r4
 116:.\display.c   ****             LedPannelBuf[DIGCCON] &= ~(0x00000001 << dig);
 319              		.loc 1 116 0
 320 00e6 0C40     		and	r4, r1
 115:.\display.c   ****             LedPannelBuf[DIGBCON] &= ~(0x00000001 << dig);
 321              		.loc 1 115 0
 322 00e8 5860     		str	r0, [r3, #4]
 116:.\display.c   ****             LedPannelBuf[DIGCCON] &= ~(0x00000001 << dig);
 323              		.loc 1 116 0
 324 00ea 9C60     		str	r4, [r3, #8]
 118:.\display.c   ****             LedPannelBuf[DIGECON] |= (0x00000001 << dig);
 325              		.loc 1 118 0
 326 00ec 1869     		ldr	r0, [r3, #16]
 117:.\display.c   ****             LedPannelBuf[DIGDCON] |= (0x00000001 << dig);
 327              		.loc 1 117 0
 328 00ee DC68     		ldr	r4, [r3, #12]
 119:.\display.c   ****             LedPannelBuf[DIGFCON] |= (0x00000001 << dig);
 329              		.loc 1 119 0
 330 00f0 5969     		ldr	r1, [r3, #20]
 117:.\display.c   ****             LedPannelBuf[DIGDCON] |= (0x00000001 << dig);
 331              		.loc 1 117 0
 332 00f2 1443     		orr	r4, r2
 118:.\display.c   ****             LedPannelBuf[DIGECON] |= (0x00000001 << dig);
 333              		.loc 1 118 0
 334 00f4 1043     		orr	r0, r2
 117:.\display.c   ****             LedPannelBuf[DIGDCON] |= (0x00000001 << dig);
ARM GAS  C:\Users\ZHANGM~1\AppData\Local\Temp\ccWWGwEp.s 			page 11


 335              		.loc 1 117 0
 336 00f6 DC60     		str	r4, [r3, #12]
 118:.\display.c   ****             LedPannelBuf[DIGECON] |= (0x00000001 << dig);
 337              		.loc 1 118 0
 338 00f8 1861     		str	r0, [r3, #16]
 119:.\display.c   ****             LedPannelBuf[DIGFCON] |= (0x00000001 << dig);
 339              		.loc 1 119 0
 340 00fa 1143     		orr	r1, r2
 341              	.L27:
 342 00fc 5961     		str	r1, [r3, #20]
 120:.\display.c   ****             LedPannelBuf[DIGGCON] |= (0x00000001 << dig);
 343              		.loc 1 120 0
 344 00fe 9969     		ldr	r1, [r3, #24]
 345 0100 0A43     		orr	r2, r1
 346 0102 50E0     		b	.L21
 347              	.LVL26:
 348              	.L15:
 123:.\display.c   ****             LedPannelBuf[DIGACON] &= ~(0x00000001 << dig);
 349              		.loc 1 123 0
 350 0104 1968     		ldr	r1, [r3]
 351              	.LVL27:
 352 0106 E243     		mvn	r2, r4
 353 0108 1140     		and	r1, r2
 124:.\display.c   ****             LedPannelBuf[DIGBCON] &= ~(0x00000001 << dig);
 354              		.loc 1 124 0
 355 010a 5C68     		ldr	r4, [r3, #4]
 125:.\display.c   ****             LedPannelBuf[DIGCCON] &= ~(0x00000001 << dig);
 356              		.loc 1 125 0
 357 010c 9868     		ldr	r0, [r3, #8]
 123:.\display.c   ****             LedPannelBuf[DIGACON] &= ~(0x00000001 << dig);
 358              		.loc 1 123 0
 359 010e 1960     		str	r1, [r3]
 126:.\display.c   ****             LedPannelBuf[DIGDCON] &= ~(0x00000001 << dig);
 360              		.loc 1 126 0
 361 0110 D968     		ldr	r1, [r3, #12]
 124:.\display.c   ****             LedPannelBuf[DIGBCON] &= ~(0x00000001 << dig);
 362              		.loc 1 124 0
 363 0112 1440     		and	r4, r2
 125:.\display.c   ****             LedPannelBuf[DIGCCON] &= ~(0x00000001 << dig);
 364              		.loc 1 125 0
 365 0114 1040     		and	r0, r2
 126:.\display.c   ****             LedPannelBuf[DIGDCON] &= ~(0x00000001 << dig);
 366              		.loc 1 126 0
 367 0116 1140     		and	r1, r2
 124:.\display.c   ****             LedPannelBuf[DIGBCON] &= ~(0x00000001 << dig);
 368              		.loc 1 124 0
 369 0118 5C60     		str	r4, [r3, #4]
 125:.\display.c   ****             LedPannelBuf[DIGCCON] &= ~(0x00000001 << dig);
 370              		.loc 1 125 0
 371 011a 9860     		str	r0, [r3, #8]
 127:.\display.c   ****             LedPannelBuf[DIGECON] &= ~(0x00000001 << dig);
 372              		.loc 1 127 0
 373 011c 1C69     		ldr	r4, [r3, #16]
 128:.\display.c   ****             LedPannelBuf[DIGFCON] &= ~(0x00000001 << dig);
 374              		.loc 1 128 0
 375 011e 5869     		ldr	r0, [r3, #20]
 126:.\display.c   ****             LedPannelBuf[DIGDCON] &= ~(0x00000001 << dig);
ARM GAS  C:\Users\ZHANGM~1\AppData\Local\Temp\ccWWGwEp.s 			page 12


 376              		.loc 1 126 0
 377 0120 D960     		str	r1, [r3, #12]
 129:.\display.c   ****             LedPannelBuf[DIGGCON] &= ~(0x00000001 << dig);
 378              		.loc 1 129 0
 379 0122 9969     		ldr	r1, [r3, #24]
 127:.\display.c   ****             LedPannelBuf[DIGECON] &= ~(0x00000001 << dig);
 380              		.loc 1 127 0
 381 0124 1440     		and	r4, r2
 128:.\display.c   ****             LedPannelBuf[DIGFCON] &= ~(0x00000001 << dig);
 382              		.loc 1 128 0
 383 0126 1040     		and	r0, r2
 127:.\display.c   ****             LedPannelBuf[DIGECON] &= ~(0x00000001 << dig);
 384              		.loc 1 127 0
 385 0128 1C61     		str	r4, [r3, #16]
 128:.\display.c   ****             LedPannelBuf[DIGFCON] &= ~(0x00000001 << dig);
 386              		.loc 1 128 0
 387 012a 5861     		str	r0, [r3, #20]
 129:.\display.c   ****             LedPannelBuf[DIGGCON] &= ~(0x00000001 << dig);
 388              		.loc 1 129 0
 389 012c 0A40     		and	r2, r1
 390 012e 3AE0     		b	.L21
 391              	.LVL28:
 392              	.L16:
 132:.\display.c   ****             LedPannelBuf[DIGACON] &= ~(0x00000001 << dig);
 393              		.loc 1 132 0
 394 0130 E143     		mvn	r1, r4
 395              	.LVL29:
 396 0132 1C68     		ldr	r4, [r3]
 133:.\display.c   ****             LedPannelBuf[DIGBCON] &= ~(0x00000001 << dig);
 397              		.loc 1 133 0
 398 0134 5868     		ldr	r0, [r3, #4]
 132:.\display.c   ****             LedPannelBuf[DIGACON] &= ~(0x00000001 << dig);
 399              		.loc 1 132 0
 400 0136 0C40     		and	r4, r1
 401 0138 1C60     		str	r4, [r3]
 133:.\display.c   ****             LedPannelBuf[DIGBCON] &= ~(0x00000001 << dig);
 402              		.loc 1 133 0
 403 013a 0840     		and	r0, r1
 404              	.L24:
 405 013c 5860     		str	r0, [r3, #4]
 134:.\display.c   ****             LedPannelBuf[DIGCCON] &= ~(0x00000001 << dig);
 406              		.loc 1 134 0
 407 013e 9868     		ldr	r0, [r3, #8]
 135:.\display.c   ****             LedPannelBuf[DIGDCON] &= ~(0x00000001 << dig);
 408              		.loc 1 135 0
 409 0140 DC68     		ldr	r4, [r3, #12]
 134:.\display.c   ****             LedPannelBuf[DIGCCON] &= ~(0x00000001 << dig);
 410              		.loc 1 134 0
 411 0142 0840     		and	r0, r1
 412 0144 9860     		str	r0, [r3, #8]
 135:.\display.c   ****             LedPannelBuf[DIGDCON] &= ~(0x00000001 << dig);
 413              		.loc 1 135 0
 414 0146 0C40     		and	r4, r1
 415              	.L25:
 136:.\display.c   ****             LedPannelBuf[DIGECON] |= (0x00000001 << dig);
 416              		.loc 1 136 0
 417 0148 1869     		ldr	r0, [r3, #16]
ARM GAS  C:\Users\ZHANGM~1\AppData\Local\Temp\ccWWGwEp.s 			page 13


 135:.\display.c   ****             LedPannelBuf[DIGDCON] &= ~(0x00000001 << dig);
 418              		.loc 1 135 0
 419 014a DC60     		str	r4, [r3, #12]
 136:.\display.c   ****             LedPannelBuf[DIGECON] |= (0x00000001 << dig);
 420              		.loc 1 136 0
 421 014c 0243     		orr	r2, r0
 422 014e 0EE0     		b	.L20
 423              	.LVL30:
 424              	.L17:
 142:.\display.c   ****             LedPannelBuf[DIGACON]&= ~(0x00000001 << dig);
 425              		.loc 1 142 0
 426 0150 1868     		ldr	r0, [r3]
 427 0152 E143     		mvn	r1, r4
 428              	.LVL31:
 429 0154 0840     		and	r0, r1
 143:.\display.c   ****             LedPannelBuf[DIGBCON] |= (0x00000001 << dig);
 430              		.loc 1 143 0
 431 0156 5C68     		ldr	r4, [r3, #4]
 142:.\display.c   ****             LedPannelBuf[DIGACON]&= ~(0x00000001 << dig);
 432              		.loc 1 142 0
 433 0158 1860     		str	r0, [r3]
 144:.\display.c   ****             LedPannelBuf[DIGCCON] |= (0x00000001 << dig);
 434              		.loc 1 144 0
 435 015a 9868     		ldr	r0, [r3, #8]
 143:.\display.c   ****             LedPannelBuf[DIGBCON] |= (0x00000001 << dig);
 436              		.loc 1 143 0
 437 015c 1443     		orr	r4, r2
 438 015e 5C60     		str	r4, [r3, #4]
 144:.\display.c   ****             LedPannelBuf[DIGCCON] |= (0x00000001 << dig);
 439              		.loc 1 144 0
 440 0160 0243     		orr	r2, r0
 441              	.L22:
 442 0162 9A60     		str	r2, [r3, #8]
 145:.\display.c   ****             LedPannelBuf[DIGDCON] &= ~(0x00000001 << dig);
 443              		.loc 1 145 0
 444 0164 DA68     		ldr	r2, [r3, #12]
 445 0166 0A40     		and	r2, r1
 446 0168 DA60     		str	r2, [r3, #12]
 146:.\display.c   ****             LedPannelBuf[DIGECON] &= ~(0x00000001 << dig);
 447              		.loc 1 146 0
 448 016a 1A69     		ldr	r2, [r3, #16]
 449 016c 0A40     		and	r2, r1
 450              	.L20:
 451 016e 1A61     		str	r2, [r3, #16]
 147:.\display.c   ****             LedPannelBuf[DIGFCON] &= ~(0x00000001 << dig);
 452              		.loc 1 147 0
 453 0170 5A69     		ldr	r2, [r3, #20]
 454 0172 0A40     		and	r2, r1
 455              	.L23:
 456 0174 5A61     		str	r2, [r3, #20]
 148:.\display.c   ****             LedPannelBuf[DIGGCON] &= ~(0x00000001 << dig);
 457              		.loc 1 148 0
 458 0176 9A69     		ldr	r2, [r3, #24]
 459 0178 1140     		and	r1, r2
 460 017a 9961     		str	r1, [r3, #24]
 149:.\display.c   ****              break;
 461              		.loc 1 149 0
ARM GAS  C:\Users\ZHANGM~1\AppData\Local\Temp\ccWWGwEp.s 			page 14


 462 017c 14E0     		b	.L5
 463              	.LVL32:
 464              	.L6:
 465              		.loc 1 153 0
 466 017e 1C68     		ldr	r4, [r3]
 154:.\display.c   ****             LedPannelBuf[DIGBCON] |= (0x00000001 << dig);
 467              		.loc 1 154 0
 468 0180 5868     		ldr	r0, [r3, #4]
 153:.\display.c   ****             LedPannelBuf[DIGACON] |= (0x00000001 << dig);
 469              		.loc 1 153 0
 470 0182 1443     		orr	r4, r2
 155:.\display.c   ****             LedPannelBuf[DIGCCON] |= (0x00000001 << dig);
 471              		.loc 1 155 0
 472 0184 9968     		ldr	r1, [r3, #8]
 473              	.LVL33:
 153:.\display.c   ****             LedPannelBuf[DIGACON] |= (0x00000001 << dig);
 474              		.loc 1 153 0
 475 0186 1C60     		str	r4, [r3]
 156:.\display.c   ****             LedPannelBuf[DIGDCON] |= (0x00000001 << dig);
 476              		.loc 1 156 0
 477 0188 DC68     		ldr	r4, [r3, #12]
 154:.\display.c   ****             LedPannelBuf[DIGBCON] |= (0x00000001 << dig);
 478              		.loc 1 154 0
 479 018a 1043     		orr	r0, r2
 155:.\display.c   ****             LedPannelBuf[DIGCCON] |= (0x00000001 << dig);
 480              		.loc 1 155 0
 481 018c 1143     		orr	r1, r2
 482              		.loc 1 156 0
 483 018e 1443     		orr	r4, r2
 154:.\display.c   ****             LedPannelBuf[DIGBCON] |= (0x00000001 << dig);
 484              		.loc 1 154 0
 485 0190 5860     		str	r0, [r3, #4]
 155:.\display.c   ****             LedPannelBuf[DIGCCON] |= (0x00000001 << dig);
 486              		.loc 1 155 0
 487 0192 9960     		str	r1, [r3, #8]
 157:.\display.c   ****             LedPannelBuf[DIGECON] |= (0x00000001 << dig);
 488              		.loc 1 157 0
 489 0194 1869     		ldr	r0, [r3, #16]
 158:.\display.c   ****             LedPannelBuf[DIGFCON] |= (0x00000001 << dig);
 490              		.loc 1 158 0
 491 0196 5969     		ldr	r1, [r3, #20]
 156:.\display.c   ****             LedPannelBuf[DIGDCON] |= (0x00000001 << dig);
 492              		.loc 1 156 0
 493 0198 DC60     		str	r4, [r3, #12]
 159:.\display.c   ****             LedPannelBuf[DIGGCON] |= (0x00000001 << dig);
 494              		.loc 1 159 0
 495 019a 9C69     		ldr	r4, [r3, #24]
 157:.\display.c   ****             LedPannelBuf[DIGECON] |= (0x00000001 << dig);
 496              		.loc 1 157 0
 497 019c 1043     		orr	r0, r2
 158:.\display.c   ****             LedPannelBuf[DIGFCON] |= (0x00000001 << dig);
 498              		.loc 1 158 0
 499 019e 1143     		orr	r1, r2
 157:.\display.c   ****             LedPannelBuf[DIGECON] |= (0x00000001 << dig);
 500              		.loc 1 157 0
 501 01a0 1861     		str	r0, [r3, #16]
 158:.\display.c   ****             LedPannelBuf[DIGFCON] |= (0x00000001 << dig);
ARM GAS  C:\Users\ZHANGM~1\AppData\Local\Temp\ccWWGwEp.s 			page 15


 502              		.loc 1 158 0
 503 01a2 5961     		str	r1, [r3, #20]
 504              		.loc 1 159 0
 505 01a4 2243     		orr	r2, r4
 506              	.L21:
 507 01a6 9A61     		str	r2, [r3, #24]
 508              	.L5:
 160:.\display.c   ****             break;
 161:.\display.c   ****     }
 162:.\display.c   **** }
 509              		.loc 1 162 0
 510              		@ sp needed for prologue
 511 01a8 10BD     		pop	{r4, pc}
 512              	.L30:
 513 01aa C046     		.align	2
 514              	.L29:
 515 01ac 00000000 		.word	LedPannelBuf
 516              		.cfi_endproc
 517              	.LFE34:
 518              		.size	Led_Digital_Trans, .-Led_Digital_Trans
 519              		.section	.text.yanshi_Digital_Trans,"ax",%progbits
 520              		.align	1
 521              		.global	yanshi_Digital_Trans
 522              		.code	16
 523              		.thumb_func
 524              		.type	yanshi_Digital_Trans, %function
 525              	yanshi_Digital_Trans:
 526              	.LFB35:
 163:.\display.c   **** /*****************************************************************\
 164:.\display.c   ****        yanshidisplay
 165:.\display.c   **** \*****************************************************************/
 166:.\display.c   **** void yanshi_Digital_Trans(unsigned char dig,unsigned char dt)
 167:.\display.c   **** {
 527              		.loc 1 167 0
 528              		.cfi_startproc
 529              	.LVL34:
 530 0000 10B5     		push	{r4, lr}
 531              	.LCFI2:
 532              		.cfi_def_cfa_offset 8
 533              		.cfi_offset 4, -8
 534              		.cfi_offset 14, -4
 535 0002 0124     		mov	r4, #1
 168:.\display.c   ****     switch(dt)
 169:.\display.c   ****     {
 170:.\display.c   ****         case 0:
 171:.\display.c   ****             temp[DIGACON] &= ~(0x00000001 << dig);
 172:.\display.c   ****             temp[DIGBCON] &= ~(0x00000001 << dig);
 173:.\display.c   ****             temp[DIGCCON] &= ~(0x00000001 << dig);
 174:.\display.c   ****             temp[DIGDCON] &= ~(0x00000001 << dig);
 175:.\display.c   ****             temp[DIGECON] &= ~(0x00000001 << dig);
 176:.\display.c   ****             temp[DIGFCON] &= ~(0x00000001 << dig);
 177:.\display.c   ****             temp[DIGGCON] |= (0x00000001 << dig);
 178:.\display.c   ****             break;
 179:.\display.c   ****         case 1:
 180:.\display.c   ****             temp[DIGACON] |= (0x00000001 << dig);
 181:.\display.c   ****             temp[DIGBCON] &= ~(0x00000001 << dig);
 182:.\display.c   ****             temp[DIGCCON] &= ~(0x00000001 << dig);
ARM GAS  C:\Users\ZHANGM~1\AppData\Local\Temp\ccWWGwEp.s 			page 16


 183:.\display.c   ****             temp[DIGDCON] |= (0x00000001 << dig);
 184:.\display.c   ****             temp[DIGECON] |= (0x00000001 << dig);
 185:.\display.c   ****             temp[DIGFCON] |= (0x00000001 << dig);
 186:.\display.c   ****             temp[DIGGCON] |= (0x00000001 << dig);
 187:.\display.c   ****             break;
 188:.\display.c   ****         case 2:
 189:.\display.c   ****             temp[DIGACON] &= ~(0x00000001 << dig);
 190:.\display.c   ****             temp[DIGBCON] &= ~(0x00000001 << dig);
 191:.\display.c   ****             temp[DIGCCON] |= (0x00000001 << dig);
 192:.\display.c   ****             temp[DIGDCON] &= ~(0x00000001 << dig);
 193:.\display.c   ****             temp[DIGECON] &= ~(0x00000001 << dig);
 194:.\display.c   ****             temp[DIGFCON] |= (0x00000001 << dig);
 195:.\display.c   ****             temp[DIGGCON] &= ~(0x00000001 << dig);
 196:.\display.c   ****             break;
 197:.\display.c   ****         case 3:
 198:.\display.c   ****             temp[DIGACON] &= ~(0x00000001 << dig);
 199:.\display.c   ****             temp[DIGBCON] &= ~(0x00000001 << dig);
 200:.\display.c   ****             temp[DIGCCON] &= ~(0x00000001 << dig);
 201:.\display.c   ****             temp[DIGDCON] &= ~(0x00000001 << dig);
 202:.\display.c   ****             temp[DIGECON] |= (0x00000001 << dig);
 203:.\display.c   ****             temp[DIGFCON] |= (0x00000001 << dig);
 204:.\display.c   ****             temp[DIGGCON] &= ~(0x00000001 << dig);
 205:.\display.c   ****             break;
 206:.\display.c   ****         case 4:
 207:.\display.c   ****             temp[DIGACON] |= (0x00000001 << dig);
 208:.\display.c   ****             temp[DIGBCON] &= ~(0x00000001 << dig);
 209:.\display.c   ****             temp[DIGCCON] &= ~(0x00000001 << dig);
 210:.\display.c   ****             temp[DIGDCON] |= (0x00000001 << dig);
 211:.\display.c   ****             temp[DIGECON] |= (0x00000001 << dig);
 212:.\display.c   ****             temp[DIGFCON] &= ~(0x00000001 << dig);
 213:.\display.c   ****             temp[DIGGCON] &= ~(0x00000001 << dig);
 214:.\display.c   ****             break;
 215:.\display.c   ****         case 5:
 216:.\display.c   ****             temp[DIGACON] &= ~(0x00000001 << dig);
 217:.\display.c   ****             temp[DIGBCON] |= (0x00000001 << dig);
 218:.\display.c   ****             temp[DIGCCON] &= ~(0x00000001 << dig);
 219:.\display.c   ****             temp[DIGDCON] &= ~(0x00000001 << dig);
 220:.\display.c   ****             temp[DIGECON] |= (0x00000001 << dig);
 221:.\display.c   ****             temp[DIGFCON] &= ~(0x00000001 << dig);
 222:.\display.c   ****             temp[DIGGCON] &= ~(0x00000001 << dig);
 223:.\display.c   ****             break;
 224:.\display.c   ****         case 6:
 225:.\display.c   ****             temp[DIGACON] &= ~(0x00000001 << dig);
 226:.\display.c   ****             temp[DIGBCON] |= (0x00000001 << dig);
 227:.\display.c   ****             temp[DIGCCON] &= ~(0x00000001 << dig);
 228:.\display.c   ****             temp[DIGDCON] &= ~(0x00000001 << dig);
 229:.\display.c   ****             temp[DIGECON] &= ~(0x00000001 << dig);
 230:.\display.c   ****             temp[DIGFCON] &= ~(0x00000001 << dig);
 231:.\display.c   ****             temp[DIGGCON] &= ~(0x00000001 << dig);
 232:.\display.c   ****             break;
 233:.\display.c   ****         case 7:
 234:.\display.c   ****             temp[DIGACON] &= ~(0x00000001 << dig);
 235:.\display.c   ****             temp[DIGBCON] &= ~(0x00000001 << dig);
 236:.\display.c   ****             temp[DIGCCON] &= ~(0x00000001 << dig);
 237:.\display.c   ****             temp[DIGDCON] |= (0x00000001 << dig);
 238:.\display.c   ****             temp[DIGECON] |= (0x00000001 << dig);
 239:.\display.c   ****             temp[DIGFCON] |= (0x00000001 << dig);
ARM GAS  C:\Users\ZHANGM~1\AppData\Local\Temp\ccWWGwEp.s 			page 17


 240:.\display.c   ****             temp[DIGGCON] |= (0x00000001 << dig);
 241:.\display.c   ****             break;
 242:.\display.c   ****         case 8:
 243:.\display.c   ****             temp[DIGACON] &= ~(0x00000001 << dig);
 244:.\display.c   ****             temp[DIGBCON] &= ~(0x00000001 << dig);
 245:.\display.c   ****             temp[DIGCCON] &= ~(0x00000001 << dig);
 246:.\display.c   ****             temp[DIGDCON] &= ~(0x00000001 << dig);
 247:.\display.c   ****             temp[DIGECON] &= ~(0x00000001 << dig);
 248:.\display.c   ****             temp[DIGFCON] &= ~(0x00000001 << dig);
 249:.\display.c   ****             temp[DIGGCON] &= ~(0x00000001 << dig);
 250:.\display.c   ****             break;
 251:.\display.c   ****         case 9:
 252:.\display.c   ****             temp[DIGACON] &= ~(0x00000001 << dig);
 253:.\display.c   ****             temp[DIGBCON] &= ~(0x00000001 << dig);
 254:.\display.c   ****             temp[DIGCCON] &= ~(0x00000001 << dig);
 255:.\display.c   ****             temp[DIGDCON] &= ~(0x00000001 << dig);
 256:.\display.c   ****             temp[DIGECON] |= (0x00000001 << dig);
 257:.\display.c   ****             temp[DIGFCON] &= ~(0x00000001 << dig);
 258:.\display.c   ****             temp[DIGGCON] &= ~(0x00000001 << dig);
 259:.\display.c   ****             break;
 260:.\display.c   ****         case 14:
 261:.\display.c   ****             
 262:.\display.c   ****             temp[DIGACON]&= ~(0x00000001 << dig);
 263:.\display.c   ****             temp[DIGBCON] |= (0x00000001 << dig);
 264:.\display.c   ****             temp[DIGCCON] |= (0x00000001 << dig);
 265:.\display.c   ****             temp[DIGDCON] &= ~(0x00000001 << dig);
 266:.\display.c   ****             temp[DIGECON] &= ~(0x00000001 << dig);
 267:.\display.c   ****             temp[DIGFCON] &= ~(0x00000001 << dig);
 268:.\display.c   ****             temp[DIGGCON] &= ~(0x00000001 << dig);
 269:.\display.c   ****              break;
 270:.\display.c   ****             
 271:.\display.c   ****             
 272:.\display.c   ****         default:
 273:.\display.c   ****             temp[DIGACON] |= (0x00000001 << dig);
 536              		.loc 1 273 0
 537 0004 8440     		lsl	r4, r4, r0
 538 0006 694B     		ldr	r3, .L55
 539 0008 221C     		mov	r2, r4
 168:.\display.c   ****     switch(dt)
 540              		.loc 1 168 0
 541 000a 0E29     		cmp	r1, #14
 542 000c 00D9     		bls	.LCB435
 543 000e B6E0     		b	.L32	@long jump
 544              	.LCB435:
 545 0010 081C     		mov	r0, r1
 546              	.LVL35:
 547 0012 FFF7FEFF 		bl	__gnu_thumb1_case_uqi
 548              	.L44:
 549 0016 08       		.byte	(.L33-.L44)/2
 550 0017 1B       		.byte	(.L34-.L44)/2
 551 0018 20       		.byte	(.L35-.L44)/2
 552 0019 30       		.byte	(.L36-.L44)/2
 553 001a 43       		.byte	(.L37-.L44)/2
 554 001b 50       		.byte	(.L38-.L44)/2
 555 001c 57       		.byte	(.L39-.L44)/2
 556 001d 61       		.byte	(.L40-.L44)/2
 557 001e 77       		.byte	(.L41-.L44)/2
ARM GAS  C:\Users\ZHANGM~1\AppData\Local\Temp\ccWWGwEp.s 			page 18


 558 001f 8D       		.byte	(.L42-.L44)/2
 559 0020 B4       		.byte	(.L32-.L44)/2
 560 0021 B4       		.byte	(.L32-.L44)/2
 561 0022 B4       		.byte	(.L32-.L44)/2
 562 0023 B4       		.byte	(.L32-.L44)/2
 563 0024 9D       		.byte	(.L43-.L44)/2
 564 0025 00       		.align	1
 565              	.L33:
 171:.\display.c   ****             temp[DIGACON] &= ~(0x00000001 << dig);
 566              		.loc 1 171 0
 567 0026 E143     		mvn	r1, r4
 568              	.LVL36:
 569 0028 1C68     		ldr	r4, [r3]
 172:.\display.c   ****             temp[DIGBCON] &= ~(0x00000001 << dig);
 570              		.loc 1 172 0
 571 002a 5868     		ldr	r0, [r3, #4]
 171:.\display.c   ****             temp[DIGACON] &= ~(0x00000001 << dig);
 572              		.loc 1 171 0
 573 002c 0C40     		and	r4, r1
 172:.\display.c   ****             temp[DIGBCON] &= ~(0x00000001 << dig);
 574              		.loc 1 172 0
 575 002e 0840     		and	r0, r1
 171:.\display.c   ****             temp[DIGACON] &= ~(0x00000001 << dig);
 576              		.loc 1 171 0
 577 0030 1C60     		str	r4, [r3]
 173:.\display.c   ****             temp[DIGCCON] &= ~(0x00000001 << dig);
 578              		.loc 1 173 0
 579 0032 9C68     		ldr	r4, [r3, #8]
 172:.\display.c   ****             temp[DIGBCON] &= ~(0x00000001 << dig);
 580              		.loc 1 172 0
 581 0034 5860     		str	r0, [r3, #4]
 174:.\display.c   ****             temp[DIGDCON] &= ~(0x00000001 << dig);
 582              		.loc 1 174 0
 583 0036 D868     		ldr	r0, [r3, #12]
 173:.\display.c   ****             temp[DIGCCON] &= ~(0x00000001 << dig);
 584              		.loc 1 173 0
 585 0038 0C40     		and	r4, r1
 174:.\display.c   ****             temp[DIGDCON] &= ~(0x00000001 << dig);
 586              		.loc 1 174 0
 587 003a 0840     		and	r0, r1
 173:.\display.c   ****             temp[DIGCCON] &= ~(0x00000001 << dig);
 588              		.loc 1 173 0
 589 003c 9C60     		str	r4, [r3, #8]
 175:.\display.c   ****             temp[DIGECON] &= ~(0x00000001 << dig);
 590              		.loc 1 175 0
 591 003e 1C69     		ldr	r4, [r3, #16]
 174:.\display.c   ****             temp[DIGDCON] &= ~(0x00000001 << dig);
 592              		.loc 1 174 0
 593 0040 D860     		str	r0, [r3, #12]
 176:.\display.c   ****             temp[DIGFCON] &= ~(0x00000001 << dig);
 594              		.loc 1 176 0
 595 0042 5869     		ldr	r0, [r3, #20]
 175:.\display.c   ****             temp[DIGECON] &= ~(0x00000001 << dig);
 596              		.loc 1 175 0
 597 0044 0C40     		and	r4, r1
 598 0046 1C61     		str	r4, [r3, #16]
 176:.\display.c   ****             temp[DIGFCON] &= ~(0x00000001 << dig);
ARM GAS  C:\Users\ZHANGM~1\AppData\Local\Temp\ccWWGwEp.s 			page 19


 599              		.loc 1 176 0
 600 0048 0140     		and	r1, r0
 601 004a 57E0     		b	.L53
 602              	.LVL37:
 603              	.L34:
 180:.\display.c   ****             temp[DIGACON] |= (0x00000001 << dig);
 604              		.loc 1 180 0
 605 004c 1968     		ldr	r1, [r3]
 606              	.LVL38:
 607 004e 2143     		orr	r1, r4
 608 0050 1960     		str	r1, [r3]
 181:.\display.c   ****             temp[DIGBCON] &= ~(0x00000001 << dig);
 609              		.loc 1 181 0
 610 0052 E443     		mvn	r4, r4
 611 0054 44E0     		b	.L54
 612              	.LVL39:
 613              	.L35:
 189:.\display.c   ****             temp[DIGACON] &= ~(0x00000001 << dig);
 614              		.loc 1 189 0
 615 0056 E143     		mvn	r1, r4
 616              	.LVL40:
 190:.\display.c   ****             temp[DIGBCON] &= ~(0x00000001 << dig);
 617              		.loc 1 190 0
 618 0058 5C68     		ldr	r4, [r3, #4]
 189:.\display.c   ****             temp[DIGACON] &= ~(0x00000001 << dig);
 619              		.loc 1 189 0
 620 005a 1868     		ldr	r0, [r3]
 190:.\display.c   ****             temp[DIGBCON] &= ~(0x00000001 << dig);
 621              		.loc 1 190 0
 622 005c 0C40     		and	r4, r1
 623 005e 5C60     		str	r4, [r3, #4]
 192:.\display.c   ****             temp[DIGDCON] &= ~(0x00000001 << dig);
 624              		.loc 1 192 0
 625 0060 DC68     		ldr	r4, [r3, #12]
 189:.\display.c   ****             temp[DIGACON] &= ~(0x00000001 << dig);
 626              		.loc 1 189 0
 627 0062 0840     		and	r0, r1
 192:.\display.c   ****             temp[DIGDCON] &= ~(0x00000001 << dig);
 628              		.loc 1 192 0
 629 0064 0C40     		and	r4, r1
 189:.\display.c   ****             temp[DIGACON] &= ~(0x00000001 << dig);
 630              		.loc 1 189 0
 631 0066 1860     		str	r0, [r3]
 191:.\display.c   ****             temp[DIGCCON] |= (0x00000001 << dig);
 632              		.loc 1 191 0
 633 0068 9868     		ldr	r0, [r3, #8]
 192:.\display.c   ****             temp[DIGDCON] &= ~(0x00000001 << dig);
 634              		.loc 1 192 0
 635 006a DC60     		str	r4, [r3, #12]
 193:.\display.c   ****             temp[DIGECON] &= ~(0x00000001 << dig);
 636              		.loc 1 193 0
 637 006c 1C69     		ldr	r4, [r3, #16]
 191:.\display.c   ****             temp[DIGCCON] |= (0x00000001 << dig);
 638              		.loc 1 191 0
 639 006e 1043     		orr	r0, r2
 640 0070 9860     		str	r0, [r3, #8]
 193:.\display.c   ****             temp[DIGECON] &= ~(0x00000001 << dig);
ARM GAS  C:\Users\ZHANGM~1\AppData\Local\Temp\ccWWGwEp.s 			page 20


 641              		.loc 1 193 0
 642 0072 0C40     		and	r4, r1
 643 0074 0EE0     		b	.L52
 644              	.LVL41:
 645              	.L36:
 198:.\display.c   ****             temp[DIGACON] &= ~(0x00000001 << dig);
 646              		.loc 1 198 0
 647 0076 E143     		mvn	r1, r4
 648              	.LVL42:
 649 0078 1C68     		ldr	r4, [r3]
 199:.\display.c   ****             temp[DIGBCON] &= ~(0x00000001 << dig);
 650              		.loc 1 199 0
 651 007a 5868     		ldr	r0, [r3, #4]
 198:.\display.c   ****             temp[DIGACON] &= ~(0x00000001 << dig);
 652              		.loc 1 198 0
 653 007c 0C40     		and	r4, r1
 654 007e 1C60     		str	r4, [r3]
 200:.\display.c   ****             temp[DIGCCON] &= ~(0x00000001 << dig);
 655              		.loc 1 200 0
 656 0080 9C68     		ldr	r4, [r3, #8]
 199:.\display.c   ****             temp[DIGBCON] &= ~(0x00000001 << dig);
 657              		.loc 1 199 0
 658 0082 0840     		and	r0, r1
 200:.\display.c   ****             temp[DIGCCON] &= ~(0x00000001 << dig);
 659              		.loc 1 200 0
 660 0084 0C40     		and	r4, r1
 199:.\display.c   ****             temp[DIGBCON] &= ~(0x00000001 << dig);
 661              		.loc 1 199 0
 662 0086 5860     		str	r0, [r3, #4]
 201:.\display.c   ****             temp[DIGDCON] &= ~(0x00000001 << dig);
 663              		.loc 1 201 0
 664 0088 D868     		ldr	r0, [r3, #12]
 200:.\display.c   ****             temp[DIGCCON] &= ~(0x00000001 << dig);
 665              		.loc 1 200 0
 666 008a 9C60     		str	r4, [r3, #8]
 202:.\display.c   ****             temp[DIGECON] |= (0x00000001 << dig);
 667              		.loc 1 202 0
 668 008c 1C69     		ldr	r4, [r3, #16]
 201:.\display.c   ****             temp[DIGDCON] &= ~(0x00000001 << dig);
 669              		.loc 1 201 0
 670 008e 0840     		and	r0, r1
 671 0090 D860     		str	r0, [r3, #12]
 202:.\display.c   ****             temp[DIGECON] |= (0x00000001 << dig);
 672              		.loc 1 202 0
 673 0092 1443     		orr	r4, r2
 674              	.L52:
 203:.\display.c   ****             temp[DIGFCON] |= (0x00000001 << dig);
 675              		.loc 1 203 0
 676 0094 5869     		ldr	r0, [r3, #20]
 202:.\display.c   ****             temp[DIGECON] |= (0x00000001 << dig);
 677              		.loc 1 202 0
 678 0096 1C61     		str	r4, [r3, #16]
 203:.\display.c   ****             temp[DIGFCON] |= (0x00000001 << dig);
 679              		.loc 1 203 0
 680 0098 0243     		orr	r2, r0
 681 009a 6BE0     		b	.L49
 682              	.LVL43:
ARM GAS  C:\Users\ZHANGM~1\AppData\Local\Temp\ccWWGwEp.s 			page 21


 683              	.L37:
 207:.\display.c   ****             temp[DIGACON] |= (0x00000001 << dig);
 684              		.loc 1 207 0
 685 009c 1968     		ldr	r1, [r3]
 686              	.LVL44:
 208:.\display.c   ****             temp[DIGBCON] &= ~(0x00000001 << dig);
 687              		.loc 1 208 0
 688 009e 5868     		ldr	r0, [r3, #4]
 207:.\display.c   ****             temp[DIGACON] |= (0x00000001 << dig);
 689              		.loc 1 207 0
 690 00a0 2143     		orr	r1, r4
 691 00a2 1960     		str	r1, [r3]
 208:.\display.c   ****             temp[DIGBCON] &= ~(0x00000001 << dig);
 692              		.loc 1 208 0
 693 00a4 E143     		mvn	r1, r4
 209:.\display.c   ****             temp[DIGCCON] &= ~(0x00000001 << dig);
 694              		.loc 1 209 0
 695 00a6 9C68     		ldr	r4, [r3, #8]
 208:.\display.c   ****             temp[DIGBCON] &= ~(0x00000001 << dig);
 696              		.loc 1 208 0
 697 00a8 0840     		and	r0, r1
 209:.\display.c   ****             temp[DIGCCON] &= ~(0x00000001 << dig);
 698              		.loc 1 209 0
 699 00aa 0C40     		and	r4, r1
 700 00ac 9C60     		str	r4, [r3, #8]
 210:.\display.c   ****             temp[DIGDCON] |= (0x00000001 << dig);
 701              		.loc 1 210 0
 702 00ae DC68     		ldr	r4, [r3, #12]
 208:.\display.c   ****             temp[DIGBCON] &= ~(0x00000001 << dig);
 703              		.loc 1 208 0
 704 00b0 5860     		str	r0, [r3, #4]
 210:.\display.c   ****             temp[DIGDCON] |= (0x00000001 << dig);
 705              		.loc 1 210 0
 706 00b2 1443     		orr	r4, r2
 707 00b4 48E0     		b	.L51
 708              	.LVL45:
 709              	.L38:
 216:.\display.c   ****             temp[DIGACON] &= ~(0x00000001 << dig);
 710              		.loc 1 216 0
 711 00b6 E143     		mvn	r1, r4
 712              	.LVL46:
 713 00b8 1C68     		ldr	r4, [r3]
 217:.\display.c   ****             temp[DIGBCON] |= (0x00000001 << dig);
 714              		.loc 1 217 0
 715 00ba 5868     		ldr	r0, [r3, #4]
 216:.\display.c   ****             temp[DIGACON] &= ~(0x00000001 << dig);
 716              		.loc 1 216 0
 717 00bc 0C40     		and	r4, r1
 718 00be 1C60     		str	r4, [r3]
 217:.\display.c   ****             temp[DIGBCON] |= (0x00000001 << dig);
 719              		.loc 1 217 0
 720 00c0 1043     		orr	r0, r2
 721 00c2 3BE0     		b	.L50
 722              	.LVL47:
 723              	.L39:
 226:.\display.c   ****             temp[DIGBCON] |= (0x00000001 << dig);
 724              		.loc 1 226 0
ARM GAS  C:\Users\ZHANGM~1\AppData\Local\Temp\ccWWGwEp.s 			page 22


 725 00c4 5868     		ldr	r0, [r3, #4]
 225:.\display.c   ****             temp[DIGACON] &= ~(0x00000001 << dig);
 726              		.loc 1 225 0
 727 00c6 E143     		mvn	r1, r4
 728              	.LVL48:
 226:.\display.c   ****             temp[DIGBCON] |= (0x00000001 << dig);
 729              		.loc 1 226 0
 730 00c8 0243     		orr	r2, r0
 225:.\display.c   ****             temp[DIGACON] &= ~(0x00000001 << dig);
 731              		.loc 1 225 0
 732 00ca 1C68     		ldr	r4, [r3]
 226:.\display.c   ****             temp[DIGBCON] |= (0x00000001 << dig);
 733              		.loc 1 226 0
 734 00cc 5A60     		str	r2, [r3, #4]
 227:.\display.c   ****             temp[DIGCCON] &= ~(0x00000001 << dig);
 735              		.loc 1 227 0
 736 00ce 9A68     		ldr	r2, [r3, #8]
 225:.\display.c   ****             temp[DIGACON] &= ~(0x00000001 << dig);
 737              		.loc 1 225 0
 738 00d0 0C40     		and	r4, r1
 739 00d2 1C60     		str	r4, [r3]
 227:.\display.c   ****             temp[DIGCCON] &= ~(0x00000001 << dig);
 740              		.loc 1 227 0
 741 00d4 0A40     		and	r2, r1
 742 00d6 44E0     		b	.L48
 743              	.LVL49:
 744              	.L40:
 234:.\display.c   ****             temp[DIGACON] &= ~(0x00000001 << dig);
 745              		.loc 1 234 0
 746 00d8 1868     		ldr	r0, [r3]
 747 00da E443     		mvn	r4, r4
 748 00dc 2040     		and	r0, r4
 749 00de 1860     		str	r0, [r3]
 750              	.LVL50:
 751              	.L54:
 236:.\display.c   ****             temp[DIGCCON] &= ~(0x00000001 << dig);
 752              		.loc 1 236 0
 753 00e0 9968     		ldr	r1, [r3, #8]
 235:.\display.c   ****             temp[DIGBCON] &= ~(0x00000001 << dig);
 754              		.loc 1 235 0
 755 00e2 5868     		ldr	r0, [r3, #4]
 756 00e4 2040     		and	r0, r4
 236:.\display.c   ****             temp[DIGCCON] &= ~(0x00000001 << dig);
 757              		.loc 1 236 0
 758 00e6 0C40     		and	r4, r1
 235:.\display.c   ****             temp[DIGBCON] &= ~(0x00000001 << dig);
 759              		.loc 1 235 0
 760 00e8 5860     		str	r0, [r3, #4]
 236:.\display.c   ****             temp[DIGCCON] &= ~(0x00000001 << dig);
 761              		.loc 1 236 0
 762 00ea 9C60     		str	r4, [r3, #8]
 238:.\display.c   ****             temp[DIGECON] |= (0x00000001 << dig);
 763              		.loc 1 238 0
 764 00ec 1869     		ldr	r0, [r3, #16]
 237:.\display.c   ****             temp[DIGDCON] |= (0x00000001 << dig);
 765              		.loc 1 237 0
 766 00ee DC68     		ldr	r4, [r3, #12]
ARM GAS  C:\Users\ZHANGM~1\AppData\Local\Temp\ccWWGwEp.s 			page 23


 239:.\display.c   ****             temp[DIGFCON] |= (0x00000001 << dig);
 767              		.loc 1 239 0
 768 00f0 5969     		ldr	r1, [r3, #20]
 237:.\display.c   ****             temp[DIGDCON] |= (0x00000001 << dig);
 769              		.loc 1 237 0
 770 00f2 1443     		orr	r4, r2
 238:.\display.c   ****             temp[DIGECON] |= (0x00000001 << dig);
 771              		.loc 1 238 0
 772 00f4 1043     		orr	r0, r2
 237:.\display.c   ****             temp[DIGDCON] |= (0x00000001 << dig);
 773              		.loc 1 237 0
 774 00f6 DC60     		str	r4, [r3, #12]
 238:.\display.c   ****             temp[DIGECON] |= (0x00000001 << dig);
 775              		.loc 1 238 0
 776 00f8 1861     		str	r0, [r3, #16]
 239:.\display.c   ****             temp[DIGFCON] |= (0x00000001 << dig);
 777              		.loc 1 239 0
 778 00fa 1143     		orr	r1, r2
 779              	.L53:
 780 00fc 5961     		str	r1, [r3, #20]
 240:.\display.c   ****             temp[DIGGCON] |= (0x00000001 << dig);
 781              		.loc 1 240 0
 782 00fe 9969     		ldr	r1, [r3, #24]
 783 0100 0A43     		orr	r2, r1
 784 0102 50E0     		b	.L47
 785              	.LVL51:
 786              	.L41:
 243:.\display.c   ****             temp[DIGACON] &= ~(0x00000001 << dig);
 787              		.loc 1 243 0
 788 0104 1968     		ldr	r1, [r3]
 789              	.LVL52:
 790 0106 E243     		mvn	r2, r4
 791 0108 1140     		and	r1, r2
 244:.\display.c   ****             temp[DIGBCON] &= ~(0x00000001 << dig);
 792              		.loc 1 244 0
 793 010a 5C68     		ldr	r4, [r3, #4]
 245:.\display.c   ****             temp[DIGCCON] &= ~(0x00000001 << dig);
 794              		.loc 1 245 0
 795 010c 9868     		ldr	r0, [r3, #8]
 243:.\display.c   ****             temp[DIGACON] &= ~(0x00000001 << dig);
 796              		.loc 1 243 0
 797 010e 1960     		str	r1, [r3]
 246:.\display.c   ****             temp[DIGDCON] &= ~(0x00000001 << dig);
 798              		.loc 1 246 0
 799 0110 D968     		ldr	r1, [r3, #12]
 244:.\display.c   ****             temp[DIGBCON] &= ~(0x00000001 << dig);
 800              		.loc 1 244 0
 801 0112 1440     		and	r4, r2
 245:.\display.c   ****             temp[DIGCCON] &= ~(0x00000001 << dig);
 802              		.loc 1 245 0
 803 0114 1040     		and	r0, r2
 246:.\display.c   ****             temp[DIGDCON] &= ~(0x00000001 << dig);
 804              		.loc 1 246 0
 805 0116 1140     		and	r1, r2
 244:.\display.c   ****             temp[DIGBCON] &= ~(0x00000001 << dig);
 806              		.loc 1 244 0
 807 0118 5C60     		str	r4, [r3, #4]
ARM GAS  C:\Users\ZHANGM~1\AppData\Local\Temp\ccWWGwEp.s 			page 24


 245:.\display.c   ****             temp[DIGCCON] &= ~(0x00000001 << dig);
 808              		.loc 1 245 0
 809 011a 9860     		str	r0, [r3, #8]
 247:.\display.c   ****             temp[DIGECON] &= ~(0x00000001 << dig);
 810              		.loc 1 247 0
 811 011c 1C69     		ldr	r4, [r3, #16]
 248:.\display.c   ****             temp[DIGFCON] &= ~(0x00000001 << dig);
 812              		.loc 1 248 0
 813 011e 5869     		ldr	r0, [r3, #20]
 246:.\display.c   ****             temp[DIGDCON] &= ~(0x00000001 << dig);
 814              		.loc 1 246 0
 815 0120 D960     		str	r1, [r3, #12]
 249:.\display.c   ****             temp[DIGGCON] &= ~(0x00000001 << dig);
 816              		.loc 1 249 0
 817 0122 9969     		ldr	r1, [r3, #24]
 247:.\display.c   ****             temp[DIGECON] &= ~(0x00000001 << dig);
 818              		.loc 1 247 0
 819 0124 1440     		and	r4, r2
 248:.\display.c   ****             temp[DIGFCON] &= ~(0x00000001 << dig);
 820              		.loc 1 248 0
 821 0126 1040     		and	r0, r2
 247:.\display.c   ****             temp[DIGECON] &= ~(0x00000001 << dig);
 822              		.loc 1 247 0
 823 0128 1C61     		str	r4, [r3, #16]
 248:.\display.c   ****             temp[DIGFCON] &= ~(0x00000001 << dig);
 824              		.loc 1 248 0
 825 012a 5861     		str	r0, [r3, #20]
 249:.\display.c   ****             temp[DIGGCON] &= ~(0x00000001 << dig);
 826              		.loc 1 249 0
 827 012c 0A40     		and	r2, r1
 828 012e 3AE0     		b	.L47
 829              	.LVL53:
 830              	.L42:
 252:.\display.c   ****             temp[DIGACON] &= ~(0x00000001 << dig);
 831              		.loc 1 252 0
 832 0130 E143     		mvn	r1, r4
 833              	.LVL54:
 834 0132 1C68     		ldr	r4, [r3]
 253:.\display.c   ****             temp[DIGBCON] &= ~(0x00000001 << dig);
 835              		.loc 1 253 0
 836 0134 5868     		ldr	r0, [r3, #4]
 252:.\display.c   ****             temp[DIGACON] &= ~(0x00000001 << dig);
 837              		.loc 1 252 0
 838 0136 0C40     		and	r4, r1
 839 0138 1C60     		str	r4, [r3]
 253:.\display.c   ****             temp[DIGBCON] &= ~(0x00000001 << dig);
 840              		.loc 1 253 0
 841 013a 0840     		and	r0, r1
 842              	.L50:
 843 013c 5860     		str	r0, [r3, #4]
 254:.\display.c   ****             temp[DIGCCON] &= ~(0x00000001 << dig);
 844              		.loc 1 254 0
 845 013e 9868     		ldr	r0, [r3, #8]
 255:.\display.c   ****             temp[DIGDCON] &= ~(0x00000001 << dig);
 846              		.loc 1 255 0
 847 0140 DC68     		ldr	r4, [r3, #12]
 254:.\display.c   ****             temp[DIGCCON] &= ~(0x00000001 << dig);
ARM GAS  C:\Users\ZHANGM~1\AppData\Local\Temp\ccWWGwEp.s 			page 25


 848              		.loc 1 254 0
 849 0142 0840     		and	r0, r1
 850 0144 9860     		str	r0, [r3, #8]
 255:.\display.c   ****             temp[DIGDCON] &= ~(0x00000001 << dig);
 851              		.loc 1 255 0
 852 0146 0C40     		and	r4, r1
 853              	.L51:
 256:.\display.c   ****             temp[DIGECON] |= (0x00000001 << dig);
 854              		.loc 1 256 0
 855 0148 1869     		ldr	r0, [r3, #16]
 255:.\display.c   ****             temp[DIGDCON] &= ~(0x00000001 << dig);
 856              		.loc 1 255 0
 857 014a DC60     		str	r4, [r3, #12]
 256:.\display.c   ****             temp[DIGECON] |= (0x00000001 << dig);
 858              		.loc 1 256 0
 859 014c 0243     		orr	r2, r0
 860 014e 0EE0     		b	.L46
 861              	.LVL55:
 862              	.L43:
 262:.\display.c   ****             temp[DIGACON]&= ~(0x00000001 << dig);
 863              		.loc 1 262 0
 864 0150 1868     		ldr	r0, [r3]
 865 0152 E143     		mvn	r1, r4
 866              	.LVL56:
 867 0154 0840     		and	r0, r1
 263:.\display.c   ****             temp[DIGBCON] |= (0x00000001 << dig);
 868              		.loc 1 263 0
 869 0156 5C68     		ldr	r4, [r3, #4]
 262:.\display.c   ****             temp[DIGACON]&= ~(0x00000001 << dig);
 870              		.loc 1 262 0
 871 0158 1860     		str	r0, [r3]
 264:.\display.c   ****             temp[DIGCCON] |= (0x00000001 << dig);
 872              		.loc 1 264 0
 873 015a 9868     		ldr	r0, [r3, #8]
 263:.\display.c   ****             temp[DIGBCON] |= (0x00000001 << dig);
 874              		.loc 1 263 0
 875 015c 1443     		orr	r4, r2
 876 015e 5C60     		str	r4, [r3, #4]
 264:.\display.c   ****             temp[DIGCCON] |= (0x00000001 << dig);
 877              		.loc 1 264 0
 878 0160 0243     		orr	r2, r0
 879              	.L48:
 880 0162 9A60     		str	r2, [r3, #8]
 265:.\display.c   ****             temp[DIGDCON] &= ~(0x00000001 << dig);
 881              		.loc 1 265 0
 882 0164 DA68     		ldr	r2, [r3, #12]
 883 0166 0A40     		and	r2, r1
 884 0168 DA60     		str	r2, [r3, #12]
 266:.\display.c   ****             temp[DIGECON] &= ~(0x00000001 << dig);
 885              		.loc 1 266 0
 886 016a 1A69     		ldr	r2, [r3, #16]
 887 016c 0A40     		and	r2, r1
 888              	.L46:
 889 016e 1A61     		str	r2, [r3, #16]
 267:.\display.c   ****             temp[DIGFCON] &= ~(0x00000001 << dig);
 890              		.loc 1 267 0
 891 0170 5A69     		ldr	r2, [r3, #20]
ARM GAS  C:\Users\ZHANGM~1\AppData\Local\Temp\ccWWGwEp.s 			page 26


 892 0172 0A40     		and	r2, r1
 893              	.L49:
 894 0174 5A61     		str	r2, [r3, #20]
 268:.\display.c   ****             temp[DIGGCON] &= ~(0x00000001 << dig);
 895              		.loc 1 268 0
 896 0176 9A69     		ldr	r2, [r3, #24]
 897 0178 1140     		and	r1, r2
 898 017a 9961     		str	r1, [r3, #24]
 269:.\display.c   ****              break;
 899              		.loc 1 269 0
 900 017c 14E0     		b	.L31
 901              	.LVL57:
 902              	.L32:
 903              		.loc 1 273 0
 904 017e 1C68     		ldr	r4, [r3]
 274:.\display.c   ****             temp[DIGBCON] |= (0x00000001 << dig);
 905              		.loc 1 274 0
 906 0180 5868     		ldr	r0, [r3, #4]
 273:.\display.c   ****             temp[DIGACON] |= (0x00000001 << dig);
 907              		.loc 1 273 0
 908 0182 1443     		orr	r4, r2
 275:.\display.c   ****             temp[DIGCCON] |= (0x00000001 << dig);
 909              		.loc 1 275 0
 910 0184 9968     		ldr	r1, [r3, #8]
 911              	.LVL58:
 273:.\display.c   ****             temp[DIGACON] |= (0x00000001 << dig);
 912              		.loc 1 273 0
 913 0186 1C60     		str	r4, [r3]
 276:.\display.c   ****             temp[DIGDCON] |= (0x00000001 << dig);
 914              		.loc 1 276 0
 915 0188 DC68     		ldr	r4, [r3, #12]
 274:.\display.c   ****             temp[DIGBCON] |= (0x00000001 << dig);
 916              		.loc 1 274 0
 917 018a 1043     		orr	r0, r2
 275:.\display.c   ****             temp[DIGCCON] |= (0x00000001 << dig);
 918              		.loc 1 275 0
 919 018c 1143     		orr	r1, r2
 920              		.loc 1 276 0
 921 018e 1443     		orr	r4, r2
 274:.\display.c   ****             temp[DIGBCON] |= (0x00000001 << dig);
 922              		.loc 1 274 0
 923 0190 5860     		str	r0, [r3, #4]
 275:.\display.c   ****             temp[DIGCCON] |= (0x00000001 << dig);
 924              		.loc 1 275 0
 925 0192 9960     		str	r1, [r3, #8]
 277:.\display.c   ****             temp[DIGECON] |= (0x00000001 << dig);
 926              		.loc 1 277 0
 927 0194 1869     		ldr	r0, [r3, #16]
 278:.\display.c   ****             temp[DIGFCON] |= (0x00000001 << dig);
 928              		.loc 1 278 0
 929 0196 5969     		ldr	r1, [r3, #20]
 276:.\display.c   ****             temp[DIGDCON] |= (0x00000001 << dig);
 930              		.loc 1 276 0
 931 0198 DC60     		str	r4, [r3, #12]
 279:.\display.c   ****             temp[DIGGCON] |= (0x00000001 << dig);
 932              		.loc 1 279 0
 933 019a 9C69     		ldr	r4, [r3, #24]
ARM GAS  C:\Users\ZHANGM~1\AppData\Local\Temp\ccWWGwEp.s 			page 27


 277:.\display.c   ****             temp[DIGECON] |= (0x00000001 << dig);
 934              		.loc 1 277 0
 935 019c 1043     		orr	r0, r2
 278:.\display.c   ****             temp[DIGFCON] |= (0x00000001 << dig);
 936              		.loc 1 278 0
 937 019e 1143     		orr	r1, r2
 277:.\display.c   ****             temp[DIGECON] |= (0x00000001 << dig);
 938              		.loc 1 277 0
 939 01a0 1861     		str	r0, [r3, #16]
 278:.\display.c   ****             temp[DIGFCON] |= (0x00000001 << dig);
 940              		.loc 1 278 0
 941 01a2 5961     		str	r1, [r3, #20]
 942              		.loc 1 279 0
 943 01a4 2243     		orr	r2, r4
 944              	.L47:
 945 01a6 9A61     		str	r2, [r3, #24]
 946              	.L31:
 280:.\display.c   ****             break;
 281:.\display.c   ****     }
 282:.\display.c   **** }
 947              		.loc 1 282 0
 948              		@ sp needed for prologue
 949 01a8 10BD     		pop	{r4, pc}
 950              	.L56:
 951 01aa C046     		.align	2
 952              	.L55:
 953 01ac 00000000 		.word	temp
 954              		.cfi_endproc
 955              	.LFE35:
 956              		.size	yanshi_Digital_Trans, .-yanshi_Digital_Trans
 957              		.global	__aeabi_uidiv
 958              		.global	__aeabi_uidivmod
 959              		.section	.text.display8888,"ax",%progbits
 960              		.align	1
 961              		.global	display8888
 962              		.code	16
 963              		.thumb_func
 964              		.type	display8888, %function
 965              	display8888:
 966              	.LFB37:
 283:.\display.c   **** 
 284:.\display.c   **** 
 285:.\display.c   **** 
 286:.\display.c   **** 
 287:.\display.c   **** 
 288:.\display.c   **** 
 289:.\display.c   **** 
 290:.\display.c   **** 
 291:.\display.c   **** /*****************************************************************\
 292:.\display.c   **** \*****************************************************************/
 293:.\display.c   **** void Led_Pannel_Updata(void)
 294:.\display.c   **** {
 295:.\display.c   ****     if(Error_Data.bit.Error_00_flag)//2
 296:.\display.c   ****     {
 297:.\display.c   ****         
 298:.\display.c   ****         
 299:.\display.c   ****         
ARM GAS  C:\Users\ZHANGM~1\AppData\Local\Temp\ccWWGwEp.s 			page 28


 300:.\display.c   ****         
 301:.\display.c   ****         
 302:.\display.c   ****         PWM_Start();//
 303:.\display.c   ****           /*E0*/ 
 304:.\display.c   ****         Led_Digital_Trans(DIG3,14);
 305:.\display.c   ****         
 306:.\display.c   ****         
 307:.\display.c   ****         
 308:.\display.c   ****         Led_Digital_Trans(DIG4,0);
 309:.\display.c   ****         /**/
 310:.\display.c   ****         LedPannelBuf[0]|=0x00030000;
 311:.\display.c   ****         LedPannelBuf[1]|=0x00030000;
 312:.\display.c   ****         LedPannelBuf[2]|=0x00030000;
 313:.\display.c   ****         LedPannelBuf[3]|=0x00030000;
 314:.\display.c   ****         LedPannelBuf[4]|=0x00030000;
 315:.\display.c   ****         LedPannelBuf[5]|=0x00030000;
 316:.\display.c   ****         LedPannelBuf[6]|=0x00030000;
 317:.\display.c   ****         
 318:.\display.c   ****         
 319:.\display.c   ****         
 320:.\display.c   ****         
 321:.\display.c   ****         
 322:.\display.c   ****         /*1HZ*/
 323:.\display.c   ****         if(eroorcnt<5)
 324:.\display.c   ****         {
 325:.\display.c   ****             LedPannelBuf[0]|=0x00001fff;
 326:.\display.c   ****             LedPannelBuf[1]|=0x00001fff;
 327:.\display.c   ****             LedPannelBuf[2]|=0x00001fff;
 328:.\display.c   ****             LedPannelBuf[3]|=0x00001fff;
 329:.\display.c   ****             LedPannelBuf[4]|=0x00001fff;
 330:.\display.c   ****             LedPannelBuf[5]|=0x00001fff;
 331:.\display.c   ****             LedPannelBuf[6]|=0x00001fff;
 332:.\display.c   ****         
 333:.\display.c   ****         }
 334:.\display.c   ****         else if(eroorcnt>5&&eroorcnt<=10)
 335:.\display.c   ****         {
 336:.\display.c   ****             LedPannelBuf[0]&=0xffffe000;
 337:.\display.c   ****             LedPannelBuf[1]&=0xffffe000;
 338:.\display.c   ****             LedPannelBuf[2]&=0xffffe000;
 339:.\display.c   ****             LedPannelBuf[3]&=0xffffe000;
 340:.\display.c   ****             LedPannelBuf[4]&=0xffffe000;
 341:.\display.c   ****             LedPannelBuf[5]&=0xffffe000;
 342:.\display.c   ****             LedPannelBuf[6]&=0xffffe000;
 343:.\display.c   ****        
 344:.\display.c   ****             
 345:.\display.c   ****             
 346:.\display.c   ****         }
 347:.\display.c   ****          else if(eroorcnt>10)
 348:.\display.c   ****             eroorcnt=0;
 349:.\display.c   ****         
 350:.\display.c   ****         
 351:.\display.c   ****         
 352:.\display.c   ****         
 353:.\display.c   ****         
 354:.\display.c   ****         
 355:.\display.c   ****     }
 356:.\display.c   ****     else
ARM GAS  C:\Users\ZHANGM~1\AppData\Local\Temp\ccWWGwEp.s 			page 29


 357:.\display.c   ****     {
 358:.\display.c   ****       if(WorkFlag.error&&WorkFlag.zijiansta==1)//
 359:.\display.c   ****         {
 360:.\display.c   ****             
 361:.\display.c   ****           if(Error_Data.bit.Error_02_flag==1&&Error_Data.bit.Error_01_flag==1) 
 362:.\display.c   ****             {
 363:.\display.c   ****             
 364:.\display.c   ****                 Led_Digital_Trans(DIG3,14);
 365:.\display.c   ****                 Led_Digital_Trans(DIG4,2);
 366:.\display.c   ****                 Led_Digital_Trans(DIG1,14);
 367:.\display.c   ****                 Led_Digital_Trans(DIG2,1);
 368:.\display.c   ****                 
 369:.\display.c   ****             
 370:.\display.c   ****             
 371:.\display.c   ****             }
 372:.\display.c   ****             
 373:.\display.c   ****             else
 374:.\display.c   ****             {          
 375:.\display.c   ****                 if(Error_Data.bit.Error_02_flag==1)
 376:.\display.c   ****                 {  /*E2*/ 
 377:.\display.c   ****                     Led_Digital_Trans(DIG3,14);
 378:.\display.c   ****                     Led_Digital_Trans(DIG4,2);
 379:.\display.c   ****                     LedPannelBuf[0]|=0x00030000;
 380:.\display.c   ****                     LedPannelBuf[1]|=0x00030000;
 381:.\display.c   ****                     LedPannelBuf[2]|=0x00030000;
 382:.\display.c   ****                     LedPannelBuf[3]|=0x00030000;//2
 383:.\display.c   ****                     LedPannelBuf[4]|=0x00030000;
 384:.\display.c   ****                     LedPannelBuf[5]|=0x00030000;
 385:.\display.c   ****                     LedPannelBuf[6]|=0x00030000;
 386:.\display.c   ****                 }
 387:.\display.c   ****                     
 388:.\display.c   ****                 if(Error_Data.bit.Error_01_flag==1)    
 389:.\display.c   ****                 {
 390:.\display.c   ****                     /*E1*/ 
 391:.\display.c   ****                     Led_Digital_Trans(DIG3,14);
 392:.\display.c   ****                     Led_Digital_Trans(DIG4,1);
 393:.\display.c   ****                     LedPannelBuf[0]|=0x00030000;
 394:.\display.c   ****                     LedPannelBuf[1]|=0x00030000;
 395:.\display.c   ****                     LedPannelBuf[2]|=0x00030000;
 396:.\display.c   ****                     LedPannelBuf[3]|=0x00030000;//2
 397:.\display.c   ****                     LedPannelBuf[4]|=0x00030000;
 398:.\display.c   ****                     LedPannelBuf[5]|=0x00030000;
 399:.\display.c   ****                     LedPannelBuf[6]|=0x00030000;   
 400:.\display.c   ****                 }    
 401:.\display.c   ****                     
 402:.\display.c   ****                
 403:.\display.c   ****             }               
 404:.\display.c   ****         }
 405:.\display.c   ****       else if(WorkFlag01.bit.tds_00_disp==1)
 406:.\display.c   **** 			  {
 407:.\display.c   **** 			    display8888(Value_Tds0);
 408:.\display.c   **** 			    DisFlag.jsll=0;
 409:.\display.c   **** 			  }
 410:.\display.c   **** 			else if(WorkFlag01.bit.tds_01_disp==1)
 411:.\display.c   **** 			  {
 412:.\display.c   **** 			    display8888(Value_Tds1);
 413:.\display.c   **** 			    DisFlag.jsll=0;
ARM GAS  C:\Users\ZHANGM~1\AppData\Local\Temp\ccWWGwEp.s 			page 30


 414:.\display.c   **** 			  }
 415:.\display.c   ****      	else if(WorkFlag01.bit.water_consumption_02_disp==1)																		//
 416:.\display.c   ****         {
 417:.\display.c   **** 					display8888(jingshuiliang);
 418:.\display.c   **** 					DisFlag.jsll=1;
 419:.\display.c   ****         }
 420:.\display.c   **** 
 421:.\display.c   **** 
 422:.\display.c   ****      
 423:.\display.c   ****         //led updata
 424:.\display.c   ****         LedPannelBuf[S_CON] |= (0x000003ff<<S_SHIFT);
 425:.\display.c   ****         LedPannelBuf[S_CON] &= ~((0x000003ff >> (10-SPercent))<<S_SHIFT);
 426:.\display.c   ****         LedPannelBuf[H_CON] |= (0x000003ff<<H_SHIFT);
 427:.\display.c   ****         LedPannelBuf[H_CON] &= ~((0x000003ff >> (10-HPercent))<<H_SHIFT);
 428:.\display.c   ****         LedPannelBuf[J_CON] |= (0x000003ff<<J_SHIFT);
 429:.\display.c   ****         LedPannelBuf[J_CON] &= ~((0x000003ff >> (10-JPercent))<<J_SHIFT);
 430:.\display.c   ****         LedPannelBuf[K_CON] |= (0x000003ff<<K_SHIFT);
 431:.\display.c   ****         LedPannelBuf[K_CON] &= ~((0x000003ff >> (10-KPercent))<<K_SHIFT);
 432:.\display.c   ****         LedPannelBuf[L_CON] |= (0x000003ff<<L_SHIFT);
 433:.\display.c   ****         LedPannelBuf[L_CON] &= ~((0x000003ff >> (10-LPercent))<<L_SHIFT);
 434:.\display.c   ****         LedPannelBuf[M_CON] |= (0x000003ff<<M_SHIFT);
 435:.\display.c   ****         LedPannelBuf[M_CON] &= ~((0x000003ff >> (10-MPercent))<<M_SHIFT);
 436:.\display.c   ****         if(DisFlag.sflash)
 437:.\display.c   ****         {
 438:.\display.c   ****             if(DisFlag.flashsta)
 439:.\display.c   ****             {
 440:.\display.c   ****                 LedPannelBuf[S_CON] &= ~(0x00000003 << 1);
 441:.\display.c   ****             }else
 442:.\display.c   ****             {
 443:.\display.c   ****                 LedPannelBuf[S_CON] |= (0x00000003 << 1);
 444:.\display.c   ****             }
 445:.\display.c   ****         }else
 446:.\display.c   ****         {
 447:.\display.c   ****             LedPannelBuf[S_CON] &= ~(0x00000003 << 1);
 448:.\display.c   ****         }
 449:.\display.c   ****         if(DisFlag.hflash)
 450:.\display.c   ****         {
 451:.\display.c   ****             if(DisFlag.flashsta)
 452:.\display.c   ****             {
 453:.\display.c   ****                 LedPannelBuf[H_CON] &= ~(0x00000003 << 1);
 454:.\display.c   ****             }else
 455:.\display.c   ****             {
 456:.\display.c   ****                 LedPannelBuf[H_CON] |= (0x00000003 << 1);
 457:.\display.c   ****             }
 458:.\display.c   ****         }else
 459:.\display.c   ****         {
 460:.\display.c   ****             LedPannelBuf[H_CON] &= ~(0x00000003 << 1);
 461:.\display.c   ****         }
 462:.\display.c   ****         if(DisFlag.jflash)
 463:.\display.c   ****         {
 464:.\display.c   ****             if(DisFlag.flashsta)
 465:.\display.c   ****             {
 466:.\display.c   ****                 LedPannelBuf[J_CON] &= ~(0x00000003 << 1);
 467:.\display.c   ****             }else
 468:.\display.c   ****             {
 469:.\display.c   ****                 LedPannelBuf[J_CON] |= (0x00000003 << 1);
 470:.\display.c   ****             }
ARM GAS  C:\Users\ZHANGM~1\AppData\Local\Temp\ccWWGwEp.s 			page 31


 471:.\display.c   ****         }else
 472:.\display.c   ****         {
 473:.\display.c   ****             LedPannelBuf[J_CON] &= ~(0x00000003 << 1);
 474:.\display.c   ****         }
 475:.\display.c   ****         if(DisFlag.kflash)
 476:.\display.c   ****         {
 477:.\display.c   ****             if(DisFlag.flashsta)
 478:.\display.c   ****             {
 479:.\display.c   ****                 LedPannelBuf[K_CON] &= ~(0x00000003 << 1);
 480:.\display.c   ****             }else
 481:.\display.c   ****             {
 482:.\display.c   ****                 LedPannelBuf[K_CON] |= (0x00000003 << 1);
 483:.\display.c   ****             }
 484:.\display.c   ****         }else
 485:.\display.c   ****         {
 486:.\display.c   ****             LedPannelBuf[K_CON] &= ~(0x00000003 << 1);
 487:.\display.c   ****         }
 488:.\display.c   ****         if(DisFlag.lflash)
 489:.\display.c   ****         {
 490:.\display.c   ****             if(DisFlag.flashsta)
 491:.\display.c   ****             {
 492:.\display.c   ****                 LedPannelBuf[L_CON] &= ~(0x00000003 << 1);
 493:.\display.c   ****             }else
 494:.\display.c   ****             {
 495:.\display.c   ****                 LedPannelBuf[L_CON] |= (0x00000003 << 1);
 496:.\display.c   ****             }
 497:.\display.c   ****         }else
 498:.\display.c   ****         {
 499:.\display.c   ****             LedPannelBuf[L_CON] &= ~(0x00000003 << 1);
 500:.\display.c   ****         }
 501:.\display.c   ****         if(DisFlag.mflash)
 502:.\display.c   ****         {
 503:.\display.c   ****             if(DisFlag.flashsta)
 504:.\display.c   ****             {
 505:.\display.c   ****                 LedPannelBuf[M_CON] &= ~(0x00000003 << 1);
 506:.\display.c   ****             }else
 507:.\display.c   ****             {
 508:.\display.c   ****                 LedPannelBuf[M_CON] |= (0x00000003 << 1);
 509:.\display.c   ****             }
 510:.\display.c   ****         }else
 511:.\display.c   ****         {
 512:.\display.c   ****             LedPannelBuf[M_CON] &= ~(0x00000003 << 1);
 513:.\display.c   ****         }
 514:.\display.c   ****         if(FlashCnt > TIMER500MS)
 515:.\display.c   ****         {
 516:.\display.c   ****             FlashCnt = 0;
 517:.\display.c   ****             DisFlag.flashsta = !DisFlag.flashsta;
 518:.\display.c   ****         }       
 519:.\display.c   ****         if(DisFlag.wifierror)
 520:.\display.c   ****         {
 521:.\display.c   ****             LedPannelBuf[P5_CON] &= ~(1 << P5);
 522:.\display.c   ****         }else
 523:.\display.c   ****         {
 524:.\display.c   ****             LedPannelBuf[P5_CON] |= (1 << P5);
 525:.\display.c   ****         }
 526:.\display.c   ****         if(DisFlag.wifilinkingsignflash==0)
 527:.\display.c   ****         {     
ARM GAS  C:\Users\ZHANGM~1\AppData\Local\Temp\ccWWGwEp.s 			page 32


 528:.\display.c   ****             if(DisFlag.wifilinkingsign)
 529:.\display.c   ****             {
 530:.\display.c   ****                 LedPannelBuf[N14_CON] &= ~(1 << N14);
 531:.\display.c   ****             }else
 532:.\display.c   ****             {  
 533:.\display.c   ****                 LedPannelBuf[N14_CON] |= (1 << N14);
 534:.\display.c   ****             }
 535:.\display.c   ****         }
 536:.\display.c   ****         else
 537:.\display.c   ****         {
 538:.\display.c   ****            if(DisFlag.sta)
 539:.\display.c   ****             {
 540:.\display.c   ****                 LedPannelBuf[N14_CON] &= ~(1 << N14);
 541:.\display.c   ****             }else
 542:.\display.c   ****             {
 543:.\display.c   ****                 LedPannelBuf[N14_CON] |= (1 << N14);
 544:.\display.c   ****             }
 545:.\display.c   ****         }
 546:.\display.c   ****         if(DisFlag.working)
 547:.\display.c   ****         {
 548:.\display.c   ****             LedPannelBuf[N3_CON] &= ~(1 << N3);
 549:.\display.c   ****             LedPannelBuf[N4_CON] &= ~(1 << N4);
 550:.\display.c   ****         }else
 551:.\display.c   ****         {
 552:.\display.c   ****             LedPannelBuf[N3_CON] |= (1 << N3);
 553:.\display.c   ****             LedPannelBuf[N4_CON] |= (1 << N4);
 554:.\display.c   ****         }
 555:.\display.c   ****         if(DisFlag.workingsignflash == 0)
 556:.\display.c   ****         {
 557:.\display.c   ****             
 558:.\display.c   ****             if(DisFlag.workingsign)
 559:.\display.c   ****             {
 560:.\display.c   ****                 LedPannelBuf[N1_CON] &= ~(1 << N1);
 561:.\display.c   ****                 LedPannelBuf[N2_CON] &= ~(1 << N2);
 562:.\display.c   ****             }else
 563:.\display.c   ****             {  
 564:.\display.c   ****                 LedPannelBuf[N1_CON] |= (1 << N1);
 565:.\display.c   ****                 LedPannelBuf[N2_CON] |= (1 << N2);
 566:.\display.c   ****             }
 567:.\display.c   ****         }else
 568:.\display.c   ****         {
 569:.\display.c   ****            if(DisFlag.sta)
 570:.\display.c   ****             {
 571:.\display.c   ****                 LedPannelBuf[N1_CON] &= ~(1 << N1);
 572:.\display.c   ****                 LedPannelBuf[N2_CON] &= ~(1 << N2);
 573:.\display.c   ****             }else
 574:.\display.c   ****             {
 575:.\display.c   ****                 LedPannelBuf[N1_CON] |= (1 << N1);
 576:.\display.c   ****                 LedPannelBuf[N2_CON] |= (1 << N2);
 577:.\display.c   ****             }
 578:.\display.c   ****         }
 579:.\display.c   ****         
 580:.\display.c   ****         if(DisFlag.outofwater)
 581:.\display.c   ****         {
 582:.\display.c   ****             LedPannelBuf[N5_CON] &= ~(1 << N5);
 583:.\display.c   ****             LedPannelBuf[N6_CON] &= ~(1 << N6);
 584:.\display.c   ****         }else
ARM GAS  C:\Users\ZHANGM~1\AppData\Local\Temp\ccWWGwEp.s 			page 33


 585:.\display.c   ****         {
 586:.\display.c   ****             LedPannelBuf[N5_CON] |= (1 << N5);
 587:.\display.c   ****             LedPannelBuf[N6_CON] |= (1 << N6);
 588:.\display.c   ****         }
 589:.\display.c   ****         if(DisFlag.outofwatersignflash == 0)
 590:.\display.c   ****         {
 591:.\display.c   ****             if(DisFlag.outofwatersign)
 592:.\display.c   ****             {
 593:.\display.c   ****                 LedPannelBuf[P3_CON] &= ~(1 << P3);
 594:.\display.c   ****                 LedPannelBuf[P4_CON] &= ~(1 << P4);
 595:.\display.c   ****             }else
 596:.\display.c   ****             {
 597:.\display.c   ****                 LedPannelBuf[P3_CON] |= (1 << P3);
 598:.\display.c   ****                 LedPannelBuf[P4_CON] |= (1 << P4);
 599:.\display.c   ****             }
 600:.\display.c   ****         }else
 601:.\display.c   ****         {
 602:.\display.c   ****             if(DisFlag.sta)
 603:.\display.c   ****             {
 604:.\display.c   ****                 LedPannelBuf[P3_CON] &= ~(1 << P3);
 605:.\display.c   ****                 LedPannelBuf[P4_CON] &= ~(1 << P4);
 606:.\display.c   ****             }else
 607:.\display.c   ****             {
 608:.\display.c   ****                 LedPannelBuf[P3_CON] |= (1 << P3);
 609:.\display.c   ****                 LedPannelBuf[P4_CON] |= (1 << P4);
 610:.\display.c   ****             }
 611:.\display.c   ****         }
 612:.\display.c   ****         
 613:.\display.c   ****         if(DisFlag.cleaning)
 614:.\display.c   ****         {
 615:.\display.c   ****             LedPannelBuf[N7_CON] &= ~(1 << N7);
 616:.\display.c   ****             LedPannelBuf[N8_CON] &= ~(1 << N8);
 617:.\display.c   ****         }else
 618:.\display.c   ****         {
 619:.\display.c   ****             LedPannelBuf[N7_CON] |= (1 << N7);
 620:.\display.c   ****             LedPannelBuf[N8_CON] |= (1 << N8);
 621:.\display.c   ****         }
 622:.\display.c   ****         
 623:.\display.c   ****         if(DisFlag.cleaningsignflash == 0)
 624:.\display.c   ****         {
 625:.\display.c   ****             if(DisFlag.cleaningsign)
 626:.\display.c   ****             {
 627:.\display.c   ****                 LedPannelBuf[N9_CON] &= ~(1 << N9);
 628:.\display.c   ****                 LedPannelBuf[N10_CON] &= ~(1 << N10);
 629:.\display.c   ****             }else
 630:.\display.c   ****             {
 631:.\display.c   ****                 LedPannelBuf[N9_CON] |= (1 << N9);
 632:.\display.c   ****                 LedPannelBuf[N10_CON] |= (1 << N10);
 633:.\display.c   ****             }
 634:.\display.c   ****         }else
 635:.\display.c   ****         {
 636:.\display.c   ****             if(DisFlag.sta)
 637:.\display.c   ****             {
 638:.\display.c   ****                 LedPannelBuf[N9_CON] &= ~(1 << N9);
 639:.\display.c   ****                 LedPannelBuf[N10_CON] &= ~(1 << N10);
 640:.\display.c   ****             }else
 641:.\display.c   ****             {
ARM GAS  C:\Users\ZHANGM~1\AppData\Local\Temp\ccWWGwEp.s 			page 34


 642:.\display.c   ****                 LedPannelBuf[N9_CON] |= (1 << N9);
 643:.\display.c   ****                 LedPannelBuf[N10_CON] |= (1 << N10);
 644:.\display.c   ****             }
 645:.\display.c   ****         }
 646:.\display.c   ****         
 647:.\display.c   ****         if(DisFlag.error)
 648:.\display.c   ****         {
 649:.\display.c   ****             LedPannelBuf[N11_CON] &= ~(1 << N11);
 650:.\display.c   ****             LedPannelBuf[N12_CON] &= ~(1 << N12);
 651:.\display.c   ****         }else
 652:.\display.c   ****         {
 653:.\display.c   ****             LedPannelBuf[N11_CON] |= (1 << N11);
 654:.\display.c   ****             LedPannelBuf[N12_CON] |= (1 << N12);
 655:.\display.c   ****         }
 656:.\display.c   ****         
 657:.\display.c   ****         if(DisFlag.errorsignflash == 0)
 658:.\display.c   ****         {
 659:.\display.c   ****             if(DisFlag.errorsign)
 660:.\display.c   ****             {
 661:.\display.c   ****                 LedPannelBuf[P1_CON] &= ~(1 << P1);
 662:.\display.c   ****                 LedPannelBuf[P2_CON] &= ~(1 << P2);
 663:.\display.c   ****             }else
 664:.\display.c   ****             {
 665:.\display.c   ****                 LedPannelBuf[P1_CON] |= (1 << P1);
 666:.\display.c   ****                 LedPannelBuf[P2_CON] |= (1 << P2);
 667:.\display.c   ****             }
 668:.\display.c   ****         }else
 669:.\display.c   ****         {
 670:.\display.c   ****             if(DisFlag.sta)
 671:.\display.c   ****             {
 672:.\display.c   ****                 LedPannelBuf[P1_CON] &= ~(1 << P1);
 673:.\display.c   ****                 LedPannelBuf[P2_CON] &= ~(1 << P2);
 674:.\display.c   ****             }else
 675:.\display.c   ****             {
 676:.\display.c   ****                 LedPannelBuf[P1_CON] |= (1 << P1);
 677:.\display.c   ****                 LedPannelBuf[P2_CON] |= (1 << P2);
 678:.\display.c   ****             }
 679:.\display.c   ****         }
 680:.\display.c   ****         
 681:.\display.c   ****         if(DisFlag.south)
 682:.\display.c   ****         {
 683:.\display.c   ****             LedPannelBuf[N13_CON] &= ~(1 << N13);
 684:.\display.c   ****         }else
 685:.\display.c   ****         {
 686:.\display.c   ****             LedPannelBuf[N13_CON] |= (1 << N13);
 687:.\display.c   ****         }
 688:.\display.c   ****         if(DisFlag.north)
 689:.\display.c   ****         {
 690:.\display.c   ****             LedPannelBuf[N15_CON] &= ~(1 << N15);
 691:.\display.c   ****         }else
 692:.\display.c   ****         {
 693:.\display.c   ****             LedPannelBuf[N15_CON] |= (1 << N15);
 694:.\display.c   ****         }
 695:.\display.c   ****         
 696:.\display.c   ****         if(DisFlag.jsll)
 697:.\display.c   ****         {
 698:.\display.c   ****             LedPannelBuf[N16_CON] &= ~(1 << N16);
ARM GAS  C:\Users\ZHANGM~1\AppData\Local\Temp\ccWWGwEp.s 			page 35


 699:.\display.c   ****             LedPannelBuf[N17_CON] &= ~(1 << N17);
 700:.\display.c   ****             LedPannelBuf[N18_CON] &= ~(1 << N18);
 701:.\display.c   ****             LedPannelBuf[N19_CON] &= ~(1 << N19);
 702:.\display.c   ****         }else
 703:.\display.c   ****         {
 704:.\display.c   ****             LedPannelBuf[N16_CON] |= (1 << N16);
 705:.\display.c   ****             LedPannelBuf[N17_CON] |= (1 << N17);
 706:.\display.c   ****             LedPannelBuf[N18_CON] |= (1 << N18);
 707:.\display.c   ****             LedPannelBuf[N19_CON] |= (1 << N19);
 708:.\display.c   ****         }
 709:.\display.c   ****         
 710:.\display.c   ****         if(DisFlag.slvxinflash == 0)//S,S
 711:.\display.c   ****         {                      
 712:.\display.c   ****         }
 713:.\display.c   ****         else
 714:.\display.c   ****         {
 715:.\display.c   ****             if(DisFlag.sta)
 716:.\display.c   ****             {
 717:.\display.c   ****                 LedPannelBuf[S_CON] |= (0x000003ff<<S_SHIFT);
 718:.\display.c   ****                 LedPannelBuf[S_CON] &= ~((0x000003ff >> (10))<<S_SHIFT);//
 719:.\display.c   ****             }else
 720:.\display.c   ****             {
 721:.\display.c   ****                 LedPannelBuf[S_CON] |= (0x000003ff<<S_SHIFT);
 722:.\display.c   ****                 LedPannelBuf[S_CON] &= ~((0x000003ff >> (0))<<S_SHIFT);//
 723:.\display.c   ****                 
 724:.\display.c   ****             }
 725:.\display.c   ****         }
 726:.\display.c   ****         
 727:.\display.c   ****         if(DisFlag.hlvxinflash == 0)//S,S
 728:.\display.c   ****         {        
 729:.\display.c   ****         }
 730:.\display.c   ****         else
 731:.\display.c   ****         {
 732:.\display.c   ****             if(DisFlag.sta)
 733:.\display.c   ****             {
 734:.\display.c   ****                 LedPannelBuf[H_CON] |= (0x000003ff<<H_SHIFT);
 735:.\display.c   ****                 LedPannelBuf[H_CON] &= ~((0x000003ff >> (10))<<H_SHIFT);//
 736:.\display.c   ****             }else
 737:.\display.c   ****             {
 738:.\display.c   ****                 LedPannelBuf[H_CON] |= (0x000003ff<<H_SHIFT);
 739:.\display.c   ****                 LedPannelBuf[H_CON] &= ~((0x000003ff >> (0))<<H_SHIFT);//
 740:.\display.c   ****                 
 741:.\display.c   ****             }
 742:.\display.c   ****         }
 743:.\display.c   ****         if(DisFlag.jlvxinflash == 0)//S,S
 744:.\display.c   ****         {
 745:.\display.c   ****         }
 746:.\display.c   ****         else
 747:.\display.c   ****         {
 748:.\display.c   ****             if(DisFlag.sta)
 749:.\display.c   ****             {
 750:.\display.c   ****                 LedPannelBuf[J_CON] |= (0x000003ff<<J_SHIFT);
 751:.\display.c   ****                 LedPannelBuf[J_CON] &= ~((0x000003ff >> (10))<<J_SHIFT);//
 752:.\display.c   ****             }else
 753:.\display.c   ****             {
 754:.\display.c   ****                 LedPannelBuf[J_CON] |= (0x000003ff<<J_SHIFT);
 755:.\display.c   ****                 LedPannelBuf[J_CON] &= ~((0x000003ff >> (0))<<J_SHIFT);//
ARM GAS  C:\Users\ZHANGM~1\AppData\Local\Temp\ccWWGwEp.s 			page 36


 756:.\display.c   ****                 
 757:.\display.c   ****             }
 758:.\display.c   ****         }
 759:.\display.c   ****         if(DisFlag.klvxinflash == 0)//S,S
 760:.\display.c   ****         {
 761:.\display.c   ****            
 762:.\display.c   ****            
 763:.\display.c   ****         }
 764:.\display.c   ****         else
 765:.\display.c   ****         {
 766:.\display.c   ****             if(DisFlag.sta)
 767:.\display.c   ****             {
 768:.\display.c   ****                 LedPannelBuf[K_CON] |= (0x000003ff<<K_SHIFT);
 769:.\display.c   ****                 LedPannelBuf[K_CON] &= ~((0x000003ff >> (10))<<K_SHIFT);//
 770:.\display.c   ****             }else
 771:.\display.c   ****             {
 772:.\display.c   ****                 LedPannelBuf[K_CON] |= (0x000003ff<<K_SHIFT);
 773:.\display.c   ****                 LedPannelBuf[K_CON] &= ~((0x000003ff >> (0))<<K_SHIFT);//
 774:.\display.c   ****                 
 775:.\display.c   ****             }
 776:.\display.c   ****         }
 777:.\display.c   ****         
 778:.\display.c   ****         if(DisFlag.llvxinflash == 0)//S,S
 779:.\display.c   ****         {          
 780:.\display.c   ****         }
 781:.\display.c   ****         else
 782:.\display.c   ****         {
 783:.\display.c   ****             if(DisFlag.sta)
 784:.\display.c   ****             {
 785:.\display.c   ****                 LedPannelBuf[L_CON] |= (0x000003ff<<L_SHIFT);
 786:.\display.c   ****                 LedPannelBuf[L_CON] &= ~((0x000003ff >> (10))<<L_SHIFT);//
 787:.\display.c   ****             }else
 788:.\display.c   ****             {
 789:.\display.c   ****                 LedPannelBuf[L_CON] |= (0x000003ff<<L_SHIFT);
 790:.\display.c   ****                 LedPannelBuf[L_CON] &= ~((0x000003ff >> (0))<<L_SHIFT);//
 791:.\display.c   ****                 
 792:.\display.c   ****             }
 793:.\display.c   ****         }
 794:.\display.c   ****         if(DisFlag.mlvxinflash == 0)//S,S
 795:.\display.c   ****         {
 796:.\display.c   ****            
 797:.\display.c   ****            
 798:.\display.c   ****         }
 799:.\display.c   ****         else
 800:.\display.c   ****         {
 801:.\display.c   ****             if(DisFlag.sta)
 802:.\display.c   ****             {
 803:.\display.c   ****                 LedPannelBuf[M_CON] |= (0x000003ff<<M_SHIFT);
 804:.\display.c   ****                 LedPannelBuf[M_CON] &= ~((0x000003ff >> (10))<<M_SHIFT);//
 805:.\display.c   ****             }else
 806:.\display.c   ****             {
 807:.\display.c   ****                 LedPannelBuf[M_CON] |= (0x000003ff<<M_SHIFT);
 808:.\display.c   ****                 LedPannelBuf[M_CON] &= ~((0x000003ff >> (0))<<M_SHIFT);//
 809:.\display.c   ****                 
 810:.\display.c   ****             }
 811:.\display.c   ****         }
 812:.\display.c   ****        
ARM GAS  C:\Users\ZHANGM~1\AppData\Local\Temp\ccWWGwEp.s 			page 37


 813:.\display.c   ****     }    
 814:.\display.c   ****         
 815:.\display.c   **** }
 816:.\display.c   **** 
 817:.\display.c   **** void display8888(uint16 Value)
 818:.\display.c   **** {   
 967              		.loc 1 818 0
 968              		.cfi_startproc
 969              	.LVL59:
 970 0000 38B5     		push	{r3, r4, r5, lr}
 971              	.LCFI3:
 972              		.cfi_def_cfa_offset 16
 973              		.cfi_offset 3, -16
 974              		.cfi_offset 4, -12
 975              		.cfi_offset 5, -8
 976              		.cfi_offset 14, -4
 819:.\display.c   **** 	  unsigned char lpu1;
 820:.\display.c   ****     unsigned int lpu2;
 821:.\display.c   ****     lpu2 = Value;
 822:.\display.c   ****     DisFlag.errorsignflash=0;//
 977              		.loc 1 822 0
 978 0002 184B     		ldr	r3, .L58
 979 0004 7F22     		mov	r2, #127
 980 0006 9978     		ldrb	r1, [r3, #2]
 818:.\display.c   **** {   
 981              		.loc 1 818 0
 982 0008 041C     		mov	r4, r0
 983              		.loc 1 822 0
 984 000a 0A40     		and	r2, r1
 985 000c 9A70     		strb	r2, [r3, #2]
 986              	.LVL60:
 823:.\display.c   ****     lpu1 = lpu2 % 10;
 824:.\display.c   ****     lpu2 /= 10;
 987              		.loc 1 824 0
 988 000e 0A21     		mov	r1, #10
 989 0010 FFF7FEFF 		bl	__aeabi_uidiv
 990              	.LVL61:
 823:.\display.c   ****     lpu1 = lpu2 % 10;
 991              		.loc 1 823 0
 992 0014 0A21     		mov	r1, #10
 993              		.loc 1 824 0
 994 0016 051C     		mov	r5, r0
 995              	.LVL62:
 823:.\display.c   ****     lpu1 = lpu2 % 10;
 996              		.loc 1 823 0
 997 0018 201C     		mov	r0, r4
 998              	.LVL63:
 999 001a FFF7FEFF 		bl	__aeabi_uidivmod
 1000              	.LVL64:
 825:.\display.c   ****     Led_Digital_Trans(DIG4,lpu1);
 1001              		.loc 1 825 0
 1002 001e 0E20     		mov	r0, #14
 1003 0020 C9B2     		uxtb	r1, r1
 1004 0022 FFF7FEFF 		bl	Led_Digital_Trans
 1005              	.LVL65:
 826:.\display.c   ****     lpu1 = lpu2 % 10;
 827:.\display.c   ****     lpu2 /= 10;
ARM GAS  C:\Users\ZHANGM~1\AppData\Local\Temp\ccWWGwEp.s 			page 38


 1006              		.loc 1 827 0
 1007 0026 281C     		mov	r0, r5
 1008 0028 0A21     		mov	r1, #10
 1009 002a FFF7FEFF 		bl	__aeabi_uidiv
 1010              	.LVL66:
 826:.\display.c   ****     lpu1 = lpu2 % 10;
 1011              		.loc 1 826 0
 1012 002e 0A21     		mov	r1, #10
 1013              		.loc 1 827 0
 1014 0030 041C     		mov	r4, r0
 1015              	.LVL67:
 826:.\display.c   ****     lpu1 = lpu2 % 10;
 1016              		.loc 1 826 0
 1017 0032 281C     		mov	r0, r5
 1018              	.LVL68:
 1019 0034 FFF7FEFF 		bl	__aeabi_uidivmod
 1020              	.LVL69:
 828:.\display.c   ****     Led_Digital_Trans(DIG3,lpu1);
 1021              		.loc 1 828 0
 1022 0038 0F20     		mov	r0, #15
 1023 003a C9B2     		uxtb	r1, r1
 1024 003c FFF7FEFF 		bl	Led_Digital_Trans
 1025              	.LVL70:
 829:.\display.c   ****     lpu1 = lpu2 % 10;
 1026              		.loc 1 829 0
 1027 0040 201C     		mov	r0, r4
 1028 0042 0A21     		mov	r1, #10
 1029 0044 FFF7FEFF 		bl	__aeabi_uidivmod
 1030              	.LVL71:
 830:.\display.c   ****     lpu2 /= 10;
 831:.\display.c   ****     Led_Digital_Trans(DIG2,lpu1);  
 1031              		.loc 1 831 0
 1032 0048 1020     		mov	r0, #16
 1033 004a C9B2     		uxtb	r1, r1
 1034 004c FFF7FEFF 		bl	Led_Digital_Trans
 1035              	.LVL72:
 830:.\display.c   ****     lpu2 /= 10;
 1036              		.loc 1 830 0
 1037 0050 201C     		mov	r0, r4
 1038 0052 0A21     		mov	r1, #10
 1039 0054 FFF7FEFF 		bl	__aeabi_uidiv
 1040              	.LVL73:
 832:.\display.c   ****     lpu1 = lpu2;
 833:.\display.c   ****     Led_Digital_Trans(DIG1,lpu1);
 1041              		.loc 1 833 0
 1042 0058 C1B2     		uxtb	r1, r0
 1043 005a 1120     		mov	r0, #17
 1044 005c FFF7FEFF 		bl	Led_Digital_Trans
 1045              	.LVL74:
 834:.\display.c   ****      
 835:.\display.c   **** 	
 836:.\display.c   **** }
 1046              		.loc 1 836 0
 1047              		@ sp needed for prologue
 1048              	.LVL75:
 1049 0060 38BD     		pop	{r3, r4, r5, pc}
 1050              	.L59:
ARM GAS  C:\Users\ZHANGM~1\AppData\Local\Temp\ccWWGwEp.s 			page 39


 1051 0062 C046     		.align	2
 1052              	.L58:
 1053 0064 00000000 		.word	DisFlag
 1054              		.cfi_endproc
 1055              	.LFE37:
 1056              		.size	display8888, .-display8888
 1057              		.section	.text.Led_Pannel_Updata,"ax",%progbits
 1058              		.align	1
 1059              		.global	Led_Pannel_Updata
 1060              		.code	16
 1061              		.thumb_func
 1062              		.type	Led_Pannel_Updata, %function
 1063              	Led_Pannel_Updata:
 1064              	.LFB36:
 294:.\display.c   **** {
 1065              		.loc 1 294 0
 1066              		.cfi_startproc
 1067 0000 F0B5     		push	{r4, r5, r6, r7, lr}
 1068              	.LCFI4:
 1069              		.cfi_def_cfa_offset 20
 1070              		.cfi_offset 4, -20
 1071              		.cfi_offset 5, -16
 1072              		.cfi_offset 6, -12
 1073              		.cfi_offset 7, -8
 1074              		.cfi_offset 14, -4
 295:.\display.c   ****     if(Error_Data.bit.Error_00_flag)//2
 1075              		.loc 1 295 0
 1076 0002 D34D     		ldr	r5, .L197
 1077 0004 0126     		mov	r6, #1
 1078 0006 2B78     		ldrb	r3, [r5]
 294:.\display.c   **** {
 1079              		.loc 1 294 0
 1080 0008 85B0     		sub	sp, sp, #20
 1081              	.LCFI5:
 1082              		.cfi_def_cfa_offset 40
 1083 000a D24C     		ldr	r4, .L197+4
 295:.\display.c   ****     if(Error_Data.bit.Error_00_flag)//2
 1084              		.loc 1 295 0
 1085 000c 3342     		tst	r3, r6
 1086 000e 68D0     		beq	.L61
 302:.\display.c   ****         PWM_Start();//
 1087              		.loc 1 302 0
 1088 0010 FFF7FEFF 		bl	PWM_Start
 1089              	.LVL76:
 304:.\display.c   ****         Led_Digital_Trans(DIG3,14);
 1090              		.loc 1 304 0
 1091 0014 0F20     		mov	r0, #15
 1092 0016 0E21     		mov	r1, #14
 1093 0018 FFF7FEFF 		bl	Led_Digital_Trans
 1094              	.LVL77:
 308:.\display.c   ****         Led_Digital_Trans(DIG4,0);
 1095              		.loc 1 308 0
 1096 001c 0E20     		mov	r0, #14
 1097 001e 0021     		mov	r1, #0
 1098 0020 FFF7FEFF 		bl	Led_Digital_Trans
 1099              	.LVL78:
 310:.\display.c   ****         LedPannelBuf[0]|=0x00030000;
ARM GAS  C:\Users\ZHANGM~1\AppData\Local\Temp\ccWWGwEp.s 			page 40


 1100              		.loc 1 310 0
 1101 0024 C022     		mov	r2, #192
 1102 0026 9302     		lsl	r3, r2, #10
 1103 0028 2768     		ldr	r7, [r4]
 1104 002a 1D1C     		mov	r5, r3
 1105 002c 3D43     		orr	r5, r7
 311:.\display.c   ****         LedPannelBuf[1]|=0x00030000;
 1106              		.loc 1 311 0
 1107 002e 6668     		ldr	r6, [r4, #4]
 310:.\display.c   ****         LedPannelBuf[0]|=0x00030000;
 1108              		.loc 1 310 0
 1109 0030 2560     		str	r5, [r4]
 311:.\display.c   ****         LedPannelBuf[1]|=0x00030000;
 1110              		.loc 1 311 0
 1111 0032 181C     		mov	r0, r3
 312:.\display.c   ****         LedPannelBuf[2]|=0x00030000;
 1112              		.loc 1 312 0
 1113 0034 A568     		ldr	r5, [r4, #8]
 311:.\display.c   ****         LedPannelBuf[1]|=0x00030000;
 1114              		.loc 1 311 0
 1115 0036 3043     		orr	r0, r6
 312:.\display.c   ****         LedPannelBuf[2]|=0x00030000;
 1116              		.loc 1 312 0
 1117 0038 191C     		mov	r1, r3
 1118 003a 2943     		orr	r1, r5
 311:.\display.c   ****         LedPannelBuf[1]|=0x00030000;
 1119              		.loc 1 311 0
 1120 003c 6060     		str	r0, [r4, #4]
 313:.\display.c   ****         LedPannelBuf[3]|=0x00030000;
 1121              		.loc 1 313 0
 1122 003e E068     		ldr	r0, [r4, #12]
 312:.\display.c   ****         LedPannelBuf[2]|=0x00030000;
 1123              		.loc 1 312 0
 1124 0040 A160     		str	r1, [r4, #8]
 313:.\display.c   ****         LedPannelBuf[3]|=0x00030000;
 1125              		.loc 1 313 0
 1126 0042 1A1C     		mov	r2, r3
 314:.\display.c   ****         LedPannelBuf[4]|=0x00030000;
 1127              		.loc 1 314 0
 1128 0044 2169     		ldr	r1, [r4, #16]
 313:.\display.c   ****         LedPannelBuf[3]|=0x00030000;
 1129              		.loc 1 313 0
 1130 0046 0243     		orr	r2, r0
 1131 0048 E260     		str	r2, [r4, #12]
 314:.\display.c   ****         LedPannelBuf[4]|=0x00030000;
 1132              		.loc 1 314 0
 1133 004a 0A1C     		mov	r2, r1
 1134 004c 1A43     		orr	r2, r3
 1135 004e 0391     		str	r1, [sp, #12]
 315:.\display.c   ****         LedPannelBuf[5]|=0x00030000;
 1136              		.loc 1 315 0
 1137 0050 6169     		ldr	r1, [r4, #20]
 314:.\display.c   ****         LedPannelBuf[4]|=0x00030000;
 1138              		.loc 1 314 0
 1139 0052 2261     		str	r2, [r4, #16]
 316:.\display.c   ****         LedPannelBuf[6]|=0x00030000;
 1140              		.loc 1 316 0
ARM GAS  C:\Users\ZHANGM~1\AppData\Local\Temp\ccWWGwEp.s 			page 41


 1141 0054 A269     		ldr	r2, [r4, #24]
 315:.\display.c   ****         LedPannelBuf[5]|=0x00030000;
 1142              		.loc 1 315 0
 1143 0056 0191     		str	r1, [sp, #4]
 1144 0058 1943     		orr	r1, r3
 1145 005a 6161     		str	r1, [r4, #20]
 316:.\display.c   ****         LedPannelBuf[6]|=0x00030000;
 1146              		.loc 1 316 0
 1147 005c 9446     		mov	ip, r2
 1148 005e 111C     		mov	r1, r2
 323:.\display.c   ****         if(eroorcnt<5)
 1149              		.loc 1 323 0
 1150 0060 BD4A     		ldr	r2, .L197+8
 316:.\display.c   ****         LedPannelBuf[6]|=0x00030000;
 1151              		.loc 1 316 0
 1152 0062 1943     		orr	r1, r3
 323:.\display.c   ****         if(eroorcnt<5)
 1153              		.loc 1 323 0
 1154 0064 1288     		ldrh	r2, [r2]
 316:.\display.c   ****         LedPannelBuf[6]|=0x00030000;
 1155              		.loc 1 316 0
 1156 0066 A161     		str	r1, [r4, #24]
 323:.\display.c   ****         if(eroorcnt<5)
 1157              		.loc 1 323 0
 1158 0068 042A     		cmp	r2, #4
 1159 006a 10D8     		bhi	.L62
 325:.\display.c   ****             LedPannelBuf[0]|=0x00001fff;
 1160              		.loc 1 325 0
 1161 006c BB4B     		ldr	r3, .L197+12
 329:.\display.c   ****             LedPannelBuf[4]|=0x00001fff;
 1162              		.loc 1 329 0
 1163 006e 039A     		ldr	r2, [sp, #12]
 328:.\display.c   ****             LedPannelBuf[3]|=0x00001fff;
 1164              		.loc 1 328 0
 1165 0070 1843     		orr	r0, r3
 1166 0072 E060     		str	r0, [r4, #12]
 330:.\display.c   ****             LedPannelBuf[5]|=0x00001fff;
 1167              		.loc 1 330 0
 1168 0074 0198     		ldr	r0, [sp, #4]
 327:.\display.c   ****             LedPannelBuf[2]|=0x00001fff;
 1169              		.loc 1 327 0
 1170 0076 1D43     		orr	r5, r3
 325:.\display.c   ****             LedPannelBuf[0]|=0x00001fff;
 1171              		.loc 1 325 0
 1172 0078 1F43     		orr	r7, r3
 326:.\display.c   ****             LedPannelBuf[1]|=0x00001fff;
 1173              		.loc 1 326 0
 1174 007a 1E43     		orr	r6, r3
 329:.\display.c   ****             LedPannelBuf[4]|=0x00001fff;
 1175              		.loc 1 329 0
 1176 007c 1A43     		orr	r2, r3
 330:.\display.c   ****             LedPannelBuf[5]|=0x00001fff;
 1177              		.loc 1 330 0
 1178 007e 1843     		orr	r0, r3
 327:.\display.c   ****             LedPannelBuf[2]|=0x00001fff;
 1179              		.loc 1 327 0
 1180 0080 A560     		str	r5, [r4, #8]
ARM GAS  C:\Users\ZHANGM~1\AppData\Local\Temp\ccWWGwEp.s 			page 42


 325:.\display.c   ****             LedPannelBuf[0]|=0x00001fff;
 1181              		.loc 1 325 0
 1182 0082 2760     		str	r7, [r4]
 326:.\display.c   ****             LedPannelBuf[1]|=0x00001fff;
 1183              		.loc 1 326 0
 1184 0084 6660     		str	r6, [r4, #4]
 329:.\display.c   ****             LedPannelBuf[4]|=0x00001fff;
 1185              		.loc 1 329 0
 1186 0086 2261     		str	r2, [r4, #16]
 330:.\display.c   ****             LedPannelBuf[5]|=0x00001fff;
 1187              		.loc 1 330 0
 1188 0088 6061     		str	r0, [r4, #20]
 331:.\display.c   ****             LedPannelBuf[6]|=0x00001fff;
 1189              		.loc 1 331 0
 1190 008a 6546     		mov	r5, ip
 1191 008c 1FE0     		b	.L194
 1192              	.L62:
 334:.\display.c   ****         else if(eroorcnt>5&&eroorcnt<=10)
 1193              		.loc 1 334 0
 1194 008e 911F     		sub	r1, r2, #6
 1195 0090 0429     		cmp	r1, #4
 1196 0092 1FD8     		bhi	.L64
 336:.\display.c   ****             LedPannelBuf[0]&=0xffffe000;
 1197              		.loc 1 336 0
 1198 0094 7A0B     		lsr	r2, r7, #13
 338:.\display.c   ****             LedPannelBuf[2]&=0xffffe000;
 1199              		.loc 1 338 0
 1200 0096 6D0B     		lsr	r5, r5, #13
 336:.\display.c   ****             LedPannelBuf[0]&=0xffffe000;
 1201              		.loc 1 336 0
 1202 0098 5103     		lsl	r1, r2, #13
 338:.\display.c   ****             LedPannelBuf[2]&=0xffffe000;
 1203              		.loc 1 338 0
 1204 009a 6A03     		lsl	r2, r5, #13
 337:.\display.c   ****             LedPannelBuf[1]&=0xffffe000;
 1205              		.loc 1 337 0
 1206 009c 760B     		lsr	r6, r6, #13
 338:.\display.c   ****             LedPannelBuf[2]&=0xffffe000;
 1207              		.loc 1 338 0
 1208 009e 1A43     		orr	r2, r3
 336:.\display.c   ****             LedPannelBuf[0]&=0xffffe000;
 1209              		.loc 1 336 0
 1210 00a0 1943     		orr	r1, r3
 337:.\display.c   ****             LedPannelBuf[1]&=0xffffe000;
 1211              		.loc 1 337 0
 1212 00a2 7703     		lsl	r7, r6, #13
 339:.\display.c   ****             LedPannelBuf[3]&=0xffffe000;
 1213              		.loc 1 339 0
 1214 00a4 400B     		lsr	r0, r0, #13
 340:.\display.c   ****             LedPannelBuf[4]&=0xffffe000;
 1215              		.loc 1 340 0
 1216 00a6 039E     		ldr	r6, [sp, #12]
 338:.\display.c   ****             LedPannelBuf[2]&=0xffffe000;
 1217              		.loc 1 338 0
 1218 00a8 A260     		str	r2, [r4, #8]
 341:.\display.c   ****             LedPannelBuf[5]&=0xffffe000;
 1219              		.loc 1 341 0
ARM GAS  C:\Users\ZHANGM~1\AppData\Local\Temp\ccWWGwEp.s 			page 43


 1220 00aa 019A     		ldr	r2, [sp, #4]
 337:.\display.c   ****             LedPannelBuf[1]&=0xffffe000;
 1221              		.loc 1 337 0
 1222 00ac 1F43     		orr	r7, r3
 336:.\display.c   ****             LedPannelBuf[0]&=0xffffe000;
 1223              		.loc 1 336 0
 1224 00ae 2160     		str	r1, [r4]
 339:.\display.c   ****             LedPannelBuf[3]&=0xffffe000;
 1225              		.loc 1 339 0
 1226 00b0 4103     		lsl	r1, r0, #13
 1227 00b2 1943     		orr	r1, r3
 337:.\display.c   ****             LedPannelBuf[1]&=0xffffe000;
 1228              		.loc 1 337 0
 1229 00b4 6760     		str	r7, [r4, #4]
 341:.\display.c   ****             LedPannelBuf[5]&=0xffffe000;
 1230              		.loc 1 341 0
 1231 00b6 500B     		lsr	r0, r2, #13
 340:.\display.c   ****             LedPannelBuf[4]&=0xffffe000;
 1232              		.loc 1 340 0
 1233 00b8 770B     		lsr	r7, r6, #13
 1234 00ba 7D03     		lsl	r5, r7, #13
 339:.\display.c   ****             LedPannelBuf[3]&=0xffffe000;
 1235              		.loc 1 339 0
 1236 00bc E160     		str	r1, [r4, #12]
 342:.\display.c   ****             LedPannelBuf[6]&=0xffffe000;
 1237              		.loc 1 342 0
 1238 00be 6646     		mov	r6, ip
 341:.\display.c   ****             LedPannelBuf[5]&=0xffffe000;
 1239              		.loc 1 341 0
 1240 00c0 4103     		lsl	r1, r0, #13
 340:.\display.c   ****             LedPannelBuf[4]&=0xffffe000;
 1241              		.loc 1 340 0
 1242 00c2 1D43     		orr	r5, r3
 341:.\display.c   ****             LedPannelBuf[5]&=0xffffe000;
 1243              		.loc 1 341 0
 1244 00c4 1943     		orr	r1, r3
 342:.\display.c   ****             LedPannelBuf[6]&=0xffffe000;
 1245              		.loc 1 342 0
 1246 00c6 770B     		lsr	r7, r6, #13
 340:.\display.c   ****             LedPannelBuf[4]&=0xffffe000;
 1247              		.loc 1 340 0
 1248 00c8 2561     		str	r5, [r4, #16]
 341:.\display.c   ****             LedPannelBuf[5]&=0xffffe000;
 1249              		.loc 1 341 0
 1250 00ca 6161     		str	r1, [r4, #20]
 342:.\display.c   ****             LedPannelBuf[6]&=0xffffe000;
 1251              		.loc 1 342 0
 1252 00cc 7D03     		lsl	r5, r7, #13
 1253              	.L194:
 1254 00ce 2B43     		orr	r3, r5
 1255 00d0 A361     		str	r3, [r4, #24]
 1256 00d2 6CE2     		b	.L60
 1257              	.L64:
 347:.\display.c   ****          else if(eroorcnt>10)
 1258              		.loc 1 347 0
 1259 00d4 0A2A     		cmp	r2, #10
 1260 00d6 00D8     		bhi	.LCB1005
ARM GAS  C:\Users\ZHANGM~1\AppData\Local\Temp\ccWWGwEp.s 			page 44


 1261 00d8 69E2     		b	.L60	@long jump
 1262              	.LCB1005:
 348:.\display.c   ****             eroorcnt=0;
 1263              		.loc 1 348 0
 1264 00da 9F4F     		ldr	r7, .L197+8
 1265 00dc 0024     		mov	r4, #0
 1266 00de 3C80     		strh	r4, [r7]
 1267 00e0 65E2     		b	.L60
 1268              	.L61:
 358:.\display.c   ****       if(WorkFlag.error&&WorkFlag.zijiansta==1)//
 1269              		.loc 1 358 0
 1270 00e2 9F4A     		ldr	r2, .L197+16
 1271 00e4 9F48     		ldr	r0, .L197+20
 1272 00e6 1168     		ldr	r1, [r2]
 1273 00e8 0140     		and	r1, r0
 1274 00ea 8142     		cmp	r1, r0
 1275 00ec 58D1     		bne	.L66
 361:.\display.c   ****           if(Error_Data.bit.Error_02_flag==1&&Error_Data.bit.Error_01_flag==1) 
 1276              		.loc 1 361 0
 1277 00ee 0622     		mov	r2, #6
 1278 00f0 1A40     		and	r2, r3
 1279 00f2 062A     		cmp	r2, #6
 1280 00f4 10D1     		bne	.L67
 364:.\display.c   ****                 Led_Digital_Trans(DIG3,14);
 1281              		.loc 1 364 0
 1282 00f6 0F20     		mov	r0, #15
 1283 00f8 0E21     		mov	r1, #14
 1284 00fa FFF7FEFF 		bl	Led_Digital_Trans
 1285              	.LVL79:
 365:.\display.c   ****                 Led_Digital_Trans(DIG4,2);
 1286              		.loc 1 365 0
 1287 00fe 0E20     		mov	r0, #14
 1288 0100 0221     		mov	r1, #2
 1289 0102 FFF7FEFF 		bl	Led_Digital_Trans
 1290              	.LVL80:
 366:.\display.c   ****                 Led_Digital_Trans(DIG1,14);
 1291              		.loc 1 366 0
 1292 0106 1120     		mov	r0, #17
 1293 0108 0E21     		mov	r1, #14
 1294 010a FFF7FEFF 		bl	Led_Digital_Trans
 1295              	.LVL81:
 367:.\display.c   ****                 Led_Digital_Trans(DIG2,1);
 1296              		.loc 1 367 0
 1297 010e 1020     		mov	r0, #16
 1298 0110 311C     		mov	r1, r6
 1299 0112 FFF7FEFF 		bl	Led_Digital_Trans
 1300              	.LVL82:
 1301 0116 5FE0     		b	.L68
 1302              	.L67:
 375:.\display.c   ****                 if(Error_Data.bit.Error_02_flag==1)
 1303              		.loc 1 375 0
 1304 0118 5807     		lsl	r0, r3, #29
 1305 011a 1ED5     		bpl	.L69
 377:.\display.c   ****                     Led_Digital_Trans(DIG3,14);
 1306              		.loc 1 377 0
 1307 011c 0F20     		mov	r0, #15
 1308 011e 0E21     		mov	r1, #14
ARM GAS  C:\Users\ZHANGM~1\AppData\Local\Temp\ccWWGwEp.s 			page 45


 1309 0120 FFF7FEFF 		bl	Led_Digital_Trans
 1310              	.LVL83:
 378:.\display.c   ****                     Led_Digital_Trans(DIG4,2);
 1311              		.loc 1 378 0
 1312 0124 0E20     		mov	r0, #14
 1313 0126 0221     		mov	r1, #2
 1314 0128 FFF7FEFF 		bl	Led_Digital_Trans
 1315              	.LVL84:
 379:.\display.c   ****                     LedPannelBuf[0]|=0x00030000;
 1316              		.loc 1 379 0
 1317 012c C026     		mov	r6, #192
 1318 012e 2168     		ldr	r1, [r4]
 380:.\display.c   ****                     LedPannelBuf[1]|=0x00030000;
 1319              		.loc 1 380 0
 1320 0130 6768     		ldr	r7, [r4, #4]
 379:.\display.c   ****                     LedPannelBuf[0]|=0x00030000;
 1321              		.loc 1 379 0
 1322 0132 B002     		lsl	r0, r6, #10
 1323 0134 0143     		orr	r1, r0
 380:.\display.c   ****                     LedPannelBuf[1]|=0x00030000;
 1324              		.loc 1 380 0
 1325 0136 0743     		orr	r7, r0
 381:.\display.c   ****                     LedPannelBuf[2]|=0x00030000;
 1326              		.loc 1 381 0
 1327 0138 A368     		ldr	r3, [r4, #8]
 382:.\display.c   ****                     LedPannelBuf[3]|=0x00030000;//2
 1328              		.loc 1 382 0
 1329 013a E268     		ldr	r2, [r4, #12]
 383:.\display.c   ****                     LedPannelBuf[4]|=0x00030000;
 1330              		.loc 1 383 0
 1331 013c 2669     		ldr	r6, [r4, #16]
 379:.\display.c   ****                     LedPannelBuf[0]|=0x00030000;
 1332              		.loc 1 379 0
 1333 013e 2160     		str	r1, [r4]
 380:.\display.c   ****                     LedPannelBuf[1]|=0x00030000;
 1334              		.loc 1 380 0
 1335 0140 6760     		str	r7, [r4, #4]
 384:.\display.c   ****                     LedPannelBuf[5]|=0x00030000;
 1336              		.loc 1 384 0
 1337 0142 6169     		ldr	r1, [r4, #20]
 385:.\display.c   ****                     LedPannelBuf[6]|=0x00030000;
 1338              		.loc 1 385 0
 1339 0144 A769     		ldr	r7, [r4, #24]
 381:.\display.c   ****                     LedPannelBuf[2]|=0x00030000;
 1340              		.loc 1 381 0
 1341 0146 0343     		orr	r3, r0
 382:.\display.c   ****                     LedPannelBuf[3]|=0x00030000;//2
 1342              		.loc 1 382 0
 1343 0148 0243     		orr	r2, r0
 383:.\display.c   ****                     LedPannelBuf[4]|=0x00030000;
 1344              		.loc 1 383 0
 1345 014a 0643     		orr	r6, r0
 384:.\display.c   ****                     LedPannelBuf[5]|=0x00030000;
 1346              		.loc 1 384 0
 1347 014c 0143     		orr	r1, r0
 385:.\display.c   ****                     LedPannelBuf[6]|=0x00030000;
 1348              		.loc 1 385 0
ARM GAS  C:\Users\ZHANGM~1\AppData\Local\Temp\ccWWGwEp.s 			page 46


 1349 014e 3843     		orr	r0, r7
 381:.\display.c   ****                     LedPannelBuf[2]|=0x00030000;
 1350              		.loc 1 381 0
 1351 0150 A360     		str	r3, [r4, #8]
 382:.\display.c   ****                     LedPannelBuf[3]|=0x00030000;//2
 1352              		.loc 1 382 0
 1353 0152 E260     		str	r2, [r4, #12]
 383:.\display.c   ****                     LedPannelBuf[4]|=0x00030000;
 1354              		.loc 1 383 0
 1355 0154 2661     		str	r6, [r4, #16]
 384:.\display.c   ****                     LedPannelBuf[5]|=0x00030000;
 1356              		.loc 1 384 0
 1357 0156 6161     		str	r1, [r4, #20]
 385:.\display.c   ****                     LedPannelBuf[6]|=0x00030000;
 1358              		.loc 1 385 0
 1359 0158 A061     		str	r0, [r4, #24]
 1360              	.L69:
 388:.\display.c   ****                 if(Error_Data.bit.Error_01_flag==1)    
 1361              		.loc 1 388 0
 1362 015a 2D78     		ldrb	r5, [r5]
 1363 015c AA07     		lsl	r2, r5, #30
 1364 015e 3BD5     		bpl	.L68
 391:.\display.c   ****                     Led_Digital_Trans(DIG3,14);
 1365              		.loc 1 391 0
 1366 0160 0F20     		mov	r0, #15
 1367 0162 0E21     		mov	r1, #14
 1368 0164 FFF7FEFF 		bl	Led_Digital_Trans
 1369              	.LVL85:
 392:.\display.c   ****                     Led_Digital_Trans(DIG4,1);
 1370              		.loc 1 392 0
 1371 0168 0E20     		mov	r0, #14
 1372 016a 0121     		mov	r1, #1
 1373 016c FFF7FEFF 		bl	Led_Digital_Trans
 1374              	.LVL86:
 393:.\display.c   ****                     LedPannelBuf[0]|=0x00030000;
 1375              		.loc 1 393 0
 1376 0170 C020     		mov	r0, #192
 1377 0172 2268     		ldr	r2, [r4]
 1378 0174 8302     		lsl	r3, r0, #10
 1379 0176 1A43     		orr	r2, r3
 394:.\display.c   ****                     LedPannelBuf[1]|=0x00030000;
 1380              		.loc 1 394 0
 1381 0178 6668     		ldr	r6, [r4, #4]
 395:.\display.c   ****                     LedPannelBuf[2]|=0x00030000;
 1382              		.loc 1 395 0
 1383 017a A168     		ldr	r1, [r4, #8]
 396:.\display.c   ****                     LedPannelBuf[3]|=0x00030000;//2
 1384              		.loc 1 396 0
 1385 017c E768     		ldr	r7, [r4, #12]
 397:.\display.c   ****                     LedPannelBuf[4]|=0x00030000;
 1386              		.loc 1 397 0
 1387 017e 2569     		ldr	r5, [r4, #16]
 398:.\display.c   ****                     LedPannelBuf[5]|=0x00030000;
 1388              		.loc 1 398 0
 1389 0180 6069     		ldr	r0, [r4, #20]
 393:.\display.c   ****                     LedPannelBuf[0]|=0x00030000;
 1390              		.loc 1 393 0
ARM GAS  C:\Users\ZHANGM~1\AppData\Local\Temp\ccWWGwEp.s 			page 47


 1391 0182 2260     		str	r2, [r4]
 399:.\display.c   ****                     LedPannelBuf[6]|=0x00030000;   
 1392              		.loc 1 399 0
 1393 0184 A269     		ldr	r2, [r4, #24]
 394:.\display.c   ****                     LedPannelBuf[1]|=0x00030000;
 1394              		.loc 1 394 0
 1395 0186 1E43     		orr	r6, r3
 395:.\display.c   ****                     LedPannelBuf[2]|=0x00030000;
 1396              		.loc 1 395 0
 1397 0188 1943     		orr	r1, r3
 396:.\display.c   ****                     LedPannelBuf[3]|=0x00030000;//2
 1398              		.loc 1 396 0
 1399 018a 1F43     		orr	r7, r3
 397:.\display.c   ****                     LedPannelBuf[4]|=0x00030000;
 1400              		.loc 1 397 0
 1401 018c 1D43     		orr	r5, r3
 398:.\display.c   ****                     LedPannelBuf[5]|=0x00030000;
 1402              		.loc 1 398 0
 1403 018e 1843     		orr	r0, r3
 399:.\display.c   ****                     LedPannelBuf[6]|=0x00030000;   
 1404              		.loc 1 399 0
 1405 0190 1343     		orr	r3, r2
 394:.\display.c   ****                     LedPannelBuf[1]|=0x00030000;
 1406              		.loc 1 394 0
 1407 0192 6660     		str	r6, [r4, #4]
 395:.\display.c   ****                     LedPannelBuf[2]|=0x00030000;
 1408              		.loc 1 395 0
 1409 0194 A160     		str	r1, [r4, #8]
 396:.\display.c   ****                     LedPannelBuf[3]|=0x00030000;//2
 1410              		.loc 1 396 0
 1411 0196 E760     		str	r7, [r4, #12]
 397:.\display.c   ****                     LedPannelBuf[4]|=0x00030000;
 1412              		.loc 1 397 0
 1413 0198 2561     		str	r5, [r4, #16]
 398:.\display.c   ****                     LedPannelBuf[5]|=0x00030000;
 1414              		.loc 1 398 0
 1415 019a 6061     		str	r0, [r4, #20]
 399:.\display.c   ****                     LedPannelBuf[6]|=0x00030000;   
 1416              		.loc 1 399 0
 1417 019c A361     		str	r3, [r4, #24]
 1418 019e 1BE0     		b	.L68
 1419              	.L66:
 405:.\display.c   ****       else if(WorkFlag01.bit.tds_00_disp==1)
 1420              		.loc 1 405 0
 1421 01a0 714F     		ldr	r7, .L197+24
 1422 01a2 724D     		ldr	r5, .L197+28
 1423 01a4 3B78     		ldrb	r3, [r7]
 1424 01a6 3342     		tst	r3, r6
 1425 01a8 01D0     		beq	.L71
 407:.\display.c   **** 			    display8888(Value_Tds0);
 1426              		.loc 1 407 0
 1427 01aa 7148     		ldr	r0, .L197+32
 1428 01ac 02E0     		b	.L165
 1429              	.L71:
 410:.\display.c   **** 			else if(WorkFlag01.bit.tds_01_disp==1)
 1430              		.loc 1 410 0
 1431 01ae 9E07     		lsl	r6, r3, #30
ARM GAS  C:\Users\ZHANGM~1\AppData\Local\Temp\ccWWGwEp.s 			page 48


 1432 01b0 08D5     		bpl	.L72
 412:.\display.c   **** 			    display8888(Value_Tds1);
 1433              		.loc 1 412 0
 1434 01b2 7048     		ldr	r0, .L197+36
 1435              	.L165:
 1436 01b4 0088     		ldrh	r0, [r0]
 1437 01b6 FFF7FEFF 		bl	display8888
 1438              	.LVL87:
 413:.\display.c   **** 			    DisFlag.jsll=0;
 1439              		.loc 1 413 0
 1440 01ba 6F78     		ldrb	r7, [r5, #1]
 1441 01bc 0423     		mov	r3, #4
 1442 01be 9F43     		bic	r7, r3
 1443 01c0 6F70     		strb	r7, [r5, #1]
 1444 01c2 09E0     		b	.L68
 1445              	.L72:
 415:.\display.c   ****      	else if(WorkFlag01.bit.water_consumption_02_disp==1)																		//
 1446              		.loc 1 415 0
 1447 01c4 0426     		mov	r6, #4
 1448 01c6 3342     		tst	r3, r6
 1449 01c8 06D0     		beq	.L68
 417:.\display.c   **** 					display8888(jingshuiliang);
 1450              		.loc 1 417 0
 1451 01ca 6B4A     		ldr	r2, .L197+40
 1452 01cc 1088     		ldrh	r0, [r2]
 1453 01ce FFF7FEFF 		bl	display8888
 1454              	.LVL88:
 418:.\display.c   **** 					DisFlag.jsll=1;
 1455              		.loc 1 418 0
 1456 01d2 6978     		ldrb	r1, [r5, #1]
 1457 01d4 0E43     		orr	r6, r1
 1458 01d6 6E70     		strb	r6, [r5, #1]
 1459              	.L68:
 425:.\display.c   ****         LedPannelBuf[S_CON] &= ~((0x000003ff >> (10-SPercent))<<S_SHIFT);
 1460              		.loc 1 425 0
 1461 01d8 684B     		ldr	r3, .L197+44
 1462 01da 0A22     		mov	r2, #10
 1463 01dc 1E78     		ldrb	r6, [r3]
 1464 01de 684B     		ldr	r3, .L197+48
 1465 01e0 911B     		sub	r1, r2, r6
 1466 01e2 1F1C     		mov	r7, r3
 1467 01e4 0F41     		asr	r7, r7, r1
 1468 01e6 F800     		lsl	r0, r7, #3
 427:.\display.c   ****         LedPannelBuf[H_CON] &= ~((0x000003ff >> (10-HPercent))<<H_SHIFT);
 1469              		.loc 1 427 0
 1470 01e8 664F     		ldr	r7, .L197+52
 424:.\display.c   ****         LedPannelBuf[S_CON] |= (0x000003ff<<S_SHIFT);
 1471              		.loc 1 424 0
 1472 01ea 6749     		ldr	r1, .L197+56
 1473 01ec 2668     		ldr	r6, [r4]
 427:.\display.c   ****         LedPannelBuf[H_CON] &= ~((0x000003ff >> (10-HPercent))<<H_SHIFT);
 1474              		.loc 1 427 0
 1475 01ee 3D78     		ldrb	r5, [r7]
 424:.\display.c   ****         LedPannelBuf[S_CON] |= (0x000003ff<<S_SHIFT);
 1476              		.loc 1 424 0
 1477 01f0 0E43     		orr	r6, r1
 427:.\display.c   ****         LedPannelBuf[H_CON] &= ~((0x000003ff >> (10-HPercent))<<H_SHIFT);
ARM GAS  C:\Users\ZHANGM~1\AppData\Local\Temp\ccWWGwEp.s 			page 49


 1478              		.loc 1 427 0
 1479 01f2 1F1C     		mov	r7, r3
 425:.\display.c   ****         LedPannelBuf[S_CON] &= ~((0x000003ff >> (10-SPercent))<<S_SHIFT);
 1480              		.loc 1 425 0
 1481 01f4 8643     		bic	r6, r0
 427:.\display.c   ****         LedPannelBuf[H_CON] &= ~((0x000003ff >> (10-HPercent))<<H_SHIFT);
 1482              		.loc 1 427 0
 1483 01f6 501B     		sub	r0, r2, r5
 1484 01f8 0741     		asr	r7, r7, r0
 426:.\display.c   ****         LedPannelBuf[H_CON] |= (0x000003ff<<H_SHIFT);
 1485              		.loc 1 426 0
 1486 01fa 6568     		ldr	r5, [r4, #4]
 427:.\display.c   ****         LedPannelBuf[H_CON] &= ~((0x000003ff >> (10-HPercent))<<H_SHIFT);
 1487              		.loc 1 427 0
 1488 01fc F800     		lsl	r0, r7, #3
 429:.\display.c   ****         LedPannelBuf[J_CON] &= ~((0x000003ff >> (10-JPercent))<<J_SHIFT);
 1489              		.loc 1 429 0
 1490 01fe 634F     		ldr	r7, .L197+60
 426:.\display.c   ****         LedPannelBuf[H_CON] |= (0x000003ff<<H_SHIFT);
 1491              		.loc 1 426 0
 1492 0200 0D43     		orr	r5, r1
 427:.\display.c   ****         LedPannelBuf[H_CON] &= ~((0x000003ff >> (10-HPercent))<<H_SHIFT);
 1493              		.loc 1 427 0
 1494 0202 8543     		bic	r5, r0
 429:.\display.c   ****         LedPannelBuf[J_CON] &= ~((0x000003ff >> (10-JPercent))<<J_SHIFT);
 1495              		.loc 1 429 0
 1496 0204 3878     		ldrb	r0, [r7]
 1497 0206 171A     		sub	r7, r2, r0
 1498 0208 181C     		mov	r0, r3
 1499 020a 3841     		asr	r0, r0, r7
 1500 020c C700     		lsl	r7, r0, #3
 428:.\display.c   ****         LedPannelBuf[J_CON] |= (0x000003ff<<J_SHIFT);
 1501              		.loc 1 428 0
 1502 020e A068     		ldr	r0, [r4, #8]
 1503 0210 0843     		orr	r0, r1
 429:.\display.c   ****         LedPannelBuf[J_CON] &= ~((0x000003ff >> (10-JPercent))<<J_SHIFT);
 1504              		.loc 1 429 0
 1505 0212 B843     		bic	r0, r7
 431:.\display.c   ****         LedPannelBuf[K_CON] &= ~((0x000003ff >> (10-KPercent))<<K_SHIFT);
 1506              		.loc 1 431 0
 1507 0214 5E4F     		ldr	r7, .L197+64
 429:.\display.c   ****         LedPannelBuf[J_CON] &= ~((0x000003ff >> (10-JPercent))<<J_SHIFT);
 1508              		.loc 1 429 0
 1509 0216 0190     		str	r0, [sp, #4]
 431:.\display.c   ****         LedPannelBuf[K_CON] &= ~((0x000003ff >> (10-KPercent))<<K_SHIFT);
 1510              		.loc 1 431 0
 1511 0218 3878     		ldrb	r0, [r7]
 1512 021a 171A     		sub	r7, r2, r0
 1513 021c 181C     		mov	r0, r3
 1514 021e 3841     		asr	r0, r0, r7
 1515 0220 C700     		lsl	r7, r0, #3
 430:.\display.c   ****         LedPannelBuf[K_CON] |= (0x000003ff<<K_SHIFT);
 1516              		.loc 1 430 0
 1517 0222 E068     		ldr	r0, [r4, #12]
 1518 0224 0843     		orr	r0, r1
 431:.\display.c   ****         LedPannelBuf[K_CON] &= ~((0x000003ff >> (10-KPercent))<<K_SHIFT);
 1519              		.loc 1 431 0
ARM GAS  C:\Users\ZHANGM~1\AppData\Local\Temp\ccWWGwEp.s 			page 50


 1520 0226 B843     		bic	r0, r7
 433:.\display.c   ****         LedPannelBuf[L_CON] &= ~((0x000003ff >> (10-LPercent))<<L_SHIFT);
 1521              		.loc 1 433 0
 1522 0228 5A4F     		ldr	r7, .L197+68
 431:.\display.c   ****         LedPannelBuf[K_CON] &= ~((0x000003ff >> (10-KPercent))<<K_SHIFT);
 1523              		.loc 1 431 0
 1524 022a 0290     		str	r0, [sp, #8]
 433:.\display.c   ****         LedPannelBuf[L_CON] &= ~((0x000003ff >> (10-LPercent))<<L_SHIFT);
 1525              		.loc 1 433 0
 1526 022c 3878     		ldrb	r0, [r7]
 1527 022e 171A     		sub	r7, r2, r0
 1528 0230 181C     		mov	r0, r3
 1529 0232 3841     		asr	r0, r0, r7
 1530 0234 C700     		lsl	r7, r0, #3
 432:.\display.c   ****         LedPannelBuf[L_CON] |= (0x000003ff<<L_SHIFT);
 1531              		.loc 1 432 0
 1532 0236 2069     		ldr	r0, [r4, #16]
 1533 0238 0843     		orr	r0, r1
 433:.\display.c   ****         LedPannelBuf[L_CON] &= ~((0x000003ff >> (10-LPercent))<<L_SHIFT);
 1534              		.loc 1 433 0
 1535 023a B843     		bic	r0, r7
 435:.\display.c   ****         LedPannelBuf[M_CON] &= ~((0x000003ff >> (10-MPercent))<<M_SHIFT);
 1536              		.loc 1 435 0
 1537 023c 564F     		ldr	r7, .L197+72
 433:.\display.c   ****         LedPannelBuf[L_CON] &= ~((0x000003ff >> (10-LPercent))<<L_SHIFT);
 1538              		.loc 1 433 0
 1539 023e 8446     		mov	ip, r0
 435:.\display.c   ****         LedPannelBuf[M_CON] &= ~((0x000003ff >> (10-MPercent))<<M_SHIFT);
 1540              		.loc 1 435 0
 1541 0240 3878     		ldrb	r0, [r7]
 1542 0242 121A     		sub	r2, r2, r0
 434:.\display.c   ****         LedPannelBuf[M_CON] |= (0x000003ff<<M_SHIFT);
 1543              		.loc 1 434 0
 1544 0244 6069     		ldr	r0, [r4, #20]
 435:.\display.c   ****         LedPannelBuf[M_CON] &= ~((0x000003ff >> (10-MPercent))<<M_SHIFT);
 1545              		.loc 1 435 0
 1546 0246 1341     		asr	r3, r3, r2
 1547 0248 DB00     		lsl	r3, r3, #3
 434:.\display.c   ****         LedPannelBuf[M_CON] |= (0x000003ff<<M_SHIFT);
 1548              		.loc 1 434 0
 1549 024a 0843     		orr	r0, r1
 435:.\display.c   ****         LedPannelBuf[M_CON] &= ~((0x000003ff >> (10-MPercent))<<M_SHIFT);
 1550              		.loc 1 435 0
 1551 024c 9843     		bic	r0, r3
 436:.\display.c   ****         if(DisFlag.sflash)
 1552              		.loc 1 436 0
 1553 024e 474B     		ldr	r3, .L197+28
 1554 0250 5A78     		ldrb	r2, [r3, #1]
 1555 0252 1707     		lsl	r7, r2, #28
 1556 0254 05D5     		bpl	.L74
 438:.\display.c   ****             if(DisFlag.flashsta)
 1557              		.loc 1 438 0
 1558 0256 DF78     		ldrb	r7, [r3, #3]
 1559 0258 FF09     		lsr	r7, r7, #7
 1560 025a 02D1     		bne	.L74
 1561              	.L75:
 443:.\display.c   ****                 LedPannelBuf[S_CON] |= (0x00000003 << 1);
ARM GAS  C:\Users\ZHANGM~1\AppData\Local\Temp\ccWWGwEp.s 			page 51


 1562              		.loc 1 443 0
 1563 025c 0627     		mov	r7, #6
 1564 025e 3E43     		orr	r6, r7
 1565 0260 01E0     		b	.L166
 1566              	.L74:
 447:.\display.c   ****             LedPannelBuf[S_CON] &= ~(0x00000003 << 1);
 1567              		.loc 1 447 0
 1568 0262 0627     		mov	r7, #6
 1569 0264 BE43     		bic	r6, r7
 1570              	.L166:
 1571 0266 2660     		str	r6, [r4]
 1572 0268 3A4C     		ldr	r4, .L197+4
 449:.\display.c   ****         if(DisFlag.hflash)
 1573              		.loc 1 449 0
 1574 026a D606     		lsl	r6, r2, #27
 1575 026c 05D5     		bpl	.L77
 451:.\display.c   ****             if(DisFlag.flashsta)
 1576              		.loc 1 451 0
 1577 026e DF78     		ldrb	r7, [r3, #3]
 1578 0270 0626     		mov	r6, #6
 1579 0272 FF09     		lsr	r7, r7, #7
 1580 0274 02D1     		bne	.L167
 1581              	.L78:
 456:.\display.c   ****                 LedPannelBuf[H_CON] |= (0x00000003 << 1);
 1582              		.loc 1 456 0
 1583 0276 3543     		orr	r5, r6
 1584 0278 01E0     		b	.L168
 1585              	.L77:
 460:.\display.c   ****             LedPannelBuf[H_CON] &= ~(0x00000003 << 1);
 1586              		.loc 1 460 0
 1587 027a 0626     		mov	r6, #6
 1588              	.L167:
 1589 027c B543     		bic	r5, r6
 1590              	.L168:
 1591 027e 6560     		str	r5, [r4, #4]
 462:.\display.c   ****         if(DisFlag.jflash)
 1592              		.loc 1 462 0
 1593 0280 9706     		lsl	r7, r2, #26
 1594 0282 07D5     		bpl	.L80
 464:.\display.c   ****             if(DisFlag.flashsta)
 1595              		.loc 1 464 0
 1596 0284 DD78     		ldrb	r5, [r3, #3]
 1597 0286 EE09     		lsr	r6, r5, #7
 1598 0288 0625     		mov	r5, #6
 1599 028a 002E     		cmp	r6, #0
 1600 028c 03D1     		bne	.L169
 1601              	.L81:
 469:.\display.c   ****                 LedPannelBuf[J_CON] |= (0x00000003 << 1);
 1602              		.loc 1 469 0
 1603 028e 019F     		ldr	r7, [sp, #4]
 1604 0290 3D43     		orr	r5, r7
 1605 0292 03E0     		b	.L170
 1606              	.L80:
 473:.\display.c   ****             LedPannelBuf[J_CON] &= ~(0x00000003 << 1);
 1607              		.loc 1 473 0
 1608 0294 0625     		mov	r5, #6
 1609              	.L169:
ARM GAS  C:\Users\ZHANGM~1\AppData\Local\Temp\ccWWGwEp.s 			page 52


 1610 0296 019E     		ldr	r6, [sp, #4]
 1611 0298 AE43     		bic	r6, r5
 1612 029a 351C     		mov	r5, r6
 1613              	.L170:
 1614 029c A560     		str	r5, [r4, #8]
 475:.\display.c   ****         if(DisFlag.kflash)
 1615              		.loc 1 475 0
 1616 029e 5706     		lsl	r7, r2, #25
 1617 02a0 06D5     		bpl	.L83
 477:.\display.c   ****             if(DisFlag.flashsta)
 1618              		.loc 1 477 0
 1619 02a2 DF78     		ldrb	r7, [r3, #3]
 1620 02a4 0625     		mov	r5, #6
 1621 02a6 FE09     		lsr	r6, r7, #7
 1622 02a8 03D1     		bne	.L171
 1623              	.L84:
 482:.\display.c   ****                 LedPannelBuf[K_CON] |= (0x00000003 << 1);
 1624              		.loc 1 482 0
 1625 02aa 029F     		ldr	r7, [sp, #8]
 1626 02ac 3D43     		orr	r5, r7
 1627 02ae 03E0     		b	.L172
 1628              	.L83:
 486:.\display.c   ****             LedPannelBuf[K_CON] &= ~(0x00000003 << 1);
 1629              		.loc 1 486 0
 1630 02b0 0625     		mov	r5, #6
 1631              	.L171:
 1632 02b2 029E     		ldr	r6, [sp, #8]
 1633 02b4 AE43     		bic	r6, r5
 1634 02b6 351C     		mov	r5, r6
 1635              	.L172:
 488:.\display.c   ****         if(DisFlag.lflash)
 1636              		.loc 1 488 0
 1637 02b8 7F27     		mov	r7, #127
 1638 02ba 161C     		mov	r6, r2
 486:.\display.c   ****             LedPannelBuf[K_CON] &= ~(0x00000003 << 1);
 1639              		.loc 1 486 0
 1640 02bc E560     		str	r5, [r4, #12]
 488:.\display.c   ****         if(DisFlag.lflash)
 1641              		.loc 1 488 0
 1642 02be BE43     		bic	r6, r7
 1643 02c0 06D0     		beq	.L86
 490:.\display.c   ****             if(DisFlag.flashsta)
 1644              		.loc 1 490 0
 1645 02c2 DE78     		ldrb	r6, [r3, #3]
 1646 02c4 0625     		mov	r5, #6
 1647 02c6 BE43     		bic	r6, r7
 1648 02c8 03D1     		bne	.L173
 1649              	.L87:
 495:.\display.c   ****                 LedPannelBuf[L_CON] |= (0x00000003 << 1);
 1650              		.loc 1 495 0
 1651 02ca 6746     		mov	r7, ip
 1652 02cc 3D43     		orr	r5, r7
 1653 02ce 03E0     		b	.L174
 1654              	.L86:
 499:.\display.c   ****             LedPannelBuf[L_CON] &= ~(0x00000003 << 1);
 1655              		.loc 1 499 0
 1656 02d0 0625     		mov	r5, #6
ARM GAS  C:\Users\ZHANGM~1\AppData\Local\Temp\ccWWGwEp.s 			page 53


 1657              	.L173:
 1658 02d2 6646     		mov	r6, ip
 1659 02d4 AE43     		bic	r6, r5
 1660 02d6 351C     		mov	r5, r6
 1661              	.L174:
 1662 02d8 2561     		str	r5, [r4, #16]
 501:.\display.c   ****         if(DisFlag.mflash)
 1663              		.loc 1 501 0
 1664 02da 9D78     		ldrb	r5, [r3, #2]
 1665 02dc EE07     		lsl	r6, r5, #31
 1666 02de 05D5     		bpl	.L89
 503:.\display.c   ****             if(DisFlag.flashsta)
 1667              		.loc 1 503 0
 1668 02e0 DF78     		ldrb	r7, [r3, #3]
 1669 02e2 0626     		mov	r6, #6
 1670 02e4 FF09     		lsr	r7, r7, #7
 1671 02e6 02D1     		bne	.L175
 1672              	.L90:
 508:.\display.c   ****                 LedPannelBuf[M_CON] |= (0x00000003 << 1);
 1673              		.loc 1 508 0
 1674 02e8 3043     		orr	r0, r6
 1675 02ea 01E0     		b	.L176
 1676              	.L89:
 512:.\display.c   ****             LedPannelBuf[M_CON] &= ~(0x00000003 << 1);
 1677              		.loc 1 512 0
 1678 02ec 0626     		mov	r6, #6
 1679              	.L175:
 1680 02ee B043     		bic	r0, r6
 1681              	.L176:
 1682 02f0 6061     		str	r0, [r4, #20]
 514:.\display.c   ****         if(FlashCnt > TIMER500MS)
 1683              		.loc 1 514 0
 1684 02f2 2A48     		ldr	r0, .L197+76
 1685 02f4 0678     		ldrb	r6, [r0]
 1686 02f6 052E     		cmp	r6, #5
 1687 02f8 0AD9     		bls	.L92
 516:.\display.c   ****             FlashCnt = 0;
 1688              		.loc 1 516 0
 1689 02fa 0027     		mov	r7, #0
 1690 02fc 0770     		strb	r7, [r0]
 517:.\display.c   ****             DisFlag.flashsta = !DisFlag.flashsta;
 1691              		.loc 1 517 0
 1692 02fe D878     		ldrb	r0, [r3, #3]
 1693 0300 C643     		mvn	r6, r0
 1694 0302 F7B2     		uxtb	r7, r6
 1695 0304 FE09     		lsr	r6, r7, #7
 1696 0306 7F27     		mov	r7, #127
 1697 0308 F601     		lsl	r6, r6, #7
 1698 030a 3840     		and	r0, r7
 1699 030c 3043     		orr	r0, r6
 1700 030e D870     		strb	r0, [r3, #3]
 1701              	.L92:
 519:.\display.c   ****         if(DisFlag.wifierror)
 1702              		.loc 1 519 0
 1703 0310 AF07     		lsl	r7, r5, #30
 1704 0312 03D5     		bpl	.L93
 521:.\display.c   ****             LedPannelBuf[P5_CON] &= ~(1 << P5);
ARM GAS  C:\Users\ZHANGM~1\AppData\Local\Temp\ccWWGwEp.s 			page 54


 1705              		.loc 1 521 0
 1706 0314 2248     		ldr	r0, .L197+80
 1707 0316 2769     		ldr	r7, [r4, #16]
 1708 0318 3840     		and	r0, r7
 1709 031a 03E0     		b	.L177
 1710              	.L93:
 524:.\display.c   ****             LedPannelBuf[P5_CON] |= (1 << P5);
 1711              		.loc 1 524 0
 1712 031c 8020     		mov	r0, #128
 1713 031e 2669     		ldr	r6, [r4, #16]
 1714 0320 8001     		lsl	r0, r0, #6
 1715 0322 3043     		orr	r0, r6
 1716              	.L177:
 1717 0324 2061     		str	r0, [r4, #16]
 526:.\display.c   ****         if(DisFlag.wifilinkingsignflash==0)
 1718              		.loc 1 526 0
 1719 0326 2807     		lsl	r0, r5, #28
 1720 0328 09D4     		bmi	.L95
 1721 032a 0120     		mov	r0, #1
 528:.\display.c   ****             if(DisFlag.wifilinkingsign)
 1722              		.loc 1 528 0
 1723 032c 6E07     		lsl	r6, r5, #29
 1724 032e 03D5     		bpl	.L96
 530:.\display.c   ****                 LedPannelBuf[N14_CON] &= ~(1 << N14);
 1725              		.loc 1 530 0
 1726 0330 6668     		ldr	r6, [r4, #4]
 1727 0332 8643     		bic	r6, r0
 1728 0334 301C     		mov	r0, r6
 1729 0336 37E0     		b	.L178
 1730              	.L96:
 533:.\display.c   ****                 LedPannelBuf[N14_CON] |= (1 << N14);
 1731              		.loc 1 533 0
 1732 0338 6768     		ldr	r7, [r4, #4]
 1733 033a 3843     		orr	r0, r7
 1734 033c 34E0     		b	.L178
 1735              	.L95:
 538:.\display.c   ****            if(DisFlag.sta)
 1736              		.loc 1 538 0
 1737 033e DE78     		ldrb	r6, [r3, #3]
 1738 0340 0120     		mov	r0, #1
 1739 0342 7706     		lsl	r7, r6, #25
 1740 0344 2ED5     		bpl	.L98
 540:.\display.c   ****                 LedPannelBuf[N14_CON] &= ~(1 << N14);
 1741              		.loc 1 540 0
 1742 0346 6668     		ldr	r6, [r4, #4]
 1743 0348 8643     		bic	r6, r0
 1744 034a 301C     		mov	r0, r6
 1745 034c 2CE0     		b	.L178
 1746              	.L198:
 1747 034e C046     		.align	2
 1748              	.L197:
 1749 0350 00000000 		.word	Error_Data
 1750 0354 00000000 		.word	LedPannelBuf
 1751 0358 00000000 		.word	eroorcnt
 1752 035c FF1F0300 		.word	204799
 1753 0360 00000000 		.word	WorkFlag
 1754 0364 01000001 		.word	16777217
ARM GAS  C:\Users\ZHANGM~1\AppData\Local\Temp\ccWWGwEp.s 			page 55


 1755 0368 00000000 		.word	WorkFlag01
 1756 036c 00000000 		.word	DisFlag
 1757 0370 00000000 		.word	Value_Tds0
 1758 0374 00000000 		.word	Value_Tds1
 1759 0378 00000000 		.word	jingshuiliang
 1760 037c 00000000 		.word	SPercent
 1761 0380 FF030000 		.word	1023
 1762 0384 00000000 		.word	HPercent
 1763 0388 F81F0000 		.word	8184
 1764 038c 00000000 		.word	JPercent
 1765 0390 00000000 		.word	KPercent
 1766 0394 00000000 		.word	LPercent
 1767 0398 00000000 		.word	MPercent
 1768 039c 00000000 		.word	FlashCnt
 1769 03a0 FFDFFFFF 		.word	-8193
 1770              	.L98:
 543:.\display.c   ****                 LedPannelBuf[N14_CON] |= (1 << N14);
 1771              		.loc 1 543 0
 1772 03a4 6768     		ldr	r7, [r4, #4]
 1773 03a6 3843     		orr	r0, r7
 1774              	.L178:
 1775 03a8 6060     		str	r0, [r4, #4]
 546:.\display.c   ****         if(DisFlag.working)
 1776              		.loc 1 546 0
 1777 03aa 1878     		ldrb	r0, [r3]
 1778 03ac C607     		lsl	r6, r0, #31
 1779 03ae 03D5     		bpl	.L99
 549:.\display.c   ****             LedPannelBuf[N4_CON] &= ~(1 << N4);
 1780              		.loc 1 549 0
 1781 03b0 804E     		ldr	r6, .L199
 1782 03b2 A769     		ldr	r7, [r4, #24]
 1783 03b4 3E40     		and	r6, r7
 1784 03b6 03E0     		b	.L179
 1785              	.L99:
 553:.\display.c   ****             LedPannelBuf[N4_CON] |= (1 << N4);
 1786              		.loc 1 553 0
 1787 03b8 C027     		mov	r7, #192
 1788 03ba FE00     		lsl	r6, r7, #3
 1789 03bc A769     		ldr	r7, [r4, #24]
 1790 03be 3E43     		orr	r6, r7
 1791              	.L179:
 1792 03c0 A661     		str	r6, [r4, #24]
 555:.\display.c   ****         if(DisFlag.workingsignflash == 0)
 1793              		.loc 1 555 0
 1794 03c2 EE06     		lsl	r6, r5, #27
 1795 03c4 02D4     		bmi	.L101
 558:.\display.c   ****             if(DisFlag.workingsign)
 1796              		.loc 1 558 0
 1797 03c6 8707     		lsl	r7, r0, #30
 1798 03c8 07D5     		bpl	.L104
 1799 03ca 02E0     		b	.L195
 1800              	.L101:
 569:.\display.c   ****            if(DisFlag.sta)
 1801              		.loc 1 569 0
 1802 03cc DE78     		ldrb	r6, [r3, #3]
 1803 03ce 7706     		lsl	r7, r6, #25
 1804 03d0 03D5     		bpl	.L104
ARM GAS  C:\Users\ZHANGM~1\AppData\Local\Temp\ccWWGwEp.s 			page 56


 1805              	.L195:
 572:.\display.c   ****                 LedPannelBuf[N2_CON] &= ~(1 << N2);
 1806              		.loc 1 572 0
 1807 03d2 794E     		ldr	r6, .L199+4
 1808 03d4 A769     		ldr	r7, [r4, #24]
 1809 03d6 3E40     		and	r6, r7
 1810 03d8 03E0     		b	.L180
 1811              	.L104:
 576:.\display.c   ****                 LedPannelBuf[N2_CON] |= (1 << N2);
 1812              		.loc 1 576 0
 1813 03da C027     		mov	r7, #192
 1814 03dc 7E01     		lsl	r6, r7, #5
 1815 03de A769     		ldr	r7, [r4, #24]
 1816 03e0 3E43     		orr	r6, r7
 1817              	.L180:
 1818 03e2 A661     		str	r6, [r4, #24]
 580:.\display.c   ****         if(DisFlag.outofwater)
 1819              		.loc 1 580 0
 1820 03e4 4607     		lsl	r6, r0, #29
 1821 03e6 03D5     		bpl	.L105
 583:.\display.c   ****             LedPannelBuf[N6_CON] &= ~(1 << N6);
 1822              		.loc 1 583 0
 1823 03e8 744E     		ldr	r6, .L199+8
 1824 03ea A769     		ldr	r7, [r4, #24]
 1825 03ec 3E40     		and	r6, r7
 1826 03ee 03E0     		b	.L181
 1827              	.L105:
 587:.\display.c   ****             LedPannelBuf[N6_CON] |= (1 << N6);
 1828              		.loc 1 587 0
 1829 03f0 C026     		mov	r6, #192
 1830 03f2 A769     		ldr	r7, [r4, #24]
 1831 03f4 7600     		lsl	r6, r6, #1
 1832 03f6 3E43     		orr	r6, r7
 1833              	.L181:
 1834 03f8 A661     		str	r6, [r4, #24]
 589:.\display.c   ****         if(DisFlag.outofwatersignflash == 0)
 1835              		.loc 1 589 0
 1836 03fa AE06     		lsl	r6, r5, #26
 1837 03fc 02D4     		bmi	.L107
 591:.\display.c   ****             if(DisFlag.outofwatersign)
 1838              		.loc 1 591 0
 1839 03fe 0707     		lsl	r7, r0, #28
 1840 0400 0AD5     		bpl	.L110
 1841 0402 02E0     		b	.L196
 1842              	.L107:
 602:.\display.c   ****             if(DisFlag.sta)
 1843              		.loc 1 602 0
 1844 0404 DE78     		ldrb	r6, [r3, #3]
 1845 0406 7706     		lsl	r7, r6, #25
 1846 0408 06D5     		bpl	.L110
 1847              	.L196:
 604:.\display.c   ****                 LedPannelBuf[P3_CON] &= ~(1 << P3);
 1848              		.loc 1 604 0
 1849 040a 6D4E     		ldr	r6, .L199+12
 1850 040c A768     		ldr	r7, [r4, #8]
 1851 040e 3740     		and	r7, r6
 1852 0410 A760     		str	r7, [r4, #8]
ARM GAS  C:\Users\ZHANGM~1\AppData\Local\Temp\ccWWGwEp.s 			page 57


 605:.\display.c   ****                 LedPannelBuf[P4_CON] &= ~(1 << P4);
 1853              		.loc 1 605 0
 1854 0412 E768     		ldr	r7, [r4, #12]
 1855 0414 3E40     		and	r6, r7
 1856 0416 06E0     		b	.L182
 1857              	.L110:
 608:.\display.c   ****                 LedPannelBuf[P3_CON] |= (1 << P3);
 1858              		.loc 1 608 0
 1859 0418 8027     		mov	r7, #128
 1860 041a BE01     		lsl	r6, r7, #6
 1861 041c A768     		ldr	r7, [r4, #8]
 1862 041e 3743     		orr	r7, r6
 1863 0420 A760     		str	r7, [r4, #8]
 609:.\display.c   ****                 LedPannelBuf[P4_CON] |= (1 << P4);
 1864              		.loc 1 609 0
 1865 0422 E768     		ldr	r7, [r4, #12]
 1866 0424 3E43     		orr	r6, r7
 1867              	.L182:
 1868 0426 E660     		str	r6, [r4, #12]
 1869 0428 6026     		mov	r6, #96
 613:.\display.c   ****         if(DisFlag.cleaning)
 1870              		.loc 1 613 0
 1871 042a 4706     		lsl	r7, r0, #25
 1872 042c 03D5     		bpl	.L111
 616:.\display.c   ****             LedPannelBuf[N8_CON] &= ~(1 << N8);
 1873              		.loc 1 616 0
 1874 042e A769     		ldr	r7, [r4, #24]
 1875 0430 B743     		bic	r7, r6
 1876 0432 3E1C     		mov	r6, r7
 1877 0434 01E0     		b	.L183
 1878              	.L111:
 620:.\display.c   ****             LedPannelBuf[N8_CON] |= (1 << N8);
 1879              		.loc 1 620 0
 1880 0436 A769     		ldr	r7, [r4, #24]
 1881 0438 3E43     		orr	r6, r7
 1882              	.L183:
 623:.\display.c   ****         if(DisFlag.cleaningsignflash == 0)
 1883              		.loc 1 623 0
 1884 043a 4027     		mov	r7, #64
 620:.\display.c   ****             LedPannelBuf[N8_CON] |= (1 << N8);
 1885              		.loc 1 620 0
 1886 043c A661     		str	r6, [r4, #24]
 623:.\display.c   ****         if(DisFlag.cleaningsignflash == 0)
 1887              		.loc 1 623 0
 1888 043e 3D42     		tst	r5, r7
 1889 0440 07D1     		bne	.L113
 625:.\display.c   ****             if(DisFlag.cleaningsign)
 1890              		.loc 1 625 0
 1891 0442 C709     		lsr	r7, r0, #7
 1892 0444 1826     		mov	r6, #24
 1893 0446 002F     		cmp	r7, #0
 1894 0448 0BD0     		beq	.L185
 628:.\display.c   ****                 LedPannelBuf[N10_CON] &= ~(1 << N10);
 1895              		.loc 1 628 0
 1896 044a A769     		ldr	r7, [r4, #24]
 1897 044c B743     		bic	r7, r6
 1898 044e 3E1C     		mov	r6, r7
ARM GAS  C:\Users\ZHANGM~1\AppData\Local\Temp\ccWWGwEp.s 			page 58


 1899 0450 09E0     		b	.L184
 1900              	.L113:
 636:.\display.c   ****             if(DisFlag.sta)
 1901              		.loc 1 636 0
 1902 0452 DE78     		ldrb	r6, [r3, #3]
 1903 0454 3E42     		tst	r6, r7
 1904 0456 03D0     		beq	.L116
 639:.\display.c   ****                 LedPannelBuf[N10_CON] &= ~(1 << N10);
 1905              		.loc 1 639 0
 1906 0458 A669     		ldr	r6, [r4, #24]
 1907 045a 1827     		mov	r7, #24
 1908 045c BE43     		bic	r6, r7
 1909 045e 02E0     		b	.L184
 1910              	.L116:
 643:.\display.c   ****                 LedPannelBuf[N10_CON] |= (1 << N10);
 1911              		.loc 1 643 0
 1912 0460 1826     		mov	r6, #24
 1913              	.L185:
 1914 0462 A769     		ldr	r7, [r4, #24]
 1915 0464 3E43     		orr	r6, r7
 1916              	.L184:
 1917 0466 A661     		str	r6, [r4, #24]
 1918 0468 0626     		mov	r6, #6
 647:.\display.c   ****         if(DisFlag.error)
 1919              		.loc 1 647 0
 1920 046a D707     		lsl	r7, r2, #31
 1921 046c 03D5     		bpl	.L117
 650:.\display.c   ****             LedPannelBuf[N12_CON] &= ~(1 << N12);
 1922              		.loc 1 650 0
 1923 046e A769     		ldr	r7, [r4, #24]
 1924 0470 B743     		bic	r7, r6
 1925 0472 3E1C     		mov	r6, r7
 1926 0474 01E0     		b	.L186
 1927              	.L117:
 654:.\display.c   ****             LedPannelBuf[N12_CON] |= (1 << N12);
 1928              		.loc 1 654 0
 1929 0476 A769     		ldr	r7, [r4, #24]
 1930 0478 3E43     		orr	r6, r7
 1931              	.L186:
 1932 047a A661     		str	r6, [r4, #24]
 657:.\display.c   ****         if(DisFlag.errorsignflash == 0)
 1933              		.loc 1 657 0
 1934 047c ED09     		lsr	r5, r5, #7
 1935 047e 10D1     		bne	.L119
 659:.\display.c   ****             if(DisFlag.errorsign)
 1936              		.loc 1 659 0
 1937 0480 9507     		lsl	r5, r2, #30
 1938 0482 06D5     		bpl	.L120
 661:.\display.c   ****                 LedPannelBuf[P1_CON] &= ~(1 << P1);
 1939              		.loc 1 661 0
 1940 0484 4E4D     		ldr	r5, .L199+12
 1941 0486 2668     		ldr	r6, [r4]
 662:.\display.c   ****                 LedPannelBuf[P2_CON] &= ~(1 << P2);
 1942              		.loc 1 662 0
 1943 0488 6768     		ldr	r7, [r4, #4]
 661:.\display.c   ****                 LedPannelBuf[P1_CON] &= ~(1 << P1);
 1944              		.loc 1 661 0
ARM GAS  C:\Users\ZHANGM~1\AppData\Local\Temp\ccWWGwEp.s 			page 59


 1945 048a 2E40     		and	r6, r5
 1946 048c 2660     		str	r6, [r4]
 662:.\display.c   ****                 LedPannelBuf[P2_CON] &= ~(1 << P2);
 1947              		.loc 1 662 0
 1948 048e 3D40     		and	r5, r7
 1949 0490 18E0     		b	.L187
 1950              	.L120:
 665:.\display.c   ****                 LedPannelBuf[P1_CON] |= (1 << P1);
 1951              		.loc 1 665 0
 1952 0492 2668     		ldr	r6, [r4]
 1953 0494 8025     		mov	r5, #128
 1954 0496 AD01     		lsl	r5, r5, #6
 666:.\display.c   ****                 LedPannelBuf[P2_CON] |= (1 << P2);
 1955              		.loc 1 666 0
 1956 0498 6768     		ldr	r7, [r4, #4]
 665:.\display.c   ****                 LedPannelBuf[P1_CON] |= (1 << P1);
 1957              		.loc 1 665 0
 1958 049a 2E43     		orr	r6, r5
 1959 049c 2660     		str	r6, [r4]
 666:.\display.c   ****                 LedPannelBuf[P2_CON] |= (1 << P2);
 1960              		.loc 1 666 0
 1961 049e 3D43     		orr	r5, r7
 1962 04a0 10E0     		b	.L187
 1963              	.L119:
 670:.\display.c   ****             if(DisFlag.sta)
 1964              		.loc 1 670 0
 1965 04a2 DE78     		ldrb	r6, [r3, #3]
 1966 04a4 7606     		lsl	r6, r6, #25
 1967 04a6 06D5     		bpl	.L122
 672:.\display.c   ****                 LedPannelBuf[P1_CON] &= ~(1 << P1);
 1968              		.loc 1 672 0
 1969 04a8 454D     		ldr	r5, .L199+12
 1970 04aa 2668     		ldr	r6, [r4]
 673:.\display.c   ****                 LedPannelBuf[P2_CON] &= ~(1 << P2);
 1971              		.loc 1 673 0
 1972 04ac 6768     		ldr	r7, [r4, #4]
 672:.\display.c   ****                 LedPannelBuf[P1_CON] &= ~(1 << P1);
 1973              		.loc 1 672 0
 1974 04ae 2E40     		and	r6, r5
 1975 04b0 2660     		str	r6, [r4]
 673:.\display.c   ****                 LedPannelBuf[P2_CON] &= ~(1 << P2);
 1976              		.loc 1 673 0
 1977 04b2 3D40     		and	r5, r7
 1978 04b4 06E0     		b	.L187
 1979              	.L122:
 676:.\display.c   ****                 LedPannelBuf[P1_CON] |= (1 << P1);
 1980              		.loc 1 676 0
 1981 04b6 8027     		mov	r7, #128
 1982 04b8 2668     		ldr	r6, [r4]
 1983 04ba BD01     		lsl	r5, r7, #6
 677:.\display.c   ****                 LedPannelBuf[P2_CON] |= (1 << P2);
 1984              		.loc 1 677 0
 1985 04bc 6768     		ldr	r7, [r4, #4]
 676:.\display.c   ****                 LedPannelBuf[P1_CON] |= (1 << P1);
 1986              		.loc 1 676 0
 1987 04be 2E43     		orr	r6, r5
 1988 04c0 2660     		str	r6, [r4]
ARM GAS  C:\Users\ZHANGM~1\AppData\Local\Temp\ccWWGwEp.s 			page 60


 677:.\display.c   ****                 LedPannelBuf[P2_CON] |= (1 << P2);
 1989              		.loc 1 677 0
 1990 04c2 3D43     		orr	r5, r7
 1991              	.L187:
 1992 04c4 6560     		str	r5, [r4, #4]
 1993 04c6 0125     		mov	r5, #1
 681:.\display.c   ****         if(DisFlag.south)
 1994              		.loc 1 681 0
 1995 04c8 C706     		lsl	r7, r0, #27
 1996 04ca 03D5     		bpl	.L123
 683:.\display.c   ****             LedPannelBuf[N13_CON] &= ~(1 << N13);
 1997              		.loc 1 683 0
 1998 04cc 2768     		ldr	r7, [r4]
 1999 04ce AF43     		bic	r7, r5
 2000 04d0 3D1C     		mov	r5, r7
 2001 04d2 01E0     		b	.L188
 2002              	.L123:
 686:.\display.c   ****             LedPannelBuf[N13_CON] |= (1 << N13);
 2003              		.loc 1 686 0
 2004 04d4 2668     		ldr	r6, [r4]
 2005 04d6 3543     		orr	r5, r6
 2006              	.L188:
 2007 04d8 2560     		str	r5, [r4]
 2008 04da 0125     		mov	r5, #1
 688:.\display.c   ****         if(DisFlag.north)
 2009              		.loc 1 688 0
 2010 04dc 8606     		lsl	r6, r0, #26
 2011 04de 03D5     		bpl	.L125
 690:.\display.c   ****             LedPannelBuf[N15_CON] &= ~(1 << N15);
 2012              		.loc 1 690 0
 2013 04e0 A668     		ldr	r6, [r4, #8]
 2014 04e2 AE43     		bic	r6, r5
 2015 04e4 A660     		str	r6, [r4, #8]
 2016 04e6 02E0     		b	.L126
 2017              	.L125:
 693:.\display.c   ****             LedPannelBuf[N15_CON] |= (1 << N15);
 2018              		.loc 1 693 0
 2019 04e8 A068     		ldr	r0, [r4, #8]
 2020 04ea 0543     		orr	r5, r0
 2021 04ec A560     		str	r5, [r4, #8]
 2022              	.L126:
 2023 04ee 0127     		mov	r7, #1
 696:.\display.c   ****         if(DisFlag.jsll)
 2024              		.loc 1 696 0
 2025 04f0 5507     		lsl	r5, r2, #29
 2026 04f2 0CD5     		bpl	.L127
 698:.\display.c   ****             LedPannelBuf[N16_CON] &= ~(1 << N16);
 2027              		.loc 1 698 0
 2028 04f4 E268     		ldr	r2, [r4, #12]
 699:.\display.c   ****             LedPannelBuf[N17_CON] &= ~(1 << N17);
 2029              		.loc 1 699 0
 2030 04f6 2569     		ldr	r5, [r4, #16]
 700:.\display.c   ****             LedPannelBuf[N18_CON] &= ~(1 << N18);
 2031              		.loc 1 700 0
 2032 04f8 6069     		ldr	r0, [r4, #20]
 701:.\display.c   ****             LedPannelBuf[N19_CON] &= ~(1 << N19);
 2033              		.loc 1 701 0
ARM GAS  C:\Users\ZHANGM~1\AppData\Local\Temp\ccWWGwEp.s 			page 61


 2034 04fa A669     		ldr	r6, [r4, #24]
 698:.\display.c   ****             LedPannelBuf[N16_CON] &= ~(1 << N16);
 2035              		.loc 1 698 0
 2036 04fc BA43     		bic	r2, r7
 699:.\display.c   ****             LedPannelBuf[N17_CON] &= ~(1 << N17);
 2037              		.loc 1 699 0
 2038 04fe BD43     		bic	r5, r7
 700:.\display.c   ****             LedPannelBuf[N18_CON] &= ~(1 << N18);
 2039              		.loc 1 700 0
 2040 0500 B843     		bic	r0, r7
 701:.\display.c   ****             LedPannelBuf[N19_CON] &= ~(1 << N19);
 2041              		.loc 1 701 0
 2042 0502 BE43     		bic	r6, r7
 698:.\display.c   ****             LedPannelBuf[N16_CON] &= ~(1 << N16);
 2043              		.loc 1 698 0
 2044 0504 E260     		str	r2, [r4, #12]
 699:.\display.c   ****             LedPannelBuf[N17_CON] &= ~(1 << N17);
 2045              		.loc 1 699 0
 2046 0506 2561     		str	r5, [r4, #16]
 700:.\display.c   ****             LedPannelBuf[N18_CON] &= ~(1 << N18);
 2047              		.loc 1 700 0
 2048 0508 6061     		str	r0, [r4, #20]
 701:.\display.c   ****             LedPannelBuf[N19_CON] &= ~(1 << N19);
 2049              		.loc 1 701 0
 2050 050a A661     		str	r6, [r4, #24]
 2051 050c 0BE0     		b	.L128
 2052              	.L127:
 704:.\display.c   ****             LedPannelBuf[N16_CON] |= (1 << N16);
 2053              		.loc 1 704 0
 2054 050e E268     		ldr	r2, [r4, #12]
 705:.\display.c   ****             LedPannelBuf[N17_CON] |= (1 << N17);
 2055              		.loc 1 705 0
 2056 0510 2569     		ldr	r5, [r4, #16]
 706:.\display.c   ****             LedPannelBuf[N18_CON] |= (1 << N18);
 2057              		.loc 1 706 0
 2058 0512 6069     		ldr	r0, [r4, #20]
 707:.\display.c   ****             LedPannelBuf[N19_CON] |= (1 << N19);
 2059              		.loc 1 707 0
 2060 0514 A669     		ldr	r6, [r4, #24]
 704:.\display.c   ****             LedPannelBuf[N16_CON] |= (1 << N16);
 2061              		.loc 1 704 0
 2062 0516 3A43     		orr	r2, r7
 705:.\display.c   ****             LedPannelBuf[N17_CON] |= (1 << N17);
 2063              		.loc 1 705 0
 2064 0518 3D43     		orr	r5, r7
 706:.\display.c   ****             LedPannelBuf[N18_CON] |= (1 << N18);
 2065              		.loc 1 706 0
 2066 051a 3843     		orr	r0, r7
 707:.\display.c   ****             LedPannelBuf[N19_CON] |= (1 << N19);
 2067              		.loc 1 707 0
 2068 051c 3743     		orr	r7, r6
 704:.\display.c   ****             LedPannelBuf[N16_CON] |= (1 << N16);
 2069              		.loc 1 704 0
 2070 051e E260     		str	r2, [r4, #12]
 705:.\display.c   ****             LedPannelBuf[N17_CON] |= (1 << N17);
 2071              		.loc 1 705 0
 2072 0520 2561     		str	r5, [r4, #16]
ARM GAS  C:\Users\ZHANGM~1\AppData\Local\Temp\ccWWGwEp.s 			page 62


 706:.\display.c   ****             LedPannelBuf[N18_CON] |= (1 << N18);
 2073              		.loc 1 706 0
 2074 0522 6061     		str	r0, [r4, #20]
 707:.\display.c   ****             LedPannelBuf[N19_CON] |= (1 << N19);
 2075              		.loc 1 707 0
 2076 0524 A761     		str	r7, [r4, #24]
 2077              	.L128:
 710:.\display.c   ****         if(DisFlag.slvxinflash == 0)//S,S
 2078              		.loc 1 710 0
 2079 0526 DB78     		ldrb	r3, [r3, #3]
 2080 0528 DF07     		lsl	r7, r3, #31
 2081 052a 08D5     		bpl	.L129
 715:.\display.c   ****             if(DisFlag.sta)
 2082              		.loc 1 715 0
 2083 052c 5806     		lsl	r0, r3, #25
 2084 052e 02D5     		bpl	.L130
 717:.\display.c   ****                 LedPannelBuf[S_CON] |= (0x000003ff<<S_SHIFT);
 2085              		.loc 1 717 0
 2086 0530 2768     		ldr	r7, [r4]
 2087 0532 0F43     		orr	r7, r1
 2088 0534 02E0     		b	.L189
 2089              	.L130:
 722:.\display.c   ****                 LedPannelBuf[S_CON] &= ~((0x000003ff >> (0))<<S_SHIFT);//
 2090              		.loc 1 722 0
 2091 0536 234F     		ldr	r7, .L199+16
 2092 0538 2268     		ldr	r2, [r4]
 2093 053a 1740     		and	r7, r2
 2094              	.L189:
 2095 053c 2760     		str	r7, [r4]
 2096              	.L129:
 727:.\display.c   ****         if(DisFlag.hlvxinflash == 0)//S,S
 2097              		.loc 1 727 0
 2098 053e 9E07     		lsl	r6, r3, #30
 2099 0540 08D5     		bpl	.L131
 732:.\display.c   ****             if(DisFlag.sta)
 2100              		.loc 1 732 0
 2101 0542 5F06     		lsl	r7, r3, #25
 2102 0544 02D5     		bpl	.L132
 734:.\display.c   ****                 LedPannelBuf[H_CON] |= (0x000003ff<<H_SHIFT);
 2103              		.loc 1 734 0
 2104 0546 6568     		ldr	r5, [r4, #4]
 2105 0548 0D43     		orr	r5, r1
 2106 054a 02E0     		b	.L190
 2107              	.L132:
 739:.\display.c   ****                 LedPannelBuf[H_CON] &= ~((0x000003ff >> (0))<<H_SHIFT);//
 2108              		.loc 1 739 0
 2109 054c 1D4D     		ldr	r5, .L199+16
 2110 054e 6068     		ldr	r0, [r4, #4]
 2111 0550 0540     		and	r5, r0
 2112              	.L190:
 2113 0552 6560     		str	r5, [r4, #4]
 2114              	.L131:
 743:.\display.c   ****         if(DisFlag.jlvxinflash == 0)//S,S
 2115              		.loc 1 743 0
 2116 0554 5A07     		lsl	r2, r3, #29
 2117 0556 08D5     		bpl	.L133
 748:.\display.c   ****             if(DisFlag.sta)
ARM GAS  C:\Users\ZHANGM~1\AppData\Local\Temp\ccWWGwEp.s 			page 63


 2118              		.loc 1 748 0
 2119 0558 5D06     		lsl	r5, r3, #25
 2120 055a 02D5     		bpl	.L134
 750:.\display.c   ****                 LedPannelBuf[J_CON] |= (0x000003ff<<J_SHIFT);
 2121              		.loc 1 750 0
 2122 055c A768     		ldr	r7, [r4, #8]
 2123 055e 0F43     		orr	r7, r1
 2124 0560 02E0     		b	.L191
 2125              	.L134:
 755:.\display.c   ****                 LedPannelBuf[J_CON] &= ~((0x000003ff >> (0))<<J_SHIFT);//
 2126              		.loc 1 755 0
 2127 0562 184F     		ldr	r7, .L199+16
 2128 0564 A668     		ldr	r6, [r4, #8]
 2129 0566 3740     		and	r7, r6
 2130              	.L191:
 2131 0568 A760     		str	r7, [r4, #8]
 2132              	.L133:
 759:.\display.c   ****         if(DisFlag.klvxinflash == 0)//S,S
 2133              		.loc 1 759 0
 2134 056a 1F07     		lsl	r7, r3, #28
 2135 056c 08D5     		bpl	.L135
 766:.\display.c   ****             if(DisFlag.sta)
 2136              		.loc 1 766 0
 2137 056e 5806     		lsl	r0, r3, #25
 2138 0570 02D5     		bpl	.L136
 768:.\display.c   ****                 LedPannelBuf[K_CON] |= (0x000003ff<<K_SHIFT);
 2139              		.loc 1 768 0
 2140 0572 E268     		ldr	r2, [r4, #12]
 2141 0574 0A43     		orr	r2, r1
 2142 0576 02E0     		b	.L192
 2143              	.L136:
 773:.\display.c   ****                 LedPannelBuf[K_CON] &= ~((0x000003ff >> (0))<<K_SHIFT);//
 2144              		.loc 1 773 0
 2145 0578 124A     		ldr	r2, .L199+16
 2146 057a E568     		ldr	r5, [r4, #12]
 2147 057c 2A40     		and	r2, r5
 2148              	.L192:
 2149 057e E260     		str	r2, [r4, #12]
 2150              	.L135:
 778:.\display.c   ****         if(DisFlag.llvxinflash == 0)//S,S
 2151              		.loc 1 778 0
 2152 0580 DE06     		lsl	r6, r3, #27
 2153 0582 08D5     		bpl	.L137
 783:.\display.c   ****             if(DisFlag.sta)
 2154              		.loc 1 783 0
 2155 0584 5F06     		lsl	r7, r3, #25
 2156 0586 02D5     		bpl	.L138
 785:.\display.c   ****                 LedPannelBuf[L_CON] |= (0x000003ff<<L_SHIFT);
 2157              		.loc 1 785 0
 2158 0588 2769     		ldr	r7, [r4, #16]
 2159 058a 0F43     		orr	r7, r1
 2160 058c 02E0     		b	.L193
 2161              	.L138:
 790:.\display.c   ****                 LedPannelBuf[L_CON] &= ~((0x000003ff >> (0))<<L_SHIFT);//
 2162              		.loc 1 790 0
 2163 058e 0D4F     		ldr	r7, .L199+16
 2164 0590 2069     		ldr	r0, [r4, #16]
ARM GAS  C:\Users\ZHANGM~1\AppData\Local\Temp\ccWWGwEp.s 			page 64


 2165 0592 0740     		and	r7, r0
 2166              	.L193:
 2167 0594 2761     		str	r7, [r4, #16]
 2168              	.L137:
 794:.\display.c   ****         if(DisFlag.mlvxinflash == 0)//S,S
 2169              		.loc 1 794 0
 2170 0596 9A06     		lsl	r2, r3, #26
 2171 0598 09D5     		bpl	.L60
 801:.\display.c   ****             if(DisFlag.sta)
 2172              		.loc 1 801 0
 2173 059a 5D06     		lsl	r5, r3, #25
 2174 059c 03D5     		bpl	.L140
 803:.\display.c   ****                 LedPannelBuf[M_CON] |= (0x000003ff<<M_SHIFT);
 2175              		.loc 1 803 0
 2176 059e 6669     		ldr	r6, [r4, #20]
 2177 05a0 3143     		orr	r1, r6
 2178 05a2 6161     		str	r1, [r4, #20]
 2179 05a4 03E0     		b	.L60
 2180              	.L140:
 808:.\display.c   ****                 LedPannelBuf[M_CON] &= ~((0x000003ff >> (0))<<M_SHIFT);//
 2181              		.loc 1 808 0
 2182 05a6 6369     		ldr	r3, [r4, #20]
 2183 05a8 0649     		ldr	r1, .L199+16
 2184 05aa 1940     		and	r1, r3
 2185 05ac 6161     		str	r1, [r4, #20]
 2186              	.L60:
 815:.\display.c   **** }
 2187              		.loc 1 815 0
 2188 05ae 05B0     		add	sp, sp, #20
 2189              		@ sp needed for prologue
 2190 05b0 F0BD     		pop	{r4, r5, r6, r7, pc}
 2191              	.L200:
 2192 05b2 C046     		.align	2
 2193              	.L199:
 2194 05b4 FFF9FFFF 		.word	-1537
 2195 05b8 FFE7FFFF 		.word	-6145
 2196 05bc 7FFEFFFF 		.word	-385
 2197 05c0 FFDFFFFF 		.word	-8193
 2198 05c4 07E0FFFF 		.word	-8185
 2199              		.cfi_endproc
 2200              	.LFE36:
 2201              		.size	Led_Pannel_Updata, .-Led_Pannel_Updata
 2202              		.section	.text.yanshidisplay,"ax",%progbits
 2203              		.align	1
 2204              		.global	yanshidisplay
 2205              		.code	16
 2206              		.thumb_func
 2207              		.type	yanshidisplay, %function
 2208              	yanshidisplay:
 2209              	.LFB38:
 837:.\display.c   **** void yanshidisplay(void)
 838:.\display.c   **** {
 2210              		.loc 1 838 0
 2211              		.cfi_startproc
 2212 0000 70B5     		push	{r4, r5, r6, lr}
 2213              	.LCFI6:
 2214              		.cfi_def_cfa_offset 16
ARM GAS  C:\Users\ZHANGM~1\AppData\Local\Temp\ccWWGwEp.s 			page 65


 2215              		.cfi_offset 4, -16
 2216              		.cfi_offset 5, -12
 2217              		.cfi_offset 6, -8
 2218              		.cfi_offset 14, -4
 839:.\display.c   ****     
 840:.\display.c   ****     
 841:.\display.c   ****     if(WorkFlag.error)//
 2219              		.loc 1 841 0
 2220 0002 A84B     		ldr	r3, .L250
 2221 0004 0125     		mov	r5, #1
 2222 0006 1878     		ldrb	r0, [r3]
 2223 0008 A74C     		ldr	r4, .L250+4
 2224 000a 2842     		tst	r0, r5
 2225 000c 59D0     		beq	.L203
 842:.\display.c   ****         {
 843:.\display.c   ****             
 844:.\display.c   ****              if(Error_Data.bit.Error_02_flag==1&&Error_Data.bit.Error_01_flag==1) 
 2226              		.loc 1 844 0
 2227 000e A74E     		ldr	r6, .L250+8
 2228 0010 0622     		mov	r2, #6
 2229 0012 3178     		ldrb	r1, [r6]
 2230 0014 0A40     		and	r2, r1
 2231 0016 062A     		cmp	r2, #6
 2232 0018 10D1     		bne	.L204
 845:.\display.c   ****             {
 846:.\display.c   ****             
 847:.\display.c   ****                 yanshi_Digital_Trans(DIG3,14);
 2233              		.loc 1 847 0
 2234 001a 0F20     		mov	r0, #15
 2235 001c 0E21     		mov	r1, #14
 2236 001e FFF7FEFF 		bl	yanshi_Digital_Trans
 2237              	.LVL89:
 848:.\display.c   ****                 yanshi_Digital_Trans(DIG4,2);
 2238              		.loc 1 848 0
 2239 0022 0E20     		mov	r0, #14
 2240 0024 0221     		mov	r1, #2
 2241 0026 FFF7FEFF 		bl	yanshi_Digital_Trans
 2242              	.LVL90:
 849:.\display.c   ****                 yanshi_Digital_Trans(DIG1,14);
 2243              		.loc 1 849 0
 2244 002a 1120     		mov	r0, #17
 2245 002c 0E21     		mov	r1, #14
 2246 002e FFF7FEFF 		bl	yanshi_Digital_Trans
 2247              	.LVL91:
 850:.\display.c   ****                 yanshi_Digital_Trans(DIG2,1);
 2248              		.loc 1 850 0
 2249 0032 1020     		mov	r0, #16
 2250 0034 291C     		mov	r1, r5
 2251 0036 FFF7FEFF 		bl	yanshi_Digital_Trans
 2252              	.LVL92:
 2253 003a 42E0     		b	.L203
 2254              	.L204:
 851:.\display.c   ****                 
 852:.\display.c   ****             
 853:.\display.c   ****             
 854:.\display.c   ****             }
 855:.\display.c   ****             
ARM GAS  C:\Users\ZHANGM~1\AppData\Local\Temp\ccWWGwEp.s 			page 66


 856:.\display.c   ****             else
 857:.\display.c   ****             {
 858:.\display.c   ****             
 859:.\display.c   ****             
 860:.\display.c   ****           
 861:.\display.c   ****             
 862:.\display.c   ****                 if(Error_Data.bit.Error_02_flag==1)
 2255              		.loc 1 862 0
 2256 003c 4807     		lsl	r0, r1, #29
 2257 003e 1ED5     		bpl	.L205
 863:.\display.c   ****                 {  /*E2*/ 
 864:.\display.c   ****                     yanshi_Digital_Trans(DIG3,14);
 2258              		.loc 1 864 0
 2259 0040 0F20     		mov	r0, #15
 2260 0042 0E21     		mov	r1, #14
 2261 0044 FFF7FEFF 		bl	yanshi_Digital_Trans
 2262              	.LVL93:
 865:.\display.c   ****                     yanshi_Digital_Trans(DIG4,2);
 2263              		.loc 1 865 0
 2264 0048 0E20     		mov	r0, #14
 2265 004a 0221     		mov	r1, #2
 2266 004c FFF7FEFF 		bl	yanshi_Digital_Trans
 2267              	.LVL94:
 866:.\display.c   ****                     temp[0]|=0x00030000;
 2268              		.loc 1 866 0
 2269 0050 C023     		mov	r3, #192
 2270 0052 2568     		ldr	r5, [r4]
 867:.\display.c   ****                     temp[1]|=0x00030000;
 2271              		.loc 1 867 0
 2272 0054 6168     		ldr	r1, [r4, #4]
 868:.\display.c   ****                     temp[2]|=0x00030000;
 2273              		.loc 1 868 0
 2274 0056 A268     		ldr	r2, [r4, #8]
 866:.\display.c   ****                     temp[0]|=0x00030000;
 2275              		.loc 1 866 0
 2276 0058 9802     		lsl	r0, r3, #10
 2277 005a 0543     		orr	r5, r0
 867:.\display.c   ****                     temp[1]|=0x00030000;
 2278              		.loc 1 867 0
 2279 005c 0143     		orr	r1, r0
 2280              		.loc 1 868 0
 2281 005e 0243     		orr	r2, r0
 869:.\display.c   ****                     temp[3]|=0x00030000;//2
 2282              		.loc 1 869 0
 2283 0060 E368     		ldr	r3, [r4, #12]
 866:.\display.c   ****                     temp[0]|=0x00030000;
 2284              		.loc 1 866 0
 2285 0062 2560     		str	r5, [r4]
 867:.\display.c   ****                     temp[1]|=0x00030000;
 2286              		.loc 1 867 0
 2287 0064 6160     		str	r1, [r4, #4]
 870:.\display.c   ****                     temp[4]|=0x00030000;
 2288              		.loc 1 870 0
 2289 0066 2569     		ldr	r5, [r4, #16]
 871:.\display.c   ****                     temp[5]|=0x00030000;
 2290              		.loc 1 871 0
 2291 0068 6169     		ldr	r1, [r4, #20]
ARM GAS  C:\Users\ZHANGM~1\AppData\Local\Temp\ccWWGwEp.s 			page 67


 868:.\display.c   ****                     temp[2]|=0x00030000;
 2292              		.loc 1 868 0
 2293 006a A260     		str	r2, [r4, #8]
 872:.\display.c   ****                     temp[6]|=0x00030000;
 2294              		.loc 1 872 0
 2295 006c A269     		ldr	r2, [r4, #24]
 869:.\display.c   ****                     temp[3]|=0x00030000;//2
 2296              		.loc 1 869 0
 2297 006e 0343     		orr	r3, r0
 870:.\display.c   ****                     temp[4]|=0x00030000;
 2298              		.loc 1 870 0
 2299 0070 0543     		orr	r5, r0
 871:.\display.c   ****                     temp[5]|=0x00030000;
 2300              		.loc 1 871 0
 2301 0072 0143     		orr	r1, r0
 2302              		.loc 1 872 0
 2303 0074 1043     		orr	r0, r2
 869:.\display.c   ****                     temp[3]|=0x00030000;//2
 2304              		.loc 1 869 0
 2305 0076 E360     		str	r3, [r4, #12]
 870:.\display.c   ****                     temp[4]|=0x00030000;
 2306              		.loc 1 870 0
 2307 0078 2561     		str	r5, [r4, #16]
 871:.\display.c   ****                     temp[5]|=0x00030000;
 2308              		.loc 1 871 0
 2309 007a 6161     		str	r1, [r4, #20]
 2310              		.loc 1 872 0
 2311 007c A061     		str	r0, [r4, #24]
 2312              	.L205:
 873:.\display.c   ****                 }
 874:.\display.c   ****                     
 875:.\display.c   ****                 if(Error_Data.bit.Error_01_flag==1)    
 2313              		.loc 1 875 0
 2314 007e 3678     		ldrb	r6, [r6]
 2315 0080 B207     		lsl	r2, r6, #30
 2316 0082 1ED5     		bpl	.L203
 876:.\display.c   ****                 {
 877:.\display.c   ****                     /*E1*/ 
 878:.\display.c   ****                     yanshi_Digital_Trans(DIG3,14);
 2317              		.loc 1 878 0
 2318 0084 0F20     		mov	r0, #15
 2319 0086 0E21     		mov	r1, #14
 2320 0088 FFF7FEFF 		bl	yanshi_Digital_Trans
 2321              	.LVL95:
 879:.\display.c   ****                     yanshi_Digital_Trans(DIG4,1);
 2322              		.loc 1 879 0
 2323 008c 0E20     		mov	r0, #14
 2324 008e 0121     		mov	r1, #1
 2325 0090 FFF7FEFF 		bl	yanshi_Digital_Trans
 2326              	.LVL96:
 880:.\display.c   ****                     temp[0]|=0x00030000;
 2327              		.loc 1 880 0
 2328 0094 C020     		mov	r0, #192
 2329 0096 2568     		ldr	r5, [r4]
 881:.\display.c   ****                     temp[1]|=0x00030000;
 2330              		.loc 1 881 0
 2331 0098 6168     		ldr	r1, [r4, #4]
ARM GAS  C:\Users\ZHANGM~1\AppData\Local\Temp\ccWWGwEp.s 			page 68


 880:.\display.c   ****                     temp[0]|=0x00030000;
 2332              		.loc 1 880 0
 2333 009a 8302     		lsl	r3, r0, #10
 2334 009c 1D43     		orr	r5, r3
 2335              		.loc 1 881 0
 2336 009e 1943     		orr	r1, r3
 882:.\display.c   ****                     temp[2]|=0x00030000;
 2337              		.loc 1 882 0
 2338 00a0 A268     		ldr	r2, [r4, #8]
 883:.\display.c   ****                     temp[3]|=0x00030000;//2
 2339              		.loc 1 883 0
 2340 00a2 E668     		ldr	r6, [r4, #12]
 884:.\display.c   ****                     temp[4]|=0x00030000;
 2341              		.loc 1 884 0
 2342 00a4 2069     		ldr	r0, [r4, #16]
 880:.\display.c   ****                     temp[0]|=0x00030000;
 2343              		.loc 1 880 0
 2344 00a6 2560     		str	r5, [r4]
 881:.\display.c   ****                     temp[1]|=0x00030000;
 2345              		.loc 1 881 0
 2346 00a8 6160     		str	r1, [r4, #4]
 885:.\display.c   ****                     temp[5]|=0x00030000;
 2347              		.loc 1 885 0
 2348 00aa 6569     		ldr	r5, [r4, #20]
 886:.\display.c   ****                     temp[6]|=0x00030000;   
 2349              		.loc 1 886 0
 2350 00ac A169     		ldr	r1, [r4, #24]
 882:.\display.c   ****                     temp[2]|=0x00030000;
 2351              		.loc 1 882 0
 2352 00ae 1A43     		orr	r2, r3
 883:.\display.c   ****                     temp[3]|=0x00030000;//2
 2353              		.loc 1 883 0
 2354 00b0 1E43     		orr	r6, r3
 884:.\display.c   ****                     temp[4]|=0x00030000;
 2355              		.loc 1 884 0
 2356 00b2 1843     		orr	r0, r3
 885:.\display.c   ****                     temp[5]|=0x00030000;
 2357              		.loc 1 885 0
 2358 00b4 1D43     		orr	r5, r3
 2359              		.loc 1 886 0
 2360 00b6 0B43     		orr	r3, r1
 882:.\display.c   ****                     temp[2]|=0x00030000;
 2361              		.loc 1 882 0
 2362 00b8 A260     		str	r2, [r4, #8]
 883:.\display.c   ****                     temp[3]|=0x00030000;//2
 2363              		.loc 1 883 0
 2364 00ba E660     		str	r6, [r4, #12]
 884:.\display.c   ****                     temp[4]|=0x00030000;
 2365              		.loc 1 884 0
 2366 00bc 2061     		str	r0, [r4, #16]
 885:.\display.c   ****                     temp[5]|=0x00030000;
 2367              		.loc 1 885 0
 2368 00be 6561     		str	r5, [r4, #20]
 2369              		.loc 1 886 0
 2370 00c0 A361     		str	r3, [r4, #24]
 2371              	.L203:
 887:.\display.c   ****                 }    
ARM GAS  C:\Users\ZHANGM~1\AppData\Local\Temp\ccWWGwEp.s 			page 69


 888:.\display.c   ****                     
 889:.\display.c   ****                
 890:.\display.c   ****             }    
 891:.\display.c   ****                 
 892:.\display.c   ****             
 893:.\display.c   ****             
 894:.\display.c   ****         }
 895:.\display.c   ****     
 896:.\display.c   ****     
 897:.\display.c   ****    //*******************************************************
 898:.\display.c   ****     if(DisFlag.sflash)
 2372              		.loc 1 898 0
 2373 00c2 7B4B     		ldr	r3, .L250+12
 2374 00c4 5A78     		ldrb	r2, [r3, #1]
 2375 00c6 1607     		lsl	r6, r2, #28
 2376 00c8 0AD5     		bpl	.L207
 899:.\display.c   ****     {
 900:.\display.c   ****         if(DisFlag.flashsta)
 2377              		.loc 1 900 0
 2378 00ca DD78     		ldrb	r5, [r3, #3]
 2379 00cc 0621     		mov	r1, #6
 2380 00ce E809     		lsr	r0, r5, #7
 2381 00d0 03D0     		beq	.L208
 901:.\display.c   ****         {
 902:.\display.c   ****             temp[S_CON] &= ~(0x00000003 << 1);
 2382              		.loc 1 902 0
 2383 00d2 2568     		ldr	r5, [r4]
 2384 00d4 8D43     		bic	r5, r1
 2385 00d6 291C     		mov	r1, r5
 2386 00d8 06E0     		b	.L240
 2387              	.L208:
 903:.\display.c   ****         }else
 904:.\display.c   ****         {
 905:.\display.c   ****            temp[S_CON] |= (0x00000003 << 1);
 2388              		.loc 1 905 0
 2389 00da 2668     		ldr	r6, [r4]
 2390 00dc 3143     		orr	r1, r6
 2391 00de 03E0     		b	.L240
 2392              	.L207:
 906:.\display.c   ****         }
 907:.\display.c   ****     }else
 908:.\display.c   ****     {
 909:.\display.c   ****         temp[S_CON] &= ~(0x00000003 << 1);
 2393              		.loc 1 909 0
 2394 00e0 2668     		ldr	r6, [r4]
 2395 00e2 0620     		mov	r0, #6
 2396 00e4 8643     		bic	r6, r0
 2397 00e6 311C     		mov	r1, r6
 2398              	.L240:
 2399 00e8 2160     		str	r1, [r4]
 910:.\display.c   ****     }
 911:.\display.c   ****     if(DisFlag.hflash)
 2400              		.loc 1 911 0
 2401 00ea D006     		lsl	r0, r2, #27
 2402 00ec 0AD5     		bpl	.L210
 912:.\display.c   ****     {
 913:.\display.c   ****         if(DisFlag.flashsta)
ARM GAS  C:\Users\ZHANGM~1\AppData\Local\Temp\ccWWGwEp.s 			page 70


 2403              		.loc 1 913 0
 2404 00ee DE78     		ldrb	r6, [r3, #3]
 2405 00f0 0621     		mov	r1, #6
 2406 00f2 F509     		lsr	r5, r6, #7
 2407 00f4 03D0     		beq	.L211
 914:.\display.c   ****         {
 915:.\display.c   ****             temp[H_CON] &= ~(0x00000003 << 1);
 2408              		.loc 1 915 0
 2409 00f6 6668     		ldr	r6, [r4, #4]
 2410 00f8 8E43     		bic	r6, r1
 2411 00fa 311C     		mov	r1, r6
 2412 00fc 06E0     		b	.L241
 2413              	.L211:
 916:.\display.c   ****         }else
 917:.\display.c   ****         {
 918:.\display.c   ****             temp[H_CON] |= (0x00000003 << 1);
 2414              		.loc 1 918 0
 2415 00fe 6068     		ldr	r0, [r4, #4]
 2416 0100 0143     		orr	r1, r0
 2417 0102 03E0     		b	.L241
 2418              	.L210:
 919:.\display.c   ****         }
 920:.\display.c   ****     }else
 921:.\display.c   ****     {
 922:.\display.c   ****         temp[H_CON] &= ~(0x00000003 << 1);
 2419              		.loc 1 922 0
 2420 0104 6068     		ldr	r0, [r4, #4]
 2421 0106 0621     		mov	r1, #6
 2422 0108 8843     		bic	r0, r1
 2423 010a 011C     		mov	r1, r0
 2424              	.L241:
 2425 010c 6160     		str	r1, [r4, #4]
 923:.\display.c   ****     }
 924:.\display.c   ****     if(DisFlag.jflash)
 2426              		.loc 1 924 0
 2427 010e 9106     		lsl	r1, r2, #26
 2428 0110 0AD5     		bpl	.L213
 925:.\display.c   ****     {
 926:.\display.c   ****         if(DisFlag.flashsta)
 2429              		.loc 1 926 0
 2430 0112 D878     		ldrb	r0, [r3, #3]
 2431 0114 0621     		mov	r1, #6
 2432 0116 C609     		lsr	r6, r0, #7
 2433 0118 03D0     		beq	.L214
 927:.\display.c   ****         {
 928:.\display.c   ****             temp[J_CON] &= ~(0x00000003 << 1);
 2434              		.loc 1 928 0
 2435 011a A068     		ldr	r0, [r4, #8]
 2436 011c 8843     		bic	r0, r1
 2437 011e 011C     		mov	r1, r0
 2438 0120 06E0     		b	.L242
 2439              	.L214:
 929:.\display.c   ****         }else
 930:.\display.c   ****         {
 931:.\display.c   ****            temp[J_CON] |= (0x00000003 << 1);
 2440              		.loc 1 931 0
 2441 0122 A568     		ldr	r5, [r4, #8]
ARM GAS  C:\Users\ZHANGM~1\AppData\Local\Temp\ccWWGwEp.s 			page 71


 2442 0124 2943     		orr	r1, r5
 2443 0126 03E0     		b	.L242
 2444              	.L213:
 932:.\display.c   ****         }
 933:.\display.c   ****     }else
 934:.\display.c   ****     {
 935:.\display.c   ****         temp[J_CON] &= ~(0x00000003 << 1);
 2445              		.loc 1 935 0
 2446 0128 A568     		ldr	r5, [r4, #8]
 2447 012a 0621     		mov	r1, #6
 2448 012c 8D43     		bic	r5, r1
 2449 012e 291C     		mov	r1, r5
 2450              	.L242:
 2451 0130 A160     		str	r1, [r4, #8]
 936:.\display.c   ****     }
 937:.\display.c   ****     if(DisFlag.kflash)
 2452              		.loc 1 937 0
 2453 0132 5106     		lsl	r1, r2, #25
 2454 0134 0AD5     		bpl	.L216
 938:.\display.c   ****     {
 939:.\display.c   ****         if(DisFlag.flashsta)
 2455              		.loc 1 939 0
 2456 0136 DD78     		ldrb	r5, [r3, #3]
 2457 0138 0621     		mov	r1, #6
 2458 013a E809     		lsr	r0, r5, #7
 2459 013c 03D0     		beq	.L217
 940:.\display.c   ****         {
 941:.\display.c   ****             temp[K_CON] &= ~(0x00000003 << 1);
 2460              		.loc 1 941 0
 2461 013e E568     		ldr	r5, [r4, #12]
 2462 0140 8D43     		bic	r5, r1
 2463 0142 291C     		mov	r1, r5
 2464 0144 06E0     		b	.L243
 2465              	.L217:
 942:.\display.c   ****         }else
 943:.\display.c   ****         {
 944:.\display.c   ****             temp[K_CON] |= (0x00000003 << 1);
 2466              		.loc 1 944 0
 2467 0146 E668     		ldr	r6, [r4, #12]
 2468 0148 3143     		orr	r1, r6
 2469 014a 03E0     		b	.L243
 2470              	.L216:
 945:.\display.c   ****         }
 946:.\display.c   ****     }else
 947:.\display.c   ****     {
 948:.\display.c   ****         temp[K_CON] &= ~(0x00000003 << 1);
 2471              		.loc 1 948 0
 2472 014c E668     		ldr	r6, [r4, #12]
 2473 014e 0621     		mov	r1, #6
 2474 0150 8E43     		bic	r6, r1
 2475 0152 311C     		mov	r1, r6
 2476              	.L243:
 2477 0154 E160     		str	r1, [r4, #12]
 949:.\display.c   ****     }
 950:.\display.c   ****     if(DisFlag.lflash)
 2478              		.loc 1 950 0
 2479 0156 101C     		mov	r0, r2
ARM GAS  C:\Users\ZHANGM~1\AppData\Local\Temp\ccWWGwEp.s 			page 72


 2480 0158 7F21     		mov	r1, #127
 2481 015a 8843     		bic	r0, r1
 2482 015c 0BD0     		beq	.L219
 951:.\display.c   ****     {
 952:.\display.c   ****         if(DisFlag.flashsta)
 2483              		.loc 1 952 0
 2484 015e D878     		ldrb	r0, [r3, #3]
 2485 0160 8843     		bic	r0, r1
 2486 0162 0621     		mov	r1, #6
 2487 0164 0028     		cmp	r0, #0
 2488 0166 03D0     		beq	.L220
 953:.\display.c   ****         {
 954:.\display.c   ****             temp[L_CON] &= ~(0x00000003 << 1);
 2489              		.loc 1 954 0
 2490 0168 2569     		ldr	r5, [r4, #16]
 2491 016a 8D43     		bic	r5, r1
 2492 016c 291C     		mov	r1, r5
 2493 016e 06E0     		b	.L244
 2494              	.L220:
 955:.\display.c   ****         }else
 956:.\display.c   ****         {
 957:.\display.c   ****             temp[L_CON] |= (0x00000003 << 1);
 2495              		.loc 1 957 0
 2496 0170 2669     		ldr	r6, [r4, #16]
 2497 0172 3143     		orr	r1, r6
 2498 0174 03E0     		b	.L244
 2499              	.L219:
 958:.\display.c   ****         }
 959:.\display.c   ****     }else
 960:.\display.c   ****     {
 961:.\display.c   ****         temp[L_CON] &= ~(0x00000003 << 1);
 2500              		.loc 1 961 0
 2501 0176 2569     		ldr	r5, [r4, #16]
 2502 0178 0626     		mov	r6, #6
 2503 017a B543     		bic	r5, r6
 2504 017c 291C     		mov	r1, r5
 2505              	.L244:
 2506 017e 2161     		str	r1, [r4, #16]
 962:.\display.c   ****     }
 963:.\display.c   ****     if(DisFlag.mflash)
 2507              		.loc 1 963 0
 2508 0180 9978     		ldrb	r1, [r3, #2]
 2509 0182 CD07     		lsl	r5, r1, #31
 2510 0184 07D5     		bpl	.L222
 964:.\display.c   ****     {
 965:.\display.c   ****         if(DisFlag.flashsta)
 2511              		.loc 1 965 0
 2512 0186 D878     		ldrb	r0, [r3, #3]
 2513 0188 C609     		lsr	r6, r0, #7
 2514 018a 0620     		mov	r0, #6
 2515 018c 002E     		cmp	r6, #0
 2516 018e 03D1     		bne	.L245
 2517              	.L223:
 966:.\display.c   ****         {
 967:.\display.c   ****             temp[M_CON] &= ~(0x00000003 << 1);
 968:.\display.c   ****         }else
 969:.\display.c   ****         {
ARM GAS  C:\Users\ZHANGM~1\AppData\Local\Temp\ccWWGwEp.s 			page 73


 970:.\display.c   ****             temp[M_CON] |= (0x00000003 << 1);
 2518              		.loc 1 970 0
 2519 0190 6569     		ldr	r5, [r4, #20]
 2520 0192 2843     		orr	r0, r5
 2521 0194 03E0     		b	.L246
 2522              	.L222:
 971:.\display.c   ****         }
 972:.\display.c   ****     }else
 973:.\display.c   ****     {
 974:.\display.c   ****         temp[M_CON] &= ~(0x00000003 << 1);
 2523              		.loc 1 974 0
 2524 0196 0620     		mov	r0, #6
 2525              	.L245:
 2526 0198 6669     		ldr	r6, [r4, #20]
 2527 019a 8643     		bic	r6, r0
 2528 019c 301C     		mov	r0, r6
 2529              	.L246:
 975:.\display.c   ****     }
 976:.\display.c   ****     if(FlashCnt > TIMER500MS)
 2530              		.loc 1 976 0
 2531 019e 454E     		ldr	r6, .L250+16
 974:.\display.c   ****         temp[M_CON] &= ~(0x00000003 << 1);
 2532              		.loc 1 974 0
 2533 01a0 6061     		str	r0, [r4, #20]
 2534              		.loc 1 976 0
 2535 01a2 3578     		ldrb	r5, [r6]
 2536 01a4 052D     		cmp	r5, #5
 2537 01a6 0AD9     		bls	.L225
 977:.\display.c   ****     	{
 978:.\display.c   ****         FlashCnt = 0;
 2538              		.loc 1 978 0
 2539 01a8 0020     		mov	r0, #0
 2540 01aa 3070     		strb	r0, [r6]
 979:.\display.c   ****         DisFlag.flashsta = !DisFlag.flashsta;
 2541              		.loc 1 979 0
 2542 01ac D878     		ldrb	r0, [r3, #3]
 2543 01ae C643     		mvn	r6, r0
 2544 01b0 F5B2     		uxtb	r5, r6
 2545 01b2 EE09     		lsr	r6, r5, #7
 2546 01b4 F501     		lsl	r5, r6, #7
 2547 01b6 7F26     		mov	r6, #127
 2548 01b8 3040     		and	r0, r6
 2549 01ba 2843     		orr	r0, r5
 2550 01bc D870     		strb	r0, [r3, #3]
 2551              	.L225:
 980:.\display.c   ****     	}
 981:.\display.c   ****       
 982:.\display.c   ****     if(DisFlag.south)
 2552              		.loc 1 982 0
 2553 01be 1D78     		ldrb	r5, [r3]
 2554 01c0 0120     		mov	r0, #1
 2555 01c2 EE06     		lsl	r6, r5, #27
 2556 01c4 03D5     		bpl	.L226
 983:.\display.c   ****     	{
 984:.\display.c   ****         temp[N13_CON] &= ~(1 << N13);
 2557              		.loc 1 984 0
 2558 01c6 2668     		ldr	r6, [r4]
ARM GAS  C:\Users\ZHANGM~1\AppData\Local\Temp\ccWWGwEp.s 			page 74


 2559 01c8 8643     		bic	r6, r0
 2560 01ca 301C     		mov	r0, r6
 2561 01cc 01E0     		b	.L247
 2562              	.L226:
 985:.\display.c   ****     	}
 986:.\display.c   ****     else
 987:.\display.c   ****      {
 988:.\display.c   ****        temp[N13_CON] |= (1 << N13);
 2563              		.loc 1 988 0
 2564 01ce 2668     		ldr	r6, [r4]
 2565 01d0 3043     		orr	r0, r6
 2566              	.L247:
 2567 01d2 2060     		str	r0, [r4]
 2568 01d4 0120     		mov	r0, #1
 989:.\display.c   ****      }
 990:.\display.c   ****     if(DisFlag.north)
 2569              		.loc 1 990 0
 2570 01d6 AE06     		lsl	r6, r5, #26
 2571 01d8 03D5     		bpl	.L228
 991:.\display.c   ****     {
 992:.\display.c   ****         temp[N15_CON] &= ~(1 << N15);
 2572              		.loc 1 992 0
 2573 01da A668     		ldr	r6, [r4, #8]
 2574 01dc 8643     		bic	r6, r0
 2575 01de 301C     		mov	r0, r6
 2576 01e0 01E0     		b	.L248
 2577              	.L228:
 993:.\display.c   ****     }else
 994:.\display.c   ****     {
 995:.\display.c   ****         temp[N15_CON] |= (1 << N15);
 2578              		.loc 1 995 0
 2579 01e2 A568     		ldr	r5, [r4, #8]
 2580 01e4 2843     		orr	r0, r5
 2581              	.L248:
 2582 01e6 A060     		str	r0, [r4, #8]
 996:.\display.c   ****     }
 997:.\display.c   ****     
 998:.\display.c   ****     if(DisFlag.errorsignflash == 0)
 2583              		.loc 1 998 0
 2584 01e8 C909     		lsr	r1, r1, #7
 2585 01ea 10D1     		bne	.L230
 999:.\display.c   ****         {
1000:.\display.c   ****             if(DisFlag.errorsign)
 2586              		.loc 1 1000 0
 2587 01ec 9007     		lsl	r0, r2, #30
 2588 01ee 06D5     		bpl	.L231
1001:.\display.c   ****             {
1002:.\display.c   ****                 temp[P1_CON] &= ~(1 << P1);
 2589              		.loc 1 1002 0
 2590 01f0 314D     		ldr	r5, .L250+20
 2591 01f2 2168     		ldr	r1, [r4]
1003:.\display.c   ****                 temp[P2_CON] &= ~(1 << P2);
 2592              		.loc 1 1003 0
 2593 01f4 6368     		ldr	r3, [r4, #4]
1002:.\display.c   ****                 temp[P1_CON] &= ~(1 << P1);
 2594              		.loc 1 1002 0
 2595 01f6 2940     		and	r1, r5
ARM GAS  C:\Users\ZHANGM~1\AppData\Local\Temp\ccWWGwEp.s 			page 75


 2596 01f8 2160     		str	r1, [r4]
 2597              		.loc 1 1003 0
 2598 01fa 1D40     		and	r5, r3
 2599 01fc 18E0     		b	.L249
 2600              	.L231:
1004:.\display.c   ****             }else
1005:.\display.c   ****             {
1006:.\display.c   ****                 temp[P1_CON] |= (1 << P1);
 2601              		.loc 1 1006 0
 2602 01fe 2068     		ldr	r0, [r4]
 2603 0200 8022     		mov	r2, #128
 2604 0202 9501     		lsl	r5, r2, #6
1007:.\display.c   ****                 temp[P2_CON] |= (1 << P2);
 2605              		.loc 1 1007 0
 2606 0204 6668     		ldr	r6, [r4, #4]
1006:.\display.c   ****                 temp[P1_CON] |= (1 << P1);
 2607              		.loc 1 1006 0
 2608 0206 2843     		orr	r0, r5
 2609 0208 2060     		str	r0, [r4]
 2610              		.loc 1 1007 0
 2611 020a 3543     		orr	r5, r6
 2612 020c 10E0     		b	.L249
 2613              	.L230:
1008:.\display.c   ****             }
1009:.\display.c   ****         }else
1010:.\display.c   ****         {
1011:.\display.c   ****             if(DisFlag.sta)
 2614              		.loc 1 1011 0
 2615 020e DB78     		ldrb	r3, [r3, #3]
 2616 0210 5D06     		lsl	r5, r3, #25
 2617 0212 06D5     		bpl	.L233
1012:.\display.c   ****             {
1013:.\display.c   ****                 temp[P1_CON] &= ~(1 << P1);
 2618              		.loc 1 1013 0
 2619 0214 284D     		ldr	r5, .L250+20
 2620 0216 2168     		ldr	r1, [r4]
1014:.\display.c   ****                 temp[P2_CON] &= ~(1 << P2);
 2621              		.loc 1 1014 0
 2622 0218 6368     		ldr	r3, [r4, #4]
1013:.\display.c   ****                 temp[P1_CON] &= ~(1 << P1);
 2623              		.loc 1 1013 0
 2624 021a 2940     		and	r1, r5
 2625 021c 2160     		str	r1, [r4]
 2626              		.loc 1 1014 0
 2627 021e 1D40     		and	r5, r3
 2628 0220 06E0     		b	.L249
 2629              	.L233:
1015:.\display.c   ****             }else
1016:.\display.c   ****             {
1017:.\display.c   ****                 temp[P1_CON] |= (1 << P1);
 2630              		.loc 1 1017 0
 2631 0222 2068     		ldr	r0, [r4]
 2632 0224 8022     		mov	r2, #128
 2633 0226 9501     		lsl	r5, r2, #6
1018:.\display.c   ****                 temp[P2_CON] |= (1 << P2);
 2634              		.loc 1 1018 0
 2635 0228 6668     		ldr	r6, [r4, #4]
ARM GAS  C:\Users\ZHANGM~1\AppData\Local\Temp\ccWWGwEp.s 			page 76


1017:.\display.c   ****                 temp[P1_CON] |= (1 << P1);
 2636              		.loc 1 1017 0
 2637 022a 2843     		orr	r0, r5
 2638 022c 2060     		str	r0, [r4]
 2639              		.loc 1 1018 0
 2640 022e 3543     		orr	r5, r6
 2641              	.L249:
 2642 0230 6560     		str	r5, [r4, #4]
1019:.\display.c   ****             }
1020:.\display.c   ****         }    
1021:.\display.c   ****         
1022:.\display.c   ****         
1023:.\display.c   ****     
1024:.\display.c   ****     
1025:.\display.c   ****     
1026:.\display.c   ****     
1027:.\display.c   ****     
1028:.\display.c   ****     //*******************************************************,
1029:.\display.c   ****     temp[S_CON] |= (0x000003ff<<S_SHIFT);
1030:.\display.c   ****     temp[S_CON] &= ~((0x000003ff >> temps)<<S_SHIFT);
 2643              		.loc 1 1030 0
 2644 0232 224D     		ldr	r5, .L250+24
 2645 0234 224A     		ldr	r2, .L250+28
 2646 0236 2878     		ldrb	r0, [r5]
 2647 0238 161C     		mov	r6, r2
 2648 023a 0641     		asr	r6, r6, r0
1029:.\display.c   ****     temp[S_CON] |= (0x000003ff<<S_SHIFT);
 2649              		.loc 1 1029 0
 2650 023c 214B     		ldr	r3, .L250+32
 2651              		.loc 1 1030 0
 2652 023e F500     		lsl	r5, r6, #3
1029:.\display.c   ****     temp[S_CON] |= (0x000003ff<<S_SHIFT);
 2653              		.loc 1 1029 0
 2654 0240 2068     		ldr	r0, [r4]
1031:.\display.c   ****     temp[H_CON] |= (0x000003ff<<H_SHIFT);
1032:.\display.c   ****     temp[H_CON] &= ~((0x000003ff >> temph)<<H_SHIFT);
 2655              		.loc 1 1032 0
 2656 0242 214E     		ldr	r6, .L250+36
1029:.\display.c   ****     temp[S_CON] |= (0x000003ff<<S_SHIFT);
 2657              		.loc 1 1029 0
 2658 0244 1843     		orr	r0, r3
 2659              		.loc 1 1032 0
 2660 0246 3178     		ldrb	r1, [r6]
1030:.\display.c   ****     temp[S_CON] &= ~((0x000003ff >> temps)<<S_SHIFT);
 2661              		.loc 1 1030 0
 2662 0248 A843     		bic	r0, r5
 2663              		.loc 1 1032 0
 2664 024a 151C     		mov	r5, r2
 2665 024c 0D41     		asr	r5, r5, r1
 2666 024e EE00     		lsl	r6, r5, #3
1031:.\display.c   ****     temp[H_CON] |= (0x000003ff<<H_SHIFT);
 2667              		.loc 1 1031 0
 2668 0250 6168     		ldr	r1, [r4, #4]
1033:.\display.c   ****     temp[J_CON] |= (0x000003ff<<J_SHIFT);
1034:.\display.c   ****     temp[J_CON] &= ~((0x000003ff >> tempj)<<J_SHIFT);
 2669              		.loc 1 1034 0
 2670 0252 1E4D     		ldr	r5, .L250+40
ARM GAS  C:\Users\ZHANGM~1\AppData\Local\Temp\ccWWGwEp.s 			page 77


1030:.\display.c   ****     temp[S_CON] &= ~((0x000003ff >> temps)<<S_SHIFT);
 2671              		.loc 1 1030 0
 2672 0254 2060     		str	r0, [r4]
1031:.\display.c   ****     temp[H_CON] |= (0x000003ff<<H_SHIFT);
 2673              		.loc 1 1031 0
 2674 0256 1943     		orr	r1, r3
 2675              		.loc 1 1034 0
 2676 0258 2878     		ldrb	r0, [r5]
1032:.\display.c   ****     temp[H_CON] &= ~((0x000003ff >> temph)<<H_SHIFT);
 2677              		.loc 1 1032 0
 2678 025a B143     		bic	r1, r6
 2679              		.loc 1 1034 0
 2680 025c 161C     		mov	r6, r2
 2681 025e 0641     		asr	r6, r6, r0
1033:.\display.c   ****     temp[J_CON] |= (0x000003ff<<J_SHIFT);
 2682              		.loc 1 1033 0
 2683 0260 A068     		ldr	r0, [r4, #8]
 2684              		.loc 1 1034 0
 2685 0262 F500     		lsl	r5, r6, #3
1035:.\display.c   ****     temp[K_CON] |= (0x000003ff<<K_SHIFT);
1036:.\display.c   ****     temp[K_CON] &= ~((0x000003ff >> tempk)<<K_SHIFT);
 2686              		.loc 1 1036 0
 2687 0264 1A4E     		ldr	r6, .L250+44
1033:.\display.c   ****     temp[J_CON] |= (0x000003ff<<J_SHIFT);
 2688              		.loc 1 1033 0
 2689 0266 1843     		orr	r0, r3
1034:.\display.c   ****     temp[J_CON] &= ~((0x000003ff >> tempj)<<J_SHIFT);
 2690              		.loc 1 1034 0
 2691 0268 A843     		bic	r0, r5
 2692              		.loc 1 1036 0
 2693 026a 3578     		ldrb	r5, [r6]
1032:.\display.c   ****     temp[H_CON] &= ~((0x000003ff >> temph)<<H_SHIFT);
 2694              		.loc 1 1032 0
 2695 026c 6160     		str	r1, [r4, #4]
 2696              		.loc 1 1036 0
 2697 026e 111C     		mov	r1, r2
 2698 0270 2941     		asr	r1, r1, r5
 2699 0272 CE00     		lsl	r6, r1, #3
1035:.\display.c   ****     temp[K_CON] |= (0x000003ff<<K_SHIFT);
 2700              		.loc 1 1035 0
 2701 0274 E568     		ldr	r5, [r4, #12]
1037:.\display.c   ****     temp[L_CON] |= (0x000003ff<<L_SHIFT);
1038:.\display.c   ****     temp[L_CON] &= ~((0x000003ff >> templ)<<L_SHIFT);
 2702              		.loc 1 1038 0
 2703 0276 1749     		ldr	r1, .L250+48
1034:.\display.c   ****     temp[J_CON] &= ~((0x000003ff >> tempj)<<J_SHIFT);
 2704              		.loc 1 1034 0
 2705 0278 A060     		str	r0, [r4, #8]
1035:.\display.c   ****     temp[K_CON] |= (0x000003ff<<K_SHIFT);
 2706              		.loc 1 1035 0
 2707 027a 1D43     		orr	r5, r3
 2708              		.loc 1 1038 0
 2709 027c 0878     		ldrb	r0, [r1]
1036:.\display.c   ****     temp[K_CON] &= ~((0x000003ff >> tempk)<<K_SHIFT);
 2710              		.loc 1 1036 0
 2711 027e B543     		bic	r5, r6
 2712              		.loc 1 1038 0
ARM GAS  C:\Users\ZHANGM~1\AppData\Local\Temp\ccWWGwEp.s 			page 78


 2713 0280 161C     		mov	r6, r2
 2714 0282 0641     		asr	r6, r6, r0
 2715 0284 F000     		lsl	r0, r6, #3
1037:.\display.c   ****     temp[L_CON] |= (0x000003ff<<L_SHIFT);
 2716              		.loc 1 1037 0
 2717 0286 2169     		ldr	r1, [r4, #16]
1039:.\display.c   ****     temp[M_CON] |= (0x000003ff<<M_SHIFT);
1040:.\display.c   ****     temp[M_CON] &= ~((0x000003ff >> tempm)<<M_SHIFT);
 2718              		.loc 1 1040 0
 2719 0288 134E     		ldr	r6, .L250+52
1036:.\display.c   ****     temp[K_CON] &= ~((0x000003ff >> tempk)<<K_SHIFT);
 2720              		.loc 1 1036 0
 2721 028a E560     		str	r5, [r4, #12]
1037:.\display.c   ****     temp[L_CON] |= (0x000003ff<<L_SHIFT);
 2722              		.loc 1 1037 0
 2723 028c 1943     		orr	r1, r3
 2724              		.loc 1 1040 0
 2725 028e 3578     		ldrb	r5, [r6]
1038:.\display.c   ****     temp[L_CON] &= ~((0x000003ff >> templ)<<L_SHIFT);
 2726              		.loc 1 1038 0
 2727 0290 8143     		bic	r1, r0
1039:.\display.c   ****     temp[M_CON] |= (0x000003ff<<M_SHIFT);
 2728              		.loc 1 1039 0
 2729 0292 6069     		ldr	r0, [r4, #20]
 2730              		.loc 1 1040 0
 2731 0294 2A41     		asr	r2, r2, r5
 2732 0296 D200     		lsl	r2, r2, #3
1039:.\display.c   ****     temp[M_CON] |= (0x000003ff<<M_SHIFT);
 2733              		.loc 1 1039 0
 2734 0298 0343     		orr	r3, r0
 2735              		.loc 1 1040 0
 2736 029a 9343     		bic	r3, r2
1038:.\display.c   ****     temp[L_CON] &= ~((0x000003ff >> templ)<<L_SHIFT);
 2737              		.loc 1 1038 0
 2738 029c 2161     		str	r1, [r4, #16]
 2739              		.loc 1 1040 0
 2740 029e 6361     		str	r3, [r4, #20]
1041:.\display.c   ****     
1042:.\display.c   ****     
1043:.\display.c   ****     
1044:.\display.c   ****     
1045:.\display.c   ****     
1046:.\display.c   ****     
1047:.\display.c   ****     
1048:.\display.c   ****     
1049:.\display.c   ****     
1050:.\display.c   ****     
1051:.\display.c   ****     
1052:.\display.c   ****     
1053:.\display.c   ****     
1054:.\display.c   ****     
1055:.\display.c   ****     
1056:.\display.c   ****     
1057:.\display.c   ****     
1058:.\display.c   ****     
1059:.\display.c   ****     
1060:.\display.c   ****     
ARM GAS  C:\Users\ZHANGM~1\AppData\Local\Temp\ccWWGwEp.s 			page 79


1061:.\display.c   ****     
1062:.\display.c   ****     
1063:.\display.c   **** 
1064:.\display.c   **** 
1065:.\display.c   **** 
1066:.\display.c   **** 
1067:.\display.c   **** 
1068:.\display.c   **** 
1069:.\display.c   **** }
 2741              		.loc 1 1069 0
 2742              		@ sp needed for prologue
 2743 02a0 70BD     		pop	{r4, r5, r6, pc}
 2744              	.L251:
 2745 02a2 C046     		.align	2
 2746              	.L250:
 2747 02a4 00000000 		.word	WorkFlag
 2748 02a8 00000000 		.word	temp
 2749 02ac 00000000 		.word	Error_Data
 2750 02b0 00000000 		.word	DisFlag
 2751 02b4 00000000 		.word	FlashCnt
 2752 02b8 FFDFFFFF 		.word	-8193
 2753 02bc 00000000 		.word	temps
 2754 02c0 FF030000 		.word	1023
 2755 02c4 F81F0000 		.word	8184
 2756 02c8 00000000 		.word	temph
 2757 02cc 00000000 		.word	tempj
 2758 02d0 00000000 		.word	tempk
 2759 02d4 00000000 		.word	templ
 2760 02d8 00000000 		.word	tempm
 2761              		.cfi_endproc
 2762              	.LFE38:
 2763              		.size	yanshidisplay, .-yanshidisplay
 2764              		.section	.text.Led_Pannel_Initial,"ax",%progbits
 2765              		.align	1
 2766              		.global	Led_Pannel_Initial
 2767              		.code	16
 2768              		.thumb_func
 2769              		.type	Led_Pannel_Initial, %function
 2770              	Led_Pannel_Initial:
 2771              	.LFB39:
1070:.\display.c   **** void Led_Pannel_Initial(void)
1071:.\display.c   **** {
 2772              		.loc 1 1071 0
 2773              		.cfi_startproc
 2774              	.LVL97:
1072:.\display.c   ****     unsigned char i;
1073:.\display.c   ****     
1074:.\display.c   ****     for(i=0;i<7;i++)
1075:.\display.c   ****         LedPannelBuf[i] = 0xffffffff;
 2775              		.loc 1 1075 0
 2776 0000 074B     		ldr	r3, .L253
 2777 0002 0122     		mov	r2, #1
1076:.\display.c   ****         
1077:.\display.c   ****     DigitalBuf = jingshuiliang;
 2778              		.loc 1 1077 0
 2779 0004 0749     		ldr	r1, .L253+4
1075:.\display.c   ****         LedPannelBuf[i] = 0xffffffff;
ARM GAS  C:\Users\ZHANGM~1\AppData\Local\Temp\ccWWGwEp.s 			page 80


 2780              		.loc 1 1075 0
 2781 0006 5042     		neg	r0, r2
 2782 0008 1860     		str	r0, [r3]
 2783              	.LVL98:
 2784 000a 5860     		str	r0, [r3, #4]
 2785              	.LVL99:
 2786 000c 9860     		str	r0, [r3, #8]
 2787              	.LVL100:
 2788 000e D860     		str	r0, [r3, #12]
 2789              	.LVL101:
 2790 0010 1861     		str	r0, [r3, #16]
 2791              	.LVL102:
 2792 0012 5861     		str	r0, [r3, #20]
 2793              	.LVL103:
 2794 0014 9861     		str	r0, [r3, #24]
 2795              	.LVL104:
 2796              		.loc 1 1077 0
 2797 0016 0A88     		ldrh	r2, [r1]
 2798 0018 034B     		ldr	r3, .L253+8
1078:.\display.c   **** }
 2799              		.loc 1 1078 0
 2800              		@ sp needed for prologue
1077:.\display.c   ****     DigitalBuf = jingshuiliang;
 2801              		.loc 1 1077 0
 2802 001a 1A60     		str	r2, [r3]
 2803              		.loc 1 1078 0
 2804 001c 7047     		bx	lr
 2805              	.L254:
 2806 001e C046     		.align	2
 2807              	.L253:
 2808 0020 00000000 		.word	LedPannelBuf
 2809 0024 00000000 		.word	jingshuiliang
 2810 0028 00000000 		.word	DigitalBuf
 2811              		.cfi_endproc
 2812              	.LFE39:
 2813              		.size	Led_Pannel_Initial, .-Led_Pannel_Initial
 2814              		.section	.text.Led_Pannel_Display,"ax",%progbits
 2815              		.align	1
 2816              		.global	Led_Pannel_Display
 2817              		.code	16
 2818              		.thumb_func
 2819              		.type	Led_Pannel_Display, %function
 2820              	Led_Pannel_Display:
 2821              	.LFB40:
1079:.\display.c   **** void Led_Pannel_Display(void)
1080:.\display.c   **** {
 2822              		.loc 1 1080 0
 2823              		.cfi_startproc
 2824 0000 38B5     		push	{r3, r4, r5, lr}
 2825              	.LCFI7:
 2826              		.cfi_def_cfa_offset 16
 2827              		.cfi_offset 3, -16
 2828              		.cfi_offset 4, -12
 2829              		.cfi_offset 5, -8
 2830              		.cfi_offset 14, -4
1081:.\display.c   **** 	  if((WorkFlag.poweroff==1)&&(WorkFlag.poweron==0))
 2831              		.loc 1 1081 0
ARM GAS  C:\Users\ZHANGM~1\AppData\Local\Temp\ccWWGwEp.s 			page 81


 2832 0002 1E4C     		ldr	r4, .L269
 2833 0004 3F22     		mov	r2, #63
 2834 0006 6378     		ldrb	r3, [r4, #1]
 2835 0008 9343     		bic	r3, r2
 2836 000a 802B     		cmp	r3, #128
 2837 000c 03D1     		bne	.L256
 2838              	.L260:
1082:.\display.c   **** 	  	{
1083:.\display.c   ****     	COMN_Write(0);
 2839              		.loc 1 1083 0
 2840 000e 0020     		mov	r0, #0
 2841 0010 FFF7FEFF 		bl	COMN_Write
 2842              	.LVL105:
1084:.\display.c   ****     	return;
 2843              		.loc 1 1084 0
 2844 0014 30E0     		b	.L255
 2845              	.L256:
1085:.\display.c   ****     	}
1086:.\display.c   ****     if(WorkFlag.yanshista == 0&&WorkFlag.standbysta==0&&zijiandisplayfig==1)
 2846              		.loc 1 1086 0
 2847 0016 1A48     		ldr	r0, .L269+4
 2848 0018 2168     		ldr	r1, [r4]
 2849 001a 0142     		tst	r1, r0
 2850 001c 05D1     		bne	.L258
 2851              		.loc 1 1086 0 is_stmt 0 discriminator 1
 2852 001e 194D     		ldr	r5, .L269+8
 2853 0020 2B78     		ldrb	r3, [r5]
 2854 0022 012B     		cmp	r3, #1
 2855 0024 01D1     		bne	.L258
1087:.\display.c   ****       {
1088:.\display.c   ****           Led_Pannel_Updata();    
 2856              		.loc 1 1088 0 is_stmt 1
 2857 0026 FFF7FEFF 		bl	Led_Pannel_Updata
 2858              	.LVL106:
 2859              	.L258:
1089:.\display.c   ****  
1090:.\display.c   ****       }  
1091:.\display.c   ****     if(WorkFlag.yanshista == 1) 		
 2860              		.loc 1 1091 0
 2861 002a 6278     		ldrb	r2, [r4, #1]
 2862 002c 0125     		mov	r5, #1
 2863 002e 2A42     		tst	r2, r5
 2864 0030 01D0     		beq	.L259
1092:.\display.c   ****     	{
1093:.\display.c   ****     		yanshidisplay();
 2865              		.loc 1 1093 0
 2866 0032 FFF7FEFF 		bl	yanshidisplay
 2867              	.LVL107:
 2868              	.L259:
1094:.\display.c   ****     		    		
1095:.\display.c   ****     	}  
1096:.\display.c   ****     if(WorkFlag.standbysta==0)  
 2869              		.loc 1 1096 0
 2870 0036 A078     		ldrb	r0, [r4, #2]
 2871 0038 2840     		and	r0, r5
 2872 003a E8D1     		bne	.L260
1097:.\display.c   ****     {
ARM GAS  C:\Users\ZHANGM~1\AppData\Local\Temp\ccWWGwEp.s 			page 82


1098:.\display.c   ****         COMN_Write(0);
 2873              		.loc 1 1098 0
 2874 003c FFF7FEFF 		bl	COMN_Write
 2875              	.LVL108:
1099:.\display.c   ****         
1100:.\display.c   ****         if(WorkFlag.yanshista==0)
 2876              		.loc 1 1100 0
 2877 0040 6078     		ldrb	r0, [r4, #1]
 2878 0042 0121     		mov	r1, #1
 2879 0044 104C     		ldr	r4, .L269+12
 2880 0046 0842     		tst	r0, r1
 2881 0048 03D1     		bne	.L261
1101:.\display.c   ****             S164_Trans_abyte(LedPannelBuf[LedPannelCnt]);//S164_Trans_abyte
 2882              		.loc 1 1101 0
 2883 004a 2078     		ldrb	r0, [r4]
 2884 004c 0F4D     		ldr	r5, .L269+16
 2885 004e 8200     		lsl	r2, r0, #2
 2886 0050 02E0     		b	.L267
 2887              	.L261:
1102:.\display.c   ****         else
1103:.\display.c   ****             S164_Trans_abyte(temp[LedPannelCnt]);//S164_Trans_abyte
 2888              		.loc 1 1103 0
 2889 0052 2378     		ldrb	r3, [r4]
 2890 0054 0E4D     		ldr	r5, .L269+20
 2891 0056 9A00     		lsl	r2, r3, #2
 2892              	.L267:
 2893 0058 5059     		ldr	r0, [r2, r5]
 2894 005a FFF7FEFF 		bl	S164_Trans_abyte
 2895              	.LVL109:
1104:.\display.c   ****      
1105:.\display.c   ****         
1106:.\display.c   ****         COMN_Write(0x40 >> LedPannelCnt);
 2896              		.loc 1 1106 0
 2897 005e 2178     		ldrb	r1, [r4]
 2898 0060 4023     		mov	r3, #64
 2899 0062 0B41     		asr	r3, r3, r1
 2900 0064 D8B2     		uxtb	r0, r3
 2901 0066 FFF7FEFF 		bl	COMN_Write
 2902              	.LVL110:
1107:.\display.c   ****         
1108:.\display.c   ****         LedPannelCnt++;
 2903              		.loc 1 1108 0
 2904 006a 2278     		ldrb	r2, [r4]
 2905 006c 0132     		add	r2, r2, #1
 2906 006e D5B2     		uxtb	r5, r2
1109:.\display.c   ****         if(LedPannelCnt >= 7)
 2907              		.loc 1 1109 0
 2908 0070 062D     		cmp	r5, #6
 2909 0072 00D9     		bls	.L268
 2910              	.L263:
1110:.\display.c   ****             LedPannelCnt = 0;
 2911              		.loc 1 1110 0
 2912 0074 0025     		mov	r5, #0
 2913              	.L268:
 2914 0076 2570     		strb	r5, [r4]
 2915              	.L255:
1111:.\display.c   ****     }
ARM GAS  C:\Users\ZHANGM~1\AppData\Local\Temp\ccWWGwEp.s 			page 83


1112:.\display.c   ****     else
1113:.\display.c   ****     
1114:.\display.c   ****          COMN_Write(0);
1115:.\display.c   **** 
1116:.\display.c   ****         
1117:.\display.c   **** }
 2916              		.loc 1 1117 0
 2917              		@ sp needed for prologue
 2918 0078 38BD     		pop	{r3, r4, r5, pc}
 2919              	.L270:
 2920 007a C046     		.align	2
 2921              	.L269:
 2922 007c 00000000 		.word	WorkFlag
 2923 0080 00010100 		.word	65792
 2924 0084 00000000 		.word	zijiandisplayfig
 2925 0088 00000000 		.word	LedPannelCnt
 2926 008c 00000000 		.word	LedPannelBuf
 2927 0090 00000000 		.word	temp
 2928              		.cfi_endproc
 2929              	.LFE40:
 2930              		.size	Led_Pannel_Display, .-Led_Pannel_Display
 2931              		.comm	LedPannelCnt,1,1
 2932              		.comm	tempm,1,1
 2933              		.comm	templ,1,1
 2934              		.comm	tempk,1,1
 2935              		.comm	tempj,1,1
 2936              		.comm	temph,1,1
 2937              		.comm	temps,1,1
 2938              		.comm	StaFlashCnt,1,1
 2939              		.comm	DisFlag,8,4
 2940              		.comm	FlashCnt,1,1
 2941              		.comm	MPercent,1,1
 2942              		.comm	LData,4,4
 2943              		.comm	LPercent,1,1
 2944              		.comm	KData,4,4
 2945              		.comm	KPercent,1,1
 2946              		.comm	JData,4,4
 2947              		.comm	JPercent,1,1
 2948              		.comm	HData,4,4
 2949              		.comm	HPercent,1,1
 2950              		.comm	SPercent,1,1
 2951              		.comm	DigitalBuf,4,4
 2952              		.comm	templvxin,6,1
 2953              		.comm	temp,28,4
 2954              		.comm	LedPannelBuf,28,4
 2955              		.text
 2956              	.Letext0:
 2957              		.file 2 "./Generated_Source/PSoC4/cytypes.h"
 2958              		.file 3 ".\\fun.h"
 2959              		.file 4 ".\\display.h"
 2960              		.file 5 ".\\uart_wifi.h"
 2961              		.file 6 "./Generated_Source/PSoC4/HCLK.h"
 2962              		.file 7 "./Generated_Source/PSoC4/HSDA.h"
 2963              		.file 8 "./Generated_Source/PSoC4/CyLib.h"
 2964              		.file 9 "./Generated_Source/PSoC4/PWM.h"
 2965              		.file 10 "./Generated_Source/PSoC4/COMN.h"