ARM GAS  C:\Users\ZHANGM~1\AppData\Local\Temp\cccEtK9g.s 			page 1


   1              		.cpu cortex-m0
   2              		.fpu softvfp
   3              		.eabi_attribute 20, 1
   4              		.eabi_attribute 21, 1
   5              		.eabi_attribute 23, 3
   6              		.eabi_attribute 24, 1
   7              		.eabi_attribute 25, 1
   8              		.eabi_attribute 26, 1
   9              		.eabi_attribute 30, 4
  10              		.eabi_attribute 34, 0
  11              		.eabi_attribute 18, 4
  12              		.code	16
  13              		.file	"fun.c"
  14              		.text
  15              	.Ltext0:
  16              		.cfi_sections	.debug_frame
  17              		.section	.text.Buzzer_Fun,"ax",%progbits
  18              		.align	1
  19              		.global	Buzzer_Fun
  20              		.code	16
  21              		.thumb_func
  22              		.type	Buzzer_Fun, %function
  23              	Buzzer_Fun:
  24              	.LFB33:
  25              		.file 1 ".\\fun.c"
   1:.\fun.c       **** /* ========================================
   2:.\fun.c       ****  *
   3:.\fun.c       ****  * Copyright YOUR COMPANY, THE YEAR
   4:.\fun.c       ****  * All Rights Reserved
   5:.\fun.c       ****  * UNPUBLISHED, LICENSED SOFTWARE.
   6:.\fun.c       ****  *
   7:.\fun.c       ****  * CONFIDENTIAL AND PROPRIETARY INFORMATION
   8:.\fun.c       ****  * WHICH IS THE PROPERTY OF your company.
   9:.\fun.c       ****  *
  10:.\fun.c       ****  * ========================================
  11:.\fun.c       **** */
  12:.\fun.c       **** #define _FUN_
  13:.\fun.c       **** #include "config.h"
  14:.\fun.c       **** 
  15:.\fun.c       **** uint8 Counter_Key;
  16:.\fun.c       **** /*******************************************************************************
  17:.\fun.c       **** *                       Buzzer
  18:.\fun.c       **** ********************************************************************************/
  19:.\fun.c       **** void Buzzer_Fun(void)
  20:.\fun.c       **** {
  26              		.loc 1 20 0
  27              		.cfi_startproc
  28 0000 38B5     		push	{r3, r4, r5, lr}
  29              	.LCFI0:
  30              		.cfi_def_cfa_offset 16
  31              		.cfi_offset 3, -16
  32              		.cfi_offset 4, -12
  33              		.cfi_offset 5, -8
  34              		.cfi_offset 14, -4
  21:.\fun.c       ****     
  22:.\fun.c       ****   if(BUZfkg==1)//按键提示音
  35              		.loc 1 22 0
ARM GAS  C:\Users\ZHANGM~1\AppData\Local\Temp\cccEtK9g.s 			page 2


  36 0002 1D4C     		ldr	r4, .L13
  37 0004 2378     		ldrb	r3, [r4]
  38 0006 012B     		cmp	r3, #1
  39 0008 0CD1     		bne	.L2
  23:.\fun.c       ****     {       
  24:.\fun.c       ****         if(BuzzerDly<=2)
  40              		.loc 1 24 0
  41 000a 1C4D     		ldr	r5, .L13+4
  42 000c 2A78     		ldrb	r2, [r5]
  43 000e 022A     		cmp	r2, #2
  44 0010 02D8     		bhi	.L3
  45              	.L7:
  25:.\fun.c       ****             PWM_Start();
  46              		.loc 1 25 0
  47 0012 FFF7FEFF 		bl	PWM_Start
  48              	.LVL0:
  49 0016 2DE0     		b	.L1
  50              	.L3:
  26:.\fun.c       ****         else
  27:.\fun.c       ****         {
  28:.\fun.c       ****             PWM_Stop();
  51              		.loc 1 28 0
  52 0018 FFF7FEFF 		bl	PWM_Stop
  53              	.LVL1:
  29:.\fun.c       ****             BuzzerDly=0; 
  54              		.loc 1 29 0
  55 001c 0023     		mov	r3, #0
  56 001e 2B70     		strb	r3, [r5]
  30:.\fun.c       ****             BUZfkg=0;     
  57              		.loc 1 30 0
  58 0020 2370     		strb	r3, [r4]
  59 0022 27E0     		b	.L1
  60              	.L2:
  31:.\fun.c       ****         }
  32:.\fun.c       ****                 
  33:.\fun.c       ****         
  34:.\fun.c       ****         
  35:.\fun.c       ****     }
  36:.\fun.c       ****     else if(BUZfkg==2)//上电缺水提示音 蜂鸣器响3次
  61              		.loc 1 36 0
  62 0024 022B     		cmp	r3, #2
  63 0026 10D1     		bne	.L5
  37:.\fun.c       ****     { 
  38:.\fun.c       ****         BUZqueshuifkg=1;
  64              		.loc 1 38 0
  65 0028 154B     		ldr	r3, .L13+8
  66 002a 0125     		mov	r5, #1
  67 002c 1D70     		strb	r5, [r3]
  39:.\fun.c       ****         if(qushui_BUZcnt<3)
  68              		.loc 1 39 0
  69 002e 154D     		ldr	r5, .L13+12
  70 0030 2978     		ldrb	r1, [r5]
  71 0032 0229     		cmp	r1, #2
  72 0034 1BD8     		bhi	.L9
  40:.\fun.c       ****         {
  41:.\fun.c       ****             if(BuzzerDly<5)
  73              		.loc 1 41 0
ARM GAS  C:\Users\ZHANGM~1\AppData\Local\Temp\cccEtK9g.s 			page 3


  74 0036 114A     		ldr	r2, .L13+4
  75 0038 1478     		ldrb	r4, [r2]
  76 003a 042C     		cmp	r4, #4
  77 003c E9D9     		bls	.L7
  42:.\fun.c       ****                 PWM_Start();
  43:.\fun.c       ****             else if( BuzzerDly>=5 &&BuzzerDly<10)
  78              		.loc 1 43 0
  79 003e 053C     		sub	r4, r4, #5
  80 0040 042C     		cmp	r4, #4
  81 0042 0FD8     		bhi	.L11
  82              	.L10:
  44:.\fun.c       ****                 PWM_Stop();
  83              		.loc 1 44 0
  84 0044 FFF7FEFF 		bl	PWM_Stop
  85              	.LVL2:
  86 0048 14E0     		b	.L1
  87              	.L5:
  45:.\fun.c       ****             else if(BuzzerDly>=10) 
  46:.\fun.c       ****             {   
  47:.\fun.c       ****                 qushui_BUZcnt++;
  48:.\fun.c       ****                 BuzzerDly=0;
  49:.\fun.c       ****                 //BUZfkg=0;
  50:.\fun.c       ****                 
  51:.\fun.c       ****             }
  52:.\fun.c       ****         } 
  53:.\fun.c       ****         else
  54:.\fun.c       ****         {
  55:.\fun.c       ****             qushui_BUZcnt=0;
  56:.\fun.c       ****             BUZfkg=0;
  57:.\fun.c       ****         }   
  58:.\fun.c       ****         
  59:.\fun.c       ****     }  
  60:.\fun.c       ****    
  61:.\fun.c       ****     else if(BUZfkg==3)//滤芯寿命到期报警提示音  蜂鸣器2秒一次鸣叫15S  debug 叫3
  88              		.loc 1 61 0
  89 004a 032B     		cmp	r3, #3
  90 004c 12D1     		bne	.L1
  62:.\fun.c       ****     {
  63:.\fun.c       ****         if(qushui_BUZcnt<7)//鸣叫7次14S
  91              		.loc 1 63 0
  92 004e 0D4D     		ldr	r5, .L13+12
  93 0050 2978     		ldrb	r1, [r5]
  94 0052 0629     		cmp	r1, #6
  95 0054 0BD8     		bhi	.L9
  64:.\fun.c       ****         {
  65:.\fun.c       ****             if(BuzzerDly<20)
  96              		.loc 1 65 0
  97 0056 094A     		ldr	r2, .L13+4
  98 0058 1078     		ldrb	r0, [r2]
  99 005a 1328     		cmp	r0, #19
 100 005c D9D9     		bls	.L7
  66:.\fun.c       ****                 PWM_Start();
  67:.\fun.c       ****             else if( BuzzerDly>=20 &&BuzzerDly<40)
 101              		.loc 1 67 0
 102 005e 1438     		sub	r0, r0, #20
 103 0060 1328     		cmp	r0, #19
 104 0062 EFD9     		bls	.L10
ARM GAS  C:\Users\ZHANGM~1\AppData\Local\Temp\cccEtK9g.s 			page 4


 105              	.L11:
  68:.\fun.c       ****                 PWM_Stop();
  69:.\fun.c       ****             else if(BuzzerDly>=40) 
  70:.\fun.c       ****             {   
  71:.\fun.c       ****                 qushui_BUZcnt++;
 106              		.loc 1 71 0
 107 0064 0131     		add	r1, r1, #1
  72:.\fun.c       ****                 BuzzerDly=0;
 108              		.loc 1 72 0
 109 0066 0020     		mov	r0, #0
  71:.\fun.c       ****                 qushui_BUZcnt++;
 110              		.loc 1 71 0
 111 0068 2970     		strb	r1, [r5]
 112              		.loc 1 72 0
 113 006a 1070     		strb	r0, [r2]
 114 006c 02E0     		b	.L1
 115              	.L9:
  73:.\fun.c       ****                 //BUZfkg=0;
  74:.\fun.c       ****                 
  75:.\fun.c       ****             }
  76:.\fun.c       ****         } 
  77:.\fun.c       ****         else
  78:.\fun.c       ****         {
  79:.\fun.c       ****             qushui_BUZcnt=0;
 116              		.loc 1 79 0
 117 006e 0021     		mov	r1, #0
 118 0070 2970     		strb	r1, [r5]
  80:.\fun.c       ****             BUZfkg=0;
 119              		.loc 1 80 0
 120 0072 2170     		strb	r1, [r4]
 121              	.L1:
  81:.\fun.c       ****         }   
  82:.\fun.c       ****         
  83:.\fun.c       ****         
  84:.\fun.c       ****         
  85:.\fun.c       ****         
  86:.\fun.c       ****     }
  87:.\fun.c       ****     
  88:.\fun.c       ****   
  89:.\fun.c       ****     
  90:.\fun.c       ****     
  91:.\fun.c       ****     
  92:.\fun.c       ****     
  93:.\fun.c       **** //    if(BuzzerFlag.en)
  94:.\fun.c       **** //    {
  95:.\fun.c       **** //        //
  96:.\fun.c       **** //        if(BuzzerNum == 1)
  97:.\fun.c       **** //        {
  98:.\fun.c       **** //        }else if(BuzzerNum == 2)
  99:.\fun.c       **** //        {
 100:.\fun.c       **** //        }else if(BuzzerNum == 3)
 101:.\fun.c       **** //        {
 102:.\fun.c       **** //        }
 103:.\fun.c       **** //    }
 104:.\fun.c       **** }
 122              		.loc 1 104 0
 123              		@ sp needed for prologue
ARM GAS  C:\Users\ZHANGM~1\AppData\Local\Temp\cccEtK9g.s 			page 5


 124 0074 38BD     		pop	{r3, r4, r5, pc}
 125              	.L14:
 126 0076 C046     		.align	2
 127              	.L13:
 128 0078 00000000 		.word	BUZfkg
 129 007c 00000000 		.word	BuzzerDly
 130 0080 00000000 		.word	BUZqueshuifkg
 131 0084 00000000 		.word	qushui_BUZcnt
 132              		.cfi_endproc
 133              	.LFE33:
 134              		.size	Buzzer_Fun, .-Buzzer_Fun
 135              		.section	.text.Timer_Isr_Fun,"ax",%progbits
 136              		.align	1
 137              		.global	Timer_Isr_Fun
 138              		.code	16
 139              		.thumb_func
 140              		.type	Timer_Isr_Fun, %function
 141              	Timer_Isr_Fun:
 142              	.LFB34:
 105:.\fun.c       **** 
 106:.\fun.c       **** 
 107:.\fun.c       **** /********************************************************************************\
 108:.\fun.c       ****     Timer ISR FUN
 109:.\fun.c       ****     //10ms
 110:.\fun.c       **** \********************************************************************************/
 111:.\fun.c       **** void Timer_Isr_Fun(void)
 112:.\fun.c       **** {
 143              		.loc 1 112 0
 144              		.cfi_startproc
 145 0000 F8B5     		push	{r3, r4, r5, r6, r7, lr}
 146              	.LCFI1:
 147              		.cfi_def_cfa_offset 24
 148              		.cfi_offset 3, -24
 149              		.cfi_offset 4, -20
 150              		.cfi_offset 5, -16
 151              		.cfi_offset 6, -12
 152              		.cfi_offset 7, -8
 153              		.cfi_offset 14, -4
 113:.\fun.c       **** 	
 114:.\fun.c       ****     if(T10msSign)
 154              		.loc 1 114 0
 155 0002 B34B     		ldr	r3, .L130
 156 0004 1A78     		ldrb	r2, [r3]
 157 0006 002A     		cmp	r2, #0
 158 0008 00D1     		bne	.LCB119
 159 000a 3EE2     		b	.L15	@long jump
 160              	.LCB119:
 115:.\fun.c       ****         T10msSign = 0;
 116:.\fun.c       ****     else
 117:.\fun.c       ****         return;
 118:.\fun.c       ****     if(Ack_Timer>0)//应答时间设定
 161              		.loc 1 118 0
 162 000c B149     		ldr	r1, .L130+4
 115:.\fun.c       ****         T10msSign = 0;
 163              		.loc 1 115 0
 164 000e 0020     		mov	r0, #0
 165              		.loc 1 118 0
ARM GAS  C:\Users\ZHANGM~1\AppData\Local\Temp\cccEtK9g.s 			page 6


 166 0010 0C78     		ldrb	r4, [r1]
 115:.\fun.c       ****         T10msSign = 0;
 167              		.loc 1 115 0
 168 0012 1870     		strb	r0, [r3]
 169              		.loc 1 118 0
 170 0014 002C     		cmp	r4, #0
 171 0016 01D0     		beq	.L18
 119:.\fun.c       ****     	Ack_Timer--; 
 172              		.loc 1 119 0
 173 0018 013C     		sub	r4, r4, #1
 174 001a 0C70     		strb	r4, [r1]
 175              	.L18:
 120:.\fun.c       ****     if(Tds_Ack_Timer>0)//应答时间设定
 176              		.loc 1 120 0
 177 001c AE4D     		ldr	r5, .L130+8
 178 001e 2E78     		ldrb	r6, [r5]
 179 0020 002E     		cmp	r6, #0
 180 0022 01D0     		beq	.L19
 121:.\fun.c       ****     	Tds_Ack_Timer--; 
 181              		.loc 1 121 0
 182 0024 013E     		sub	r6, r6, #1
 183 0026 2E70     		strb	r6, [r5]
 184              	.L19:
 122:.\fun.c       ****     if(Send_Interval_Counter>0)
 185              		.loc 1 122 0
 186 0028 AC4F     		ldr	r7, .L130+12
 187 002a 3B78     		ldrb	r3, [r7]
 188 002c 002B     		cmp	r3, #0
 189 002e 01D0     		beq	.L20
 123:.\fun.c       ****     	Send_Interval_Counter--;
 190              		.loc 1 123 0
 191 0030 013B     		sub	r3, r3, #1
 192 0032 3B70     		strb	r3, [r7]
 193              	.L20:
 124:.\fun.c       ****     	
 125:.\fun.c       ****     	  	   
 126:.\fun.c       ****     if(fastjishifig==1)
 194              		.loc 1 126 0
 195 0034 AA49     		ldr	r1, .L130+16
 196 0036 AB48     		ldr	r0, .L130+20
 197 0038 0A78     		ldrb	r2, [r1]
 198 003a 012A     		cmp	r2, #1
 199 003c 02D1     		bne	.L21
 127:.\fun.c       ****         fastjishicnt++;
 200              		.loc 1 127 0
 201 003e 0488     		ldrh	r4, [r0]
 202 0040 0134     		add	r4, r4, #1
 203 0042 00E0     		b	.L117
 204              	.L21:
 128:.\fun.c       ****     else
 129:.\fun.c       ****         fastjishicnt=0; 
 205              		.loc 1 129 0
 206 0044 0024     		mov	r4, #0
 207              	.L117:
 130:.\fun.c       ****     if(BUZfkg==1||BUZfkg==2||BUZfkg==3)//蜂鸣器计时
 208              		.loc 1 130 0
 209 0046 A84D     		ldr	r5, .L130+24
ARM GAS  C:\Users\ZHANGM~1\AppData\Local\Temp\cccEtK9g.s 			page 7


 129:.\fun.c       ****         fastjishicnt=0; 
 210              		.loc 1 129 0
 211 0048 0480     		strh	r4, [r0]
 212              		.loc 1 130 0
 213 004a 2E78     		ldrb	r6, [r5]
 214 004c A74B     		ldr	r3, .L130+28
 215 004e 013E     		sub	r6, r6, #1
 216 0050 022E     		cmp	r6, #2
 217 0052 02D8     		bhi	.L23
 131:.\fun.c       ****     
 132:.\fun.c       ****         BuzzerDly++;
 218              		.loc 1 132 0
 219 0054 1F78     		ldrb	r7, [r3]
 220 0056 0137     		add	r7, r7, #1
 221 0058 02E0     		b	.L118
 222              	.L23:
 133:.\fun.c       ****     
 134:.\fun.c       ****     else
 135:.\fun.c       ****     {
 136:.\fun.c       ****         BuzzerDly=0;
 223              		.loc 1 136 0
 224 005a 0027     		mov	r7, #0
 225 005c 1F70     		strb	r7, [r3]
 137:.\fun.c       ****         qushui_BUZcnt=0;
 226              		.loc 1 137 0
 227 005e A44B     		ldr	r3, .L130+32
 228              	.L118:
 138:.\fun.c       ****     }
 139:.\fun.c       ****     if(Tds_Dispcnt<100)
 229              		.loc 1 139 0
 230 0060 A448     		ldr	r0, .L130+36
 137:.\fun.c       ****         qushui_BUZcnt=0;
 231              		.loc 1 137 0
 232 0062 1F70     		strb	r7, [r3]
 233              		.loc 1 139 0
 234 0064 0288     		ldrh	r2, [r0]
 235 0066 041C     		mov	r4, r0
 236 0068 632A     		cmp	r2, #99
 237 006a 02D8     		bhi	.L25
 140:.\fun.c       ****     		Tds_Dispcnt++;
 238              		.loc 1 140 0
 239 006c 0132     		add	r2, r2, #1
 240 006e 0280     		strh	r2, [r0]
 241 0070 10E0     		b	.L26
 242              	.L25:
 141:.\fun.c       ****   	else
 142:.\fun.c       ****   		{
 143:.\fun.c       ****   			if(WorkFlag01_Dispcnt<3)
 243              		.loc 1 143 0
 244 0072 A14D     		ldr	r5, .L130+40
 245 0074 A14F     		ldr	r7, .L130+44
 246 0076 2E78     		ldrb	r6, [r5]
 247 0078 022E     		cmp	r6, #2
 248 007a 05D8     		bhi	.L27
 144:.\fun.c       ****   				{
 145:.\fun.c       ****   					WorkFlag01_Dispcnt++;
 249              		.loc 1 145 0
ARM GAS  C:\Users\ZHANGM~1\AppData\Local\Temp\cccEtK9g.s 			page 8


 250 007c 0136     		add	r6, r6, #1
 251 007e 2E70     		strb	r6, [r5]
 146:.\fun.c       **** 					WorkFlag01.all=WorkFlag01.all<<1;
 252              		.loc 1 146 0
 253 0080 3A88     		ldrh	r2, [r7]
 254 0082 5500     		lsl	r5, r2, #1
 255 0084 3D80     		strh	r5, [r7]
 256 0086 03E0     		b	.L28
 257              	.L27:
 147:.\fun.c       **** 				}
 148:.\fun.c       **** 			else
 149:.\fun.c       **** 				{
 150:.\fun.c       **** 					WorkFlag01.all=0x01;//显示初始化
 258              		.loc 1 150 0
 259 0088 0123     		mov	r3, #1
 151:.\fun.c       **** 					WorkFlag01_Dispcnt=0;//显示初始化
 260              		.loc 1 151 0
 261 008a 0020     		mov	r0, #0
 150:.\fun.c       **** 					WorkFlag01.all=0x01;//显示初始化
 262              		.loc 1 150 0
 263 008c 3B80     		strh	r3, [r7]
 264              		.loc 1 151 0
 265 008e 2870     		strb	r0, [r5]
 266              	.L28:
 152:.\fun.c       **** 				}
 153:.\fun.c       ****   		 	Tds_Dispcnt=0;
 267              		.loc 1 153 0
 268 0090 0026     		mov	r6, #0
 269 0092 2680     		strh	r6, [r4]
 270              	.L26:
 154:.\fun.c       ****   		}
 155:.\fun.c       ****     if(PowerOnOneHourCnt < 360000)
 271              		.loc 1 155 0
 272 0094 9A4C     		ldr	r4, .L130+48
 273 0096 9B4B     		ldr	r3, .L130+52
 274 0098 2768     		ldr	r7, [r4]
 275 009a 9F42     		cmp	r7, r3
 276 009c 01D8     		bhi	.L29
 156:.\fun.c       ****         PowerOnOneHourCnt++;
 277              		.loc 1 156 0
 278 009e 0137     		add	r7, r7, #1
 279 00a0 2760     		str	r7, [r4]
 280              	.L29:
 157:.\fun.c       ****  
 158:.\fun.c       ****     	NbPressCnt++;
 281              		.loc 1 158 0
 282 00a2 9948     		ldr	r0, .L130+56
 159:.\fun.c       **** 
 160:.\fun.c       ****     	 WifiPressCnt++;
 283              		.loc 1 160 0
 284 00a4 994D     		ldr	r5, .L130+60
 158:.\fun.c       ****     	NbPressCnt++;
 285              		.loc 1 158 0
 286 00a6 0278     		ldrb	r2, [r0]
 161:.\fun.c       **** 
 162:.\fun.c       ****     	XzPressCnt++;
 287              		.loc 1 162 0
ARM GAS  C:\Users\ZHANGM~1\AppData\Local\Temp\cccEtK9g.s 			page 9


 288 00a8 994C     		ldr	r4, .L130+64
 163:.\fun.c       **** 
 164:.\fun.c       ****     
 165:.\fun.c       ****     FlashCnt++;
 289              		.loc 1 165 0
 290 00aa 9A4B     		ldr	r3, .L130+68
 160:.\fun.c       ****     	 WifiPressCnt++;
 291              		.loc 1 160 0
 292 00ac 2E78     		ldrb	r6, [r5]
 158:.\fun.c       ****     	NbPressCnt++;
 293              		.loc 1 158 0
 294 00ae 0132     		add	r2, r2, #1
 295 00b0 0270     		strb	r2, [r0]
 162:.\fun.c       ****     	XzPressCnt++;
 296              		.loc 1 162 0
 297 00b2 2778     		ldrb	r7, [r4]
 298              		.loc 1 165 0
 299 00b4 1878     		ldrb	r0, [r3]
 160:.\fun.c       ****     	 WifiPressCnt++;
 300              		.loc 1 160 0
 301 00b6 0136     		add	r6, r6, #1
 302 00b8 2E70     		strb	r6, [r5]
 162:.\fun.c       ****     	XzPressCnt++;
 303              		.loc 1 162 0
 304 00ba 0137     		add	r7, r7, #1
 305              		.loc 1 165 0
 306 00bc 0130     		add	r0, r0, #1
 166:.\fun.c       ****     if((WorkFlag.jishi==1)&&(WorkFlag.nowater==0))  //判断滤芯计时标志
 307              		.loc 1 166 0
 308 00be 964D     		ldr	r5, .L130+72
 162:.\fun.c       ****     	XzPressCnt++;
 309              		.loc 1 162 0
 310 00c0 2770     		strb	r7, [r4]
 165:.\fun.c       ****     FlashCnt++;
 311              		.loc 1 165 0
 312 00c2 1870     		strb	r0, [r3]
 313              		.loc 1 166 0
 314 00c4 2A78     		ldrb	r2, [r5]
 315 00c6 0A26     		mov	r6, #10
 316 00c8 1640     		and	r6, r2
 317 00ca 944F     		ldr	r7, .L130+76
 318 00cc 082E     		cmp	r6, #8
 319 00ce 00D0     		beq	.LCB247
 320 00d0 9DE0     		b	.L30	@long jump
 321              	.LCB247:
 167:.\fun.c       ****     {
 168:.\fun.c       ****         if(fastjishifig==1)
 322              		.loc 1 168 0
 323 00d2 0978     		ldrb	r1, [r1]
 324 00d4 0129     		cmp	r1, #1
 325 00d6 29D1     		bne	.L31
 169:.\fun.c       ****         {
 170:.\fun.c       ****             jingshuiliang++;
 326              		.loc 1 170 0
 327 00d8 914A     		ldr	r2, .L130+80
 171:.\fun.c       ****             if(LvxinJishi[0]<2640)
 328              		.loc 1 171 0
ARM GAS  C:\Users\ZHANGM~1\AppData\Local\Temp\cccEtK9g.s 			page 10


 329 00da 924E     		ldr	r6, .L130+84
 170:.\fun.c       ****             jingshuiliang++;
 330              		.loc 1 170 0
 331 00dc 1088     		ldrh	r0, [r2]
 332              		.loc 1 171 0
 333 00de 924C     		ldr	r4, .L130+88
 170:.\fun.c       ****             jingshuiliang++;
 334              		.loc 1 170 0
 335 00e0 0130     		add	r0, r0, #1
 336 00e2 1080     		strh	r0, [r2]
 337              		.loc 1 171 0
 338 00e4 3188     		ldrh	r1, [r6]
 339 00e6 A142     		cmp	r1, r4
 340 00e8 01D8     		bhi	.L32
 172:.\fun.c       ****                 LvxinJishi[0]++;
 341              		.loc 1 172 0
 342 00ea 0131     		add	r1, r1, #1
 343 00ec 3180     		strh	r1, [r6]
 344              	.L32:
 173:.\fun.c       ****             if(LvxinJishi[1]<3520)
 345              		.loc 1 173 0
 346 00ee 7388     		ldrh	r3, [r6, #2]
 347 00f0 8E4A     		ldr	r2, .L130+92
 348 00f2 9342     		cmp	r3, r2
 349 00f4 01D8     		bhi	.L33
 174:.\fun.c       ****                 LvxinJishi[1]++;
 350              		.loc 1 174 0
 351 00f6 0133     		add	r3, r3, #1
 352 00f8 7380     		strh	r3, [r6, #2]
 353              	.L33:
 175:.\fun.c       ****             if(LvxinJishi[2]<23760)    
 354              		.loc 1 175 0
 355 00fa B088     		ldrh	r0, [r6, #4]
 356 00fc 8C49     		ldr	r1, .L130+96
 357 00fe 8842     		cmp	r0, r1
 358 0100 01D8     		bhi	.L34
 176:.\fun.c       ****                 LvxinJishi[2]++;
 359              		.loc 1 176 0
 360 0102 0130     		add	r0, r0, #1
 361 0104 B080     		strh	r0, [r6, #4]
 362              	.L34:
 177:.\fun.c       ****             if(LvxinJishi[3]<23760)    
 363              		.loc 1 177 0
 364 0106 F488     		ldrh	r4, [r6, #6]
 365 0108 8C42     		cmp	r4, r1
 366 010a 01D8     		bhi	.L35
 178:.\fun.c       ****                 LvxinJishi[3]++;
 367              		.loc 1 178 0
 368 010c 0134     		add	r4, r4, #1
 369 010e F480     		strh	r4, [r6, #6]
 370              	.L35:
 179:.\fun.c       ****             if(LvxinJishi[4]<23760)
 371              		.loc 1 179 0
 372 0110 3389     		ldrh	r3, [r6, #8]
 373 0112 8B42     		cmp	r3, r1
 374 0114 01D8     		bhi	.L36
 180:.\fun.c       ****                 LvxinJishi[4]++;
ARM GAS  C:\Users\ZHANGM~1\AppData\Local\Temp\cccEtK9g.s 			page 11


 375              		.loc 1 180 0
 376 0116 0133     		add	r3, r3, #1
 377 0118 3381     		strh	r3, [r6, #8]
 378              	.L36:
 181:.\fun.c       ****             if(LvxinJishi[4]<5940)
 379              		.loc 1 181 0
 380 011a 3289     		ldrh	r2, [r6, #8]
 381 011c 8548     		ldr	r0, .L130+100
 382 011e 8242     		cmp	r2, r0
 383 0120 00D9     		bls	.LCB297
 384 0122 6EE0     		b	.L38	@long jump
 385              	.LCB297:
 182:.\fun.c       ****                 LvxinJishi[5]++;
 386              		.loc 1 182 0
 387 0124 7189     		ldrh	r1, [r6, #10]
 388 0126 0131     		add	r1, r1, #1
 389 0128 7181     		strh	r1, [r6, #10]
 390 012a 6AE0     		b	.L38
 391              	.L31:
 183:.\fun.c       ****         
 184:.\fun.c       ****         }   
 185:.\fun.c       ****         
 186:.\fun.c       ****         else
 187:.\fun.c       ****         {
 188:.\fun.c       ****         
 189:.\fun.c       ****             
 190:.\fun.c       ****              onemincnt++;
 392              		.loc 1 190 0
 393 012c 824B     		ldr	r3, .L130+104
 191:.\fun.c       ****             if(onemincnt>=NBmint)
 394              		.loc 1 191 0
 395 012e 834E     		ldr	r6, .L130+108
 190:.\fun.c       ****              onemincnt++;
 396              		.loc 1 190 0
 397 0130 1888     		ldrh	r0, [r3]
 398              		.loc 1 191 0
 399 0132 3488     		ldrh	r4, [r6]
 190:.\fun.c       ****              onemincnt++;
 400              		.loc 1 190 0
 401 0134 0130     		add	r0, r0, #1
 402 0136 82B2     		uxth	r2, r0
 403 0138 1A80     		strh	r2, [r3]
 404              		.loc 1 191 0
 405 013a 9442     		cmp	r4, r2
 406 013c 47D8     		bhi	.L40
 192:.\fun.c       ****             {
 193:.\fun.c       ****                 
 194:.\fun.c       ****                 onemincnt=0;
 407              		.loc 1 194 0
 408 013e 0021     		mov	r1, #0
 409 0140 1980     		strh	r1, [r3]
 195:.\fun.c       ****                 
 196:.\fun.c       ****                 if(NBfig==1)
 410              		.loc 1 196 0
 411 0142 7F4B     		ldr	r3, .L130+112
 412 0144 774A     		ldr	r2, .L130+84
 413 0146 1878     		ldrb	r0, [r3]
ARM GAS  C:\Users\ZHANGM~1\AppData\Local\Temp\cccEtK9g.s 			page 12


 414 0148 0128     		cmp	r0, #1
 415 014a 20D1     		bne	.L41
 197:.\fun.c       ****                 {
 198:.\fun.c       ****                 
 199:.\fun.c       ****                     if(LvxinJishi[0]<2640)
 416              		.loc 1 199 0
 417 014c 1188     		ldrh	r1, [r2]
 418 014e 764C     		ldr	r4, .L130+88
 419 0150 A142     		cmp	r1, r4
 420 0152 01D8     		bhi	.L42
 200:.\fun.c       ****                         LvxinJishi[0]++;
 421              		.loc 1 200 0
 422 0154 0131     		add	r1, r1, #1
 423 0156 1180     		strh	r1, [r2]
 424              	.L42:
 201:.\fun.c       ****                     if(LvxinJishi[1]<3520)
 425              		.loc 1 201 0
 426 0158 5388     		ldrh	r3, [r2, #2]
 427 015a 7448     		ldr	r0, .L130+92
 428 015c 8342     		cmp	r3, r0
 429 015e 01D8     		bhi	.L43
 202:.\fun.c       ****                         LvxinJishi[1]++;
 430              		.loc 1 202 0
 431 0160 0133     		add	r3, r3, #1
 432 0162 5380     		strh	r3, [r2, #2]
 433              	.L43:
 203:.\fun.c       ****                     if(LvxinJishi[2]<23760)    
 434              		.loc 1 203 0
 435 0164 9688     		ldrh	r6, [r2, #4]
 436 0166 7249     		ldr	r1, .L130+96
 437 0168 8E42     		cmp	r6, r1
 438 016a 01D8     		bhi	.L44
 204:.\fun.c       ****                         LvxinJishi[2]++;
 439              		.loc 1 204 0
 440 016c 0136     		add	r6, r6, #1
 441 016e 9680     		strh	r6, [r2, #4]
 442              	.L44:
 205:.\fun.c       ****                     if(LvxinJishi[3]<23760)    
 443              		.loc 1 205 0
 444 0170 D488     		ldrh	r4, [r2, #6]
 445 0172 8C42     		cmp	r4, r1
 446 0174 01D8     		bhi	.L45
 206:.\fun.c       ****                         LvxinJishi[3]++;
 447              		.loc 1 206 0
 448 0176 0134     		add	r4, r4, #1
 449 0178 D480     		strh	r4, [r2, #6]
 450              	.L45:
 207:.\fun.c       ****                     if(LvxinJishi[4]<23760)
 451              		.loc 1 207 0
 452 017a 1389     		ldrh	r3, [r2, #8]
 453 017c 8B42     		cmp	r3, r1
 454 017e 01D8     		bhi	.L46
 208:.\fun.c       ****                         LvxinJishi[4]++;
 455              		.loc 1 208 0
 456 0180 0133     		add	r3, r3, #1
 457 0182 1381     		strh	r3, [r2, #8]
 458              	.L46:
ARM GAS  C:\Users\ZHANGM~1\AppData\Local\Temp\cccEtK9g.s 			page 13


 209:.\fun.c       ****                     if(LvxinJishi[4]<5940)
 459              		.loc 1 209 0
 460 0184 1089     		ldrh	r0, [r2, #8]
 461 0186 6B4E     		ldr	r6, .L130+100
 462 0188 B042     		cmp	r0, r6
 463 018a 20D8     		bhi	.L40
 464 018c 1CE0     		b	.L119
 465              	.L41:
 210:.\fun.c       ****                         LvxinJishi[5]++;
 211:.\fun.c       ****                 }
 212:.\fun.c       ****                 
 213:.\fun.c       ****                 else
 214:.\fun.c       ****                 {
 215:.\fun.c       ****                     if(LvxinJishi[0]<3168)
 466              		.loc 1 215 0
 467 018e 1688     		ldrh	r6, [r2]
 468 0190 6C4C     		ldr	r4, .L130+116
 469 0192 A642     		cmp	r6, r4
 470 0194 01D8     		bhi	.L48
 216:.\fun.c       ****                          LvxinJishi[0]++;
 471              		.loc 1 216 0
 472 0196 0136     		add	r6, r6, #1
 473 0198 1680     		strh	r6, [r2]
 474              	.L48:
 217:.\fun.c       ****                     if(LvxinJishi[0]<4224)    
 475              		.loc 1 217 0
 476 019a 1188     		ldrh	r1, [r2]
 477 019c 6A4B     		ldr	r3, .L130+120
 478 019e 9942     		cmp	r1, r3
 479 01a0 03D8     		bhi	.L49
 218:.\fun.c       ****                         LvxinJishi[1]++;
 480              		.loc 1 218 0
 481 01a2 5688     		ldrh	r6, [r2, #2]
 482 01a4 0136     		add	r6, r6, #1
 483 01a6 5680     		strh	r6, [r2, #2]
 484 01a8 02E0     		b	.L50
 485              	.L49:
 219:.\fun.c       ****                     if(LvxinJishi[0]<28512)    
 486              		.loc 1 219 0
 487 01aa 6848     		ldr	r0, .L130+124
 488 01ac 8142     		cmp	r1, r0
 489 01ae 0ED8     		bhi	.L40
 490              	.L50:
 220:.\fun.c       ****                         LvxinJishi[2]++;
 491              		.loc 1 220 0
 492 01b0 9488     		ldrh	r4, [r2, #4]
 221:.\fun.c       ****                     if(LvxinJishi[0]<28512)    
 222:.\fun.c       ****                         LvxinJishi[3]++;
 493              		.loc 1 222 0
 494 01b2 D388     		ldrh	r3, [r2, #6]
 223:.\fun.c       ****                     if(LvxinJishi[0]<28512)
 224:.\fun.c       ****                         LvxinJishi[4]++;
 495              		.loc 1 224 0
 496 01b4 1089     		ldrh	r0, [r2, #8]
 225:.\fun.c       ****                     if(LvxinJishi[0]<7128)
 497              		.loc 1 225 0
 498 01b6 664E     		ldr	r6, .L130+128
ARM GAS  C:\Users\ZHANGM~1\AppData\Local\Temp\cccEtK9g.s 			page 14


 220:.\fun.c       ****                         LvxinJishi[2]++;
 499              		.loc 1 220 0
 500 01b8 0134     		add	r4, r4, #1
 222:.\fun.c       ****                         LvxinJishi[3]++;
 501              		.loc 1 222 0
 502 01ba 0133     		add	r3, r3, #1
 224:.\fun.c       ****                         LvxinJishi[4]++;
 503              		.loc 1 224 0
 504 01bc 0130     		add	r0, r0, #1
 220:.\fun.c       ****                         LvxinJishi[2]++;
 505              		.loc 1 220 0
 506 01be 9480     		strh	r4, [r2, #4]
 222:.\fun.c       ****                         LvxinJishi[3]++;
 507              		.loc 1 222 0
 508 01c0 D380     		strh	r3, [r2, #6]
 224:.\fun.c       ****                         LvxinJishi[4]++;
 509              		.loc 1 224 0
 510 01c2 1081     		strh	r0, [r2, #8]
 511              		.loc 1 225 0
 512 01c4 B142     		cmp	r1, r6
 513 01c6 02D8     		bhi	.L40
 514              	.L119:
 226:.\fun.c       ****                         LvxinJishi[5]++;
 515              		.loc 1 226 0
 516 01c8 5189     		ldrh	r1, [r2, #10]
 517 01ca 0131     		add	r1, r1, #1
 518 01cc 5181     		strh	r1, [r2, #10]
 519              	.L40:
 227:.\fun.c       ****                 
 228:.\fun.c       ****                 
 229:.\fun.c       ****                 }
 230:.\fun.c       ****                 
 231:.\fun.c       ****                 
 232:.\fun.c       ****             }                   
 233:.\fun.c       ****         if(jingshuicnt<65500)
 520              		.loc 1 233 0
 521 01ce 614A     		ldr	r2, .L130+132
 522 01d0 614B     		ldr	r3, .L130+136
 523 01d2 1488     		ldrh	r4, [r2]
 524 01d4 9C42     		cmp	r4, r3
 525 01d6 01D8     		bhi	.L51
 234:.\fun.c       ****         jingshuicnt++;//净水量计数器
 526              		.loc 1 234 0
 527 01d8 0134     		add	r4, r4, #1
 528 01da 1480     		strh	r4, [r2]
 529              	.L51:
 235:.\fun.c       ****         if(jingshuicnt>TIMER1M_jingshui)//每60S 净水量加1
 530              		.loc 1 235 0
 531 01dc 1088     		ldrh	r0, [r2]
 532 01de 9626     		mov	r6, #150
 533 01e0 B100     		lsl	r1, r6, #2
 534 01e2 8842     		cmp	r0, r1
 535 01e4 0DD9     		bls	.L38
 236:.\fun.c       ****         {
 237:.\fun.c       ****         	if(jingshuiliang > 9999)
 536              		.loc 1 237 0
 537 01e6 4E4B     		ldr	r3, .L130+80
ARM GAS  C:\Users\ZHANGM~1\AppData\Local\Temp\cccEtK9g.s 			page 15


 538 01e8 5C48     		ldr	r0, .L130+140
 539 01ea 1C88     		ldrh	r4, [r3]
 540 01ec 8442     		cmp	r4, r0
 541 01ee 03D9     		bls	.L53
 238:.\fun.c       ****     				{   
 239:.\fun.c       ****         			jingshuiliang = 0;//9999;
 240:.\fun.c       ****         			EEjingshuiliang=0;
 542              		.loc 1 240 0
 543 01f0 5B49     		ldr	r1, .L130+144
 239:.\fun.c       ****         			jingshuiliang = 0;//9999;
 544              		.loc 1 239 0
 545 01f2 0026     		mov	r6, #0
 546 01f4 1E80     		strh	r6, [r3]
 547              		.loc 1 240 0
 548 01f6 0E80     		strh	r6, [r1]
 549              	.L53:
 241:.\fun.c       ****        				// write1();
 242:.\fun.c       ****     				}
 243:.\fun.c       ****             jingshuiliang++;
 550              		.loc 1 243 0
 551 01f8 1C88     		ldrh	r4, [r3]
 552 01fa 0134     		add	r4, r4, #1
 553 01fc 1C80     		strh	r4, [r3]
 244:.\fun.c       ****             jingshuicnt=0;
 554              		.loc 1 244 0
 555 01fe 0023     		mov	r3, #0
 556 0200 1380     		strh	r3, [r2]
 557              	.L38:
 245:.\fun.c       ****             
 246:.\fun.c       ****         }
 247:.\fun.c       ****        
 248:.\fun.c       ****         
 249:.\fun.c       ****         
 250:.\fun.c       ****         } 
 251:.\fun.c       ****         if(LianXuJiShi<80000)
 558              		.loc 1 251 0
 559 0202 3C68     		ldr	r4, [r7]
 560 0204 574E     		ldr	r6, .L130+148
 561 0206 B442     		cmp	r4, r6
 562 0208 03D8     		bhi	.L54
 252:.\fun.c       ****         	LianXuJiShi++;
 563              		.loc 1 252 0
 564 020a 0134     		add	r4, r4, #1
 565 020c 00E0     		b	.L120
 566              	.L30:
 253:.\fun.c       ****         
 254:.\fun.c       ****         
 255:.\fun.c       ****         
 256:.\fun.c       ****         
 257:.\fun.c       ****     }else
 258:.\fun.c       ****     {
 259:.\fun.c       ****         LianXuJiShi = 0;
 567              		.loc 1 259 0
 568 020e 0024     		mov	r4, #0
 569              	.L120:
 570 0210 3C60     		str	r4, [r7]
 571              	.L54:
ARM GAS  C:\Users\ZHANGM~1\AppData\Local\Temp\cccEtK9g.s 			page 16


 260:.\fun.c       ****     }
 261:.\fun.c       ****     
 262:.\fun.c       ****     StaFlashCnt++;
 572              		.loc 1 262 0
 573 0212 554F     		ldr	r7, .L130+152
 574 0214 3C78     		ldrb	r4, [r7]
 575 0216 0134     		add	r4, r4, #1
 576 0218 E3B2     		uxtb	r3, r4
 577              	.LVL3:
 263:.\fun.c       ****     if(StaFlashCnt > TIMER500MS)
 578              		.loc 1 263 0
 579 021a 052B     		cmp	r3, #5
 580 021c 01D8     		bhi	.L55
 581              	.LVL4:
 262:.\fun.c       ****     StaFlashCnt++;
 582              		.loc 1 262 0
 583 021e 3B70     		strb	r3, [r7]
 584 0220 0BE0     		b	.L56
 585              	.L55:
 264:.\fun.c       ****     {
 265:.\fun.c       ****         StaFlashCnt = 0;
 266:.\fun.c       ****         DisFlag.sta = !DisFlag.sta;
 586              		.loc 1 266 0
 587 0222 524E     		ldr	r6, .L130+156
 265:.\fun.c       ****         StaFlashCnt = 0;
 588              		.loc 1 265 0
 589 0224 0022     		mov	r2, #0
 590 0226 3A70     		strb	r2, [r7]
 591              		.loc 1 266 0
 592 0228 F778     		ldrb	r7, [r6, #3]
 593 022a 0121     		mov	r1, #1
 594 022c B809     		lsr	r0, r7, #6
 595 022e 8143     		bic	r1, r0
 596 0230 4023     		mov	r3, #64
 597              	.LVL5:
 598 0232 8C01     		lsl	r4, r1, #6
 599 0234 9F43     		bic	r7, r3
 600 0236 2743     		orr	r7, r4
 601 0238 F770     		strb	r7, [r6, #3]
 602              	.LVL6:
 603              	.L56:
 267:.\fun.c       ****     }
 268:.\fun.c       **** 
 269:.\fun.c       ****   	if(PowerOnCnt00<0xffff)
 604              		.loc 1 269 0
 605 023a 4D4E     		ldr	r6, .L130+160
 606 023c 4D4F     		ldr	r7, .L130+164
 607 023e 3288     		ldrh	r2, [r6]
 608 0240 BA42     		cmp	r2, r7
 609 0242 14D0     		beq	.L58
 270:.\fun.c       ****   		{
 271:.\fun.c       ****     		PowerOnCnt00++;
 610              		.loc 1 271 0
 611 0244 0132     		add	r2, r2, #1
 272:.\fun.c       **** 		    if(PowerOnCnt00>60000)//10min
 612              		.loc 1 272 0
 613 0246 4C49     		ldr	r1, .L130+168
ARM GAS  C:\Users\ZHANGM~1\AppData\Local\Temp\cccEtK9g.s 			page 17


 271:.\fun.c       ****     		PowerOnCnt00++;
 614              		.loc 1 271 0
 615 0248 90B2     		uxth	r0, r2
 616 024a 3080     		strh	r0, [r6]
 617              		.loc 1 272 0
 618 024c 8842     		cmp	r0, r1
 619 024e 0ED9     		bls	.L58
 273:.\fun.c       **** 		    //if(PowerOnCnt00>1)//10min
 274:.\fun.c       **** 		    	{
 275:.\fun.c       **** 		    		PowerOnCnt00=0;
 276:.\fun.c       **** 		    		if(PowerOnCnt01<144)//24hour
 620              		.loc 1 276 0
 621 0250 4A4B     		ldr	r3, .L130+172
 622              	.LVL7:
 275:.\fun.c       **** 		    		PowerOnCnt00=0;
 623              		.loc 1 275 0
 624 0252 0024     		mov	r4, #0
 625 0254 3480     		strh	r4, [r6]
 626              		.loc 1 276 0
 627 0256 1E78     		ldrb	r6, [r3]
 628 0258 8F2E     		cmp	r6, #143
 629 025a 02D8     		bhi	.L60
 277:.\fun.c       **** 		    			PowerOnCnt01++;
 630              		.loc 1 277 0
 631 025c 0136     		add	r6, r6, #1
 632 025e 1E70     		strb	r6, [r3]
 633 0260 05E0     		b	.L58
 634              	.L60:
 278:.\fun.c       **** 		    		else
 279:.\fun.c       **** 		    			{
 280:.\fun.c       **** 		    				WorkFlag02.poll_24H_value_sendingcmp=1;
 635              		.loc 1 280 0
 636 0262 474A     		ldr	r2, .L130+176
 637 0264 0421     		mov	r1, #4
 638 0266 1078     		ldrb	r0, [r2]
 639 0268 0843     		orr	r0, r1
 640 026a 1070     		strb	r0, [r2]
 281:.\fun.c       **** 		    				PowerOnCnt01=0;
 641              		.loc 1 281 0
 642 026c 1C70     		strb	r4, [r3]
 643              	.LVL8:
 644              	.L58:
 282:.\fun.c       **** 		    				PowerOnCnt00=0;
 283:.\fun.c       **** 		    			}
 284:.\fun.c       **** 		    	}
 285:.\fun.c       **** 	  	} 
 286:.\fun.c       ****     if(chongxifig==1)//冲洗状态且无故障就计时
 645              		.loc 1 286 0
 646 026e 454C     		ldr	r4, .L130+180
 647 0270 2778     		ldrb	r7, [r4]
 648 0272 012F     		cmp	r7, #1
 649 0274 03D1     		bne	.L61
 287:.\fun.c       ****         chongxicnt++;
 650              		.loc 1 287 0
 651 0276 444B     		ldr	r3, .L130+184
 652              	.LVL9:
 653 0278 1E88     		ldrh	r6, [r3]
ARM GAS  C:\Users\ZHANGM~1\AppData\Local\Temp\cccEtK9g.s 			page 18


 654 027a 0136     		add	r6, r6, #1
 655 027c 1E80     		strh	r6, [r3]
 656              	.LVL10:
 657              	.L61:
 288:.\fun.c       ****     
 289:.\fun.c       ****     if(WorkFlag.quyuxzsta)//区域选择状态激活时开始计时
 658              		.loc 1 289 0
 659 027e 2A78     		ldrb	r2, [r5]
 660 0280 D206     		lsl	r2, r2, #27
 661 0282 03D5     		bpl	.L62
 290:.\fun.c       ****         NBstandcnt++;
 662              		.loc 1 290 0
 663 0284 4148     		ldr	r0, .L130+188
 664 0286 0188     		ldrh	r1, [r0]
 665 0288 0131     		add	r1, r1, #1
 666 028a 0180     		strh	r1, [r0]
 667              	.L62:
 291:.\fun.c       ****     if(lXXZcnt_fig)//滤芯状态计时
 668              		.loc 1 291 0
 669 028c 404F     		ldr	r7, .L130+192
 670 028e 414C     		ldr	r4, .L130+196
 671 0290 3B78     		ldrb	r3, [r7]
 672              	.LVL11:
 673 0292 002B     		cmp	r3, #0
 674 0294 02D0     		beq	.L63
 292:.\fun.c       ****         LXXZstandcnt++;
 675              		.loc 1 292 0
 676 0296 2688     		ldrh	r6, [r4]
 677 0298 0136     		add	r6, r6, #1
 678 029a 2680     		strh	r6, [r4]
 679              	.L63:
 293:.\fun.c       ****     if(DYWDfig==1&&DYWD_Read() ==0)//从无水到有水低压微动接通3S 计时 
 680              		.loc 1 293 0
 681 029c 3E4A     		ldr	r2, .L130+200
 682 029e 3F4E     		ldr	r6, .L130+204
 683 02a0 1078     		ldrb	r0, [r2]
 684 02a2 0128     		cmp	r0, #1
 685 02a4 06D1     		bne	.L64
 686              		.loc 1 293 0 is_stmt 0 discriminator 1
 687 02a6 FFF7FEFF 		bl	DYWD_Read
 688              	.LVL12:
 689 02aa 0028     		cmp	r0, #0
 690 02ac 02D1     		bne	.L64
 294:.\fun.c       ****         DYWDcnt++;
 691              		.loc 1 294 0 is_stmt 1
 692 02ae 3178     		ldrb	r1, [r6]
 693 02b0 0131     		add	r1, r1, #1
 694 02b2 00E0     		b	.L121
 695              	.L64:
 295:.\fun.c       ****     else
 296:.\fun.c       ****        DYWDcnt=0;
 696              		.loc 1 296 0
 697 02b4 0021     		mov	r1, #0
 698              	.L121:
 297:.\fun.c       ****     if(DYWDfig1==1&&DYWD_Read() ==1)//从有水到无水低压微动接通3S 计时 
 699              		.loc 1 297 0
 700 02b6 3A4B     		ldr	r3, .L130+208
ARM GAS  C:\Users\ZHANGM~1\AppData\Local\Temp\cccEtK9g.s 			page 19


 296:.\fun.c       ****        DYWDcnt=0;
 701              		.loc 1 296 0
 702 02b8 3170     		strb	r1, [r6]
 703              		.loc 1 297 0
 704 02ba 1A78     		ldrb	r2, [r3]
 705 02bc 394E     		ldr	r6, .L130+212
 706 02be 012A     		cmp	r2, #1
 707 02c0 72D1     		bne	.L66
 708              		.loc 1 297 0 is_stmt 0 discriminator 1
 709 02c2 FFF7FEFF 		bl	DYWD_Read
 710              	.LVL13:
 711 02c6 0128     		cmp	r0, #1
 712 02c8 6ED1     		bne	.L66
 298:.\fun.c       ****         DYWDcnt1++;
 713              		.loc 1 298 0 is_stmt 1
 714 02ca 3088     		ldrh	r0, [r6]
 715 02cc 0130     		add	r0, r0, #1
 716 02ce 6CE0     		b	.L122
 717              	.L131:
 718              		.align	2
 719              	.L130:
 720 02d0 00000000 		.word	T10msSign
 721 02d4 00000000 		.word	Ack_Timer
 722 02d8 00000000 		.word	Tds_Ack_Timer
 723 02dc 00000000 		.word	Send_Interval_Counter
 724 02e0 00000000 		.word	fastjishifig
 725 02e4 00000000 		.word	fastjishicnt
 726 02e8 00000000 		.word	BUZfkg
 727 02ec 00000000 		.word	BuzzerDly
 728 02f0 00000000 		.word	qushui_BUZcnt
 729 02f4 00000000 		.word	Tds_Dispcnt
 730 02f8 00000000 		.word	WorkFlag01_Dispcnt
 731 02fc 00000000 		.word	WorkFlag01
 732 0300 00000000 		.word	PowerOnOneHourCnt
 733 0304 3F7E0500 		.word	359999
 734 0308 00000000 		.word	NbPressCnt
 735 030c 00000000 		.word	WifiPressCnt
 736 0310 00000000 		.word	XzPressCnt
 737 0314 00000000 		.word	FlashCnt
 738 0318 00000000 		.word	WorkFlag
 739 031c 00000000 		.word	LianXuJiShi
 740 0320 00000000 		.word	jingshuiliang
 741 0324 00000000 		.word	LvxinJishi
 742 0328 4F0A0000 		.word	2639
 743 032c BF0D0000 		.word	3519
 744 0330 CF5C0000 		.word	23759
 745 0334 33170000 		.word	5939
 746 0338 00000000 		.word	onemincnt
 747 033c 00000000 		.word	NBmint
 748 0340 00000000 		.word	NBfig
 749 0344 5F0C0000 		.word	3167
 750 0348 7F100000 		.word	4223
 751 034c 5F6F0000 		.word	28511
 752 0350 D71B0000 		.word	7127
 753 0354 00000000 		.word	jingshuicnt
 754 0358 DBFF0000 		.word	65499
 755 035c 0F270000 		.word	9999
ARM GAS  C:\Users\ZHANGM~1\AppData\Local\Temp\cccEtK9g.s 			page 20


 756 0360 00000000 		.word	EEjingshuiliang
 757 0364 7F380100 		.word	79999
 758 0368 00000000 		.word	StaFlashCnt
 759 036c 00000000 		.word	DisFlag
 760 0370 00000000 		.word	PowerOnCnt00
 761 0374 FFFF0000 		.word	65535
 762 0378 60EA0000 		.word	60000
 763 037c 00000000 		.word	PowerOnCnt01
 764 0380 00000000 		.word	WorkFlag02
 765 0384 00000000 		.word	chongxifig
 766 0388 00000000 		.word	chongxicnt
 767 038c 00000000 		.word	NBstandcnt
 768 0390 00000000 		.word	lXXZcnt_fig
 769 0394 00000000 		.word	LXXZstandcnt
 770 0398 00000000 		.word	DYWDfig
 771 039c 00000000 		.word	DYWDcnt
 772 03a0 00000000 		.word	DYWDfig1
 773 03a4 00000000 		.word	DYWDcnt1
 774              	.L66:
 299:.\fun.c       ****     else
 300:.\fun.c       ****        DYWDcnt1=0;
 775              		.loc 1 300 0
 776 03a8 0020     		mov	r0, #0
 777              	.L122:
 301:.\fun.c       ****     
 302:.\fun.c       ****     
 303:.\fun.c       ****     
 304:.\fun.c       ****     if(GYfig1==1&&GYWD_Read() ==1)//从到有水低压微动接通3S 计时 
 778              		.loc 1 304 0
 779 03aa 3849     		ldr	r1, .L132
 300:.\fun.c       ****        DYWDcnt1=0;
 780              		.loc 1 300 0
 781 03ac 3080     		strh	r0, [r6]
 782              		.loc 1 304 0
 783 03ae 0B78     		ldrb	r3, [r1]
 784 03b0 374E     		ldr	r6, .L132+4
 785 03b2 012B     		cmp	r3, #1
 786 03b4 06D1     		bne	.L68
 787              		.loc 1 304 0 is_stmt 0 discriminator 1
 788 03b6 FFF7FEFF 		bl	GYWD_Read
 789              	.LVL14:
 790 03ba 0128     		cmp	r0, #1
 791 03bc 02D1     		bne	.L68
 305:.\fun.c       ****         GYcnt1++;
 792              		.loc 1 305 0 is_stmt 1
 793 03be 3278     		ldrb	r2, [r6]
 794 03c0 0132     		add	r2, r2, #1
 795 03c2 00E0     		b	.L123
 796              	.L68:
 306:.\fun.c       ****     else
 307:.\fun.c       ****        GYcnt1=0;
 797              		.loc 1 307 0
 798 03c4 0022     		mov	r2, #0
 799              	.L123:
 308:.\fun.c       ****     
 309:.\fun.c       ****     if(GYfig==1&&GYWD_Read() ==0)//从有水到无水低压微动接通3S 计时 
 800              		.loc 1 309 0
ARM GAS  C:\Users\ZHANGM~1\AppData\Local\Temp\cccEtK9g.s 			page 21


 801 03c6 3348     		ldr	r0, .L132+8
 307:.\fun.c       ****        GYcnt1=0;
 802              		.loc 1 307 0
 803 03c8 3270     		strb	r2, [r6]
 804              		.loc 1 309 0
 805 03ca 0178     		ldrb	r1, [r0]
 806 03cc 324E     		ldr	r6, .L132+12
 807 03ce 0129     		cmp	r1, #1
 808 03d0 06D1     		bne	.L70
 809              		.loc 1 309 0 is_stmt 0 discriminator 1
 810 03d2 FFF7FEFF 		bl	GYWD_Read
 811              	.LVL15:
 812 03d6 0028     		cmp	r0, #0
 813 03d8 02D1     		bne	.L70
 310:.\fun.c       ****         GYcnt++;
 814              		.loc 1 310 0 is_stmt 1
 815 03da 3378     		ldrb	r3, [r6]
 816 03dc 0133     		add	r3, r3, #1
 817 03de 00E0     		b	.L124
 818              	.L70:
 311:.\fun.c       ****     else
 312:.\fun.c       ****        GYcnt=0;
 819              		.loc 1 312 0
 820 03e0 0023     		mov	r3, #0
 821              	.L124:
 313:.\fun.c       ****     
 314:.\fun.c       ****     
 315:.\fun.c       ****     
 316:.\fun.c       ****     
 317:.\fun.c       ****     if(lXXZcnt_fig)
 822              		.loc 1 317 0
 823 03e2 3F78     		ldrb	r7, [r7]
 312:.\fun.c       ****        GYcnt=0;
 824              		.loc 1 312 0
 825 03e4 3370     		strb	r3, [r6]
 826              		.loc 1 317 0
 827 03e6 002F     		cmp	r7, #0
 828 03e8 04D0     		beq	.L72
 318:.\fun.c       ****     {
 319:.\fun.c       ****         if(LXXZstandcnt<400)//滤芯状态计时
 829              		.loc 1 319 0
 830 03ea 2788     		ldrh	r7, [r4]
 831 03ec 2B4A     		ldr	r2, .L132+16
 832 03ee 9742     		cmp	r7, r2
 833 03f0 01D8     		bhi	.L73
 320:.\fun.c       ****              LXXZstandcnt++; 
 834              		.loc 1 320 0
 835 03f2 0137     		add	r7, r7, #1
 836              	.L72:
 321:.\fun.c       ****     }
 322:.\fun.c       ****     else
 323:.\fun.c       ****         LXXZstandcnt=0;    
 837              		.loc 1 323 0
 838 03f4 2780     		strh	r7, [r4]
 839              	.L73:
 324:.\fun.c       ****     
 325:.\fun.c       ****     
ARM GAS  C:\Users\ZHANGM~1\AppData\Local\Temp\cccEtK9g.s 			page 22


 326:.\fun.c       ****     if(Error_Data.bit.Error_00_flag==1)//连续制水2小时全屏闪烁
 840              		.loc 1 326 0
 841 03f6 2A4C     		ldr	r4, .L132+20
 842 03f8 0120     		mov	r0, #1
 843 03fa 2678     		ldrb	r6, [r4]
 844 03fc 2949     		ldr	r1, .L132+24
 845 03fe 0640     		and	r6, r0
 846 0400 01D0     		beq	.L74
 327:.\fun.c       ****         eroorcnt++;
 847              		.loc 1 327 0
 848 0402 0E88     		ldrh	r6, [r1]
 849 0404 0136     		add	r6, r6, #1
 850              	.L74:
 328:.\fun.c       ****     else
 329:.\fun.c       ****         
 330:.\fun.c       ****         eroorcnt=0;
 331:.\fun.c       ****     
 332:.\fun.c       ****     if(standflashfig==1)//指示灯无闪烁计时
 851              		.loc 1 332 0
 852 0406 284B     		ldr	r3, .L132+28
 330:.\fun.c       ****         eroorcnt=0;
 853              		.loc 1 330 0
 854 0408 0E80     		strh	r6, [r1]
 855              		.loc 1 332 0
 856 040a 1F78     		ldrb	r7, [r3]
 857 040c 274C     		ldr	r4, .L132+32
 858 040e 012F     		cmp	r7, #1
 859 0410 02D1     		bne	.L76
 333:.\fun.c       ****         standflashcnt++;
 860              		.loc 1 333 0
 861 0412 2288     		ldrh	r2, [r4]
 862 0414 0132     		add	r2, r2, #1
 863 0416 00E0     		b	.L125
 864              	.L76:
 334:.\fun.c       ****     else
 335:.\fun.c       ****         standflashcnt=0;
 865              		.loc 1 335 0
 866 0418 0022     		mov	r2, #0
 867              	.L125:
 336:.\fun.c       ****     if(standkeyfig==1)//按键无动作计时
 868              		.loc 1 336 0
 869 041a 2548     		ldr	r0, .L132+36
 335:.\fun.c       ****         standflashcnt=0;
 870              		.loc 1 335 0
 871 041c 2280     		strh	r2, [r4]
 872              		.loc 1 336 0
 873 041e 0178     		ldrb	r1, [r0]
 874 0420 244E     		ldr	r6, .L132+40
 875 0422 0129     		cmp	r1, #1
 876 0424 02D1     		bne	.L78
 337:.\fun.c       ****         standkeycnt++;
 877              		.loc 1 337 0
 878 0426 3388     		ldrh	r3, [r6]
 879 0428 0133     		add	r3, r3, #1
 880 042a 00E0     		b	.L126
 881              	.L78:
 338:.\fun.c       ****     else
ARM GAS  C:\Users\ZHANGM~1\AppData\Local\Temp\cccEtK9g.s 			page 23


 339:.\fun.c       ****         standkeycnt=0;
 882              		.loc 1 339 0
 883 042c 0023     		mov	r3, #0
 884              	.L126:
 885 042e 3380     		strh	r3, [r6]
 340:.\fun.c       ****     if(WorkFlag.zijiansta&&zijianstacnt<255) //自检状态计时
 886              		.loc 1 340 0
 887 0430 ED78     		ldrb	r5, [r5, #3]
 888 0432 EA07     		lsl	r2, r5, #31
 889 0434 05D5     		bpl	.L80
 890              		.loc 1 340 0 is_stmt 0 discriminator 1
 891 0436 204F     		ldr	r7, .L132+44
 892 0438 3C78     		ldrb	r4, [r7]
 893 043a FF2C     		cmp	r4, #255
 894 043c 01D0     		beq	.L80
 341:.\fun.c       ****     
 342:.\fun.c       ****         zijianstacnt++;
 895              		.loc 1 342 0 is_stmt 1
 896 043e 0134     		add	r4, r4, #1
 897 0440 3C70     		strb	r4, [r7]
 898              	.L80:
 343:.\fun.c       ****     
 344:.\fun.c       ****     if(jserrorcntfig==1)
 899              		.loc 1 344 0
 900 0442 1E4A     		ldr	r2, .L132+48
 901 0444 1E49     		ldr	r1, .L132+52
 902 0446 1078     		ldrb	r0, [r2]
 903 0448 0128     		cmp	r0, #1
 904 044a 04D1     		bne	.L81
 345:.\fun.c       ****     	{
 346:.\fun.c       ****     		if(jserrorcnt<0xff)
 905              		.loc 1 346 0
 906 044c 0E78     		ldrb	r6, [r1]
 907 044e FF2E     		cmp	r6, #255
 908 0450 03D0     		beq	.L82
 347:.\fun.c       ****         jserrorcnt++;
 909              		.loc 1 347 0
 910 0452 0136     		add	r6, r6, #1
 911 0454 00E0     		b	.L127
 912              	.L81:
 348:.\fun.c       ****       }
 349:.\fun.c       ****     else
 350:.\fun.c       ****         jserrorcnt=0;
 913              		.loc 1 350 0
 914 0456 0026     		mov	r6, #0
 915              	.L127:
 916 0458 0E70     		strb	r6, [r1]
 917              	.L82:
 351:.\fun.c       ****     
 352:.\fun.c       ****     if(yanshifig==1)
 918              		.loc 1 352 0
 919 045a 1A4B     		ldr	r3, .L132+56
 920 045c 1A4F     		ldr	r7, .L132+60
 921 045e 1D78     		ldrb	r5, [r3]
 922 0460 012D     		cmp	r5, #1
 923 0462 04D1     		bne	.L83
 353:.\fun.c       ****     {
ARM GAS  C:\Users\ZHANGM~1\AppData\Local\Temp\cccEtK9g.s 			page 24


 354:.\fun.c       ****     	if(yanshicnt<0xff)
 924              		.loc 1 354 0
 925 0464 3C78     		ldrb	r4, [r7]
 926 0466 FF2C     		cmp	r4, #255
 927 0468 03D0     		beq	.L84
 355:.\fun.c       ****         yanshicnt++;
 928              		.loc 1 355 0
 929 046a 0134     		add	r4, r4, #1
 930 046c 00E0     		b	.L128
 931              	.L83:
 356:.\fun.c       ****     }
 357:.\fun.c       ****     else
 358:.\fun.c       ****         yanshicnt=0;
 932              		.loc 1 358 0
 933 046e 0024     		mov	r4, #0
 934              	.L128:
 935 0470 3C70     		strb	r4, [r7]
 936              	.L84:
 359:.\fun.c       ****     
 360:.\fun.c       ****     if(fastfig==1)
 937              		.loc 1 360 0
 938 0472 164A     		ldr	r2, .L132+64
 939 0474 1649     		ldr	r1, .L132+68
 940 0476 1078     		ldrb	r0, [r2]
 941 0478 0128     		cmp	r0, #1
 942 047a 04D1     		bne	.L85
 361:.\fun.c       ****     {
 362:.\fun.c       ****     	if(fastcnt<0xff)
 943              		.loc 1 362 0
 944 047c 0E78     		ldrb	r6, [r1]
 945 047e FF2E     		cmp	r6, #255
 946 0480 03D0     		beq	.L15
 363:.\fun.c       ****         fastcnt++;
 947              		.loc 1 363 0
 948 0482 0136     		add	r6, r6, #1
 949 0484 00E0     		b	.L129
 950              	.L85:
 364:.\fun.c       ****     }
 365:.\fun.c       ****     else
 366:.\fun.c       ****         fastcnt=0;
 951              		.loc 1 366 0
 952 0486 0026     		mov	r6, #0
 953              	.L129:
 954 0488 0E70     		strb	r6, [r1]
 955              	.L15:
 367:.\fun.c       ****     
 368:.\fun.c       ****     
 369:.\fun.c       ****     
 370:.\fun.c       **** }
 956              		.loc 1 370 0
 957              		@ sp needed for prologue
 958 048a F8BD     		pop	{r3, r4, r5, r6, r7, pc}
 959              	.L133:
 960              		.align	2
 961              	.L132:
 962 048c 00000000 		.word	GYfig1
 963 0490 00000000 		.word	GYcnt1
ARM GAS  C:\Users\ZHANGM~1\AppData\Local\Temp\cccEtK9g.s 			page 25


 964 0494 00000000 		.word	GYfig
 965 0498 00000000 		.word	GYcnt
 966 049c 8F010000 		.word	399
 967 04a0 00000000 		.word	Error_Data
 968 04a4 00000000 		.word	eroorcnt
 969 04a8 00000000 		.word	standflashfig
 970 04ac 00000000 		.word	standflashcnt
 971 04b0 00000000 		.word	standkeyfig
 972 04b4 00000000 		.word	standkeycnt
 973 04b8 00000000 		.word	zijianstacnt
 974 04bc 00000000 		.word	jserrorcntfig
 975 04c0 00000000 		.word	jserrorcnt
 976 04c4 00000000 		.word	yanshifig
 977 04c8 00000000 		.word	yanshicnt
 978 04cc 00000000 		.word	fastfig
 979 04d0 00000000 		.word	fastcnt
 980              		.cfi_endproc
 981              	.LFE34:
 982              		.size	Timer_Isr_Fun, .-Timer_Isr_Fun
 983              		.section	.text.stand,"ax",%progbits
 984              		.align	1
 985              		.global	stand
 986              		.code	16
 987              		.thumb_func
 988              		.type	stand, %function
 989              	stand:
 990              	.LFB35:
 371:.\fun.c       **** 
 372:.\fun.c       **** 
 373:.\fun.c       **** /********************************************************************************\
 374:.\fun.c       ****     USER FUNCTION
 375:.\fun.c       **** \********************************************************************************/
 376:.\fun.c       **** void stand(void)//待机判断
 377:.\fun.c       **** {
 991              		.loc 1 377 0
 992              		.cfi_startproc
 993 0000 10B5     		push	{r4, lr}
 994              	.LCFI2:
 995              		.cfi_def_cfa_offset 8
 996              		.cfi_offset 4, -8
 997              		.cfi_offset 14, -4
 378:.\fun.c       ****     /* 四个指示灯无闪烁   */
 379:.\fun.c       ****     if(DisFlag.workingsignflash==0&&DisFlag.outofwatersignflash==0&&DisFlag.cleaningsignflash==0&&D
 998              		.loc 1 379 0
 999 0002 394B     		ldr	r3, .L178
 1000 0004 0F20     		mov	r0, #15
 1001 0006 9A78     		ldrb	r2, [r3, #2]
 1002 0008 3849     		ldr	r1, .L178+4
 1003 000a 8243     		bic	r2, r0
 1004 000c 02D1     		bne	.L135
 380:.\fun.c       ****         standflashfig=1;
 1005              		.loc 1 380 0
 1006 000e 0124     		mov	r4, #1
 1007 0010 0C70     		strb	r4, [r1]
 1008 0012 06E0     		b	.L136
 1009              	.L135:
 381:.\fun.c       ****     else
ARM GAS  C:\Users\ZHANGM~1\AppData\Local\Temp\cccEtK9g.s 			page 26


 382:.\fun.c       ****     {
 383:.\fun.c       ****         standflashfig=0;
 384:.\fun.c       ****         WorkFlag.standbysta=0; 
 1010              		.loc 1 384 0
 1011 0014 364B     		ldr	r3, .L178+8
 383:.\fun.c       ****         standflashfig=0;
 1012              		.loc 1 383 0
 1013 0016 0024     		mov	r4, #0
 1014 0018 0C70     		strb	r4, [r1]
 1015              		.loc 1 384 0
 1016 001a 9A78     		ldrb	r2, [r3, #2]
 1017 001c 0120     		mov	r0, #1
 1018 001e 8243     		bic	r2, r0
 1019 0020 9A70     		strb	r2, [r3, #2]
 1020              	.L136:
 385:.\fun.c       ****     }
 386:.\fun.c       ****      /* 四个按键无动作   */
 387:.\fun.c       ****     if((KEYNB)==0&&(KEYXZ)==0&&(KEYFW)==0&&(KEYQX)==0)
 1021              		.loc 1 387 0
 1022 0022 3449     		ldr	r1, .L178+12
 1023 0024 0824     		mov	r4, #8
 1024 0026 0B78     		ldrb	r3, [r1]
 1025 0028 334A     		ldr	r2, .L178+16
 1026 002a 2342     		tst	r3, r4
 1027 002c 03D0     		beq	.L137
 1028              		.loc 1 387 0 is_stmt 0 discriminator 1
 1029 002e 3348     		ldr	r0, .L178+20
 1030 0030 0178     		ldrb	r1, [r0]
 1031 0032 2142     		tst	r1, r4
 1032 0034 05D0     		beq	.L138
 1033              	.L137:
 1034              		.loc 1 387 0
 1035 0036 5907     		lsl	r1, r3, #29
 1036 0038 43D5     		bpl	.L139
 1037              	.L146:
 1038              		.loc 1 387 0 discriminator 1
 1039 003a 304C     		ldr	r4, .L178+20
 1040 003c 2078     		ldrb	r0, [r4]
 1041 003e 0028     		cmp	r0, #0
 1042 0040 3FD1     		bne	.L139
 1043              	.L138:
 388:.\fun.c       ****         standkeyfig=1;
 389:.\fun.c       ****     else 
 390:.\fun.c       ****     {
 391:.\fun.c       ****         standkeyfig=0;
 392:.\fun.c       ****         WorkFlag.standbysta=0; 
 1044              		.loc 1 392 0 is_stmt 1
 1045 0042 2B4B     		ldr	r3, .L178+8
 391:.\fun.c       ****         standkeyfig=0;
 1046              		.loc 1 391 0
 1047 0044 0021     		mov	r1, #0
 1048 0046 1170     		strb	r1, [r2]
 1049              		.loc 1 392 0
 1050 0048 9A78     		ldrb	r2, [r3, #2]
 1051 004a 0124     		mov	r4, #1
 1052 004c A243     		bic	r2, r4
 1053 004e 9A70     		strb	r2, [r3, #2]
ARM GAS  C:\Users\ZHANGM~1\AppData\Local\Temp\cccEtK9g.s 			page 27


 1054              	.L149:
 393:.\fun.c       ****         
 394:.\fun.c       ****     } 
 395:.\fun.c       ****     /* 判断有没有滤芯寿命到期，有滤芯寿命到期的则不进待机   */
 396:.\fun.c       ****     if(SPercent==0||HPercent==0||JPercent==0||KPercent==0||LPercent==0||MPercent==0)
 1055              		.loc 1 396 0
 1056 0050 2B48     		ldr	r0, .L178+24
 1057 0052 2C4A     		ldr	r2, .L178+28
 1058 0054 0178     		ldrb	r1, [r0]
 1059 0056 2C4B     		ldr	r3, .L178+32
 1060 0058 0029     		cmp	r1, #0
 1061 005a 13D0     		beq	.L142
 1062              		.loc 1 396 0 is_stmt 0 discriminator 1
 1063 005c 2B4C     		ldr	r4, .L178+36
 1064 005e 2078     		ldrb	r0, [r4]
 1065 0060 0028     		cmp	r0, #0
 1066 0062 0FD0     		beq	.L142
 1067 0064 2A49     		ldr	r1, .L178+40
 1068 0066 0C78     		ldrb	r4, [r1]
 1069 0068 002C     		cmp	r4, #0
 1070 006a 0BD0     		beq	.L142
 1071 006c 2948     		ldr	r0, .L178+44
 1072 006e 0178     		ldrb	r1, [r0]
 1073 0070 0029     		cmp	r1, #0
 1074 0072 07D0     		beq	.L142
 1075 0074 284C     		ldr	r4, .L178+48
 1076 0076 2078     		ldrb	r0, [r4]
 1077 0078 0028     		cmp	r0, #0
 1078 007a 03D0     		beq	.L142
 1079 007c 2749     		ldr	r1, .L178+52
 1080 007e 0C78     		ldrb	r4, [r1]
 1081 0080 002C     		cmp	r4, #0
 1082 0082 09D1     		bne	.L143
 1083              	.L142:
 397:.\fun.c       ****     {    
 398:.\fun.c       ****         standflashcnt=0;
 399:.\fun.c       ****         standkeycnt=0;
 1084              		.loc 1 399 0 is_stmt 1
 1085 0084 2648     		ldr	r0, .L178+56
 398:.\fun.c       ****         standflashcnt=0;
 1086              		.loc 1 398 0
 1087 0086 0024     		mov	r4, #0
 1088              		.loc 1 399 0
 1089 0088 0480     		strh	r4, [r0]
 400:.\fun.c       ****         WorkFlag.standbysta=0; 
 1090              		.loc 1 400 0
 1091 008a 1948     		ldr	r0, .L178+8
 398:.\fun.c       ****         standflashcnt=0;
 1092              		.loc 1 398 0
 1093 008c 1480     		strh	r4, [r2]
 1094              		.loc 1 400 0
 1095 008e 8478     		ldrb	r4, [r0, #2]
 1096 0090 0121     		mov	r1, #1
 1097 0092 8C43     		bic	r4, r1
 1098 0094 8470     		strb	r4, [r0, #2]
 1099 0096 00E0     		b	.L177
 1100              	.L143:
ARM GAS  C:\Users\ZHANGM~1\AppData\Local\Temp\cccEtK9g.s 			page 28


 401:.\fun.c       ****         lvxindaoqifig=1;
 402:.\fun.c       ****         
 403:.\fun.c       ****     }    
 404:.\fun.c       ****     else
 405:.\fun.c       ****         lvxindaoqifig=0;
 1101              		.loc 1 405 0
 1102 0098 0021     		mov	r1, #0
 1103              	.L177:
 1104 009a 1970     		strb	r1, [r3]
 406:.\fun.c       ****      /* 指示灯连续5分钟无闪烁且四个按键5分钟无动作,则进入待机状态   */
 407:.\fun.c       ****     if(standflashcnt>=TIMER5M&&standkeycnt>=TIMER5M&&lvxindaoqifig==0)
 1105              		.loc 1 407 0
 1106 009c 2148     		ldr	r0, .L178+60
 1107 009e 1188     		ldrh	r1, [r2]
 1108 00a0 8142     		cmp	r1, r0
 1109 00a2 1FD9     		bls	.L134
 1110              		.loc 1 407 0 is_stmt 0 discriminator 1
 1111 00a4 1E49     		ldr	r1, .L178+56
 1112 00a6 0C88     		ldrh	r4, [r1]
 1113 00a8 8442     		cmp	r4, r0
 1114 00aa 1BD9     		bls	.L134
 1115 00ac 1B78     		ldrb	r3, [r3]
 1116 00ae 002B     		cmp	r3, #0
 1117 00b0 18D1     		bne	.L134
 408:.\fun.c       ****     {
 409:.\fun.c       ****         standflashcnt=0;
 410:.\fun.c       ****         standkeycnt=0;
 411:.\fun.c       ****         WorkFlag.standbysta=1;  
 1118              		.loc 1 411 0 is_stmt 1
 1119 00b2 0F48     		ldr	r0, .L178+8
 410:.\fun.c       ****         standkeycnt=0;
 1120              		.loc 1 410 0
 1121 00b4 0B80     		strh	r3, [r1]
 409:.\fun.c       ****         standflashcnt=0;
 1122              		.loc 1 409 0
 1123 00b6 1380     		strh	r3, [r2]
 1124              		.loc 1 411 0
 1125 00b8 8278     		ldrb	r2, [r0, #2]
 1126 00ba 0121     		mov	r1, #1
 1127 00bc 0A43     		orr	r2, r1
 1128 00be 8270     		strb	r2, [r0, #2]
 1129 00c0 10E0     		b	.L134
 1130              	.L139:
 387:.\fun.c       ****     if((KEYNB)==0&&(KEYXZ)==0&&(KEYFW)==0&&(KEYQX)==0)
 1131              		.loc 1 387 0
 1132 00c2 0221     		mov	r1, #2
 1133 00c4 0B42     		tst	r3, r1
 1134 00c6 03D0     		beq	.L140
 1135              	.L147:
 387:.\fun.c       ****     if((KEYNB)==0&&(KEYXZ)==0&&(KEYFW)==0&&(KEYQX)==0)
 1136              		.loc 1 387 0 is_stmt 0 discriminator 1
 1137 00c8 0C4C     		ldr	r4, .L178+20
 1138 00ca 2078     		ldrb	r0, [r4]
 1139 00cc 0842     		tst	r0, r1
 1140 00ce B8D0     		beq	.L138
 1141              	.L140:
 387:.\fun.c       ****     if((KEYNB)==0&&(KEYXZ)==0&&(KEYFW)==0&&(KEYQX)==0)
ARM GAS  C:\Users\ZHANGM~1\AppData\Local\Temp\cccEtK9g.s 			page 29


 1142              		.loc 1 387 0
 1143 00d0 0121     		mov	r1, #1
 1144 00d2 0B42     		tst	r3, r1
 1145 00d4 03D0     		beq	.L141
 1146              	.L148:
 387:.\fun.c       ****     if((KEYNB)==0&&(KEYXZ)==0&&(KEYFW)==0&&(KEYQX)==0)
 1147              		.loc 1 387 0 discriminator 1
 1148 00d6 094B     		ldr	r3, .L178+20
 1149 00d8 1C78     		ldrb	r4, [r3]
 1150 00da 0C42     		tst	r4, r1
 1151 00dc B1D0     		beq	.L138
 1152              	.L141:
 388:.\fun.c       ****         standkeyfig=1;
 1153              		.loc 1 388 0 is_stmt 1
 1154 00de 0120     		mov	r0, #1
 1155 00e0 1070     		strb	r0, [r2]
 1156 00e2 B5E7     		b	.L149
 1157              	.L134:
 412:.\fun.c       ****     }    
 413:.\fun.c       ****     
 414:.\fun.c       ****     
 415:.\fun.c       ****     
 416:.\fun.c       ****     
 417:.\fun.c       **** 
 418:.\fun.c       ****     
 419:.\fun.c       **** }
 1158              		.loc 1 419 0
 1159              		@ sp needed for prologue
 1160 00e4 10BD     		pop	{r4, pc}
 1161              	.L179:
 1162 00e6 C046     		.align	2
 1163              	.L178:
 1164 00e8 00000000 		.word	DisFlag
 1165 00ec 00000000 		.word	standflashfig
 1166 00f0 00000000 		.word	WorkFlag
 1167 00f4 00000000 		.word	BtnData1
 1168 00f8 00000000 		.word	standkeyfig
 1169 00fc 00000000 		.word	BtnData2
 1170 0100 00000000 		.word	SPercent
 1171 0104 00000000 		.word	standflashcnt
 1172 0108 00000000 		.word	lvxindaoqifig
 1173 010c 00000000 		.word	HPercent
 1174 0110 00000000 		.word	JPercent
 1175 0114 00000000 		.word	KPercent
 1176 0118 00000000 		.word	LPercent
 1177 011c 00000000 		.word	MPercent
 1178 0120 00000000 		.word	standkeycnt
 1179 0124 B70B0000 		.word	2999
 1180              		.cfi_endproc
 1181              	.LFE35:
 1182              		.size	stand, .-stand
 1183              		.global	__aeabi_uidiv
 1184              		.section	.text.LXPercent,"ax",%progbits
 1185              		.align	1
 1186              		.global	LXPercent
 1187              		.code	16
 1188              		.thumb_func
ARM GAS  C:\Users\ZHANGM~1\AppData\Local\Temp\cccEtK9g.s 			page 30


 1189              		.type	LXPercent, %function
 1190              	LXPercent:
 1191              	.LFB37:
 420:.\fun.c       **** 
 421:.\fun.c       **** 
 422:.\fun.c       **** void lvxin_panduan(void)
 423:.\fun.c       **** {
 424:.\fun.c       ****     LXPercent();
 425:.\fun.c       ****     if(SPercent==1)
 426:.\fun.c       ****         Sfig=1;
 427:.\fun.c       ****     else if(SPercent==0)
 428:.\fun.c       ****         Sfig=2;
 429:.\fun.c       ****     
 430:.\fun.c       ****     if(HPercent==1)
 431:.\fun.c       ****         Hfig=1;
 432:.\fun.c       ****     else if(HPercent==0)
 433:.\fun.c       ****         Hfig=2;
 434:.\fun.c       ****     
 435:.\fun.c       ****     if(JPercent==1)
 436:.\fun.c       ****         Jfig=1;
 437:.\fun.c       ****     else if(JPercent==0)
 438:.\fun.c       ****         Jfig=2;
 439:.\fun.c       ****         
 440:.\fun.c       ****     if(KPercent==1)
 441:.\fun.c       ****         Kfig=1;
 442:.\fun.c       ****     else if(KPercent==0)
 443:.\fun.c       ****         Kfig=2;
 444:.\fun.c       ****     
 445:.\fun.c       ****     if(LPercent==1)
 446:.\fun.c       ****         Lfig=1;
 447:.\fun.c       ****     else if(LPercent==0)
 448:.\fun.c       ****         Lfig=2;
 449:.\fun.c       ****     
 450:.\fun.c       ****     if(MPercent==1)
 451:.\fun.c       ****         Mfig=1;
 452:.\fun.c       ****     else if(MPercent==0)
 453:.\fun.c       ****         Mfig=2;
 454:.\fun.c       ****     
 455:.\fun.c       **** }
 456:.\fun.c       **** 
 457:.\fun.c       **** 
 458:.\fun.c       **** 
 459:.\fun.c       **** void LXPercent(void)//滤芯百分比计算 函数
 460:.\fun.c       **** {
 1192              		.loc 1 460 0
 1193              		.cfi_startproc
 1194 0000 F8B5     		push	{r3, r4, r5, r6, r7, lr}
 1195              	.LCFI3:
 1196              		.cfi_def_cfa_offset 24
 1197              		.cfi_offset 3, -24
 1198              		.cfi_offset 4, -20
 1199              		.cfi_offset 5, -16
 1200              		.cfi_offset 6, -12
 1201              		.cfi_offset 7, -8
 1202              		.cfi_offset 14, -4
 461:.\fun.c       ****     
 462:.\fun.c       ****     if(NBfig==1)//如果是北方模式
ARM GAS  C:\Users\ZHANGM~1\AppData\Local\Temp\cccEtK9g.s 			page 31


 1203              		.loc 1 462 0
 1204 0002 B94B     		ldr	r3, .L230
 1205 0004 B94C     		ldr	r4, .L230+4
 1206 0006 1978     		ldrb	r1, [r3]
 1207 0008 B94F     		ldr	r7, .L230+8
 1208 000a BA4E     		ldr	r6, .L230+12
 1209 000c BA4D     		ldr	r5, .L230+16
 463:.\fun.c       **** 	    {
 464:.\fun.c       **** 	      if(LvxinJishi[0]<2640)
 1210              		.loc 1 464 0
 1211 000e 2088     		ldrh	r0, [r4]
 462:.\fun.c       ****     if(NBfig==1)//如果是北方模式
 1212              		.loc 1 462 0
 1213 0010 0129     		cmp	r1, #1
 1214 0012 58D1     		bne	.L181
 1215              		.loc 1 464 0
 1216 0014 B94B     		ldr	r3, .L230+20
 1217 0016 9842     		cmp	r0, r3
 1218 0018 07D8     		bhi	.L182
 465:.\fun.c       **** 	          SPercent=(10-(LvxinJishi[0]/SP));//PP寿命百分比2400min
 1219              		.loc 1 465 0
 1220 001a B949     		ldr	r1, .L230+24
 1221 001c 0988     		ldrh	r1, [r1]
 1222 001e FFF7FEFF 		bl	__aeabi_uidiv
 1223              	.LVL16:
 1224 0022 0A22     		mov	r2, #10
 1225 0024 131A     		sub	r3, r2, r0
 1226 0026 3B70     		strb	r3, [r7]
 1227 0028 01E0     		b	.L183
 1228              	.L182:
 466:.\fun.c       **** 	      else
 467:.\fun.c       **** 	          SPercent=0;
 1229              		.loc 1 467 0
 1230 002a 0020     		mov	r0, #0
 1231 002c 3870     		strb	r0, [r7]
 1232              	.L183:
 468:.\fun.c       **** 	      if(LvxinJishi[1]<3520)   
 1233              		.loc 1 468 0
 1234 002e 6088     		ldrh	r0, [r4, #2]
 1235 0030 B449     		ldr	r1, .L230+28
 1236 0032 8842     		cmp	r0, r1
 1237 0034 07D8     		bhi	.L184
 469:.\fun.c       **** 	          HPercent=(10-(LvxinJishi[1]/HP));//压缩活性炭寿命百分比
 1238              		.loc 1 469 0
 1239 0036 B44A     		ldr	r2, .L230+32
 1240 0038 1188     		ldrh	r1, [r2]
 1241 003a FFF7FEFF 		bl	__aeabi_uidiv
 1242              	.LVL17:
 1243 003e 0A23     		mov	r3, #10
 1244 0040 191A     		sub	r1, r3, r0
 1245 0042 3170     		strb	r1, [r6]
 1246 0044 01E0     		b	.L185
 1247              	.L184:
 470:.\fun.c       **** 	      else
 471:.\fun.c       **** 	          HPercent=0;
 1248              		.loc 1 471 0
 1249 0046 0020     		mov	r0, #0
ARM GAS  C:\Users\ZHANGM~1\AppData\Local\Temp\cccEtK9g.s 			page 32


 1250 0048 3070     		strb	r0, [r6]
 1251              	.L185:
 472:.\fun.c       **** 	      if(LvxinJishi[2]<23760)     
 1252              		.loc 1 472 0
 1253 004a A088     		ldrh	r0, [r4, #4]
 1254 004c AF4A     		ldr	r2, .L230+36
 1255 004e 9042     		cmp	r0, r2
 1256 0050 07D8     		bhi	.L186
 473:.\fun.c       **** 	          JPercent=(10-(LvxinJishi[2]/JP));//R01寿命百分比
 1257              		.loc 1 473 0
 1258 0052 AF4B     		ldr	r3, .L230+40
 1259 0054 1988     		ldrh	r1, [r3]
 1260 0056 FFF7FEFF 		bl	__aeabi_uidiv
 1261              	.LVL18:
 1262 005a 0A21     		mov	r1, #10
 1263 005c 0A1A     		sub	r2, r1, r0
 1264 005e 2A70     		strb	r2, [r5]
 1265 0060 01E0     		b	.L187
 1266              	.L186:
 474:.\fun.c       **** 	      else
 475:.\fun.c       **** 	          JPercent=0;
 1267              		.loc 1 475 0
 1268 0062 0020     		mov	r0, #0
 1269 0064 2870     		strb	r0, [r5]
 1270              	.L187:
 476:.\fun.c       **** 	      if(LvxinJishi[3]<23760)   
 1271              		.loc 1 476 0
 1272 0066 E088     		ldrh	r0, [r4, #6]
 1273 0068 A84B     		ldr	r3, .L230+36
 1274 006a 9842     		cmp	r0, r3
 1275 006c 08D8     		bhi	.L188
 477:.\fun.c       **** 	          KPercent=(10-(LvxinJishi[3]/KP));//R02寿命百分比
 1276              		.loc 1 477 0
 1277 006e A94A     		ldr	r2, .L230+44
 1278 0070 1188     		ldrh	r1, [r2]
 1279 0072 FFF7FEFF 		bl	__aeabi_uidiv
 1280              	.LVL19:
 1281 0076 0A23     		mov	r3, #10
 1282 0078 A749     		ldr	r1, .L230+48
 1283 007a 181A     		sub	r0, r3, r0
 1284 007c 0870     		strb	r0, [r1]
 1285 007e 02E0     		b	.L189
 1286              	.L188:
 478:.\fun.c       **** 	      else
 479:.\fun.c       **** 	          KPercent=0;
 1287              		.loc 1 479 0
 1288 0080 A549     		ldr	r1, .L230+48
 1289 0082 0020     		mov	r0, #0
 1290 0084 0870     		strb	r0, [r1]
 1291              	.L189:
 480:.\fun.c       **** 	      if(LvxinJishi[4]<23760)   
 1292              		.loc 1 480 0
 1293 0086 2089     		ldrh	r0, [r4, #8]
 1294 0088 A04A     		ldr	r2, .L230+36
 1295 008a 9042     		cmp	r0, r2
 1296 008c 08D8     		bhi	.L190
 481:.\fun.c       **** 	          LPercent=(10-(LvxinJishi[4]/LP));//R03寿命百分比
ARM GAS  C:\Users\ZHANGM~1\AppData\Local\Temp\cccEtK9g.s 			page 33


 1297              		.loc 1 481 0
 1298 008e A349     		ldr	r1, .L230+52
 1299 0090 0988     		ldrh	r1, [r1]
 1300 0092 FFF7FEFF 		bl	__aeabi_uidiv
 1301              	.LVL20:
 1302 0096 0A22     		mov	r2, #10
 1303 0098 131A     		sub	r3, r2, r0
 1304 009a A148     		ldr	r0, .L230+56
 1305 009c 0370     		strb	r3, [r0]
 1306 009e 02E0     		b	.L191
 1307              	.L190:
 482:.\fun.c       **** 	      else
 483:.\fun.c       **** 	          LPercent=0;
 1308              		.loc 1 483 0
 1309 00a0 9F48     		ldr	r0, .L230+56
 1310 00a2 0023     		mov	r3, #0
 1311 00a4 0370     		strb	r3, [r0]
 1312              	.L191:
 484:.\fun.c       **** 	      if(LvxinJishi[5]<5940)    
 1313              		.loc 1 484 0
 1314 00a6 6089     		ldrh	r0, [r4, #10]
 1315 00a8 9E49     		ldr	r1, .L230+60
 1316 00aa 9F4C     		ldr	r4, .L230+64
 1317 00ac 8842     		cmp	r0, r1
 1318 00ae 07D8     		bhi	.L192
 485:.\fun.c       **** 	          MPercent=(10-(LvxinJishi[5]/MP));//载银寿命百分比
 1319              		.loc 1 485 0
 1320 00b0 9E4B     		ldr	r3, .L230+68
 1321 00b2 1988     		ldrh	r1, [r3]
 1322 00b4 FFF7FEFF 		bl	__aeabi_uidiv
 1323              	.LVL21:
 1324 00b8 0A21     		mov	r1, #10
 1325 00ba 081A     		sub	r0, r1, r0
 1326 00bc 2070     		strb	r0, [r4]
 1327 00be 34E0     		b	.L193
 1328              	.L192:
 486:.\fun.c       **** 	      else
 487:.\fun.c       **** 	          MPercent=0;
 1329              		.loc 1 487 0
 1330 00c0 0022     		mov	r2, #0
 1331 00c2 2270     		strb	r2, [r4]
 1332 00c4 31E0     		b	.L193
 1333              	.L181:
 488:.\fun.c       **** 	    }
 489:.\fun.c       ****     else//如果是南方模式
 490:.\fun.c       **** 	    {
 491:.\fun.c       **** 	        SPercent=(10-(LvxinJishi[0]/SP_N));//PP寿命百分比
 1334              		.loc 1 491 0
 1335 00c6 9A4A     		ldr	r2, .L230+72
 1336 00c8 1188     		ldrh	r1, [r2]
 1337 00ca FFF7FEFF 		bl	__aeabi_uidiv
 1338              	.LVL22:
 1339 00ce 0A23     		mov	r3, #10
 1340 00d0 181A     		sub	r0, r3, r0
 492:.\fun.c       **** 	        HPercent=(10-(LvxinJishi[1]/HP_N));//压缩活性炭寿命百分比
 1341              		.loc 1 492 0
 1342 00d2 9849     		ldr	r1, .L230+76
ARM GAS  C:\Users\ZHANGM~1\AppData\Local\Temp\cccEtK9g.s 			page 34


 491:.\fun.c       **** 	        SPercent=(10-(LvxinJishi[0]/SP_N));//PP寿命百分比
 1343              		.loc 1 491 0
 1344 00d4 3870     		strb	r0, [r7]
 1345              		.loc 1 492 0
 1346 00d6 6088     		ldrh	r0, [r4, #2]
 1347 00d8 0988     		ldrh	r1, [r1]
 1348 00da FFF7FEFF 		bl	__aeabi_uidiv
 1349              	.LVL23:
 1350 00de 0A22     		mov	r2, #10
 1351 00e0 131A     		sub	r3, r2, r0
 493:.\fun.c       **** 	        JPercent=(10-(LvxinJishi[2]/JP_N));//R01寿命百分比
 1352              		.loc 1 493 0
 1353 00e2 9549     		ldr	r1, .L230+80
 492:.\fun.c       **** 	        HPercent=(10-(LvxinJishi[1]/HP_N));//压缩活性炭寿命百分比
 1354              		.loc 1 492 0
 1355 00e4 3370     		strb	r3, [r6]
 1356              		.loc 1 493 0
 1357 00e6 A088     		ldrh	r0, [r4, #4]
 1358 00e8 0988     		ldrh	r1, [r1]
 1359 00ea FFF7FEFF 		bl	__aeabi_uidiv
 1360              	.LVL24:
 1361 00ee 0A22     		mov	r2, #10
 1362 00f0 101A     		sub	r0, r2, r0
 494:.\fun.c       **** 	        KPercent=(10-(LvxinJishi[3]/KP_N));//R02寿命百分比
 1363              		.loc 1 494 0
 1364 00f2 924B     		ldr	r3, .L230+84
 493:.\fun.c       **** 	        JPercent=(10-(LvxinJishi[2]/JP_N));//R01寿命百分比
 1365              		.loc 1 493 0
 1366 00f4 2870     		strb	r0, [r5]
 1367              		.loc 1 494 0
 1368 00f6 E088     		ldrh	r0, [r4, #6]
 1369 00f8 1988     		ldrh	r1, [r3]
 1370 00fa FFF7FEFF 		bl	__aeabi_uidiv
 1371              	.LVL25:
 1372 00fe 0A21     		mov	r1, #10
 1373 0100 0A1A     		sub	r2, r1, r0
 1374 0102 8548     		ldr	r0, .L230+48
 495:.\fun.c       **** 	        LPercent=(10-(LvxinJishi[4]/LP_N));//R03寿命百分比
 1375              		.loc 1 495 0
 1376 0104 8E4B     		ldr	r3, .L230+88
 494:.\fun.c       **** 	        KPercent=(10-(LvxinJishi[3]/KP_N));//R02寿命百分比
 1377              		.loc 1 494 0
 1378 0106 0270     		strb	r2, [r0]
 1379              		.loc 1 495 0
 1380 0108 2089     		ldrh	r0, [r4, #8]
 1381 010a 1988     		ldrh	r1, [r3]
 1382 010c FFF7FEFF 		bl	__aeabi_uidiv
 1383              	.LVL26:
 1384 0110 0A21     		mov	r1, #10
 1385 0112 0A1A     		sub	r2, r1, r0
 1386 0114 8248     		ldr	r0, .L230+56
 1387 0116 0270     		strb	r2, [r0]
 496:.\fun.c       **** 	        MPercent=(10-(LvxinJishi[5]/MP_N));//载银寿命百分比
 1388              		.loc 1 496 0
 1389 0118 6089     		ldrh	r0, [r4, #10]
 1390 011a 8A4C     		ldr	r4, .L230+92
 1391 011c 2188     		ldrh	r1, [r4]
ARM GAS  C:\Users\ZHANGM~1\AppData\Local\Temp\cccEtK9g.s 			page 35


 1392 011e FFF7FEFF 		bl	__aeabi_uidiv
 1393              	.LVL27:
 1394 0122 0A23     		mov	r3, #10
 1395 0124 804A     		ldr	r2, .L230+64
 1396 0126 191A     		sub	r1, r3, r0
 1397 0128 1170     		strb	r1, [r2]
 1398              	.L193:
 497:.\fun.c       **** 	    }
 498:.\fun.c       ****     if(Sfig==0)
 1399              		.loc 1 498 0
 1400 012a 874C     		ldr	r4, .L230+96
 1401 012c 2278     		ldrb	r2, [r4]
 1402 012e 002A     		cmp	r2, #0
 1403 0130 07D1     		bne	.L194
 499:.\fun.c       ****     {   
 500:.\fun.c       ****         if(SPercent==2)
 1404              		.loc 1 500 0
 1405 0132 3978     		ldrb	r1, [r7]
 1406 0134 0229     		cmp	r1, #2
 1407 0136 1ED1     		bne	.L195
 501:.\fun.c       ****         {
 502:.\fun.c       ****             
 503:.\fun.c       ****             BUZfkg=3;
 1408              		.loc 1 503 0
 1409 0138 844A     		ldr	r2, .L230+100
 1410 013a 0323     		mov	r3, #3
 1411 013c 1370     		strb	r3, [r2]
 504:.\fun.c       ****             Sfig=1;
 1412              		.loc 1 504 0
 1413 013e 0123     		mov	r3, #1
 1414 0140 18E0     		b	.L224
 1415              	.L194:
 505:.\fun.c       ****         
 506:.\fun.c       ****         }
 507:.\fun.c       ****     }
 508:.\fun.c       ****     else if(Sfig==1)
 1416              		.loc 1 508 0
 1417 0142 012A     		cmp	r2, #1
 1418 0144 07D1     		bne	.L196
 509:.\fun.c       ****     {   
 510:.\fun.c       ****         if(SPercent==1)
 1419              		.loc 1 510 0
 1420 0146 3A78     		ldrb	r2, [r7]
 1421 0148 012A     		cmp	r2, #1
 1422 014a 14D1     		bne	.L195
 511:.\fun.c       ****         {
 512:.\fun.c       ****             BUZfkg=3;
 1423              		.loc 1 512 0
 1424 014c 7F48     		ldr	r0, .L230+100
 1425 014e 0323     		mov	r3, #3
 1426 0150 0370     		strb	r3, [r0]
 513:.\fun.c       ****             Sfig=2;
 1427              		.loc 1 513 0
 1428 0152 0223     		mov	r3, #2
 1429 0154 0EE0     		b	.L224
 1430              	.L196:
 514:.\fun.c       ****             
ARM GAS  C:\Users\ZHANGM~1\AppData\Local\Temp\cccEtK9g.s 			page 36


 515:.\fun.c       ****         }
 516:.\fun.c       ****          
 517:.\fun.c       ****     
 518:.\fun.c       ****     }
 519:.\fun.c       ****     else if(Sfig==2)
 1431              		.loc 1 519 0
 1432 0156 022A     		cmp	r2, #2
 1433 0158 0BD1     		bne	.L197
 520:.\fun.c       ****     {
 521:.\fun.c       ****        if(SPercent==0)
 1434              		.loc 1 521 0
 1435 015a 3978     		ldrb	r1, [r7]
 1436 015c 0029     		cmp	r1, #0
 1437 015e 0AD1     		bne	.L195
 522:.\fun.c       ****         {
 523:.\fun.c       ****             DisFlag.slvxinflash=1;
 1438              		.loc 1 523 0
 1439 0160 7B4A     		ldr	r2, .L230+104
 1440 0162 0120     		mov	r0, #1
 1441 0164 D378     		ldrb	r3, [r2, #3]
 524:.\fun.c       ****             BUZfkg=3;
 1442              		.loc 1 524 0
 1443 0166 7949     		ldr	r1, .L230+100
 523:.\fun.c       ****             DisFlag.slvxinflash=1;
 1444              		.loc 1 523 0
 1445 0168 0343     		orr	r3, r0
 1446 016a D370     		strb	r3, [r2, #3]
 1447              		.loc 1 524 0
 1448 016c 0323     		mov	r3, #3
 1449 016e 0B70     		strb	r3, [r1]
 1450 0170 00E0     		b	.L224
 1451              	.L197:
 525:.\fun.c       ****             Sfig=3;
 526:.\fun.c       ****         } 
 527:.\fun.c       ****        
 528:.\fun.c       ****     }
 529:.\fun.c       ****     else
 530:.\fun.c       ****         Sfig=0;
 1452              		.loc 1 530 0
 1453 0172 0023     		mov	r3, #0
 1454              	.L224:
 1455 0174 2370     		strb	r3, [r4]
 1456              	.L195:
 531:.\fun.c       ****     
 532:.\fun.c       ****     if(SPercent==10)
 1457              		.loc 1 532 0
 1458 0176 3F78     		ldrb	r7, [r7]
 1459 0178 0A2F     		cmp	r7, #10
 1460 017a 04D1     		bne	.L198
 533:.\fun.c       ****     {
 534:.\fun.c       ****         DisFlag.slvxinflash=0;
 1461              		.loc 1 534 0
 1462 017c 744C     		ldr	r4, .L230+104
 1463 017e 0121     		mov	r1, #1
 1464 0180 E078     		ldrb	r0, [r4, #3]
 1465 0182 8843     		bic	r0, r1
 1466 0184 E070     		strb	r0, [r4, #3]
ARM GAS  C:\Users\ZHANGM~1\AppData\Local\Temp\cccEtK9g.s 			page 37


 1467              	.L198:
 535:.\fun.c       ****        
 536:.\fun.c       ****     }
 537:.\fun.c       ****     
 538:.\fun.c       ****     
 539:.\fun.c       ****     
 540:.\fun.c       ****     if(Hfig==0)
 1468              		.loc 1 540 0
 1469 0186 734B     		ldr	r3, .L230+108
 1470 0188 1A78     		ldrb	r2, [r3]
 1471 018a 002A     		cmp	r2, #0
 1472 018c 07D1     		bne	.L199
 541:.\fun.c       ****     {   
 542:.\fun.c       ****         if(HPercent==2)
 1473              		.loc 1 542 0
 1474 018e 3078     		ldrb	r0, [r6]
 1475 0190 0228     		cmp	r0, #2
 1476 0192 1ED1     		bne	.L200
 543:.\fun.c       ****         {
 544:.\fun.c       ****             
 545:.\fun.c       ****             BUZfkg=3;
 1477              		.loc 1 545 0
 1478 0194 6D4A     		ldr	r2, .L230+100
 1479 0196 0327     		mov	r7, #3
 1480 0198 1770     		strb	r7, [r2]
 546:.\fun.c       ****             Hfig=1;
 1481              		.loc 1 546 0
 1482 019a 0127     		mov	r7, #1
 1483 019c 18E0     		b	.L225
 1484              	.L199:
 547:.\fun.c       ****         
 548:.\fun.c       ****         }
 549:.\fun.c       ****         
 550:.\fun.c       ****     }
 551:.\fun.c       ****     else if(Hfig==1)
 1485              		.loc 1 551 0
 1486 019e 012A     		cmp	r2, #1
 1487 01a0 07D1     		bne	.L201
 552:.\fun.c       ****     {
 553:.\fun.c       ****         if(HPercent==1)
 1488              		.loc 1 553 0
 1489 01a2 3278     		ldrb	r2, [r6]
 1490 01a4 012A     		cmp	r2, #1
 1491 01a6 14D1     		bne	.L200
 554:.\fun.c       ****         {
 555:.\fun.c       ****             
 556:.\fun.c       ****             BUZfkg=3;
 1492              		.loc 1 556 0
 1493 01a8 6849     		ldr	r1, .L230+100
 1494 01aa 0324     		mov	r4, #3
 1495 01ac 0C70     		strb	r4, [r1]
 557:.\fun.c       ****             Hfig=2;
 1496              		.loc 1 557 0
 1497 01ae 0227     		mov	r7, #2
 1498 01b0 0EE0     		b	.L225
 1499              	.L201:
 558:.\fun.c       ****         
ARM GAS  C:\Users\ZHANGM~1\AppData\Local\Temp\cccEtK9g.s 			page 38


 559:.\fun.c       ****         }
 560:.\fun.c       ****     }   
 561:.\fun.c       ****     else if(Hfig==2)
 1500              		.loc 1 561 0
 1501 01b2 022A     		cmp	r2, #2
 1502 01b4 0BD1     		bne	.L202
 562:.\fun.c       ****     {
 563:.\fun.c       ****         if(HPercent==0)
 1503              		.loc 1 563 0
 1504 01b6 3478     		ldrb	r4, [r6]
 1505 01b8 002C     		cmp	r4, #0
 1506 01ba 0AD1     		bne	.L200
 564:.\fun.c       ****         {
 565:.\fun.c       ****             
 566:.\fun.c       ****             BUZfkg=3;
 1507              		.loc 1 566 0
 1508 01bc 0321     		mov	r1, #3
 1509 01be 6348     		ldr	r0, .L230+100
 567:.\fun.c       ****             Hfig=3;
 1510              		.loc 1 567 0
 1511 01c0 1970     		strb	r1, [r3]
 568:.\fun.c       ****             DisFlag.hlvxinflash=1;
 1512              		.loc 1 568 0
 1513 01c2 634B     		ldr	r3, .L230+104
 566:.\fun.c       ****             BUZfkg=3;
 1514              		.loc 1 566 0
 1515 01c4 0170     		strb	r1, [r0]
 1516              		.loc 1 568 0
 1517 01c6 DF78     		ldrb	r7, [r3, #3]
 1518 01c8 3A43     		orr	r2, r7
 1519 01ca DA70     		strb	r2, [r3, #3]
 1520 01cc 01E0     		b	.L200
 1521              	.L202:
 569:.\fun.c       ****         
 570:.\fun.c       ****         }
 571:.\fun.c       ****     
 572:.\fun.c       ****     
 573:.\fun.c       ****     }
 574:.\fun.c       ****     else
 575:.\fun.c       ****          Hfig=0;
 1522              		.loc 1 575 0
 1523 01ce 0027     		mov	r7, #0
 1524              	.L225:
 1525 01d0 1F70     		strb	r7, [r3]
 1526              	.L200:
 576:.\fun.c       ****     if(HPercent==10)
 1527              		.loc 1 576 0
 1528 01d2 3678     		ldrb	r6, [r6]
 1529 01d4 0A2E     		cmp	r6, #10
 1530 01d6 04D1     		bne	.L203
 577:.\fun.c       ****         DisFlag.hlvxinflash=0;
 1531              		.loc 1 577 0
 1532 01d8 5D4B     		ldr	r3, .L230+104
 1533 01da 0221     		mov	r1, #2
 1534 01dc DC78     		ldrb	r4, [r3, #3]
 1535 01de 8C43     		bic	r4, r1
 1536 01e0 DC70     		strb	r4, [r3, #3]
ARM GAS  C:\Users\ZHANGM~1\AppData\Local\Temp\cccEtK9g.s 			page 39


 1537              	.L203:
 578:.\fun.c       ****     
 579:.\fun.c       ****     
 580:.\fun.c       ****     
 581:.\fun.c       ****     
 582:.\fun.c       ****     if(Jfig==0)
 1538              		.loc 1 582 0
 1539 01e2 5D4F     		ldr	r7, .L230+112
 1540 01e4 3878     		ldrb	r0, [r7]
 1541 01e6 0028     		cmp	r0, #0
 1542 01e8 07D1     		bne	.L204
 583:.\fun.c       ****     {   
 584:.\fun.c       ****         if(JPercent==2)
 1543              		.loc 1 584 0
 1544 01ea 2C78     		ldrb	r4, [r5]
 1545 01ec 022C     		cmp	r4, #2
 1546 01ee 1ED1     		bne	.L205
 585:.\fun.c       ****         {
 586:.\fun.c       ****             
 587:.\fun.c       ****             BUZfkg=3;
 1547              		.loc 1 587 0
 1548 01f0 5648     		ldr	r0, .L230+100
 1549 01f2 0321     		mov	r1, #3
 1550 01f4 0170     		strb	r1, [r0]
 588:.\fun.c       ****             Jfig=1;
 1551              		.loc 1 588 0
 1552 01f6 0122     		mov	r2, #1
 1553 01f8 18E0     		b	.L226
 1554              	.L204:
 589:.\fun.c       ****         
 590:.\fun.c       ****         }
 591:.\fun.c       ****         
 592:.\fun.c       ****     }
 593:.\fun.c       ****     else if(Jfig==1)
 1555              		.loc 1 593 0
 1556 01fa 0128     		cmp	r0, #1
 1557 01fc 07D1     		bne	.L206
 594:.\fun.c       ****     {
 595:.\fun.c       ****         if(JPercent==1)
 1558              		.loc 1 595 0
 1559 01fe 2A78     		ldrb	r2, [r5]
 1560 0200 012A     		cmp	r2, #1
 1561 0202 14D1     		bne	.L205
 596:.\fun.c       ****         {
 597:.\fun.c       ****             
 598:.\fun.c       ****             BUZfkg=3;
 1562              		.loc 1 598 0
 1563 0204 514B     		ldr	r3, .L230+100
 1564 0206 0326     		mov	r6, #3
 1565 0208 1E70     		strb	r6, [r3]
 599:.\fun.c       ****             Jfig=2;
 1566              		.loc 1 599 0
 1567 020a 0222     		mov	r2, #2
 1568 020c 0EE0     		b	.L226
 1569              	.L206:
 600:.\fun.c       ****         
 601:.\fun.c       ****         }
ARM GAS  C:\Users\ZHANGM~1\AppData\Local\Temp\cccEtK9g.s 			page 40


 602:.\fun.c       ****     }
 603:.\fun.c       ****     else if( Jfig==2)
 1570              		.loc 1 603 0
 1571 020e 0228     		cmp	r0, #2
 1572 0210 0BD1     		bne	.L207
 604:.\fun.c       ****     {
 605:.\fun.c       ****         if(JPercent==0)
 1573              		.loc 1 605 0
 1574 0212 2E78     		ldrb	r6, [r5]
 1575 0214 002E     		cmp	r6, #0
 1576 0216 0AD1     		bne	.L205
 606:.\fun.c       ****         {
 607:.\fun.c       ****             DisFlag.jlvxinflash=1;
 1577              		.loc 1 607 0
 1578 0218 4D4B     		ldr	r3, .L230+104
 1579 021a 0421     		mov	r1, #4
 1580 021c DC78     		ldrb	r4, [r3, #3]
 608:.\fun.c       ****             BUZfkg=3;
 1581              		.loc 1 608 0
 1582 021e 4B48     		ldr	r0, .L230+100
 607:.\fun.c       ****             DisFlag.jlvxinflash=1;
 1583              		.loc 1 607 0
 1584 0220 0C43     		orr	r4, r1
 1585              		.loc 1 608 0
 1586 0222 0322     		mov	r2, #3
 607:.\fun.c       ****             DisFlag.jlvxinflash=1;
 1587              		.loc 1 607 0
 1588 0224 DC70     		strb	r4, [r3, #3]
 1589              		.loc 1 608 0
 1590 0226 0270     		strb	r2, [r0]
 1591 0228 00E0     		b	.L226
 1592              	.L207:
 609:.\fun.c       ****             Jfig=3;
 610:.\fun.c       ****         
 611:.\fun.c       ****         }
 612:.\fun.c       ****     }
 613:.\fun.c       ****     else
 614:.\fun.c       ****          Jfig=0;
 1593              		.loc 1 614 0
 1594 022a 0022     		mov	r2, #0
 1595              	.L226:
 1596 022c 3A70     		strb	r2, [r7]
 1597              	.L205:
 615:.\fun.c       ****     if(JPercent==10)
 1598              		.loc 1 615 0
 1599 022e 2D78     		ldrb	r5, [r5]
 1600 0230 0A2D     		cmp	r5, #10
 1601 0232 04D1     		bne	.L208
 616:.\fun.c       ****         DisFlag.jlvxinflash=0;
 1602              		.loc 1 616 0
 1603 0234 464F     		ldr	r7, .L230+104
 1604 0236 0426     		mov	r6, #4
 1605 0238 FA78     		ldrb	r2, [r7, #3]
 1606 023a B243     		bic	r2, r6
 1607 023c FA70     		strb	r2, [r7, #3]
 1608              	.L208:
 617:.\fun.c       ****     
ARM GAS  C:\Users\ZHANGM~1\AppData\Local\Temp\cccEtK9g.s 			page 41


 618:.\fun.c       ****     
 619:.\fun.c       ****     
 620:.\fun.c       ****     
 621:.\fun.c       ****     if(Kfig==0)
 1609              		.loc 1 621 0
 1610 023e 474B     		ldr	r3, .L230+116
 1611 0240 354D     		ldr	r5, .L230+48
 1612 0242 1C78     		ldrb	r4, [r3]
 1613 0244 002C     		cmp	r4, #0
 1614 0246 07D1     		bne	.L209
 622:.\fun.c       ****     {   
 623:.\fun.c       ****         if(KPercent==2)
 1615              		.loc 1 623 0
 1616 0248 2A78     		ldrb	r2, [r5]
 1617 024a 022A     		cmp	r2, #2
 1618 024c 1ED1     		bne	.L210
 624:.\fun.c       ****         {
 625:.\fun.c       ****             
 626:.\fun.c       ****             BUZfkg=3;
 1619              		.loc 1 626 0
 1620 024e 3F4C     		ldr	r4, .L230+100
 1621 0250 0326     		mov	r6, #3
 1622 0252 2670     		strb	r6, [r4]
 627:.\fun.c       ****             Kfig=1;
 1623              		.loc 1 627 0
 1624 0254 0121     		mov	r1, #1
 1625 0256 18E0     		b	.L227
 1626              	.L209:
 628:.\fun.c       ****         }
 629:.\fun.c       ****         
 630:.\fun.c       ****     }
 631:.\fun.c       ****     else if(Kfig==1)
 1627              		.loc 1 631 0
 1628 0258 012C     		cmp	r4, #1
 1629 025a 07D1     		bne	.L211
 632:.\fun.c       ****     {
 633:.\fun.c       ****         if(KPercent==1)
 1630              		.loc 1 633 0
 1631 025c 2978     		ldrb	r1, [r5]
 1632 025e 0129     		cmp	r1, #1
 1633 0260 14D1     		bne	.L210
 634:.\fun.c       ****         {
 635:.\fun.c       ****             
 636:.\fun.c       ****             BUZfkg=3;
 1634              		.loc 1 636 0
 1635 0262 3A4F     		ldr	r7, .L230+100
 1636 0264 0320     		mov	r0, #3
 1637 0266 3870     		strb	r0, [r7]
 637:.\fun.c       ****             Kfig=2;
 1638              		.loc 1 637 0
 1639 0268 0221     		mov	r1, #2
 1640 026a 0EE0     		b	.L227
 1641              	.L211:
 638:.\fun.c       ****         }
 639:.\fun.c       ****     }
 640:.\fun.c       ****     else if(Kfig==2)
 1642              		.loc 1 640 0
ARM GAS  C:\Users\ZHANGM~1\AppData\Local\Temp\cccEtK9g.s 			page 42


 1643 026c 022C     		cmp	r4, #2
 1644 026e 0BD1     		bne	.L212
 641:.\fun.c       ****     {
 642:.\fun.c       ****        if(KPercent==0)
 1645              		.loc 1 642 0
 1646 0270 2878     		ldrb	r0, [r5]
 1647 0272 0028     		cmp	r0, #0
 1648 0274 0AD1     		bne	.L210
 643:.\fun.c       ****         {
 644:.\fun.c       ****             DisFlag.klvxinflash=1;
 1649              		.loc 1 644 0
 1650 0276 364F     		ldr	r7, .L230+104
 1651 0278 0826     		mov	r6, #8
 1652 027a FA78     		ldrb	r2, [r7, #3]
 645:.\fun.c       ****             BUZfkg=3;
 1653              		.loc 1 645 0
 1654 027c 334C     		ldr	r4, .L230+100
 644:.\fun.c       ****             DisFlag.klvxinflash=1;
 1655              		.loc 1 644 0
 1656 027e 3243     		orr	r2, r6
 1657              		.loc 1 645 0
 1658 0280 0321     		mov	r1, #3
 644:.\fun.c       ****             DisFlag.klvxinflash=1;
 1659              		.loc 1 644 0
 1660 0282 FA70     		strb	r2, [r7, #3]
 1661              		.loc 1 645 0
 1662 0284 2170     		strb	r1, [r4]
 1663 0286 00E0     		b	.L227
 1664              	.L212:
 646:.\fun.c       ****             Kfig=3;
 647:.\fun.c       ****         } 
 648:.\fun.c       ****     }
 649:.\fun.c       ****     else
 650:.\fun.c       ****         Kfig=0;
 1665              		.loc 1 650 0
 1666 0288 0021     		mov	r1, #0
 1667              	.L227:
 1668 028a 1970     		strb	r1, [r3]
 1669              	.L210:
 651:.\fun.c       ****     if(KPercent==10)
 1670              		.loc 1 651 0
 1671 028c 2B78     		ldrb	r3, [r5]
 1672 028e 0A2B     		cmp	r3, #10
 1673 0290 04D1     		bne	.L213
 652:.\fun.c       ****         DisFlag.klvxinflash=0;
 1674              		.loc 1 652 0
 1675 0292 2F4D     		ldr	r5, .L230+104
 1676 0294 0821     		mov	r1, #8
 1677 0296 E878     		ldrb	r0, [r5, #3]
 1678 0298 8843     		bic	r0, r1
 1679 029a E870     		strb	r0, [r5, #3]
 1680              	.L213:
 653:.\fun.c       ****     
 654:.\fun.c       ****   
 655:.\fun.c       ****     
 656:.\fun.c       ****     
 657:.\fun.c       ****     if(Lfig==0)
ARM GAS  C:\Users\ZHANGM~1\AppData\Local\Temp\cccEtK9g.s 			page 43


 1681              		.loc 1 657 0
 1682 029c 304F     		ldr	r7, .L230+120
 1683 029e 204A     		ldr	r2, .L230+56
 1684 02a0 3E78     		ldrb	r6, [r7]
 1685 02a2 002E     		cmp	r6, #0
 1686 02a4 07D1     		bne	.L214
 658:.\fun.c       ****     {   
 659:.\fun.c       ****         if(LPercent==2)
 1687              		.loc 1 659 0
 1688 02a6 1078     		ldrb	r0, [r2]
 1689 02a8 0228     		cmp	r0, #2
 1690 02aa 5DD1     		bne	.L215
 660:.\fun.c       ****         {
 661:.\fun.c       ****             
 662:.\fun.c       ****             BUZfkg=3;
 1691              		.loc 1 662 0
 1692 02ac 2749     		ldr	r1, .L230+100
 1693 02ae 0326     		mov	r6, #3
 1694 02b0 0E70     		strb	r6, [r1]
 663:.\fun.c       ****             Lfig=1;
 1695              		.loc 1 663 0
 1696 02b2 0124     		mov	r4, #1
 1697 02b4 57E0     		b	.L228
 1698              	.L214:
 664:.\fun.c       ****         
 665:.\fun.c       ****         }
 666:.\fun.c       ****     }
 667:.\fun.c       ****     else if(Lfig==1)
 1699              		.loc 1 667 0
 1700 02b6 012E     		cmp	r6, #1
 1701 02b8 07D1     		bne	.L216
 668:.\fun.c       ****     {
 669:.\fun.c       ****         if(LPercent==1)
 1702              		.loc 1 669 0
 1703 02ba 1478     		ldrb	r4, [r2]
 1704 02bc 012C     		cmp	r4, #1
 1705 02be 53D1     		bne	.L215
 670:.\fun.c       ****         {
 671:.\fun.c       ****             
 672:.\fun.c       ****             BUZfkg=3;
 1706              		.loc 1 672 0
 1707 02c0 224D     		ldr	r5, .L230+100
 1708 02c2 0323     		mov	r3, #3
 1709 02c4 2B70     		strb	r3, [r5]
 673:.\fun.c       ****             Lfig=2;
 1710              		.loc 1 673 0
 1711 02c6 0224     		mov	r4, #2
 1712 02c8 4DE0     		b	.L228
 1713              	.L216:
 674:.\fun.c       ****         
 675:.\fun.c       ****         }
 676:.\fun.c       ****     
 677:.\fun.c       ****     }
 678:.\fun.c       ****     else if(Lfig==2)
 1714              		.loc 1 678 0
 1715 02ca 022E     		cmp	r6, #2
 1716 02cc 4AD1     		bne	.L217
ARM GAS  C:\Users\ZHANGM~1\AppData\Local\Temp\cccEtK9g.s 			page 44


 679:.\fun.c       ****     {
 680:.\fun.c       ****         if(LPercent==0)
 1717              		.loc 1 680 0
 1718 02ce 1378     		ldrb	r3, [r2]
 1719 02d0 002B     		cmp	r3, #0
 1720 02d2 49D1     		bne	.L215
 681:.\fun.c       ****         {
 682:.\fun.c       ****             DisFlag.llvxinflash=1; 
 1721              		.loc 1 682 0
 1722 02d4 1E4D     		ldr	r5, .L230+104
 1723 02d6 1021     		mov	r1, #16
 1724 02d8 E878     		ldrb	r0, [r5, #3]
 683:.\fun.c       ****             BUZfkg=3;
 1725              		.loc 1 683 0
 1726 02da 1C4E     		ldr	r6, .L230+100
 682:.\fun.c       ****             DisFlag.llvxinflash=1; 
 1727              		.loc 1 682 0
 1728 02dc 0843     		orr	r0, r1
 1729              		.loc 1 683 0
 1730 02de 0324     		mov	r4, #3
 682:.\fun.c       ****             DisFlag.llvxinflash=1; 
 1731              		.loc 1 682 0
 1732 02e0 E870     		strb	r0, [r5, #3]
 1733              		.loc 1 683 0
 1734 02e2 3470     		strb	r4, [r6]
 1735 02e4 3FE0     		b	.L228
 1736              	.L231:
 1737 02e6 C046     		.align	2
 1738              	.L230:
 1739 02e8 00000000 		.word	NBfig
 1740 02ec 00000000 		.word	LvxinJishi
 1741 02f0 00000000 		.word	SPercent
 1742 02f4 00000000 		.word	HPercent
 1743 02f8 00000000 		.word	JPercent
 1744 02fc 4F0A0000 		.word	2639
 1745 0300 00000000 		.word	SP
 1746 0304 BF0D0000 		.word	3519
 1747 0308 00000000 		.word	HP
 1748 030c CF5C0000 		.word	23759
 1749 0310 00000000 		.word	JP
 1750 0314 00000000 		.word	KP
 1751 0318 00000000 		.word	KPercent
 1752 031c 00000000 		.word	LP
 1753 0320 00000000 		.word	LPercent
 1754 0324 33170000 		.word	5939
 1755 0328 00000000 		.word	MPercent
 1756 032c 00000000 		.word	MP
 1757 0330 00000000 		.word	SP_N
 1758 0334 00000000 		.word	HP_N
 1759 0338 00000000 		.word	JP_N
 1760 033c 00000000 		.word	KP_N
 1761 0340 00000000 		.word	LP_N
 1762 0344 00000000 		.word	MP_N
 1763 0348 00000000 		.word	Sfig
 1764 034c 00000000 		.word	BUZfkg
 1765 0350 00000000 		.word	DisFlag
 1766 0354 00000000 		.word	Hfig
ARM GAS  C:\Users\ZHANGM~1\AppData\Local\Temp\cccEtK9g.s 			page 45


 1767 0358 00000000 		.word	Jfig
 1768 035c 00000000 		.word	Kfig
 1769 0360 00000000 		.word	Lfig
 1770              	.L217:
 684:.\fun.c       ****             Lfig=3;
 685:.\fun.c       ****         
 686:.\fun.c       ****         }
 687:.\fun.c       ****     
 688:.\fun.c       ****     }
 689:.\fun.c       ****     else
 690:.\fun.c       ****         Lfig=0;
 1771              		.loc 1 690 0
 1772 0364 0024     		mov	r4, #0
 1773              	.L228:
 1774 0366 3C70     		strb	r4, [r7]
 1775              	.L215:
 691:.\fun.c       ****     
 692:.\fun.c       ****     if(LPercent==10)
 1776              		.loc 1 692 0
 1777 0368 1778     		ldrb	r7, [r2]
 1778 036a 0A2F     		cmp	r7, #10
 1779 036c 04D1     		bne	.L218
 693:.\fun.c       ****         DisFlag.llvxinflash=0;
 1780              		.loc 1 693 0
 1781 036e 1A4C     		ldr	r4, .L232
 1782 0370 1023     		mov	r3, #16
 1783 0372 E278     		ldrb	r2, [r4, #3]
 1784 0374 9A43     		bic	r2, r3
 1785 0376 E270     		strb	r2, [r4, #3]
 1786              	.L218:
 694:.\fun.c       ****     
 695:.\fun.c       ****     
 696:.\fun.c       ****     
 697:.\fun.c       ****     
 698:.\fun.c       ****     if(Mfig==0)
 1787              		.loc 1 698 0
 1788 0378 184D     		ldr	r5, .L232+4
 1789 037a 194E     		ldr	r6, .L232+8
 1790 037c 2878     		ldrb	r0, [r5]
 1791 037e 0028     		cmp	r0, #0
 1792 0380 07D1     		bne	.L219
 699:.\fun.c       ****     {   
 700:.\fun.c       ****         if(MPercent==2)
 1793              		.loc 1 700 0
 1794 0382 3378     		ldrb	r3, [r6]
 1795 0384 022B     		cmp	r3, #2
 1796 0386 1ED1     		bne	.L220
 701:.\fun.c       ****         {
 702:.\fun.c       ****             
 703:.\fun.c       ****             BUZfkg=3;
 1797              		.loc 1 703 0
 1798 0388 1648     		ldr	r0, .L232+12
 1799 038a 0324     		mov	r4, #3
 1800 038c 0470     		strb	r4, [r0]
 704:.\fun.c       ****             Mfig=1;
 1801              		.loc 1 704 0
 1802 038e 0121     		mov	r1, #1
ARM GAS  C:\Users\ZHANGM~1\AppData\Local\Temp\cccEtK9g.s 			page 46


 1803 0390 18E0     		b	.L229
 1804              	.L219:
 705:.\fun.c       ****         
 706:.\fun.c       ****         }
 707:.\fun.c       ****         
 708:.\fun.c       ****     }
 709:.\fun.c       ****     else if(Mfig==1)
 1805              		.loc 1 709 0
 1806 0392 0128     		cmp	r0, #1
 1807 0394 07D1     		bne	.L221
 710:.\fun.c       ****     {
 711:.\fun.c       ****         if(MPercent==1)
 1808              		.loc 1 711 0
 1809 0396 3178     		ldrb	r1, [r6]
 1810 0398 0129     		cmp	r1, #1
 1811 039a 14D1     		bne	.L220
 712:.\fun.c       ****         {
 713:.\fun.c       ****             
 714:.\fun.c       ****             BUZfkg=3;
 1812              		.loc 1 714 0
 1813 039c 114A     		ldr	r2, .L232+12
 1814 039e 0327     		mov	r7, #3
 1815 03a0 1770     		strb	r7, [r2]
 715:.\fun.c       ****             Mfig=2;
 1816              		.loc 1 715 0
 1817 03a2 0221     		mov	r1, #2
 1818 03a4 0EE0     		b	.L229
 1819              	.L221:
 716:.\fun.c       ****         }
 717:.\fun.c       ****     }
 718:.\fun.c       ****     else if(Mfig==2)
 1820              		.loc 1 718 0
 1821 03a6 0228     		cmp	r0, #2
 1822 03a8 0BD1     		bne	.L222
 719:.\fun.c       ****     {
 720:.\fun.c       ****         if(MPercent==0)
 1823              		.loc 1 720 0
 1824 03aa 3778     		ldrb	r7, [r6]
 1825 03ac 002F     		cmp	r7, #0
 1826 03ae 0AD1     		bne	.L220
 721:.\fun.c       ****         {
 722:.\fun.c       ****             DisFlag.mlvxinflash=1;
 1827              		.loc 1 722 0
 1828 03b0 094A     		ldr	r2, .L232
 1829 03b2 2024     		mov	r4, #32
 1830 03b4 D378     		ldrb	r3, [r2, #3]
 723:.\fun.c       ****             BUZfkg=3;
 1831              		.loc 1 723 0
 1832 03b6 0B48     		ldr	r0, .L232+12
 722:.\fun.c       ****             DisFlag.mlvxinflash=1;
 1833              		.loc 1 722 0
 1834 03b8 2343     		orr	r3, r4
 1835              		.loc 1 723 0
 1836 03ba 0321     		mov	r1, #3
 722:.\fun.c       ****             DisFlag.mlvxinflash=1;
 1837              		.loc 1 722 0
 1838 03bc D370     		strb	r3, [r2, #3]
ARM GAS  C:\Users\ZHANGM~1\AppData\Local\Temp\cccEtK9g.s 			page 47


 1839              		.loc 1 723 0
 1840 03be 0170     		strb	r1, [r0]
 1841 03c0 00E0     		b	.L229
 1842              	.L222:
 724:.\fun.c       ****             Mfig=3;
 725:.\fun.c       ****         }
 726:.\fun.c       ****     }
 727:.\fun.c       ****     else 
 728:.\fun.c       ****         Mfig=0;
 1843              		.loc 1 728 0
 1844 03c2 0021     		mov	r1, #0
 1845              	.L229:
 1846 03c4 2970     		strb	r1, [r5]
 1847              	.L220:
 729:.\fun.c       ****     
 730:.\fun.c       ****     if(MPercent==10)
 1848              		.loc 1 730 0
 1849 03c6 3578     		ldrb	r5, [r6]
 1850 03c8 0A2D     		cmp	r5, #10
 1851 03ca 04D1     		bne	.L180
 731:.\fun.c       ****         DisFlag.mlvxinflash=0;  
 1852              		.loc 1 731 0
 1853 03cc 024E     		ldr	r6, .L232
 1854 03ce 2021     		mov	r1, #32
 1855 03d0 F778     		ldrb	r7, [r6, #3]
 1856 03d2 8F43     		bic	r7, r1
 1857 03d4 F770     		strb	r7, [r6, #3]
 1858              	.L180:
 732:.\fun.c       **** }
 1859              		.loc 1 732 0
 1860              		@ sp needed for prologue
 1861 03d6 F8BD     		pop	{r3, r4, r5, r6, r7, pc}
 1862              	.L233:
 1863              		.align	2
 1864              	.L232:
 1865 03d8 00000000 		.word	DisFlag
 1866 03dc 00000000 		.word	Mfig
 1867 03e0 00000000 		.word	MPercent
 1868 03e4 00000000 		.word	BUZfkg
 1869              		.cfi_endproc
 1870              	.LFE37:
 1871              		.size	LXPercent, .-LXPercent
 1872              		.section	.text.lvxin_panduan,"ax",%progbits
 1873              		.align	1
 1874              		.global	lvxin_panduan
 1875              		.code	16
 1876              		.thumb_func
 1877              		.type	lvxin_panduan, %function
 1878              	lvxin_panduan:
 1879              	.LFB36:
 423:.\fun.c       **** {
 1880              		.loc 1 423 0
 1881              		.cfi_startproc
 1882 0000 08B5     		push	{r3, lr}
 1883              	.LCFI4:
 1884              		.cfi_def_cfa_offset 8
 1885              		.cfi_offset 3, -8
ARM GAS  C:\Users\ZHANGM~1\AppData\Local\Temp\cccEtK9g.s 			page 48


 1886              		.cfi_offset 14, -4
 424:.\fun.c       ****     LXPercent();
 1887              		.loc 1 424 0
 1888 0002 FFF7FEFF 		bl	LXPercent
 1889              	.LVL28:
 425:.\fun.c       ****     if(SPercent==1)
 1890              		.loc 1 425 0
 1891 0006 244B     		ldr	r3, .L247
 1892 0008 1878     		ldrb	r0, [r3]
 1893 000a 0128     		cmp	r0, #1
 1894 000c 02D1     		bne	.L235
 426:.\fun.c       ****         Sfig=1;
 1895              		.loc 1 426 0
 1896 000e 234B     		ldr	r3, .L247+4
 1897 0010 1870     		strb	r0, [r3]
 1898 0012 04E0     		b	.L236
 1899              	.L235:
 427:.\fun.c       ****     else if(SPercent==0)
 1900              		.loc 1 427 0
 1901 0014 0028     		cmp	r0, #0
 1902 0016 02D1     		bne	.L236
 428:.\fun.c       ****         Sfig=2;
 1903              		.loc 1 428 0
 1904 0018 2049     		ldr	r1, .L247+4
 1905 001a 0222     		mov	r2, #2
 1906 001c 0A70     		strb	r2, [r1]
 1907              	.L236:
 430:.\fun.c       ****     if(HPercent==1)
 1908              		.loc 1 430 0
 1909 001e 2048     		ldr	r0, .L247+8
 1910 0020 0178     		ldrb	r1, [r0]
 1911 0022 0129     		cmp	r1, #1
 1912 0024 02D1     		bne	.L237
 431:.\fun.c       ****         Hfig=1;
 1913              		.loc 1 431 0
 1914 0026 1F48     		ldr	r0, .L247+12
 1915 0028 0170     		strb	r1, [r0]
 1916 002a 04E0     		b	.L238
 1917              	.L237:
 432:.\fun.c       ****     else if(HPercent==0)
 1918              		.loc 1 432 0
 1919 002c 0029     		cmp	r1, #0
 1920 002e 02D1     		bne	.L238
 433:.\fun.c       ****         Hfig=2;
 1921              		.loc 1 433 0
 1922 0030 1C4B     		ldr	r3, .L247+12
 1923 0032 0222     		mov	r2, #2
 1924 0034 1A70     		strb	r2, [r3]
 1925              	.L238:
 435:.\fun.c       ****     if(JPercent==1)
 1926              		.loc 1 435 0
 1927 0036 1C49     		ldr	r1, .L247+16
 1928 0038 0B78     		ldrb	r3, [r1]
 1929 003a 012B     		cmp	r3, #1
 1930 003c 02D1     		bne	.L239
 436:.\fun.c       ****         Jfig=1;
 1931              		.loc 1 436 0
ARM GAS  C:\Users\ZHANGM~1\AppData\Local\Temp\cccEtK9g.s 			page 49


 1932 003e 1B49     		ldr	r1, .L247+20
 1933 0040 0B70     		strb	r3, [r1]
 1934 0042 04E0     		b	.L240
 1935              	.L239:
 437:.\fun.c       ****     else if(JPercent==0)
 1936              		.loc 1 437 0
 1937 0044 002B     		cmp	r3, #0
 1938 0046 02D1     		bne	.L240
 438:.\fun.c       ****         Jfig=2;
 1939              		.loc 1 438 0
 1940 0048 1848     		ldr	r0, .L247+20
 1941 004a 0222     		mov	r2, #2
 1942 004c 0270     		strb	r2, [r0]
 1943              	.L240:
 440:.\fun.c       ****     if(KPercent==1)
 1944              		.loc 1 440 0
 1945 004e 184B     		ldr	r3, .L247+24
 1946 0050 1878     		ldrb	r0, [r3]
 1947 0052 0128     		cmp	r0, #1
 1948 0054 02D1     		bne	.L241
 441:.\fun.c       ****         Kfig=1;
 1949              		.loc 1 441 0
 1950 0056 174B     		ldr	r3, .L247+28
 1951 0058 1870     		strb	r0, [r3]
 1952 005a 04E0     		b	.L242
 1953              	.L241:
 442:.\fun.c       ****     else if(KPercent==0)
 1954              		.loc 1 442 0
 1955 005c 0028     		cmp	r0, #0
 1956 005e 02D1     		bne	.L242
 443:.\fun.c       ****         Kfig=2;
 1957              		.loc 1 443 0
 1958 0060 1449     		ldr	r1, .L247+28
 1959 0062 0222     		mov	r2, #2
 1960 0064 0A70     		strb	r2, [r1]
 1961              	.L242:
 445:.\fun.c       ****     if(LPercent==1)
 1962              		.loc 1 445 0
 1963 0066 1448     		ldr	r0, .L247+32
 1964 0068 0178     		ldrb	r1, [r0]
 1965 006a 0129     		cmp	r1, #1
 1966 006c 02D1     		bne	.L243
 446:.\fun.c       ****         Lfig=1;
 1967              		.loc 1 446 0
 1968 006e 1348     		ldr	r0, .L247+36
 1969 0070 0170     		strb	r1, [r0]
 1970 0072 04E0     		b	.L244
 1971              	.L243:
 447:.\fun.c       ****     else if(LPercent==0)
 1972              		.loc 1 447 0
 1973 0074 0029     		cmp	r1, #0
 1974 0076 02D1     		bne	.L244
 448:.\fun.c       ****         Lfig=2;
 1975              		.loc 1 448 0
 1976 0078 104B     		ldr	r3, .L247+36
 1977 007a 0222     		mov	r2, #2
 1978 007c 1A70     		strb	r2, [r3]
ARM GAS  C:\Users\ZHANGM~1\AppData\Local\Temp\cccEtK9g.s 			page 50


 1979              	.L244:
 450:.\fun.c       ****     if(MPercent==1)
 1980              		.loc 1 450 0
 1981 007e 1049     		ldr	r1, .L247+40
 1982 0080 0B78     		ldrb	r3, [r1]
 1983 0082 012B     		cmp	r3, #1
 1984 0084 02D1     		bne	.L245
 451:.\fun.c       ****         Mfig=1;
 1985              		.loc 1 451 0
 1986 0086 0F49     		ldr	r1, .L247+44
 1987 0088 0B70     		strb	r3, [r1]
 1988 008a 04E0     		b	.L234
 1989              	.L245:
 452:.\fun.c       ****     else if(MPercent==0)
 1990              		.loc 1 452 0
 1991 008c 002B     		cmp	r3, #0
 1992 008e 02D1     		bne	.L234
 453:.\fun.c       ****         Mfig=2;
 1993              		.loc 1 453 0
 1994 0090 0C48     		ldr	r0, .L247+44
 1995 0092 0222     		mov	r2, #2
 1996 0094 0270     		strb	r2, [r0]
 1997              	.L234:
 455:.\fun.c       **** }
 1998              		.loc 1 455 0
 1999              		@ sp needed for prologue
 2000 0096 08BD     		pop	{r3, pc}
 2001              	.L248:
 2002              		.align	2
 2003              	.L247:
 2004 0098 00000000 		.word	SPercent
 2005 009c 00000000 		.word	Sfig
 2006 00a0 00000000 		.word	HPercent
 2007 00a4 00000000 		.word	Hfig
 2008 00a8 00000000 		.word	JPercent
 2009 00ac 00000000 		.word	Jfig
 2010 00b0 00000000 		.word	KPercent
 2011 00b4 00000000 		.word	Kfig
 2012 00b8 00000000 		.word	LPercent
 2013 00bc 00000000 		.word	Lfig
 2014 00c0 00000000 		.word	MPercent
 2015 00c4 00000000 		.word	Mfig
 2016              		.cfi_endproc
 2017              	.LFE36:
 2018              		.size	lvxin_panduan, .-lvxin_panduan
 2019              		.section	.text.error_alm,"ax",%progbits
 2020              		.align	1
 2021              		.global	error_alm
 2022              		.code	16
 2023              		.thumb_func
 2024              		.type	error_alm, %function
 2025              	error_alm:
 2026              	.LFB38:
 733:.\fun.c       **** 
 734:.\fun.c       **** void error_alm(void)//异常故障报警函数
 735:.\fun.c       **** {
 2027              		.loc 1 735 0
ARM GAS  C:\Users\ZHANGM~1\AppData\Local\Temp\cccEtK9g.s 			page 51


 2028              		.cfi_startproc
 2029 0000 38B5     		push	{r3, r4, r5, lr}
 2030              	.LCFI5:
 2031              		.cfi_def_cfa_offset 16
 2032              		.cfi_offset 3, -16
 2033              		.cfi_offset 4, -12
 2034              		.cfi_offset 5, -8
 2035              		.cfi_offset 14, -4
 736:.\fun.c       ****     
 737:.\fun.c       ****     if(K1_Read()==0)//在进水和冲洗阀不工作的时候检测排线脱落********************
 2036              		.loc 1 737 0
 2037 0002 FFF7FEFF 		bl	K1_Read
 2038              	.LVL29:
 2039 0006 294C     		ldr	r4, .L261
 2040 0008 0028     		cmp	r0, #0
 2041 000a 14D1     		bne	.L251
 738:.\fun.c       **** 		  {
 739:.\fun.c       **** 		      if(CX_Read()==1)//1时上电时CX端子脱落 
 2042              		.loc 1 739 0
 2043 000c FFF7FEFF 		bl	CX_Read
 2044              	.LVL30:
 2045 0010 0423     		mov	r3, #4
 740:.\fun.c       **** 			      {    
 741:.\fun.c       **** 			          Error_Data.bit.Error_02_flag=1;
 2046              		.loc 1 741 0
 2047 0012 2278     		ldrb	r2, [r4]
 739:.\fun.c       **** 		      if(CX_Read()==1)//1时上电时CX端子脱落 
 2048              		.loc 1 739 0
 2049 0014 0128     		cmp	r0, #1
 2050 0016 0CD1     		bne	.L252
 2051              		.loc 1 741 0
 2052 0018 1343     		orr	r3, r2
 742:.\fun.c       ****                     if(ErrorFlag.Error_01==0)
 2053              		.loc 1 742 0
 2054 001a 254D     		ldr	r5, .L261+4
 741:.\fun.c       **** 			          Error_Data.bit.Error_02_flag=1;
 2055              		.loc 1 741 0
 2056 001c 2370     		strb	r3, [r4]
 2057              		.loc 1 742 0
 2058 001e 2B78     		ldrb	r3, [r5]
 2059 0020 0221     		mov	r1, #2
 2060 0022 0B42     		tst	r3, r1
 2061 0024 07D1     		bne	.L251
 743:.\fun.c       ****                     {
 744:.\fun.c       ****                         ErrorFlag.Error_01=1;  
 2062              		.loc 1 744 0
 2063 0026 0B43     		orr	r3, r1
 2064 0028 2B70     		strb	r3, [r5]
 745:.\fun.c       **** 			            Load_Error(HOST_E1_DATA);
 2065              		.loc 1 745 0
 2066 002a 2248     		ldr	r0, .L261+8
 2067 002c FFF7FEFF 		bl	Load_Error
 2068              	.LVL31:
 2069 0030 01E0     		b	.L251
 2070              	.L252:
 746:.\fun.c       ****                      }
 747:.\fun.c       **** 			      }
ARM GAS  C:\Users\ZHANGM~1\AppData\Local\Temp\cccEtK9g.s 			page 52


 748:.\fun.c       **** 		      else
 749:.\fun.c       **** 		      	{
 750:.\fun.c       **** 			         Error_Data.bit.Error_02_flag=0;
 2071              		.loc 1 750 0
 2072 0032 9A43     		bic	r2, r3
 2073 0034 2270     		strb	r2, [r4]
 2074              	.L251:
 751:.\fun.c       **** 		     		}	  
 752:.\fun.c       **** 		  }    
 753:.\fun.c       ****     if(K2_Read()==0)
 2075              		.loc 1 753 0
 2076 0036 FFF7FEFF 		bl	K2_Read
 2077              	.LVL32:
 2078 003a 051E     		sub	r5, r0, #0
 2079 003c 1ED1     		bne	.L255
 754:.\fun.c       **** 	    {
 755:.\fun.c       **** 	    
 756:.\fun.c       **** 	      if(JS_Read()==1)//进水1端子没有脱落,debug 
 2080              		.loc 1 756 0
 2081 003e FFF7FEFF 		bl	JS_Read
 2082              	.LVL33:
 2083 0042 0128     		cmp	r0, #1
 2084 0044 04D1     		bne	.L256
 757:.\fun.c       **** 	      	{
 758:.\fun.c       **** 	          Error_Data.bit.Error_01_flag=0;
 2085              		.loc 1 758 0
 2086 0046 2578     		ldrb	r5, [r4]
 2087 0048 0220     		mov	r0, #2
 2088 004a 8543     		bic	r5, r0
 2089 004c 2570     		strb	r5, [r4]
 2090 004e 15E0     		b	.L255
 2091              	.L256:
 759:.\fun.c       **** 	  			} 
 760:.\fun.c       **** 	      else //上电的时候脱落              
 761:.\fun.c       **** 	        {
 762:.\fun.c       **** 	            jserrorcntfig=1;
 763:.\fun.c       **** 	           if(jserrorcnt>5)
 2092              		.loc 1 763 0
 2093 0050 194B     		ldr	r3, .L261+12
 762:.\fun.c       **** 	            jserrorcntfig=1;
 2094              		.loc 1 762 0
 2095 0052 1A48     		ldr	r0, .L261+16
 2096              		.loc 1 763 0
 2097 0054 1978     		ldrb	r1, [r3]
 762:.\fun.c       **** 	            jserrorcntfig=1;
 2098              		.loc 1 762 0
 2099 0056 0122     		mov	r2, #1
 2100 0058 0270     		strb	r2, [r0]
 2101              		.loc 1 763 0
 2102 005a 0529     		cmp	r1, #5
 2103 005c 0ED9     		bls	.L255
 764:.\fun.c       **** 	           {
 765:.\fun.c       **** 	              jserrorcntfig=0;
 2104              		.loc 1 765 0
 2105 005e 0570     		strb	r5, [r0]
 766:.\fun.c       **** 	            	Error_Data.bit.Error_01_flag=1;
 2106              		.loc 1 766 0
ARM GAS  C:\Users\ZHANGM~1\AppData\Local\Temp\cccEtK9g.s 			page 53


 2107 0060 2578     		ldrb	r5, [r4]
 2108 0062 0220     		mov	r0, #2
 2109 0064 0543     		orr	r5, r0
 767:.\fun.c       ****                   if(ErrorFlag.Error_02==0)
 2110              		.loc 1 767 0
 2111 0066 124B     		ldr	r3, .L261+4
 766:.\fun.c       **** 	            	Error_Data.bit.Error_01_flag=1;
 2112              		.loc 1 766 0
 2113 0068 2570     		strb	r5, [r4]
 2114              		.loc 1 767 0
 2115 006a 1A78     		ldrb	r2, [r3]
 2116 006c 0421     		mov	r1, #4
 2117 006e 0A42     		tst	r2, r1
 2118 0070 04D1     		bne	.L255
 768:.\fun.c       ****                     {
 769:.\fun.c       ****                         ErrorFlag.Error_02=1;
 2119              		.loc 1 769 0
 2120 0072 0A43     		orr	r2, r1
 2121 0074 1A70     		strb	r2, [r3]
 770:.\fun.c       ****                         Load_Error(HOST_E2_DATA);
 2122              		.loc 1 770 0
 2123 0076 1248     		ldr	r0, .L261+20
 2124 0078 FFF7FEFF 		bl	Load_Error
 2125              	.LVL34:
 2126              	.L255:
 771:.\fun.c       ****                     }
 772:.\fun.c       **** 	           }
 773:.\fun.c       **** 	        }         
 774:.\fun.c       **** 	    }
 775:.\fun.c       ****     if(Error_Data.bit.Error_02_flag==1||Error_Data.bit.Error_01_flag==1)//有故障则故障标志
 2127              		.loc 1 775 0
 2128 007c 2478     		ldrb	r4, [r4]
 2129 007e 0625     		mov	r5, #6
 2130 0080 0121     		mov	r1, #1
 2131 0082 104A     		ldr	r2, .L261+24
 2132 0084 104B     		ldr	r3, .L261+28
 2133 0086 2C42     		tst	r4, r5
 2134 0088 07D0     		beq	.L258
 776:.\fun.c       **** 	    {   
 777:.\fun.c       **** 	        WorkFlag.error=1;
 2135              		.loc 1 777 0
 2136 008a 1578     		ldrb	r5, [r2]
 778:.\fun.c       **** 	        DisFlag.errorsignflash=1;//故障指示灯闪烁
 2137              		.loc 1 778 0
 2138 008c 8024     		mov	r4, #128
 777:.\fun.c       **** 	        WorkFlag.error=1;
 2139              		.loc 1 777 0
 2140 008e 2943     		orr	r1, r5
 2141 0090 1170     		strb	r1, [r2]
 2142              		.loc 1 778 0
 2143 0092 9878     		ldrb	r0, [r3, #2]
 2144 0094 6242     		neg	r2, r4
 2145 0096 0243     		orr	r2, r0
 2146 0098 05E0     		b	.L260
 2147              	.L258:
 779:.\fun.c       **** 	    }    
 780:.\fun.c       ****     else
ARM GAS  C:\Users\ZHANGM~1\AppData\Local\Temp\cccEtK9g.s 			page 54


 781:.\fun.c       **** 	    {
 782:.\fun.c       **** 	       WorkFlag.error=0;  
 2148              		.loc 1 782 0
 2149 009a 1078     		ldrb	r0, [r2]
 2150 009c 8843     		bic	r0, r1
 2151 009e 1070     		strb	r0, [r2]
 783:.\fun.c       **** 	       DisFlag.errorsignflash=0;
 2152              		.loc 1 783 0
 2153 00a0 9978     		ldrb	r1, [r3, #2]
 2154 00a2 7F22     		mov	r2, #127
 2155 00a4 0A40     		and	r2, r1
 2156              	.L260:
 2157 00a6 9A70     		strb	r2, [r3, #2]
 784:.\fun.c       **** 	    }   
 785:.\fun.c       **** }      
 2158              		.loc 1 785 0
 2159              		@ sp needed for prologue
 2160 00a8 38BD     		pop	{r3, r4, r5, pc}
 2161              	.L262:
 2162 00aa C046     		.align	2
 2163              	.L261:
 2164 00ac 00000000 		.word	Error_Data
 2165 00b0 00000000 		.word	ErrorFlag
 2166 00b4 F1900000 		.word	37105
 2167 00b8 00000000 		.word	jserrorcnt
 2168 00bc 00000000 		.word	jserrorcntfig
 2169 00c0 F2900000 		.word	37106
 2170 00c4 00000000 		.word	WorkFlag
 2171 00c8 00000000 		.word	DisFlag
 2172              		.cfi_endproc
 2173              	.LFE38:
 2174              		.size	error_alm, .-error_alm
 2175              		.section	.text.queshui_alm,"ax",%progbits
 2176              		.align	1
 2177              		.global	queshui_alm
 2178              		.code	16
 2179              		.thumb_func
 2180              		.type	queshui_alm, %function
 2181              	queshui_alm:
 2182              	.LFB39:
 786:.\fun.c       ****     
 787:.\fun.c       **** void queshui_alm(void)
 788:.\fun.c       **** 
 789:.\fun.c       **** {
 2183              		.loc 1 789 0
 2184              		.cfi_startproc
 790:.\fun.c       **** 	if(LianXuJiShi>=TIMER2H)//连续工作超过120分钟报警 **************************************
 2185              		.loc 1 790 0
 2186 0000 584B     		ldr	r3, .L297
 2187 0002 5948     		ldr	r0, .L297+4
 2188 0004 1A68     		ldr	r2, [r3]
 789:.\fun.c       **** {
 2189              		.loc 1 789 0
 2190 0006 10B5     		push	{r4, lr}
 2191              	.LCFI6:
 2192              		.cfi_def_cfa_offset 8
 2193              		.cfi_offset 4, -8
ARM GAS  C:\Users\ZHANGM~1\AppData\Local\Temp\cccEtK9g.s 			page 55


 2194              		.cfi_offset 14, -4
 2195 0008 584C     		ldr	r4, .L297+8
 2196              		.loc 1 790 0
 2197 000a 8242     		cmp	r2, r0
 2198 000c 06D9     		bls	.L264
 791:.\fun.c       **** 		{ 
 792:.\fun.c       **** 			Load_Error(HOST_E0_DATA);
 2199              		.loc 1 792 0
 2200 000e 5848     		ldr	r0, .L297+12
 2201 0010 FFF7FEFF 		bl	Load_Error
 2202              	.LVL35:
 793:.\fun.c       **** 			Error_Data.bit.Error_00_flag=1;
 2203              		.loc 1 793 0
 2204 0014 2178     		ldrb	r1, [r4]
 2205 0016 0122     		mov	r2, #1
 2206 0018 1143     		orr	r1, r2
 2207 001a 02E0     		b	.L294
 2208              	.L264:
 794:.\fun.c       ****     }
 795:.\fun.c       ****   else
 796:.\fun.c       ****     {
 797:.\fun.c       ****      	Error_Data.bit.Error_00_flag=0;  
 2209              		.loc 1 797 0
 2210 001c 2178     		ldrb	r1, [r4]
 2211 001e 0123     		mov	r3, #1
 2212 0020 9943     		bic	r1, r3
 2213              	.L294:
 2214 0022 2170     		strb	r1, [r4]
 798:.\fun.c       ****     }   
 799:.\fun.c       ****     if(DYWD_Read()==1)//为1时无水//判断是否有自来水************************************
 2215              		.loc 1 799 0
 2216 0024 FFF7FEFF 		bl	DYWD_Read
 2217              	.LVL36:
 2218 0028 0128     		cmp	r0, #1
 2219 002a 17D1     		bne	.L266
 800:.\fun.c       **** 	    {
 801:.\fun.c       **** 	        if(DYWDfig1)//从有水到无水低压开关有3S 的延时,低压开关断开有3S的延
 2220              		.loc 1 801 0
 2221 002c 514C     		ldr	r4, .L297+16
 2222 002e 2378     		ldrb	r3, [r4]
 2223 0030 002B     		cmp	r3, #0
 2224 0032 08D0     		beq	.L267
 802:.\fun.c       **** 	        {
 803:.\fun.c       **** 	            if(DYWDcnt1>30*20*5)
 2225              		.loc 1 803 0
 2226 0034 504B     		ldr	r3, .L297+20
 2227 0036 514A     		ldr	r2, .L297+24
 2228 0038 1888     		ldrh	r0, [r3]
 2229 003a 9042     		cmp	r0, r2
 2230 003c 26D9     		bls	.L268
 804:.\fun.c       **** 	//            if(DYWDcnt1>30)
 805:.\fun.c       **** 	            {   
 806:.\fun.c       **** 	               DYWDfig1=0;
 2231              		.loc 1 806 0
 2232 003e 0021     		mov	r1, #0
 2233 0040 2170     		strb	r1, [r4]
 807:.\fun.c       **** 	               DYWDcnt1=0;
ARM GAS  C:\Users\ZHANGM~1\AppData\Local\Temp\cccEtK9g.s 			page 56


 2234              		.loc 1 807 0
 2235 0042 1980     		strh	r1, [r3]
 2236 0044 22E0     		b	.L268
 2237              	.L267:
 808:.\fun.c       **** 	             }    
 809:.\fun.c       **** 	        }        
 810:.\fun.c       **** 	        else
 811:.\fun.c       **** 	        {
 812:.\fun.c       **** 	            //无水，
 813:.\fun.c       **** 	            DYWDfig=1;
 2238              		.loc 1 813 0
 2239 0046 4E49     		ldr	r1, .L297+28
 814:.\fun.c       **** 	            Switch_Data.bit.diya_flag=1;
 2240              		.loc 1 814 0
 2241 0048 0222     		mov	r2, #2
 813:.\fun.c       **** 	            DYWDfig=1;
 2242              		.loc 1 813 0
 2243 004a 0870     		strb	r0, [r1]
 2244              		.loc 1 814 0
 2245 004c 4D48     		ldr	r0, .L297+32
 815:.\fun.c       **** 	            WorkFlag.nowater = 1;
 2246              		.loc 1 815 0
 2247 004e 4E4B     		ldr	r3, .L297+36
 814:.\fun.c       **** 	            Switch_Data.bit.diya_flag=1;
 2248              		.loc 1 814 0
 2249 0050 0478     		ldrb	r4, [r0]
 2250 0052 1443     		orr	r4, r2
 2251 0054 0470     		strb	r4, [r0]
 2252              		.loc 1 815 0
 2253 0056 1978     		ldrb	r1, [r3]
 2254 0058 0A43     		orr	r2, r1
 2255 005a 16E0     		b	.L295
 2256              	.L266:
 816:.\fun.c       **** 	               
 817:.\fun.c       **** 	        }            
 818:.\fun.c       **** 	          
 819:.\fun.c       **** 	   
 820:.\fun.c       **** 	    }
 821:.\fun.c       ****     else    //有水
 822:.\fun.c       **** 	    { 
 823:.\fun.c       **** 	        if(DYWDfig==1)//标志等于1,则是无水到有水,低压开关延时3S 接通
 2257              		.loc 1 823 0
 2258 005c 484C     		ldr	r4, .L297+28
 2259 005e 2078     		ldrb	r0, [r4]
 2260 0060 0128     		cmp	r0, #1
 2261 0062 06D1     		bne	.L269
 824:.\fun.c       **** 	        {
 825:.\fun.c       **** 	            if(DYWDcnt>30)
 2262              		.loc 1 825 0
 2263 0064 494B     		ldr	r3, .L297+40
 2264 0066 1878     		ldrb	r0, [r3]
 2265 0068 1E28     		cmp	r0, #30
 2266 006a 0FD9     		bls	.L268
 826:.\fun.c       **** 	            {
 827:.\fun.c       **** 	                DYWDfig=0;
 2267              		.loc 1 827 0
 2268 006c 0022     		mov	r2, #0
ARM GAS  C:\Users\ZHANGM~1\AppData\Local\Temp\cccEtK9g.s 			page 57


 2269 006e 2270     		strb	r2, [r4]
 2270 0070 0BE0     		b	.L295
 2271              	.L269:
 828:.\fun.c       **** 	                DYWDcnt=0;                
 829:.\fun.c       **** 	            }
 830:.\fun.c       **** 	            
 831:.\fun.c       **** 	        }
 832:.\fun.c       **** 	        else
 833:.\fun.c       **** 	        {
 834:.\fun.c       **** 	            Switch_Data.bit.diya_flag=0;
 2272              		.loc 1 834 0
 2273 0072 444B     		ldr	r3, .L297+32
 2274 0074 0222     		mov	r2, #2
 2275 0076 1978     		ldrb	r1, [r3]
 835:.\fun.c       **** 	            DYWDfig1=1;
 2276              		.loc 1 835 0
 2277 0078 3E48     		ldr	r0, .L297+16
 834:.\fun.c       **** 	            Switch_Data.bit.diya_flag=0;
 2278              		.loc 1 834 0
 2279 007a 9143     		bic	r1, r2
 2280 007c 1970     		strb	r1, [r3]
 2281              		.loc 1 835 0
 2282 007e 0124     		mov	r4, #1
 836:.\fun.c       **** 	            WorkFlag.nowater = 0;       
 2283              		.loc 1 836 0
 2284 0080 414B     		ldr	r3, .L297+36
 835:.\fun.c       **** 	            DYWDfig1=1;
 2285              		.loc 1 835 0
 2286 0082 0470     		strb	r4, [r0]
 2287              		.loc 1 836 0
 2288 0084 1978     		ldrb	r1, [r3]
 2289 0086 9143     		bic	r1, r2
 2290 0088 0A1C     		mov	r2, r1
 2291              	.L295:
 2292 008a 1A70     		strb	r2, [r3]
 2293              	.L268:
 837:.\fun.c       **** 	        }      
 838:.\fun.c       **** 	    }                 
 839:.\fun.c       ****     if(GYWD_Read()==1) ///为1判断压力罐是否水满******************************************
 2294              		.loc 1 839 0
 2295 008c FFF7FEFF 		bl	GYWD_Read
 2296              	.LVL37:
 2297 0090 0128     		cmp	r0, #1
 2298 0092 19D1     		bne	.L270
 840:.\fun.c       **** 	    {  
 841:.\fun.c       **** 	        if(GYfig1==1)
 2299              		.loc 1 841 0
 2300 0094 3E49     		ldr	r1, .L297+44
 2301 0096 0B78     		ldrb	r3, [r1]
 2302 0098 012B     		cmp	r3, #1
 2303 009a 04D1     		bne	.L271
 842:.\fun.c       **** 	        {
 843:.\fun.c       **** 	            if(GYcnt1>1)
 2304              		.loc 1 843 0
 2305 009c 3D4C     		ldr	r4, .L297+48
 2306 009e 2378     		ldrb	r3, [r4]
 2307 00a0 012B     		cmp	r3, #1
ARM GAS  C:\Users\ZHANGM~1\AppData\Local\Temp\cccEtK9g.s 			page 58


 2308 00a2 19D8     		bhi	.L296
 2309 00a4 5DE0     		b	.L263
 2310              	.L271:
 844:.\fun.c       **** 	            {
 845:.\fun.c       **** 	                GYcnt1=0;
 846:.\fun.c       **** 	                GYfig1=0;
 847:.\fun.c       **** 	            }
 848:.\fun.c       **** 	        
 849:.\fun.c       **** 	        }
 850:.\fun.c       **** 	        else
 851:.\fun.c       **** 	        {
 852:.\fun.c       **** 	            shuibumanfig=0;
 2311              		.loc 1 852 0
 2312 00a6 3C4C     		ldr	r4, .L297+52
 853:.\fun.c       **** 	            WorkFlag.gyfull = 1;//高开开关判断水满了
 2313              		.loc 1 853 0
 2314 00a8 374A     		ldr	r2, .L297+36
 852:.\fun.c       **** 	            shuibumanfig=0;
 2315              		.loc 1 852 0
 2316 00aa 0023     		mov	r3, #0
 2317 00ac 2370     		strb	r3, [r4]
 2318              		.loc 1 853 0
 2319 00ae D178     		ldrb	r1, [r2, #3]
 2320 00b0 1024     		mov	r4, #16
 2321 00b2 2143     		orr	r1, r4
 2322 00b4 D170     		strb	r1, [r2, #3]
 854:.\fun.c       **** 	            Switch_Data.bit.gaoya_flag=1;
 2323              		.loc 1 854 0
 2324 00b6 334A     		ldr	r2, .L297+32
 855:.\fun.c       **** 	            GYfig=1;
 2325              		.loc 1 855 0
 2326 00b8 384C     		ldr	r4, .L297+56
 854:.\fun.c       **** 	            Switch_Data.bit.gaoya_flag=1;
 2327              		.loc 1 854 0
 2328 00ba 1178     		ldrb	r1, [r2]
 2329 00bc 0143     		orr	r1, r0
 2330 00be 1170     		strb	r1, [r2]
 2331              		.loc 1 855 0
 2332 00c0 2070     		strb	r0, [r4]
 856:.\fun.c       **** 	            waterfullfig=0;
 2333              		.loc 1 856 0
 2334 00c2 3748     		ldr	r0, .L297+60
 2335 00c4 0370     		strb	r3, [r0]
 2336 00c6 4CE0     		b	.L263
 2337              	.L270:
 857:.\fun.c       **** 	            
 858:.\fun.c       **** 	            
 859:.\fun.c       **** 	        }    
 860:.\fun.c       **** 	                
 861:.\fun.c       **** 	        
 862:.\fun.c       **** 	        
 863:.\fun.c       **** 	        
 864:.\fun.c       **** 	        
 865:.\fun.c       **** 	       
 866:.\fun.c       **** 	    } 
 867:.\fun.c       ****     else//水不满
 868:.\fun.c       **** 	    {      
ARM GAS  C:\Users\ZHANGM~1\AppData\Local\Temp\cccEtK9g.s 			page 59


 869:.\fun.c       **** 	       if(GYfig==1)//从水满到到不满有1S延时
 2338              		.loc 1 869 0
 2339 00c8 344C     		ldr	r4, .L297+56
 2340 00ca 2378     		ldrb	r3, [r4]
 2341 00cc 012B     		cmp	r3, #1
 2342 00ce 07D1     		bne	.L274
 870:.\fun.c       **** 	        {
 871:.\fun.c       **** 	            if(GYcnt>10)
 2343              		.loc 1 871 0
 2344 00d0 3449     		ldr	r1, .L297+64
 2345 00d2 0A78     		ldrb	r2, [r1]
 2346 00d4 0A2A     		cmp	r2, #10
 2347 00d6 44D9     		bls	.L263
 2348              	.L296:
 872:.\fun.c       **** 	            {
 873:.\fun.c       **** 	                GYfig=0;
 2349              		.loc 1 873 0
 2350 00d8 0022     		mov	r2, #0
 2351 00da 2270     		strb	r2, [r4]
 874:.\fun.c       **** 	                GYcnt=0;
 2352              		.loc 1 874 0
 2353 00dc 0A70     		strb	r2, [r1]
 2354 00de 40E0     		b	.L263
 2355              	.L274:
 875:.\fun.c       **** 	            }    
 876:.\fun.c       **** 	        }        
 877:.\fun.c       **** 	        else
 878:.\fun.c       **** 	        {
 879:.\fun.c       **** 	            WorkFlag.gyfull =0;
 2356              		.loc 1 879 0
 2357 00e0 2948     		ldr	r0, .L297+36
 2358 00e2 1021     		mov	r1, #16
 2359 00e4 C278     		ldrb	r2, [r0, #3]
 880:.\fun.c       **** 	            GYfig1=1;
 2360              		.loc 1 880 0
 2361 00e6 2A4B     		ldr	r3, .L297+44
 879:.\fun.c       **** 	            WorkFlag.gyfull =0;
 2362              		.loc 1 879 0
 2363 00e8 8A43     		bic	r2, r1
 2364 00ea C270     		strb	r2, [r0, #3]
 2365              		.loc 1 880 0
 2366 00ec 0124     		mov	r4, #1
 881:.\fun.c       **** 	            Switch_Data.bit.gaoya_flag=0;
 2367              		.loc 1 881 0
 2368 00ee 2548     		ldr	r0, .L297+32
 880:.\fun.c       **** 	            GYfig1=1;
 2369              		.loc 1 880 0
 2370 00f0 1C70     		strb	r4, [r3]
 2371              		.loc 1 881 0
 2372 00f2 0278     		ldrb	r2, [r0]
 2373 00f4 A243     		bic	r2, r4
 882:.\fun.c       **** 	            if(waterfullfig==0)
 2374              		.loc 1 882 0
 2375 00f6 2A4C     		ldr	r4, .L297+60
 881:.\fun.c       **** 	            Switch_Data.bit.gaoya_flag=0;
 2376              		.loc 1 881 0
 2377 00f8 0270     		strb	r2, [r0]
ARM GAS  C:\Users\ZHANGM~1\AppData\Local\Temp\cccEtK9g.s 			page 60


 2378              		.loc 1 882 0
 2379 00fa 2378     		ldrb	r3, [r4]
 2380 00fc 201C     		mov	r0, r4
 2381 00fe 002B     		cmp	r3, #0
 2382 0100 07D1     		bne	.L276
 883:.\fun.c       **** 	            {
 884:.\fun.c       **** 	                if(gyfullcnt<254)
 2383              		.loc 1 884 0
 2384 0102 2949     		ldr	r1, .L297+68
 2385 0104 0A78     		ldrb	r2, [r1]
 2386 0106 FD2A     		cmp	r2, #253
 2387 0108 01D8     		bhi	.L277
 885:.\fun.c       **** 	                
 886:.\fun.c       **** 	                gyfullcnt++;
 2388              		.loc 1 886 0
 2389 010a 0132     		add	r2, r2, #1
 2390 010c 0A70     		strb	r2, [r1]
 2391              	.L277:
 887:.\fun.c       **** 	                waterfullfig=1;
 2392              		.loc 1 887 0
 2393 010e 0124     		mov	r4, #1
 2394 0110 0470     		strb	r4, [r0]
 2395              	.L276:
 888:.\fun.c       **** 	            }
 889:.\fun.c       **** 	            if(shuibumanfig==0&&(SPercent==0||HPercent==0||JPercent==0||KPercent==0||LPercent==0||
 2396              		.loc 1 889 0
 2397 0112 214B     		ldr	r3, .L297+52
 2398 0114 1878     		ldrb	r0, [r3]
 2399 0116 191C     		mov	r1, r3
 2400 0118 0028     		cmp	r0, #0
 2401 011a 22D1     		bne	.L263
 2402              		.loc 1 889 0 is_stmt 0 discriminator 1
 2403 011c 234A     		ldr	r2, .L297+72
 2404 011e 1478     		ldrb	r4, [r2]
 2405 0120 002C     		cmp	r4, #0
 2406 0122 13D0     		beq	.L278
 2407              		.loc 1 889 0 discriminator 2
 2408 0124 224B     		ldr	r3, .L297+76
 2409 0126 1878     		ldrb	r0, [r3]
 2410 0128 0028     		cmp	r0, #0
 2411 012a 0FD0     		beq	.L278
 2412              		.loc 1 889 0 discriminator 1
 2413 012c 214A     		ldr	r2, .L297+80
 2414 012e 1478     		ldrb	r4, [r2]
 2415 0130 002C     		cmp	r4, #0
 2416 0132 0BD0     		beq	.L278
 2417 0134 204B     		ldr	r3, .L297+84
 2418 0136 1878     		ldrb	r0, [r3]
 2419 0138 0028     		cmp	r0, #0
 2420 013a 07D0     		beq	.L278
 2421 013c 1F4A     		ldr	r2, .L297+88
 2422 013e 1478     		ldrb	r4, [r2]
 2423 0140 002C     		cmp	r4, #0
 2424 0142 03D0     		beq	.L278
 2425 0144 1E4B     		ldr	r3, .L297+92
 2426 0146 1878     		ldrb	r0, [r3]
 2427 0148 0028     		cmp	r0, #0
ARM GAS  C:\Users\ZHANGM~1\AppData\Local\Temp\cccEtK9g.s 			page 61


 2428 014a 0AD1     		bne	.L263
 2429              	.L278:
 2430 014c 1D4C     		ldr	r4, .L297+96
 2431 014e 2278     		ldrb	r2, [r4]
 2432 0150 012A     		cmp	r2, #1
 2433 0152 06D8     		bhi	.L263
 890:.\fun.c       **** 	            {
 891:.\fun.c       **** 	                lvxinbaojingcnt++;
 2434              		.loc 1 891 0 is_stmt 1
 2435 0154 0132     		add	r2, r2, #1
 892:.\fun.c       **** 	                BUZfkg=3;
 2436              		.loc 1 892 0
 2437 0156 1C4B     		ldr	r3, .L297+100
 891:.\fun.c       **** 	                lvxinbaojingcnt++;
 2438              		.loc 1 891 0
 2439 0158 2270     		strb	r2, [r4]
 2440              		.loc 1 892 0
 2441 015a 0320     		mov	r0, #3
 893:.\fun.c       **** 	                shuibumanfig=1;
 2442              		.loc 1 893 0
 2443 015c 0124     		mov	r4, #1
 892:.\fun.c       **** 	                BUZfkg=3;
 2444              		.loc 1 892 0
 2445 015e 1870     		strb	r0, [r3]
 2446              		.loc 1 893 0
 2447 0160 0C70     		strb	r4, [r1]
 2448              	.L263:
 894:.\fun.c       **** 	            }
 895:.\fun.c       **** 	            
 896:.\fun.c       **** 	            
 897:.\fun.c       **** 	        }
 898:.\fun.c       **** 	        
 899:.\fun.c       **** 	     
 900:.\fun.c       **** 	    }        
 901:.\fun.c       ****           
 902:.\fun.c       **** 
 903:.\fun.c       **** 
 904:.\fun.c       **** 
 905:.\fun.c       **** }
 2449              		.loc 1 905 0
 2450              		@ sp needed for prologue
 2451 0162 10BD     		pop	{r4, pc}
 2452              	.L298:
 2453              		.align	2
 2454              	.L297:
 2455 0164 00000000 		.word	LianXuJiShi
 2456 0168 3F190100 		.word	71999
 2457 016c 00000000 		.word	Error_Data
 2458 0170 F0900000 		.word	37104
 2459 0174 00000000 		.word	DYWDfig1
 2460 0178 00000000 		.word	DYWDcnt1
 2461 017c B80B0000 		.word	3000
 2462 0180 00000000 		.word	DYWDfig
 2463 0184 00000000 		.word	Switch_Data
 2464 0188 00000000 		.word	WorkFlag
 2465 018c 00000000 		.word	DYWDcnt
 2466 0190 00000000 		.word	GYfig1
ARM GAS  C:\Users\ZHANGM~1\AppData\Local\Temp\cccEtK9g.s 			page 62


 2467 0194 00000000 		.word	GYcnt1
 2468 0198 00000000 		.word	shuibumanfig
 2469 019c 00000000 		.word	GYfig
 2470 01a0 00000000 		.word	waterfullfig
 2471 01a4 00000000 		.word	GYcnt
 2472 01a8 00000000 		.word	gyfullcnt
 2473 01ac 00000000 		.word	SPercent
 2474 01b0 00000000 		.word	HPercent
 2475 01b4 00000000 		.word	JPercent
 2476 01b8 00000000 		.word	KPercent
 2477 01bc 00000000 		.word	LPercent
 2478 01c0 00000000 		.word	MPercent
 2479 01c4 00000000 		.word	lvxinbaojingcnt
 2480 01c8 00000000 		.word	BUZfkg
 2481              		.cfi_endproc
 2482              	.LFE39:
 2483              		.size	queshui_alm, .-queshui_alm
 2484              		.section	.text.jixing,"ax",%progbits
 2485              		.align	1
 2486              		.global	jixing
 2487              		.code	16
 2488              		.thumb_func
 2489              		.type	jixing, %function
 2490              	jixing:
 2491              	.LFB40:
 906:.\fun.c       ****    
 907:.\fun.c       ****         
 908:.\fun.c       ****     
 909:.\fun.c       **** 
 910:.\fun.c       ****    
 911:.\fun.c       ****     
 912:.\fun.c       ****     
 913:.\fun.c       ****     
 914:.\fun.c       ****     
 915:.\fun.c       ****     
 916:.\fun.c       ****     
 917:.\fun.c       ****     
 918:.\fun.c       ****     
 919:.\fun.c       ****     
 920:.\fun.c       ****     
 921:.\fun.c       ****     
 922:.\fun.c       ****     
 923:.\fun.c       ****    
 924:.\fun.c       ****  
 925:.\fun.c       **** 
 926:.\fun.c       ****  
 927:.\fun.c       ****         
 928:.\fun.c       ****         
 929:.\fun.c       ****     
 930:.\fun.c       **** 
 931:.\fun.c       ****     
 932:.\fun.c       **** void jixing(void)//判断机型函数
 933:.\fun.c       **** {
 2492              		.loc 1 933 0
 2493              		.cfi_startproc
 2494 0000 00B5     		push	{lr}
 2495              	.LCFI7:
ARM GAS  C:\Users\ZHANGM~1\AppData\Local\Temp\cccEtK9g.s 			page 63


 2496              		.cfi_def_cfa_offset 4
 2497              		.cfi_offset 14, -4
 934:.\fun.c       ****     //jixingnumber=Read_jixingnumber() ;读机型号 
 935:.\fun.c       ****     switch(jixingnumber)
 2498              		.loc 1 935 0
 2499 0002 0C4B     		ldr	r3, .L308
 2500 0004 1878     		ldrb	r0, [r3]
 2501 0006 0138     		sub	r0, r0, #1
 2502 0008 0528     		cmp	r0, #5
 2503 000a 11D8     		bhi	.L299
 2504 000c 0A49     		ldr	r1, .L308+4
 2505 000e 0B4A     		ldr	r2, .L308+8
 2506 0010 FFF7FEFF 		bl	__gnu_thumb1_case_uqi
 2507              	.L307:
 2508 0014 03       		.byte	(.L301-.L307)/2
 2509 0015 05       		.byte	(.L302-.L307)/2
 2510 0016 07       		.byte	(.L303-.L307)/2
 2511 0017 09       		.byte	(.L304-.L307)/2
 2512 0018 0B       		.byte	(.L305-.L307)/2
 2513 0019 0D       		.byte	(.L306-.L307)/2
 2514              		.align	1
 2515              	.L301:
 936:.\fun.c       ****     {
 937:.\fun.c       ****         case 1:
 938:.\fun.c       ****             LedPannelBuf[S_CON] =0xffffe001;//如果为1号机型则 1号机型点亮
 2516              		.loc 1 938 0
 2517 001a 0A60     		str	r2, [r1]
 939:.\fun.c       ****                     break;
 2518              		.loc 1 939 0
 2519 001c 08E0     		b	.L299
 2520              	.L302:
 940:.\fun.c       ****         case 2:
 941:.\fun.c       ****             LedPannelBuf[H_CON] =0xffffe001;//如果为1号机型则 1号机型点亮
 2521              		.loc 1 941 0
 2522 001e 4A60     		str	r2, [r1, #4]
 942:.\fun.c       ****                     break;
 2523              		.loc 1 942 0
 2524 0020 06E0     		b	.L299
 2525              	.L303:
 943:.\fun.c       ****         case 3:
 944:.\fun.c       ****             LedPannelBuf[J_CON] =0xffffe001;//如果为1号机型则 1号机型点亮
 2526              		.loc 1 944 0
 2527 0022 8A60     		str	r2, [r1, #8]
 945:.\fun.c       ****                     break;
 2528              		.loc 1 945 0
 2529 0024 04E0     		b	.L299
 2530              	.L304:
 946:.\fun.c       ****         case 4:
 947:.\fun.c       ****             LedPannelBuf[K_CON] =0xffffe001;//如果为1号机型则 1号机型点亮
 2531              		.loc 1 947 0
 2532 0026 CA60     		str	r2, [r1, #12]
 948:.\fun.c       ****                     break;
 2533              		.loc 1 948 0
 2534 0028 02E0     		b	.L299
 2535              	.L305:
 949:.\fun.c       ****         case 5:
 950:.\fun.c       ****             LedPannelBuf[L_CON] =0xffffe001;//如果为1号机型则 1号机型点亮
ARM GAS  C:\Users\ZHANGM~1\AppData\Local\Temp\cccEtK9g.s 			page 64


 2536              		.loc 1 950 0
 2537 002a 0A61     		str	r2, [r1, #16]
 951:.\fun.c       ****                     break;
 2538              		.loc 1 951 0
 2539 002c 00E0     		b	.L299
 2540              	.L306:
 952:.\fun.c       ****         case 6:
 953:.\fun.c       ****             LedPannelBuf[M_CON] =0xffffe001;//如果为1号机型则 1号机型点亮
 2541              		.loc 1 953 0
 2542 002e 4A61     		str	r2, [r1, #20]
 2543              	.L299:
 954:.\fun.c       ****                     break;
 955:.\fun.c       ****                     
 956:.\fun.c       ****         break;
 957:.\fun.c       ****     } 
 958:.\fun.c       **** }   
 2544              		.loc 1 958 0
 2545              		@ sp needed for prologue
 2546 0030 00BD     		pop	{pc}
 2547              	.L309:
 2548 0032 C046     		.align	2
 2549              	.L308:
 2550 0034 00000000 		.word	jixingnumber
 2551 0038 00000000 		.word	LedPannelBuf
 2552 003c 01E0FFFF 		.word	-8191
 2553              		.cfi_endproc
 2554              	.LFE40:
 2555              		.size	jixing, .-jixing
 2556              		.section	.text.init,"ax",%progbits
 2557              		.align	1
 2558              		.global	init
 2559              		.code	16
 2560              		.thumb_func
 2561              		.type	init, %function
 2562              	init:
 2563              	.LFB41:
 959:.\fun.c       **** 
 960:.\fun.c       **** void init(void)
 961:.\fun.c       **** {  
 2564              		.loc 1 961 0
 2565              		.cfi_startproc
 2566 0000 00B5     		push	{lr}
 2567              	.LCFI8:
 2568              		.cfi_def_cfa_offset 4
 2569              		.cfi_offset 14, -4
 962:.\fun.c       ****     //jixingnumber=3;
 963:.\fun.c       ****     zijiandisplayfig=0;//上电首先进入自检
 2570              		.loc 1 963 0
 2571 0002 1D4B     		ldr	r3, .L313
 2572 0004 0022     		mov	r2, #0
 964:.\fun.c       ****     WorkFlag.zijiansta=1;
 2573              		.loc 1 964 0
 2574 0006 1D48     		ldr	r0, .L313+4
 963:.\fun.c       ****     zijiandisplayfig=0;//上电首先进入自检
 2575              		.loc 1 963 0
 2576 0008 1A70     		strb	r2, [r3]
 2577              		.loc 1 964 0
ARM GAS  C:\Users\ZHANGM~1\AppData\Local\Temp\cccEtK9g.s 			page 65


 2578 000a C178     		ldrb	r1, [r0, #3]
 965:.\fun.c       ****     WorkFlag.shoucibysta=1;
 2579              		.loc 1 965 0
 2580 000c 0322     		mov	r2, #3
 2581 000e 0A43     		orr	r2, r1
 966:.\fun.c       ****     switch(jixingnumber)
 2582              		.loc 1 966 0
 2583 0010 1B4B     		ldr	r3, .L313+8
 965:.\fun.c       ****     WorkFlag.shoucibysta=1;
 2584              		.loc 1 965 0
 2585 0012 C270     		strb	r2, [r0, #3]
 2586              		.loc 1 966 0
 2587 0014 1978     		ldrb	r1, [r3]
 2588 0016 0139     		sub	r1, r1, #1
 2589 0018 0229     		cmp	r1, #2
 2590 001a 26D8     		bhi	.L311
 967:.\fun.c       **** 	    {
 968:.\fun.c       **** 	    case 1:
 969:.\fun.c       **** 		    SP=240;
 970:.\fun.c       **** 		    HP=320;
 971:.\fun.c       **** 		    JP=2160;
 972:.\fun.c       **** 		    KP=2160;
 973:.\fun.c       **** 		    LP=2160;
 974:.\fun.c       **** 		    MP=540;
 975:.\fun.c       **** 		    SP_N=288;
 976:.\fun.c       **** 		    HP_N=384;
 977:.\fun.c       **** 		    JP_N=2592;
 978:.\fun.c       **** 		    KP_N=2592;
 979:.\fun.c       **** 		    LP_N=2592;
 980:.\fun.c       **** 		    MP_N=648;
 981:.\fun.c       **** 	    case 2:
 982:.\fun.c       **** 	    	SP=240;
 983:.\fun.c       **** 		    HP=320;
 984:.\fun.c       **** 		    JP=2160;
 985:.\fun.c       **** 		    KP=2160;
 986:.\fun.c       **** 		    LP=2160;
 987:.\fun.c       **** 		    MP=540;
 988:.\fun.c       **** 		    SP_N=288;
 989:.\fun.c       **** 		    HP_N=384;
 990:.\fun.c       **** 		    JP_N=2592;
 991:.\fun.c       **** 		    KP_N=2592;
 992:.\fun.c       **** 		    LP_N=2592;
 993:.\fun.c       **** 		    MP_N=648;
 994:.\fun.c       **** 		  case 3:
 995:.\fun.c       **** 	    	SP=240;
 2591              		.loc 1 995 0
 2592 001c 194B     		ldr	r3, .L313+12
 2593 001e F022     		mov	r2, #240
 2594 0020 1A80     		strh	r2, [r3]
 996:.\fun.c       **** 		    HP=320;
 2595              		.loc 1 996 0
 2596 0022 A021     		mov	r1, #160
 2597 0024 184B     		ldr	r3, .L313+16
 2598 0026 4A00     		lsl	r2, r1, #1
 2599 0028 1A80     		strh	r2, [r3]
 997:.\fun.c       **** 		    JP=2160;
 2600              		.loc 1 997 0
ARM GAS  C:\Users\ZHANGM~1\AppData\Local\Temp\cccEtK9g.s 			page 66


 2601 002a 8721     		mov	r1, #135
 2602 002c 174B     		ldr	r3, .L313+20
 2603 002e 0A01     		lsl	r2, r1, #4
 2604 0030 1A80     		strh	r2, [r3]
 998:.\fun.c       **** 		    KP=2160;
 2605              		.loc 1 998 0
 2606 0032 1749     		ldr	r1, .L313+24
 999:.\fun.c       **** 		    LP=2160;
 2607              		.loc 1 999 0
 2608 0034 174B     		ldr	r3, .L313+28
 998:.\fun.c       **** 		    KP=2160;
 2609              		.loc 1 998 0
 2610 0036 0A80     		strh	r2, [r1]
 2611              		.loc 1 999 0
 2612 0038 1A80     		strh	r2, [r3]
1000:.\fun.c       **** 		    MP=540;
 2613              		.loc 1 1000 0
 2614 003a 8722     		mov	r2, #135
 2615 003c 164B     		ldr	r3, .L313+32
 2616 003e 9100     		lsl	r1, r2, #2
 2617 0040 1980     		strh	r1, [r3]
1001:.\fun.c       **** 		    SP_N=288;
 2618              		.loc 1 1001 0
 2619 0042 9022     		mov	r2, #144
 2620 0044 154B     		ldr	r3, .L313+36
 2621 0046 5100     		lsl	r1, r2, #1
 2622 0048 1980     		strh	r1, [r3]
1002:.\fun.c       **** 		    HP_N=384;
 2623              		.loc 1 1002 0
 2624 004a C022     		mov	r2, #192
 2625 004c 144B     		ldr	r3, .L313+40
 2626 004e 5100     		lsl	r1, r2, #1
 2627 0050 1980     		strh	r1, [r3]
1003:.\fun.c       **** 		    JP_N=2592;
 2628              		.loc 1 1003 0
 2629 0052 A222     		mov	r2, #162
 2630 0054 1349     		ldr	r1, .L313+44
 2631 0056 1301     		lsl	r3, r2, #4
 2632 0058 0B80     		strh	r3, [r1]
1004:.\fun.c       **** 		    KP_N=2592;
 2633              		.loc 1 1004 0
 2634 005a 134A     		ldr	r2, .L313+48
1005:.\fun.c       **** 		    LP_N=2592;
 2635              		.loc 1 1005 0
 2636 005c 1349     		ldr	r1, .L313+52
1004:.\fun.c       **** 		    KP_N=2592;
 2637              		.loc 1 1004 0
 2638 005e 1380     		strh	r3, [r2]
 2639              		.loc 1 1005 0
 2640 0060 0B80     		strh	r3, [r1]
1006:.\fun.c       **** 		    MP_N=648;
 2641              		.loc 1 1006 0
 2642 0062 A223     		mov	r3, #162
 2643 0064 1249     		ldr	r1, .L313+56
 2644 0066 9A00     		lsl	r2, r3, #2
 2645 0068 0A80     		strh	r2, [r1]
 2646              	.L311:
ARM GAS  C:\Users\ZHANGM~1\AppData\Local\Temp\cccEtK9g.s 			page 67


1007:.\fun.c       **** 		  }
1008:.\fun.c       ****     WorkFlag.nowater = 1;
 2647              		.loc 1 1008 0
 2648 006a 0378     		ldrb	r3, [r0]
1009:.\fun.c       ****     WorkFlag.shoudongbystabak=0;
 2649              		.loc 1 1009 0
 2650 006c 0222     		mov	r2, #2
 2651 006e 1343     		orr	r3, r2
 2652 0070 7F21     		mov	r1, #127
 2653 0072 0B40     		and	r3, r1
 2654 0074 0370     		strb	r3, [r0]
1010:.\fun.c       **** }
 2655              		.loc 1 1010 0
 2656              		@ sp needed for prologue
 2657 0076 00BD     		pop	{pc}
 2658              	.L314:
 2659              		.align	2
 2660              	.L313:
 2661 0078 00000000 		.word	zijiandisplayfig
 2662 007c 00000000 		.word	WorkFlag
 2663 0080 00000000 		.word	jixingnumber
 2664 0084 00000000 		.word	SP
 2665 0088 00000000 		.word	HP
 2666 008c 00000000 		.word	JP
 2667 0090 00000000 		.word	KP
 2668 0094 00000000 		.word	LP
 2669 0098 00000000 		.word	MP
 2670 009c 00000000 		.word	SP_N
 2671 00a0 00000000 		.word	HP_N
 2672 00a4 00000000 		.word	JP_N
 2673 00a8 00000000 		.word	KP_N
 2674 00ac 00000000 		.word	LP_N
 2675 00b0 00000000 		.word	MP_N
 2676              		.cfi_endproc
 2677              	.LFE41:
 2678              		.size	init, .-init
 2679              		.section	.text.key,"ax",%progbits
 2680              		.align	1
 2681              		.global	key
 2682              		.code	16
 2683              		.thumb_func
 2684              		.type	key, %function
 2685              	key:
 2686              	.LFB42:
1011:.\fun.c       **** 
1012:.\fun.c       **** void key(void)
1013:.\fun.c       **** {
 2687              		.loc 1 1013 0
 2688              		.cfi_startproc
 2689 0000 F8B5     		push	{r3, r4, r5, r6, r7, lr}
 2690              	.LCFI9:
 2691              		.cfi_def_cfa_offset 24
 2692              		.cfi_offset 3, -24
 2693              		.cfi_offset 4, -20
 2694              		.cfi_offset 5, -16
 2695              		.cfi_offset 6, -12
 2696              		.cfi_offset 7, -8
ARM GAS  C:\Users\ZHANGM~1\AppData\Local\Temp\cccEtK9g.s 			page 68


 2697              		.cfi_offset 14, -4
1014:.\fun.c       ****       
1015:.\fun.c       ****     if(WorkFlag.quyuxzsta)//区域选择状态******************************************
 2698              		.loc 1 1015 0
 2699 0002 C44C     		ldr	r4, .L504
 2700 0004 1021     		mov	r1, #16
 2701 0006 2278     		ldrb	r2, [r4]
 2702 0008 C34D     		ldr	r5, .L504+4
 2703 000a 0A42     		tst	r2, r1
 2704 000c 21D0     		beq	.L317
1016:.\fun.c       ****     {
1017:.\fun.c       ****         
1018:.\fun.c       ****        if(NBstandcnt<TIMER30S) 
 2705              		.loc 1 1018 0
 2706 000e C34B     		ldr	r3, .L504+8
 2707 0010 C348     		ldr	r0, .L504+12
 2708 0012 1E88     		ldrh	r6, [r3]
 2709 0014 8642     		cmp	r6, r0
 2710 0016 18D8     		bhi	.L318
1019:.\fun.c       ****         {
1020:.\fun.c       ****         
1021:.\fun.c       ****             if((BtnData1 & (1 << BTN_NB))&&(!(BtnData2 & (1 << BTN_NB))))
 2711              		.loc 1 1021 0
 2712 0018 2978     		ldrb	r1, [r5]
 2713 001a 0822     		mov	r2, #8
 2714 001c 1142     		tst	r1, r2
 2715 001e 18D0     		beq	.L317
 2716              		.loc 1 1021 0 is_stmt 0 discriminator 1
 2717 0020 C04E     		ldr	r6, .L504+16
 2718 0022 3078     		ldrb	r0, [r6]
 2719 0024 0240     		and	r2, r0
 2720 0026 14D1     		bne	.L317
1022:.\fun.c       ****             {
1023:.\fun.c       ****                 NBstandcnt=0;
 2721              		.loc 1 1023 0 is_stmt 1
 2722 0028 1A80     		strh	r2, [r3]
1024:.\fun.c       ****                 BUZfkg=1;
1025:.\fun.c       ****                // WorkFlag.quyuxzsta = 0;
1026:.\fun.c       ****                 NBfig^=0x01;
 2723              		.loc 1 1026 0
 2724 002a BF4A     		ldr	r2, .L504+20
1024:.\fun.c       ****                 BUZfkg=1;
 2725              		.loc 1 1024 0
 2726 002c BF4F     		ldr	r7, .L504+24
 2727              		.loc 1 1026 0
 2728 002e 1178     		ldrb	r1, [r2]
1024:.\fun.c       ****                 BUZfkg=1;
 2729              		.loc 1 1024 0
 2730 0030 0123     		mov	r3, #1
 2731 0032 3B70     		strb	r3, [r7]
 2732              		.loc 1 1026 0
 2733 0034 4B40     		eor	r3, r1
 2734 0036 1370     		strb	r3, [r2]
1027:.\fun.c       ****                 if(NBfig==0)
1028:.\fun.c       ****                 {
1029:.\fun.c       ****                     
1030:.\fun.c       ****                     NBmint=TIMER1MN; //如果是南方区域则计时时钟为TIMER1MN　南方的
ARM GAS  C:\Users\ZHANGM~1\AppData\Local\Temp\cccEtK9g.s 			page 69


 2735              		.loc 1 1030 0
 2736 0038 B426     		mov	r6, #180
1027:.\fun.c       ****                 if(NBfig==0)
 2737              		.loc 1 1027 0
 2738 003a 002B     		cmp	r3, #0
 2739 003c 02D0     		beq	.L501
1031:.\fun.c       ****                     //DisFlag.south=1;
1032:.\fun.c       ****                     //DisFlag.north=0;
1033:.\fun.c       ****                 }
1034:.\fun.c       ****                 else if(NBfig==1)
 2740              		.loc 1 1034 0
 2741 003e 012B     		cmp	r3, #1
 2742 0040 07D1     		bne	.L317
1035:.\fun.c       ****                 {
1036:.\fun.c       ****                     NBmint=TIMER1MB;//如果是北的话，为北方的一分钟
 2743              		.loc 1 1036 0
 2744 0042 9626     		mov	r6, #150
 2745              	.L501:
 2746 0044 B700     		lsl	r7, r6, #2
 2747 0046 BA4B     		ldr	r3, .L504+28
 2748 0048 02E0     		b	.L496
 2749              	.L318:
1037:.\fun.c       ****                     //DisFlag.south=0;
1038:.\fun.c       ****                    // DisFlag.north=1;
1039:.\fun.c       ****                 }
1040:.\fun.c       ****             } 
1041:.\fun.c       ****             
1042:.\fun.c       ****             
1043:.\fun.c       ****             
1044:.\fun.c       ****             
1045:.\fun.c       ****             
1046:.\fun.c       ****         } 
1047:.\fun.c       ****         else
1048:.\fun.c       ****         {
1049:.\fun.c       ****             WorkFlag.quyuxzsta=0;
 2750              		.loc 1 1049 0
 2751 004a 8A43     		bic	r2, r1
 2752 004c 2270     		strb	r2, [r4]
1050:.\fun.c       ****             NBstandcnt=0;
 2753              		.loc 1 1050 0
 2754 004e 0027     		mov	r7, #0
 2755              	.L496:
 2756 0050 1F80     		strh	r7, [r3]
 2757              	.L317:
1051:.\fun.c       ****         }
1052:.\fun.c       ****         
1053:.\fun.c       ****     }  
1054:.\fun.c       ****     if(WorkFlag.lvxingxzsta)//滤芯选择状态
 2758              		.loc 1 1054 0
 2759 0052 2078     		ldrb	r0, [r4]
 2760 0054 8006     		lsl	r0, r0, #26
 2761 0056 00D4     		bmi	.LCB2444
 2762 0058 98E1     		b	.L322	@long jump
 2763              	.LCB2444:
1055:.\fun.c       ****     {//滤芯选择状态********************************************************
1056:.\fun.c       ****            
1057:.\fun.c       ****             
ARM GAS  C:\Users\ZHANGM~1\AppData\Local\Temp\cccEtK9g.s 			page 70


1058:.\fun.c       ****         if(((BtnData1 & (1 << BTN_XZ))&&
 2764              		.loc 1 1058 0
 2765 005a 2B78     		ldrb	r3, [r5]
 2766 005c 0422     		mov	r2, #4
 2767 005e 191C     		mov	r1, r3
 2768 0060 1140     		and	r1, r2
 2769 0062 B44E     		ldr	r6, .L504+32
 2770 0064 B448     		ldr	r0, .L504+36
 2771 0066 03D0     		beq	.L323
1059:.\fun.c       ****            (BtnData2 & (1 << BTN_XZ)))||((BtnData1 & (1 << BTN_FW))&&(!(BtnData2 & (1 << BTN_FW))) 
 2772              		.loc 1 1059 0 discriminator 1
 2773 0068 AE4F     		ldr	r7, .L504+16
 2774 006a 3F78     		ldrb	r7, [r7]
1058:.\fun.c       ****         if(((BtnData1 & (1 << BTN_XZ))&&
 2775              		.loc 1 1058 0 discriminator 1
 2776 006c 1742     		tst	r7, r2
 2777 006e 06D1     		bne	.L324
 2778              	.L323:
 2779              		.loc 1 1059 0
 2780 0070 0222     		mov	r2, #2
 2781 0072 1342     		tst	r3, r2
 2782 0074 07D0     		beq	.L325
 2783              		.loc 1 1059 0 is_stmt 0 discriminator 1
 2784 0076 AB4F     		ldr	r7, .L504+16
 2785 0078 3F78     		ldrb	r7, [r7]
 2786 007a 1742     		tst	r7, r2
 2787 007c 03D1     		bne	.L325
 2788              	.L324:
1060:.\fun.c       ****         {
1061:.\fun.c       ****             LXXZstandcnt=0;
 2789              		.loc 1 1061 0 is_stmt 1
 2790 007e 0022     		mov	r2, #0
 2791 0080 3280     		strh	r2, [r6]
1062:.\fun.c       ****             lXXZcnt_fig=0;
 2792              		.loc 1 1062 0
 2793 0082 0270     		strb	r2, [r0]
 2794 0084 19E0     		b	.L326
 2795              	.L325:
1063:.\fun.c       ****         }
1064:.\fun.c       ****         else
1065:.\fun.c       ****         {     
1066:.\fun.c       ****             lXXZcnt_fig=1;
1067:.\fun.c       ****                            //此段程序为在滤芯选择状态下30秒内部操作则退去滤
1068:.\fun.c       ****             if(LXXZstandcnt>=300)
 2796              		.loc 1 1068 0
 2797 0086 3788     		ldrh	r7, [r6]
 2798 0088 A54E     		ldr	r6, .L504+12
1066:.\fun.c       ****             lXXZcnt_fig=1;
 2799              		.loc 1 1066 0
 2800 008a 0122     		mov	r2, #1
 2801 008c 0270     		strb	r2, [r0]
 2802              		.loc 1 1068 0
 2803 008e B742     		cmp	r7, r6
 2804 0090 13D9     		bls	.L326
1069:.\fun.c       ****             {
1070:.\fun.c       ****                 lXXZcnt_fig=0;
 2805              		.loc 1 1070 0
ARM GAS  C:\Users\ZHANGM~1\AppData\Local\Temp\cccEtK9g.s 			page 71


 2806 0092 0027     		mov	r7, #0
1071:.\fun.c       ****               
1072:.\fun.c       ****                 if(PressFlag.xzpressstart == 0)
 2807              		.loc 1 1072 0
 2808 0094 A94E     		ldr	r6, .L504+40
1070:.\fun.c       ****                 lXXZcnt_fig=0;
 2809              		.loc 1 1070 0
 2810 0096 0770     		strb	r7, [r0]
 2811              		.loc 1 1072 0
 2812 0098 3778     		ldrb	r7, [r6]
 2813 009a 381C     		mov	r0, r7
 2814 009c 1040     		and	r0, r2
 2815 009e 0CD1     		bne	.L326
1073:.\fun.c       ****                 {             
1074:.\fun.c       ****                
1075:.\fun.c       ****                     PressFlag.xzpressstart = 1;
 2816              		.loc 1 1075 0
 2817 00a0 1743     		orr	r7, r2
 2818 00a2 3770     		strb	r7, [r6]
1076:.\fun.c       ****                
1077:.\fun.c       ****                     WorkFlag.lvxingxzsta = 0;
 2819              		.loc 1 1077 0
 2820 00a4 2578     		ldrb	r5, [r4]
1078:.\fun.c       ****                     //WorkFlag.worksta = 1;
1079:.\fun.c       ****                     
1080:.\fun.c       ****                     WorkFlag.lxxz = 0;
 2821              		.loc 1 1080 0
 2822 00a6 A378     		ldrb	r3, [r4, #2]
1077:.\fun.c       ****                     WorkFlag.lvxingxzsta = 0;
 2823              		.loc 1 1077 0
 2824 00a8 2021     		mov	r1, #32
 2825              		.loc 1 1080 0
 2826 00aa 0426     		mov	r6, #4
1077:.\fun.c       ****                     WorkFlag.lvxingxzsta = 0;
 2827              		.loc 1 1077 0
 2828 00ac 8D43     		bic	r5, r1
 2829              		.loc 1 1080 0
 2830 00ae B343     		bic	r3, r6
1077:.\fun.c       ****                     WorkFlag.lvxingxzsta = 0;
 2831              		.loc 1 1077 0
 2832 00b0 2570     		strb	r5, [r4]
 2833              		.loc 1 1080 0
 2834 00b2 A370     		strb	r3, [r4, #2]
1081:.\fun.c       ****                     LvXinNum1 = 0;
 2835              		.loc 1 1081 0
 2836 00b4 A24C     		ldr	r4, .L504+44
 2837 00b6 2070     		strb	r0, [r4]
 2838 00b8 90E0     		b	.L503
 2839              	.L326:
 2840 00ba A24A     		ldr	r2, .L504+48
1082:.\fun.c       ****                     
1083:.\fun.c       ****                     DisFlag.sflash = 0;
1084:.\fun.c       ****                     DisFlag.hflash = 0;
1085:.\fun.c       ****                     DisFlag.jflash = 0;
1086:.\fun.c       ****                     DisFlag.kflash = 0;
1087:.\fun.c       ****                     DisFlag.lflash = 0;
1088:.\fun.c       ****                     DisFlag.mflash = 0;
ARM GAS  C:\Users\ZHANGM~1\AppData\Local\Temp\cccEtK9g.s 			page 72


1089:.\fun.c       ****                     
1090:.\fun.c       ****                     
1091:.\fun.c       ****                     return;
1092:.\fun.c       ****               
1093:.\fun.c       ****                 }
1094:.\fun.c       ****             }   
1095:.\fun.c       ****                 
1096:.\fun.c       ****                 
1097:.\fun.c       ****         }  
1098:.\fun.c       ****         if((BtnData1 & (1 << BTN_XZ))&&
 2841              		.loc 1 1098 0
 2842 00bc 0029     		cmp	r1, #0
 2843 00be 30D0     		beq	.L329
1099:.\fun.c       ****            (BtnData2 & (1 << BTN_XZ))&&
 2844              		.loc 1 1099 0 discriminator 1
 2845 00c0 9848     		ldr	r0, .L504+16
 2846 00c2 0426     		mov	r6, #4
 2847 00c4 0778     		ldrb	r7, [r0]
1098:.\fun.c       ****         if((BtnData1 & (1 << BTN_XZ))&&
 2848              		.loc 1 1098 0 discriminator 1
 2849 00c6 3742     		tst	r7, r6
 2850 00c8 2BD0     		beq	.L329
1100:.\fun.c       ****            (WorkFlag.lxfw == 1))
 2851              		.loc 1 1100 0
 2852 00ca A078     		ldrb	r0, [r4, #2]
1099:.\fun.c       ****            (BtnData2 & (1 << BTN_XZ))&&
 2853              		.loc 1 1099 0
 2854 00cc 0827     		mov	r7, #8
 2855 00ce 3842     		tst	r0, r7
 2856 00d0 27D0     		beq	.L329
1101:.\fun.c       ****         {
1102:.\fun.c       ****             
1103:.\fun.c       ****             if(XzPressCnt > TIMER5S)
 2857              		.loc 1 1103 0
 2858 00d2 1178     		ldrb	r1, [r2]
 2859 00d4 3229     		cmp	r1, #50
 2860 00d6 04D8     		bhi	.L330
 2861              	.L333:
1104:.\fun.c       ****             {
1105:.\fun.c       ****                 if(PressFlag.xzpressstart == 0)
1106:.\fun.c       ****                 {             
1107:.\fun.c       ****                
1108:.\fun.c       ****                     PressFlag.xzpressstart = 1;
1109:.\fun.c       ****                
1110:.\fun.c       ****                     WorkFlag.lvxingxzsta = 0;
1111:.\fun.c       ****                     //WorkFlag.worksta = 1;
1112:.\fun.c       ****                     
1113:.\fun.c       ****                     WorkFlag.lxxz = 0;
1114:.\fun.c       ****                     LvXinNum1 = 0;
1115:.\fun.c       ****                     
1116:.\fun.c       ****                     DisFlag.sflash = 0;
1117:.\fun.c       ****                     DisFlag.hflash = 0;
1118:.\fun.c       ****                     DisFlag.jflash = 0;
1119:.\fun.c       ****                     DisFlag.kflash = 0;
1120:.\fun.c       ****                     DisFlag.lflash = 0;
1121:.\fun.c       ****                     DisFlag.mflash = 0;
1122:.\fun.c       ****                     
ARM GAS  C:\Users\ZHANGM~1\AppData\Local\Temp\cccEtK9g.s 			page 73


1123:.\fun.c       ****                     
1124:.\fun.c       ****                     return;
1125:.\fun.c       ****                 }
1126:.\fun.c       ****             }
1127:.\fun.c       ****         }else
1128:.\fun.c       ****         {
1129:.\fun.c       ****             PressFlag.xzpressstart = 0;
1130:.\fun.c       ****             XzPressCnt = 0;
1131:.\fun.c       ****            // LXXZstandcnt=0;
1132:.\fun.c       ****         }
1133:.\fun.c       ****         
1134:.\fun.c       ****             //短按，滤芯选择
1135:.\fun.c       ****         if((BtnData1&0x04)&&
 2862              		.loc 1 1135 0
 2863 00d8 924E     		ldr	r6, .L504+16
 2864 00da 3178     		ldrb	r1, [r6]
 2865 00dc 0029     		cmp	r1, #0
 2866 00de 2AD0     		beq	.L331
 2867 00e0 41E0     		b	.L334
 2868              	.L330:
1105:.\fun.c       ****                 if(PressFlag.xzpressstart == 0)
 2869              		.loc 1 1105 0
 2870 00e2 964F     		ldr	r7, .L504+40
 2871 00e4 3A78     		ldrb	r2, [r7]
 2872 00e6 9446     		mov	ip, r2
 2873 00e8 6146     		mov	r1, ip
 2874 00ea 0122     		mov	r2, #1
 2875 00ec 1140     		and	r1, r2
 2876 00ee F3D1     		bne	.L333
1108:.\fun.c       ****                     PressFlag.xzpressstart = 1;
 2877              		.loc 1 1108 0
 2878 00f0 6346     		mov	r3, ip
 2879 00f2 1343     		orr	r3, r2
 2880 00f4 3B70     		strb	r3, [r7]
1110:.\fun.c       ****                     WorkFlag.lvxingxzsta = 0;
 2881              		.loc 1 1110 0
 2882 00f6 2778     		ldrb	r7, [r4]
 2883 00f8 2025     		mov	r5, #32
1113:.\fun.c       ****                     WorkFlag.lxxz = 0;
 2884              		.loc 1 1113 0
 2885 00fa B043     		bic	r0, r6
1110:.\fun.c       ****                     WorkFlag.lvxingxzsta = 0;
 2886              		.loc 1 1110 0
 2887 00fc AF43     		bic	r7, r5
 2888 00fe 2770     		strb	r7, [r4]
1113:.\fun.c       ****                     WorkFlag.lxxz = 0;
 2889              		.loc 1 1113 0
 2890 0100 A070     		strb	r0, [r4, #2]
1114:.\fun.c       ****                     LvXinNum1 = 0;
 2891              		.loc 1 1114 0
 2892 0102 8F4C     		ldr	r4, .L504+44
1116:.\fun.c       ****                     DisFlag.sflash = 0;
 2893              		.loc 1 1116 0
 2894 0104 904B     		ldr	r3, .L504+52
1114:.\fun.c       ****                     LvXinNum1 = 0;
 2895              		.loc 1 1114 0
 2896 0106 2170     		strb	r1, [r4]
ARM GAS  C:\Users\ZHANGM~1\AppData\Local\Temp\cccEtK9g.s 			page 74


1116:.\fun.c       ****                     DisFlag.sflash = 0;
 2897              		.loc 1 1116 0
 2898 0108 5978     		ldrb	r1, [r3, #1]
1117:.\fun.c       ****                     DisFlag.hflash = 0;
 2899              		.loc 1 1117 0
 2900 010a 0820     		mov	r0, #8
1118:.\fun.c       ****                     DisFlag.jflash = 0;
 2901              		.loc 1 1118 0
 2902 010c 1026     		mov	r6, #16
1117:.\fun.c       ****                     DisFlag.hflash = 0;
 2903              		.loc 1 1117 0
 2904 010e 8143     		bic	r1, r0
1118:.\fun.c       ****                     DisFlag.jflash = 0;
 2905              		.loc 1 1118 0
 2906 0110 B143     		bic	r1, r6
1119:.\fun.c       ****                     DisFlag.kflash = 0;
 2907              		.loc 1 1119 0
 2908 0112 A943     		bic	r1, r5
1120:.\fun.c       ****                     DisFlag.lflash = 0;
 2909              		.loc 1 1120 0
 2910 0114 3F26     		mov	r6, #63
 2911              	.L502:
 2912 0116 3140     		and	r1, r6
 2913 0118 5970     		strb	r1, [r3, #1]
1121:.\fun.c       ****                     DisFlag.mflash = 0;
 2914              		.loc 1 1121 0
 2915 011a 9978     		ldrb	r1, [r3, #2]
 2916 011c 9143     		bic	r1, r2
 2917 011e 0A1C     		mov	r2, r1
 2918 0120 A7E1     		b	.L500
 2919              	.L329:
1129:.\fun.c       ****             PressFlag.xzpressstart = 0;
 2920              		.loc 1 1129 0
 2921 0122 8648     		ldr	r0, .L504+40
 2922 0124 0127     		mov	r7, #1
 2923 0126 0678     		ldrb	r6, [r0]
 2924 0128 BE43     		bic	r6, r7
 2925 012a 0670     		strb	r6, [r0]
1130:.\fun.c       ****             XzPressCnt = 0;
 2926              		.loc 1 1130 0
 2927 012c 0020     		mov	r0, #0
 2928 012e 1070     		strb	r0, [r2]
 2929              		.loc 1 1135 0
 2930 0130 8142     		cmp	r1, r0
 2931 0132 18D0     		beq	.L334
 2932 0134 D0E7     		b	.L333
 2933              	.L331:
1136:.\fun.c       ****            (BtnData2 == 0))
1137:.\fun.c       ****         {
1138:.\fun.c       ****             
1139:.\fun.c       ****             LXXZOUT_fig=0;
1140:.\fun.c       ****             BUZfkg=1;
 2934              		.loc 1 1140 0
 2935 0136 7D4A     		ldr	r2, .L504+24
 2936 0138 0127     		mov	r7, #1
 2937 013a 1770     		strb	r7, [r2]
1139:.\fun.c       ****             LXXZOUT_fig=0;
ARM GAS  C:\Users\ZHANGM~1\AppData\Local\Temp\cccEtK9g.s 			page 75


 2938              		.loc 1 1139 0
 2939 013c 8348     		ldr	r0, .L504+56
1141:.\fun.c       ****             LvXinNum = LvXinNum1;
 2940              		.loc 1 1141 0
 2941 013e 804A     		ldr	r2, .L504+44
1139:.\fun.c       ****             LXXZOUT_fig=0;
 2942              		.loc 1 1139 0
 2943 0140 0170     		strb	r1, [r0]
 2944              		.loc 1 1141 0
 2945 0142 834E     		ldr	r6, .L504+60
 2946 0144 1078     		ldrb	r0, [r2]
1142:.\fun.c       ****             WorkFlag.lxxz = 1;
 2947              		.loc 1 1142 0
 2948 0146 0427     		mov	r7, #4
1141:.\fun.c       ****             LvXinNum = LvXinNum1;
 2949              		.loc 1 1141 0
 2950 0148 3070     		strb	r0, [r6]
 2951              		.loc 1 1142 0
 2952 014a A678     		ldrb	r6, [r4, #2]
1143:.\fun.c       ****             
1144:.\fun.c       ****             LvXinNum1++;
 2953              		.loc 1 1144 0
 2954 014c 0130     		add	r0, r0, #1
1142:.\fun.c       ****             WorkFlag.lxxz = 1;
 2955              		.loc 1 1142 0
 2956 014e 3E43     		orr	r6, r7
 2957              		.loc 1 1144 0
 2958 0150 C0B2     		uxtb	r0, r0
1142:.\fun.c       ****             WorkFlag.lxxz = 1;
 2959              		.loc 1 1142 0
 2960 0152 A670     		strb	r6, [r4, #2]
1145:.\fun.c       ****              
1146:.\fun.c       ****             if(LvXinNum1 >= 6)
 2961              		.loc 1 1146 0
 2962 0154 0528     		cmp	r0, #5
 2963 0156 01D8     		bhi	.L335
1144:.\fun.c       ****             LvXinNum1++;
 2964              		.loc 1 1144 0
 2965 0158 1070     		strb	r0, [r2]
 2966 015a 00E0     		b	.L336
 2967              	.L335:
1147:.\fun.c       ****                 LvXinNum1 = 0;
 2968              		.loc 1 1147 0
 2969 015c 1170     		strb	r1, [r2]
 2970              	.L336:
1148:.\fun.c       ****            
1149:.\fun.c       ****             WorkFlag.lxfw = 1;
 2971              		.loc 1 1149 0
 2972 015e A278     		ldrb	r2, [r4, #2]
 2973 0160 0821     		mov	r1, #8
 2974 0162 0A43     		orr	r2, r1
 2975 0164 A270     		strb	r2, [r4, #2]
 2976              	.L334:
1150:.\fun.c       ****         }
1151:.\fun.c       ****         //短按，滤芯复位
1152:.\fun.c       ****         if((BtnData1 & (1 << BTN_FW))&&(!(BtnData2 & (1 << BTN_FW))))
 2977              		.loc 1 1152 0
ARM GAS  C:\Users\ZHANGM~1\AppData\Local\Temp\cccEtK9g.s 			page 76


 2978 0166 0226     		mov	r6, #2
 2979 0168 3342     		tst	r3, r6
 2980 016a 43D0     		beq	.L337
 2981              		.loc 1 1152 0 is_stmt 0 discriminator 1
 2982 016c 6D4B     		ldr	r3, .L504+16
 2983 016e 1F78     		ldrb	r7, [r3]
 2984 0170 3E40     		and	r6, r7
 2985 0172 3FD1     		bne	.L337
1153:.\fun.c       ****         {
1154:.\fun.c       ****               BUZfkg=1;  
 2986              		.loc 1 1154 0 is_stmt 1
 2987 0174 6D48     		ldr	r0, .L504+24
 2988 0176 0123     		mov	r3, #1
 2989 0178 0370     		strb	r3, [r0]
1155:.\fun.c       ****                 if(WorkFlag.yanshista==0)
 2990              		.loc 1 1155 0
 2991 017a 6278     		ldrb	r2, [r4, #1]
 2992 017c 7449     		ldr	r1, .L504+60
 2993 017e 1340     		and	r3, r2
 2994 0180 0ED1     		bne	.L338
1156:.\fun.c       **** 	                {
1157:.\fun.c       **** 	                    LvxinJishi[LvXinNum] = 0;
 2995              		.loc 1 1157 0
 2996 0182 0E78     		ldrb	r6, [r1]
 2997 0184 7348     		ldr	r0, .L504+64
 2998 0186 7100     		lsl	r1, r6, #1
1158:.\fun.c       **** 	                    LvxinJishi[LvXinNum+6]=0;
 2999              		.loc 1 1158 0
 3000 0188 0636     		add	r6, r6, #6
1159:.\fun.c       **** 	                    Filter_Changed_Num[LvXinNum]+=1;
 3001              		.loc 1 1159 0
 3002 018a 734F     		ldr	r7, .L504+68
1158:.\fun.c       **** 	                    LvxinJishi[LvXinNum+6]=0;
 3003              		.loc 1 1158 0
 3004 018c 7200     		lsl	r2, r6, #1
1157:.\fun.c       **** 	                    LvxinJishi[LvXinNum] = 0;
 3005              		.loc 1 1157 0
 3006 018e 0B52     		strh	r3, [r1, r0]
1158:.\fun.c       **** 	                    LvxinJishi[LvXinNum+6]=0;
 3007              		.loc 1 1158 0
 3008 0190 1352     		strh	r3, [r2, r0]
 3009              		.loc 1 1159 0
 3010 0192 CB5B     		ldrh	r3, [r1, r7]
 3011 0194 0133     		add	r3, r3, #1
 3012 0196 CB53     		strh	r3, [r1, r7]
1160:.\fun.c       **** 	                    Filter_Changed_Num[LvXinNum+6]+=1;
 3013              		.loc 1 1160 0
 3014 0198 D65B     		ldrh	r6, [r2, r7]
 3015 019a 0136     		add	r6, r6, #1
 3016 019c D653     		strh	r6, [r2, r7]
 3017 019e 02E0     		b	.L339
 3018              	.L338:
1161:.\fun.c       **** 	                }
1162:.\fun.c       ****                 else
1163:.\fun.c       **** 	                {
1164:.\fun.c       **** 	                    templvxin[LvXinNum]=0;  
 3019              		.loc 1 1164 0
ARM GAS  C:\Users\ZHANGM~1\AppData\Local\Temp\cccEtK9g.s 			page 77


 3020 01a0 0F78     		ldrb	r7, [r1]
 3021 01a2 6E4B     		ldr	r3, .L504+72
 3022 01a4 DE55     		strb	r6, [r3, r7]
 3023              	.L339:
1165:.\fun.c       **** 	                }
1166:.\fun.c       ****                 LXXZOUT_fig++;
 3024              		.loc 1 1166 0
 3025 01a6 6948     		ldr	r0, .L504+56
 3026 01a8 0178     		ldrb	r1, [r0]
 3027 01aa 0131     		add	r1, r1, #1
 3028 01ac CAB2     		uxtb	r2, r1
 3029 01ae 0270     		strb	r2, [r0]
1167:.\fun.c       ****                 if( LXXZOUT_fig>=2)//如果在某一个滤芯复位时复位键按了2此 则退出
 3030              		.loc 1 1167 0
 3031 01b0 012A     		cmp	r2, #1
 3032 01b2 1BD9     		bls	.L340
1168:.\fun.c       ****                 {
1169:.\fun.c       ****                     LXXZOUT_fig=0;
 3033              		.loc 1 1169 0
 3034 01b4 0027     		mov	r7, #0
1170:.\fun.c       ****                     if(PressFlag.xzpressstart == 0)
 3035              		.loc 1 1170 0
 3036 01b6 614E     		ldr	r6, .L504+40
1169:.\fun.c       ****                     LXXZOUT_fig=0;
 3037              		.loc 1 1169 0
 3038 01b8 0770     		strb	r7, [r0]
 3039              		.loc 1 1170 0
 3040 01ba 3078     		ldrb	r0, [r6]
 3041 01bc 0122     		mov	r2, #1
 3042 01be 031C     		mov	r3, r0
 3043 01c0 1340     		and	r3, r2
 3044 01c2 13D1     		bne	.L340
1171:.\fun.c       ****                     {             
1172:.\fun.c       ****                         PressFlag.xzpressstart = 1;            
 3045              		.loc 1 1172 0
 3046 01c4 1043     		orr	r0, r2
 3047 01c6 3070     		strb	r0, [r6]
1173:.\fun.c       ****                         WorkFlag.lvxingxzsta = 0;
 3048              		.loc 1 1173 0
 3049 01c8 2778     		ldrb	r7, [r4]
1174:.\fun.c       ****                         WorkFlag.lxxz = 0;
 3050              		.loc 1 1174 0
 3051 01ca A678     		ldrb	r6, [r4, #2]
1173:.\fun.c       ****                         WorkFlag.lvxingxzsta = 0;
 3052              		.loc 1 1173 0
 3053 01cc 2021     		mov	r1, #32
 3054              		.loc 1 1174 0
 3055 01ce 0425     		mov	r5, #4
1173:.\fun.c       ****                         WorkFlag.lvxingxzsta = 0;
 3056              		.loc 1 1173 0
 3057 01d0 8F43     		bic	r7, r1
 3058              		.loc 1 1174 0
 3059 01d2 AE43     		bic	r6, r5
1173:.\fun.c       ****                         WorkFlag.lvxingxzsta = 0;
 3060              		.loc 1 1173 0
 3061 01d4 2770     		strb	r7, [r4]
 3062              		.loc 1 1174 0
ARM GAS  C:\Users\ZHANGM~1\AppData\Local\Temp\cccEtK9g.s 			page 78


 3063 01d6 A670     		strb	r6, [r4, #2]
1175:.\fun.c       ****                         LvXinNum1 = 0;           
 3064              		.loc 1 1175 0
 3065 01d8 594C     		ldr	r4, .L504+44
 3066 01da 2370     		strb	r3, [r4]
 3067              	.L503:
1176:.\fun.c       ****                         DisFlag.sflash = 0;
 3068              		.loc 1 1176 0
 3069 01dc 5A4B     		ldr	r3, .L504+52
1177:.\fun.c       ****                         DisFlag.hflash = 0;
1178:.\fun.c       ****                         DisFlag.jflash = 0;
 3070              		.loc 1 1178 0
 3071 01de E720     		mov	r0, #231
1176:.\fun.c       ****                         DisFlag.sflash = 0;
 3072              		.loc 1 1176 0
 3073 01e0 5F78     		ldrb	r7, [r3, #1]
1179:.\fun.c       ****                         DisFlag.kflash = 0;
1180:.\fun.c       ****                         DisFlag.lflash = 0;
 3074              		.loc 1 1180 0
 3075 01e2 2726     		mov	r6, #39
1178:.\fun.c       ****                         DisFlag.jflash = 0;
 3076              		.loc 1 1178 0
 3077 01e4 3840     		and	r0, r7
1179:.\fun.c       ****                         DisFlag.kflash = 0;
 3078              		.loc 1 1179 0
 3079 01e6 8843     		bic	r0, r1
 3080 01e8 011C     		mov	r1, r0
 3081 01ea 94E7     		b	.L502
 3082              	.L340:
1181:.\fun.c       ****                         DisFlag.mflash = 0;
1182:.\fun.c       ****                         return;
1183:.\fun.c       ****                     }
1184:.\fun.c       ****                 }
1185:.\fun.c       **** 
1186:.\fun.c       ****                 WorkFlag.lxfw = 1;
 3083              		.loc 1 1186 0
 3084 01ec A178     		ldrb	r1, [r4, #2]
 3085 01ee 0827     		mov	r7, #8
 3086 01f0 3943     		orr	r1, r7
 3087 01f2 A170     		strb	r1, [r4, #2]
 3088              	.L337:
1187:.\fun.c       ****         }
1188:.\fun.c       ****         if(WorkFlag.lxxz == 1)
 3089              		.loc 1 1188 0
 3090 01f4 A678     		ldrb	r6, [r4, #2]
 3091 01f6 7007     		lsl	r0, r6, #29
 3092 01f8 00D4     		bmi	.LCB2753
 3093 01fa C7E0     		b	.L322	@long jump
 3094              	.LCB2753:
1189:.\fun.c       ****         {
1190:.\fun.c       ****             switch(LvXinNum)
 3095              		.loc 1 1190 0
 3096 01fc 5448     		ldr	r0, .L504+60
 3097 01fe 524B     		ldr	r3, .L504+52
 3098 0200 0078     		ldrb	r0, [r0]
 3099 0202 0528     		cmp	r0, #5
 3100 0204 00D9     		bls	.LCB2758
ARM GAS  C:\Users\ZHANGM~1\AppData\Local\Temp\cccEtK9g.s 			page 79


 3101 0206 B9E0     		b	.L342	@long jump
 3102              	.LCB2758:
 3103 0208 0821     		mov	r1, #8
 3104 020a 544A     		ldr	r2, .L504+72
 3105 020c FFF7FEFF 		bl	__gnu_thumb1_case_uqi
 3106              	.L349:
 3107 0210 03       		.byte	(.L343-.L349)/2
 3108 0211 14       		.byte	(.L344-.L349)/2
 3109 0212 2A       		.byte	(.L345-.L349)/2
 3110 0213 41       		.byte	(.L346-.L349)/2
 3111 0214 58       		.byte	(.L347-.L349)/2
 3112 0215 6E       		.byte	(.L348-.L349)/2
 3113              		.align	1
 3114              	.L343:
1191:.\fun.c       ****             {
1192:.\fun.c       ****                 case 0:
1193:.\fun.c       ****                     DisFlag.sflash = 1;
 3115              		.loc 1 1193 0
 3116 0216 5F78     		ldrb	r7, [r3, #1]
1194:.\fun.c       ****                     DisFlag.hflash = 0;
1195:.\fun.c       ****                     DisFlag.jflash = 0;
1196:.\fun.c       ****                     DisFlag.kflash = 0;
1197:.\fun.c       ****                     DisFlag.lflash = 0;
 3117              		.loc 1 1197 0
 3118 0218 0F26     		mov	r6, #15
1194:.\fun.c       ****                     DisFlag.hflash = 0;
 3119              		.loc 1 1194 0
 3120 021a 3943     		orr	r1, r7
1198:.\fun.c       ****                     DisFlag.mflash = 0;
 3121              		.loc 1 1198 0
 3122 021c 9878     		ldrb	r0, [r3, #2]
1197:.\fun.c       ****                     DisFlag.lflash = 0;
 3123              		.loc 1 1197 0
 3124 021e 3140     		and	r1, r6
 3125 0220 5970     		strb	r1, [r3, #1]
 3126              		.loc 1 1198 0
 3127 0222 0121     		mov	r1, #1
 3128 0224 8843     		bic	r0, r1
 3129 0226 9870     		strb	r0, [r3, #2]
1199:.\fun.c       ****                     if(WorkFlag.yanshista==1)
 3130              		.loc 1 1199 0
 3131 0228 6378     		ldrb	r3, [r4, #1]
 3132 022a 0B42     		tst	r3, r1
 3133 022c 01D0     		beq	.L350
1200:.\fun.c       ****                     	jixingnumber=1;
 3134              		.loc 1 1200 0
 3135 022e 4C4F     		ldr	r7, .L504+76
 3136 0230 3970     		strb	r1, [r7]
 3137              	.L350:
1201:.\fun.c       ****                     temps=templvxin[0];
 3138              		.loc 1 1201 0
 3139 0232 1278     		ldrb	r2, [r2]
 3140 0234 4B4F     		ldr	r7, .L504+80
 3141 0236 13E0     		b	.L497
 3142              	.L344:
1202:.\fun.c       ****                     
1203:.\fun.c       ****                     break;
ARM GAS  C:\Users\ZHANGM~1\AppData\Local\Temp\cccEtK9g.s 			page 80


1204:.\fun.c       ****                 case 1:
1205:.\fun.c       ****                     DisFlag.sflash = 0;
 3143              		.loc 1 1205 0
 3144 0238 5F78     		ldrb	r7, [r3, #1]
1206:.\fun.c       ****                     DisFlag.hflash = 1;
1207:.\fun.c       ****                     DisFlag.jflash = 0;
 3145              		.loc 1 1207 0
 3146 023a 1026     		mov	r6, #16
1206:.\fun.c       ****                     DisFlag.hflash = 1;
 3147              		.loc 1 1206 0
 3148 023c 8F43     		bic	r7, r1
 3149 023e 391C     		mov	r1, r7
 3150              		.loc 1 1207 0
 3151 0240 3143     		orr	r1, r6
1208:.\fun.c       ****                     DisFlag.kflash = 0;
1209:.\fun.c       ****                     DisFlag.lflash = 0;
 3152              		.loc 1 1209 0
 3153 0242 1F20     		mov	r0, #31
1210:.\fun.c       ****                     DisFlag.mflash = 0;
 3154              		.loc 1 1210 0
 3155 0244 9F78     		ldrb	r7, [r3, #2]
1209:.\fun.c       ****                     DisFlag.lflash = 0;
 3156              		.loc 1 1209 0
 3157 0246 0140     		and	r1, r0
 3158 0248 5970     		strb	r1, [r3, #1]
 3159              		.loc 1 1210 0
 3160 024a 0121     		mov	r1, #1
 3161 024c 8F43     		bic	r7, r1
 3162 024e 9F70     		strb	r7, [r3, #2]
1211:.\fun.c       ****                     if(WorkFlag.yanshista==1)
 3163              		.loc 1 1211 0
 3164 0250 6378     		ldrb	r3, [r4, #1]
 3165 0252 0B42     		tst	r3, r1
 3166 0254 02D0     		beq	.L351
1212:.\fun.c       ****                     	jixingnumber=2;
 3167              		.loc 1 1212 0
 3168 0256 4248     		ldr	r0, .L504+76
 3169 0258 0226     		mov	r6, #2
 3170 025a 0670     		strb	r6, [r0]
 3171              	.L351:
1213:.\fun.c       ****                     temph=templvxin[1];
 3172              		.loc 1 1213 0
 3173 025c 5278     		ldrb	r2, [r2, #1]
 3174 025e 424F     		ldr	r7, .L504+84
 3175              	.L497:
 3176 0260 3A70     		strb	r2, [r7]
1214:.\fun.c       ****                     break;
 3177              		.loc 1 1214 0
 3178 0262 93E0     		b	.L322
 3179              	.L345:
1215:.\fun.c       ****                 case 2:
1216:.\fun.c       ****                     DisFlag.sflash = 0;
 3180              		.loc 1 1216 0
 3181 0264 5878     		ldrb	r0, [r3, #1]
1217:.\fun.c       ****                     DisFlag.hflash = 0;
1218:.\fun.c       ****                     DisFlag.jflash = 1;
 3182              		.loc 1 1218 0
ARM GAS  C:\Users\ZHANGM~1\AppData\Local\Temp\cccEtK9g.s 			page 81


 3183 0266 1027     		mov	r7, #16
1217:.\fun.c       ****                     DisFlag.hflash = 0;
 3184              		.loc 1 1217 0
 3185 0268 8843     		bic	r0, r1
 3186 026a 011C     		mov	r1, r0
 3187              		.loc 1 1218 0
 3188 026c B943     		bic	r1, r7
1219:.\fun.c       ****                     DisFlag.kflash = 0;
 3189              		.loc 1 1219 0
 3190 026e 2026     		mov	r6, #32
 3191 0270 3143     		orr	r1, r6
1220:.\fun.c       ****                     DisFlag.lflash = 0;
 3192              		.loc 1 1220 0
 3193 0272 3F20     		mov	r0, #63
1221:.\fun.c       ****                     DisFlag.mflash = 0;
 3194              		.loc 1 1221 0
 3195 0274 9F78     		ldrb	r7, [r3, #2]
1220:.\fun.c       ****                     DisFlag.lflash = 0;
 3196              		.loc 1 1220 0
 3197 0276 0140     		and	r1, r0
 3198 0278 5970     		strb	r1, [r3, #1]
 3199              		.loc 1 1221 0
 3200 027a 0121     		mov	r1, #1
 3201 027c 8F43     		bic	r7, r1
 3202 027e 9F70     		strb	r7, [r3, #2]
1222:.\fun.c       ****                     if(WorkFlag.yanshista==1)
 3203              		.loc 1 1222 0
 3204 0280 6378     		ldrb	r3, [r4, #1]
 3205 0282 0B42     		tst	r3, r1
 3206 0284 02D0     		beq	.L352
1223:.\fun.c       ****                     	jixingnumber=3;
 3207              		.loc 1 1223 0
 3208 0286 3648     		ldr	r0, .L504+76
 3209 0288 0326     		mov	r6, #3
 3210 028a 0670     		strb	r6, [r0]
 3211              	.L352:
1224:.\fun.c       ****                     tempj=templvxin[2];
 3212              		.loc 1 1224 0
 3213 028c 9278     		ldrb	r2, [r2, #2]
 3214 028e 374F     		ldr	r7, .L504+88
 3215 0290 E6E7     		b	.L497
 3216              	.L346:
1225:.\fun.c       ****                     break;
1226:.\fun.c       ****                 case 3:
1227:.\fun.c       ****                     DisFlag.sflash = 0;
 3217              		.loc 1 1227 0
 3218 0292 5E78     		ldrb	r6, [r3, #1]
1228:.\fun.c       ****                     DisFlag.hflash = 0;
1229:.\fun.c       ****                     DisFlag.jflash = 0;
1230:.\fun.c       ****                     DisFlag.kflash = 1;
 3219              		.loc 1 1230 0
 3220 0294 CF20     		mov	r0, #207
1228:.\fun.c       ****                     DisFlag.hflash = 0;
 3221              		.loc 1 1228 0
 3222 0296 8E43     		bic	r6, r1
 3223 0298 311C     		mov	r1, r6
 3224              		.loc 1 1230 0
ARM GAS  C:\Users\ZHANGM~1\AppData\Local\Temp\cccEtK9g.s 			page 82


 3225 029a 0140     		and	r1, r0
1231:.\fun.c       ****                     DisFlag.lflash = 0;
 3226              		.loc 1 1231 0
 3227 029c 4027     		mov	r7, #64
 3228 029e 3943     		orr	r1, r7
 3229 02a0 7F26     		mov	r6, #127
1232:.\fun.c       ****                     DisFlag.mflash = 0;
 3230              		.loc 1 1232 0
 3231 02a2 9878     		ldrb	r0, [r3, #2]
1231:.\fun.c       ****                     DisFlag.lflash = 0;
 3232              		.loc 1 1231 0
 3233 02a4 3140     		and	r1, r6
 3234 02a6 5970     		strb	r1, [r3, #1]
 3235              		.loc 1 1232 0
 3236 02a8 0121     		mov	r1, #1
 3237 02aa 8843     		bic	r0, r1
 3238 02ac 9870     		strb	r0, [r3, #2]
1233:.\fun.c       ****                     if(WorkFlag.yanshista==1)
 3239              		.loc 1 1233 0
 3240 02ae 6378     		ldrb	r3, [r4, #1]
 3241 02b0 0B42     		tst	r3, r1
 3242 02b2 02D0     		beq	.L353
1234:.\fun.c       ****                     	jixingnumber=4;
 3243              		.loc 1 1234 0
 3244 02b4 2A4E     		ldr	r6, .L504+76
 3245 02b6 0427     		mov	r7, #4
 3246 02b8 3770     		strb	r7, [r6]
 3247              	.L353:
1235:.\fun.c       ****                     tempk=templvxin[3];
 3248              		.loc 1 1235 0
 3249 02ba D278     		ldrb	r2, [r2, #3]
 3250 02bc 2C4F     		ldr	r7, .L504+92
 3251 02be CFE7     		b	.L497
 3252              	.L347:
1236:.\fun.c       ****                     break;
1237:.\fun.c       ****                 case 4:
1238:.\fun.c       ****                     DisFlag.sflash = 0;
 3253              		.loc 1 1238 0
 3254 02c0 5F78     		ldrb	r7, [r3, #1]
1239:.\fun.c       ****                     DisFlag.hflash = 0;
1240:.\fun.c       ****                     DisFlag.jflash = 0;
1241:.\fun.c       ****                     DisFlag.kflash = 0;
1242:.\fun.c       ****                     DisFlag.lflash = 1;
 3255              		.loc 1 1242 0
 3256 02c2 8F20     		mov	r0, #143
1239:.\fun.c       ****                     DisFlag.hflash = 0;
 3257              		.loc 1 1239 0
 3258 02c4 8F43     		bic	r7, r1
 3259 02c6 3E1C     		mov	r6, r7
 3260              		.loc 1 1242 0
 3261 02c8 8021     		mov	r1, #128
 3262 02ca 0640     		and	r6, r0
 3263 02cc 4F42     		neg	r7, r1
 3264 02ce 3E43     		orr	r6, r7
 3265 02d0 5E70     		strb	r6, [r3, #1]
1243:.\fun.c       ****                     DisFlag.mflash = 0;
 3266              		.loc 1 1243 0
ARM GAS  C:\Users\ZHANGM~1\AppData\Local\Temp\cccEtK9g.s 			page 83


 3267 02d2 9E78     		ldrb	r6, [r3, #2]
 3268 02d4 0120     		mov	r0, #1
 3269 02d6 8643     		bic	r6, r0
 3270 02d8 9E70     		strb	r6, [r3, #2]
1244:.\fun.c       ****                     if(WorkFlag.yanshista==1)
 3271              		.loc 1 1244 0
 3272 02da 6378     		ldrb	r3, [r4, #1]
 3273 02dc 0342     		tst	r3, r0
 3274 02de 02D0     		beq	.L354
1245:.\fun.c       ****                     	jixingnumber=5;
 3275              		.loc 1 1245 0
 3276 02e0 1F4F     		ldr	r7, .L504+76
 3277 02e2 0521     		mov	r1, #5
 3278 02e4 3970     		strb	r1, [r7]
 3279              	.L354:
1246:.\fun.c       ****                     templ=templvxin[4];
 3280              		.loc 1 1246 0
 3281 02e6 1279     		ldrb	r2, [r2, #4]
 3282 02e8 224F     		ldr	r7, .L504+96
 3283 02ea B9E7     		b	.L497
 3284              	.L348:
1247:.\fun.c       ****                     break;
1248:.\fun.c       ****                 case 5:
1249:.\fun.c       ****                     DisFlag.sflash = 0;
 3285              		.loc 1 1249 0
 3286 02ec 5E78     		ldrb	r6, [r3, #1]
1250:.\fun.c       ****                     DisFlag.hflash = 0;
1251:.\fun.c       ****                     DisFlag.jflash = 0;
1252:.\fun.c       ****                     DisFlag.kflash = 0;
1253:.\fun.c       ****                     DisFlag.lflash = 0;
1254:.\fun.c       ****                     DisFlag.mflash = 1;
 3287              		.loc 1 1254 0
 3288 02ee 9F78     		ldrb	r7, [r3, #2]
1250:.\fun.c       ****                     DisFlag.hflash = 0;
 3289              		.loc 1 1250 0
 3290 02f0 8E43     		bic	r6, r1
 3291 02f2 311C     		mov	r1, r6
1253:.\fun.c       ****                     DisFlag.lflash = 0;
 3292              		.loc 1 1253 0
 3293 02f4 0F20     		mov	r0, #15
 3294              		.loc 1 1254 0
 3295 02f6 0126     		mov	r6, #1
1253:.\fun.c       ****                     DisFlag.lflash = 0;
 3296              		.loc 1 1253 0
 3297 02f8 0140     		and	r1, r0
 3298              		.loc 1 1254 0
 3299 02fa 3743     		orr	r7, r6
1253:.\fun.c       ****                     DisFlag.lflash = 0;
 3300              		.loc 1 1253 0
 3301 02fc 5970     		strb	r1, [r3, #1]
 3302              		.loc 1 1254 0
 3303 02fe 9F70     		strb	r7, [r3, #2]
1255:.\fun.c       ****                     if(WorkFlag.yanshista==1)
 3304              		.loc 1 1255 0
 3305 0300 6378     		ldrb	r3, [r4, #1]
 3306 0302 3342     		tst	r3, r6
 3307 0304 02D0     		beq	.L355
ARM GAS  C:\Users\ZHANGM~1\AppData\Local\Temp\cccEtK9g.s 			page 84


1256:.\fun.c       ****                     	jixingnumber=6;
 3308              		.loc 1 1256 0
 3309 0306 1648     		ldr	r0, .L504+76
 3310 0308 0621     		mov	r1, #6
 3311 030a 0170     		strb	r1, [r0]
 3312              	.L355:
1257:.\fun.c       ****                     tempm=templvxin[5];
 3313              		.loc 1 1257 0
 3314 030c 5279     		ldrb	r2, [r2, #5]
 3315 030e 1A4F     		ldr	r7, .L504+100
 3316 0310 A6E7     		b	.L497
 3317              	.L505:
 3318 0312 C046     		.align	2
 3319              	.L504:
 3320 0314 00000000 		.word	WorkFlag
 3321 0318 00000000 		.word	BtnData1
 3322 031c 00000000 		.word	NBstandcnt
 3323 0320 2B010000 		.word	299
 3324 0324 00000000 		.word	BtnData2
 3325 0328 00000000 		.word	NBfig
 3326 032c 00000000 		.word	BUZfkg
 3327 0330 00000000 		.word	NBmint
 3328 0334 00000000 		.word	LXXZstandcnt
 3329 0338 00000000 		.word	lXXZcnt_fig
 3330 033c 00000000 		.word	PressFlag
 3331 0340 00000000 		.word	LvXinNum1
 3332 0344 00000000 		.word	XzPressCnt
 3333 0348 00000000 		.word	DisFlag
 3334 034c 00000000 		.word	LXXZOUT_fig
 3335 0350 00000000 		.word	LvXinNum
 3336 0354 00000000 		.word	LvxinJishi
 3337 0358 00000000 		.word	Filter_Changed_Num
 3338 035c 00000000 		.word	templvxin
 3339 0360 00000000 		.word	jixingnumber
 3340 0364 00000000 		.word	temps
 3341 0368 00000000 		.word	temph
 3342 036c 00000000 		.word	tempj
 3343 0370 00000000 		.word	tempk
 3344 0374 00000000 		.word	templ
 3345 0378 00000000 		.word	tempm
 3346              	.L342:
1258:.\fun.c       ****                     break;
1259:.\fun.c       ****                 default:
1260:.\fun.c       ****                     DisFlag.sflash = 0;
 3347              		.loc 1 1260 0
 3348 037c 5E78     		ldrb	r6, [r3, #1]
1261:.\fun.c       ****                     DisFlag.hflash = 0;
1262:.\fun.c       ****                     DisFlag.jflash = 0;
1263:.\fun.c       ****                     DisFlag.kflash = 0;
1264:.\fun.c       ****                     DisFlag.lflash = 0;
1265:.\fun.c       ****                     DisFlag.mflash = 0;
 3349              		.loc 1 1265 0
 3350 037e 9878     		ldrb	r0, [r3, #2]
1264:.\fun.c       ****                     DisFlag.lflash = 0;
 3351              		.loc 1 1264 0
 3352 0380 0721     		mov	r1, #7
 3353              		.loc 1 1265 0
ARM GAS  C:\Users\ZHANGM~1\AppData\Local\Temp\cccEtK9g.s 			page 85


 3354 0382 0122     		mov	r2, #1
1264:.\fun.c       ****                     DisFlag.lflash = 0;
 3355              		.loc 1 1264 0
 3356 0384 3140     		and	r1, r6
 3357              		.loc 1 1265 0
 3358 0386 9043     		bic	r0, r2
1264:.\fun.c       ****                     DisFlag.lflash = 0;
 3359              		.loc 1 1264 0
 3360 0388 5970     		strb	r1, [r3, #1]
 3361              		.loc 1 1265 0
 3362 038a 9870     		strb	r0, [r3, #2]
 3363              	.L322:
1266:.\fun.c       ****                     break;
1267:.\fun.c       ****             }
1268:.\fun.c       ****      
1269:.\fun.c       ****         }
1270:.\fun.c       ****     
1271:.\fun.c       ****     } 
1272:.\fun.c       **** 
1273:.\fun.c       **** 
1274:.\fun.c       ****  
1275:.\fun.c       ****    /* //工作状态***************************************************************
1276:.\fun.c       ****   长按南北键*/
1277:.\fun.c       ****     if((BtnData1 & (1 << BTN_NB))&&(BtnData2 & (1 << BTN_NB)))
 3364              		.loc 1 1277 0
 3365 038c 2B78     		ldrb	r3, [r5]
 3366 038e 0827     		mov	r7, #8
 3367 0390 8D4E     		ldr	r6, .L506
 3368 0392 3B42     		tst	r3, r7
 3369 0394 1FD0     		beq	.L356
 3370              		.loc 1 1277 0 is_stmt 0 discriminator 1
 3371 0396 8D49     		ldr	r1, .L506+4
 3372 0398 0878     		ldrb	r0, [r1]
 3373 039a 3842     		tst	r0, r7
 3374 039c 1BD0     		beq	.L356
1278:.\fun.c       ****     {
1279:.\fun.c       ****         if((NbPressCnt > TIMER5S)&&(PowerOnOneHourCnt < TIMER1H ))    // TIMER1H 500 * 100ms 5S
 3375              		.loc 1 1279 0 is_stmt 1
 3376 039e 3678     		ldrb	r6, [r6]
 3377 03a0 322E     		cmp	r6, #50
 3378 03a2 1CD9     		bls	.L357
 3379              		.loc 1 1279 0 is_stmt 0 discriminator 1
 3380 03a4 8A49     		ldr	r1, .L506+8
 3381 03a6 8B4A     		ldr	r2, .L506+12
 3382 03a8 0868     		ldr	r0, [r1]
 3383 03aa 9042     		cmp	r0, r2
 3384 03ac 17D8     		bhi	.L357
1280:.\fun.c       ****        {
1281:.\fun.c       ****             if(NBPressStart == 0)
 3385              		.loc 1 1281 0 is_stmt 1
 3386 03ae 8A4F     		ldr	r7, .L506+16
 3387 03b0 3E78     		ldrb	r6, [r7]
 3388 03b2 002E     		cmp	r6, #0
 3389 03b4 13D1     		bne	.L357
1282:.\fun.c       ****             {
1283:.\fun.c       ****                 NBPressStart =1;
 3390              		.loc 1 1283 0
ARM GAS  C:\Users\ZHANGM~1\AppData\Local\Temp\cccEtK9g.s 			page 86


 3391 03b6 0122     		mov	r2, #1
 3392 03b8 3A70     		strb	r2, [r7]
1284:.\fun.c       ****                 WorkFlag.quyuxzsta = 1;
 3393              		.loc 1 1284 0
 3394 03ba 2178     		ldrb	r1, [r4]
 3395 03bc 1023     		mov	r3, #16
 3396 03be 1943     		orr	r1, r3
1285:.\fun.c       ****                 BUZfkg=1;
1286:.\fun.c       ****                 if(NBfig==1)
 3397              		.loc 1 1286 0
 3398 03c0 864D     		ldr	r5, .L506+20
1284:.\fun.c       ****                 WorkFlag.quyuxzsta = 1;
 3399              		.loc 1 1284 0
 3400 03c2 2170     		strb	r1, [r4]
 3401              		.loc 1 1286 0
 3402 03c4 2878     		ldrb	r0, [r5]
1285:.\fun.c       ****                 BUZfkg=1;
 3403              		.loc 1 1285 0
 3404 03c6 864C     		ldr	r4, .L506+24
 3405 03c8 2270     		strb	r2, [r4]
 3406              		.loc 1 1286 0
 3407 03ca 9042     		cmp	r0, r2
 3408 03cc 01D1     		bne	.L358
1287:.\fun.c       **** 									NBfig=0;                         
 3409              		.loc 1 1287 0
 3410 03ce 2E70     		strb	r6, [r5]
 3411 03d0 F8E0     		b	.L315
 3412              	.L358:
1288:.\fun.c       ****                 else
1289:.\fun.c       **** 									NBfig=1;                        
 3413              		.loc 1 1289 0
 3414 03d2 2A70     		strb	r2, [r5]
 3415 03d4 F6E0     		b	.L315
 3416              	.L356:
1290:.\fun.c       ****                return;
1291:.\fun.c       ****             }        
1292:.\fun.c       ****        }
1293:.\fun.c       ****     
1294:.\fun.c       ****     }
1295:.\fun.c       ****     else
1296:.\fun.c       ****     {       
1297:.\fun.c       ****         NBPressStart =0;
 3417              		.loc 1 1297 0
 3418 03d6 804F     		ldr	r7, .L506+16
 3419 03d8 0022     		mov	r2, #0
 3420 03da 3A70     		strb	r2, [r7]
1298:.\fun.c       ****         NbPressCnt = 0;
 3421              		.loc 1 1298 0
 3422 03dc 3270     		strb	r2, [r6]
 3423              	.L357:
1299:.\fun.c       ****     }
1300:.\fun.c       ****         //短按，手动保养键
1301:.\fun.c       ****     if((BtnData1 & (1 << BTN_SDBY))&&(!(BtnData2 & (1 << BTN_SDBY))))
 3424              		.loc 1 1301 0
 3425 03de 0120     		mov	r0, #1
 3426 03e0 0342     		tst	r3, r0
 3427 03e2 0AD0     		beq	.L359
ARM GAS  C:\Users\ZHANGM~1\AppData\Local\Temp\cccEtK9g.s 			page 87


 3428              		.loc 1 1301 0 is_stmt 0 discriminator 1
 3429 03e4 7949     		ldr	r1, .L506+4
 3430 03e6 0A78     		ldrb	r2, [r1]
 3431 03e8 0242     		tst	r2, r0
 3432 03ea 06D1     		bne	.L359
1302:.\fun.c       ****     {
1303:.\fun.c       ****         BUZfkg=1;
 3433              		.loc 1 1303 0 is_stmt 1
 3434 03ec 7C4F     		ldr	r7, .L506+24
 3435 03ee 3870     		strb	r0, [r7]
1304:.\fun.c       ****        WorkFlag.shoudongbystabak = 1;   
 3436              		.loc 1 1304 0
 3437 03f0 2678     		ldrb	r6, [r4]
 3438 03f2 8020     		mov	r0, #128
 3439 03f4 4142     		neg	r1, r0
 3440 03f6 3143     		orr	r1, r6
 3441 03f8 2170     		strb	r1, [r4]
 3442              	.L359:
1305:.\fun.c       ****     } 
1306:.\fun.c       **** 		/*
1307:.\fun.c       **** 		上电10S内同时按下选择键和复位键，持续到10S后进入商场演示状态
1308:.\fun.c       **** 		 */
1309:.\fun.c       ****     if(((WorkFlag.lxxzwf == 0)||(WorkFlag.lxxzwf == 2)))               
 3443              		.loc 1 1309 0
 3444 03fa A778     		ldrb	r7, [r4, #2]
 3445 03fc 6022     		mov	r2, #96
 3446 03fe 3A40     		and	r2, r7
 3447 0400 01D0     		beq	.L360
 3448              		.loc 1 1309 0 is_stmt 0 discriminator 1
 3449 0402 402A     		cmp	r2, #64
 3450 0404 3FD1     		bne	.L361
 3451              	.L360:
1310:.\fun.c       ****     {
1311:.\fun.c       ****         //判断是否有选择键和复位键同时按下
1312:.\fun.c       ****         if(((BtnData1 & (1 << BTN_XZ))&&(BtnData2 & (1 << BTN_XZ)))&&
 3452              		.loc 1 1312 0 is_stmt 1
 3453 0406 0420     		mov	r0, #4
 3454 0408 764F     		ldr	r7, .L506+28
 3455 040a 0342     		tst	r3, r0
 3456 040c 33D0     		beq	.L362
 3457              		.loc 1 1312 0 is_stmt 0 discriminator 1
 3458 040e 6F4E     		ldr	r6, .L506+4
 3459 0410 3178     		ldrb	r1, [r6]
 3460 0412 0142     		tst	r1, r0
 3461 0414 2FD0     		beq	.L362
1313:.\fun.c       ****            ((BtnData1 & (1 << BTN_FW))&&(BtnData2 & (1 << BTN_FW)))&&
 3462              		.loc 1 1313 0 is_stmt 1 discriminator 1
 3463 0416 0220     		mov	r0, #2
1312:.\fun.c       ****         if(((BtnData1 & (1 << BTN_XZ))&&(BtnData2 & (1 << BTN_XZ)))&&
 3464              		.loc 1 1312 0 discriminator 1
 3465 0418 0342     		tst	r3, r0
 3466 041a 0FD0     		beq	.L363
 3467              		.loc 1 1313 0
 3468 041c 0142     		tst	r1, r0
 3469 041e 0DD0     		beq	.L363
 3470              		.loc 1 1313 0 is_stmt 0 discriminator 1
 3471 0420 002A     		cmp	r2, #0
ARM GAS  C:\Users\ZHANGM~1\AppData\Local\Temp\cccEtK9g.s 			page 88


 3472 0422 0BD1     		bne	.L363
1314:.\fun.c       ****            (WorkFlag.lxxzwf == 0))
1315:.\fun.c       ****         {
1316:.\fun.c       ****             PressFlag.xzpressstart = 1;
 3473              		.loc 1 1316 0 is_stmt 1
 3474 0424 7049     		ldr	r1, .L506+32
 3475 0426 0126     		mov	r6, #1
 3476 0428 0B78     		ldrb	r3, [r1]
 3477 042a 3343     		orr	r3, r6
 3478 042c 0B70     		strb	r3, [r1]
1317:.\fun.c       ****             XzPressCnt = 0;
 3479              		.loc 1 1317 0
 3480 042e 3A70     		strb	r2, [r7]
1318:.\fun.c       ****             WorkFlag.lxxzwf = 1;    //标志置1
 3481              		.loc 1 1318 0
 3482 0430 A078     		ldrb	r0, [r4, #2]
 3483 0432 6022     		mov	r2, #96
 3484 0434 9043     		bic	r0, r2
 3485 0436 2021     		mov	r1, #32
 3486 0438 0843     		orr	r0, r1
 3487 043a A070     		strb	r0, [r4, #2]
 3488              	.L363:
1319:.\fun.c       ****         }        
1320:.\fun.c       ****         //长按选择键5S
1321:.\fun.c       ****         if((BtnData1 & (1 << BTN_XZ))&&(BtnData2 & (1 << BTN_XZ)))
1322:.\fun.c       ****         {
1323:.\fun.c       ****             if(XzPressCnt > TIMER5S)//debug
 3489              		.loc 1 1323 0
 3490 043c 3F78     		ldrb	r7, [r7]
 3491 043e 322F     		cmp	r7, #50
 3492 0440 5DD9     		bls	.L364
 3493              	.L381:
1324:.\fun.c       ****             {
1325:.\fun.c       ****                 if(PressFlag.xzpressstart == 0)
 3494              		.loc 1 1325 0
 3495 0442 694B     		ldr	r3, .L506+32
 3496 0444 0122     		mov	r2, #1
 3497 0446 1E78     		ldrb	r6, [r3]
 3498 0448 1642     		tst	r6, r2
 3499 044a 58D1     		bne	.L364
1326:.\fun.c       ****                 {
1327:.\fun.c       ****                     
1328:.\fun.c       ****                     PressFlag.xzpressstart = 1;
1329:.\fun.c       ****                     BUZfkg=1;
 3500              		.loc 1 1329 0
 3501 044c 644F     		ldr	r7, .L506+24
1328:.\fun.c       ****                     PressFlag.xzpressstart = 1;
 3502              		.loc 1 1328 0
 3503 044e 1643     		orr	r6, r2
 3504 0450 1E70     		strb	r6, [r3]
 3505              		.loc 1 1329 0
 3506 0452 3A70     		strb	r2, [r7]
1330:.\fun.c       ****                     WorkFlag.lvxingxzsta = 1;
 3507              		.loc 1 1330 0
 3508 0454 2678     		ldrb	r6, [r4]
 3509 0456 2021     		mov	r1, #32
 3510 0458 0E43     		orr	r6, r1
ARM GAS  C:\Users\ZHANGM~1\AppData\Local\Temp\cccEtK9g.s 			page 89


1331:.\fun.c       ****                     //WorkFlag.worksta = 0;
1332:.\fun.c       ****                     
1333:.\fun.c       ****                     DisFlag.sflash = 1;
 3511              		.loc 1 1333 0
 3512 045a 644B     		ldr	r3, .L506+36
1330:.\fun.c       ****                     WorkFlag.lvxingxzsta = 1;
 3513              		.loc 1 1330 0
 3514 045c 2670     		strb	r6, [r4]
 3515              		.loc 1 1333 0
 3516 045e 5C78     		ldrb	r4, [r3, #1]
1334:.\fun.c       ****                     DisFlag.hflash = 1;
1335:.\fun.c       ****                     DisFlag.jflash = 1;
 3517              		.loc 1 1335 0
 3518 0460 1825     		mov	r5, #24
 3519 0462 2543     		orr	r5, r4
1336:.\fun.c       ****                     DisFlag.kflash = 1;
1337:.\fun.c       ****                     DisFlag.lflash = 1;
 3520              		.loc 1 1337 0
 3521 0464 4020     		mov	r0, #64
1336:.\fun.c       ****                     DisFlag.kflash = 1;
 3522              		.loc 1 1336 0
 3523 0466 2943     		orr	r1, r5
 3524              		.loc 1 1337 0
 3525 0468 4742     		neg	r7, r0
1338:.\fun.c       ****                     DisFlag.mflash = 1;
 3526              		.loc 1 1338 0
 3527 046a 9E78     		ldrb	r6, [r3, #2]
1337:.\fun.c       ****                     DisFlag.lflash = 1;
 3528              		.loc 1 1337 0
 3529 046c 3943     		orr	r1, r7
 3530 046e 5970     		strb	r1, [r3, #1]
 3531              		.loc 1 1338 0
 3532 0470 3243     		orr	r2, r6
 3533              	.L500:
 3534 0472 9A70     		strb	r2, [r3, #2]
1339:.\fun.c       ****              
1340:.\fun.c       ****                    return;
 3535              		.loc 1 1340 0
 3536 0474 A6E0     		b	.L315
 3537              	.L362:
1341:.\fun.c       ****                 }
1342:.\fun.c       ****             }
1343:.\fun.c       ****         }else
1344:.\fun.c       ****         {
1345:.\fun.c       ****             PressFlag.xzpressstart = 0;
 3538              		.loc 1 1345 0
 3539 0476 5C4B     		ldr	r3, .L506+32
 3540 0478 0120     		mov	r0, #1
 3541 047a 1A78     		ldrb	r2, [r3]
1346:.\fun.c       ****             XzPressCnt = 0;
 3542              		.loc 1 1346 0
 3543 047c 0026     		mov	r6, #0
1345:.\fun.c       ****             PressFlag.xzpressstart = 0;
 3544              		.loc 1 1345 0
 3545 047e 8243     		bic	r2, r0
 3546 0480 1A70     		strb	r2, [r3]
 3547              		.loc 1 1346 0
ARM GAS  C:\Users\ZHANGM~1\AppData\Local\Temp\cccEtK9g.s 			page 90


 3548 0482 3E70     		strb	r6, [r7]
 3549 0484 3BE0     		b	.L364
 3550              	.L361:
1347:.\fun.c       ****         }
1348:.\fun.c       ****         
1349:.\fun.c       **** 
1350:.\fun.c       ****        
1351:.\fun.c       ****         
1352:.\fun.c       ****     
1353:.\fun.c       ****     }            
1354:.\fun.c       ****     else if(WorkFlag.lxxzwf == 1)
 3551              		.loc 1 1354 0
 3552 0486 202A     		cmp	r2, #32
 3553 0488 39D1     		bne	.L364
1355:.\fun.c       ****     {
1356:.\fun.c       ****        if(PowerOnCnt00 <TIMER10S)
 3554              		.loc 1 1356 0
 3555 048a 594E     		ldr	r6, .L506+40
 3556 048c 3088     		ldrh	r0, [r6]
 3557 048e 6328     		cmp	r0, #99
 3558 0490 1CD8     		bhi	.L366
1357:.\fun.c       ****         {        
1358:.\fun.c       ****             //判断选择键和复位键是否持续同时按下
1359:.\fun.c       ****             if(((BtnData1 & (1 << BTN_XZ))&&(BtnData2 & (1 << BTN_XZ)))&&
 3559              		.loc 1 1359 0
 3560 0492 0426     		mov	r6, #4
 3561 0494 574F     		ldr	r7, .L506+44
 3562 0496 3342     		tst	r3, r6
 3563 0498 0BD0     		beq	.L367
 3564              		.loc 1 1359 0 is_stmt 0 discriminator 1
 3565 049a 4C48     		ldr	r0, .L506+4
 3566 049c 0278     		ldrb	r2, [r0]
 3567 049e 3242     		tst	r2, r6
 3568 04a0 07D0     		beq	.L367
1360:.\fun.c       ****                ((BtnData1 & (1 << BTN_FW))&&(BtnData2 & (1 << BTN_FW))))
 3569              		.loc 1 1360 0 is_stmt 1 discriminator 1
 3570 04a2 0221     		mov	r1, #2
1359:.\fun.c       ****             if(((BtnData1 & (1 << BTN_XZ))&&(BtnData2 & (1 << BTN_XZ)))&&
 3571              		.loc 1 1359 0 discriminator 1
 3572 04a4 0B42     		tst	r3, r1
 3573 04a6 04D0     		beq	.L367
 3574              		.loc 1 1360 0
 3575 04a8 0A42     		tst	r2, r1
 3576 04aa 02D0     		beq	.L367
1361:.\fun.c       ****             {                 
1362:.\fun.c       ****                 yanshifig=1;                 
 3577              		.loc 1 1362 0
 3578 04ac 0123     		mov	r3, #1
 3579 04ae 3B70     		strb	r3, [r7]
 3580 04b0 25E0     		b	.L364
 3581              	.L367:
1363:.\fun.c       ****             }
1364:.\fun.c       ****             
1365:.\fun.c       ****             else
1366:.\fun.c       ****             {//否，其中一个键释放
1367:.\fun.c       ****                 WorkFlag.lxxzwf = 2;
 3582              		.loc 1 1367 0
ARM GAS  C:\Users\ZHANGM~1\AppData\Local\Temp\cccEtK9g.s 			page 91


 3583 04b2 A378     		ldrb	r3, [r4, #2]
 3584 04b4 6026     		mov	r6, #96
 3585 04b6 B343     		bic	r3, r6
 3586 04b8 4020     		mov	r0, #64
 3587 04ba 0343     		orr	r3, r0
1368:.\fun.c       ****                  yanshifig=0;
 3588              		.loc 1 1368 0
 3589 04bc 0022     		mov	r2, #0
1367:.\fun.c       ****                 WorkFlag.lxxzwf = 2;
 3590              		.loc 1 1367 0
 3591 04be A370     		strb	r3, [r4, #2]
 3592              		.loc 1 1368 0
 3593 04c0 3A70     		strb	r2, [r7]
1369:.\fun.c       ****                 WorkFlag.yanshista=0;   
 3594              		.loc 1 1369 0
 3595 04c2 6778     		ldrb	r7, [r4, #1]
 3596 04c4 0121     		mov	r1, #1
 3597 04c6 8F43     		bic	r7, r1
 3598 04c8 6770     		strb	r7, [r4, #1]
 3599 04ca 18E0     		b	.L364
 3600              	.L366:
1370:.\fun.c       ****             }
1371:.\fun.c       ****             
1372:.\fun.c       ****         } 
1373:.\fun.c       ****         
1374:.\fun.c       ****         else
1375:.\fun.c       ****         {
1376:.\fun.c       ****             
1377:.\fun.c       ****             CyDelayUs(1);  
 3601              		.loc 1 1377 0
 3602 04cc 0120     		mov	r0, #1
 3603 04ce FFF7FEFF 		bl	CyDelayUs
 3604              	.LVL38:
1378:.\fun.c       ****             if(((BtnData1 & (1 << BTN_XZ))&&(BtnData2 & (1 << BTN_XZ)))&&
 3605              		.loc 1 1378 0
 3606 04d2 2F78     		ldrb	r7, [r5]
 3607 04d4 0422     		mov	r2, #4
 3608 04d6 484B     		ldr	r3, .L506+48
 3609 04d8 1742     		tst	r7, r2
 3610 04da 0AD0     		beq	.L368
 3611              		.loc 1 1378 0 is_stmt 0 discriminator 1
 3612 04dc 3B49     		ldr	r1, .L506+4
 3613 04de 0E78     		ldrb	r6, [r1]
 3614 04e0 1642     		tst	r6, r2
 3615 04e2 06D0     		beq	.L368
1379:.\fun.c       ****                ((BtnData1 & (1 << BTN_FW))&&(BtnData2 & (1 << BTN_FW))))         
 3616              		.loc 1 1379 0 is_stmt 1 discriminator 1
 3617 04e4 0220     		mov	r0, #2
1378:.\fun.c       ****             if(((BtnData1 & (1 << BTN_XZ))&&(BtnData2 & (1 << BTN_XZ)))&&
 3618              		.loc 1 1378 0 discriminator 1
 3619 04e6 0742     		tst	r7, r0
 3620 04e8 03D0     		beq	.L368
 3621              		.loc 1 1379 0
 3622 04ea 0642     		tst	r6, r0
 3623 04ec 01D0     		beq	.L368
1380:.\fun.c       ****             {
1381:.\fun.c       ****                 fastfig=1;           
ARM GAS  C:\Users\ZHANGM~1\AppData\Local\Temp\cccEtK9g.s 			page 92


 3624              		.loc 1 1381 0
 3625 04ee 0121     		mov	r1, #1
 3626 04f0 04E0     		b	.L498
 3627              	.L368:
1382:.\fun.c       ****             }    
1383:.\fun.c       ****             else
1384:.\fun.c       ****             {
1385:.\fun.c       ****                  WorkFlag.lxxzwf = 0;
 3628              		.loc 1 1385 0
 3629 04f2 A778     		ldrb	r7, [r4, #2]
 3630 04f4 6022     		mov	r2, #96
 3631 04f6 9743     		bic	r7, r2
 3632 04f8 A770     		strb	r7, [r4, #2]
1386:.\fun.c       ****                   fastfig=0;       
 3633              		.loc 1 1386 0
 3634 04fa 0021     		mov	r1, #0
 3635              	.L498:
 3636 04fc 1970     		strb	r1, [r3]
 3637              	.L364:
1387:.\fun.c       ****             }
1388:.\fun.c       ****   
1389:.\fun.c       ****         }
1390:.\fun.c       ****         
1391:.\fun.c       ****         
1392:.\fun.c       **** 
1393:.\fun.c       ****     }
1394:.\fun.c       ****    
1395:.\fun.c       ****              
1396:.\fun.c       ****    //判断是否南北键和选择键被同时按下
1397:.\fun.c       **** 
1398:.\fun.c       ****     if(((BtnData1 & (1 << BTN_XZ))&&(BtnData2 & (1 << BTN_XZ)))&&
 3638              		.loc 1 1398 0
 3639 04fe 2878     		ldrb	r0, [r5]
 3640 0500 0427     		mov	r7, #4
 3641 0502 3E4B     		ldr	r3, .L506+52
 3642 0504 3842     		tst	r0, r7
 3643 0506 13D0     		beq	.L369
 3644              		.loc 1 1398 0 is_stmt 0 discriminator 1
 3645 0508 3049     		ldr	r1, .L506+4
 3646 050a 0E78     		ldrb	r6, [r1]
 3647 050c 3E42     		tst	r6, r7
 3648 050e 0FD0     		beq	.L369
1399:.\fun.c       ****        ((BtnData1 & (1 << BTN_NB))&&(BtnData2 & (1 << BTN_NB))))
 3649              		.loc 1 1399 0 is_stmt 1 discriminator 1
 3650 0510 0822     		mov	r2, #8
1398:.\fun.c       ****     if(((BtnData1 & (1 << BTN_XZ))&&(BtnData2 & (1 << BTN_XZ)))&&
 3651              		.loc 1 1398 0 discriminator 1
 3652 0512 1042     		tst	r0, r2
 3653 0514 0CD0     		beq	.L369
 3654              		.loc 1 1399 0
 3655 0516 1642     		tst	r6, r2
 3656 0518 0AD0     		beq	.L369
1400:.\fun.c       **** 		   {
1401:.\fun.c       **** 			   	if(WifiPressCnt >TIMER1S)
 3657              		.loc 1 1401 0
 3658 051a 1F78     		ldrb	r7, [r3]
 3659 051c 0A2F     		cmp	r7, #10
ARM GAS  C:\Users\ZHANGM~1\AppData\Local\Temp\cccEtK9g.s 			page 93


 3660 051e 09D9     		bls	.L370
1402:.\fun.c       **** 			   		{
1403:.\fun.c       **** 		        	WifiPressCnt = 0;  		
 3661              		.loc 1 1403 0
 3662 0520 0021     		mov	r1, #0
1404:.\fun.c       **** 		        	Load_Command(MCU_POWERONSMARTLINK_DATA);
 3663              		.loc 1 1404 0
 3664 0522 3748     		ldr	r0, .L506+56
1403:.\fun.c       **** 		        	WifiPressCnt = 0;  		
 3665              		.loc 1 1403 0
 3666 0524 1970     		strb	r1, [r3]
 3667              		.loc 1 1404 0
 3668 0526 FFF7FEFF 		bl	Load_Command
 3669              	.LVL39:
1405:.\fun.c       **** 	  					BUZfkg=1;
 3670              		.loc 1 1405 0
 3671 052a 0120     		mov	r0, #1
 3672 052c 2C4B     		ldr	r3, .L506+24
 3673 052e 00E0     		b	.L499
 3674              	.L369:
1406:.\fun.c       **** 	  				}
1407:.\fun.c       **** 		   } 
1408:.\fun.c       **** 		else
1409:.\fun.c       **** 		 	{
1410:.\fun.c       **** 			   WifiPressCnt = 0;
 3675              		.loc 1 1410 0
 3676 0530 0020     		mov	r0, #0
 3677              	.L499:
 3678 0532 1870     		strb	r0, [r3]
 3679              	.L370:
1411:.\fun.c       **** 		 	} 	 
1412:.\fun.c       ****     if(yanshicnt>=TIMER5S) 
 3680              		.loc 1 1412 0
 3681 0534 334B     		ldr	r3, .L506+60
 3682 0536 1E78     		ldrb	r6, [r3]
 3683 0538 312E     		cmp	r6, #49
 3684 053a 04D9     		bls	.L371
1413:.\fun.c       ****     	WorkFlag.yanshista=1;
 3685              		.loc 1 1413 0
 3686 053c 6078     		ldrb	r0, [r4, #1]
 3687 053e 0127     		mov	r7, #1
 3688 0540 3843     		orr	r0, r7
 3689 0542 6070     		strb	r0, [r4, #1]
 3690 0544 0EE0     		b	.L372
 3691              	.L371:
1414:.\fun.c       ****     else if((fastcnt>=TIMER10S)&&(PowerOnCnt00<TIMER5MB)) 
 3692              		.loc 1 1414 0
 3693 0546 304C     		ldr	r4, .L506+64
 3694 0548 2278     		ldrb	r2, [r4]
 3695 054a 632A     		cmp	r2, #99
 3696 054c 0AD9     		bls	.L372
 3697              		.loc 1 1414 0 is_stmt 0 discriminator 1
 3698 054e 2848     		ldr	r0, .L506+40
 3699 0550 2E49     		ldr	r1, .L506+68
 3700 0552 0788     		ldrh	r7, [r0]
 3701 0554 8F42     		cmp	r7, r1
 3702 0556 05D8     		bhi	.L372
ARM GAS  C:\Users\ZHANGM~1\AppData\Local\Temp\cccEtK9g.s 			page 94


1415:.\fun.c       ****     {
1416:.\fun.c       ****         fastfig=0;
 3703              		.loc 1 1416 0 is_stmt 1
 3704 0558 274B     		ldr	r3, .L506+48
1417:.\fun.c       ****         faststa=1;
 3705              		.loc 1 1417 0
 3706 055a 2D4A     		ldr	r2, .L506+72
1416:.\fun.c       ****         fastfig=0;
 3707              		.loc 1 1416 0
 3708 055c 0026     		mov	r6, #0
 3709              		.loc 1 1417 0
 3710 055e 0124     		mov	r4, #1
1416:.\fun.c       ****         fastfig=0;
 3711              		.loc 1 1416 0
 3712 0560 1E70     		strb	r6, [r3]
 3713              		.loc 1 1417 0
 3714 0562 1470     		strb	r4, [r2]
 3715              	.L372:
1418:.\fun.c       ****     }   
1419:.\fun.c       ****     
1420:.\fun.c       ****     if(fastjishifig==1)
 3716              		.loc 1 1420 0
 3717 0564 2B49     		ldr	r1, .L506+76
 3718 0566 0E78     		ldrb	r6, [r1]
 3719 0568 081C     		mov	r0, r1
 3720 056a 012E     		cmp	r6, #1
 3721 056c 2AD1     		bne	.L315
1421:.\fun.c       ****     {
1422:.\fun.c       ****         if(((KEYNB)==1||(KEYXZ)==1||(KEYFW)==1||(KEYQX)==1)||(fastjishicnt>=TIMER5M))
 3722              		.loc 1 1422 0
 3723 056e 2D78     		ldrb	r5, [r5]
 3724 0570 0823     		mov	r3, #8
 3725 0572 1D42     		tst	r5, r3
 3726 0574 03D0     		beq	.L373
 3727              		.loc 1 1422 0 is_stmt 0 discriminator 1
 3728 0576 154C     		ldr	r4, .L506+4
 3729 0578 2278     		ldrb	r2, [r4]
 3730 057a 1A42     		tst	r2, r3
 3731 057c 05D0     		beq	.L374
 3732              	.L373:
 3733              		.loc 1 1422 0
 3734 057e 6A07     		lsl	r2, r5, #29
 3735 0580 0DD5     		bpl	.L375
 3736              	.L378:
 3737              		.loc 1 1422 0 discriminator 1
 3738 0582 124F     		ldr	r7, .L506+4
 3739 0584 3978     		ldrb	r1, [r7]
 3740 0586 0029     		cmp	r1, #0
 3741 0588 09D1     		bne	.L375
 3742              	.L374:
1423:.\fun.c       ****         {   
1424:.\fun.c       ****             
1425:.\fun.c       ****             BUZfkg=1;
1426:.\fun.c       ****             fastjishifig=0;
 3743              		.loc 1 1426 0 is_stmt 1
 3744 058a 0025     		mov	r5, #0
 3745 058c 0570     		strb	r5, [r0]
ARM GAS  C:\Users\ZHANGM~1\AppData\Local\Temp\cccEtK9g.s 			page 95


1425:.\fun.c       ****             BUZfkg=1;
 3746              		.loc 1 1425 0
 3747 058e 144A     		ldr	r2, .L506+24
1427:.\fun.c       ****             cleareepromArrayflag=0;
 3748              		.loc 1 1427 0
 3749 0590 2148     		ldr	r0, .L506+80
1425:.\fun.c       ****             BUZfkg=1;
 3750              		.loc 1 1425 0
 3751 0592 0124     		mov	r4, #1
 3752 0594 1470     		strb	r4, [r2]
 3753              		.loc 1 1427 0
 3754 0596 0570     		strb	r5, [r0]
1428:.\fun.c       ****             //CySoftwareReset();
1429:.\fun.c       ****             clean_ram();
 3755              		.loc 1 1429 0
 3756 0598 FFF7FEFF 		bl	clean_ram
 3757              	.LVL40:
 3758 059c 12E0     		b	.L315
 3759              	.L375:
1422:.\fun.c       ****         if(((KEYNB)==1||(KEYXZ)==1||(KEYFW)==1||(KEYQX)==1)||(fastjishicnt>=TIMER5M))
 3760              		.loc 1 1422 0
 3761 059e 0226     		mov	r6, #2
 3762 05a0 3542     		tst	r5, r6
 3763 05a2 03D0     		beq	.L376
 3764              	.L379:
1422:.\fun.c       ****         if(((KEYNB)==1||(KEYXZ)==1||(KEYFW)==1||(KEYQX)==1)||(fastjishicnt>=TIMER5M))
 3765              		.loc 1 1422 0 is_stmt 0 discriminator 1
 3766 05a4 094B     		ldr	r3, .L506+4
 3767 05a6 1C78     		ldrb	r4, [r3]
 3768 05a8 3442     		tst	r4, r6
 3769 05aa EED0     		beq	.L374
 3770              	.L376:
1422:.\fun.c       ****         if(((KEYNB)==1||(KEYXZ)==1||(KEYFW)==1||(KEYQX)==1)||(fastjishicnt>=TIMER5M))
 3771              		.loc 1 1422 0
 3772 05ac 0122     		mov	r2, #1
 3773 05ae 1542     		tst	r5, r2
 3774 05b0 03D0     		beq	.L377
 3775              	.L380:
1422:.\fun.c       ****         if(((KEYNB)==1||(KEYXZ)==1||(KEYFW)==1||(KEYQX)==1)||(fastjishicnt>=TIMER5M))
 3776              		.loc 1 1422 0 discriminator 1
 3777 05b2 064D     		ldr	r5, .L506+4
 3778 05b4 2F78     		ldrb	r7, [r5]
 3779 05b6 1742     		tst	r7, r2
 3780 05b8 E7D0     		beq	.L374
 3781              	.L377:
1422:.\fun.c       ****         if(((KEYNB)==1||(KEYXZ)==1||(KEYFW)==1||(KEYQX)==1)||(fastjishicnt>=TIMER5M))
 3782              		.loc 1 1422 0
 3783 05ba 1849     		ldr	r1, .L506+84
 3784 05bc 184B     		ldr	r3, .L506+88
 3785 05be 0E88     		ldrh	r6, [r1]
 3786 05c0 9E42     		cmp	r6, r3
 3787 05c2 E2D8     		bhi	.L374
 3788              	.L315:
1430:.\fun.c       ****         }    
1431:.\fun.c       ****     }
1432:.\fun.c       **** }
 3789              		.loc 1 1432 0 is_stmt 1
ARM GAS  C:\Users\ZHANGM~1\AppData\Local\Temp\cccEtK9g.s 			page 96


 3790              		@ sp needed for prologue
 3791 05c4 F8BD     		pop	{r3, r4, r5, r6, r7, pc}
 3792              	.L507:
 3793 05c6 C046     		.align	2
 3794              	.L506:
 3795 05c8 00000000 		.word	NbPressCnt
 3796 05cc 00000000 		.word	BtnData2
 3797 05d0 00000000 		.word	PowerOnOneHourCnt
 3798 05d4 9F8C0000 		.word	35999
 3799 05d8 00000000 		.word	NBPressStart
 3800 05dc 00000000 		.word	NBfig
 3801 05e0 00000000 		.word	BUZfkg
 3802 05e4 00000000 		.word	XzPressCnt
 3803 05e8 00000000 		.word	PressFlag
 3804 05ec 00000000 		.word	DisFlag
 3805 05f0 00000000 		.word	PowerOnCnt00
 3806 05f4 00000000 		.word	yanshifig
 3807 05f8 00000000 		.word	fastfig
 3808 05fc 00000000 		.word	WifiPressCnt
 3809 0600 C2CC0000 		.word	52418
 3810 0604 00000000 		.word	yanshicnt
 3811 0608 00000000 		.word	fastcnt
 3812 060c 6F170000 		.word	5999
 3813 0610 00000000 		.word	faststa
 3814 0614 00000000 		.word	fastjishifig
 3815 0618 00000000 		.word	cleareepromArrayflag
 3816 061c 00000000 		.word	fastjishicnt
 3817 0620 B70B0000 		.word	2999
 3818              		.cfi_endproc
 3819              	.LFE42:
 3820              		.size	key, .-key
 3821              		.section	.text.Work_Init_Fun,"ax",%progbits
 3822              		.align	1
 3823              		.global	Work_Init_Fun
 3824              		.code	16
 3825              		.thumb_func
 3826              		.type	Work_Init_Fun, %function
 3827              	Work_Init_Fun:
 3828              	.LFB43:
1433:.\fun.c       **** void Work_Init_Fun(void)
1434:.\fun.c       **** {
 3829              		.loc 1 1434 0
 3830              		.cfi_startproc
 3831 0000 70B5     		push	{r4, r5, r6, lr}
 3832              	.LCFI10:
 3833              		.cfi_def_cfa_offset 16
 3834              		.cfi_offset 4, -16
 3835              		.cfi_offset 5, -12
 3836              		.cfi_offset 6, -8
 3837              		.cfi_offset 14, -4
1435:.\fun.c       ****     //WorkFlag.worksta = 1;
1436:.\fun.c       ****    	DisFlag.wifierror = 1;        //wifi error   
 3838              		.loc 1 1436 0
 3839 0002 124B     		ldr	r3, .L509
 3840 0004 0222     		mov	r2, #2
 3841 0006 9878     		ldrb	r0, [r3, #2]
1437:.\fun.c       ****    	DisFlag.wifilinkingsign = 1;        //wifi正常    
ARM GAS  C:\Users\ZHANGM~1\AppData\Local\Temp\cccEtK9g.s 			page 97


 3842              		.loc 1 1437 0
 3843 0008 0421     		mov	r1, #4
 3844 000a 1043     		orr	r0, r2
1438:.\fun.c       ****     DisFlag.working = 1;        //亮 工作中
 3845              		.loc 1 1438 0
 3846 000c 1C78     		ldrb	r4, [r3]
1437:.\fun.c       ****    	DisFlag.wifilinkingsign = 1;        //wifi正常    
 3847              		.loc 1 1437 0
 3848 000e 0843     		orr	r0, r1
 3849 0010 9870     		strb	r0, [r3, #2]
 3850              		.loc 1 1438 0
 3851 0012 0120     		mov	r0, #1
1439:.\fun.c       ****     DisFlag.workingsign = 1;    //亮 水滴
 3852              		.loc 1 1439 0
 3853 0014 0443     		orr	r4, r0
1440:.\fun.c       ****     DisFlag.cleaning = 1;       //亮 清洗
1441:.\fun.c       ****     DisFlag.outofwater = 1;     //亮 缺水
1442:.\fun.c       ****     DisFlag.error = 1;          //亮 故障
 3854              		.loc 1 1442 0
 3855 0016 5E78     		ldrb	r6, [r3, #1]
1440:.\fun.c       ****     DisFlag.cleaning = 1;       //亮 清洗
 3856              		.loc 1 1440 0
 3857 0018 1443     		orr	r4, r2
1441:.\fun.c       ****     DisFlag.outofwater = 1;     //亮 缺水
 3858              		.loc 1 1441 0
 3859 001a 4025     		mov	r5, #64
 3860 001c 2C43     		orr	r4, r5
1443:.\fun.c       ****     DisFlag.outofwatersign = 0;    
1444:.\fun.c       ****     DisFlag.errorsign = 0;  
1445:.\fun.c       ****     DisFlag.jsll = 1;
1446:.\fun.c       ****     //DisFlag.north=1;//上电北常亮
1447:.\fun.c       ****    
1448:.\fun.c       ****     LvXinNum1 = 0;
 3861              		.loc 1 1448 0
 3862 001e 0C4D     		ldr	r5, .L509+4
1445:.\fun.c       ****     DisFlag.jsll = 1;
 3863              		.loc 1 1445 0
 3864 0020 3043     		orr	r0, r6
 3865              		.loc 1 1448 0
 3866 0022 0026     		mov	r6, #0
 3867 0024 2E70     		strb	r6, [r5]
1449:.\fun.c       ****     DisFlag.cleaningsign=1;//上电水滴常亮
1450:.\fun.c       ****     DisFlag.outofwatersign=1;//缺水指示常亮
 3868              		.loc 1 1450 0
 3869 0026 7826     		mov	r6, #120
 3870 0028 7542     		neg	r5, r6
1449:.\fun.c       ****     DisFlag.cleaningsign=1;//上电水滴常亮
 3871              		.loc 1 1449 0
 3872 002a 0C43     		orr	r4, r1
1451:.\fun.c       ****     DisFlag.errorsign=1;//故障指示也常亮
 3873              		.loc 1 1451 0
 3874 002c 0143     		orr	r1, r0
1450:.\fun.c       ****     DisFlag.outofwatersign=1;//缺水指示常亮
 3875              		.loc 1 1450 0
 3876 002e 2C43     		orr	r4, r5
 3877              		.loc 1 1451 0
 3878 0030 0A43     		orr	r2, r1
ARM GAS  C:\Users\ZHANGM~1\AppData\Local\Temp\cccEtK9g.s 			page 98


1450:.\fun.c       ****     DisFlag.outofwatersign=1;//缺水指示常亮
 3879              		.loc 1 1450 0
 3880 0032 1C70     		strb	r4, [r3]
 3881              		.loc 1 1451 0
 3882 0034 5A70     		strb	r2, [r3, #1]
1452:.\fun.c       ****     NBmint=TIMER1MB;//默认为为北方计时
 3883              		.loc 1 1452 0
 3884 0036 0749     		ldr	r1, .L509+8
 3885 0038 9623     		mov	r3, #150
1453:.\fun.c       ****    // NBfig=1;
1454:.\fun.c       ****     WorkFlag.lvxingxzsta=0;
 3886              		.loc 1 1454 0
 3887 003a 074C     		ldr	r4, .L509+12
1452:.\fun.c       ****     NBmint=TIMER1MB;//默认为为北方计时
 3888              		.loc 1 1452 0
 3889 003c 9A00     		lsl	r2, r3, #2
 3890 003e 0A80     		strh	r2, [r1]
 3891              		.loc 1 1454 0
 3892 0040 2078     		ldrb	r0, [r4]
 3893 0042 2026     		mov	r6, #32
 3894 0044 B043     		bic	r0, r6
 3895 0046 2070     		strb	r0, [r4]
1455:.\fun.c       ****     
1456:.\fun.c       **** }
 3896              		.loc 1 1456 0
 3897              		@ sp needed for prologue
 3898 0048 70BD     		pop	{r4, r5, r6, pc}
 3899              	.L510:
 3900 004a C046     		.align	2
 3901              	.L509:
 3902 004c 00000000 		.word	DisFlag
 3903 0050 00000000 		.word	LvXinNum1
 3904 0054 00000000 		.word	NBmint
 3905 0058 00000000 		.word	WorkFlag
 3906              		.cfi_endproc
 3907              	.LFE43:
 3908              		.size	Work_Init_Fun, .-Work_Init_Fun
 3909              		.section	.text.Wifi_Fun,"ax",%progbits
 3910              		.align	1
 3911              		.global	Wifi_Fun
 3912              		.code	16
 3913              		.thumb_func
 3914              		.type	Wifi_Fun, %function
 3915              	Wifi_Fun:
 3916              	.LFB44:
1457:.\fun.c       **** 
1458:.\fun.c       **** 
1459:.\fun.c       **** void Wifi_Fun(void)
1460:.\fun.c       **** {
 3917              		.loc 1 1460 0
 3918              		.cfi_startproc
 3919 0000 08B5     		push	{r3, lr}
 3920              	.LCFI11:
 3921              		.cfi_def_cfa_offset 8
 3922              		.cfi_offset 3, -8
 3923              		.cfi_offset 14, -4
1461:.\fun.c       **** 
ARM GAS  C:\Users\ZHANGM~1\AppData\Local\Temp\cccEtK9g.s 			page 99


1462:.\fun.c       **** 	Uart_Exception_Handl();
 3924              		.loc 1 1462 0
 3925 0002 FFF7FEFF 		bl	Uart_Exception_Handl
 3926              	.LVL41:
1463:.\fun.c       **** 	Send_To_WifiUart();
 3927              		.loc 1 1463 0
 3928 0006 FFF7FEFF 		bl	Send_To_WifiUart
 3929              	.LVL42:
1464:.\fun.c       **** 	//SmarkLink_State=WIFI_SENDDINGSTATE_DATA_LINK_SERVER;
1465:.\fun.c       **** 	switch(SmarkLink_State)
 3930              		.loc 1 1465 0
 3931 000a 124B     		ldr	r3, .L526
 3932 000c 1878     		ldrb	r0, [r3]
 3933 000e 124B     		ldr	r3, .L526+4
 3934 0010 0828     		cmp	r0, #8
 3935 0012 19D8     		bhi	.L512
 3936 0014 0222     		mov	r2, #2
1466:.\fun.c       **** 	{
1467:.\fun.c       **** 		case WIFI_SENDDINGSTATE_DATA_NO_LINK_ROUTER://：无法连接路由器				      
1468:.\fun.c       **** 			DisFlag.wifierror=1;
1469:.\fun.c       **** 			DisFlag.wifilinkingsignflash=0;
1470:.\fun.c       **** 			DisFlag.wifilinkingsign=0;			  				  					  					  					  					  					  					  				  					  				
1471:.\fun.c       **** 		  break;
1472:.\fun.c       **** 		case WIFI_SENDDINGSTATE_DATA_NO_LINK_SERVER://01：无法连接服务器				      
1473:.\fun.c       **** 			DisFlag.wifierror=1;
1474:.\fun.c       **** 			DisFlag.wifilinkingsignflash=0;
1475:.\fun.c       **** 			DisFlag.wifilinkingsign=0;		  				  				  					  					  					  					  					  					  				  					 
1476:.\fun.c       **** 		  break;
1477:.\fun.c       **** 		case WIFI_SENDDINGSTATE_DATA_LINK_ROUTER:	//：已经路由器（指示灯常亮）			      
1478:.\fun.c       **** 			DisFlag.wifierror=0;
1479:.\fun.c       **** 			DisFlag.wifilinkingsignflash=1;
1480:.\fun.c       **** 			DisFlag.wifilinkingsign=0;			  				  					  					  					  					  					  					  				  					  				
1481:.\fun.c       **** 		  break;
1482:.\fun.c       **** 		case WIFI_SENDDINGSTATE_DATA_LINK_SERVER:		//03：已连接服务器（指示灯常亮）		      
1483:.\fun.c       **** 			DisFlag.wifierror=0;
1484:.\fun.c       **** 			DisFlag.wifilinkingsignflash=0;
1485:.\fun.c       **** 			DisFlag.wifilinkingsign=1;	   				  				  					  					  					  					  					  					  				  					 
1486:.\fun.c       **** 		  break;
1487:.\fun.c       **** 		case WIFI_SENDDINGSTATE_DATA_LINK_SMART_SETTING:		//已进入SmartLink等待App配置(指示灯
1488:.\fun.c       **** 			DisFlag.wifierror=0;
1489:.\fun.c       **** 			DisFlag.wifilinkingsignflash=1;
1490:.\fun.c       **** 			DisFlag.wifilinkingsign=0;					     				  				  					  					  					  					  					  					  				  
1491:.\fun.c       **** 		  break;
1492:.\fun.c       **** 		case WIFI_SENDDINGSTATE_DATA_LINK_SMART_SETTING_WAITTING:	//05：正在进SmartLink 配置中(指
1493:.\fun.c       **** 			DisFlag.wifierror=0;
1494:.\fun.c       **** 			DisFlag.wifilinkingsignflash=1;
1495:.\fun.c       **** 			DisFlag.wifilinkingsign=0;	  
1496:.\fun.c       **** 		  break;
1497:.\fun.c       **** 		case WIFI_SENDDINGSTATE_DATA_SMART_SETTING_FAIL:	//06：SmartLink 配置失败
1498:.\fun.c       **** 			DisFlag.wifierror=1;
1499:.\fun.c       **** 			DisFlag.wifilinkingsignflash=0;
1500:.\fun.c       **** 			DisFlag.wifilinkingsign=0;	 			      
1501:.\fun.c       **** 		  break;
1502:.\fun.c       **** 		case WIFI_SENDDINGSTATE_DATA_SMART_SETTING_OK:	//07：SmartLink配置成功（指示灯常亮同
1503:.\fun.c       **** 			DisFlag.wifierror=0;
1504:.\fun.c       **** 			DisFlag.wifilinkingsignflash=1;
1505:.\fun.c       **** 			DisFlag.wifilinkingsign=0;	 			      			     				  				  					  					  					  					  					  				
ARM GAS  C:\Users\ZHANGM~1\AppData\Local\Temp\cccEtK9g.s 			page 100


1506:.\fun.c       **** 		  break;
1507:.\fun.c       **** 		case WIFI_SENDDINGSTATE_DATA_SOFTAP:	//08：SoftAP状态	
1508:.\fun.c       **** 			DisFlag.wifierror=0;
 3937              		.loc 1 1508 0
 3938 0016 9978     		ldrb	r1, [r3, #2]
1465:.\fun.c       **** 	switch(SmarkLink_State)
 3939              		.loc 1 1465 0
 3940 0018 FFF7FEFF 		bl	__gnu_thumb1_case_uqi
 3941              	.L522:
 3942 001c 0C       		.byte	(.L519-.L522)/2
 3943 001d 0C       		.byte	(.L519-.L522)/2
 3944 001e 0F       		.byte	(.L521-.L522)/2
 3945 001f 05       		.byte	(.L516-.L522)/2
 3946 0020 0F       		.byte	(.L521-.L522)/2
 3947 0021 0F       		.byte	(.L521-.L522)/2
 3948 0022 0C       		.byte	(.L519-.L522)/2
 3949 0023 0F       		.byte	(.L521-.L522)/2
 3950 0024 0F       		.byte	(.L521-.L522)/2
 3951 0025 00       		.align	1
 3952              	.L516:
1484:.\fun.c       **** 			DisFlag.wifilinkingsignflash=0;
 3953              		.loc 1 1484 0
 3954 0026 9143     		bic	r1, r2
 3955 0028 0A1C     		mov	r2, r1
1485:.\fun.c       **** 			DisFlag.wifilinkingsign=1;	   				  				  					  					  					  					  					  					  				  					 
 3956              		.loc 1 1485 0
 3957 002a 0820     		mov	r0, #8
 3958 002c 8243     		bic	r2, r0
 3959 002e 0421     		mov	r1, #4
 3960 0030 0A43     		orr	r2, r1
 3961 0032 0CE0     		b	.L524
 3962              	.L519:
1499:.\fun.c       **** 			DisFlag.wifilinkingsignflash=0;
 3963              		.loc 1 1499 0
 3964 0034 0A43     		orr	r2, r1
1500:.\fun.c       **** 			DisFlag.wifilinkingsign=0;	 			      
 3965              		.loc 1 1500 0
 3966 0036 F320     		mov	r0, #243
 3967 0038 08E0     		b	.L525
 3968              	.L521:
1509:.\fun.c       **** 			DisFlag.wifilinkingsignflash=1;
 3969              		.loc 1 1509 0
 3970 003a 9143     		bic	r1, r2
 3971 003c 0A1C     		mov	r2, r1
1510:.\fun.c       **** 			DisFlag.wifilinkingsign=0;	 	
 3972              		.loc 1 1510 0
 3973 003e 0820     		mov	r0, #8
 3974 0040 0243     		orr	r2, r0
 3975 0042 0421     		mov	r1, #4
 3976 0044 8A43     		bic	r2, r1
 3977 0046 02E0     		b	.L524
 3978              	.L512:
1511:.\fun.c       **** 			break;	
1512:.\fun.c       **** 		default:
1513:.\fun.c       **** 			DisFlag.wifierror=0;
 3979              		.loc 1 1513 0
 3980 0048 9878     		ldrb	r0, [r3, #2]
ARM GAS  C:\Users\ZHANGM~1\AppData\Local\Temp\cccEtK9g.s 			page 101


1514:.\fun.c       **** 			DisFlag.wifilinkingsignflash=0;
1515:.\fun.c       **** 			DisFlag.wifilinkingsign=0;	 
 3981              		.loc 1 1515 0
 3982 004a F122     		mov	r2, #241
 3983              	.L525:
 3984 004c 0240     		and	r2, r0
 3985              	.L524:
 3986 004e 9A70     		strb	r2, [r3, #2]
1516:.\fun.c       **** 			break;
1517:.\fun.c       **** 	}					
1518:.\fun.c       **** 	
1519:.\fun.c       **** 	
1520:.\fun.c       **** }
 3987              		.loc 1 1520 0
 3988              		@ sp needed for prologue
 3989 0050 08BD     		pop	{r3, pc}
 3990              	.L527:
 3991 0052 C046     		.align	2
 3992              	.L526:
 3993 0054 00000000 		.word	SmarkLink_State
 3994 0058 00000000 		.word	DisFlag
 3995              		.cfi_endproc
 3996              	.LFE44:
 3997              		.size	Wifi_Fun, .-Wifi_Fun
 3998              		.section	.text.Work_Fun,"ax",%progbits
 3999              		.align	1
 4000              		.global	Work_Fun
 4001              		.code	16
 4002              		.thumb_func
 4003              		.type	Work_Fun, %function
 4004              	Work_Fun:
 4005              	.LFB45:
1521:.\fun.c       **** void Work_Fun(void)
1522:.\fun.c       **** {  
 4006              		.loc 1 1522 0
 4007              		.cfi_startproc
 4008 0000 F0B5     		push	{r4, r5, r6, r7, lr}
 4009              	.LCFI12:
 4010              		.cfi_def_cfa_offset 20
 4011              		.cfi_offset 4, -20
 4012              		.cfi_offset 5, -16
 4013              		.cfi_offset 6, -12
 4014              		.cfi_offset 7, -8
 4015              		.cfi_offset 14, -4
 4016 0002 85B0     		sub	sp, sp, #20
 4017              	.LCFI13:
 4018              		.cfi_def_cfa_offset 40
1523:.\fun.c       **** 	
1524:.\fun.c       ****     stand();//待机状态检测
 4019              		.loc 1 1524 0
 4020 0004 FFF7FEFF 		bl	stand
 4021              	.LVL43:
1525:.\fun.c       ****     LXPercent();//滤芯寿命百分比
 4022              		.loc 1 1525 0
 4023 0008 FFF7FEFF 		bl	LXPercent
 4024              	.LVL44:
1526:.\fun.c       ****     if(WorkFlag.yanshista==0||faststa==0)
ARM GAS  C:\Users\ZHANGM~1\AppData\Local\Temp\cccEtK9g.s 			page 102


 4025              		.loc 1 1526 0
 4026 000c B94B     		ldr	r3, .L630
 4027 000e 5A78     		ldrb	r2, [r3, #1]
 4028 0010 1D1C     		mov	r5, r3
 4029 0012 D007     		lsl	r0, r2, #31
 4030 0014 03D5     		bpl	.L529
 4031              		.loc 1 1526 0 is_stmt 0 discriminator 1
 4032 0016 B848     		ldr	r0, .L630+4
 4033 0018 0178     		ldrb	r1, [r0]
 4034 001a 0029     		cmp	r1, #0
 4035 001c 01D1     		bne	.L530
 4036              	.L529:
1527:.\fun.c       ****     	error_alm();//异常报警
 4037              		.loc 1 1527 0 is_stmt 1
 4038 001e FFF7FEFF 		bl	error_alm
 4039              	.LVL45:
 4040              	.L530:
1528:.\fun.c       ****     queshui_alm();
 4041              		.loc 1 1528 0
 4042 0022 FFF7FEFF 		bl	queshui_alm
 4043              	.LVL46:
1529:.\fun.c       ****  		Wifi_Fun(); 
 4044              		.loc 1 1529 0
 4045 0026 FFF7FEFF 		bl	Wifi_Fun
 4046              	.LVL47:
1530:.\fun.c       ****  		Process_From_Wifi_Data();  
 4047              		.loc 1 1530 0
 4048 002a FFF7FEFF 		bl	Process_From_Wifi_Data
 4049              	.LVL48:
1531:.\fun.c       ****  		Process_From_Tdsboard_Data(); 
 4050              		.loc 1 1531 0
 4051 002e FFF7FEFF 		bl	Process_From_Tdsboard_Data
 4052              	.LVL49:
1532:.\fun.c       ****     if(NBfig==1)
 4053              		.loc 1 1532 0
 4054 0032 B24C     		ldr	r4, .L630+8
 4055 0034 2023     		mov	r3, #32
 4056 0036 2678     		ldrb	r6, [r4]
 4057 0038 B14C     		ldr	r4, .L630+12
 4058 003a 012E     		cmp	r6, #1
 4059 003c 04D1     		bne	.L531
1533:.\fun.c       ****     {
1534:.\fun.c       ****         DisFlag.north=1;//北
 4060              		.loc 1 1534 0
 4061 003e 2078     		ldrb	r0, [r4]
1535:.\fun.c       ****         DisFlag.south=0;   
 4062              		.loc 1 1535 0
 4063 0040 1021     		mov	r1, #16
 4064 0042 0343     		orr	r3, r0
 4065 0044 8B43     		bic	r3, r1
 4066 0046 04E0     		b	.L623
 4067              	.L531:
1536:.\fun.c       ****         
1537:.\fun.c       ****     }
1538:.\fun.c       ****     else
1539:.\fun.c       ****     {
1540:.\fun.c       ****         DisFlag.north=0;//南
ARM GAS  C:\Users\ZHANGM~1\AppData\Local\Temp\cccEtK9g.s 			page 103


 4068              		.loc 1 1540 0
 4069 0048 2778     		ldrb	r7, [r4]
1541:.\fun.c       ****         DisFlag.south=1;    
 4070              		.loc 1 1541 0
 4071 004a 1022     		mov	r2, #16
 4072 004c 9F43     		bic	r7, r3
 4073 004e 3B1C     		mov	r3, r7
 4074 0050 1343     		orr	r3, r2
 4075              	.L623:
 4076 0052 2370     		strb	r3, [r4]
1542:.\fun.c       ****     }
1543:.\fun.c       ****     key();//按键检测程序 
 4077              		.loc 1 1543 0
 4078 0054 FFF7FEFF 		bl	key
 4079              	.LVL50:
1544:.\fun.c       ****     if(WorkFlag02.poll_24H_value_sendingcmp==1)  
 4080              		.loc 1 1544 0
 4081 0058 AA4E     		ldr	r6, .L630+16
 4082 005a 0423     		mov	r3, #4
 4083 005c 3778     		ldrb	r7, [r6]
 4084 005e 1F42     		tst	r7, r3
 4085 0060 08D0     		beq	.L533
1545:.\fun.c       ****     	{
1546:.\fun.c       ****     		 WorkFlag02.poll_24H_value_sendingcmp=0;
 4086              		.loc 1 1546 0
 4087 0062 9F43     		bic	r7, r3
1547:.\fun.c       ****     		 Load_Command(HOST_FILTER_USED_TIME_DATA);
 4088              		.loc 1 1547 0
 4089 0064 A848     		ldr	r0, .L630+20
1546:.\fun.c       ****     		 WorkFlag02.poll_24H_value_sendingcmp=0;
 4090              		.loc 1 1546 0
 4091 0066 3770     		strb	r7, [r6]
 4092              		.loc 1 1547 0
 4093 0068 FFF7FEFF 		bl	Load_Command
 4094              	.LVL51:
1548:.\fun.c       ****     		 Load_Command(HOST_STATE_DATA);
 4095              		.loc 1 1548 0
 4096 006c 9022     		mov	r2, #144
 4097 006e 1002     		lsl	r0, r2, #8
 4098 0070 FFF7FEFF 		bl	Load_Command
 4099              	.LVL52:
 4100              	.L533:
1549:.\fun.c       ****     	}  
1550:.\fun.c       **** 		if((WorkFlag.poweroff==1)&&(WorkFlag.poweron==0))//关机状态**********************************
 4101              		.loc 1 1550 0
 4102 0074 6E78     		ldrb	r6, [r5, #1]
 4103 0076 3F20     		mov	r0, #63
 4104 0078 311C     		mov	r1, r6
 4105 007a 8143     		bic	r1, r0
 4106 007c 8029     		cmp	r1, #128
 4107 007e 0ED1     		bne	.L534
1551:.\fun.c       ****       {
1552:.\fun.c       ****           LedPannelBuf[0] = 0xffffffff;       //待机状态所有指示灯全灭
 4108              		.loc 1 1552 0
 4109 0080 A24D     		ldr	r5, .L630+24
 4110 0082 0123     		mov	r3, #1
 4111 0084 5A42     		neg	r2, r3
ARM GAS  C:\Users\ZHANGM~1\AppData\Local\Temp\cccEtK9g.s 			page 104


1553:.\fun.c       ****           LedPannelBuf[1] = 0xffffffff;
1554:.\fun.c       ****           LedPannelBuf[2] = 0xffffffff;
1555:.\fun.c       ****           LedPannelBuf[3] = 0xffffffff;
1556:.\fun.c       ****           LedPannelBuf[4] = 0xffffffff;
1557:.\fun.c       ****           LedPannelBuf[5] = 0xffffffff;
1558:.\fun.c       ****           LedPannelBuf[6] = 0xffffffff; 
1559:.\fun.c       ****           K1_Write(0);
 4112              		.loc 1 1559 0
 4113 0086 0020     		mov	r0, #0
1552:.\fun.c       ****           LedPannelBuf[0] = 0xffffffff;       //待机状态所有指示灯全灭
 4114              		.loc 1 1552 0
 4115 0088 2A60     		str	r2, [r5]
1553:.\fun.c       ****           LedPannelBuf[1] = 0xffffffff;
 4116              		.loc 1 1553 0
 4117 008a 6A60     		str	r2, [r5, #4]
1554:.\fun.c       ****           LedPannelBuf[2] = 0xffffffff;
 4118              		.loc 1 1554 0
 4119 008c AA60     		str	r2, [r5, #8]
1555:.\fun.c       ****           LedPannelBuf[3] = 0xffffffff;
 4120              		.loc 1 1555 0
 4121 008e EA60     		str	r2, [r5, #12]
1556:.\fun.c       ****           LedPannelBuf[4] = 0xffffffff;
 4122              		.loc 1 1556 0
 4123 0090 2A61     		str	r2, [r5, #16]
1557:.\fun.c       ****           LedPannelBuf[5] = 0xffffffff;
 4124              		.loc 1 1557 0
 4125 0092 6A61     		str	r2, [r5, #20]
1558:.\fun.c       ****           LedPannelBuf[6] = 0xffffffff; 
 4126              		.loc 1 1558 0
 4127 0094 AA61     		str	r2, [r5, #24]
 4128              		.loc 1 1559 0
 4129 0096 FFF7FEFF 		bl	K1_Write
 4130              	.LVL53:
1560:.\fun.c       ****     			K2_Write(0);
 4131              		.loc 1 1560 0
 4132 009a 0020     		mov	r0, #0
 4133 009c 2DE2     		b	.L629
 4134              	.L534:
1561:.\fun.c       ****     			return;
1562:.\fun.c       ****       }        
1563:.\fun.c       ****    	else if((WorkFlag.poweroff==0)&&(WorkFlag.poweron==1))//开机状态***************************
 4135              		.loc 1 1563 0
 4136 009e 4029     		cmp	r1, #64
 4137 00a0 02D1     		bne	.L536
1564:.\fun.c       ****       {
1565:.\fun.c       **** 				WorkFlag.poweron=0;
 4138              		.loc 1 1565 0
 4139 00a2 8E43     		bic	r6, r1
 4140 00a4 6E70     		strb	r6, [r5, #1]
 4141 00a6 68E1     		b	.L537
 4142              	.L536:
1566:.\fun.c       ****       }   
1567:.\fun.c       ****     else if(WorkFlag.yanshista)//商场演示模式************************************************
 4143              		.loc 1 1567 0
 4144 00a8 0127     		mov	r7, #1
 4145 00aa 3E40     		and	r6, r7
 4146 00ac 40D0     		beq	.L538
ARM GAS  C:\Users\ZHANGM~1\AppData\Local\Temp\cccEtK9g.s 			page 105


1568:.\fun.c       ****     {
1569:.\fun.c       ****         if(yanshidisfig==0)
 4147              		.loc 1 1569 0
 4148 00ae 984E     		ldr	r6, .L630+28
 4149 00b0 3078     		ldrb	r0, [r6]
 4150 00b2 0028     		cmp	r0, #0
 4151 00b4 08D1     		bne	.L539
1570:.\fun.c       ****         {
1571:.\fun.c       ****             templvxin[0]=5;
 4152              		.loc 1 1571 0
 4153 00b6 9749     		ldr	r1, .L630+32
 4154 00b8 0522     		mov	r2, #5
 4155 00ba 0A70     		strb	r2, [r1]
1572:.\fun.c       ****             templvxin[1]=5;
 4156              		.loc 1 1572 0
 4157 00bc 4A70     		strb	r2, [r1, #1]
1573:.\fun.c       ****             templvxin[2]=5;
 4158              		.loc 1 1573 0
 4159 00be 8A70     		strb	r2, [r1, #2]
1574:.\fun.c       ****             templvxin[3]=5;
 4160              		.loc 1 1574 0
 4161 00c0 CA70     		strb	r2, [r1, #3]
1575:.\fun.c       ****             templvxin[4]=5;
 4162              		.loc 1 1575 0
 4163 00c2 0A71     		strb	r2, [r1, #4]
1576:.\fun.c       ****             templvxin[5]=5;
 4164              		.loc 1 1576 0
 4165 00c4 4A71     		strb	r2, [r1, #5]
1577:.\fun.c       ****             yanshidisfig=1;
 4166              		.loc 1 1577 0
 4167 00c6 3770     		strb	r7, [r6]
 4168              	.L539:
1578:.\fun.c       ****         
1579:.\fun.c       ****         }        
1580:.\fun.c       ****         //长按选择键5S
1581:.\fun.c       ****         if((BtnData1 & (1 << BTN_XZ))&&(BtnData2 & (1 << BTN_XZ)))
 4169              		.loc 1 1581 0
 4170 00c8 934F     		ldr	r7, .L630+36
 4171 00ca 0420     		mov	r0, #4
 4172 00cc 3E78     		ldrb	r6, [r7]
 4173 00ce 934B     		ldr	r3, .L630+40
 4174 00d0 0642     		tst	r6, r0
 4175 00d2 1FD0     		beq	.L540
 4176              		.loc 1 1581 0 is_stmt 0 discriminator 1
 4177 00d4 9249     		ldr	r1, .L630+44
 4178 00d6 0A78     		ldrb	r2, [r1]
 4179 00d8 0242     		tst	r2, r0
 4180 00da 1BD0     		beq	.L540
1582:.\fun.c       ****         {
1583:.\fun.c       ****             if(XzPressCnt > TIMER5S)
 4181              		.loc 1 1583 0 is_stmt 1
 4182 00dc 1B78     		ldrb	r3, [r3]
 4183 00de 322B     		cmp	r3, #50
 4184 00e0 1FD9     		bls	.L541
1584:.\fun.c       ****             {
1585:.\fun.c       ****                 if(PressFlag.xzpressstart == 0)
 4185              		.loc 1 1585 0
ARM GAS  C:\Users\ZHANGM~1\AppData\Local\Temp\cccEtK9g.s 			page 106


 4186 00e2 904A     		ldr	r2, .L630+48
 4187 00e4 0127     		mov	r7, #1
 4188 00e6 1178     		ldrb	r1, [r2]
 4189 00e8 3942     		tst	r1, r7
 4190 00ea 1AD1     		bne	.L541
1586:.\fun.c       ****                 {
1587:.\fun.c       ****                     
1588:.\fun.c       ****                     PressFlag.xzpressstart = 1;
1589:.\fun.c       ****                     BUZfkg=1;
 4191              		.loc 1 1589 0
 4192 00ec 8E4E     		ldr	r6, .L630+52
1588:.\fun.c       ****                     PressFlag.xzpressstart = 1;
 4193              		.loc 1 1588 0
 4194 00ee 3943     		orr	r1, r7
 4195 00f0 1170     		strb	r1, [r2]
 4196              		.loc 1 1589 0
 4197 00f2 3770     		strb	r7, [r6]
1590:.\fun.c       ****                     WorkFlag.lvxingxzsta = 1;
 4198              		.loc 1 1590 0
 4199 00f4 2878     		ldrb	r0, [r5]
 4200 00f6 2023     		mov	r3, #32
 4201 00f8 1843     		orr	r0, r3
 4202 00fa 2870     		strb	r0, [r5]
1591:.\fun.c       ****                     //WorkFlag.worksta = 0;
1592:.\fun.c       ****                     
1593:.\fun.c       ****                     DisFlag.sflash = 1;
 4203              		.loc 1 1593 0
 4204 00fc 6578     		ldrb	r5, [r4, #1]
1594:.\fun.c       ****                     DisFlag.hflash = 1;
1595:.\fun.c       ****                     DisFlag.jflash = 1;
 4205              		.loc 1 1595 0
 4206 00fe 1822     		mov	r2, #24
1596:.\fun.c       ****                     DisFlag.kflash = 1;
1597:.\fun.c       ****                     DisFlag.lflash = 1;
1598:.\fun.c       ****                     DisFlag.mflash = 1;
 4207              		.loc 1 1598 0
 4208 0100 A078     		ldrb	r0, [r4, #2]
1595:.\fun.c       ****                     DisFlag.jflash = 1;
 4209              		.loc 1 1595 0
 4210 0102 2A43     		orr	r2, r5
1597:.\fun.c       ****                     DisFlag.lflash = 1;
 4211              		.loc 1 1597 0
 4212 0104 4021     		mov	r1, #64
1596:.\fun.c       ****                     DisFlag.kflash = 1;
 4213              		.loc 1 1596 0
 4214 0106 1343     		orr	r3, r2
1597:.\fun.c       ****                     DisFlag.lflash = 1;
 4215              		.loc 1 1597 0
 4216 0108 4E42     		neg	r6, r1
 4217 010a 3343     		orr	r3, r6
 4218              		.loc 1 1598 0
 4219 010c 0743     		orr	r7, r0
1597:.\fun.c       ****                     DisFlag.lflash = 1;
 4220              		.loc 1 1597 0
 4221 010e 6370     		strb	r3, [r4, #1]
 4222              		.loc 1 1598 0
 4223 0110 A770     		strb	r7, [r4, #2]
ARM GAS  C:\Users\ZHANGM~1\AppData\Local\Temp\cccEtK9g.s 			page 107


1599:.\fun.c       ****              
1600:.\fun.c       ****                    return;
 4224              		.loc 1 1600 0
 4225 0112 3CE2     		b	.L528
 4226              	.L540:
1601:.\fun.c       ****                 }
1602:.\fun.c       ****             }
1603:.\fun.c       ****         }
1604:.\fun.c       ****         else
1605:.\fun.c       ****         {
1606:.\fun.c       ****             PressFlag.xzpressstart = 0;
 4227              		.loc 1 1606 0
 4228 0114 834C     		ldr	r4, .L630+48
 4229 0116 0126     		mov	r6, #1
 4230 0118 2778     		ldrb	r7, [r4]
1607:.\fun.c       ****             XzPressCnt = 0;
 4231              		.loc 1 1607 0
 4232 011a 0020     		mov	r0, #0
1606:.\fun.c       ****             PressFlag.xzpressstart = 0;
 4233              		.loc 1 1606 0
 4234 011c B743     		bic	r7, r6
 4235 011e 2770     		strb	r7, [r4]
 4236              		.loc 1 1607 0
 4237 0120 1870     		strb	r0, [r3]
 4238              	.L541:
1608:.\fun.c       ****         }
1609:.\fun.c       ****         
1610:.\fun.c       ****         
1611:.\fun.c       ****         K1_Write(0);
 4239              		.loc 1 1611 0
 4240 0122 0020     		mov	r0, #0
 4241 0124 FFF7FEFF 		bl	K1_Write
 4242              	.LVL54:
1612:.\fun.c       ****         K2_Write(0);
 4243              		.loc 1 1612 0
 4244 0128 0020     		mov	r0, #0
 4245 012a FFF7FEFF 		bl	K2_Write
 4246              	.LVL55:
 4247 012e 24E1     		b	.L537
 4248              	.L538:
1613:.\fun.c       ****        
1614:.\fun.c       ****             
1615:.\fun.c       ****     } 
1616:.\fun.c       ****     else if(faststa)//快检模式************************************************
 4249              		.loc 1 1616 0
 4250 0130 714B     		ldr	r3, .L630+4
 4251 0132 1B78     		ldrb	r3, [r3]
 4252 0134 002B     		cmp	r3, #0
 4253 0136 1CD0     		beq	.L542
1617:.\fun.c       ****     {
1618:.\fun.c       ****         BUZfkg=1;
 4254              		.loc 1 1618 0
 4255 0138 7B4D     		ldr	r5, .L630+52
1619:.\fun.c       ****         fastcnt=0;
 4256              		.loc 1 1619 0
 4257 013a 7C4C     		ldr	r4, .L630+56
1620:.\fun.c       ****         fastjishifig=1;
ARM GAS  C:\Users\ZHANGM~1\AppData\Local\Temp\cccEtK9g.s 			page 108


 4258              		.loc 1 1620 0
 4259 013c 7C48     		ldr	r0, .L630+60
1621:.\fun.c       ****         //V24_IN_ISR_Disable();//关外部中断  不保存数据
1622:.\fun.c       ****         cleareepromArrayflag=1;
 4260              		.loc 1 1622 0
 4261 013e 7D49     		ldr	r1, .L630+64
1618:.\fun.c       ****         BUZfkg=1;
 4262              		.loc 1 1618 0
 4263 0140 2F70     		strb	r7, [r5]
1620:.\fun.c       ****         fastjishifig=1;
 4264              		.loc 1 1620 0
 4265 0142 0770     		strb	r7, [r0]
 4266              		.loc 1 1622 0
 4267 0144 0F70     		strb	r7, [r1]
1619:.\fun.c       ****         fastcnt=0;
 4268              		.loc 1 1619 0
 4269 0146 2670     		strb	r6, [r4]
1623:.\fun.c       ****         //cleareepromArray();
1624:.\fun.c       ****         clean_ram();
 4270              		.loc 1 1624 0
 4271 0148 FFF7FEFF 		bl	clean_ram
 4272              	.LVL56:
1625:.\fun.c       ****         SP=7;
 4273              		.loc 1 1625 0
 4274 014c 7A4B     		ldr	r3, .L630+68
1626:.\fun.c       ****         HP=9;
 4275              		.loc 1 1626 0
 4276 014e 7B4D     		ldr	r5, .L630+72
1625:.\fun.c       ****         SP=7;
 4277              		.loc 1 1625 0
 4278 0150 0722     		mov	r2, #7
 4279              		.loc 1 1626 0
 4280 0152 0927     		mov	r7, #9
1625:.\fun.c       ****         SP=7;
 4281              		.loc 1 1625 0
 4282 0154 1A80     		strh	r2, [r3]
 4283              		.loc 1 1626 0
 4284 0156 2F80     		strh	r7, [r5]
1627:.\fun.c       ****         JP=60;
 4285              		.loc 1 1627 0
 4286 0158 7948     		ldr	r0, .L630+76
1628:.\fun.c       ****         KP=60;
 4287              		.loc 1 1628 0
 4288 015a 7A49     		ldr	r1, .L630+80
1629:.\fun.c       ****         LP=60;
 4289              		.loc 1 1629 0
 4290 015c 7A4A     		ldr	r2, .L630+84
1630:.\fun.c       ****         MP=15;
 4291              		.loc 1 1630 0
 4292 015e 7B4B     		ldr	r3, .L630+88
1631:.\fun.c       ****         faststa=0;
 4293              		.loc 1 1631 0
 4294 0160 654D     		ldr	r5, .L630+4
1627:.\fun.c       ****         JP=60;
 4295              		.loc 1 1627 0
 4296 0162 3C24     		mov	r4, #60
1630:.\fun.c       ****         MP=15;
ARM GAS  C:\Users\ZHANGM~1\AppData\Local\Temp\cccEtK9g.s 			page 109


 4297              		.loc 1 1630 0
 4298 0164 0F27     		mov	r7, #15
1627:.\fun.c       ****         JP=60;
 4299              		.loc 1 1627 0
 4300 0166 0480     		strh	r4, [r0]
1628:.\fun.c       ****         KP=60;
 4301              		.loc 1 1628 0
 4302 0168 0C80     		strh	r4, [r1]
1629:.\fun.c       ****         LP=60;
 4303              		.loc 1 1629 0
 4304 016a 1480     		strh	r4, [r2]
1630:.\fun.c       ****         MP=15;
 4305              		.loc 1 1630 0
 4306 016c 1F80     		strh	r7, [r3]
 4307              		.loc 1 1631 0
 4308 016e 2E70     		strb	r6, [r5]
1632:.\fun.c       ****         return;   
 4309              		.loc 1 1632 0
 4310 0170 0DE2     		b	.L528
 4311              	.L542:
1633:.\fun.c       ****     
1634:.\fun.c       ****     }      
1635:.\fun.c       ****     else if(WorkFlag.zijiansta) //开机上电自检模式*****************************************
 4312              		.loc 1 1635 0
 4313 0172 E878     		ldrb	r0, [r5, #3]
 4314 0174 061C     		mov	r6, r0
 4315 0176 3E40     		and	r6, r7
 4316 0178 0196     		str	r6, [sp, #4]
 4317 017a 63D0     		beq	.L543
1636:.\fun.c       ****     {       
1637:.\fun.c       ****         if(zijianstacnt>10&&zijianstacnt<13)
 4318              		.loc 1 1637 0
 4319 017c 744E     		ldr	r6, .L630+92
 4320 017e 3078     		ldrb	r0, [r6]
 4321 0180 011C     		mov	r1, r0
 4322 0182 0B39     		sub	r1, r1, #11
 4323 0184 0129     		cmp	r1, #1
 4324 0186 04D8     		bhi	.L544
1638:.\fun.c       ****         {
1639:.\fun.c       ****             BUZfkg=1;
 4325              		.loc 1 1639 0
 4326 0188 6748     		ldr	r0, .L630+52
 4327 018a 0770     		strb	r7, [r0]
1640:.\fun.c       ****             jixing();//机型判断及显示程序
 4328              		.loc 1 1640 0
 4329 018c FFF7FEFF 		bl	jixing
 4330              	.LVL57:
 4331 0190 2FE0     		b	.L545
 4332              	.L544:
1641:.\fun.c       ****         }
1642:.\fun.c       ****             
1643:.\fun.c       ****             
1644:.\fun.c       ****         else if(zijianstacnt>15&&zijianstacnt<18)  
 4333              		.loc 1 1644 0
 4334 0192 021C     		mov	r2, r0
 4335 0194 103A     		sub	r2, r2, #16
 4336 0196 012A     		cmp	r2, #1
ARM GAS  C:\Users\ZHANGM~1\AppData\Local\Temp\cccEtK9g.s 			page 110


 4337 0198 18D8     		bhi	.L546
1645:.\fun.c       ****         {
1646:.\fun.c       ****           switch(jixingnumber)
 4338              		.loc 1 1646 0
 4339 019a 6E48     		ldr	r0, .L630+96
 4340 019c 0078     		ldrb	r0, [r0]
 4341 019e 0138     		sub	r0, r0, #1
 4342 01a0 0528     		cmp	r0, #5
 4343 01a2 26D8     		bhi	.L545
 4344 01a4 0122     		mov	r2, #1
 4345 01a6 5949     		ldr	r1, .L630+24
 4346 01a8 5342     		neg	r3, r2
 4347 01aa FFF7FEFF 		bl	__gnu_thumb1_case_uqi
 4348              	.L553:
 4349 01ae 03       		.byte	(.L547-.L553)/2
 4350 01af 05       		.byte	(.L548-.L553)/2
