ARM GAS  C:\Users\ZHANGM~1\AppData\Local\Temp\cccEtK9g.s 			page 1


   1              		.cpu cortex-m0
   2              		.fpu softvfp
   3              		.eabi_attribute 20, 1
   4              		.eabi_attribute 21, 1
   5              		.eabi_attribute 23, 3
   6              		.eabi_attribute 24, 1
   7              		.eabi_attribute 25, 1
   8              		.eabi_attribute 26, 1
   9              		.eabi_attribute 30, 4
  10              		.eabi_attribute 34, 0
  11              		.eabi_attribute 18, 4
  12              		.code	16
  13              		.file	"fun.c"
  14              		.text
  15              	.Ltext0:
  16              		.cfi_sections	.debug_frame
  17              		.section	.text.Buzzer_Fun,"ax",%progbits
  18              		.align	1
  19              		.global	Buzzer_Fun
  20              		.code	16
  21              		.thumb_func
  22              		.type	Buzzer_Fun, %function
  23              	Buzzer_Fun:
  24              	.LFB33:
  25              		.file 1 ".\\fun.c"
   1:.\fun.c       **** /* ========================================
   2:.\fun.c       ****  *
   3:.\fun.c       ****  * Copyright YOUR COMPANY, THE YEAR
   4:.\fun.c       ****  * All Rights Reserved
   5:.\fun.c       ****  * UNPUBLISHED, LICENSED SOFTWARE.
   6:.\fun.c       ****  *
   7:.\fun.c       ****  * CONFIDENTIAL AND PROPRIETARY INFORMATION
   8:.\fun.c       ****  * WHICH IS THE PROPERTY OF your company.
   9:.\fun.c       ****  *
  10:.\fun.c       ****  * ========================================
  11:.\fun.c       **** */
  12:.\fun.c       **** #define _FUN_
  13:.\fun.c       **** #include "config.h"
  14:.\fun.c       **** 
  15:.\fun.c       **** uint8 Counter_Key;
  16:.\fun.c       **** /*******************************************************************************
  17:.\fun.c       **** *                       Buzzer
  18:.\fun.c       **** ********************************************************************************/
  19:.\fun.c       **** void Buzzer_Fun(void)
  20:.\fun.c       **** {
  26              		.loc 1 20 0
  27              		.cfi_startproc
  28 0000 38B5     		push	{r3, r4, r5, lr}
  29              	.LCFI0:
  30              		.cfi_def_cfa_offset 16
  31              		.cfi_offset 3, -16
  32              		.cfi_offset 4, -12
  33              		.cfi_offset 5, -8
  34              		.cfi_offset 14, -4
  21:.\fun.c       ****     
  22:.\fun.c       ****   if(BUZfkg==1)//按键提示音
  35              		.loc 1 22 0
ARM GAS  C:\Users\ZHANGM~1\AppData\Local\Temp\cccEtK9g.s 			page 2


  36 0002 1D4C     		ldr	r4, .L13
  37 0004 2378     		ldrb	r3, [r4]
  38 0006 012B     		cmp	r3, #1
  39 0008 0CD1     		bne	.L2
  23:.\fun.c       ****     {       
  24:.\fun.c       ****         if(BuzzerDly<=2)
  40              		.loc 1 24 0
  41 000a 1C4D     		ldr	r5, .L13+4
  42 000c 2A78     		ldrb	r2, [r5]
  43 000e 022A     		cmp	r2, #2
  44 0010 02D8     		bhi	.L3
  45              	.L7:
  25:.\fun.c       ****             PWM_Start();
  46              		.loc 1 25 0
  47 0012 FFF7FEFF 		bl	PWM_Start
  48              	.LVL0:
  49 0016 2DE0     		b	.L1
  50              	.L3:
  26:.\fun.c       ****         else
  27:.\fun.c       ****         {
  28:.\fun.c       ****             PWM_Stop();
  51              		.loc 1 28 0
  52 0018 FFF7FEFF 		bl	PWM_Stop
  53              	.LVL1:
  29:.\fun.c       ****             BuzzerDly=0; 
  54              		.loc 1 29 0
  55 001c 0023     		mov	r3, #0
  56 001e 2B70     		strb	r3, [r5]
  30:.\fun.c       ****             BUZfkg=0;     
  57              		.loc 1 30 0
  58 0020 2370     		strb	r3, [r4]
  59 0022 27E0     		b	.L1
  60              	.L2:
  31:.\fun.c       ****         }
  32:.\fun.c       ****                 
  33:.\fun.c       ****         
  34:.\fun.c       ****         
  35:.\fun.c       ****     }
  36:.\fun.c       ****     else if(BUZfkg==2)//上电缺水提示音 蜂鸣器响3次
  61              		.loc 1 36 0
  62 0024 022B     		cmp	r3, #2
  63 0026 10D1     		bne	.L5
  37:.\fun.c       ****     { 
  38:.\fun.c       ****         BUZqueshuifkg=1;
  64              		.loc 1 38 0
  65 0028 154B     		ldr	r3, .L13+8
  66 002a 0125     		mov	r5, #1
  67 002c 1D70     		strb	r5, [r3]
  39:.\fun.c       ****         if(qushui_BUZcnt<3)
  68              		.loc 1 39 0
  69 002e 154D     		ldr	r5, .L13+12
  70 0030 2978     		ldrb	r1, [r5]
  71 0032 0229     		cmp	r1, #2
  72 0034 1BD8     		bhi	.L9
  40:.\fun.c       ****         {
  41:.\fun.c       ****             if(BuzzerDly<5)
  73              		.loc 1 41 0
ARM GAS  C:\Users\ZHANGM~1\AppData\Local\Temp\cccEtK9g.s 			page 3


  74 0036 114A     		ldr	r2, .L13+4
  75 0038 1478     		ldrb	r4, [r2]
  76 003a 042C     		cmp	r4, #4
  77 003c E9D9     		bls	.L7
  42:.\fun.c       ****                 PWM_Start();
  43:.\fun.c       ****             else if( BuzzerDly>=5 &&BuzzerDly<10)
  78              		.loc 1 43 0
  79 003e 053C     		sub	r4, r4, #5
  80 0040 042C     		cmp	r4, #4
  81 0042 0FD8     		bhi	.L11
  82              	.L10:
  44:.\fun.c       ****                 PWM_Stop();
  83              		.loc 1 44 0
  84 0044 FFF7FEFF 		bl	PWM_Stop
  85              	.LVL2:
  86 0048 14E0     		b	.L1
  87              	.L5:
  45:.\fun.c       ****             else if(BuzzerDly>=10) 
  46:.\fun.c       ****             {   
  47:.\fun.c       ****                 qushui_BUZcnt++;
  48:.\fun.c       ****                 BuzzerDly=0;
  49:.\fun.c       ****                 //BUZfkg=0;
  50:.\fun.c       ****                 
  51:.\fun.c       ****             }
  52:.\fun.c       ****         } 
  53:.\fun.c       ****         else
  54:.\fun.c       ****         {
  55:.\fun.c       ****             qushui_BUZcnt=0;
  56:.\fun.c       ****             BUZfkg=0;
  57:.\fun.c       ****         }   
  58:.\fun.c       ****         
  59:.\fun.c       ****     }  
  60:.\fun.c       ****    
  61:.\fun.c       ****     else if(BUZfkg==3)//滤芯寿命到期报警提示音  蜂鸣器2秒一次鸣叫15S  debug 叫3
  88              		.loc 1 61 0
  89 004a 032B     		cmp	r3, #3
  90 004c 12D1     		bne	.L1
  62:.\fun.c       ****     {
  63:.\fun.c       ****         if(qushui_BUZcnt<7)//鸣叫7次14S
  91              		.loc 1 63 0
  92 004e 0D4D     		ldr	r5, .L13+12
  93 0050 2978     		ldrb	r1, [r5]
  94 0052 0629     		cmp	r1, #6
  95 0054 0BD8     		bhi	.L9
  64:.\fun.c       ****         {
  65:.\fun.c       ****             if(BuzzerDly<20)
  96              		.loc 1 65 0
  97 0056 094A     		ldr	r2, .L13+4
  98 0058 1078     		ldrb	r0, [r2]
  99 005a 1328     		cmp	r0, #19
 100 005c D9D9     		bls	.L7
  66:.\fun.c       ****                 PWM_Start();
  67:.\fun.c       ****             else if( BuzzerDly>=20 &&BuzzerDly<40)
 101              		.loc 1 67 0
 102 005e 1438     		sub	r0, r0, #20
 103 0060 1328     		cmp	r0, #19
 104 0062 EFD9     		bls	.L10
ARM GAS  C:\Users\ZHANGM~1\AppData\Local\Temp\cccEtK9g.s 			page 4


 105              	.L11:
  68:.\fun.c       ****                 PWM_Stop();
  69:.\fun.c       ****             else if(BuzzerDly>=40) 
  70:.\fun.c       ****             {   
  71:.\fun.c       ****                 qushui_BUZcnt++;
 106              		.loc 1 71 0
 107 0064 0131     		add	r1, r1, #1
  72:.\fun.c       ****                 BuzzerDly=0;
 108              		.loc 1 72 0
 109 0066 0020     		mov	r0, #0
  71:.\fun.c       ****                 qushui_BUZcnt++;
 110              		.loc 1 71 0
 111 0068 2970     		strb	r1, [r5]
 112              		.loc 1 72 0
 113 006a 1070     		strb	r0, [r2]
 114 006c 02E0     		b	.L1
 115              	.L9:
  73:.\fun.c       ****                 //BUZfkg=0;
  74:.\fun.c       ****                 
  75:.\fun.c       ****             }
  76:.\fun.c       ****         } 
  77:.\fun.c       ****         else
  78:.\fun.c       ****         {
  79:.\fun.c       ****             qushui_BUZcnt=0;
 116              		.loc 1 79 0
 117 006e 0021     		mov	r1, #0
 118 0070 2970     		strb	r1, [r5]
  80:.\fun.c       ****             BUZfkg=0;
 119              		.loc 1 80 0
 120 0072 2170     		strb	r1, [r4]
 121              	.L1:
  81:.\fun.c       ****         }   
  82:.\fun.c       ****         
  83:.\fun.c       ****         
  84:.\fun.c       ****         
  85:.\fun.c       ****         
  86:.\fun.c       ****     }
  87:.\fun.c       ****     
  88:.\fun.c       ****   
  89:.\fun.c       ****     
  90:.\fun.c       ****     
  91:.\fun.c       ****     
  92:.\fun.c       ****     
  93:.\fun.c       **** //    if(BuzzerFlag.en)
  94:.\fun.c       **** //    {
  95:.\fun.c       **** //        //
  96:.\fun.c       **** //        if(BuzzerNum == 1)
  97:.\fun.c       **** //        {
  98:.\fun.c       **** //        }else if(BuzzerNum == 2)
  99:.\fun.c       **** //        {
 100:.\fun.c       **** //        }else if(BuzzerNum == 3)
 101:.\fun.c       **** //        {
 102:.\fun.c       **** //        }
 103:.\fun.c       **** //    }
 104:.\fun.c       **** }
 122              		.loc 1 104 0
 123              		@ sp needed for prologue
ARM GAS  C:\Users\ZHANGM~1\AppData\Local\Temp\cccEtK9g.s 			page 5


 124 0074 38BD     		pop	{r3, r4, r5, pc}
 125              	.L14:
 126 0076 C046     		.align	2
 127              	.L13:
 128 0078 00000000 		.word	BUZfkg
 129 007c 00000000 		.word	BuzzerDly
 130 0080 00000000 		.word	BUZqueshuifkg
 131 0084 00000000 		.word	qushui_BUZcnt
 132              		.cfi_endproc
 133              	.LFE33:
 134              		.size	Buzzer_Fun, .-Buzzer_Fun
 135              		.section	.text.Timer_Isr_Fun,"ax",%progbits
 136              		.align	1
 137              		.global	Timer_Isr_Fun
 138              		.code	16
 139              		.thumb_func
 140              		.type	Timer_Isr_Fun, %function
 141              	Timer_Isr_Fun:
 142              	.LFB34:
 105:.\fun.c       **** 
 106:.\fun.c       **** 
 107:.\fun.c       **** /********************************************************************************\
 108:.\fun.c       ****     Timer ISR FUN
 109:.\fun.c       ****     //10ms
 110:.\fun.c       **** \********************************************************************************/
 111:.\fun.c       **** void Timer_Isr_Fun(void)
 112:.\fun.c       **** {
 143              		.loc 1 112 0
 144              		.cfi_startproc
 145 0000 F8B5     		push	{r3, r4, r5, r6, r7, lr}
 146              	.LCFI1:
 147              		.cfi_def_cfa_offset 24
 148              		.cfi_offset 3, -24
 149              		.cfi_offset 4, -20
 150              		.cfi_offset 5, -16
 151              		.cfi_offset 6, -12
 152              		.cfi_offset 7, -8
 153              		.cfi_offset 14, -4
 113:.\fun.c       **** 	
 114:.\fun.c       ****     if(T10msSign)
 154              		.loc 1 114 0
 155 0002 B34B     		ldr	r3, .L130
 156 0004 1A78     		ldrb	r2, [r3]
 157 0006 002A     		cmp	r2, #0
 158 0008 00D1     		bne	.LCB119
 159 000a 3EE2     		b	.L15	@long jump
 160              	.LCB119:
 115:.\fun.c       ****         T10msSign = 0;
 116:.\fun.c       ****     else
 117:.\fun.c       ****         return;
 118:.\fun.c       ****     if(Ack_Timer>0)//应答时间设定
 161              		.loc 1 118 0
 162 000c B149     		ldr	r1, .L130+4
 115:.\fun.c       ****         T10msSign = 0;
 163              		.loc 1 115 0
 164 000e 0020     		mov	r0, #0
 165              		.loc 1 118 0
ARM GAS  C:\Users\ZHANGM~1\AppData\Local\Temp\cccEtK9g.s 			page 6


 166 0010 0C78     		ldrb	r4, [r1]
 115:.\fun.c       ****         T10msSign = 0;
 167              		.loc 1 115 0
 168 0012 1870     		strb	r0, [r3]
 169              		.loc 1 118 0
 170 0014 002C     		cmp	r4, #0
 171 0016 01D0     		beq	.L18
 119:.\fun.c       ****     	Ack_Timer--; 
 172              		.loc 1 119 0
 173 0018 013C     		sub	r4, r4, #1
 174 001a 0C70     		strb	r4, [r1]
 175              	.L18:
 120:.\fun.c       ****     if(Tds_Ack_Timer>0)//应答时间设定
 176              		.loc 1 120 0
 177 001c AE4D     		ldr	r5, .L130+8
 178 001e 2E78     		ldrb	r6, [r5]
 179 0020 002E     		cmp	r6, #0
 180 0022 01D0     		beq	.L19
 121:.\fun.c       ****     	Tds_Ack_Timer--; 
 181              		.loc 1 121 0
 182 0024 013E     		sub	r6, r6, #1
 183 0026 2E70     		strb	r6, [r5]
 184              	.L19:
 122:.\fun.c       ****     if(Send_Interval_Counter>0)
 185              		.loc 1 122 0
 186 0028 AC4F     		ldr	r7, .L130+12
 187 002a 3B78     		ldrb	r3, [r7]
 188 002c 002B     		cmp	r3, #0
 189 002e 01D0     		beq	.L20
 123:.\fun.c       ****     	Send_Interval_Counter--;
 190              		.loc 1 123 0
 191 0030 013B     		sub	r3, r3, #1
 192 0032 3B70     		strb	r3, [r7]
 193              	.L20:
 124:.\fun.c       ****     	
 125:.\fun.c       ****     	  	   
 126:.\fun.c       ****     if(fastjishifig==1)
 194              		.loc 1 126 0
 195 0034 AA49     		ldr	r1, .L130+16
 196 0036 AB48     		ldr	r0, .L130+20
 197 0038 0A78     		ldrb	r2, [r1]
 198 003a 012A     		cmp	r2, #1
 199 003c 02D1     		bne	.L21
 127:.\fun.c       ****         fastjishicnt++;
 200              		.loc 1 127 0
 201 003e 0488     		ldrh	r4, [r0]
 202 0040 0134     		add	r4, r4, #1
 203 0042 00E0     		b	.L117
 204              	.L21:
 128:.\fun.c       ****     else
 129:.\fun.c       ****         fastjishicnt=0; 
 205              		.loc 1 129 0
 206 0044 0024     		mov	r4, #0
 207              	.L117:
 130:.\fun.c       ****     if(BUZfkg==1||BUZfkg==2||BUZfkg==3)//蜂鸣器计时
 208              		.loc 1 130 0
 209 0046 A84D     		ldr	r5, .L130+24
ARM GAS  C:\Users\ZHANGM~1\AppData\Local\Temp\cccEtK9g.s 			page 7


 129:.\fun.c       ****         fastjishicnt=0; 
 210              		.loc 1 129 0
 211 0048 0480     		strh	r4, [r0]
 212              		.loc 1 130 0
 213 004a 2E78     		ldrb	r6, [r5]
 214 004c A74B     		ldr	r3, .L130+28
 215 004e 013E     		sub	r6, r6, #1
 216 0050 022E     		cmp	r6, #2
 217 0052 02D8     		bhi	.L23
 131:.\fun.c       ****     
 132:.\fun.c       ****         BuzzerDly++;
 218              		.loc 1 132 0
 219 0054 1F78     		ldrb	r7, [r3]
 220 0056 0137     		add	r7, r7, #1
 221 0058 02E0     		b	.L118
 222              	.L23:
 133:.\fun.c       ****     
 134:.\fun.c       ****     else
 135:.\fun.c       ****     {
 136:.\fun.c       ****         BuzzerDly=0;
 223              		.loc 1 136 0
 224 005a 0027     		mov	r7, #0
 225 005c 1F70     		strb	r7, [r3]
 137:.\fun.c       ****         qushui_BUZcnt=0;
 226              		.loc 1 137 0
 227 005e A44B     		ldr	r3, .L130+32
 228              	.L118:
 138:.\fun.c       ****     }
 139:.\fun.c       ****     if(Tds_Dispcnt<100)
 229              		.loc 1 139 0
 230 0060 A448     		ldr	r0, .L130+36
 137:.\fun.c       ****         qushui_BUZcnt=0;
 231              		.loc 1 137 0
 232 0062 1F70     		strb	r7, [r3]
 233              		.loc 1 139 0
 234 0064 0288     		ldrh	r2, [r0]
 235 0066 041C     		mov	r4, r0
 236 0068 632A     		cmp	r2, #99
 237 006a 02D8     		bhi	.L25
 140:.\fun.c       ****     		Tds_Dispcnt++;
 238              		.loc 1 140 0
 239 006c 0132     		add	r2, r2, #1
 240 006e 0280     		strh	r2, [r0]
 241 0070 10E0     		b	.L26
 242              	.L25:
 141:.\fun.c       ****   	else
 142:.\fun.c       ****   		{
 143:.\fun.c       ****   			if(WorkFlag01_Dispcnt<3)
 243              		.loc 1 143 0
 244 0072 A14D     		ldr	r5, .L130+40
 245 0074 A14F     		ldr	r7, .L130+44
 246 0076 2E78     		ldrb	r6, [r5]
 247 0078 022E     		cmp	r6, #2
 248 007a 05D8     		bhi	.L27
 144:.\fun.c       ****   				{
 145:.\fun.c       ****   					WorkFlag01_Dispcnt++;
 249              		.loc 1 145 0
ARM GAS  C:\Users\ZHANGM~1\AppData\Local\Temp\cccEtK9g.s 			page 8


 250 007c 0136     		add	r6, r6, #1
 251 007e 2E70     		strb	r6, [r5]
 146:.\fun.c       **** 					WorkFlag01.all=WorkFlag01.all<<1;
 252              		.loc 1 146 0
 253 0080 3A88     		ldrh	r2, [r7]
 254 0082 5500     		lsl	r5, r2, #1
 255 0084 3D80     		strh	r5, [r7]
 256 0086 03E0     		b	.L28
 257              	.L27:
 147:.\fun.c       **** 				}
 148:.\fun.c       **** 			else
 149:.\fun.c       **** 				{
 150:.\fun.c       **** 					WorkFlag01.all=0x01;//显示初始化
 258              		.loc 1 150 0
 259 0088 0123     		mov	r3, #1
 151:.\fun.c       **** 					WorkFlag01_Dispcnt=0;//显示初始化
 260              		.loc 1 151 0
 261 008a 0020     		mov	r0, #0
 150:.\fun.c       **** 					WorkFlag01.all=0x01;//显示初始化
 262              		.loc 1 150 0
 263 008c 3B80     		strh	r3, [r7]
 264              		.loc 1 151 0
 265 008e 2870     		strb	r0, [r5]
 266              	.L28:
 152:.\fun.c       **** 				}
 153:.\fun.c       ****   		 	Tds_Dispcnt=0;
 267              		.loc 1 153 0
 268 0090 0026     		mov	r6, #0
 269 0092 2680     		strh	r6, [r4]
 270              	.L26:
 154:.\fun.c       ****   		}
 155:.\fun.c       ****     if(PowerOnOneHourCnt < 360000)
 271              		.loc 1 155 0
 272 0094 9A4C     		ldr	r4, .L130+48
 273 0096 9B4B     		ldr	r3, .L130+52
 274 0098 2768     		ldr	r7, [r4]
 275 009a 9F42     		cmp	r7, r3
 276 009c 01D8     		bhi	.L29
 156:.\fun.c       ****         PowerOnOneHourCnt++;
 277              		.loc 1 156 0
 278 009e 0137     		add	r7, r7, #1
 279 00a0 2760     		str	r7, [r4]
 280              	.L29:
 157:.\fun.c       ****  
 158:.\fun.c       ****     	NbPressCnt++;
 281              		.loc 1 158 0
 282 00a2 9948     		ldr	r0, .L130+56
 159:.\fun.c       **** 
 160:.\fun.c       ****     	 WifiPressCnt++;
 283              		.loc 1 160 0
 284 00a4 994D     		ldr	r5, .L130+60
 158:.\fun.c       ****     	NbPressCnt++;
 285              		.loc 1 158 0
 286 00a6 0278     		ldrb	r2, [r0]
 161:.\fun.c       **** 
 162:.\fun.c       ****     	XzPressCnt++;
 287              		.loc 1 162 0
ARM GAS  C:\Users\ZHANGM~1\AppData\Local\Temp\cccEtK9g.s 			page 9


 288 00a8 994C     		ldr	r4, .L130+64
 163:.\fun.c       **** 
 164:.\fun.c       ****     
 165:.\fun.c       ****     FlashCnt++;
 289              		.loc 1 165 0
 290 00aa 9A4B     		ldr	r3, .L130+68
 160:.\fun.c       ****     	 WifiPressCnt++;
 291              		.loc 1 160 0
 292 00ac 2E78     		ldrb	r6, [r5]
 158:.\fun.c       ****     	NbPressCnt++;
 293              		.loc 1 158 0
 294 00ae 0132     		add	r2, r2, #1
 295 00b0 0270     		strb	r2, [r0]
 162:.\fun.c       ****     	XzPressCnt++;
 296              		.loc 1 162 0
 297 00b2 2778     		ldrb	r7, [r4]
 298              		.loc 1 165 0
 299 00b4 1878     		ldrb	r0, [r3]
 160:.\fun.c       ****     	 WifiPressCnt++;
 300              		.loc 1 160 0
 301 00b6 0136     		add	r6, r6, #1
 302 00b8 2E70     		strb	r6, [r5]
 162:.\fun.c       ****     	XzPressCnt++;
 303              		.loc 1 162 0
 304 00ba 0137     		add	r7, r7, #1
 305              		.loc 1 165 0
 306 00bc 0130     		add	r0, r0, #1
 166:.\fun.c       ****     if((WorkFlag.jishi==1)&&(WorkFlag.nowater==0))  //判断滤芯计时标志
 307              		.loc 1 166 0
 308 00be 964D     		ldr	r5, .L130+72
 162:.\fun.c       ****     	XzPressCnt++;
 309              		.loc 1 162 0
 310 00c0 2770     		strb	r7, [r4]
 165:.\fun.c       ****     FlashCnt++;
 311              		.loc 1 165 0
 312 00c2 1870     		strb	r0, [r3]
 313              		.loc 1 166 0
 314 00c4 2A78     		ldrb	r2, [r5]
 315 00c6 0A26     		mov	r6, #10
 316 00c8 1640     		and	r6, r2
 317 00ca 944F     		ldr	r7, .L130+76
 318 00cc 082E     		cmp	r6, #8
 319 00ce 00D0     		beq	.LCB247
 320 00d0 9DE0     		b	.L30	@long jump
 321              	.LCB247:
 167:.\fun.c       ****     {
 168:.\fun.c       ****         if(fastjishifig==1)
 322              		.loc 1 168 0
 323 00d2 0978     		ldrb	r1, [r1]
 324 00d4 0129     		cmp	r1, #1
 325 00d6 29D1     		bne	.L31
 169:.\fun.c       ****         {
 170:.\fun.c       ****             jingshuiliang++;
 326              		.loc 1 170 0
 327 00d8 914A     		ldr	r2, .L130+80
 171:.\fun.c       ****             if(LvxinJishi[0]<2640)
 328              		.loc 1 171 0
ARM GAS  C:\Users\ZHANGM~1\AppData\Local\Temp\cccEtK9g.s 			page 10


 329 00da 924E     		ldr	r6, .L130+84
 170:.\fun.c       ****             jingshuiliang++;
 330              		.loc 1 170 0
 331 00dc 1088     		ldrh	r0, [r2]
 332              		.loc 1 171 0
 333 00de 924C     		ldr	r4, .L130+88
 170:.\fun.c       ****             jingshuiliang++;
 334              		.loc 1 170 0
 335 00e0 0130     		add	r0, r0, #1
 336 00e2 1080     		strh	r0, [r2]
 337              		.loc 1 171 0
 338 00e4 3188     		ldrh	r1, [r6]
 339 00e6 A142     		cmp	r1, r4
 340 00e8 01D8     		bhi	.L32
 172:.\fun.c       ****                 LvxinJishi[0]++;
 341              		.loc 1 172 0
 342 00ea 0131     		add	r1, r1, #1
 343 00ec 3180     		strh	r1, [r6]
 344              	.L32:
 173:.\fun.c       ****             if(LvxinJishi[1]<3520)
 345              		.loc 1 173 0
 346 00ee 7388     		ldrh	r3, [r6, #2]
 347 00f0 8E4A     		ldr	r2, .L130+92
 348 00f2 9342     		cmp	r3, r2
 349 00f4 01D8     		bhi	.L33
 174:.\fun.c       ****                 LvxinJishi[1]++;
 350              		.loc 1 174 0
 351 00f6 0133     		add	r3, r3, #1
 352 00f8 7380     		strh	r3, [r6, #2]
 353              	.L33:
 175:.\fun.c       ****             if(LvxinJishi[2]<23760)    
 354              		.loc 1 175 0
 355 00fa B088     		ldrh	r0, [r6, #4]
 356 00fc 8C49     		ldr	r1, .L130+96
 357 00fe 8842     		cmp	r0, r1
 358 0100 01D8     		bhi	.L34
 176:.\fun.c       ****                 LvxinJishi[2]++;
 359              		.loc 1 176 0
 360 0102 0130     		add	r0, r0, #1
 361 0104 B080     		strh	r0, [r6, #4]
 362              	.L34:
 177:.\fun.c       ****             if(LvxinJishi[3]<23760)    
 363              		.loc 1 177 0
 364 0106 F488     		ldrh	r4, [r6, #6]
 365 0108 8C42     		cmp	r4, r1
 366 010a 01D8     		bhi	.L35
 178:.\fun.c       ****                 LvxinJishi[3]++;
 367              		.loc 1 178 0
 368 010c 0134     		add	r4, r4, #1
 369 010e F480     		strh	r4, [r6, #6]
 370              	.L35:
 179:.\fun.c       ****             if(LvxinJishi[4]<23760)
 371              		.loc 1 179 0
 372 0110 3389     		ldrh	r3, [r6, #8]
 373 0112 8B42     		cmp	r3, r1
 374 0114 01D8     		bhi	.L36
 180:.\fun.c       ****                 LvxinJishi[4]++;
ARM GAS  C:\Users\ZHANGM~1\AppData\Local\Temp\cccEtK9g.s 			page 11


 375              		.loc 1 180 0
 376 0116 0133     		add	r3, r3, #1
 377 0118 3381     		strh	r3, [r6, #8]
 378              	.L36:
 181:.\fun.c       ****             if(LvxinJishi[4]<5940)
 379              		.loc 1 181 0
 380 011a 3289     		ldrh	r2, [r6, #8]
 381 011c 8548     		ldr	r0, .L130+100
 382 011e 8242     		cmp	r2, r0
 383 0120 00D9     		bls	.LCB297
 384 0122 6EE0     		b	.L38	@long jump
 385              	.LCB297:
 182:.\fun.c       ****                 LvxinJishi[5]++;
 386              		.loc 1 182 0
 387 0124 7189     		ldrh	r1, [r6, #10]
 388 0126 0131     		add	r1, r1, #1
 389 0128 7181     		strh	r1, [r6, #10]
 390 012a 6AE0     		b	.L38
 391              	.L31:
 183:.\fun.c       ****         
 184:.\fun.c       ****         }   
 185:.\fun.c       ****         
 186:.\fun.c       ****         else
 187:.\fun.c       ****         {
 188:.\fun.c       ****         
 189:.\fun.c       ****             
 190:.\fun.c       ****              onemincnt++;
 392              		.loc 1 190 0
 393 012c 824B     		ldr	r3, .L130+104
 191:.\fun.c       ****             if(onemincnt>=NBmint)
 394              		.loc 1 191 0
 395 012e 834E     		ldr	r6, .L130+108
 190:.\fun.c       ****              onemincnt++;
 396              		.loc 1 190 0
 397 0130 1888     		ldrh	r0, [r3]
 398              		.loc 1 191 0
 399 0132 3488     		ldrh	r4, [r6]
 190:.\fun.c       ****              onemincnt++;
 400              		.loc 1 190 0
 401 0134 0130     		add	r0, r0, #1
 402 0136 82B2     		uxth	r2, r0
 403 0138 1A80     		strh	r2, [r3]
 404              		.loc 1 191 0
 405 013a 9442     		cmp	r4, r2
 406 013c 47D8     		bhi	.L40
 192:.\fun.c       ****             {
 193:.\fun.c       ****                 
 194:.\fun.c       ****                 onemincnt=0;
 407              		.loc 1 194 0
 408 013e 0021     		mov	r1, #0
 409 0140 1980     		strh	r1, [r3]
 195:.\fun.c       ****                 
 196:.\fun.c       ****                 if(NBfig==1)
 410              		.loc 1 196 0
 411 0142 7F4B     		ldr	r3, .L130+112
 412 0144 774A     		ldr	r2, .L130+84
 413 0146 1878     		ldrb	r0, [r3]
ARM GAS  C:\Users\ZHANGM~1\AppData\Local\Temp\cccEtK9g.s 			page 12


 414 0148 0128     		cmp	r0, #1
 415 014a 20D1     		bne	.L41
 197:.\fun.c       ****                 {
 198:.\fun.c       ****                 
 199:.\fun.c       ****                     if(LvxinJishi[0]<2640)
 416              		.loc 1 199 0
 417 014c 1188     		ldrh	r1, [r2]
 418 014e 764C     		ldr	r4, .L130+88
 419 0150 A142     		cmp	r1, r4
 420 0152 01D8     		bhi	.L42
 200:.\fun.c       ****                         LvxinJishi[0]++;
 421              		.loc 1 200 0
 422 0154 0131     		add	r1, r1, #1
 423 0156 1180     		strh	r1, [r2]
 424              	.L42:
 201:.\fun.c       ****                     if(LvxinJishi[1]<3520)
 425              		.loc 1 201 0
 426 0158 5388     		ldrh	r3, [r2, #2]
 427 015a 7448     		ldr	r0, .L130+92
 428 015c 8342     		cmp	r3, r0
 429 015e 01D8     		bhi	.L43
 202:.\fun.c       ****                         LvxinJishi[1]++;
 430              		.loc 1 202 0
 431 0160 0133     		add	r3, r3, #1
 432 0162 5380     		strh	r3, [r2, #2]
 433              	.L43:
 203:.\fun.c       ****                     if(LvxinJishi[2]<23760)    
 434              		.loc 1 203 0
 435 0164 9688     		ldrh	r6, [r2, #4]
 436 0166 7249     		ldr	r1, .L130+96
 437 0168 8E42     		cmp	r6, r1
 438 016a 01D8     		bhi	.L44
 204:.\fun.c       ****                         LvxinJishi[2]++;
 439              		.loc 1 204 0
 440 016c 0136     		add	r6, r6, #1
 441 016e 9680     		strh	r6, [r2, #4]
 442              	.L44:
 205:.\fun.c       ****                     if(LvxinJishi[3]<23760)    
 443              		.loc 1 205 0
 444 0170 D488     		ldrh	r4, [r2, #6]
 445 0172 8C42     		cmp	r4, r1
 446 0174 01D8     		bhi	.L45
 206:.\fun.c       ****                         LvxinJishi[3]++;
 447              		.loc 1 206 0
 448 0176 0134     		add	r4, r4, #1
 449 0178 D480     		strh	r4, [r2, #6]
 450              	.L45:
 207:.\fun.c       ****                     if(LvxinJishi[4]<23760)
 451              		.loc 1 207 0
 452 017a 1389     		ldrh	r3, [r2, #8]
 453 017c 8B42     		cmp	r3, r1
 454 017e 01D8     		bhi	.L46
 208:.\fun.c       ****                         LvxinJishi[4]++;
 455              		.loc 1 208 0
 456 0180 0133     		add	r3, r3, #1
 457 0182 1381     		strh	r3, [r2, #8]
 458              	.L46:
ARM GAS  C:\Users\ZHANGM~1\AppData\Local\Temp\cccEtK9g.s 			page 13


 209:.\fun.c       ****                     if(LvxinJishi[4]<5940)
 459              		.loc 1 209 0
 460 0184 1089     		ldrh	r0, [r2, #8]
 461 0186 6B4E     		ldr	r6, .L130+100
 462 0188 B042     		cmp	r0, r6
 463 018a 20D8     		bhi	.L40
 464 018c 1CE0     		b	.L119
 465              	.L41:
 210:.\fun.c       ****                         LvxinJishi[5]++;
 211:.\fun.c       ****                 }
 212:.\fun.c       ****                 
 213:.\fun.c       ****                 else
 214:.\fun.c       ****                 {
 215:.\fun.c       ****                     if(LvxinJishi[0]<3168)
 466              		.loc 1 215 0
 467 018e 1688     		ldrh	r6, [r2]
 468 0190 6C4C     		ldr	r4, .L130+116
 469 0192 A642     		cmp	r6, r4
 470 0194 01D8     		bhi	.L48
 216:.\fun.c       ****                          LvxinJishi[0]++;
 471              		.loc 1 216 0
 472 0196 0136     		add	r6, r6, #1
 473 0198 1680     		strh	r6, [r2]
 474              	.L48:
 217:.\fun.c       ****                     if(LvxinJishi[0]<4224)    
 475              		.loc 1 217 0
 476 019a 1188     		ldrh	r1, [r2]
 477 019c 6A4B     		ldr	r3, .L130+120
 478 019e 9942     		cmp	r1, r3
 479 01a0 03D8     		bhi	.L49
 218:.\fun.c       ****                         LvxinJishi[1]++;
 480              		.loc 1 218 0
 481 01a2 5688     		ldrh	r6, [r2, #2]
 482 01a4 0136     		add	r6, r6, #1
 483 01a6 5680     		strh	r6, [r2, #2]
 484 01a8 02E0     		b	.L50
 485              	.L49:
 219:.\fun.c       ****                     if(LvxinJishi[0]<28512)    
 486              		.loc 1 219 0
 487 01aa 6848     		ldr	r0, .L130+124
 488 01ac 8142     		cmp	r1, r0
 489 01ae 0ED8     		bhi	.L40
 490              	.L50:
 220:.\fun.c       ****                         LvxinJishi[2]++;
 491              		.loc 1 220 0
 492 01b0 9488     		ldrh	r4, [r2, #4]
 221:.\fun.c       ****                     if(LvxinJishi[0]<28512)    
 222:.\fun.c       ****                         LvxinJishi[3]++;
 493              		.loc 1 222 0
 494 01b2 D388     		ldrh	r3, [r2, #6]
 223:.\fun.c       ****                     if(LvxinJishi[0]<28512)
 224:.\fun.c       ****                         LvxinJishi[4]++;
 495              		.loc 1 224 0
 496 01b4 1089     		ldrh	r0, [r2, #8]
 225:.\fun.c       ****                     if(LvxinJishi[0]<7128)
 497              		.loc 1 225 0
 498 01b6 664E     		ldr	r6, .L130+128
ARM GAS  C:\Users\ZHANGM~1\AppData\Local\Temp\cccEtK9g.s 			page 14


 220:.\fun.c       ****                         LvxinJishi[2]++;
 499              		.loc 1 220 0
 500 01b8 0134     		add	r4, r4, #1
 222:.\fun.c       ****                         LvxinJishi[3]++;
 501              		.loc 1 222 0
 502 01ba 0133     		add	r3, r3, #1
 224:.\fun.c       ****                         LvxinJishi[4]++;
 503              		.loc 1 224 0
 504 01bc 0130     		add	r0, r0, #1
 220:.\fun.c       ****                         LvxinJishi[2]++;
 505              		.loc 1 220 0
 506 01be 9480     		strh	r4, [r2, #4]
 222:.\fun.c       ****                         LvxinJishi[3]++;
 507              		.loc 1 222 0
 508 01c0 D380     		strh	r3, [r2, #6]
 224:.\fun.c       ****                         LvxinJishi[4]++;
 509              		.loc 1 224 0
 510 01c2 1081     		strh	r0, [r2, #8]
 511              		.loc 1 225 0
 512 01c4 B142     		cmp	r1, r6
 513 01c6 02D8     		bhi	.L40
 514              	.L119:
 226:.\fun.c       ****                         LvxinJishi[5]++;
 515              		.loc 1 226 0
 516 01c8 5189     		ldrh	r1, [r2, #10]
 517 01ca 0131     		add	r1, r1, #1
 518 01cc 5181     		strh	r1, [r2, #10]
 519              	.L40:
 227:.\fun.c       ****                 
 228:.\fun.c       ****                 
 229:.\fun.c       ****                 }
 230:.\fun.c       ****                 
 231:.\fun.c       ****                 
 232:.\fun.c       ****             }                   
 233:.\fun.c       ****         if(jingshuicnt<65500)
 520              		.loc 1 233 0
 521 01ce 614A     		ldr	r2, .L130+132
 522 01d0 614B     		ldr	r3, .L130+136
 523 01d2 1488     		ldrh	r4, [r2]
 524 01d4 9C42     		cmp	r4, r3
 525 01d6 01D8     		bhi	.L51
 234:.\fun.c       ****         jingshuicnt++;//净水量计数器
 526              		.loc 1 234 0
 527 01d8 0134     		add	r4, r4, #1
 528 01da 1480     		strh	r4, [r2]
 529              	.L51:
 235:.\fun.c       ****         if(jingshuicnt>TIMER1M_jingshui)//每60S 净水量加1
 530              		.loc 1 235 0
 531 01dc 1088     		ldrh	r0, [r2]
 532 01de 9626     		mov	r6, #150
 533 01e0 B100     		lsl	r1, r6, #2
 534 01e2 8842     		cmp	r0, r1
 535 01e4 0DD9     		bls	.L38
 236:.\fun.c       ****         {
 237:.\fun.c       ****         	if(jingshuiliang > 9999)
 536              		.loc 1 237 0
 537 01e6 4E4B     		ldr	r3, .L130+80
ARM GAS  C:\Users\ZHANGM~1\AppData\Local\Temp\cccEtK9g.s 			page 15


 538 01e8 5C48     		ldr	r0, .L130+140
 539 01ea 1C88     		ldrh	r4, [r3]
 540 01ec 8442     		cmp	r4, r0
 541 01ee 03D9     		bls	.L53
 238:.\fun.c       ****     				{   
 239:.\fun.c       ****         			jingshuiliang = 0;//9999;
 240:.\fun.c       ****         			EEjingshuiliang=0;
 542              		.loc 1 240 0
 543 01f0 5B49     		ldr	r1, .L130+144
 239:.\fun.c       ****         			jingshuiliang = 0;//9999;
 544              		.loc 1 239 0
 545 01f2 0026     		mov	r6, #0
 546 01f4 1E80     		strh	r6, [r3]
 547              		.loc 1 240 0
 548 01f6 0E80     		strh	r6, [r1]
 549              	.L53:
 241:.\fun.c       ****        				// write1();
 242:.\fun.c       ****     				}
 243:.\fun.c       ****             jingshuiliang++;
 550              		.loc 1 243 0
 551 01f8 1C88     		ldrh	r4, [r3]
 552 01fa 0134     		add	r4, r4, #1
 553 01fc 1C80     		strh	r4, [r3]
 244:.\fun.c       ****             jingshuicnt=0;
 554              		.loc 1 244 0
 555 01fe 0023     		mov	r3, #0
 556 0200 1380     		strh	r3, [r2]
 557              	.L38:
 245:.\fun.c       ****             
 246:.\fun.c       ****         }
 247:.\fun.c       ****        
 248:.\fun.c       ****         
 249:.\fun.c       ****         
 250:.\fun.c       ****         } 
 251:.\fun.c       ****         if(LianXuJiShi<80000)
 558              		.loc 1 251 0
 559 0202 3C68     		ldr	r4, [r7]
 560 0204 574E     		ldr	r6, .L130+148
 561 0206 B442     		cmp	r4, r6
 562 0208 03D8     		bhi	.L54
 252:.\fun.c       ****         	LianXuJiShi++;
 563              		.loc 1 252 0
 564 020a 0134     		add	r4, r4, #1
 565 020c 00E0     		b	.L120
 566              	.L30:
 253:.\fun.c       ****         
 254:.\fun.c       ****         
 255:.\fun.c       ****         
 256:.\fun.c       ****         
 257:.\fun.c       ****     }else
 258:.\fun.c       ****     {
 259:.\fun.c       ****         LianXuJiShi = 0;
 567              		.loc 1 259 0
 568 020e 0024     		mov	r4, #0
 569              	.L120:
 570 0210 3C60     		str	r4, [r7]
 571              	.L54:
ARM GAS  C:\Users\ZHANGM~1\AppData\Local\Temp\cccEtK9g.s 			page 16


 260:.\fun.c       ****     }
 261:.\fun.c       ****     
 262:.\fun.c       ****     StaFlashCnt++;
 572              		.loc 1 262 0
 573 0212 554F     		ldr	r7, .L130+152
 574 0214 3C78     		ldrb	r4, [r7]
 575 0216 0134     		add	r4, r4, #1
 576 0218 E3B2     		uxtb	r3, r4
 577              	.LVL3:
 263:.\fun.c       ****     if(StaFlashCnt > TIMER500MS)
 578              		.loc 1 263 0
 579 021a 052B     		cmp	r3, #5
 580 021c 01D8     		bhi	.L55
 581              	.LVL4:
 262:.\fun.c       ****     StaFlashCnt++;
 582              		.loc 1 262 0
 583 021e 3B70     		strb	r3, [r7]
 584 0220 0BE0     		b	.L56
 585              	.L55:
 264:.\fun.c       ****     {
 265:.\fun.c       ****         StaFlashCnt = 0;
 266:.\fun.c       ****         DisFlag.sta = !DisFlag.sta;
 586              		.loc 1 266 0
 587 0222 524E     		ldr	r6, .L130+156
 265:.\fun.c       ****         StaFlashCnt = 0;
 588              		.loc 1 265 0
 589 0224 0022     		mov	r2, #0
 590 0226 3A70     		strb	r2, [r7]
 591              		.loc 1 266 0
 592 0228 F778     		ldrb	r7, [r6, #3]
 593 022a 0121     		mov	r1, #1
 594 022c B809     		lsr	r0, r7, #6
 595 022e 8143     		bic	r1, r0
 596 0230 4023     		mov	r3, #64
 597              	.LVL5:
 598 0232 8C01     		lsl	r4, r1, #6
 599 0234 9F43     		bic	r7, r3
 600 0236 2743     		orr	r7, r4
 601 0238 F770     		strb	r7, [r6, #3]
 602              	.LVL6:
 603              	.L56:
 267:.\fun.c       ****     }
 268:.\fun.c       **** 
 269:.\fun.c       ****   	if(PowerOnCnt00<0xffff)
 604              		.loc 1 269 0
 605 023a 4D4E     		ldr	r6, .L130+160
 606 023c 4D4F     		ldr	r7, .L130+164
 607 023e 3288     		ldrh	r2, [r6]
 608 0240 BA42     		cmp	r2, r7
 609 0242 14D0     		beq	.L58
 270:.\fun.c       ****   		{
 271:.\fun.c       ****     		PowerOnCnt00++;
 610              		.loc 1 271 0
 611 0244 0132     		add	r2, r2, #1
 272:.\fun.c       **** 		    if(PowerOnCnt00>60000)//10min
 612              		.loc 1 272 0
 613 0246 4C49     		ldr	r1, .L130+168
ARM GAS  C:\Users\ZHANGM~1\AppData\Local\Temp\cccEtK9g.s 			page 17


 271:.\fun.c       ****     		PowerOnCnt00++;
 614              		.loc 1 271 0
 615 0248 90B2     		uxth	r0, r2
 616 024a 3080     		strh	r0, [r6]
 617              		.loc 1 272 0
 618 024c 8842     		cmp	r0, r1
 619 024e 0ED9     		bls	.L58
 273:.\fun.c       **** 		    //if(PowerOnCnt00>1)//10min
 274:.\fun.c       **** 		    	{
 275:.\fun.c       **** 		    		PowerOnCnt00=0;
 276:.\fun.c       **** 		    		if(PowerOnCnt01<144)//24hour
 620              		.loc 1 276 0
 621 0250 4A4B     		ldr	r3, .L130+172
 622              	.LVL7:
 275:.\fun.c       **** 		    		PowerOnCnt00=0;
 623              		.loc 1 275 0
 624 0252 0024     		mov	r4, #0
 625 0254 3480     		strh	r4, [r6]
 626              		.loc 1 276 0
 627 0256 1E78     		ldrb	r6, [r3]
 628 0258 8F2E     		cmp	r6, #143
 629 025a 02D8     		bhi	.L60
 277:.\fun.c       **** 		    			PowerOnCnt01++;
 630              		.loc 1 277 0
 631 025c 0136     		add	r6, r6, #1
 632 025e 1E70     		strb	r6, [r3]
 633 0260 05E0     		b	.L58
 634              	.L60:
 278:.\fun.c       **** 		    		else
 279:.\fun.c       **** 		    			{
 280:.\fun.c       **** 		    				WorkFlag02.poll_24H_value_sendingcmp=1;
 635              		.loc 1 280 0
 636 0262 474A     		ldr	r2, .L130+176
 637 0264 0421     		mov	r1, #4
 638 0266 1078     		ldrb	r0, [r2]
 639 0268 0843     		orr	r0, r1
 640 026a 1070     		strb	r0, [r2]
 281:.\fun.c       **** 		    				PowerOnCnt01=0;
 641              		.loc 1 281 0
 642 026c 1C70     		strb	r4, [r3]
 643              	.LVL8:
 644              	.L58:
 282:.\fun.c       **** 		    				PowerOnCnt00=0;
 283:.\fun.c       **** 		    			}
 284:.\fun.c       **** 		    	}
 285:.\fun.c       **** 	  	} 
 286:.\fun.c       ****     if(chongxifig==1)//冲洗状态且无故障就计时
 645              		.loc 1 286 0
 646 026e 454C     		ldr	r4, .L130+180
 647 0270 2778     		ldrb	r7, [r4]
 648 0272 012F     		cmp	r7, #1
 649 0274 03D1     		bne	.L61
 287:.\fun.c       ****         chongxicnt++;
 650              		.loc 1 287 0
 651 0276 444B     		ldr	r3, .L130+184
 652              	.LVL9:
 653 0278 1E88     		ldrh	r6, [r3]
ARM GAS  C:\Users\ZHANGM~1\AppData\Local\Temp\cccEtK9g.s 			page 18


 654 027a 0136     		add	r6, r6, #1
 655 027c 1E80     		strh	r6, [r3]
 656              	.LVL10:
 657              	.L61:
 288:.\fun.c       ****     
 289:.\fun.c       ****     if(WorkFlag.quyuxzsta)//区域选择状态激活时开始计时
 658              		.loc 1 289 0
 659 027e 2A78     		ldrb	r2, [r5]
 660 0280 D206     		lsl	r2, r2, #27
 661 0282 03D5     		bpl	.L62
 290:.\fun.c       ****         NBstandcnt++;
 662              		.loc 1 290 0
 663 0284 4148     		ldr	r0, .L130+188
 664 0286 0188     		ldrh	r1, [r0]
 665 0288 0131     		add	r1, r1, #1
 666 028a 0180     		strh	r1, [r0]
 667              	.L62:
 291:.\fun.c       ****     if(lXXZcnt_fig)//滤芯状态计时
 668              		.loc 1 291 0
 669 028c 404F     		ldr	r7, .L130+192
 670 028e 414C     		ldr	r4, .L130+196
 671 0290 3B78     		ldrb	r3, [r7]
 672              	.LVL11:
 673 0292 002B     		cmp	r3, #0
 674 0294 02D0     		beq	.L63
 292:.\fun.c       ****         LXXZstandcnt++;
 675              		.loc 1 292 0
 676 0296 2688     		ldrh	r6, [r4]
 677 0298 0136     		add	r6, r6, #1
 678 029a 2680     		strh	r6, [r4]
 679              	.L63:
 293:.\fun.c       ****     if(DYWDfig==1&&DYWD_Read() ==0)//从无水到有水低压微动接通3S 计时 
 680              		.loc 1 293 0
 681 029c 3E4A     		ldr	r2, .L130+200
 682 029e 3F4E     		ldr	r6, .L130+204
 683 02a0 1078     		ldrb	r0, [r2]
 684 02a2 0128     		cmp	r0, #1
 685 02a4 06D1     		bne	.L64
 686              		.loc 1 293 0 is_stmt 0 discriminator 1
 687 02a6 FFF7FEFF 		bl	DYWD_Read
 688              	.LVL12:
 689 02aa 0028     		cmp	r0, #0
 690 02ac 02D1     		bne	.L64
 294:.\fun.c       ****         DYWDcnt++;
 691              		.loc 1 294 0 is_stmt 1
 692 02ae 3178     		ldrb	r1, [r6]
 693 02b0 0131     		add	r1, r1, #1
 694 02b2 00E0     		b	.L121
 695              	.L64:
 295:.\fun.c       ****     else
 296:.\fun.c       ****        DYWDcnt=0;
 696              		.loc 1 296 0
 697 02b4 0021     		mov	r1, #0
 698              	.L121:
 297:.\fun.c       ****     if(DYWDfig1==1&&DYWD_Read() ==1)//从有水到无水低压微动接通3S 计时 
 699              		.loc 1 297 0
 700 02b6 3A4B     		ldr	r3, .L130+208
ARM GAS  C:\Users\ZHANGM~1\AppData\Local\Temp\cccEtK9g.s 			page 19


 296:.\fun.c       ****        DYWDcnt=0;
 701              		.loc 1 296 0
 702 02b8 3170     		strb	r1, [r6]
 703              		.loc 1 297 0
 704 02ba 1A78     		ldrb	r2, [r3]
 705 02bc 394E     		ldr	r6, .L130+212
 706 02be 012A     		cmp	r2, #1
 707 02c0 72D1     		bne	.L66
 708              		.loc 1 297 0 is_stmt 0 discriminator 1
 709 02c2 FFF7FEFF 		bl	DYWD_Read
 710              	.LVL13:
 711 02c6 0128     		cmp	r0, #1
 712 02c8 6ED1     		bne	.L66
 298:.\fun.c       ****         DYWDcnt1++;
 713              		.loc 1 298 0 is_stmt 1
 714 02ca 3088     		ldrh	r0, [r6]
 715 02cc 0130     		add	r0, r0, #1
 716 02ce 6CE0     		b	.L122
 717              	.L131:
 718              		.align	2
 719              	.L130:
 720 02d0 00000000 		.word	T10msSign
 721 02d4 00000000 		.word	Ack_Timer
 722 02d8 00000000 		.word	Tds_Ack_Timer
 723 02dc 00000000 		.word	Send_Interval_Counter
 724 02e0 00000000 		.word	fastjishifig
 725 02e4 00000000 		.word	fastjishicnt
 726 02e8 00000000 		.word	BUZfkg
 727 02ec 00000000 		.word	BuzzerDly
 728 02f0 00000000 		.word	qushui_BUZcnt
 729 02f4 00000000 		.word	Tds_Dispcnt
 730 02f8 00000000 		.word	WorkFlag01_Dispcnt
 731 02fc 00000000 		.word	WorkFlag01
 732 0300 00000000 		.word	PowerOnOneHourCnt
 733 0304 3F7E0500 		.word	359999
 734 0308 00000000 		.word	NbPressCnt
 735 030c 00000000 		.word	WifiPressCnt
 736 0310 00000000 		.word	XzPressCnt
 737 0314 00000000 		.word	FlashCnt
 738 0318 00000000 		.word	WorkFlag
 739 031c 00000000 		.word	LianXuJiShi
 740 0320 00000000 		.word	jingshuiliang
 741 0324 00000000 		.word	LvxinJishi
 742 0328 4F0A0000 		.word	2639
 743 032c BF0D0000 		.word	3519
 744 0330 CF5C0000 		.word	23759
 745 0334 33170000 		.word	5939
 746 0338 00000000 		.word	onemincnt
 747 033c 00000000 		.word	NBmint
 748 0340 00000000 		.word	NBfig
 749 0344 5F0C0000 		.word	3167
 750 0348 7F100000 		.word	4223
 751 034c 5F6F0000 		.word	28511
 752 0350 D71B0000 		.word	7127
 753 0354 00000000 		.word	jingshuicnt
 754 0358 DBFF0000 		.word	65499
 755 035c 0F270000 		.word	9999
ARM GAS  C:\Users\ZHANGM~1\AppData\Local\Temp\cccEtK9g.s 			page 20


 756 0360 00000000 		.word	EEjingshuiliang
 757 0364 7F380100 		.word	79999
 758 0368 00000000 		.word	StaFlashCnt
 759 036c 00000000 		.word	DisFlag
 760 0370 00000000 		.word	PowerOnCnt00
 761 0374 FFFF0000 		.word	65535
 762 0378 60EA0000 		.word	60000
 763 037c 00000000 		.word	PowerOnCnt01
 764 0380 00000000 		.word	WorkFlag02
 765 0384 00000000 		.word	chongxifig
 766 0388 00000000 		.word	chongxicnt
 767 038c 00000000 		.word	NBstandcnt
 768 0390 00000000 		.word	lXXZcnt_fig
 769 0394 00000000 		.word	LXXZstandcnt
 770 0398 00000000 		.word	DYWDfig
 771 039c 00000000 		.word	DYWDcnt
 772 03a0 00000000 		.word	DYWDfig1
 773 03a4 00000000 		.word	DYWDcnt1
 774              	.L66:
 299:.\fun.c       ****     else
 300:.\fun.c       ****        DYWDcnt1=0;
 775              		.loc 1 300 0
 776 03a8 0020     		mov	r0, #0
 777              	.L122:
 301:.\fun.c       ****     
 302:.\fun.c       ****     
 303:.\fun.c       ****     
 304:.\fun.c       ****     if(GYfig1==1&&GYWD_Read() ==1)//从到有水低压微动接通3S 计时 
 778              		.loc 1 304 0
 779 03aa 3849     		ldr	r1, .L132
 300:.\fun.c       ****        DYWDcnt1=0;
 780              		.loc 1 300 0
 781 03ac 3080     		strh	r0, [r6]
 782              		.loc 1 304 0
 783 03ae 0B78     		ldrb	r3, [r1]
 784 03b0 374E     		ldr	r6, .L132+4
 785 03b2 012B     		cmp	r3, #1
 786 03b4 06D1     		bne	.L68
 787              		.loc 1 304 0 is_stmt 0 discriminator 1
 788 03b6 FFF7FEFF 		bl	GYWD_Read
 789              	.LVL14:
 790 03ba 0128     		cmp	r0, #1
 791 03bc 02D1     		bne	.L68
 305:.\fun.c       ****         GYcnt1++;
 792              		.loc 1 305 0 is_stmt 1
 793 03be 3278     		ldrb	r2, [r6]
 794 03c0 0132     		add	r2, r2, #1
 795 03c2 00E0     		b	.L123
 796              	.L68:
 306:.\fun.c       ****     else
 307:.\fun.c       ****        GYcnt1=0;
 797              		.loc 1 307 0
 798 03c4 0022     		mov	r2, #0
 799              	.L123:
 308:.\fun.c       ****     
 309:.\fun.c       ****     if(GYfig==1&&GYWD_Read() ==0)//从有水到无水低压微动接通3S 计时 
 800              		.loc 1 309 0
ARM GAS  C:\Users\ZHANGM~1\AppData\Local\Temp\cccEtK9g.s 			page 21


 801 03c6 3348     		ldr	r0, .L132+8
 307:.\fun.c       ****        GYcnt1=0;
 802              		.loc 1 307 0
 803 03c8 3270     		strb	r2, [r6]
 804              		.loc 1 309 0
 805 03ca 0178     		ldrb	r1, [r0]
 806 03cc 324E     		ldr	r6, .L132+12
 807 03ce 0129     		cmp	r1, #1
 808 03d0 06D1     		bne	.L70
 809              		.loc 1 309 0 is_stmt 0 discriminator 1
 810 03d2 FFF7FEFF 		bl	GYWD_Read
 811              	.LVL15:
 812 03d6 0028     		cmp	r0, #0
 813 03d8 02D1     		bne	.L70
 310:.\fun.c       ****         GYcnt++;
 814              		.loc 1 310 0 is_stmt 1
 815 03da 3378     		ldrb	r3, [r6]
 816 03dc 0133     		add	r3, r3, #1
 817 03de 00E0     		b	.L124
 818              	.L70:
 311:.\fun.c       ****     else
 312:.\fun.c       ****        GYcnt=0;
 819              		.loc 1 312 0
 820 03e0 0023     		mov	r3, #0
 821              	.L124:
 313:.\fun.c       ****     
 314:.\fun.c       ****     
 315:.\fun.c       ****     
 316:.\fun.c       ****     
 317:.\fun.c       ****     if(lXXZcnt_fig)
 822              		.loc 1 317 0
 823 03e2 3F78     		ldrb	r7, [r7]
 312:.\fun.c       ****        GYcnt=0;
 824              		.loc 1 312 0
 825 03e4 3370     		strb	r3, [r6]
 826              		.loc 1 317 0
 827 03e6 002F     		cmp	r7, #0
 828 03e8 04D0     		beq	.L72
 318:.\fun.c       ****     {
 319:.\fun.c       ****         if(LXXZstandcnt<400)//滤芯状态计时
 829              		.loc 1 319 0
 830 03ea 2788     		ldrh	r7, [r4]
 831 03ec 2B4A     		ldr	r2, .L132+16
 832 03ee 9742     		cmp	r7, r2
 833 03f0 01D8     		bhi	.L73
 320:.\fun.c       ****              LXXZstandcnt++; 
 834              		.loc 1 320 0
 835 03f2 0137     		add	r7, r7, #1
 836              	.L72:
 321:.\fun.c       ****     }
 322:.\fun.c       ****     else
 323:.\fun.c       ****         LXXZstandcnt=0;    
 837              		.loc 1 323 0
 838 03f4 2780     		strh	r7, [r4]
 839              	.L73:
 324:.\fun.c       ****     
 325:.\fun.c       ****     
ARM GAS  C:\Users\ZHANGM~1\AppData\Local\Temp\cccEtK9g.s 			page 22


 326:.\fun.c       ****     if(Error_Data.bit.Error_00_flag==1)//连续制水2小时全屏闪烁
 840              		.loc 1 326 0
 841 03f6 2A4C     		ldr	r4, .L132+20
 842 03f8 0120     		mov	r0, #1
 843 03fa 2678     		ldrb	r6, [r4]
 844 03fc 2949     		ldr	r1, .L132+24
 845 03fe 0640     		and	r6, r0
 846 0400 01D0     		beq	.L74
 327:.\fun.c       ****         eroorcnt++;
 847              		.loc 1 327 0
 848 0402 0E88     		ldrh	r6, [r1]
 849 0404 0136     		add	r6, r6, #1
 850              	.L74:
 328:.\fun.c       ****     else
 329:.\fun.c       ****         
 330:.\fun.c       ****         eroorcnt=0;
 331:.\fun.c       ****     
 332:.\fun.c       ****     if(standflashfig==1)//指示灯无闪烁计时
 851              		.loc 1 332 0
 852 0406 284B     		ldr	r3, .L132+28
 330:.\fun.c       ****         eroorcnt=0;
 853              		.loc 1 330 0
 854 0408 0E80     		strh	r6, [r1]
 855              		.loc 1 332 0
 856 040a 1F78     		ldrb	r7, [r3]
 857 040c 274C     		ldr	r4, .L132+32
 858 040e 012F     		cmp	r7, #1
 859 0410 02D1     		bne	.L76
 333:.\fun.c       ****         standflashcnt++;
 860              		.loc 1 333 0
 861 0412 2288     		ldrh	r2, [r4]
 862 0414 0132     		add	r2, r2, #1
 863 0416 00E0     		b	.L125
 864              	.L76:
 334:.\fun.c       ****     else
 335:.\fun.c       ****         standflashcnt=0;
 865              		.loc 1 335 0
 866 0418 0022     		mov	r2, #0
 867              	.L125:
 336:.\fun.c       ****     if(standkeyfig==1)//按键无动作计时
 868              		.loc 1 336 0
 869 041a 2548     		ldr	r0, .L132+36
 335:.\fun.c       ****         standflashcnt=0;
 870              		.loc 1 335 0
 871 041c 2280     		strh	r2, [r4]
 872              		.loc 1 336 0
 873 041e 0178     		ldrb	r1, [r0]
 874 0420 244E     		ldr	r6, .L132+40
 875 0422 0129     		cmp	r1, #1
 876 0424 02D1     		bne	.L78
 337:.\fun.c       ****         standkeycnt++;
 877              		.loc 1 337 0
 878 0426 3388     		ldrh	r3, [r6]
 879 0428 0133     		add	r3, r3, #1
 880 042a 00E0     		b	.L126
 881              	.L78:
 338:.\fun.c       ****     else
ARM GAS  C:\Users\ZHANGM~1\AppData\Local\Temp\cccEtK9g.s 			page 23


 339:.\fun.c       ****         standkeycnt=0;
 882              		.loc 1 339 0
 883 042c 0023     		mov	r3, #0
 884              	.L126:
 885 042e 3380     		strh	r3, [r6]
 340:.\fun.c       ****     if(WorkFlag.zijiansta&&zijianstacnt<255) //自检状态计时
 886              		.loc 1 340 0
 887 0430 ED78     		ldrb	r5, [r5, #3]
 888 0432 EA07     		lsl	r2, r5, #31
 889 0434 05D5     		bpl	.L80
 890              		.loc 1 340 0 is_stmt 0 discriminator 1
 891 0436 204F     		ldr	r7, .L132+44
 892 0438 3C78     		ldrb	r4, [r7]
 893 043a FF2C     		cmp	r4, #255
 894 043c 01D0     		beq	.L80
 341:.\fun.c       ****     
 342:.\fun.c       ****         zijianstacnt++;
 895              		.loc 1 342 0 is_stmt 1
 896 043e 0134     		add	r4, r4, #1
 897 0440 3C70     		strb	r4, [r7]
 898              	.L80:
 343:.\fun.c       ****     
 344:.\fun.c       ****     if(jserrorcntfig==1)
 899              		.loc 1 344 0
 900 0442 1E4A     		ldr	r2, .L132+48
 901 0444 1E49     		ldr	r1, .L132+52
 902 0446 1078     		ldrb	r0, [r2]
 903 0448 0128     		cmp	r0, #1
 904 044a 04D1     		bne	.L81
 345:.\fun.c       ****     	{
 346:.\fun.c       ****     		if(jserrorcnt<0xff)
 905              		.loc 1 346 0
 906 044c 0E78     		ldrb	r6, [r1]
 907 044e FF2E     		cmp	r6, #255
 908 0450 03D0     		beq	.L82
 347:.\fun.c       ****         jserrorcnt++;
 909              		.loc 1 347 0
 910 0452 0136     		add	r6, r6, #1
 911 0454 00E0     		b	.L127
 912              	.L81:
 348:.\fun.c       ****       }
 349:.\fun.c       ****     else
 350:.\fun.c       ****         jserrorcnt=0;
 913              		.loc 1 350 0
 914 0456 0026     		mov	r6, #0
 915              	.L127:
 916 0458 0E70     		strb	r6, [r1]
 917              	.L82:
 351:.\fun.c       ****     
 352:.\fun.c       ****     if(yanshifig==1)
 918              		.loc 1 352 0
 919 045a 1A4B     		ldr	r3, .L132+56
 920 045c 1A4F     		ldr	r7, .L132+60
 921 045e 1D78     		ldrb	r5, [r3]
 922 0460 012D     		cmp	r5, #1
 923 0462 04D1     		bne	.L83
 353:.\fun.c       ****     {
ARM GAS  C:\Users\ZHANGM~1\AppData\Local\Temp\cccEtK9g.s 			page 24


 354:.\fun.c       ****     	if(yanshicnt<0xff)
 924              		.loc 1 354 0
 925 0464 3C78     		ldrb	r4, [r7]
 926 0466 FF2C     		cmp	r4, #255
 927 0468 03D0     		beq	.L84
 355:.\fun.c       ****         yanshicnt++;
 928              		.loc 1 355 0
 929 046a 0134     		add	r4, r4, #1
 930 046c 00E0     		b	.L128
 931              	.L83:
 356:.\fun.c       ****     }
 357:.\fun.c       ****     else
 358:.\fun.c       ****         yanshicnt=0;
 932              		.loc 1 358 0
 933 046e 0024     		mov	r4, #0
 934              	.L128:
 935 0470 3C70     		strb	r4, [r7]
 936              	.L84:
 359:.\fun.c       ****     
 360:.\fun.c       ****     if(fastfig==1)
 937              		.loc 1 360 0
 938 0472 164A     		ldr	r2, .L132+64
 939 0474 1649     		ldr	r1, .L132+68
 940 0476 1078     		ldrb	r0, [r2]
 941 0478 0128     		cmp	r0, #1
 942 047a 04D1     		bne	.L85
 361:.\fun.c       ****     {
 362:.\fun.c       ****     	if(fastcnt<0xff)
 943              		.loc 1 362 0
 944 047c 0E78     		ldrb	r6, [r1]
 945 047e FF2E     		cmp	r6, #255
 946 0480 03D0     		beq	.L15
 363:.\fun.c       ****         fastcnt++;
 947              		.loc 1 363 0
 948 0482 0136     		add	r6, r6, #1
 949 0484 00E0     		b	.L129
 950              	.L85:
 364:.\fun.c       ****     }
 365:.\fun.c       ****     else
 366:.\fun.c       ****         fastcnt=0;
 951              		.loc 1 366 0
 952 0486 0026     		mov	r6, #0
 953              	.L129:
 954 0488 0E70     		strb	r6, [r1]
 955              	.L15:
 367:.\fun.c       ****     
 368:.\fun.c       ****     
 369:.\fun.c       ****     
 370:.\fun.c       **** }
 956              		.loc 1 370 0
 957              		@ sp needed for prologue
 958 048a F8BD     		pop	{r3, r4, r5, r6, r7, pc}
 959              	.L133:
 960              		.align	2
 961              	.L132:
 962 048c 00000000 		.word	GYfig1
 963 0490 00000000 		.word	GYcnt1
ARM GAS  C:\Users\ZHANGM~1\AppData\Local\Temp\cccEtK9g.s 			page 25


 964 0494 00000000 		.word	GYfig
 965 0498 00000000 		.word	GYcnt
 966 049c 8F010000 		.word	399
 967 04a0 00000000 		.word	Error_Data
 968 04a4 00000000 		.word	eroorcnt
 969 04a8 00000000 		.word	standflashfig
 970 04ac 00000000 		.word	standflashcnt
 971 04b0 00000000 		.word	standkeyfig
 972 04b4 00000000 		.word	standkeycnt
 973 04b8 00000000 		.word	zijianstacnt
 974 04bc 00000000 		.word	jserrorcntfig
 975 04c0 00000000 		.word	jserrorcnt
 976 04c4 00000000 		.word	yanshifig
 977 04c8 00000000 		.word	yanshicnt
 978 04cc 00000000 		.word	fastfig
 979 04d0 00000000 		.word	fastcnt
 980              		.cfi_endproc
 981              	.LFE34:
 982              		.size	Timer_Isr_Fun, .-Timer_Isr_Fun
 983              		.section	.text.stand,"ax",%progbits
 984              		.align	1
 985              		.global	stand
 986              		.code	16
 987              		.thumb_func
 988              		.type	stand, %function
 989              	stand:
 990              	.LFB35:
 371:.\fun.c       **** 
 372:.\fun.c       **** 
 373:.\fun.c       **** /********************************************************************************\
 374:.\fun.c       ****     USER FUNCTION
 375:.\fun.c       **** \********************************************************************************/
 376:.\fun.c       **** void stand(void)//待机判断
 377:.\fun.c       **** {
 991              		.loc 1 377 0
 992              		.cfi_startproc
 993 0000 10B5     		push	{r4, lr}
 994              	.LCFI2:
 995              		.cfi_def_cfa_offset 8
 996              		.cfi_offset 4, -8
 997              		.cfi_offset 14, -4
 378:.\fun.c       ****     /* 四个指示灯无闪烁   */
 379:.\fun.c       ****     if(DisFlag.workingsignflash==0&&DisFlag.outofwatersignflash==0&&DisFlag.cleaningsignflash==0&&D
 998              		.loc 1 379 0
 999 0002 394B     		ldr	r3, .L178
 1000 0004 0F20     		mov	r0, #15
 1001 0006 9A78     		ldrb	r2, [r3, #2]
 1002 0008 3849     		ldr	r1, .L178+4
 1003 000a 8243     		bic	r2, r0
 1004 000c 02D1     		bne	.L135
 380:.\fun.c       ****         standflashfig=1;
 1005              		.loc 1 380 0
 1006 000e 0124     		mov	r4, #1
 1007 0010 0C70     		strb	r4, [r1]
 1008 0012 06E0     		b	.L136
 1009              	.L135:
 381:.\fun.c       ****     else
ARM GAS  C:\Users\ZHANGM~1\AppData\Local\Temp\cccEtK9g.s 			page 26


 382:.\fun.c       ****     {
 383:.\fun.c       ****         standflashfig=0;
 384:.\fun.c       ****         WorkFlag.standbysta=0; 
 1010              		.loc 1 384 0
 1011 0014 364B     		ldr	r3, .L178+8
 383:.\fun.c       ****         standflashfig=0;
 1012              		.loc 1 383 0
 1013 0016 0024     		mov	r4, #0
 1014 0018 0C70     		strb	r4, [r1]
 1015              		.loc 1 384 0
 1016 001a 9A78     		ldrb	r2, [r3, #2]
 1017 001c 0120     		mov	r0, #1
 1018 001e 8243     		bic	r2, r0
 1019 0020 9A70     		strb	r2, [r3, #2]
 1020              	.L136:
 385:.\fun.c       ****     }
 386:.\fun.c       ****      /* 四个按键无动作   */
 387:.\fun.c       ****     if((KEYNB)==0&&(KEYXZ)==0&&(KEYFW)==0&&(KEYQX)==0)
 1021              		.loc 1 387 0
 1022 0022 3449     		ldr	r1, .L178+12
 1023 0024 0824     		mov	r4, #8
 1024 0026 0B78     		ldrb	r3, [r1]
 1025 0028 334A     		ldr	r2, .L178+16
 1026 002a 2342     		tst	r3, r4
 1027 002c 03D0     		beq	.L137
 1028              		.loc 1 387 0 is_stmt 0 discriminator 1
 1029 002e 3348     		ldr	r0, .L178+20
 1030 0030 0178     		ldrb	r1, [r0]
 1031 0032 2142     		tst	r1, r4
 1032 0034 05D0     		beq	.L138
 1033              	.L137:
 1034              		.loc 1 387 0
 1035 0036 5907     		lsl	r1, r3, #29
 1036 0038 43D5     		bpl	.L139
 1037              	.L146:
 1038              		.loc 1 387 0 discriminator 1
 1039 003a 304C     		ldr	r4, .L178+20
 1040 003c 2078     		ldrb	r0, [r4]
 1041 003e 0028     		cmp	r0, #0
 1042 0040 3FD1     		bne	.L139
 1043              	.L138:
 388:.\fun.c       ****         standkeyfig=1;
 389:.\fun.c       ****     else 
 390:.\fun.c       ****     {
 391:.\fun.c       ****         standkeyfig=0;
 392:.\fun.c       ****         WorkFlag.standbysta=0; 
 1044              		.loc 1 392 0 is_stmt 1
 1045 0042 2B4B     		ldr	r3, .L178+8
 391:.\fun.c       ****         standkeyfig=0;
 1046              		.loc 1 391 0
 1047 0044 0021     		mov	r1, #0
 1048 0046 1170     		strb	r1, [r2]
 1049              		.loc 1 392 0
 1050 0048 9A78     		ldrb	r2, [r3, #2]
 1051 004a 0124     		mov	r4, #1
 1052 004c A243     		bic	r2, r4
 1053 004e 9A70     		strb	r2, [r3, #2]
ARM GAS  C:\Users\ZHANGM~1\AppData\Local\Temp\cccEtK9g.s 			page 27


 1054              	.L149:
 393:.\fun.c       ****         
 394:.\fun.c       ****     } 
 395:.\fun.c       ****     /* 判断有没有滤芯寿命到期，有滤芯寿命到期的则不进待机   */
 396:.\fun.c       ****     if(SPercent==0||HPercent==0||JPercent==0||KPercent==0||LPercent==0||MPercent==0)
 1055              		.loc 1 396 0
 1056 0050 2B48     		ldr	r0, .L178+24
 1057 0052 2C4A     		ldr	r2, .L178+28
 1058 0054 0178     		ldrb	r1, [r0]
 1059 0056 2C4B     		ldr	r3, .L178+32
 1060 0058 0029     		cmp	r1, #0
 1061 005a 13D0     		beq	.L142
 1062              		.loc 1 396 0 is_stmt 0 discriminator 1
 1063 005c 2B4C     		ldr	r4, .L178+36
 1064 005e 2078     		ldrb	r0, [r4]
 1065 0060 0028     		cmp	r0, #0
 1066 0062 0FD0     		beq	.L142
 1067 0064 2A49     		ldr	r1, .L178+40
 1068 0066 0C78     		ldrb	r4, [r1]
 1069 0068 002C     		cmp	r4, #0
 1070 006a 0BD0     		beq	.L142
 1071 006c 2948     		ldr	r0, .L178+44
 1072 006e 0178     		ldrb	r1, [r0]
 1073 0070 0029     		cmp	r1, #0
 1074 0072 07D0     		beq	.L142
 1075 0074 284C     		ldr	r4, .L178+48
 1076 0076 2078     		ldrb	r0, [r4]
 1077 0078 0028     		cmp	r0, #0
 1078 007a 03D0     		beq	.L142
 1079 007c 2749     		ldr	r1, .L178+52
 1080 007e 0C78     		ldrb	r4, [r1]
 1081 0080 002C     		cmp	r4, #0
 1082 0082 09D1     		bne	.L143
 1083              	.L142:
 397:.\fun.c       ****     {    
 398:.\fun.c       ****         standflashcnt=0;
 399:.\fun.c       ****         standkeycnt=0;
 1084              		.loc 1 399 0 is_stmt 1
 1085 0084 2648     		ldr	r0, .L178+56
 398:.\fun.c       ****         standflashcnt=0;
 1086              		.loc 1 398 0
 1087 0086 0024     		mov	r4, #0
 1088              		.loc 1 399 0
 1089 0088 0480     		strh	r4, [r0]
 400:.\fun.c       ****         WorkFlag.standbysta=0; 
 1090              		.loc 1 400 0
 1091 008a 1948     		ldr	r0, .L178+8
 398:.\fun.c       ****         standflashcnt=0;
 1092              		.loc 1 398 0
 1093 008c 1480     		strh	r4, [r2]
 1094              		.loc 1 400 0
 1095 008e 8478     		ldrb	r4, [r0, #2]
 1096 0090 0121     		mov	r1, #1
 1097 0092 8C43     		bic	r4, r1
 1098 0094 8470     		strb	r4, [r0, #2]
 1099 0096 00E0     		b	.L177
 1100              	.L143:
ARM GAS  C:\Users\ZHANGM~1\AppData\Local\Temp\cccEtK9g.s 			page 28


 401:.\fun.c       ****         lvxindaoqifig=1;
 402:.\fun.c       ****         
 403:.\fun.c       ****     }    
 404:.\fun.c       ****     else
 405:.\fun.c       ****         lvxindaoqifig=0;
 1101              		.loc 1 405 0
 1102 0098 0021     		mov	r1, #0
 1103              	.L177:
 1104 009a 1970     		strb	r1, [r3]
 406:.\fun.c       ****      /* 指示灯连续5分钟无闪烁且四个按键5分钟无动作,则进入待机状态   */
 407:.\fun.c       ****     if(standflashcnt>=TIMER5M&&standkeycnt>=TIMER5M&&lvxindaoqifig==0)
 1105              		.loc 1 407 0
 1106 009c 2148     		ldr	r0, .L178+60
 1107 009e 1188     		ldrh	r1, [r2]
 1108 00a0 8142     		cmp	r1, r0
 1109 00a2 1FD9     		bls	.L134
 1110              		.loc 1 407 0 is_stmt 0 discriminator 1
 1111 00a4 1E49     		ldr	r1, .L178+56
 1112 00a6 0C88     		ldrh	r4, [r1]
 1113 00a8 8442     		cmp	r4, r0
 1114 00aa 1BD9     		bls	.L134
 1115 00ac 1B78     		ldrb	r3, [r3]
 1116 00ae 002B     		cmp	r3, #0
 1117 00b0 18D1     		bne	.L134
 408:.\fun.c       ****     {
 409:.\fun.c       ****         standflashcnt=0;
 410:.\fun.c       ****         standkeycnt=0;
 411:.\fun.c       ****         WorkFlag.standbysta=1;  
 1118              		.loc 1 411 0 is_stmt 1
 1119 00b2 0F48     		ldr	r0, .L178+8
 410:.\fun.c       ****         standkeycnt=0;
 1120              		.loc 1 410 0
 1121 00b4 0B80     		strh	r3, [r1]
 409:.\fun.c       ****         standflashcnt=0;
 1122              		.loc 1 409 0
 1123 00b6 1380     		strh	r3, [r2]
 1124              		.loc 1 411 0
 1125 00b8 8278     		ldrb	r2, [r0, #2]
 1126 00ba 0121     		mov	r1, #1
 1127 00bc 0A43     		orr	r2, r1
 1128 00be 8270     		strb	r2, [r0, #2]
 1129 00c0 10E0     		b	.L134
 1130              	.L139:
 387:.\fun.c       ****     if((KEYNB)==0&&(KEYXZ)==0&&(KEYFW)==0&&(KEYQX)==0)
 1131              		.loc 1 387 0
 1132 00c2 0221     		mov	r1, #2
 1133 00c4 0B42     		tst	r3, r1
 1134 00c6 03D0     		beq	.L140
 1135              	.L147:
 387:.\fun.c       ****     if((KEYNB)==0&&(KEYXZ)==0&&(KEYFW)==0&&(KEYQX)==0)
 1136              		.loc 1 387 0 is_stmt 0 discriminator 1
 1137 00c8 0C4C     		ldr	r4, .L178+20
 1138 00ca 2078     		ldrb	r0, [r4]
 1139 00cc 0842     		tst	r0, r1
 1140 00ce B8D0     		beq	.L138
 1141              	.L140:
 387:.\fun.c       ****     if((KEYNB)==0&&(KEYXZ)==0&&(KEYFW)==0&&(KEYQX)==0)
ARM GAS  C:\Users\ZHANGM~1\AppData\Local\Temp\cccEtK9g.s 			page 29


 1142              		.loc 1 387 0
 1143 00d0 0121     		mov	r1, #1
 1144 00d2 0B42     		tst	r3, r1
 1145 00d4 03D0     		beq	.L141
 1146              	.L148:
 387:.\fun.c       ****     if((KEYNB)==0&&(KEYXZ)==0&&(KEYFW)==0&&(KEYQX)==0)
 1147              		.loc 1 387 0 discriminator 1
 1148 00d6 094B     		ldr	r3, .L178+20
 1149 00d8 1C78     		ldrb	r4, [r3]
 1150 00da 0C42     		tst	r4, r1
 1151 00dc B1D0     		beq	.L138
 1152              	.L141:
 388:.\fun.c       ****         standkeyfig=1;
 1153              		.loc 1 388 0 is_stmt 1
 1154 00de 0120     		mov	r0, #1
 1155 00e0 1070     		strb	r0, [r2]
 1156 00e2 B5E7     		b	.L149
 1157              	.L134:
 412:.\fun.c       ****     }    
 413:.\fun.c       ****     
 414:.\fun.c       ****     
 415:.\fun.c       ****     
 416:.\fun.c       ****     
 417:.\fun.c       **** 
 418:.\fun.c       ****     
 419:.\fun.c       **** }
 1158              		.loc 1 419 0
 1159              		@ sp needed for prologue
 1160 00e4 10BD     		pop	{r4, pc}
 1161              	.L179:
 1162 00e6 C046     		.align	2
 1163              	.L178:
 1164 00e8 00000000 		.word	DisFlag
 1165 00ec 00000000 		.word	standflashfig
 1166 00f0 00000000 		.word	WorkFlag
 1167 00f4 00000000 		.word	BtnData1
 1168 00f8 00000000 		.word	standkeyfig
 1169 00fc 00000000 		.word	BtnData2
 1170 0100 00000000 		.word	SPercent
 1171 0104 00000000 		.word	standflashcnt
 1172 0108 00000000 		.word	lvxindaoqifig
 1173 010c 00000000 		.word	HPercent
 1174 0110 00000000 		.word	JPercent
 1175 0114 00000000 		.word	KPercent
 1176 0118 00000000 		.word	LPercent
 1177 011c 00000000 		.word	MPercent
 1178 0120 00000000 		.word	standkeycnt
 1179 0124 B70B0000 		.word	2999
 1180              		.cfi_endproc
 1181              	.LFE35:
 1182              		.size	stand, .-stand
 1183              		.global	__aeabi_uidiv
 1184              		.section	.text.LXPercent,"ax",%progbits
 1185              		.align	1
 1186              		.global	LXPercent
 1187              		.code	16
 1188              		.thumb_func
ARM GAS  C:\Users\ZHANGM~1\AppData\Local\Temp\cccEtK9g.s 			page 30


 1189              		.type	LXPercent, %function
 1190              	LXPercent:
 1191              	.LFB37:
 420:.\fun.c       **** 
 421:.\fun.c       **** 
 422:.\fun.c       **** void lvxin_panduan(void)
 423:.\fun.c       **** {
 424:.\fun.c       ****     LXPercent();
 425:.\fun.c       ****     if(SPercent==1)
 426:.\fun.c       ****         Sfig=1;
 427:.\fun.c       ****     else if(SPercent==0)
 428:.\fun.c       ****         Sfig=2;
 429:.\fun.c       ****     
 430:.\fun.c       ****     if(HPercent==1)
 431:.\fun.c       ****         Hfig=1;
 432:.\fun.c       ****     else if(HPercent==0)
 433:.\fun.c       ****         Hfig=2;
 434:.\fun.c       ****     
 435:.\fun.c       ****     if(JPercent==1)
 436:.\fun.c       ****         Jfig=1;
 437:.\fun.c       ****     else if(JPercent==0)
 438:.\fun.c       ****         Jfig=2;
 439:.\fun.c       ****         
 440:.\fun.c       ****     if(KPercent==1)
 441:.\fun.c       ****         Kfig=1;
 442:.\fun.c       ****     else if(KPercent==0)
 443:.\fun.c       ****         Kfig=2;
 444:.\fun.c       ****     
 445:.\fun.c       ****     if(LPercent==1)
 446:.\fun.c       ****         Lfig=1;
 447:.\fun.c       ****     else if(LPercent==0)
 448:.\fun.c       ****         Lfig=2;
 449:.\fun.c       ****     
 450:.\fun.c       ****     if(MPercent==1)
 451:.\fun.c       ****         Mfig=1;
 452:.\fun.c       ****     else if(MPercent==0)
 453:.\fun.c       ****         Mfig=2;
 454:.\fun.c       ****     
 455:.\fun.c       **** }
 456:.\fun.c       **** 
 457:.\fun.c       **** 
 458:.\fun.c       **** 
 459:.\fun.c       **** void LXPercent(void)//滤芯百分比计算 函数
 460:.\fun.c       **** {
 1192              		.loc 1 460 0
 1193              		.cfi_startproc
 1194 0000 F8B5     		push	{r3, r4, r5, r6, r7, lr}
 1195              	.LCFI3:
 1196              		.cfi_def_cfa_offset 24
 1197              		.cfi_offset 3, -24
 1198              		.cfi_offset 4, -20
 1199              		.cfi_offset 5, -16
 1200              		.cfi_offset 6, -12
 1201              		.cfi_offset 7, -8
 1202              		.cfi_offset 14, -4
 461:.\fun.c       ****     
 462:.\fun.c       ****     if(NBfig==1)//如果是北方模式
ARM GAS  C:\Users\ZHANGM~1\AppData\Local\Temp\cccEtK9g.s 			page 31


 1203              		.loc 1 462 0
 1204 0002 B94B     		ldr	r3, .L230
 1205 0004 B94C     		ldr	r4, .L230+4
 1206 0006 1978     		ldrb	r1, [r3]
 1207 0008 B94F     		ldr	r7, .L230+8
 1208 000a BA4E     		ldr	r6, .L230+12
 1209 000c BA4D     		ldr	r5, .L230+16
 463:.\fun.c       **** 	    {
 464:.\fun.c       **** 	      if(LvxinJishi[0]<2640)
 1210              		.loc 1 464 0
 1211 000e 2088     		ldrh	r0, [r4]
 462:.\fun.c       ****     if(NBfig==1)//如果是北方模式
 1212              		.loc 1 462 0
 1213 0010 0129     		cmp	r1, #1
 1214 0012 58D1     		bne	.L181
 1215              		.loc 1 464 0
 1216 0014 B94B     		ldr	r3, .L230+20
 1217 0016 9842     		cmp	r0, r3
 1218 0018 07D8     		bhi	.L182
 465:.\fun.c       **** 	          SPercent=(10-(LvxinJishi[0]/SP));//PP寿命百分比2400min
 1219              		.loc 1 465 0
 1220 001a B949     		ldr	r1, .L230+24
 1221 001c 0988     		ldrh	r1, [r1]
 1222 001e FFF7FEFF 		bl	__aeabi_uidiv
 1223              	.LVL16:
 1224 0022 0A22     		mov	r2, #10
 1225 0024 131A     		sub	r3, r2, r0
 1226 0026 3B70     		strb	r3, [r7]
 1227 0028 01E0     		b	.L183
 1228              	.L182:
 466:.\fun.c       **** 	      else
 467:.\fun.c       **** 	          SPercent=0;
 1229              		.loc 1 467 0
 1230 002a 0020     		mov	r0, #0
 1231 002c 3870     		strb	r0, [r7]
 1232              	.L183:
 468:.\fun.c       **** 	      if(LvxinJishi[1]<3520)   
 1233              		.loc 1 468 0
 1234 002e 6088     		ldrh	r0, [r4, #2]
 1235 0030 B449     		ldr	r1, .L230+28
 1236 0032 8842     		cmp	r0, r1
 1237 0034 07D8     		bhi	.L184
 469:.\fun.c       **** 	          HPercent=(10-(LvxinJishi[1]/HP));//压缩活性炭寿命百分比
 1238              		.loc 1 469 0
 1239 0036 B44A     		ldr	r2, .L230+32
 1240 0038 1188     		ldrh	r1, [r2]
 1241 003a FFF7FEFF 		bl	__aeabi_uidiv
 1242              	.LVL17:
 1243 003e 0A23     		mov	r3, #10
 1244 0040 191A     		sub	r1, r3, r0
 1245 0042 3170     		strb	r1, [r6]
 1246 0044 01E0     		b	.L185
 1247              	.L184:
 470:.\fun.c       **** 	      else
 471:.\fun.c       **** 	          HPercent=0;
 1248              		.loc 1 471 0
 1249 0046 0020     		mov	r0, #0
ARM GAS  C:\Users\ZHANGM~1\AppData\Local\Temp\cccEtK9g.s 			page 32


 1250 0048 3070     		strb	r0, [r6]
 1251              	.L185:
 472:.\fun.c       **** 	      if(LvxinJishi[2]<23760)     
 1252              		.loc 1 472 0
 1253 004a A088     		ldrh	r0, [r4, #4]
 1254 004c AF4A     		ldr	r2, .L230+36
 1255 004e 9042     		cmp	r0, r2
 1256 0050 07D8     		bhi	.L186
 473:.\fun.c       **** 	          JPercent=(10-(LvxinJishi[2]/JP));//R01寿命百分比
 1257              		.loc 1 473 0
 1258 0052 AF4B     		ldr	r3, .L230+40
 1259 0054 1988     		ldrh	r1, [r3]
 1260 0056 FFF7FEFF 		bl	__aeabi_uidiv
 1261              	.LVL18:
 1262 005a 0A21     		mov	r1, #10
 1263 005c 0A1A     		sub	r2, r1, r0
 1264 005e 2A70     		strb	r2, [r5]
 1265 0060 01E0     		b	.L187
 1266              	.L186:
 474:.\fun.c       **** 	      else
 475:.\fun.c       **** 	          JPercent=0;
 1267              		.loc 1 475 0
 1268 0062 0020     		mov	r0, #0
 1269 0064 2870     		strb	r0, [r5]
 1270              	.L187:
 476:.\fun.c       **** 	      if(LvxinJishi[3]<23760)   
 1271              		.loc 1 476 0
 1272 0066 E088     		ldrh	r0, [r4, #6]
 1273 0068 A84B     		ldr	r3, .L230+36
 1274 006a 9842     		cmp	r0, r3
 1275 006c 08D8     		bhi	.L188
 477:.\fun.c       **** 	          KPercent=(10-(LvxinJishi[3]/KP));//R02寿命百分比
 1276              		.loc 1 477 0
 1277 006e A94A     		ldr	r2, .L230+44
 1278 0070 1188     		ldrh	r1, [r2]
 1279 0072 FFF7FEFF 		bl	__aeabi_uidiv
 1280              	.LVL19:
 1281 0076 0A23     		mov	r3, #10
 1282 0078 A749     		ldr	r1, .L230+48
 1283 007a 181A     		sub	r0, r3, r0
 1284 007c 0870     		strb	r0, [r1]
 1285 007e 02E0     		b	.L189
 1286              	.L188:
 478:.\fun.c       **** 	      else
 479:.\fun.c       **** 	          KPercent=0;
 1287              		.loc 1 479 0
 1288 0080 A549     		ldr	r1, .L230+48
 1289 0082 0020     		mov	r0, #0
 1290 0084 0870     		strb	r0, [r1]
 1291              	.L189:
 480:.\fun.c       **** 	      if(LvxinJishi[4]<23760)   
 1292              		.loc 1 480 0
 1293 0086 2089     		ldrh	r0, [r4, #8]
 1294 0088 A04A     		ldr	r2, .L230+36
 1295 008a 9042     		cmp	r0, r2
 1296 008c 08D8     		bhi	.L190
 481:.\fun.c       **** 	          LPercent=(10-(LvxinJishi[4]/LP));//R03寿命百分比
ARM GAS  C:\Users\ZHANGM~1\AppData\Local\Temp\cccEtK9g.s 			page 33


 1297              		.loc 1 481 0
 1298 008e A349     		ldr	r1, .L230+52
 1299 0090 0988     		ldrh	r1, [r1]
 1300 0092 FFF7FEFF 		bl	__aeabi_uidiv
 1301              	.LVL20:
 1302 0096 0A22     		mov	r2, #10
 1303 0098 131A     		sub	r3, r2, r0
 1304 009a A148     		ldr	r0, .L230+56
 1305 009c 0370     		strb	r3, [r0]
 1306 009e 02E0     		b	.L191
 1307              	.L190:
 482:.\fun.c       **** 	      else
 483:.\fun.c       **** 	          LPercent=0;
 1308              		.loc 1 483 0
 1309 00a0 9F48     		ldr	r0, .L230+56
 1310 00a2 0023     		mov	r3, #0
 1311 00a4 0370     		strb	r3, [r0]
 1312              	.L191:
 484:.\fun.c       **** 	      if(LvxinJishi[5]<5940)    
 1313              		.loc 1 484 0
 1314 00a6 6089     		ldrh	r0, [r4, #10]
 1315 00a8 9E49     		ldr	r1, .L230+60
 1316 00aa 9F4C     		ldr	r4, .L230+64
 1317 00ac 8842     		cmp	r0, r1
 1318 00ae 07D8     		bhi	.L192
 485:.\fun.c       **** 	          MPercent=(10-(LvxinJishi[5]/MP));//载银寿命百分比
 1319              		.loc 1 485 0
 1320 00b0 9E4B     		ldr	r3, .L230+68
 1321 00b2 1988     		ldrh	r1, [r3]
 1322 00b4 FFF7FEFF 		bl	__aeabi_uidiv
 1323              	.LVL21:
 1324 00b8 0A21     		mov	r1, #10
 1325 00ba 081A     		sub	r0, r1, r0
 1326 00bc 2070     		strb	r0, [r4]
 1327 00be 34E0     		b	.L193
 1328              	.L192:
 486:.\fun.c       **** 	      else
 487:.\fun.c       **** 	          MPercent=0;
 1329              		.loc 1 487 0
 1330 00c0 0022     		mov	r2, #0
 1331 00c2 2270     		strb	r2, [r4]
 1332 00c4 31E0     		b	.L193
 1333              	.L181:
 488:.\fun.c       **** 	    }
 489:.\fun.c       ****     else//如果是南方模式
 490:.\fun.c       **** 	    {
 491:.\fun.c       **** 	        SPercent=(10-(LvxinJishi[0]/SP_N));//PP寿命百分比
 1334              		.loc 1 491 0
 1335 00c6 9A4A     		ldr	r2, .L230+72
 1336 00c8 1188     		ldrh	r1, [r2]
 1337 00ca FFF7FEFF 		bl	__aeabi_uidiv
 1338              	.LVL22:
 1339 00ce 0A23     		mov	r3, #10
 1340 00d0 181A     		sub	r0, r3, r0
 492:.\fun.c       **** 	        HPercent=(10-(LvxinJishi[1]/HP_N));//压缩活性炭寿命百分比
 1341              		.loc 1 492 0
 1342 00d2 9849     		ldr	r1, .L230+76
ARM GAS  C:\Users\ZHANGM~1\AppData\Local\Temp\cccEtK9g.s 			page 34


 491:.\fun.c       **** 	        SPercent=(10-(LvxinJishi[0]/SP_N));//PP寿命百分比
 1343              		.loc 1 491 0
 1344 00d4 3870     		strb	r0, [r7]
 1345              		.loc 1 492 0
 1346 00d6 6088     		ldrh	r0, [r4, #2]
 1347 00d8 0988     		ldrh	r1, [r1]
 1348 00da FFF7FEFF 		bl	__aeabi_uidiv
 1349              	.LVL23:
 1350 00de 0A22     		mov	r2, #10
 1351 00e0 131A     		sub	r3, r2, r0
 493:.\fun.c       **** 	        JPercent=(10-(LvxinJishi[2]/JP_N));//R01寿命百分比
 1352              		.loc 1 493 0
 1353 00e2 9549     		ldr	r1, .L230+80
 492:.\fun.c       **** 	        HPercent=(10-(LvxinJishi[1]/HP_N));//压缩活性炭寿命百分比
 1354              		.loc 1 492 0
 1355 00e4 3370     		strb	r3, [r6]
 1356              		.loc 1 493 0
 1357 00e6 A088     		ldrh	r0, [r4, #4]
 1358 00e8 0988     		ldrh	r1, [r1]
 1359 00ea FFF7FEFF 		bl	__aeabi_uidiv
 1360              	.LVL24:
 1361 00ee 0A22     		mov	r2, #10
 1362 00f0 101A     		sub	r0, r2, r0
 494:.\fun.c       **** 	        KPercent=(10-(LvxinJishi[3]/KP_N));//R02寿命百分比
 1363              		.loc 1 494 0
 1364 00f2 924B     		ldr	r3, .L230+84
 493:.\fun.c       **** 	        JPercent=(10-(LvxinJishi[2]/JP_N));//R01寿命百分比
 1365              		.loc 1 493 0
 1366 00f4 2870     		strb	r0, [r5]
 1367              		.loc 1 494 0
 1368 00f6 E088     		ldrh	r0, [r4, #6]
 1369 00f8 1988     		ldrh	r1, [r3]
 1370 00fa FFF7FEFF 		bl	__aeabi_uidiv
 1371              	.LVL25:
 1372 00fe 0A21     		mov	r1, #10
 1373 0100 0A1A     		sub	r2, r1, r0
 1374 0102 8548     		ldr	r0, .L230+48
 495:.\fun.c       **** 	        LPercent=(10-(LvxinJishi[4]/LP_N));//R03寿命百分比
 1375              		.loc 1 495 0
 1376 0104 8E4B     		ldr	r3, .L230+88
 494:.\fun.c       **** 	        KPercent=(10-(LvxinJishi[3]/KP_N));//R02寿命百分比
 1377              		.loc 1 494 0
 1378 0106 0270     		strb	r2, [r0]
 1379              		.loc 1 495 0
 1380 0108 2089     		ldrh	r0, [r4, #8]
 1381 010a 1988     		ldrh	r1, [r3]
 1382 010c FFF7FEFF 		bl	__aeabi_uidiv
 1383              	.LVL26:
 1384 0110 0A21     		mov	r1, #10
 1385 0112 0A1A     		sub	r2, r1, r0
 1386 0114 8248     		ldr	r0, .L230+56
 1387 0116 0270     		strb	r2, [r0]
 496:.\fun.c       **** 	        MPercent=(10-(LvxinJishi[5]/MP_N));//载银寿命百分比
 1388              		.loc 1 496 0
 1389 0118 6089     		ldrh	r0, [r4, #10]
 1390 011a 8A4C     		ldr	r4, .L230+92
 1391 011c 2188     		ldrh	r1, [r4]
ARM GAS  C:\Users\ZHANGM~1\AppData\Local\Temp\cccEtK9g.s 			page 35


 1392 011e FFF7FEFF 		bl	__aeabi_uidiv
 1393              	.LVL27:
 1394 0122 0A23     		mov	r3, #10
 1395 0124 804A     		ldr	r2, .L230+64
 1396 0126 191A     		sub	r1, r3, r0
 1397 0128 1170     		strb	r1, [r2]
 1398              	.L193:
 497:.\fun.c       **** 	    }
 498:.\fun.c       ****     if(Sfig==0)
 1399              		.loc 1 498 0
 1400 012a 874C     		ldr	r4, .L230+96
 1401 012c 2278     		ldrb	r2, [r4]
 1402 012e 002A     		cmp	r2, #0
 1403 0130 07D1     		bne	.L194
 499:.\fun.c       ****     {   
 500:.\fun.c       ****         if(SPercent==2)
 1404              		.loc 1 500 0
 1405 0132 3978     		ldrb	r1, [r7]
 1406 0134 0229     		cmp	r1, #2
 1407 0136 1ED1     		bne	.L195
 501:.\fun.c       ****         {
 502:.\fun.c       ****             
 503:.\fun.c       ****             BUZfkg=3;
 1408              		.loc 1 503 0
 1409 0138 844A     		ldr	r2, .L230+100
 1410 013a 0323     		mov	r3, #3
 1411 013c 1370     		strb	r3, [r2]
 504:.\fun.c       ****             Sfig=1;
 1412              		.loc 1 504 0
 1413 013e 0123     		mov	r3, #1
 1414 0140 18E0     		b	.L224
 1415              	.L194:
 505:.\fun.c       ****         
 506:.\fun.c       ****         }
 507:.\fun.c       ****     }
 508:.\fun.c       ****     else if(Sfig==1)
 1416              		.loc 1 508 0
 1417 0142 012A     		cmp	r2, #1
 1418 0144 07D1     		bne	.L196
 509:.\fun.c       ****     {   
 510:.\fun.c       ****         if(SPercent==1)
 1419              		.loc 1 510 0
 1420 0146 3A78     		ldrb	r2, [r7]
 1421 0148 012A     		cmp	r2, #1
 1422 014a 14D1     		bne	.L195
 511:.\fun.c       ****         {
 512:.\fun.c       ****             BUZfkg=3;
 1423              		.loc 1 512 0
 1424 014c 7F48     		ldr	r0, .L230+100
 1425 014e 0323     		mov	r3, #3
 1426 0150 0370     		strb	r3, [r0]
 513:.\fun.c       ****             Sfig=2;
 1427              		.loc 1 513 0
 1428 0152 0223     		mov	r3, #2
 1429 0154 0EE0     		b	.L224
 1430              	.L196:
 514:.\fun.c       ****             
ARM GAS  C:\Users\ZHANGM~1\AppData\Local\Temp\cccEtK9g.s 			page 36


 515:.\fun.c       ****         }
 516:.\fun.c       ****          
 517:.\fun.c       ****     
 518:.\fun.c       ****     }
 519:.\fun.c       ****     else if(Sfig==2)
 1431              		.loc 1 519 0
 1432 0156 022A     		cmp	r2, #2
 1433 0158 0BD1     		bne	.L197
 520:.\fun.c       ****     {
 521:.\fun.c       ****        if(SPercent==0)
 1434              		.loc 1 521 0
 1435 015a 3978     		ldrb	r1, [r7]
 1436 015c 0029     		cmp	r1, #0
 1437 015e 0AD1     		bne	.L195
 522:.\fun.c       ****         {
 523:.\fun.c       ****             DisFlag.slvxinflash=1;
 1438              		.loc 1 523 0
 1439 0160 7B4A     		ldr	r2, .L230+104
 1440 0162 0120     		mov	r0, #1
 1441 0164 D378     		ldrb	r3, [r2, #3]
 524:.\fun.c       ****             BUZfkg=3;
 1442              		.loc 1 524 0
 1443 0166 7949     		ldr	r1, .L230+100
 523:.\fun.c       ****             DisFlag.slvxinflash=1;
 1444              		.loc 1 523 0
 1445 0168 0343     		orr	r3, r0
 1446 016a D370     		strb	r3, [r2, #3]
 1447              		.loc 1 524 0
 1448 016c 0323     		mov	r3, #3
 1449 016e 0B70     		strb	r3, [r1]
 1450 0170 00E0     		b	.L224
 1451              	.L197:
 525:.\fun.c       ****             Sfig=3;
 526:.\fun.c       ****         } 
 527:.\fun.c       ****        
 528:.\fun.c       ****     }
 529:.\fun.c       ****     else
 530:.\fun.c       ****         Sfig=0;
 1452              		.loc 1 530 0
 1453 0172 0023     		mov	r3, #0
 1454              	.L224:
 1455 0174 2370     		strb	r3, [r4]
 1456              	.L195:
 531:.\fun.c       ****     
 532:.\fun.c       ****     if(SPercent==10)
 1457              		.loc 1 532 0
 1458 0176 3F78     		ldrb	r7, [r7]
 1459 0178 0A2F     		cmp	r7, #10
 1460 017a 04D1     		bne	.L198
 533:.\fun.c       ****     {
 534:.\fun.c       ****         DisFlag.slvxinflash=0;
 1461              		.loc 1 534 0
 1462 017c 744C     		ldr	r4, .L230+104
 1463 017e 0121     		mov	r1, #1
 1464 0180 E078     		ldrb	r0, [r4, #3]
 1465 0182 8843     		bic	r0, r1
 1466 0184 E070     		strb	r0, [r4, #3]
ARM GAS  C:\Users\ZHANGM~1\AppData\Local\Temp\cccEtK9g.s 			page 37


 1467              	.L198:
 535:.\fun.c       ****        
 536:.\fun.c       ****     }
 537:.\fun.c       ****     
 538:.\fun.c       ****     
 539:.\fun.c       ****     
 540:.\fun.c       ****     if(Hfig==0)
 1468              		.loc 1 540 0
 1469 0186 734B     		ldr	r3, .L230+108
 1470 0188 1A78     		ldrb	r2, [r3]
 1471 018a 002A     		cmp	r2, #0
 1472 018c 07D1     		bne	.L199
 541:.\fun.c       ****     {   
 542:.\fun.c       ****         if(HPercent==2)
 1473              		.loc 1 542 0
 1474 018e 3078     		ldrb	r0, [r6]
 1475 0190 0228     		cmp	r0, #2
 1476 0192 1ED1     		bne	.L200
 543:.\fun.c       ****         {
 544:.\fun.c       ****             
 545:.\fun.c       ****             BUZfkg=3;
 1477              		.loc 1 545 0
 1478 0194 6D4A     		ldr	r2, .L230+100
 1479 0196 0327     		mov	r7, #3
 1480 0198 1770     		strb	r7, [r2]
 546:.\fun.c       ****             Hfig=1;
 1481              		.loc 1 546 0
 1482 019a 0127     		mov	r7, #1
 1483 019c 18E0     		b	.L225
 1484              	.L199:
 547:.\fun.c       ****         
 548:.\fun.c       ****         }
 549:.\fun.c       ****         
 550:.\fun.c       ****     }
 551:.\fun.c       ****     else if(Hfig==1)
 1485              		.loc 1 551 0
 1486 019e 012A     		cmp	r2, #1
 1487 01a0 07D1     		bne	.L201
 552:.\fun.c       ****     {
 553:.\fun.c       ****         if(HPercent==1)
 1488              		.loc 1 553 0
 1489 01a2 3278     		ldrb	r2, [r6]
 1490 01a4 012A     		cmp	r2, #1
 1491 01a6 14D1     		bne	.L200
 554:.\fun.c       ****         {
 555:.\fun.c       ****             
 556:.\fun.c       ****             BUZfkg=3;
 1492              		.loc 1 556 0
 1493 01a8 6849     		ldr	r1, .L230+100
 1494 01aa 0324     		mov	r4, #3
 1495 01ac 0C70     		strb	r4, [r1]
 557:.\fun.c       ****             Hfig=2;
 1496              		.loc 1 557 0
 1497 01ae 0227     		mov	r7, #2
 1498 01b0 0EE0     		b	.L225
 1499              	.L201:
 558:.\fun.c       ****         
ARM GAS  C:\Users\ZHANGM~1\AppData\Local\Temp\cccEtK9g.s 			page 38


 559:.\fun.c       ****         }
 560:.\fun.c       ****     }   
 561:.\fun.c       ****     else if(Hfig==2)
 1500              		.loc 1 561 0
 1501 01b2 022A     		cmp	r2, #2
 1502 01b4 0BD1     		bne	.L202
 562:.\fun.c       ****     {
 563:.\fun.c       ****         if(HPercent==0)
 1503              		.loc 1 563 0
 1504 01b6 3478     		ldrb	r4, [r6]
 1505 01b8 002C     		cmp	r4, #0
 1506 01ba 0AD1     		bne	.L200
 564:.\fun.c       ****         {
 565:.\fun.c       ****             
 566:.\fun.c       ****             BUZfkg=3;
 1507              		.loc 1 566 0
 1508 01bc 0321     		mov	r1, #3
 1509 01be 6348     		ldr	r0, .L230+100
 567:.\fun.c       ****             Hfig=3;
 1510              		.loc 1 567 0
 1511 01c0 1970     		strb	r1, [r3]
 568:.\fun.c       ****             DisFlag.hlvxinflash=1;
 1512              		.loc 1 568 0
 1513 01c2 634B     		ldr	r3, .L230+104
 566:.\fun.c       ****             BUZfkg=3;
 1514              		.loc 1 566 0
 1515 01c4 0170     		strb	r1, [r0]
 1516              		.loc 1 568 0
 1517 01c6 DF78     		ldrb	r7, [r3, #3]
 1518 01c8 3A43     		orr	r2, r7
 1519 01ca DA70     		strb	r2, [r3, #3]
 1520 01cc 01E0     		b	.L200
 1521              	.L202:
 569:.\fun.c       ****         
 570:.\fun.c       ****         }
 571:.\fun.c       ****     
 572:.\fun.c       ****     
 573:.\fun.c       ****     }
 574:.\fun.c       ****     else
 575:.\fun.c       ****          Hfig=0;
 1522              		.loc 1 575 0
 1523 01ce 0027     		mov	r7, #0
 1524              	.L225:
 1525 01d0 1F70     		strb	r7, [r3]
 1526              	.L200:
 576:.\fun.c       ****     if(HPercent==10)
 1527              		.loc 1 576 0
 1528 01d2 3678     		ldrb	r6, [r6]
 1529 01d4 0A2E     		cmp	r6, #10
 1530 01d6 04D1     		bne	.L203
 577:.\fun.c       ****         DisFlag.hlvxinflash=0;
 1531              		.loc 1 577 0
 1532 01d8 5D4B     		ldr	r3, .L230+104
 1533 01da 0221     		mov	r1, #2
 1534 01dc DC78     		ldrb	r4, [r3, #3]
 1535 01de 8C43     		bic	r4, r1
 1536 01e0 DC70     		strb	r4, [r3, #3]
ARM GAS  C:\Users\ZHANGM~1\AppData\Local\Temp\cccEtK9g.s 			page 39


 1537              	.L203:
 578:.\fun.c       ****     
 579:.\fun.c       ****     
 580:.\fun.c       ****     
 581:.\fun.c       ****     
 582:.\fun.c       ****     if(Jfig==0)
 1538              		.loc 1 582 0
 1539 01e2 5D4F     		ldr	r7, .L230+112
 1540 01e4 3878     		ldrb	r0, [r7]
 1541 01e6 0028     		cmp	r0, #0
 1542 01e8 07D1     		bne	.L204
 583:.\fun.c       ****     {   
 584:.\fun.c       ****         if(JPercent==2)
 1543              		.loc 1 584 0
 1544 01ea 2C78     		ldrb	r4, [r5]
 1545 01ec 022C     		cmp	r4, #2
 1546 01ee 1ED1     		bne	.L205
 585:.\fun.c       ****         {
 586:.\fun.c       ****             
 587:.\fun.c       ****             BUZfkg=3;
 1547              		.loc 1 587 0
 1548 01f0 5648     		ldr	r0, .L230+100
 1549 01f2 0321     		mov	r1, #3
 1550 01f4 0170     		strb	r1, [r0]
 588:.\fun.c       ****             Jfig=1;
 1551              		.loc 1 588 0
 1552 01f6 0122     		mov	r2, #1
 1553 01f8 18E0     		b	.L226
 1554              	.L204:
 589:.\fun.c       ****         
 590:.\fun.c       ****         }
 591:.\fun.c       ****         
 592:.\fun.c       ****     }
 593:.\fun.c       ****     else if(Jfig==1)
 1555              		.loc 1 593 0
 1556 01fa 0128     		cmp	r0, #1
 1557 01fc 07D1     		bne	.L206
 594:.\fun.c       ****     {
 595:.\fun.c       ****         if(JPercent==1)
 1558              		.loc 1 595 0
 1559 01fe 2A78     		ldrb	r2, [r5]
 1560 0200 012A     		cmp	r2, #1
 1561 0202 14D1     		bne	.L205
 596:.\fun.c       ****         {
 597:.\fun.c       ****             
 598:.\fun.c       ****             BUZfkg=3;
 1562              		.loc 1 598 0
 1563 0204 514B     		ldr	r3, .L230+100
 1564 0206 0326     		mov	r6, #3
 1565 0208 1E70     		strb	r6, [r3]
 599:.\fun.c       ****             Jfig=2;
 1566              		.loc 1 599 0
 1567 020a 0222     		mov	r2, #2
 1568 020c 0EE0     		b	.L226
 1569              	.L206:
 600:.\fun.c       ****         
 601:.\fun.c       ****         }
ARM GAS  C:\Users\ZHANGM~1\AppData\Local\Temp\cccEtK9g.s 			page 40


 602:.\fun.c       ****     }
 603:.\fun.c       ****     else if( Jfig==2)
 1570              		.loc 1 603 0
 1571 020e 0228     		cmp	r0, #2
 1572 0210 0BD1     		bne	.L207
 604:.\fun.c       ****     {
 605:.\fun.c       ****         if(JPercent==0)
 1573              		.loc 1 605 0
 1574 0212 2E78     		ldrb	r6, [r5]
 1575 0214 002E     		cmp	r6, #0
 1576 0216 0AD1     		bne	.L205
 606:.\fun.c       ****         {
 607:.\fun.c       ****             DisFlag.jlvxinflash=1;
 1577              		.loc 1 607 0
 1578 0218 4D4B     		ldr	r3, .L230+104
 1579 021a 0421     		mov	r1, #4
 1580 021c DC78     		ldrb	r4, [r3, #3]
 608:.\fun.c       ****             BUZfkg=3;
 1581              		.loc 1 608 0
 1582 021e 4B48     		ldr	r0, .L230+100
 607:.\fun.c       ****             DisFlag.jlvxinflash=1;
 1583              		.loc 1 607 0
 1584 0220 0C43     		orr	r4, r1
 1585              		.loc 1 608 0
 1586 0222 0322     		mov	r2, #3
 607:.\fun.c       ****             DisFlag.jlvxinflash=1;
 1587              		.loc 1 607 0
 1588 0224 DC70     		strb	r4, [r3, #3]
 1589              		.loc 1 608 0
 1590 0226 0270     		strb	r2, [r0]
 1591 0228 00E0     		b	.L226
 1592              	.L207:
 609:.\fun.c       ****             Jfig=3;
 610:.\fun.c       ****         
 611:.\fun.c       ****         }
 612:.\fun.c       ****     }
 613:.\fun.c       ****     else
 614:.\fun.c       ****          Jfig=0;
 1593              		.loc 1 614 0
 1594 022a 0022     		mov	r2, #0
 1595              	.L226:
 1596 022c 3A70     		strb	r2, [r7]
 1597              	.L205:
 615:.\fun.c       ****     if(JPercent==10)
 1598              		.loc 1 615 0
 1599 022e 2D78     		ldrb	r5, [r5]
 1600 0230 0A2D     		cmp	r5, #10
 1601 0232 04D1     		bne	.L208
 616:.\fun.c       ****         DisFlag.jlvxinflash=0;
 1602              		.loc 1 616 0
 1603 0234 464F     		ldr	r7, .L230+104
 1604 0236 0426     		mov	r6, #4
 1605 0238 FA78     		ldrb	r2, [r7, #3]
 1606 023a B243     		bic	r2, r6
 1607 023c FA70     		strb	r2, [r7, #3]
 1608              	.L208:
 617:.\fun.c       ****     
ARM GAS  C:\Users\ZHANGM~1\AppData\Local\Temp\cccEtK9g.s 			page 41


 618:.\fun.c       ****     
 619:.\fun.c       ****     
 620:.\fun.c       ****     
 621:.\fun.c       ****     if(Kfig==0)
 1609              		.loc 1 621 0
 1610 023e 474B     		ldr	r3, .L230+116
 1611 0240 354D     		ldr	r5, .L230+48
 1612 0242 1C78     		ldrb	r4, [r3]
 1613 0244 002C     		cmp	r4, #0
 1614 0246 07D1     		bne	.L209
 622:.\fun.c       ****     {   
 623:.\fun.c       ****         if(KPercent==2)
 1615              		.loc 1 623 0
 1616 0248 2A78     		ldrb	r2, [r5]
 1617 024a 022A     		cmp	r2, #2
 1618 024c 1ED1     		bne	.L210
 624:.\fun.c       ****         {
 625:.\fun.c       ****             
 626:.\fun.c       ****             BUZfkg=3;
 1619              		.loc 1 626 0
 1620 024e 3F4C     		ldr	r4, .L230+100
 1621 0250 0326     		mov	r6, #3
 1622 0252 2670     		strb	r6, [r4]
 627:.\fun.c       ****             Kfig=1;
 1623              		.loc 1 627 0
 1624 0254 0121     		mov	r1, #1
 1625 0256 18E0     		b	.L227
 1626              	.L209:
 628:.\fun.c       ****         }
 629:.\fun.c       ****         
 630:.\fun.c       ****     }
 631:.\fun.c       ****     else if(Kfig==1)
 1627              		.loc 1 631 0
 1628 0258 012C     		cmp	r4, #1
 1629 025a 07D1     		bne	.L211
 632:.\fun.c       ****     {
 633:.\fun.c       ****         if(KPercent==1)
 1630              		.loc 1 633 0
 1631 025c 2978     		ldrb	r1, [r5]
 1632 025e 0129     		cmp	r1, #1
 1633 0260 14D1     		bne	.L210
 634:.\fun.c       ****         {
 635:.\fun.c       ****             
 636:.\fun.c       ****             BUZfkg=3;
 1634              		.loc 1 636 0
 1635 0262 3A4F     		ldr	r7, .L230+100
 1636 0264 0320     		mov	r0, #3
 1637 0266 3870     		strb	r0, [r7]
 637:.\fun.c       ****             Kfig=2;
 1638              		.loc 1 637 0
 1639 0268 0221     		mov	r1, #2
 1640 026a 0EE0     		b	.L227
 1641              	.L211:
 638:.\fun.c       ****         }
 639:.\fun.c       ****     }
 640:.\fun.c       ****     else if(Kfig==2)
 1642              		.loc 1 640 0
ARM GAS  C:\Users\ZHANGM~1\AppData\Local\Temp\cccEtK9g.s 			page 42


 1643 026c 022C     		cmp	r4, #2
 1644 026e 0BD1     		bne	.L212
 641:.\fun.c       ****     {
 642:.\fun.c       ****        if(KPercent==0)
 1645              		.loc 1 642 0
 1646 0270 2878     		ldrb	r0, [r5]
 1647 0272 0028     		cmp	r0, #0
 1648 0274 0AD1     		bne	.L210
 643:.\fun.c       ****         {
 644:.\fun.c       ****             DisFlag.klvxinflash=1;
 1649              		.loc 1 644 0
 1650 0276 364F     		ldr	r7, .L230+104
 1651 0278 0826     		mov	r6, #8
 1652 027a FA78     		ldrb	r2, [r7, #3]
 645:.\fun.c       ****             BUZfkg=3;
 1653              		.loc 1 645 0
 1654 027c 334C     		ldr	r4, .L230+100
 644:.\fun.c       ****             DisFlag.klvxinflash=1;
 1655              		.loc 1 644 0
 1656 027e 3243     		orr	r2, r6
 1657              		.loc 1 645 0
 1658 0280 0321     		mov	r1, #3
 644:.\fun.c       ****             DisFlag.klvxinflash=1;
 1659              		.loc 1 644 0
 1660 0282 FA70     		strb	r2, [r7, #3]
 1661              		.loc 1 645 0
 1662 0284 2170     		strb	r1, [r4]
 1663 0286 00E0     		b	.L227
 1664              	.L212:
 646:.\fun.c       ****             Kfig=3;
 647:.\fun.c       ****         } 
 648:.\fun.c       ****     }
 649:.\fun.c       ****     else
 650:.\fun.c       ****         Kfig=0;
 1665              		.loc 1 650 0
 1666 0288 0021     		mov	r1, #0
 1667              	.L227:
 1668 028a 1970     		strb	r1, [r3]
 1669              	.L210:
 651:.\fun.c       ****     if(KPercent==10)
 1670              		.loc 1 651 0
 1671 028c 2B78     		ldrb	r3, [r5]
 1672 028e 0A2B     		cmp	r3, #10
 1673 0290 04D1     		bne	.L213
 652:.\fun.c       ****         DisFlag.klvxinflash=0;
 1674              		.loc 1 652 0
 1675 0292 2F4D     		ldr	r5, .L230+104
 1676 0294 0821     		mov	r1, #8
 1677 0296 E878     		ldrb	r0, [r5, #3]
 1678 0298 8843     		bic	r0, r1
 1679 029a E870     		strb	r0, [r5, #3]
 1680              	.L213:
 653:.\fun.c       ****     
 654:.\fun.c       ****   
 655:.\fun.c       ****     
 656:.\fun.c       ****     
 657:.\fun.c       ****     if(Lfig==0)
ARM GAS  C:\Users\ZHANGM~1\AppData\Local\Temp\cccEtK9g.s 			page 43


 1681              		.loc 1 657 0
 1682 029c 304F     		ldr	r7, .L230+120
 1683 029e 204A     		ldr	r2, .L230+56
 1684 02a0 3E78     		ldrb	r6, [r7]
 1685 02a2 002E     		cmp	r6, #0
 1686 02a4 07D1     		bne	.L214
 658:.\fun.c       ****     {   
 659:.\fun.c       ****         if(LPercent==2)
 1687              		.loc 1 659 0
 1688 02a6 1078     		ldrb	r0, [r2]
 1689 02a8 0228     		cmp	r0, #2
 1690 02aa 5DD1     		bne	.L215
 660:.\fun.c       ****         {
 661:.\fun.c       ****             
 662:.\fun.c       ****             BUZfkg=3;
 1691              		.loc 1 662 0
 1692 02ac 2749     		ldr	r1, .L230+100
 1693 02ae 0326     		mov	r6, #3
 1694 02b0 0E70     		strb	r6, [r1]
 663:.\fun.c       ****             Lfig=1;
 1695              		.loc 1 663 0
 1696 02b2 0124     		mov	r4, #1
 1697 02b4 57E0     		b	.L228
 1698              	.L214:
 664:.\fun.c       ****         
 665:.\fun.c       ****         }
 666:.\fun.c       ****     }
 667:.\fun.c       ****     else if(Lfig==1)
 1699              		.loc 1 667 0
 1700 02b6 012E     		cmp	r6, #1
 1701 02b8 07D1     		bne	.L216
 668:.\fun.c       ****     {
 669:.\fun.c       ****         if(LPercent==1)
 1702              		.loc 1 669 0
 1703 02ba 1478     		ldrb	r4, [r2]
 1704 02bc 012C     		cmp	r4, #1
 1705 02be 53D1     		bne	.L215
 670:.\fun.c       ****         {
 671:.\fun.c       ****             
 672:.\fun.c       ****             BUZfkg=3;
 1706              		.loc 1 672 0
 1707 02c0 224D     		ldr	r5, .L230+100
 1708 02c2 0323     		mov	r3, #3
 1709 02c4 2B70     		strb	r3, [r5]
 673:.\fun.c       ****             Lfig=2;
 1710              		.loc 1 673 0
 1711 02c6 0224     		mov	r4, #2
 1712 02c8 4DE0     		b	.L228
 1713              	.L216:
 674:.\fun.c       ****         
 675:.\fun.c       ****         }
 676:.\fun.c       ****     
 677:.\fun.c       ****     }
 678:.\fun.c       ****     else if(Lfig==2)
 1714              		.loc 1 678 0
 1715 02ca 022E     		cmp	r6, #2
 1716 02cc 4AD1     		bne	.L217
ARM GAS  C:\Users\ZHANGM~1\AppData\Local\Temp\cccEtK9g.s 			page 44


 679:.\fun.c       ****     {
 680:.\fun.c       ****         if(LPercent==0)
 1717              		.loc 1 680 0
 1718 02ce 1378     		ldrb	r3, [r2]
 1719 02d0 002B     		cmp	r3, #0
 1720 02d2 49D1     		bne	.L215
 681:.\fun.c       ****         {
 682:.\fun.c       ****             DisFlag.llvxinflash=1; 
 1721              		.loc 1 682 0
 1722 02d4 1E4D     		ldr	r5, .L230+104
 1723 02d6 1021     		mov	r1, #16
 1724 02d8 E878     		ldrb	r0, [r5, #3]
 683:.\fun.c       ****             BUZfkg=3;
 1725              		.loc 1 683 0
 1726 02da 1C4E     		ldr	r6, .L230+100
 682:.\fun.c       ****             DisFlag.llvxinflash=1; 
 1727              		.loc 1 682 0
 1728 02dc 0843     		orr	r0, r1
 1729              		.loc 1 683 0
 1730 02de 0324     		mov	r4, #3
 682:.\fun.c       ****             DisFlag.llvxinflash=1; 
 1731              		.loc 1 682 0
 1732 02e0 E870     		strb	r0, [r5, #3]
 1733              		.loc 1 683 0
 1734 02e2 3470     		strb	r4, [r6]
 1735 02e4 3FE0     		b	.L228
 1736              	.L231:
 1737 02e6 C046     		.align	2
 1738              	.L230:
 1739 02e8 00000000 		.word	NBfig
 1740 02ec 00000000 		.word	LvxinJishi
 1741 02f0 00000000 		.word	SPercent
 1742 02f4 00000000 		.word	HPercent
 1743 02f8 00000000 		.word	JPercent
 1744 02fc 4F0A0000 		.word	2639
 1745 0300 00000000 		.word	SP
 1746 0304 BF0D0000 		.word	3519
 1747 0308 00000000 		.word	HP
 1748 030c CF5C0000 		.word	23759
 1749 0310 00000000 		.word	JP
 1750 0314 00000000 		.word	KP
 1751 0318 00000000 		.word	KPercent
 1752 031c 00000000 		.word	LP
 1753 0320 00000000 		.word	LPercent
 1754 0324 33170000 		.word	5939
 1755 0328 00000000 		.word	MPercent
 1756 032c 00000000 		.word	MP
 1757 0330 00000000 		.word	SP_N
 1758 0334 00000000 		.word	HP_N
 1759 0338 00000000 		.word	JP_N
 1760 033c 00000000 		.word	KP_N
 1761 0340 00000000 		.word	LP_N
 1762 0344 00000000 		.word	MP_N
 1763 0348 00000000 		.word	Sfig
 1764 034c 00000000 		.word	BUZfkg
 1765 0350 00000000 		.word	DisFlag
 1766 0354 00000000 		.word	Hfig
ARM GAS  C:\Users\ZHANGM~1\AppData\Local\Temp\cccEtK9g.s 			page 45


 1767 0358 00000000 		.word	Jfig
 1768 035c 00000000 		.word	Kfig
 1769 0360 00000000 		.word	Lfig
 1770              	.L217:
 684:.\fun.c       ****             Lfig=3;
 685:.\fun.c       ****         
 686:.\fun.c       ****         }
 687:.\fun.c       ****     
 688:.\fun.c       ****     }
 689:.\fun.c       ****     else
 690:.\fun.c       ****         Lfig=0;
 1771              		.loc 1 690 0
 1772 0364 0024     		mov	r4, #0
 1773              	.L228:
 1774 0366 3C70     		strb	r4, [r7]
 1775              	.L215:
 691:.\fun.c       ****     
 692:.\fun.c       ****     if(LPercent==10)
 1776              		.loc 1 692 0
 1777 0368 1778     		ldrb	r7, [r2]
 1778 036a 0A2F     		cmp	r7, #10
 1779 036c 04D1     		bne	.L218
 693:.\fun.c       ****         DisFlag.llvxinflash=0;
 1780              		.loc 1 693 0
 1781 036e 1A4C     		ldr	r4, .L232
 1782 0370 1023     		mov	r3, #16
 1783 0372 E278     		ldrb	r2, [r4, #3]
 1784 0374 9A43     		bic	r2, r3
 1785 0376 E270     		strb	r2, [r4, #3]
 1786              	.L218:
 694:.\fun.c       ****     
 695:.\fun.c       ****     
 696:.\fun.c       ****     
 697:.\fun.c       ****     
 698:.\fun.c       ****     if(Mfig==0)
 1787              		.loc 1 698 0
 1788 0378 184D     		ldr	r5, .L232+4
 1789 037a 194E     		ldr	r6, .L232+8
 1790 037c 2878     		ldrb	r0, [r5]
 1791 037e 0028     		cmp	r0, #0
 1792 0380 07D1     		bne	.L219
 699:.\fun.c       ****     {   
 700:.\fun.c       ****         if(MPercent==2)
 1793              		.loc 1 700 0
 1794 0382 3378     		ldrb	r3, [r6]
 1795 0384 022B     		cmp	r3, #2
 1796 0386 1ED1     		bne	.L220
 701:.\fun.c       ****         {
 702:.\fun.c       ****             
 703:.\fun.c       ****             BUZfkg=3;
 1797              		.loc 1 703 0
 1798 0388 1648     		ldr	r0, .L232+12
 1799 038a 0324     		mov	r4, #3
 1800 038c 0470     		strb	r4, [r0]
 704:.\fun.c       ****             Mfig=1;
 1801              		.loc 1 704 0
 1802 038e 0121     		mov	r1, #1
ARM GAS  C:\Users\ZHANGM~1\AppData\Local\Temp\cccEtK9g.s 			page 46


 1803 0390 18E0     		b	.L229
 1804              	.L219:
 705:.\fun.c       ****         
 706:.\fun.c       ****         }
 707:.\fun.c       ****         
 708:.\fun.c       ****     }
 709:.\fun.c       ****     else if(Mfig==1)
 1805              		.loc 1 709 0
 1806 0392 0128     		cmp	r0, #1
 1807 0394 07D1     		bne	.L221
 710:.\fun.c       ****     {
 711:.\fun.c       ****         if(MPercent==1)
 1808              		.loc 1 711 0
 1809 0396 3178     		ldrb	r1, [r6]
 1810 0398 0129     		cmp	r1, #1
 1811 039a 14D1     		bne	.L220
 712:.\fun.c       ****         {
 713:.\fun.c       ****             
 714:.\fun.c       ****             BUZfkg=3;
 1812              		.loc 1 714 0
 1813 039c 114A     		ldr	r2, .L232+12
 1814 039e 0327     		mov	r7, #3
 1815 03a0 1770     		strb	r7, [r2]
 715:.\fun.c       ****             Mfig=2;
 1816              		.loc 1 715 0
 1817 03a2 0221     		mov	r1, #2
 1818 03a4 0EE0     		b	.L229
 1819              	.L221:
 716:.\fun.c       ****         }
 717:.\fun.c       ****     }
 718:.\fun.c       ****     else if(Mfig==2)
 1820              		.loc 1 718 0
 1821 03a6 0228     		cmp	r0, #2
 1822 03a8 0BD1     		bne	.L222
 719:.\fun.c       ****     {
 720:.\fun.c       ****         if(MPercent==0)
 1823              		.loc 1 720 0
 1824 03aa 3778     		ldrb	r7, [r6]
 1825 03ac 002F     		cmp	r7, #0
 1826 03ae 0AD1     		bne	.L220
 721:.\fun.c       ****         {
 722:.\fun.c       ****             DisFlag.mlvxinflash=1;
 1827              		.loc 1 722 0
 1828 03b0 094A     		ldr	r2, .L232
 1829 03b2 2024     		mov	r4, #32
 1830 03b4 D378     		ldrb	r3, [r2, #3]
 723:.\fun.c       ****             BUZfkg=3;
 1831              		.loc 1 723 0
 1832 03b6 0B48     		ldr	r0, .L232+12
 722:.\fun.c       ****             DisFlag.mlvxinflash=1;
 1833              		.loc 1 722 0
 1834 03b8 2343     		orr	r3, r4
 1835              		.loc 1 723 0
 1836 03ba 0321     		mov	r1, #3
 722:.\fun.c       ****             DisFlag.mlvxinflash=1;
 1837              		.loc 1 722 0
 1838 03bc D370     		strb	r3, [r2, #3]
ARM GAS  C:\Users\ZHANGM~1\AppData\Local\Temp\cccEtK9g.s 			page 47


 1839              		.loc 1 723 0
 1840 03be 0170     		strb	r1, [r0]
 1841 03c0 00E0     		b	.L229
 1842              	.L222:
 724:.\fun.c       ****             Mfig=3;
 725:.\fun.c       ****         }
 726:.\fun.c       ****     }
 727:.\fun.c       ****     else 
 728:.\fun.c       ****         Mfig=0;
 1843              		.loc 1 728 0
 1844 03c2 0021     		mov	r1, #0
 1845              	.L229:
 1846 03c4 2970     		strb	r1, [r5]
 1847              	.L220:
 729:.\fun.c       ****     
 730:.\fun.c       ****     if(MPercent==10)
 1848              		.loc 1 730 0
 1849 03c6 3578     		ldrb	r5, [r6]
 1850 03c8 0A2D     		cmp	r5, #10
 1851 03ca 04D1     		bne	.L180
 731:.\fun.c       ****         DisFlag.mlvxinflash=0;  
 1852              		.loc 1 731 0
 1853 03cc 024E     		ldr	r6, .L232
 1854 03ce 2021     		mov	r1, #32
 1855 03d0 F778     		ldrb	r7, [r6, #3]
 1856 03d2 8F43     		bic	r7, r1
 1857 03d4 F770     		strb	r7, [r6, #3]
 1858              	.L180:
 732:.\fun.c       **** }
 1859              		.loc 1 732 0
 1860              		@ sp needed for prologue
 1861 03d6 F8BD     		pop	{r3, r4, r5, r6, r7, pc}
 1862              	.L233:
 1863              		.align	2
 1864              	.L232:
 1865 03d8 00000000 		.word	DisFlag
 1866 03dc 00000000 		.word	Mfig
 1867 03e0 00000000 		.word	MPercent
 1868 03e4 00000000 		.word	BUZfkg
 1869              		.cfi_endproc
 1870              	.LFE37:
 1871              		.size	LXPercent, .-LXPercent
 1872              		.section	.text.lvxin_panduan,"ax",%progbits
 1873              		.align	1
 1874              		.global	lvxin_panduan
 1875              		.code	16
 1876              		.thumb_func
 1877              		.type	lvxin_panduan, %function
 1878              	lvxin_panduan:
 1879              	.LFB36:
 423:.\fun.c       **** {
 1880              		.loc 1 423 0
 1881              		.cfi_startproc
 1882 0000 08B5     		push	{r3, lr}
 1883              	.LCFI4:
 1884              		.cfi_def_cfa_offset 8
 1885              		.cfi_offset 3, -8
ARM GAS  C:\Users\ZHANGM~1\AppData\Local\Temp\cccEtK9g.s 			page 48


 1886              		.cfi_offset 14, -4
 424:.\fun.c       ****     LXPercent();
 1887              		.loc 1 424 0
 1888 0002 FFF7FEFF 		bl	LXPercent
 1889              	.LVL28:
 425:.\fun.c       ****     if(SPercent==1)
 1890              		.loc 1 425 0
 1891 0006 244B     		ldr	r3, .L247
 1892 0008 1878     		ldrb	r0, [r3]
 1893 000a 0128     		cmp	r0, #1
 1894 000c 02D1     		bne	.L235
 426:.\fun.c       ****         Sfig=1;
 1895              		.loc 1 426 0
 1896 000e 234B     		ldr	r3, .L247+4
 1897 0010 1870     		strb	r0, [r3]
 1898 0012 04E0     		b	.L236
 1899              	.L235:
 427:.\fun.c       ****     else if(SPercent==0)
 1900              		.loc 1 427 0
 1901 0014 0028     		cmp	r0, #0
 1902 0016 02D1     		bne	.L236
 428:.\fun.c       ****         Sfig=2;
 1903              		.loc 1 428 0
 1904 0018 2049     		ldr	r1, .L247+4
 1905 001a 0222     		mov	r2, #2
 1906 001c 0A70     		strb	r2, [r1]
 1907              	.L236:
 430:.\fun.c       ****     if(HPercent==1)
 1908              		.loc 1 430 0
 1909 001e 2048     		ldr	r0, .L247+8
 1910 0020 0178     		ldrb	r1, [r0]
 1911 0022 0129     		cmp	r1, #1
 1912 0024 02D1     		bne	.L237
 431:.\fun.c       ****         Hfig=1;
 1913              		.loc 1 431 0
 1914 0026 1F48     		ldr	r0, .L247+12
 1915 0028 0170     		strb	r1, [r0]
 1916 002a 04E0     		b	.L238
 1917              	.L237:
 432:.\fun.c       ****     else if(HPercent==0)
 1918              		.loc 1 432 0
 1919 002c 0029     		cmp	r1, #0
 1920 002e 02D1     		bne	.L238
 433:.\fun.c       ****         Hfig=2;
 1921              		.loc 1 433 0
 1922 0030 1C4B     		ldr	r3, .L247+12
 1923 0032 0222     		mov	r2, #2
 1924 0034 1A70     		strb	r2, [r3]
 1925              	.L238:
 435:.\fun.c       ****     if(JPercent==1)
 1926              		.loc 1 435 0
 1927 0036 1C49     		ldr	r1, .L247+16
 1928 0038 0B78     		ldrb	r3, [r1]
 1929 003a 012B     		cmp	r3, #1
 1930 003c 02D1     		bne	.L239
 436:.\fun.c       ****         Jfig=1;
 1931              		.loc 1 436 0
ARM GAS  C:\Users\ZHANGM~1\AppData\Local\Temp\cccEtK9g.s 			page 49


 1932 003e 1B49     		ldr	r1, .L247+20
 1933 0040 0B70     		strb	r3, [r1]
 1934 0042 04E0     		b	.L240
 1935              	.L239:
 437:.\fun.c       ****     else if(JPercent==0)
 1936              		.loc 1 437 0
 1937 0044 002B     		cmp	r3, #0
 1938 0046 02D1     		bne	.L240
 438:.\fun.c       ****         Jfig=2;
 1939              		.loc 1 438 0
 1940 0048 1848     		ldr	r0, .L247+20
 1941 004a 0222     		mov	r2, #2
 1942 004c 0270     		strb	r2, [r0]
 1943              	.L240:
 440:.\fun.c       ****     if(KPercent==1)
 1944              		.loc 1 440 0
 1945 004e 184B     		ldr	r3, .L247+24
 1946 0050 1878     		ldrb	r0, [r3]
 1947 0052 0128     		cmp	r0, #1
 1948 0054 02D1     		bne	.L241
 441:.\fun.c       ****         Kfig=1;
 1949              		.loc 1 441 0
 1950 0056 174B     		ldr	r3, .L247+28
 1951 0058 1870     		strb	r0, [r3]
 1952 005a 04E0     		b	.L242
 1953              	.L241:
 442:.\fun.c       ****     else if(KPercent==0)
 1954              		.loc 1 442 0
 1955 005c 0028     		cmp	r0, #0
 1956 005e 02D1     		bne	.L242
 443:.\fun.c       ****         Kfig=2;
 1957              		.loc 1 443 0
 1958 0060 1449     		ldr	r1, .L247+28
 1959 0062 0222     		mov	r2, #2
 1960 0064 0A70     		strb	r2, [r1]
 1961              	.L242:
 445:.\fun.c       ****     if(LPercent==1)
 1962              		.loc 1 445 0
 1963 0066 1448     		ldr	r0, .L247+32
 1964 0068 0178     		ldrb	r1, [r0]
 1965 006a 0129     		cmp	r1, #1
 1966 006c 02D1     		bne	.L243
 446:.\fun.c       ****         Lfig=1;
 1967              		.loc 1 446 0
 1968 006e 1348     		ldr	r0, .L247+36
 1969 0070 0170     		strb	r1, [r0]
 1970 0072 04E0     		b	.L244
 1971              	.L243:
 447:.\fun.c       ****     else if(LPercent==0)
 1972              		.loc 1 447 0
 1973 0074 0029     		cmp	r1, #0
 1974 0076 02D1     		bne	.L244
 448:.\fun.c       ****         Lfig=2;
 1975              		.loc 1 448 0
 1976 0078 104B     		ldr	r3, .L247+36
 1977 007a 0222     		mov	r2, #2
 1978 007c 1A70     		strb	r2, [r3]
ARM GAS  C:\Users\ZHANGM~1\AppData\Local\Temp\cccEtK9g.s 			page 50


 1979              	.L244:
 450:.\fun.c       ****     if(MPercent==1)
 1980              		.loc 1 450 0
 1981 007e 1049     		ldr	r1, .L247+40
 1982 0080 0B78     		ldrb	r3, [r1]
 1983 0082 012B     		cmp	r3, #1
 1984 0084 02D1     		bne	.L245
 451:.\fun.c       ****         Mfig=1;
 1985              		.loc 1 451 0
 1986 0086 0F49     		ldr	r1, .L247+44
 1987 0088 0B70     		strb	r3, [r1]
 1988 008a 04E0     		b	.L234
 1989              	.L245:
 452:.\fun.c       ****     else if(MPercent==0)
 1990              		.loc 1 452 0
 1991 008c 002B     		cmp	r3, #0
 1992 008e 02D1     		bne	.L234
 453:.\fun.c       ****         Mfig=2;
 1993              		.loc 1 453 0
 1994 0090 0C48     		ldr	r0, .L247+44
 1995 0092 0222     		mov	r2, #2
 1996 0094 0270     		strb	r2, [r0]
 1997              	.L234:
 455:.\fun.c       **** }
 1998              		.loc 1 455 0
 1999              		@ sp needed for prologue
 2000 0096 08BD     		pop	{r3, pc}
 2001              	.L248:
 2002              		.align	2
 2003              	.L247:
 2004 0098 00000000 		.word	SPercent
 2005 009c 00000000 		.word	Sfig
 2006 00a0 00000000 		.word	HPercent
 2007 00a4 00000000 		.word	Hfig
 2008 00a8 00000000 		.word	JPercent
 2009 00ac 00000000 		.word	Jfig
 2010 00b0 00000000 		.word	KPercent
 2011 00b4 00000000 		.word	Kfig
 2012 00b8 00000000 		.word	LPercent
 2013 00bc 00000000 		.word	Lfig
 2014 00c0 00000000 		.word	MPercent
 2015 00c4 00000000 		.word	Mfig
 2016              		.cfi_endproc
 2017              	.LFE36:
 2018              		.size	lvxin_panduan, .-lvxin_panduan
 2019              		.section	.text.error_alm,"ax",%progbits
 2020              		.align	1
 2021              		.global	error_alm
 2022              		.code	16
 2023              		.thumb_func
 2024              		.type	error_alm, %function
 2025              	error_alm:
 2026              	.LFB38:
 733:.\fun.c       **** 
 734:.\fun.c       **** void error_alm(void)//异常故障报警函数
 735:.\fun.c       **** {
 2027              		.loc 1 735 0
ARM GAS  C:\Users\ZHANGM~1\AppData\Local\Temp\cccEtK9g.s 			page 51


 2028              		.cfi_startproc
 2029 0000 38B5     		push	{r3, r4, r5, lr}
 2030              	.LCFI5:
 2031              		.cfi_def_cfa_offset 16
 2032              		.cfi_offset 3, -16
 2033              		.cfi_offset 4, -12
 2034              		.cfi_offset 5, -8
 2035              		.cfi_offset 14, -4
 736:.\fun.c       ****     
 737:.\fun.c       ****     if(K1_Read()==0)//在进水和冲洗阀不工作的时候检测排线脱落********************
 2036              		.loc 1 737 0
 2037 0002 FFF7FEFF 		bl	K1_Read
 2038              	.LVL29:
 2039 0006 294C     		ldr	r4, .L261
 2040 0008 0028     		cmp	r0, #0
 2041 000a 14D1     		bne	.L251
 738:.\fun.c       **** 		  {
 739:.\fun.c       **** 		      if(CX_Read()==1)//1时上电时CX端子脱落 
 2042              		.loc 1 739 0
 2043 000c FFF7FEFF 		bl	CX_Read
 2044              	.LVL30:
 2045 0010 0423     		mov	r3, #4
 740:.\fun.c       **** 			      {    
 741:.\fun.c       **** 			          Error_Data.bit.Error_02_flag=1;
 2046              		.loc 1 741 0
 2047 0012 2278     		ldrb	r2, [r4]
 739:.\fun.c       **** 		      if(CX_Read()==1)//1时上电时CX端子脱落 
 2048              		.loc 1 739 0
 2049 0014 0128     		cmp	r0, #1
 2050 0016 0CD1     		bne	.L252
 2051              		.loc 1 741 0
 2052 0018 1343     		orr	r3, r2
 742:.\fun.c       ****                     if(ErrorFlag.Error_01==0)
 2053              		.loc 1 742 0
 2054 001a 254D     		ldr	r5, .L261+4
 741:.\fun.c       **** 			          Error_Data.bit.Error_02_flag=1;
 2055              		.loc 1 741 0
 2056 001c 2370     		strb	r3, [r4]
 2057              		.loc 1 742 0
 2058 001e 2B78     		ldrb	r3, [r5]
 2059 0020 0221     		mov	r1, #2
 2060 0022 0B42     		tst	r3, r1
 2061 0024 07D1     		bne	.L251
 743:.\fun.c       ****                     {
 744:.\fun.c       ****                         ErrorFlag.Error_01=1;  
 2062              		.loc 1 744 0
 2063 0026 0B43     		orr	r3, r1
 2064 0028 2B70     		strb	r3, [r5]
 745:.\fun.c       **** 			            Load_Error(HOST_E1_DATA);
 2065              		.loc 1 745 0
 2066 002a 2248     		ldr	r0, .L261+8
 2067 002c FFF7FEFF 		bl	Load_Error
 2068              	.LVL31:
 2069 0030 01E0     		b	.L251
 2070              	.L252:
 746:.\fun.c       ****                      }
 747:.\fun.c       **** 			      }
ARM GAS  C:\Users\ZHANGM~1\AppData\Local\Temp\cccEtK9g.s 			page 52


 748:.\fun.c       **** 		      else
 749:.\fun.c       **** 		      	{
 750:.\fun.c       **** 			         Error_Data.bit.Error_02_flag=0;
 2071              		.loc 1 750 0
 2072 0032 9A43     		bic	r2, r3
 2073 0034 2270     		strb	r2, [r4]
 2074              	.L251:
 751:.\fun.c       **** 		     		}	  
 752:.\fun.c       **** 		  }    
 753:.\fun.c       ****     if(K2_Read()==0)
 2075              		.loc 1 753 0
 2076 0036 FFF7FEFF 		bl	K2_Read
 2077              	.LVL32:
 2078 003a 051E     		sub	r5, r0, #0
 2079 003c 1ED1     		bne	.L255
 754:.\fun.c       **** 	    {
 755:.\fun.c       **** 	    
 756:.\fun.c       **** 	      if(JS_Read()==1)//进水1端子没有脱落,debug 
 2080              		.loc 1 756 0
 2081 003e FFF7FEFF 		bl	JS_Read
 2082              	.LVL33:
 2083 0042 0128     		cmp	r0, #1
 2084 0044 04D1     		bne	.L256
 757:.\fun.c       **** 	      	{
 758:.\fun.c       **** 	          Error_Data.bit.Error_01_flag=0;
 2085              		.loc 1 758 0
 2086 0046 2578     		ldrb	r5, [r4]
 2087 0048 0220     		mov	r0, #2
 2088 004a 8543     		bic	r5, r0
 2089 004c 2570     		strb	r5, [r4]
 2090 004e 15E0     		b	.L255
 2091              	.L256:
 759:.\fun.c       **** 	  			} 
 760:.\fun.c       **** 	      else //上电的时候脱落              
 761:.\fun.c       **** 	        {
 762:.\fun.c       **** 	            jserrorcntfig=1;
 763:.\fun.c       **** 	           if(jserrorcnt>5)
 2092              		.loc 1 763 0
 2093 0050 194B     		ldr	r3, .L261+12
 762:.\fun.c       **** 	            jserrorcntfig=1;
 2094              		.loc 1 762 0
 2095 0052 1A48     		ldr	r0, .L261+16
 2096              		.loc 1 763 0
 2097 0054 1978     		ldrb	r1, [r3]
 762:.\fun.c       **** 	            jserrorcntfig=1;
 2098              		.loc 1 762 0
 2099 0056 0122     		mov	r2, #1
 2100 0058 0270     		strb	r2, [r0]
 2101              		.loc 1 763 0
 2102 005a 0529     		cmp	r1, #5
 2103 005c 0ED9     		bls	.L255
 764:.\fun.c       **** 	           {
 765:.\fun.c       **** 	              jserrorcntfig=0;
 2104              		.loc 1 765 0
 2105 005e 0570     		strb	r5, [r0]
 766:.\fun.c       **** 	            	Error_Data.bit.Error_01_flag=1;
 2106              		.loc 1 766 0
ARM GAS  C:\Users\ZHANGM~1\AppData\Local\Temp\cccEtK9g.s 			page 53


 2107 0060 2578     		ldrb	r5, [r4]
 2108 0062 0220     		mov	r0, #2
 2109 0064 0543     		orr	r5, r0
 767:.\fun.c       ****                   if(ErrorFlag.Error_02==0)
 2110              		.loc 1 767 0
 2111 0066 124B     		ldr	r3, .L261+4
 766:.\fun.c       **** 	            	Error_Data.bit.Error_01_flag=1;
 2112              		.loc 1 766 0
 2113 0068 2570     		strb	r5, [r4]
 2114              		.loc 1 767 0
 2115 006a 1A78     		ldrb	r2, [r3]
 2116 006c 0421     		mov	r1, #4
 2117 006e 0A42     		tst	r2, r1
 2118 0070 04D1     		bne	.L255
 768:.\fun.c       ****                     {
 769:.\fun.c       ****                         ErrorFlag.Error_02=1;
 2119              		.loc 1 769 0
 2120 0072 0A43     		orr	r2, r1
 2121 0074 1A70     		strb	r2, [r3]
 770:.\fun.c       ****                         Load_Error(HOST_E2_DATA);
 2122              		.loc 1 770 0
 2123 0076 1248     		ldr	r0, .L261+20
 2124 0078 FFF7FEFF 		bl	Load_Error
 2125              	.LVL34:
 2126              	.L255:
 771:.\fun.c       ****                     }
 772:.\fun.c       **** 	           }
 773:.\fun.c       **** 	        }         
 774:.\fun.c       **** 	    }
 775:.\fun.c       ****     if(Error_Data.bit.Error_02_flag==1||Error_Data.bit.Error_01_flag==1)//有故障则故障标志
 2127              		.loc 1 775 0
 2128 007c 2478     		ldrb	r4, [r4]
 2129 007e 0625     		mov	r5, #6
 2130 0080 0121     		mov	r1, #1
 2131 0082 104A     		ldr	r2, .L261+24
 2132 0084 104B     		ldr	r3, .L261+28
 2133 0086 2C42     		tst	r4, r5
 2134 0088 07D0     		beq	.L258
 776:.\fun.c       **** 	    {   
 777:.\fun.c       **** 	        WorkFlag.error=1;
 2135              		.loc 1 777 0
 2136 008a 1578     		ldrb	r5, [r2]
 778:.\fun.c       **** 	        DisFlag.errorsignflash=1;//故障指示灯闪烁
 2137              		.loc 1 778 0
 2138 008c 8024     		mov	r4, #128
 777:.\fun.c       **** 	        WorkFlag.error=1;
 2139              		.loc 1 777 0
 2140 008e 2943     		orr	r1, r5
 2141 0090 1170     		strb	r1, [r2]
 2142              		.loc 1 778 0
 2143 0092 9878     		ldrb	r0, [r3, #2]
 2144 0094 6242     		neg	r2, r4
 2145 0096 0243     		orr	r2, r0
 2146 0098 05E0     		b	.L260
 2147              	.L258:
 779:.\fun.c       **** 	    }    
 780:.\fun.c       ****     else
ARM GAS  C:\Users\ZHANGM~1\AppData\Local\Temp\cccEtK9g.s 			page 54


 781:.\fun.c       **** 	    {
 782:.\fun.c       **** 	       WorkFlag.error=0;  
 2148              		.loc 1 782 0
 2149 009a 1078     		ldrb	r0, [r2]
 2150 009c 8843     		bic	r0, r1
 2151 009e 1070     		strb	r0, [r2]
 783:.\fun.c       **** 	       DisFlag.errorsignflash=0;
 2152              		.loc 1 783 0
 2153 00a0 9978     		ldrb	r1, [r3, #2]
 2154 00a2 7F22     		mov	r2, #127
 2155 00a4 0A40     		and	r2, r1
 2156              	.L260:
 2157 00a6 9A70     		strb	r2, [r3, #2]
 784:.\fun.c       **** 	    }   
 785:.\fun.c       **** }      
 2158              		.loc 1 785 0
 2159              		@ sp needed for prologue
 2160 00a8 38BD     		pop	{r3, r4, r5, pc}
 2161              	.L262:
 2162 00aa C046     		.align	2
 2163              	.L261:
 2164 00ac 00000000 		.word	Error_Data
 2165 00b0 00000000 		.word	ErrorFlag
 2166 00b4 F1900000 		.word	37105
 2167 00b8 00000000 		.word	jserrorcnt
 2168 00bc 00000000 		.word	jserrorcntfig
 2169 00c0 F2900000 		.word	37106
 2170 00c4 00000000 		.word	WorkFlag
 2171 00c8 00000000 		.word	DisFlag
 2172              		.cfi_endproc
 2173              	.LFE38:
 2174              		.size	error_alm, .-error_alm
 2175              		.section	.text.queshui_alm,"ax",%progbits
 2176              		.align	1
 2177              		.global	queshui_alm
 2178              		.code	16
 2179              		.thumb_func
 2180              		.type	queshui_alm, %function
 2181              	queshui_alm:
 2182              	.LFB39:
 786:.\fun.c       ****     
 787:.\fun.c       **** void queshui_alm(void)
 788:.\fun.c       **** 
 789:.\fun.c       **** {
 2183              		.loc 1 789 0
 2184              		.cfi_startproc
 790:.\fun.c       **** 	if(LianXuJiShi>=TIMER2H)//连续工作超过120分钟报警 **************************************
 2185              		.loc 1 790 0
 2186 0000 584B     		ldr	r3, .L297
 2187 0002 5948     		ldr	r0, .L297+4
 2188 0004 1A68     		ldr	r2, [r3]
 789:.\fun.c       **** {
 2189              		.loc 1 789 0
 2190 0006 10B5     		push	{r4, lr}
 2191              	.LCFI6:
 2192              		.cfi_def_cfa_offset 8
 2193              		.cfi_offset 4, -8
ARM GAS  C:\Users\ZHANGM~1\AppData\Local\Temp\cccEtK9g.s 			page 55


 2194              		.cfi_offset 14, -4
 2195 0008 584C     		ldr	r4, .L297+8
 2196              		.loc 1 790 0
 2197 000a 8242     		cmp	r2, r0
 2198 000c 06D9     		bls	.L264
 791:.\fun.c       **** 		{ 
 792:.\fun.c       **** 			Load_Error(HOST_E0_DATA);
 2199              		.loc 1 792 0
 2200 000e 5848     		ldr	r0, .L297+12
 2201 0010 FFF7FEFF 		bl	Load_Error
 2202              	.LVL35:
 793:.\fun.c       **** 			Error_Data.bit.Error_00_flag=1;
 2203              		.loc 1 793 0
 2204 0014 2178     		ldrb	r1, [r4]
 2205 0016 0122     		mov	r2, #1
 2206 0018 1143     		orr	r1, r2
 2207 001a 02E0     		b	.L294
 2208              	.L264:
 794:.\fun.c       ****     }
 795:.\fun.c       ****   else
 796:.\fun.c       ****     {
 797:.\fun.c       ****      	Error_Data.bit.Error_00_flag=0;  
 2209              		.loc 1 797 0
 2210 001c 2178     		ldrb	r1, [r4]
 2211 001e 0123     		mov	r3, #1
 2212 0020 9943     		bic	r1, r3
 2213              	.L294:
 2214 0022 2170     		strb	r1, [r4]
 798:.\fun.c       ****     }   
 799:.\fun.c       ****     if(DYWD_Read()==1)//为1时无水//判断是否有自来水************************************
 2215              		.loc 1 799 0
 2216 0024 FFF7FEFF 		bl	DYWD_Read
 2217              	.LVL36:
 2218 0028 0128     		cmp	r0, #1
 2219 002a 17D1     		bne	.L266
 800:.\fun.c       **** 	    {
 801:.\fun.c       **** 	        if(DYWDfig1)//从有水到无水低压开关有3S 的延时,低压开关断开有3S的延
 2220              		.loc 1 801 0
 2221 002c 514C     		ldr	r4, .L297+16
 2222 002e 2378     		ldrb	r3, [r4]
 2223 0030 002B     		cmp	r3, #0
 2224 0032 08D0     		beq	.L267
 802:.\fun.c       **** 	        {
 803:.\fun.c       **** 	            if(DYWDcnt1>30*20*5)
 2225              		.loc 1 803 0
 2226 0034 504B     		ldr	r3, .L297+20
 2227 0036 514A     		ldr	r2, .L297+24
 2228 0038 1888     		ldrh	r0, [r3]
 2229 003a 9042     		cmp	r0, r2
 2230 003c 26D9     		bls	.L268
 804:.\fun.c       **** 	//            if(DYWDcnt1>30)
 805:.\fun.c       **** 	            {   
 806:.\fun.c       **** 	               DYWDfig1=0;
 2231              		.loc 1 806 0
 2232 003e 0021     		mov	r1, #0
 2233 0040 2170     		strb	r1, [r4]
 807:.\fun.c       **** 	               DYWDcnt1=0;
ARM GAS  C:\Users\ZHANGM~1\AppData\Local\Temp\cccEtK9g.s 			page 56


 2234              		.loc 1 807 0
 2235 0042 1980     		strh	r1, [r3]
 2236 0044 22E0     		b	.L268
 2237              	.L267:
 808:.\fun.c       **** 	             }    
 809:.\fun.c       **** 	        }        
 810:.\fun.c       **** 	        else
 811:.\fun.c       **** 	        {
 812:.\fun.c       **** 	            //无水，
 813:.\fun.c       **** 	            DYWDfig=1;
 2238              		.loc 1 813 0
 2239 0046 4E49     		ldr	r1, .L297+28
 814:.\fun.c       **** 	            Switch_Data.bit.diya_flag=1;
 2240              		.loc 1 814 0
 2241 0048 0222     		mov	r2, #2
 813:.\fun.c       **** 	            DYWDfig=1;
 2242              		.loc 1 813 0
 2243 004a 0870     		strb	r0, [r1]
 2244              		.loc 1 814 0
 2245 004c 4D48     		ldr	r0, .L297+32
 815:.\fun.c       **** 	            WorkFlag.nowater = 1;
 2246              		.loc 1 815 0
 2247 004e 4E4B     		ldr	r3, .L297+36
 814:.\fun.c       **** 	            Switch_Data.bit.diya_flag=1;
 2248              		.loc 1 814 0
 2249 0050 0478     		ldrb	r4, [r0]
 2250 0052 1443     		orr	r4, r2
 2251 0054 0470     		strb	r4, [r0]
 2252              		.loc 1 815 0
 2253 0056 1978     		ldrb	r1, [r3]
 2254 0058 0A43     		orr	r2, r1
 2255 005a 16E0     		b	.L295
 2256              	.L266:
 816:.\fun.c       **** 	               
 817:.\fun.c       **** 	        }            
 818:.\fun.c       **** 	          
 819:.\fun.c       **** 	   
 820:.\fun.c       **** 	    }
 821:.\fun.c       ****     else    //有水
 822:.\fun.c       **** 	    { 
 823:.\fun.c       **** 	        if(DYWDfig==1)//标志等于1,则是无水到有水,低压开关延时3S 接通
 2257              		.loc 1 823 0
 2258 005c 484C     		ldr	r4, .L297+28
 2259 005e 2078     		ldrb	r0, [r4]
 2260 0060 0128     		cmp	r0, #1
 2261 0062 06D1     		bne	.L269
 824:.\fun.c       **** 	        {
 825:.\fun.c       **** 	            if(DYWDcnt>30)
 2262              		.loc 1 825 0
 2263 0064 494B     		ldr	r3, .L297+40
 2264 0066 1878     		ldrb	r0, [r3]
 2265 0068 1E28     		cmp	r0, #30
 2266 006a 0FD9     		bls	.L268
 826:.\fun.c       **** 	            {
 827:.\fun.c       **** 	                DYWDfig=0;
 2267              		.loc 1 827 0
 2268 006c 0022     		mov	r2, #0
ARM GAS  C:\Users\ZHANGM~1\AppData\Local\Temp\cccEtK9g.s 			page 57


 2269 006e 2270     		strb	r2, [r4]
 2270 0070 0BE0     		b	.L295
 2271              	.L269:
 828:.\fun.c       **** 	                DYWDcnt=0;                
 829:.\fun.c       **** 	            }
 830:.\fun.c       **** 	            
 831:.\fun.c       **** 	        }
 832:.\fun.c       **** 	        else
 833:.\fun.c       **** 	        {
 834:.\fun.c       **** 	            Switch_Data.bit.diya_flag=0;
 2272              		.loc 1 834 0
 2273 0072 444B     		ldr	r3, .L297+32
 2274 0074 0222     		mov	r2, #2
 2275 0076 1978     		ldrb	r1, [r3]
 835:.\fun.c       **** 	            DYWDfig1=1;
 2276              		.loc 1 835 0
 2277 0078 3E48     		ldr	r0, .L297+16
 834:.\fun.c       **** 	            Switch_Data.bit.diya_flag=0;
 2278              		.loc 1 834 0
 2279 007a 9143     		bic	r1, r2
 2280 007c 1970     		strb	r1, [r3]
 2281              		.loc 1 835 0
 2282 007e 0124     		mov	r4, #1
 836:.\fun.c       **** 	            WorkFlag.nowater = 0;       
 2283              		.loc 1 836 0
 2284 0080 414B     		ldr	r3, .L297+36
 835:.\fun.c       **** 	            DYWDfig1=1;
 2285              		.loc 1 835 0
 2286 0082 0470     		strb	r4, [r0]
 2287              		.loc 1 836 0
 2288 0084 1978     		ldrb	r1, [r3]
 2289 0086 9143     		bic	r1, r2
 2290 0088 0A1C     		mov	r2, r1
 2291              	.L295:
 2292 008a 1A70     		strb	r2, [r3]
 2293              	.L268:
 837:.\fun.c       **** 	        }      
 838:.\fun.c       **** 	    }                 
 839:.\fun.c       ****     if(GYWD_Read()==1) ///为1判断压力罐是否水满******************************************
 2294              		.loc 1 839 0
 2295 008c FFF7FEFF 		bl	GYWD_Read
 2296              	.LVL37:
 2297 0090 0128     		cmp	r0, #1
 2298 0092 19D1     		bne	.L270
 840:.\fun.c       **** 	    {  
 841:.\fun.c       **** 	        if(GYfig1==1)
 2299              		.loc 1 841 0
 2300 0094 3E49     		ldr	r1, .L297+44
 2301 0096 0B78     		ldrb	r3, [r1]
 2302 0098 012B     		cmp	r3, #1
 2303 009a 04D1     		bne	.L271
 842:.\fun.c       **** 	        {
 843:.\fun.c       **** 	            if(GYcnt1>1)
 2304              		.loc 1 843 0
 2305 009c 3D4C     		ldr	r4, .L297+48
 2306 009e 2378     		ldrb	r3, [r4]
 2307 00a0 012B     		cmp	r3, #1
ARM GAS  C:\Users\ZHANGM~1\AppData\Local\Temp\cccEtK9g.s 			page 58


 2308 00a2 19D8     		bhi	.L296
 2309 00a4 5DE0     		b	.L263
 2310              	.L271:
 844:.\fun.c       **** 	            {
 845:.\fun.c       **** 	                GYcnt1=0;
 846:.\fun.c       **** 	                GYfig1=0;
 847:.\fun.c       **** 	            }
 848:.\fun.c       **** 	        
 849:.\fun.c       **** 	        }
 850:.\fun.c       **** 	        else
 851:.\fun.c       **** 	        {
 852:.\fun.c       **** 	            shuibumanfig=0;
 2311              		.loc 1 852 0
 2312 00a6 3C4C     		ldr	r4, .L297+52
 853:.\fun.c       **** 	            WorkFlag.gyfull = 1;//高开开关判断水满了
 2313              		.loc 1 853 0
 2314 00a8 374A     		ldr	r2, .L297+36
 852:.\fun.c       **** 	            shuibumanfig=0;
 2315              		.loc 1 852 0
 2316 00aa 0023     		mov	r3, #0
 2317 00ac 2370     		strb	r3, [r4]
 2318              		.loc 1 853 0
 2319 00ae D178     		ldrb	r1, [r2, #3]
 2320 00b0 1024     		mov	r4, #16
 2321 00b2 2143     		orr	r1, r4
 2322 00b4 D170     		strb	r1, [r2, #3]
 854:.\fun.c       **** 	            Switch_Data.bit.gaoya_flag=1;
 2323              		.loc 1 854 0
 2324 00b6 334A     		ldr	r2, .L297+32
 855:.\fun.c       **** 	            GYfig=1;
 2325              		.loc 1 855 0
 2326 00b8 384C     		ldr	r4, .L297+56
 854:.\fun.c       **** 	            Switch_Data.bit.gaoya_flag=1;
 2327              		.loc 1 854 0
 2328 00ba 1178     		ldrb	r1, [r2]
 2329 00bc 0143     		orr	r1, r0
 2330 00be 1170     		strb	r1, [r2]
 2331              		.loc 1 855 0
 2332 00c0 2070     		strb	r0, [r4]
 856:.\fun.c       **** 	            waterfullfig=0;
 2333              		.loc 1 856 0
 2334 00c2 3748     		ldr	r0, .L297+60
 2335 00c4 0370     		strb	r3, [r0]
 2336 00c6 4CE0     		b	.L263
 2337              	.L270:
 857:.\fun.c       **** 	            
 858:.\fun.c       **** 	            
 859:.\fun.c       **** 	        }    
 860:.\fun.c       **** 	                
 861:.\fun.c       **** 	        
 862:.\fun.c       **** 	        
 863:.\fun.c       **** 	        
 864:.\fun.c       **** 	        
 865:.\fun.c       **** 	       
 866:.\fun.c       **** 	    } 
 867:.\fun.c       ****     else//水不满
 868:.\fun.c       **** 	    {      
ARM GAS  C:\Users\ZHANGM~1\AppData\Local\Temp\cccEtK9g.s 			page 59


 869:.\fun.c       **** 	       if(GYfig==1)//从水满到到不满有1S延时
 2338              		.loc 1 869 0
 2339 00c8 344C     		ldr	r4, .L297+56
 2340 00ca 2378     		ldrb	r3, [r4]
 2341 00cc 012B     		cmp	r3, #1
 2342 00ce 07D1     		bne	.L274
 870:.\fun.c       **** 	        {
 871:.\fun.c       **** 	            if(GYcnt>10)
 2343              		.loc 1 871 0
 2344 00d0 3449     		ldr	r1, .L297+64
 2345 00d2 0A78     		ldrb	r2, [r1]
 2346 00d4 0A2A     		cmp	r2, #10
 2347 00d6 44D9     		bls	.L263
 2348              	.L296:
 872:.\fun.c       **** 	            {
 873:.\fun.c       **** 	                GYfig=0;
 2349              		.loc 1 873 0
 2350 00d8 0022     		mov	r2, #0
 2351 00da 2270     		strb	r2, [r4]
 874:.\fun.c       **** 	                GYcnt=0;
 2352              		.loc 1 874 0
 2353 00dc 0A70     		strb	r2, [r1]
 2354 00de 40E0     		b	.L263
 2355              	.L274:
 875:.\fun.c       **** 	            }    
 876:.\fun.c       **** 	        }        
 877:.\fun.c       **** 	        else
 878:.\fun.c       **** 	        {
 879:.\fun.c       **** 	            WorkFlag.gyfull =0;
 2356              		.loc 1 879 0
 2357 00e0 2948     		ldr	r0, .L297+36
 2358 00e2 1021     		mov	r1, #16
 2359 00e4 C278     		ldrb	r2, [r0, #3]
 880:.\fun.c       **** 	            GYfig1=1;
 2360              		.loc 1 880 0
 2361 00e6 2A4B     		ldr	r3, .L297+44
 879:.\fun.c       **** 	            WorkFlag.gyfull =0;
 2362              		.loc 1 879 0
 2363 00e8 8A43     		bic	r2, r1
 2364 00ea C270     		strb	r2, [r0, #3]
 2365              		.loc 1 880 0
 2366 00ec 0124     		mov	r4, #1
 881:.\fun.c       **** 	            Switch_Data.bit.gaoya_flag=0;
 2367              		.loc 1 881 0
 2368 00ee 2548     		ldr	r0, .L297+32
 880:.\fun.c       **** 	            GYfig1=1;
 2369              		.loc 1 880 0
 2370 00f0 1C70     		strb	r4, [r3]
 2371              		.loc 1 881 0
 2372 00f2 0278     		ldrb	r2, [r0]
 2373 00f4 A243     		bic	r2, r4
 882:.\fun.c       **** 	            if(waterfullfig==0)
 2374              		.loc 1 882 0
 2375 00f6 2A4C     		ldr	r4, .L297+60
 881:.\fun.c       **** 	            Switch_Data.bit.gaoya_flag=0;
 2376              		.loc 1 881 0
 2377 00f8 0270     		strb	r2, [r0]
ARM GAS  C:\Users\ZHANGM~1\AppData\Local\Temp\cccEtK9g.s 			page 60


 2378              		.loc 1 882 0
 2379 00fa 2378     		ldrb	r3, [r4]
 2380 00fc 201C     		mov	r0, r4
 2381 00fe 002B     		cmp	r3, #0
 2382 0100 07D1     		bne	.L276
 883:.\fun.c       **** 	            {
 884:.\fun.c       **** 	                if(gyfullcnt<254)
 2383              		.loc 1 884 0
 2384 0102 2949     		ldr	r1, .L297+68
 2385 0104 0A78     		ldrb	r2, [r1]
 2386 0106 FD2A     		cmp	r2, #253
 2387 0108 01D8     		bhi	.L277
 885:.\fun.c       **** 	                
 886:.\fun.c       **** 	                gyfullcnt++;
 2388              		.loc 1 886 0
 2389 010a 0132     		add	r2, r2, #1
 2390 010c 0A70     		strb	r2, [r1]
 2391              	.L277:
 887:.\fun.c       **** 	                waterfullfig=1;
 2392              		.loc 1 887 0
 2393 010e 0124     		mov	r4, #1
 2394 0110 0470     		strb	r4, [r0]
 2395              	.L276:
 888:.\fun.c       **** 	            }
 889:.\fun.c       **** 	            if(shuibumanfig==0&&(SPercent==0||HPercent==0||JPercent==0||KPercent==0||LPercent==0||
 2396              		.loc 1 889 0
 2397 0112 214B     		ldr	r3, .L297+52
 2398 0114 1878     		ldrb	r0, [r3]
 2399 0116 191C     		mov	r1, r3
 2400 0118 0028     		cmp	r0, #0
 2401 011a 22D1     		bne	.L263
 2402              		.loc 1 889 0 is_stmt 0 discriminator 1
 2403 011c 234A     		ldr	r2, .L297+72
 2404 011e 1478     		ldrb	r4, [r2]
 2405 0120 002C     		cmp	r4, #0
 2406 0122 13D0     		beq	.L278
 2407              		.loc 1 889 0 discriminator 2
 2408 0124 224B     		ldr	r3, .L297+76
 2409 0126 1878     		ldrb	r0, [r3]
 2410 0128 0028     		cmp	r0, #0
 2411 012a 0FD0     		beq	.L278
 2412              		.loc 1 889 0 discriminator 1
 2413 012c 214A     		ldr	r2, .L297+80
 2414 012e 1478     		ldrb	r4, [r2]
 2415 0130 002C     		cmp	r4, #0
 2416 0132 0BD0     		beq	.L278
 2417 0134 204B     		ldr	r3, .L297+84
 2418 0136 1878     		ldrb	r0, [r3]
 2419 0138 0028     		cmp	r0, #0
 2420 013a 07D0     		beq	.L278
 2421 013c 1F4A     		ldr	r2, .L297+88
 2422 013e 1478     		ldrb	r4, [r2]
 2423 0140 002C     		cmp	r4, #0
 2424 0142 03D0     		beq	.L278
 2425 0144 1E4B     		ldr	r3, .L297+92
 2426 0146 1878     		ldrb	r0, [r3]
 2427 0148 0028     		cmp	r0, #0
ARM GAS  C:\Users\ZHANGM~1\AppData\Local\Temp\cccEtK9g.s 			page 61


 2428 014a 0AD1     		bne	.L263
 2429              	.L278:
 2430 014c 1D4C     		ldr	r4, .L297+96
 2431 014e 2278     		ldrb	r2, [r4]
 2432 0150 012A     		cmp	r2, #1
 2433 0152 06D8     		bhi	.L263
 890:.\fun.c       **** 	            {
 891:.\fun.c       **** 	                lvxinbaojingcnt++;
 2434              		.loc 1 891 0 is_stmt 1
 2435 0154 0132     		add	r2, r2, #1
 892:.\fun.c       **** 	                BUZfkg=3;
 2436              		.loc 1 892 0
 2437 0156 1C4B     		ldr	r3, .L297+100
 891:.\fun.c       **** 	                lvxinbaojingcnt++;
 2438              		.loc 1 891 0
 2439 0158 2270     		strb	r2, [r4]
 2440              		.loc 1 892 0
 2441 015a 0320     		mov	r0, #3
 893:.\fun.c       **** 	                shuibumanfig=1;
 2442              		.loc 1 893 0
 2443 015c 0124     		mov	r4, #1
 892:.\fun.c       **** 	                BUZfkg=3;
 2444              		.loc 1 892 0
 2445 015e 1870     		strb	r0, [r3]
 2446              		.loc 1 893 0
 2447 0160 0C70     		strb	r4, [r1]
 2448              	.L263:
 894:.\fun.c       **** 	            }
 895:.\fun.c       **** 	            
 896:.\fun.c       **** 	            
 897:.\fun.c       **** 	        }
 898:.\fun.c       **** 	        
 899:.\fun.c       **** 	     
 900:.\fun.c       **** 	    }        
 901:.\fun.c       ****           
 902:.\fun.c       **** 
 903:.\fun.c       **** 
 904:.\fun.c       **** 
 905:.\fun.c       **** }
 2449              		.loc 1 905 0
 2450              		@ sp needed for prologue
 2451 0162 10BD     		pop	{r4, pc}
 2452              	.L298:
 2453              		.align	2
 2454              	.L297:
 2455 0164 00000000 		.word	LianXuJiShi
 2456 0168 3F190100 		.word	71999
 2457 016c 00000000 		.word	Error_Data
 2458 0170 F0900000 		.word	37104
 2459 0174 00000000 		.word	DYWDfig1
 2460 0178 00000000 		.word	DYWDcnt1
 2461 017c B80B0000 		.word	3000
 2462 0180 00000000 		.word	DYWDfig
 2463 0184 00000000 		.word	Switch_Data
 2464 0188 00000000 		.word	WorkFlag
 2465 018c 00000000 		.word	DYWDcnt
 2466 0190 00000000 		.word	GYfig1
ARM GAS  C:\Users\ZHANGM~1\AppData\Local\Temp\cccEtK9g.s 			page 62


 2467 0194 00000000 		.word	GYcnt1
 2468 0198 00000000 		.word	shuibumanfig
 2469 019c 00000000 		.word	GYfig
 2470 01a0 00000000 		.word	waterfullfig
 2471 01a4 00000000 		.word	GYcnt
 2472 01a8 00000000 		.word	gyfullcnt
 2473 01ac 00000000 		.word	SPercent
 2474 01b0 00000000 		.word	HPercent
 2475 01b4 00000000 		.word	JPercent
 2476 01b8 00000000 		.word	KPercent
 2477 01bc 00000000 		.word	LPercent
 2478 01c0 00000000 		.word	MPercent
 2479 01c4 00000000 		.word	lvxinbaojingcnt
 2480 01c8 00000000 		.word	BUZfkg
 2481              		.cfi_endproc
 2482              	.LFE39:
 2483              		.size	queshui_alm, .-queshui_alm
 2484              		.section	.text.jixing,"ax",%progbits
 2485              		.align	1
 2486              		.global	jixing
 2487              		.code	16
 2488              		.thumb_func
 2489              		.type	jixing, %function
 2490              	jixing:
 2491              	.LFB40:
 906:.\fun.c       ****    
 907:.\fun.c       ****         
 908:.\fun.c       ****     
 909:.\fun.c       **** 
 910:.\fun.c       ****    
 911:.\fun.c       ****     
 912:.\fun.c       ****     
 913:.\fun.c       ****     
 914:.\fun.c       ****     
 915:.\fun.c       ****     
 916:.\fun.c       ****     
 917:.\fun.c       ****     
 918:.\fun.c       ****     
 919:.\fun.c       ****     
 920:.\fun.c       ****     
 921:.\fun.c       ****     
 922:.\fun.c       ****     
 923:.\fun.c       ****    
 924:.\fun.c       ****  
 925:.\fun.c       **** 
 926:.\fun.c       ****  
 927:.\fun.c       ****         
 928:.\fun.c       ****         
 929:.\fun.c       ****     
 930:.\fun.c       **** 
 931:.\fun.c       ****     
 932:.\fun.c       **** void jixing(void)//判断机型函数
 933:.\fun.c       **** {
 2492              		.loc 1 933 0
 2493              		.cfi_startproc
 2494 0000 00B5     		push	{lr}
 2495              	.LCFI7:
ARM GAS  C:\Users\ZHANGM~1\AppData\Local\Temp\cccEtK9g.s 			page 63


 2496              		.cfi_def_cfa_offset 4
 2497              		.cfi_offset 14, -4
 934:.\fun.c       ****     //jixingnumber=Read_jixingnumber() ;读机型号 
 935:.\fun.c       ****     switch(jixingnumber)
 2498              		.loc 1 935 0
 2499 0002 0C4B     		ldr	r3, .L308
 2500 0004 1878     		ldrb	r0, [r3]
 2501 0006 0138     		sub	r0, r0, #1
 2502 0008 0528     		cmp	r0, #5
 2503 000a 11D8     		bhi	.L299
 2504 000c 0A49     		ldr	r1, .L308+4
 2505 000e 0B4A     		ldr	r2, .L308+8
 2506 0010 FFF7FEFF 		bl	__gnu_thumb1_case_uqi
 2507              	.L307:
 2508 0014 03       		.byte	(.L301-.L307)/2
 2509 0015 05       		.byte	(.L302-.L307)/2
 2510 0016 07       		.byte	(.L303-.L307)/2
 2511 0017 09       		.byte	(.L304-.L307)/2
 2512 0018 0B       		.byte	(.L305-.L307)/2
 2513 0019 0D       		.byte	(.L306-.L307)/2
 2514              		.align	1
 2515              	.L301:
 936:.\fun.c       ****     {
 937:.\fun.c       ****         case 1:
 938:.\fun.c       ****             LedPannelBuf[S_CON] =0xffffe001;//如果为1号机型则 1号机型点亮
 2516              		.loc 1 938 0
 2517 001a 0A60     		str	r2, [r1]
 939:.\fun.c       ****                     break;
 2518              		.loc 1 939 0
 2519 001c 08E0     		b	.L299
 2520              	.L302:
 940:.\fun.c       ****         case 2:
 941:.\fun.c       ****             LedPannelBuf[H_CON] =0xffffe001;//如果为1号机型则 1号机型点亮
 2521              		.loc 1 941 0
 2522 001e 4A60     		str	r2, [r1, #4]
 942:.\fun.c       ****                     break;
 2523              		.loc 1 942 0
 2524 0020 06E0     		b	.L299
 2525              	.L303:
 943:.\fun.c       ****         case 3:
 944:.\fun.c       ****             LedPannelBuf[J_CON] =0xffffe001;//如果为1号机型则 1号机型点亮
 2526              		.loc 1 944 0
 2527 0022 8A60     		str	r2, [r1, #8]
 945:.\fun.c       ****                     break;
 2528              		.loc 1 945 0
 2529 0024 04E0     		b	.L299
 2530              	.L304:
 946:.\fun.c       ****         case 4:
 947:.\fun.c       ****             LedPannelBuf[K_CON] =0xffffe001;//如果为1号机型则 1号机型点亮
 2531              		.loc 1 947 0
 2532 0026 CA60     		str	r2, [r1, #12]
 948:.\fun.c       ****                     break;
 2533              		.loc 1 948 0
 2534 0028 02E0     		b	.L299
 2535              	.L305:
 949:.\fun.c       ****         case 5:
 950:.\fun.c       ****             LedPannelBuf[L_CON] =0xffffe001;//如果为1号机型则 1号机型点亮
ARM GAS  C:\Users\ZHANGM~1\AppData\Local\Temp\cccEtK9g.s 			page 64


 2536              		.loc 1 950 0
 2537 002a 0A61     		str	r2, [r1, #16]
 951:.\fun.c       ****                     break;
 2538              		.loc 1 951 0
 2539 002c 00E0     		b	.L299
 2540              	.L306:
 952:.\fun.c       ****         case 6:
 953:.\fun.c       ****             LedPannelBuf[M_CON] =0xffffe001;//如果为1号机型则 1号机型点亮
 2541              		.loc 1 953 0
 2542 002e 4A61     		str	r2, [r1, #20]
 2543              	.L299:
 954:.\fun.c       ****                     break;
 955:.\fun.c       ****                     
 956:.\fun.c       ****         break;
 957:.\fun.c       ****     } 
 958:.\fun.c       **** }   
 2544              		.loc 1 958 0
 2545              		@ sp needed for prologue
 2546 0030 00BD     		pop	{pc}
 2547              	.L309:
 2548 0032 C046     		.align	2
 2549              	.L308:
 2550 0034 00000000 		.word	jixingnumber
 2551 0038 00000000 		.word	LedPannelBuf
 2552 003c 01E0FFFF 		.word	-8191
 2553              		.cfi_endproc
 2554              	.LFE40:
 2555              		.size	jixing, .-jixing
 2556              		.section	.text.init,"ax",%progbits
 2557              		.align	1
 2558              		.global	init
 2559              		.code	16
 2560              		.thumb_func
 2561              		.type	init, %function
 2562              	init:
 2563              	.LFB41:
 959:.\fun.c       **** 
 960:.\fun.c       **** void init(void)
 961:.\fun.c       **** {  
 2564              		.loc 1 961 0
 2565              		.cfi_startproc
 2566 0000 00B5     		push	{lr}
 2567              	.LCFI8:
 2568              		.cfi_def_cfa_offset 4
 2569              		.cfi_offset 14, -4
 962:.\fun.c       ****     //jixingnumber=3;
 963:.\fun.c       ****     zijiandisplayfig=0;//上电首先进入自检
 2570              		.loc 1 963 0
 2571 0002 1D4B     		ldr	r3, .L313
 2572 0004 0022     		mov	r2, #0
 964:.\fun.c       ****     WorkFlag.zijiansta=1;
 2573              		.loc 1 964 0
 2574 0006 1D48     		ldr	r0, .L313+4
 963:.\fun.c       ****     zijiandisplayfig=0;//上电首先进入自检
 2575              		.loc 1 963 0
 2576 0008 1A70     		strb	r2, [r3]
 2577              		.loc 1 964 0
ARM GAS  C:\Users\ZHANGM~1\AppData\Local\Temp\cccEtK9g.s 			page 65


 2578 000a C178     		ldrb	r1, [r0, #3]
 965:.\fun.c       ****     WorkFlag.shoucibysta=1;
 2579              		.loc 1 965 0
 2580 000c 0322     		mov	r2, #3
 2581 000e 0A43     		orr	r2, r1
 966:.\fun.c       ****     switch(jixingnumber)
 2582              		.loc 1 966 0
 2583 0010 1B4B     		ldr	r3, .L313+8
 965:.\fun.c       ****     WorkFlag.shoucibysta=1;
 2584              		.loc 1 965 0
 2585 0012 C270     		strb	r2, [r0, #3]
 2586              		.loc 1 966 0
 2587 0014 1978     		ldrb	r1, [r3]
 2588 0016 0139     		sub	r1, r1, #1
 2589 0018 0229     		cmp	r1, #2
 2590 001a 26D8     		bhi	.L311
 967:.\fun.c       **** 	    {
 968:.\fun.c       **** 	    case 1:
 969:.\fun.c       **** 		    SP=240;
 970:.\fun.c       **** 		    HP=320;
 971:.\fun.c       **** 		    JP=2160;
 972:.\fun.c       **** 		    KP=2160;
 973:.\fun.c       **** 		    LP=2160;
 974:.\fun.c       **** 		    MP=540;
 975:.\fun.c       **** 		    SP_N=288;
 976:.\fun.c       **** 		    HP_N=384;
 977:.\fun.c       **** 		    JP_N=2592;
 978:.\fun.c       **** 		    KP_N=2592;
 979:.\fun.c       **** 		    LP_N=2592;
 980:.\fun.c       **** 		    MP_N=648;
 981:.\fun.c       **** 	    case 2:
 982:.\fun.c       **** 	    	SP=240;
 983:.\fun.c       **** 		    HP=320;
 984:.\fun.c       **** 		    JP=2160;
 985:.\fun.c       **** 		    KP=2160;
 986:.\fun.c       **** 		    LP=2160;
 987:.\fun.c       **** 		    MP=540;
 988:.\fun.c       **** 		    SP_N=288;
 989:.\fun.c       **** 		    HP_N=384;
 990:.\fun.c       **** 		    JP_N=2592;
 991:.\fun.c       **** 		    KP_N=2592;
 992:.\fun.c       **** 		    LP_N=2592;
 993:.\fun.c       **** 		    MP_N=648;
 994:.\fun.c       **** 		  case 3:
 995:.\fun.c       **** 	    	SP=240;
 2591              		.loc 1 995 0
 2592 001c 194B     		ldr	r3, .L313+12
 2593 001e F022     		mov	r2, #240
 2594 0020 1A80     		strh	r2, [r3]
 996:.\fun.c       **** 		    HP=320;
 2595              		.loc 1 996 0
 2596 0022 A021     		mov	r1, #160
 2597 0024 184B     		ldr	r3, .L313+16
 2598 0026 4A00     		lsl	r2, r1, #1
 2599 0028 1A80     		strh	r2, [r3]
 997:.\fun.c       **** 		    JP=2160;
 2600              		.loc 1 997 0
ARM GAS  C:\Users\ZHANGM~1\AppData\Local\Temp\cccEtK9g.s 			page 66


 2601 002a 8721     		mov	r1, #135
 2602 002c 174B     		ldr	r3, .L313+20
 2603 002e 0A01     		lsl	r2, r1, #4
 2604 0030 1A80     		strh	r2, [r3]
 998:.\fun.c       **** 		    KP=2160;
 2605              		.loc 1 998 0
 2606 0032 1749     		ldr	r1, .L313+24
 999:.\fun.c       **** 		    LP=2160;
 2607              		.loc 1 999 0
 2608 0034 174B     		ldr	r3, .L313+28
 998:.\fun.c       **** 		    KP=2160;
 2609              		.loc 1 998 0
 2610 0036 0A80     		strh	r2, [r1]
 2611              		.loc 1 999 0
 2612 0038 1A80     		strh	r2, [r3]
1000:.\fun.c       **** 		    MP=540;
 2613              		.loc 1 1000 0
 2614 003a 8722     		mov	r2, #135
 2615 003c 164B     		ldr	r3, .L313+32
 2616 003e 9100     		lsl	r1, r2, #2
 2617 0040 1980     		strh	r1, [r3]
1001:.\fun.c       **** 		    SP_N=288;
 2618              		.loc 1 1001 0
 2619 0042 9022     		mov	r2, #144
 2620 0044 154B     		ldr	r3, .L313+36
 2621 0046 5100     		lsl	r1, r2, #1
 2622 0048 1980     		strh	r1, [r3]
1002:.\fun.c       **** 		    HP_N=384;
 2623              		.loc 1 1002 0
 2624 004a C022     		mov	r2, #192
 2625 004c 144B     		ldr	r3, .L313+40
 2626 004e 5100     		lsl	r1, r2, #1
 2627 0050 1980     		strh	r1, [r3]
1003:.\fun.c       **** 		    JP_N=2592;
 2628              		.loc 1 1003 0
 2629 0052 A222     		mov	r2, #162
 2630 0054 1349     		ldr	r1, .L313+44
 2631 0056 1301     		lsl	r3, r2, #4
 2632 0058 0B80     		strh	r3, [r1]
1004:.\fun.c       **** 		    KP_N=2592;
 2633              		.loc 1 1004 0
 2634 005a 134A     		ldr	r2, .L313+48
1005:.\fun.c       **** 		    LP_N=2592;
 2635              		.loc 1 1005 0
 2636 005c 1349     		ldr	r1, .L313+52
1004:.\fun.c       **** 		    KP_N=2592;
 2637              		.loc 1 1004 0
 2638 005e 1380     		strh	r3, [r2]
 2639              		.loc 1 1005 0
 2640 0060 0B80     		strh	r3, [r1]
1006:.\fun.c       **** 		    MP_N=648;
 2641              		.loc 1 1006 0
 2642 0062 A223     		mov	r3, #162
 2643 0064 1249     		ldr	r1, .L313+56
 2644 0066 9A00     		lsl	r2, r3, #2
 2645 0068 0A80     		strh	r2, [r1]
 2646              	.L311:
ARM GAS  C:\Users\ZHANGM~1\AppData\Local\Temp\cccEtK9g.s 			page 67


1007:.\fun.c       **** 		  }
1008:.\fun.c       ****     WorkFlag.nowater = 1;
 2647              		.loc 1 1008 0
 2648 006a 0378     		ldrb	r3, [r0]
1009:.\fun.c       ****     WorkFlag.shoudongbystabak=0;
 2649              		.loc 1 1009 0
 2650 006c 0222     		mov	r2, #2
 2651 006e 1343     		orr	r3, r2
 2652 0070 7F21     		mov	r1, #127
 2653 0072 0B40     		and	r3, r1
 2654 0074 0370     		strb	r3, [r0]
1010:.\fun.c       **** }
 2655              		.loc 1 1010 0
 2656              		@ sp needed for prologue
 2657 0076 00BD     		pop	{pc}
 2658              	.L314:
 2659              		.align	2
 2660              	.L313:
 2661 0078 00000000 		.word	zijiandisplayfig
 2662 007c 00000000 		.word	WorkFlag
 2663 0080 00000000 		.word	jixingnumber
 2664 0084 00000000 		.word	SP
 2665 0088 00000000 		.word	HP
 2666 008c 00000000 		.word	JP
 2667 0090 00000000 		.word	KP
 2668 0094 00000000 		.word	LP
 2669 0098 00000000 		.word	MP
 2670 009c 00000000 		.word	SP_N
 2671 00a0 00000000 		.word	HP_N
 2672 00a4 00000000 		.word	JP_N
 2673 00a8 00000000 		.word	KP_N
 2674 00ac 00000000 		.word	LP_N
 2675 00b0 00000000 		.word	MP_N
 2676              		.cfi_endproc
 2677              	.LFE41:
 2678              		.size	init, .-init
 2679              		.section	.text.key,"ax",%progbits
 2680              		.align	1
 2681              		.global	key
 2682              		.code	16
 2683              		.thumb_func
 2684              		.type	key, %function
 2685              	key:
 2686              	.LFB42:
1011:.\fun.c       **** 
1012:.\fun.c       **** void key(void)
1013:.\fun.c       **** {
 2687              		.loc 1 1013 0
 2688              		.cfi_startproc
 2689 0000 F8B5     		push	{r3, r4, r5, r6, r7, lr}
 2690              	.LCFI9:
 2691              		.cfi_def_cfa_offset 24
 2692              		.cfi_offset 3, -24
 2693              		.cfi_offset 4, -20
 2694              		.cfi_offset 5, -16
 2695              		.cfi_offset 6, -12
 2696              		.cfi_offset 7, -8
ARM GAS  C:\Users\ZHANGM~1\AppData\Local\Temp\cccEtK9g.s 			page 68


 2697              		.cfi_offset 14, -4
1014:.\fun.c       ****       
1015:.\fun.c       ****     if(WorkFlag.quyuxzsta)//区域选择状态******************************************
 2698              		.loc 1 1015 0
 2699 0002 C44C     		ldr	r4, .L504
 2700 0004 1021     		mov	r1, #16
 2701 0006 2278     		ldrb	r2, [r4]
 2702 0008 C34D     		ldr	r5, .L504+4
 2703 000a 0A42     		tst	r2, r1
 2704 000c 21D0     		beq	.L317
1016:.\fun.c       ****     {
1017:.\fun.c       ****         
1018:.\fun.c       ****        if(NBstandcnt<TIMER30S) 
 2705              		.loc 1 1018 0
 2706 000e C34B     		ldr	r3, .L504+8
 2707 0010 C348     		ldr	r0, .L504+12
 2708 0012 1E88     		ldrh	r6, [r3]
 2709 0014 8642     		cmp	r6, r0
 2710 0016 18D8     		bhi	.L318
1019:.\fun.c       ****         {
1020:.\fun.c       ****         
1021:.\fun.c       ****             if((BtnData1 & (1 << BTN_NB))&&(!(BtnData2 & (1 << BTN_NB))))
 2711              		.loc 1 1021 0
 2712 0018 2978     		ldrb	r1, [r5]
 2713 001a 0822     		mov	r2, #8
 2714 001c 1142     		tst	r1, r2
 2715 001e 18D0     		beq	.L317
 2716              		.loc 1 1021 0 is_stmt 0 discriminator 1
 2717 0020 C04E     		ldr	r6, .L504+16
 2718 0022 3078     		ldrb	r0, [r6]
 2719 0024 0240     		and	r2, r0
 2720 0026 14D1     		bne	.L317
1022:.\fun.c       ****             {
1023:.\fun.c       ****                 NBstandcnt=0;
 2721              		.loc 1 1023 0 is_stmt 1
 2722 0028 1A80     		strh	r2, [r3]
1024:.\fun.c       ****                 BUZfkg=1;
1025:.\fun.c       ****                // WorkFlag.quyuxzsta = 0;
1026:.\fun.c       ****                 NBfig^=0x01;
 2723              		.loc 1 1026 0
 2724 002a BF4A     		ldr	r2, .L504+20
1024:.\fun.c       ****                 BUZfkg=1;
 2725              		.loc 1 1024 0
 2726 002c BF4F     		ldr	r7, .L504+24
 2727              		.loc 1 1026 0
 2728 002e 1178     		ldrb	r1, [r2]
1024:.\fun.c       ****                 BUZfkg=1;
 2729              		.loc 1 1024 0
 2730 0030 0123     		mov	r3, #1
 2731 0032 3B70     		strb	r3, [r7]
 2732              		.loc 1 1026 0
 2733 0034 4B40     		eor	r3, r1
 2734 0036 1370     		strb	r3, [r2]
1027:.\fun.c       ****                 if(NBfig==0)
1028:.\fun.c       ****                 {
1029:.\fun.c       ****                     
1030:.\fun.c       ****                     NBmint=TIMER1MN; //如果是南方区域则计时时钟为TIMER1MN　南方的
ARM GAS  C:\Users\ZHANGM~1\AppData\Local\Temp\cccEtK9g.s 			page 69


 2735              		.loc 1 1030 0
 2736 0038 B426     		mov	r6, #180
1027:.\fun.c       ****                 if(NBfig==0)
 2737              		.loc 1 1027 0
 2738 003a 002B     		cmp	r3, #0
 2739 003c 02D0     		beq	.L501
1031:.\fun.c       ****                     //DisFlag.south=1;
1032:.\fun.c       ****                     //DisFlag.north=0;
1033:.\fun.c       ****                 }
1034:.\fun.c       ****                 else if(NBfig==1)
 2740              		.loc 1 1034 0
 2741 003e 012B     		cmp	r3, #1
 2742 0040 07D1     		bne	.L317
1035:.\fun.c       ****                 {
1036:.\fun.c       ****                     NBmint=TIMER1MB;//如果是北的话，为北方的一分钟
 2743              		.loc 1 1036 0
 2744 0042 9626     		mov	r6, #150
 2745              	.L501:
 2746 0044 B700     		lsl	r7, r6, #2
 2747 0046 BA4B     		ldr	r3, .L504+28
 2748 0048 02E0     		b	.L496
 2749              	.L318:
1037:.\fun.c       ****                     //DisFlag.south=0;
1038:.\fun.c       ****                    // DisFlag.north=1;
1039:.\fun.c       ****                 }
1040:.\fun.c       ****             } 
1041:.\fun.c       ****             
1042:.\fun.c       ****             
1043:.\fun.c       ****             
1044:.\fun.c       ****             
1045:.\fun.c       ****             
1046:.\fun.c       ****         } 
1047:.\fun.c       ****         else
1048:.\fun.c       ****         {
1049:.\fun.c       ****             WorkFlag.quyuxzsta=0;
 2750              		.loc 1 1049 0
 2751 004a 8A43     		bic	r2, r1
 2752 004c 2270     		strb	r2, [r4]
1050:.\fun.c       ****             NBstandcnt=0;
 2753              		.loc 1 1050 0
 2754 004e 0027     		mov	r7, #0
 2755              	.L496:
 2756 0050 1F80     		strh	r7, [r3]
 2757              	.L317:
1051:.\fun.c       ****         }
1052:.\fun.c       ****         
1053:.\fun.c       ****     }  
1054:.\fun.c       ****     if(WorkFlag.lvxingxzsta)//滤芯选择状态
 2758              		.loc 1 1054 0
 2759 0052 2078     		ldrb	r0, [r4]
 2760 0054 8006     		lsl	r0, r0, #26
 2761 0056 00D4     		bmi	.LCB2444
 2762 0058 98E1     		b	.L322	@long jump
 2763              	.LCB2444:
1055:.\fun.c       ****     {//滤芯选择状态********************************************************
1056:.\fun.c       ****            
1057:.\fun.c       ****             
ARM GAS  C:\Users\ZHANGM~1\AppData\Local\Temp\cccEtK9g.s 			page 70


1058:.\fun.c       ****         if(((BtnData1 & (1 << BTN_XZ))&&
 2764              		.loc 1 1058 0
 2765 005a 2B78     		ldrb	r3, [r5]
 2766 005c 0422     		mov	r2, #4
 2767 005e 191C     		mov	r1, r3
 2768 0060 1140     		and	r1, r2
 2769 0062 B44E     		ldr	r6, .L504+32
 2770 0064 B448     		ldr	r0, .L504+36
 2771 0066 03D0     		beq	.L323
1059:.\fun.c       ****            (BtnData2 & (1 << BTN_XZ)))||((BtnData1 & (1 << BTN_FW))&&(!(BtnData2 & (1 << BTN_FW))) 
 2772              		.loc 1 1059 0 discriminator 1
 2773 0068 AE4F     		ldr	r7, .L504+16
 2774 006a 3F78     		ldrb	r7, [r7]
1058:.\fun.c       ****         if(((BtnData1 & (1 << BTN_XZ))&&
 2775              		.loc 1 1058 0 discriminator 1
 2776 006c 1742     		tst	r7, r2
 2777 006e 06D1     		bne	.L324
 2778              	.L323:
 2779              		.loc 1 1059 0
 2780 0070 0222     		mov	r2, #2
 2781 0072 1342     		tst	r3, r2
 2782 0074 07D0     		beq	.L325
 2783              		.loc 1 1059 0 is_stmt 0 discriminator 1
 2784 0076 AB4F     		ldr	r7, .L504+16
 2785 0078 3F78     		ldrb	r7, [r7]
 2786 007a 1742     		tst	r7, r2
 2787 007c 03D1     		bne	.L325
 2788              	.L324:
1060:.\fun.c       ****         {
1061:.\fun.c       ****             LXXZstandcnt=0;
 2789              		.loc 1 1061 0 is_stmt 1
 2790 007e 0022     		mov	r2, #0
 2791 0080 3280     		strh	r2, [r6]
1062:.\fun.c       ****             lXXZcnt_fig=0;
 2792              		.loc 1 1062 0
 2793 0082 0270     		strb	r2, [r0]
 2794 0084 19E0     		b	.L326
 2795              	.L325:
1063:.\fun.c       ****         }
1064:.\fun.c       ****         else
1065:.\fun.c       ****         {     
1066:.\fun.c       ****             lXXZcnt_fig=1;
1067:.\fun.c       ****                            //此段程序为在滤芯选择状态下30秒内部操作则退去滤
1068:.\fun.c       ****             if(LXXZstandcnt>=300)
 2796              		.loc 1 1068 0
 2797 0086 3788     		ldrh	r7, [r6]
 2798 0088 A54E     		ldr	r6, .L504+12
1066:.\fun.c       ****             lXXZcnt_fig=1;
 2799              		.loc 1 1066 0
 2800 008a 0122     		mov	r2, #1
 2801 008c 0270     		strb	r2, [r0]
 2802              		.loc 1 1068 0
 2803 008e B742     		cmp	r7, r6
 2804 0090 13D9     		bls	.L326
1069:.\fun.c       ****             {
1070:.\fun.c       ****                 lXXZcnt_fig=0;
 2805              		.loc 1 1070 0
ARM GAS  C:\Users\ZHANGM~1\AppData\Local\Temp\cccEtK9g.s 			page 71


 2806 0092 0027     		mov	r7, #0
1071:.\fun.c       ****               
1072:.\fun.c       ****                 if(PressFlag.xzpressstart == 0)
 2807              		.loc 1 1072 0
 2808 0094 A94E     		ldr	r6, .L504+40
1070:.\fun.c       ****                 lXXZcnt_fig=0;
 2809              		.loc 1 1070 0
 2810 0096 0770     		strb	r7, [r0]
 2811              		.loc 1 1072 0
 2812 0098 3778     		ldrb	r7, [r6]
 2813 009a 381C     		mov	r0, r7
 2814 009c 1040     		and	r0, r2
 2815 009e 0CD1     		bne	.L326
1073:.\fun.c       ****                 {             
1074:.\fun.c       ****                
1075:.\fun.c       ****                     PressFlag.xzpressstart = 1;
 2816              		.loc 1 1075 0
 2817 00a0 1743     		orr	r7, r2
 2818 00a2 3770     		strb	r7, [r6]
1076:.\fun.c       ****                
1077:.\fun.c       ****                     WorkFlag.lvxingxzsta = 0;
 2819              		.loc 1 1077 0
 2820 00a4 2578     		ldrb	r5, [r4]
1078:.\fun.c       ****                     //WorkFlag.worksta = 1;
1079:.\fun.c       ****                     
1080:.\fun.c       ****                     WorkFlag.lxxz = 0;
 2821              		.loc 1 1080 0
 2822 00a6 A378     		ldrb	r3, [r4, #2]
1077:.\fun.c       ****                     WorkFlag.lvxingxzsta = 0;
 2823              		.loc 1 1077 0
 2824 00a8 2021     		mov	r1, #32
 2825              		.loc 1 1080 0
 2826 00aa 0426     		mov	r6, #4
1077:.\fun.c       ****                     WorkFlag.lvxingxzsta = 0;
 2827              		.loc 1 1077 0
 2828 00ac 8D43     		bic	r5, r1
 2829              		.loc 1 1080 0
 2830 00ae B343     		bic	r3, r6
1077:.\fun.c       ****                     WorkFlag.lvxingxzsta = 0;
 2831              		.loc 1 1077 0
 2832 00b0 2570     		strb	r5, [r4]
 2833              		.loc 1 1080 0
 2834 00b2 A370     		strb	r3, [r4, #2]
1081:.\fun.c       ****                     LvXinNum1 = 0;
 2835              		.loc 1 1081 0
 2836 00b4 A24C     		ldr	r4, .L504+44
 2837 00b6 2070     		strb	r0, [r4]
 2838 00b8 90E0     		b	.L503
 2839              	.L326:
 2840 00ba A24A     		ldr	r2, .L504+48
1082:.\fun.c       ****                     
1083:.\fun.c       ****                     DisFlag.sflash = 0;
1084:.\fun.c       ****                     DisFlag.hflash = 0;
1085:.\fun.c       ****                     DisFlag.jflash = 0;
1086:.\fun.c       ****                     DisFlag.kflash = 0;
1087:.\fun.c       ****                     DisFlag.lflash = 0;
1088:.\fun.c       ****                     DisFlag.mflash = 0;
ARM GAS  C:\Users\ZHANGM~1\AppData\Local\Temp\cccEtK9g.s 			page 72


1089:.\fun.c       ****                     
1090:.\fun.c       ****                     
1091:.\fun.c       ****                     return;
1092:.\fun.c       ****               
1093:.\fun.c       ****                 }
1094:.\fun.c       ****             }   
1095:.\fun.c       ****                 
1096:.\fun.c       ****                 
1097:.\fun.c       ****         }  
1098:.\fun.c       ****         if((BtnData1 & (1 << BTN_XZ))&&
 2841              		.loc 1 1098 0
 2842 00bc 0029     		cmp	r1, #0
 2843 00be 30D0     		beq	.L329
1099:.\fun.c       ****            (BtnData2 & (1 << BTN_XZ))&&
 2844              		.loc 1 1099 0 discriminator 1
 2845 00c0 9848     		ldr	r0, .L504+16
 2846 00c2 0426     		mov	r6, #4
 2847 00c4 0778     		ldrb	r7, [r0]
1098:.\fun.c       ****         if((BtnData1 & (1 << BTN_XZ))&&
 2848              		.loc 1 1098 0 discriminator 1
 2849 00c6 3742     		tst	r7, r6
 2850 00c8 2BD0     		beq	.L329
1100:.\fun.c       ****            (WorkFlag.lxfw == 1))
 2851              		.loc 1 1100 0
 2852 00ca A078     		ldrb	r0, [r4, #2]
1099:.\fun.c       ****            (BtnData2 & (1 << BTN_XZ))&&
 2853              		.loc 1 1099 0
 2854 00cc 0827     		mov	r7, #8
 2855 00ce 3842     		tst	r0, r7
 2856 00d0 27D0     		beq	.L329
1101:.\fun.c       ****         {
1102:.\fun.c       ****             
1103:.\fun.c       ****             if(XzPressCnt > TIMER5S)
 2857              		.loc 1 1103 0
 2858 00d2 1178     		ldrb	r1, [r2]
 2859 00d4 3229     		cmp	r1, #50
 2860 00d6 04D8     		bhi	.L330
 2861              	.L333:
1104:.\fun.c       ****             {
1105:.\fun.c       ****                 if(PressFlag.xzpressstart == 0)
1106:.\fun.c       ****                 {             
1107:.\fun.c       ****                
1108:.\fun.c       ****                     PressFlag.xzpressstart = 1;
1109:.\fun.c       ****                
1110:.\fun.c       ****                     WorkFlag.lvxingxzsta = 0;
1111:.\fun.c       ****                     //WorkFlag.worksta = 1;
1112:.\fun.c       ****                     
1113:.\fun.c       ****                     WorkFlag.lxxz = 0;
1114:.\fun.c       ****                     LvXinNum1 = 0;
1115:.\fun.c       ****                     
1116:.\fun.c       ****                     DisFlag.sflash = 0;
1117:.\fun.c       ****                     DisFlag.hflash = 0;
1118:.\fun.c       ****                     DisFlag.jflash = 0;
1119:.\fun.c       ****                     DisFlag.kflash = 0;
1120:.\fun.c       ****                     DisFlag.lflash = 0;
1121:.\fun.c       ****                     DisFlag.mflash = 0;
1122:.\fun.c       ****                     
ARM GAS  C:\Users\ZHANGM~1\AppData\Local\Temp\cccEtK9g.s 			page 73


1123:.\fun.c       ****                     
1124:.\fun.c       ****                     return;
1125:.\fun.c       ****                 }
1126:.\fun.c       ****             }
1127:.\fun.c       ****         }else
1128:.\fun.c       ****         {
1129:.\fun.c       ****             PressFlag.xzpressstart = 0;
1130:.\fun.c       ****             XzPressCnt = 0;
1131:.\fun.c       ****            // LXXZstandcnt=0;
1132:.\fun.c       ****         }
1133:.\fun.c       ****         
1134:.\fun.c       ****             //短按，滤芯选择
1135:.\fun.c       ****         if((BtnData1&0x04)&&
 2862              		.loc 1 1135 0
 2863 00d8 924E     		ldr	r6, .L504+16
 2864 00da 3178     		ldrb	r1, [r6]
 2865 00dc 0029     		cmp	r1, #0
 2866 00de 2AD0     		beq	.L331
 2867 00e0 41E0     		b	.L334
 2868              	.L330:
1105:.\fun.c       ****                 if(PressFlag.xzpressstart == 0)
 2869              		.loc 1 1105 0
 2870 00e2 964F     		ldr	r7, .L504+40
 2871 00e4 3A78     		ldrb	r2, [r7]
 2872 00e6 9446     		mov	ip, r2
 2873 00e8 6146     		mov	r1, ip
 2874 00ea 0122     		mov	r2, #1
 2875 00ec 1140     		and	r1, r2
 2876 00ee F3D1     		bne	.L333
1108:.\fun.c       ****                     PressFlag.xzpressstart = 1;
 2877              		.loc 1 1108 0
 2878 00f0 6346     		mov	r3, ip
 2879 00f2 1343     		orr	r3, r2
 2880 00f4 3B70     		strb	r3, [r7]
1110:.\fun.c       ****                     WorkFlag.lvxingxzsta = 0;
 2881              		.loc 1 1110 0
 2882 00f6 2778     		ldrb	r7, [r4]
 2883 00f8 2025     		mov	r5, #32
1113:.\fun.c       ****                     WorkFlag.lxxz = 0;
 2884              		.loc 1 1113 0
 2885 00fa B043     		bic	r0, r6
1110:.\fun.c       ****                     WorkFlag.lvxingxzsta = 0;
 2886              		.loc 1 1110 0
 2887 00fc AF43     		bic	r7, r5
 2888 00fe 2770     		strb	r7, [r4]
1113:.\fun.c       ****                     WorkFlag.lxxz = 0;
 2889              		.loc 1 1113 0
 2890 0100 A070     		strb	r0, [r4, #2]
1114:.\fun.c       ****                     LvXinNum1 = 0;
 2891              		.loc 1 1114 0
 2892 0102 8F4C     		ldr	r4, .L504+44
1116:.\fun.c       ****                     DisFlag.sflash = 0;
 2893              		.loc 1 1116 0
 2894 0104 904B     		ldr	r3, .L504+52
1114:.\fun.c       ****                     LvXinNum1 = 0;
 2895              		.loc 1 1114 0
 2896 0106 2170     		strb	r1, [r4]
ARM GAS  C:\Users\ZHANGM~1\AppData\Local\Temp\cccEtK9g.s 			page 74


1116:.\fun.c       ****                     DisFlag.sflash = 0;
 2897              		.loc 1 1116 0
 2898 0108 5978     		ldrb	r1, [r3, #1]
1117:.\fun.c       ****                     DisFlag.hflash = 0;
 2899              		.loc 1 1117 0
 2900 010a 0820     		mov	r0, #8
1118:.\fun.c       ****                     DisFlag.jflash = 0;
 2901              		.loc 1 1118 0
 2902 010c 1026     		mov	r6, #16
1117:.\fun.c       ****                     DisFlag.hflash = 0;
 2903              		.loc 1 1117 0
 2904 010e 8143     		bic	r1, r0
1118:.\fun.c       ****                     DisFlag.jflash = 0;
 2905              		.loc 1 1118 0
 2906 0110 B143     		bic	r1, r6
1119:.\fun.c       ****                     DisFlag.kflash = 0;
 2907              		.loc 1 1119 0
 2908 0112 A943     		bic	r1, r5
1120:.\fun.c       ****                     DisFlag.lflash = 0;
 2909              		.loc 1 1120 0
 2910 0114 3F26     		mov	r6, #63
 2911              	.L502:
 2912 0116 3140     		and	r1, r6
 2913 0118 5970     		strb	r1, [r3, #1]
1121:.\fun.c       ****                     DisFlag.mflash = 0;
 2914              		.loc 1 1121 0
 2915 011a 9978     		ldrb	r1, [r3, #2]
 2916 011c 9143     		bic	r1, r2
 2917 011e 0A1C     		mov	r2, r1
 2918 0120 A7E1     		b	.L500
 2919              	.L329:
1129:.\fun.c       ****             PressFlag.xzpressstart = 0;
 2920              		.loc 1 1129 0
 2921 0122 8648     		ldr	r0, .L504+40
 2922 0124 0127     		mov	r7, #1
 2923 0126 0678     		ldrb	r6, [r0]
 2924 0128 BE43     		bic	r6, r7
 2925 012a 0670     		strb	r6, [r0]
1130:.\fun.c       ****             XzPressCnt = 0;
 2926              		.loc 1 1130 0
 2927 012c 0020     		mov	r0, #0
 2928 012e 1070     		strb	r0, [r2]
 2929              		.loc 1 1135 0
 2930 0130 8142     		cmp	r1, r0
 2931 0132 18D0     		beq	.L334
 2932 0134 D0E7     		b	.L333
 2933              	.L331:
1136:.\fun.c       ****            (BtnData2 == 0))
1137:.\fun.c       ****         {
1138:.\fun.c       ****             
1139:.\fun.c       ****             LXXZOUT_fig=0;
1140:.\fun.c       ****             BUZfkg=1;
 2934              		.loc 1 1140 0
 2935 0136 7D4A     		ldr	r2, .L504+24
 2936 0138 0127     		mov	r7, #1
 2937 013a 1770     		strb	r7, [r2]
1139:.\fun.c       ****             LXXZOUT_fig=0;
ARM GAS  C:\Users\ZHANGM~1\AppData\Local\Temp\cccEtK9g.s 			page 75


 2938              		.loc 1 1139 0
 2939 013c 8348     		ldr	r0, .L504+56
1141:.\fun.c       ****             LvXinNum = LvXinNum1;
 2940              		.loc 1 1141 0
 2941 013e 804A     		ldr	r2, .L504+44
1139:.\fun.c       ****             LXXZOUT_fig=0;
 2942              		.loc 1 1139 0
 2943 0140 0170     		strb	r1, [r0]
 2944              		.loc 1 1141 0
 2945 0142 834E     		ldr	r6, .L504+60
 2946 0144 1078     		ldrb	r0, [r2]
1142:.\fun.c       ****             WorkFlag.lxxz = 1;
 2947              		.loc 1 1142 0
 2948 0146 0427     		mov	r7, #4
1141:.\fun.c       ****             LvXinNum = LvXinNum1;
 2949              		.loc 1 1141 0
 2950 0148 3070     		strb	r0, [r6]
 2951              		.loc 1 1142 0
 2952 014a A678     		ldrb	r6, [r4, #2]
1143:.\fun.c       ****             
1144:.\fun.c       ****             LvXinNum1++;
 2953              		.loc 1 1144 0
 2954 014c 0130     		add	r0, r0, #1
1142:.\fun.c       ****             WorkFlag.lxxz = 1;
 2955              		.loc 1 1142 0
 2956 014e 3E43     		orr	r6, r7
 2957              		.loc 1 1144 0
 2958 0150 C0B2     		uxtb	r0, r0
1142:.\fun.c       ****             WorkFlag.lxxz = 1;
 2959              		.loc 1 1142 0
 2960 0152 A670     		strb	r6, [r4, #2]
1145:.\fun.c       ****              
1146:.\fun.c       ****             if(LvXinNum1 >= 6)
 2961              		.loc 1 1146 0
 2962 0154 0528     		cmp	r0, #5
 2963 0156 01D8     		bhi	.L335
1144:.\fun.c       ****             LvXinNum1++;
 2964              		.loc 1 1144 0
 2965 0158 1070     		strb	r0, [r2]
 2966 015a 00E0     		b	.L336
 2967              	.L335:
1147:.\fun.c       ****                 LvXinNum1 = 0;
 2968              		.loc 1 1147 0
 2969 015c 1170     		strb	r1, [r2]
 2970              	.L336:
1148:.\fun.c       ****            
1149:.\fun.c       ****             WorkFlag.lxfw = 1;
 2971              		.loc 1 1149 0
 2972 015e A278     		ldrb	r2, [r4, #2]
 2973 0160 0821     		mov	r1, #8
 2974 0162 0A43     		orr	r2, r1
 2975 0164 A270     		strb	r2, [r4, #2]
 2976              	.L334:
1150:.\fun.c       ****         }
1151:.\fun.c       ****         //短按，滤芯复位
1152:.\fun.c       ****         if((BtnData1 & (1 << BTN_FW))&&(!(BtnData2 & (1 << BTN_FW))))
 2977              		.loc 1 1152 0
ARM GAS  C:\Users\ZHANGM~1\AppData\Local\Temp\cccEtK9g.s 			page 76


 2978 0166 0226     		mov	r6, #2
 2979 0168 3342     		tst	r3, r6
 2980 016a 43D0     		beq	.L337
 2981              		.loc 1 1152 0 is_stmt 0 discriminator 1
 2982 016c 6D4B     		ldr	r3, .L504+16
 2983 016e 1F78     		ldrb	r7, [r3]
 2984 0170 3E40     		and	r6, r7
 2985 0172 3FD1     		bne	.L337
1153:.\fun.c       ****         {
1154:.\fun.c       ****               BUZfkg=1;  
 2986              		.loc 1 1154 0 is_stmt 1
 2987 0174 6D48     		ldr	r0, .L504+24
 2988 0176 0123     		mov	r3, #1
 2989 0178 0370     		strb	r3, [r0]
1155:.\fun.c       ****                 if(WorkFlag.yanshista==0)
 2990              		.loc 1 1155 0
 2991 017a 6278     		ldrb	r2, [r4, #1]
 2992 017c 7449     		ldr	r1, .L504+60
 2993 017e 1340     		and	r3, r2
 2994 0180 0ED1     		bne	.L338
1156:.\fun.c       **** 	                {
1157:.\fun.c       **** 	                    LvxinJishi[LvXinNum] = 0;
 2995              		.loc 1 1157 0
 2996 0182 0E78     		ldrb	r6, [r1]
 2997 0184 7348     		ldr	r0, .L504+64
 2998 0186 7100     		lsl	r1, r6, #1
1158:.\fun.c       **** 	                    LvxinJishi[LvXinNum+6]=0;
 2999              		.loc 1 1158 0
 3000 0188 0636     		add	r6, r6, #6
1159:.\fun.c       **** 	                    Filter_Changed_Num[LvXinNum]+=1;
 3001              		.loc 1 1159 0
 3002 018a 734F     		ldr	r7, .L504+68
1158:.\fun.c       **** 	                    LvxinJishi[LvXinNum+6]=0;
 3003              		.loc 1 1158 0
 3004 018c 7200     		lsl	r2, r6, #1
1157:.\fun.c       **** 	                    LvxinJishi[LvXinNum] = 0;
 3005              		.loc 1 1157 0
 3006 018e 0B52     		strh	r3, [r1, r0]
1158:.\fun.c       **** 	                    LvxinJishi[LvXinNum+6]=0;
 3007              		.loc 1 1158 0
 3008 0190 1352     		strh	r3, [r2, r0]
 3009              		.loc 1 1159 0
 3010 0192 CB5B     		ldrh	r3, [r1, r7]
 3011 0194 0133     		add	r3, r3, #1
 3012 0196 CB53     		strh	r3, [r1, r7]
1160:.\fun.c       **** 	                    Filter_Changed_Num[LvXinNum+6]+=1;
 3013              		.loc 1 1160 0
 3014 0198 D65B     		ldrh	r6, [r2, r7]
 3015 019a 0136     		add	r6, r6, #1
 3016 019c D653     		strh	r6, [r2, r7]
 3017 019e 02E0     		b	.L339
 3018              	.L338:
1161:.\fun.c       **** 	                }
1162:.\fun.c       ****                 else
1163:.\fun.c       **** 	                {
1164:.\fun.c       **** 	                    templvxin[LvXinNum]=0;  
 3019              		.loc 1 1164 0
ARM GAS  C:\Users\ZHANGM~1\AppData\Local\Temp\cccEtK9g.s 			page 77


 3020 01a0 0F78     		ldrb	r7, [r1]
 3021 01a2 6E4B     		ldr	r3, .L504+72
 3022 01a4 DE55     		strb	r6, [r3, r7]
 3023              	.L339:
1165:.\fun.c       **** 	                }
1166:.\fun.c       ****                 LXXZOUT_fig++;
 3024              		.loc 1 1166 0
 3025 01a6 6948     		ldr	r0, .L504+56
 3026 01a8 0178     		ldrb	r1, [r0]
 3027 01aa 0131     		add	r1, r1, #1
 3028 01ac CAB2     		uxtb	r2, r1
 3029 01ae 0270     		strb	r2, [r0]
1167:.\fun.c       ****                 if( LXXZOUT_fig>=2)//如果在某一个滤芯复位时复位键按了2此 则退出
 3030              		.loc 1 1167 0
 3031 01b0 012A     		cmp	r2, #1
 3032 01b2 1BD9     		bls	.L340
1168:.\fun.c       ****                 {
1169:.\fun.c       ****                     LXXZOUT_fig=0;
 3033              		.loc 1 1169 0
 3034 01b4 0027     		mov	r7, #0
1170:.\fun.c       ****                     if(PressFlag.xzpressstart == 0)
 3035              		.loc 1 1170 0
 3036 01b6 614E     		ldr	r6, .L504+40
1169:.\fun.c       ****                     LXXZOUT_fig=0;
 3037              		.loc 1 1169 0
 3038 01b8 0770     		strb	r7, [r0]
 3039              		.loc 1 1170 0
 3040 01ba 3078     		ldrb	r0, [r6]
 3041 01bc 0122     		mov	r2, #1
 3042 01be 031C     		mov	r3, r0
 3043 01c0 1340     		and	r3, r2
 3044 01c2 13D1     		bne	.L340
1171:.\fun.c       ****                     {             
1172:.\fun.c       ****                         PressFlag.xzpressstart = 1;            
 3045              		.loc 1 1172 0
 3046 01c4 1043     		orr	r0, r2
 3047 01c6 3070     		strb	r0, [r6]
1173:.\fun.c       ****                         WorkFlag.lvxingxzsta = 0;
 3048              		.loc 1 1173 0
 3049 01c8 2778     		ldrb	r7, [r4]
1174:.\fun.c       ****                         WorkFlag.lxxz = 0;
 3050              		.loc 1 1174 0
 3051 01ca A678     		ldrb	r6, [r4, #2]
1173:.\fun.c       ****                         WorkFlag.lvxingxzsta = 0;
 3052              		.loc 1 1173 0
 3053 01cc 2021     		mov	r1, #32
 3054              		.loc 1 1174 0
 3055 01ce 0425     		mov	r5, #4
1173:.\fun.c       ****                         WorkFlag.lvxingxzsta = 0;
 3056              		.loc 1 1173 0
 3057 01d0 8F43     		bic	r7, r1
 3058              		.loc 1 1174 0
 3059 01d2 AE43     		bic	r6, r5
1173:.\fun.c       ****                         WorkFlag.lvxingxzsta = 0;
 3060              		.loc 1 1173 0
 3061 01d4 2770     		strb	r7, [r4]
 3062              		.loc 1 1174 0
ARM GAS  C:\Users\ZHANGM~1\AppData\Local\Temp\cccEtK9g.s 			page 78


 3063 01d6 A670     		strb	r6, [r4, #2]
1175:.\fun.c       ****                         LvXinNum1 = 0;           
 3064              		.loc 1 1175 0
 3065 01d8 594C     		ldr	r4, .L504+44
 3066 01da 2370     		strb	r3, [r4]
 3067              	.L503:
1176:.\fun.c       ****                         DisFlag.sflash = 0;
 3068              		.loc 1 1176 0
 3069 01dc 5A4B     		ldr	r3, .L504+52
1177:.\fun.c       ****                         DisFlag.hflash = 0;
1178:.\fun.c       ****                         DisFlag.jflash = 0;
 3070              		.loc 1 1178 0
 3071 01de E720     		mov	r0, #231
1176:.\fun.c       ****                         DisFlag.sflash = 0;
 3072              		.loc 1 1176 0
 3073 01e0 5F78     		ldrb	r7, [r3, #1]
1179:.\fun.c       ****                         DisFlag.kflash = 0;
1180:.\fun.c       ****                         DisFlag.lflash = 0;
 3074              		.loc 1 1180 0
 3075 01e2 2726     		mov	r6, #39
1178:.\fun.c       ****                         DisFlag.jflash = 0;
 3076              		.loc 1 1178 0
 3077 01e4 3840     		and	r0, r7
1179:.\fun.c       ****                         DisFlag.kflash = 0;
 3078              		.loc 1 1179 0
 3079 01e6 8843     		bic	r0, r1
 3080 01e8 011C     		mov	r1, r0
 3081 01ea 94E7     		b	.L502
 3082              	.L340:
1181:.\fun.c       ****                         DisFlag.mflash = 0;
1182:.\fun.c       ****                         return;
1183:.\fun.c       ****                     }
1184:.\fun.c       ****                 }
1185:.\fun.c       **** 
1186:.\fun.c       ****                 WorkFlag.lxfw = 1;
 3083              		.loc 1 1186 0
 3084 01ec A178     		ldrb	r1, [r4, #2]
 3085 01ee 0827     		mov	r7, #8
 3086 01f0 3943     		orr	r1, r7
 3087 01f2 A170     		strb	r1, [r4, #2]
 3088              	.L337:
1187:.\fun.c       ****         }
1188:.\fun.c       ****         if(WorkFlag.lxxz == 1)
 3089              		.loc 1 1188 0
 3090 01f4 A678     		ldrb	r6, [r4, #2]
 3091 01f6 7007     		lsl	r0, r6, #29
 3092 01f8 00D4     		bmi	.LCB2753
 3093 01fa C7E0     		b	.L322	@long jump
 3094              	.LCB2753:
1189:.\fun.c       ****         {
1190:.\fun.c       ****             switch(LvXinNum)
 3095              		.loc 1 1190 0
 3096 01fc 5448     		ldr	r0, .L504+60
 3097 01fe 524B     		ldr	r3, .L504+52
 3098 0200 0078     		ldrb	r0, [r0]
 3099 0202 0528     		cmp	r0, #5
 3100 0204 00D9     		bls	.LCB2758
ARM GAS  C:\Users\ZHANGM~1\AppData\Local\Temp\cccEtK9g.s 			page 79


 3101 0206 B9E0     		b	.L342	@long jump
 3102              	.LCB2758:
 3103 0208 0821     		mov	r1, #8
 3104 020a 544A     		ldr	r2, .L504+72
 3105 020c FFF7FEFF 		bl	__gnu_thumb1_case_uqi
 3106              	.L349:
 3107 0210 03       		.byte	(.L343-.L349)/2
 3108 0211 14       		.byte	(.L344-.L349)/2
 3109 0212 2A       		.byte	(.L345-.L349)/2
 3110 0213 41       		.byte	(.L346-.L349)/2
 3111 0214 58       		.byte	(.L347-.L349)/2
 3112 0215 6E       		.byte	(.L348-.L349)/2
 3113              		.align	1
 3114              	.L343:
1191:.\fun.c       ****             {
1192:.\fun.c       ****                 case 0:
1193:.\fun.c       ****                     DisFlag.sflash = 1;
 3115              		.loc 1 1193 0
 3116 0216 5F78     		ldrb	r7, [r3, #1]
1194:.\fun.c       ****                     DisFlag.hflash = 0;
1195:.\fun.c       ****                     DisFlag.jflash = 0;
1196:.\fun.c       ****                     DisFlag.kflash = 0;
1197:.\fun.c       ****                     DisFlag.lflash = 0;
 3117              		.loc 1 1197 0
 3118 0218 0F26     		mov	r6, #15
1194:.\fun.c       ****                     DisFlag.hflash = 0;
 3119              		.loc 1 1194 0
 3120 021a 3943     		orr	r1, r7
1198:.\fun.c       ****                     DisFlag.mflash = 0;
 3121              		.loc 1 1198 0
 3122 021c 9878     		ldrb	r0, [r3, #2]
1197:.\fun.c       ****                     DisFlag.lflash = 0;
 3123              		.loc 1 1197 0
 3124 021e 3140     		and	r1, r6
 3125 0220 5970     		strb	r1, [r3, #1]
 3126              		.loc 1 1198 0
 3127 0222 0121     		mov	r1, #1
 3128 0224 8843     		bic	r0, r1
 3129 0226 9870     		strb	r0, [r3, #2]
1199:.\fun.c       ****                     if(WorkFlag.yanshista==1)
 3130              		.loc 1 1199 0
 3131 0228 6378     		ldrb	r3, [r4, #1]
 3132 022a 0B42     		tst	r3, r1
 3133 022c 01D0     		beq	.L350
1200:.\fun.c       ****                     	jixingnumber=1;
 3134              		.loc 1 1200 0
 3135 022e 4C4F     		ldr	r7, .L504+76
 3136 0230 3970     		strb	r1, [r7]
 3137              	.L350:
1201:.\fun.c       ****                     temps=templvxin[0];
 3138              		.loc 1 1201 0
 3139 0232 1278     		ldrb	r2, [r2]
 3140 0234 4B4F     		ldr	r7, .L504+80
 3141 0236 13E0     		b	.L497
 3142              	.L344:
1202:.\fun.c       ****                     
1203:.\fun.c       ****                     break;
ARM GAS  C:\Users\ZHANGM~1\AppData\Local\Temp\cccEtK9g.s 			page 80


1204:.\fun.c       ****                 case 1:
1205:.\fun.c       ****                     DisFlag.sflash = 0;
 3143              		.loc 1 1205 0
 3144 0238 5F78     		ldrb	r7, [r3, #1]
1206:.\fun.c       ****                     DisFlag.hflash = 1;
1207:.\fun.c       ****                     DisFlag.jflash = 0;
 3145              		.loc 1 1207 0
 3146 023a 1026     		mov	r6, #16
1206:.\fun.c       ****                     DisFlag.hflash = 1;
 3147              		.loc 1 1206 0
 3148 023c 8F43     		bic	r7, r1
 3149 023e 391C     		mov	r1, r7
 3150              		.loc 1 1207 0
 3151 0240 3143     		orr	r1, r6
1208:.\fun.c       ****                     DisFlag.kflash = 0;
1209:.\fun.c       ****                     DisFlag.lflash = 0;
 3152              		.loc 1 1209 0
 3153 0242 1F20     		mov	r0, #31
1210:.\fun.c       ****                     DisFlag.mflash = 0;
 3154              		.loc 1 1210 0
 3155 0244 9F78     		ldrb	r7, [r3, #2]
1209:.\fun.c       ****                     DisFlag.lflash = 0;
 3156              		.loc 1 1209 0
 3157 0246 0140     		and	r1, r0
 3158 0248 5970     		strb	r1, [r3, #1]
 3159              		.loc 1 1210 0
 3160 024a 0121     		mov	r1, #1
 3161 024c 8F43     		bic	r7, r1
 3162 024e 9F70     		strb	r7, [r3, #2]
1211:.\fun.c       ****                     if(WorkFlag.yanshista==1)
 3163              		.loc 1 1211 0
 3164 0250 6378     		ldrb	r3, [r4, #1]
 3165 0252 0B42     		tst	r3, r1
 3166 0254 02D0     		beq	.L351
1212:.\fun.c       ****                     	jixingnumber=2;
 3167              		.loc 1 1212 0
 3168 0256 4248     		ldr	r0, .L504+76
 3169 0258 0226     		mov	r6, #2
 3170 025a 0670     		strb	r6, [r0]
 3171              	.L351:
1213:.\fun.c       ****                     temph=templvxin[1];
 3172              		.loc 1 1213 0
 3173 025c 5278     		ldrb	r2, [r2, #1]
 3174 025e 424F     		ldr	r7, .L504+84
 3175              	.L497:
 3176 0260 3A70     		strb	r2, [r7]
1214:.\fun.c       ****                     break;
 3177              		.loc 1 1214 0
 3178 0262 93E0     		b	.L322
 3179              	.L345:
1215:.\fun.c       ****                 case 2:
1216:.\fun.c       ****                     DisFlag.sflash = 0;
 3180              		.loc 1 1216 0
 3181 0264 5878     		ldrb	r0, [r3, #1]
1217:.\fun.c       ****                     DisFlag.hflash = 0;
1218:.\fun.c       ****                     DisFlag.jflash = 1;
 3182              		.loc 1 1218 0
ARM GAS  C:\Users\ZHANGM~1\AppData\Local\Temp\cccEtK9g.s 			page 81


 3183 0266 1027     		mov	r7, #16
1217:.\fun.c       ****                     DisFlag.hflash = 0;
 3184              		.loc 1 1217 0
 3185 0268 8843     		bic	r0, r1
 3186 026a 011C     		mov	r1, r0
 3187              		.loc 1 1218 0
 3188 026c B943     		bic	r1, r7
1219:.\fun.c       ****                     DisFlag.kflash = 0;
 3189              		.loc 1 1219 0
 3190 026e 2026     		mov	r6, #32
 3191 0270 3143     		orr	r1, r6
1220:.\fun.c       ****                     DisFlag.lflash = 0;
 3192              		.loc 1 1220 0
 3193 0272 3F20     		mov	r0, #63
1221:.\fun.c       ****                     DisFlag.mflash = 0;
 3194              		.loc 1 1221 0
 3195 0274 9F78     		ldrb	r7, [r3, #2]
1220:.\fun.c       ****                     DisFlag.lflash = 0;
 3196              		.loc 1 1220 0
 3197 0276 0140     		and	r1, r0
 3198 0278 5970     		strb	r1, [r3, #1]
 3199              		.loc 1 1221 0
 3200 027a 0121     		mov	r1, #1
 3201 027c 8F43     		bic	r7, r1
 3202 027e 9F70     		strb	r7, [r3, #2]
1222:.\fun.c       ****                     if(WorkFlag.yanshista==1)
 3203              		.loc 1 1222 0
 3204 0280 6378     		ldrb	r3, [r4, #1]
 3205 0282 0B42     		tst	r3, r1
 3206 0284 02D0     		beq	.L352
1223:.\fun.c       ****                     	jixingnumber=3;
 3207              		.loc 1 1223 0
 3208 0286 3648     		ldr	r0, .L504+76
 3209 0288 0326     		mov	r6, #3
 3210 028a 0670     		strb	r6, [r0]
 3211              	.L352:
1224:.\fun.c       ****                     tempj=templvxin[2];
 3212              		.loc 1 1224 0
 3213 028c 9278     		ldrb	r2, [r2, #2]
 3214 028e 374F     		ldr	r7, .L504+88
 3215 0290 E6E7     		b	.L497
 3216              	.L346:
1225:.\fun.c       ****                     break;
1226:.\fun.c       ****                 case 3:
1227:.\fun.c       ****                     DisFlag.sflash = 0;
 3217              		.loc 1 1227 0
 3218 0292 5E78     		ldrb	r6, [r3, #1]
1228:.\fun.c       ****                     DisFlag.hflash = 0;
1229:.\fun.c       ****                     DisFlag.jflash = 0;
1230:.\fun.c       ****                     DisFlag.kflash = 1;
 3219              		.loc 1 1230 0
 3220 0294 CF20     		mov	r0, #207
1228:.\fun.c       ****                     DisFlag.hflash = 0;
 3221              		.loc 1 1228 0
 3222 0296 8E43     		bic	r6, r1
 3223 0298 311C     		mov	r1, r6
 3224              		.loc 1 1230 0
ARM GAS  C:\Users\ZHANGM~1\AppData\Local\Temp\cccEtK9g.s 			page 82


 3225 029a 0140     		and	r1, r0
1231:.\fun.c       ****                     DisFlag.lflash = 0;
 3226              		.loc 1 1231 0
 3227 029c 4027     		mov	r7, #64
 3228 029e 3943     		orr	r1, r7
 3229 02a0 7F26     		mov	r6, #127
1232:.\fun.c       ****                     DisFlag.mflash = 0;
 3230              		.loc 1 1232 0
 3231 02a2 9878     		ldrb	r0, [r3, #2]
1231:.\fun.c       ****                     DisFlag.lflash = 0;
 3232              		.loc 1 1231 0
 3233 02a4 3140     		and	r1, r6
 3234 02a6 5970     		strb	r1, [r3, #1]
 3235              		.loc 1 1232 0
 3236 02a8 0121     		mov	r1, #1
 3237 02aa 8843     		bic	r0, r1
 3238 02ac 9870     		strb	r0, [r3, #2]
1233:.\fun.c       ****                     if(WorkFlag.yanshista==1)
 3239              		.loc 1 1233 0
 3240 02ae 6378     		ldrb	r3, [r4, #1]
 3241 02b0 0B42     		tst	r3, r1
 3242 02b2 02D0     		beq	.L353
1234:.\fun.c       ****                     	jixingnumber=4;
 3243              		.loc 1 1234 0
 3244 02b4 2A4E     		ldr	r6, .L504+76
 3245 02b6 0427     		mov	r7, #4
 3246 02b8 3770     		strb	r7, [r6]
 3247              	.L353:
1235:.\fun.c       ****                     tempk=templvxin[3];
 3248              		.loc 1 1235 0
 3249 02ba D278     		ldrb	r2, [r2, #3]
 3250 02bc 2C4F     		ldr	r7, .L504+92
 3251 02be CFE7     		b	.L497
 3252              	.L347:
1236:.\fun.c       ****                     break;
1237:.\fun.c       ****                 case 4:
1238:.\fun.c       ****                     DisFlag.sflash = 0;
 3253              		.loc 1 1238 0
 3254 02c0 5F78     		ldrb	r7, [r3, #1]
1239:.\fun.c       ****                     DisFlag.hflash = 0;
1240:.\fun.c       ****                     DisFlag.jflash = 0;
1241:.\fun.c       ****                     DisFlag.kflash = 0;
1242:.\fun.c       ****                     DisFlag.lflash = 1;
 3255              		.loc 1 1242 0
 3256 02c2 8F20     		mov	r0, #143
1239:.\fun.c       ****                     DisFlag.hflash = 0;
 3257              		.loc 1 1239 0
 3258 02c4 8F43     		bic	r7, r1
 3259 02c6 3E1C     		mov	r6, r7
 3260              		.loc 1 1242 0
 3261 02c8 8021     		mov	r1, #128
 3262 02ca 0640     		and	r6, r0
 3263 02cc 4F42     		neg	r7, r1
 3264 02ce 3E43     		orr	r6, r7
 3265 02d0 5E70     		strb	r6, [r3, #1]
1243:.\fun.c       ****                     DisFlag.mflash = 0;
 3266              		.loc 1 1243 0
ARM GAS  C:\Users\ZHANGM~1\AppData\Local\Temp\cccEtK9g.s 			page 83


 3267 02d2 9E78     		ldrb	r6, [r3, #2]
 3268 02d4 0120     		mov	r0, #1
 3269 02d6 8643     		bic	r6, r0
 3270 02d8 9E70     		strb	r6, [r3, #2]
1244:.\fun.c       ****                     if(WorkFlag.yanshista==1)
 3271              		.loc 1 1244 0
 3272 02da 6378     		ldrb	r3, [r4, #1]
 3273 02dc 0342     		tst	r3, r0
 3274 02de 02D0     		beq	.L354
1245:.\fun.c       ****                     	jixingnumber=5;
 3275              		.loc 1 1245 0
 3276 02e0 1F4F     		ldr	r7, .L504+76
 3277 02e2 0521     		mov	r1, #5
 3278 02e4 3970     		strb	r1, [r7]
 3279              	.L354:
1246:.\fun.c       ****                     templ=templvxin[4];
 3280              		.loc 1 1246 0
 3281 02e6 1279     		ldrb	r2, [r2, #4]
 3282 02e8 224F     		ldr	r7, .L504+96
 3283 02ea B9E7     		b	.L497
 3284              	.L348:
1247:.\fun.c       ****                     break;
1248:.\fun.c       ****                 case 5:
1249:.\fun.c       ****                     DisFlag.sflash = 0;
 3285              		.loc 1 1249 0
 3286 02ec 5E78     		ldrb	r6, [r3, #1]
1250:.\fun.c       ****                     DisFlag.hflash = 0;
1251:.\fun.c       ****                     DisFlag.jflash = 0;
1252:.\fun.c       ****                     DisFlag.kflash = 0;
1253:.\fun.c       ****                     DisFlag.lflash = 0;
1254:.\fun.c       ****                     DisFlag.mflash = 1;
 3287              		.loc 1 1254 0
 3288 02ee 9F78     		ldrb	r7, [r3, #2]
1250:.\fun.c       ****                     DisFlag.hflash = 0;
 3289              		.loc 1 1250 0
 3290 02f0 8E43     		bic	r6, r1
 3291 02f2 311C     		mov	r1, r6
1253:.\fun.c       ****                     DisFlag.lflash = 0;
 3292              		.loc 1 1253 0
 3293 02f4 0F20     		mov	r0, #15
 3294              		.loc 1 1254 0
 3295 02f6 0126     		mov	r6, #1
1253:.\fun.c       ****                     DisFlag.lflash = 0;
 3296              		.loc 1 1253 0
 3297 02f8 0140     		and	r1, r0
 3298              		.loc 1 1254 0
 3299 02fa 3743     		orr	r7, r6
1253:.\fun.c       ****                     DisFlag.lflash = 0;
 3300              		.loc 1 1253 0
 3301 02fc 5970     		strb	r1, [r3, #1]
 3302              		.loc 1 1254 0
 3303 02fe 9F70     		strb	r7, [r3, #2]
1255:.\fun.c       ****                     if(WorkFlag.yanshista==1)
 3304              		.loc 1 1255 0
 3305 0300 6378     		ldrb	r3, [r4, #1]
 3306 0302 3342     		tst	r3, r6
 3307 0304 02D0     		beq	.L355
ARM GAS  C:\Users\ZHANGM~1\AppData\Local\Temp\cccEtK9g.s 			page 84


1256:.\fun.c       ****                     	jixingnumber=6;
 3308              		.loc 1 1256 0
 3309 0306 1648     		ldr	r0, .L504+76
 3310 0308 0621     		mov	r1, #6
 3311 030a 0170     		strb	r1, [r0]
 3312              	.L355:
1257:.\fun.c       ****                     tempm=templvxin[5];
 3313              		.loc 1 1257 0
 3314 030c 5279     		ldrb	r2, [r2, #5]
 3315 030e 1A4F     		ldr	r7, .L504+100
 3316 0310 A6E7     		b	.L497
 3317              	.L505:
 3318 0312 C046     		.align	2
 3319              	.L504:
 3320 0314 00000000 		.word	WorkFlag
 3321 0318 00000000 		.word	BtnData1
 3322 031c 00000000 		.word	NBstandcnt
 3323 0320 2B010000 		.word	299
 3324 0324 00000000 		.word	BtnData2
 3325 0328 00000000 		.word	NBfig
 3326 032c 00000000 		.word	BUZfkg
 3327 0330 00000000 		.word	NBmint
 3328 0334 00000000 		.word	LXXZstandcnt
 3329 0338 00000000 		.word	lXXZcnt_fig
 3330 033c 00000000 		.word	PressFlag
 3331 0340 00000000 		.word	LvXinNum1
 3332 0344 00000000 		.word	XzPressCnt
 3333 0348 00000000 		.word	DisFlag
 3334 034c 00000000 		.word	LXXZOUT_fig
 3335 0350 00000000 		.word	LvXinNum
 3336 0354 00000000 		.word	LvxinJishi
 3337 0358 00000000 		.word	Filter_Changed_Num
 3338 035c 00000000 		.word	templvxin
 3339 0360 00000000 		.word	jixingnumber
 3340 0364 00000000 		.word	temps
 3341 0368 00000000 		.word	temph
 3342 036c 00000000 		.word	tempj
 3343 0370 00000000 		.word	tempk
 3344 0374 00000000 		.word	templ
 3345 0378 00000000 		.word	tempm
 3346              	.L342:
1258:.\fun.c       ****                     break;
1259:.\fun.c       ****                 default:
1260:.\fun.c       ****                     DisFlag.sflash = 0;
 3347              		.loc 1 1260 0
 3348 037c 5E78     		ldrb	r6, [r3, #1]
1261:.\fun.c       ****                     DisFlag.hflash = 0;
1262:.\fun.c       ****                     DisFlag.jflash = 0;
1263:.\fun.c       ****                     DisFlag.kflash = 0;
1264:.\fun.c       ****                     DisFlag.lflash = 0;
1265:.\fun.c       ****                     DisFlag.mflash = 0;
 3349              		.loc 1 1265 0
 3350 037e 9878     		ldrb	r0, [r3, #2]
1264:.\fun.c       ****                     DisFlag.lflash = 0;
 3351              		.loc 1 1264 0
 3352 0380 0721     		mov	r1, #7
 3353              		.loc 1 1265 0
ARM GAS  C:\Users\ZHANGM~1\AppData\Local\Temp\cccEtK9g.s 			page 85


 3354 0382 0122     		mov	r2, #1
1264:.\fun.c       ****                     DisFlag.lflash = 0;
 3355              		.loc 1 1264 0
 3356 0384 3140     		and	r1, r6
 3357              		.loc 1 1265 0
 3358 0386 9043     		bic	r0, r2
1264:.\fun.c       ****                     DisFlag.lflash = 0;
 3359              		.loc 1 1264 0
 3360 0388 5970     		strb	r1, [r3, #1]
 3361              		.loc 1 1265 0
 3362 038a 9870     		strb	r0, [r3, #2]
 3363              	.L322:
1266:.\fun.c       ****                     break;
1267:.\fun.c       ****             }
1268:.\fun.c       ****      
1269:.\fun.c       ****         }
1270:.\fun.c       ****     
1271:.\fun.c       ****     } 
1272:.\fun.c       **** 
1273:.\fun.c       **** 
1274:.\fun.c       ****  
1275:.\fun.c       ****    /* //工作状态***************************************************************
1276:.\fun.c       ****   长按南北键*/
1277:.\fun.c       ****     if((BtnData1 & (1 << BTN_NB))&&(BtnData2 & (1 << BTN_NB)))
 3364              		.loc 1 1277 0
 3365 038c 2B78     		ldrb	r3, [r5]
 3366 038e 0827     		mov	r7, #8
 3367 0390 8D4E     		ldr	r6, .L506
 3368 0392 3B42     		tst	r3, r7
 3369 0394 1FD0     		beq	.L356
 3370              		.loc 1 1277 0 is_stmt 0 discriminator 1
 3371 0396 8D49     		ldr	r1, .L506+4
 3372 0398 0878     		ldrb	r0, [r1]
 3373 039a 3842     		tst	r0, r7
 3374 039c 1BD0     		beq	.L356
1278:.\fun.c       ****     {
1279:.\fun.c       ****         if((NbPressCnt > TIMER5S)&&(PowerOnOneHourCnt < TIMER1H ))    // TIMER1H 500 * 100ms 5S
 3375              		.loc 1 1279 0 is_stmt 1
 3376 039e 3678     		ldrb	r6, [r6]
 3377 03a0 322E     		cmp	r6, #50
 3378 03a2 1CD9     		bls	.L357
 3379              		.loc 1 1279 0 is_stmt 0 discriminator 1
 3380 03a4 8A49     		ldr	r1, .L506+8
 3381 03a6 8B4A     		ldr	r2, .L506+12
 3382 03a8 0868     		ldr	r0, [r1]
 3383 03aa 9042     		cmp	r0, r2
 3384 03ac 17D8     		bhi	.L357
1280:.\fun.c       ****        {
1281:.\fun.c       ****             if(NBPressStart == 0)
 3385              		.loc 1 1281 0 is_stmt 1
 3386 03ae 8A4F     		ldr	r7, .L506+16
 3387 03b0 3E78     		ldrb	r6, [r7]
 3388 03b2 002E     		cmp	r6, #0
 3389 03b4 13D1     		bne	.L357
1282:.\fun.c       ****             {
1283:.\fun.c       ****                 NBPressStart =1;
 3390              		.loc 1 1283 0
ARM GAS  C:\Users\ZHANGM~1\AppData\Local\Temp\cccEtK9g.s 			page 86


 3391 03b6 0122     		mov	r2, #1
 3392 03b8 3A70     		strb	r2, [r7]
1284:.\fun.c       ****                 WorkFlag.quyuxzsta = 1;
 3393              		.loc 1 1284 0
 3394 03ba 2178     		ldrb	r1, [r4]
 3395 03bc 1023     		mov	r3, #16
 3396 03be 1943     		orr	r1, r3
1285:.\fun.c       ****                 BUZfkg=1;
1286:.\fun.c       ****                 if(NBfig==1)
 3397              		.loc 1 1286 0
 3398 03c0 864D     		ldr	r5, .L506+20
1284:.\fun.c       ****                 WorkFlag.quyuxzsta = 1;
 3399              		.loc 1 1284 0
 3400 03c2 2170     		strb	r1, [r4]
 3401              		.loc 1 1286 0
 3402 03c4 2878     		ldrb	r0, [r5]
1285:.\fun.c       ****                 BUZfkg=1;
 3403              		.loc 1 1285 0
 3404 03c6 864C     		ldr	r4, .L506+24
 3405 03c8 2270     		strb	r2, [r4]
 3406              		.loc 1 1286 0
 3407 03ca 9042     		cmp	r0, r2
 3408 03cc 01D1     		bne	.L358
1287:.\fun.c       **** 									NBfig=0;                         
 3409              		.loc 1 1287 0
 3410 03ce 2E70     		strb	r6, [r5]
 3411 03d0 F8E0     		b	.L315
 3412              	.L358:
1288:.\fun.c       ****                 else
1289:.\fun.c       **** 									NBfig=1;                        
 3413              		.loc 1 1289 0
 3414 03d2 2A70     		strb	r2, [r5]
 3415 03d4 F6E0     		b	.L315
 3416              	.L356:
1290:.\fun.c       ****                return;
1291:.\fun.c       ****             }        
1292:.\fun.c       ****        }
1293:.\fun.c       ****     
1294:.\fun.c       ****     }
1295:.\fun.c       ****     else
1296:.\fun.c       ****     {       
1297:.\fun.c       ****         NBPressStart =0;
 3417              		.loc 1 1297 0
 3418 03d6 804F     		ldr	r7, .L506+16
 3419 03d8 0022     		mov	r2, #0
 3420 03da 3A70     		strb	r2, [r7]
1298:.\fun.c       ****         NbPressCnt = 0;
 3421              		.loc 1 1298 0
 3422 03dc 3270     		strb	r2, [r6]
 3423              	.L357:
1299:.\fun.c       ****     }
1300:.\fun.c       ****         //短按，手动保养键
1301:.\fun.c       ****     if((BtnData1 & (1 << BTN_SDBY))&&(!(BtnData2 & (1 << BTN_SDBY))))
 3424              		.loc 1 1301 0
 3425 03de 0120     		mov	r0, #1
 3426 03e0 0342     		tst	r3, r0
 3427 03e2 0AD0     		beq	.L359
ARM GAS  C:\Users\ZHANGM~1\AppData\Local\Temp\cccEtK9g.s 			page 87


 3428              		.loc 1 1301 0 is_stmt 0 discriminator 1
 3429 03e4 7949     		ldr	r1, .L506+4
 3430 03e6 0A78     		ldrb	r2, [r1]
 3431 03e8 0242     		tst	r2, r0
 3432 03ea 06D1     		bne	.L359
1302:.\fun.c       ****     {
1303:.\fun.c       ****         BUZfkg=1;
 3433              		.loc 1 1303 0 is_stmt 1
 3434 03ec 7C4F     		ldr	r7, .L506+24
 3435 03ee 3870     		strb	r0, [r7]
1304:.\fun.c       ****        WorkFlag.shoudongbystabak = 1;   
 3436              		.loc 1 1304 0
 3437 03f0 2678     		ldrb	r6, [r4]
 3438 03f2 8020     		mov	r0, #128
 3439 03f4 4142     		neg	r1, r0
 3440 03f6 3143     		orr	r1, r6
 3441 03f8 2170     		strb	r1, [r4]
 3442              	.L359:
1305:.\fun.c       ****     } 
1306:.\fun.c       **** 		/*
1307:.\fun.c       **** 		上电10S内同时按下选择键和复位键，持续到10S后进入商场演示状态
1308:.\fun.c       **** 		 */
1309:.\fun.c       ****     if(((WorkFlag.lxxzwf == 0)||(WorkFlag.lxxzwf == 2)))               
 3443              		.loc 1 1309 0
 3444 03fa A778     		ldrb	r7, [r4, #2]
 3445 03fc 6022     		mov	r2, #96
 3446 03fe 3A40     		and	r2, r7
 3447 0400 01D0     		beq	.L360
 3448              		.loc 1 1309 0 is_stmt 0 discriminator 1
 3449 0402 402A     		cmp	r2, #64
 3450 0404 3FD1     		bne	.L361
 3451              	.L360:
1310:.\fun.c       ****     {
1311:.\fun.c       ****         //判断是否有选择键和复位键同时按下
1312:.\fun.c       ****         if(((BtnData1 & (1 << BTN_XZ))&&(BtnData2 & (1 << BTN_XZ)))&&
 3452              		.loc 1 1312 0 is_stmt 1
 3453 0406 0420     		mov	r0, #4
 3454 0408 764F     		ldr	r7, .L506+28
 3455 040a 0342     		tst	r3, r0
 3456 040c 33D0     		beq	.L362
 3457              		.loc 1 1312 0 is_stmt 0 discriminator 1
 3458 040e 6F4E     		ldr	r6, .L506+4
 3459 0410 3178     		ldrb	r1, [r6]
 3460 0412 0142     		tst	r1, r0
 3461 0414 2FD0     		beq	.L362
1313:.\fun.c       ****            ((BtnData1 & (1 << BTN_FW))&&(BtnData2 & (1 << BTN_FW)))&&
 3462              		.loc 1 1313 0 is_stmt 1 discriminator 1
 3463 0416 0220     		mov	r0, #2
1312:.\fun.c       ****         if(((BtnData1 & (1 << BTN_XZ))&&(BtnData2 & (1 << BTN_XZ)))&&
 3464              		.loc 1 1312 0 discriminator 1
 3465 0418 0342     		tst	r3, r0
 3466 041a 0FD0     		beq	.L363
 3467              		.loc 1 1313 0
 3468 041c 0142     		tst	r1, r0
 3469 041e 0DD0     		beq	.L363
 3470              		.loc 1 1313 0 is_stmt 0 discriminator 1
 3471 0420 002A     		cmp	r2, #0
ARM GAS  C:\Users\ZHANGM~1\AppData\Local\Temp\cccEtK9g.s 			page 88


 3472 0422 0BD1     		bne	.L363
1314:.\fun.c       ****            (WorkFlag.lxxzwf == 0))
1315:.\fun.c       ****         {
1316:.\fun.c       ****             PressFlag.xzpressstart = 1;
 3473              		.loc 1 1316 0 is_stmt 1
 3474 0424 7049     		ldr	r1, .L506+32
 3475 0426 0126     		mov	r6, #1
 3476 0428 0B78     		ldrb	r3, [r1]
 3477 042a 3343     		orr	r3, r6
 3478 042c 0B70     		strb	r3, [r1]
1317:.\fun.c       ****             XzPressCnt = 0;
 3479              		.loc 1 1317 0
 3480 042e 3A70     		strb	r2, [r7]
1318:.\fun.c       ****             WorkFlag.lxxzwf = 1;    //标志置1
 3481              		.loc 1 1318 0
 3482 0430 A078     		ldrb	r0, [r4, #2]
 3483 0432 6022     		mov	r2, #96
 3484 0434 9043     		bic	r0, r2
 3485 0436 2021     		mov	r1, #32
 3486 0438 0843     		orr	r0, r1
 3487 043a A070     		strb	r0, [r4, #2]
 3488              	.L363:
1319:.\fun.c       ****         }        
1320:.\fun.c       ****         //长按选择键5S
1321:.\fun.c       ****         if((BtnData1 & (1 << BTN_XZ))&&(BtnData2 & (1 << BTN_XZ)))
1322:.\fun.c       ****         {
1323:.\fun.c       ****             if(XzPressCnt > TIMER5S)//debug
 3489              		.loc 1 1323 0
 3490 043c 3F78     		ldrb	r7, [r7]
 3491 043e 322F     		cmp	r7, #50
 3492 0440 5DD9     		bls	.L364
 3493              	.L381:
1324:.\fun.c       ****             {
1325:.\fun.c       ****                 if(PressFlag.xzpressstart == 0)
 3494              		.loc 1 1325 0
 3495 0442 694B     		ldr	r3, .L506+32
 3496 0444 0122     		mov	r2, #1
 3497 0446 1E78     		ldrb	r6, [r3]
 3498 0448 1642     		tst	r6, r2
 3499 044a 58D1     		bne	.L364
1326:.\fun.c       ****                 {
1327:.\fun.c       ****                     
1328:.\fun.c       ****                     PressFlag.xzpressstart = 1;
1329:.\fun.c       ****                     BUZfkg=1;
 3500              		.loc 1 1329 0
 3501 044c 644F     		ldr	r7, .L506+24
1328:.\fun.c       ****                     PressFlag.xzpressstart = 1;
 3502              		.loc 1 1328 0
 3503 044e 1643     		orr	r6, r2
 3504 0450 1E70     		strb	r6, [r3]
 3505              		.loc 1 1329 0
 3506 0452 3A70     		strb	r2, [r7]
1330:.\fun.c       ****                     WorkFlag.lvxingxzsta = 1;
 3507              		.loc 1 1330 0
 3508 0454 2678     		ldrb	r6, [r4]
 3509 0456 2021     		mov	r1, #32
 3510 0458 0E43     		orr	r6, r1
ARM GAS  C:\Users\ZHANGM~1\AppData\Local\Temp\cccEtK9g.s 			page 89


1331:.\fun.c       ****                     //WorkFlag.worksta = 0;
1332:.\fun.c       ****                     
1333:.\fun.c       ****                     DisFlag.sflash = 1;
 3511              		.loc 1 1333 0
 3512 045a 644B     		ldr	r3, .L506+36
1330:.\fun.c       ****                     WorkFlag.lvxingxzsta = 1;
 3513              		.loc 1 1330 0
 3514 045c 2670     		strb	r6, [r4]
 3515              		.loc 1 1333 0
 3516 045e 5C78     		ldrb	r4, [r3, #1]
1334:.\fun.c       ****                     DisFlag.hflash = 1;
1335:.\fun.c       ****                     DisFlag.jflash = 1;
 3517              		.loc 1 1335 0
 3518 0460 1825     		mov	r5, #24
 3519 0462 2543     		orr	r5, r4
1336:.\fun.c       ****                     DisFlag.kflash = 1;
1337:.\fun.c       ****                     DisFlag.lflash = 1;
 3520              		.loc 1 1337 0
 3521 0464 4020     		mov	r0, #64
1336:.\fun.c       ****                     DisFlag.kflash = 1;
 3522              		.loc 1 1336 0
 3523 0466 2943     		orr	r1, r5
 3524              		.loc 1 1337 0
 3525 0468 4742     		neg	r7, r0
1338:.\fun.c       ****                     DisFlag.mflash = 1;
 3526              		.loc 1 1338 0
 3527 046a 9E78     		ldrb	r6, [r3, #2]
1337:.\fun.c       ****                     DisFlag.lflash = 1;
 3528              		.loc 1 1337 0
 3529 046c 3943     		orr	r1, r7
 3530 046e 5970     		strb	r1, [r3, #1]
 3531              		.loc 1 1338 0
 3532 0470 3243     		orr	r2, r6
 3533              	.L500:
 3534 0472 9A70     		strb	r2, [r3, #2]
1339:.\fun.c       ****              
1340:.\fun.c       ****                    return;
 3535              		.loc 1 1340 0
 3536 0474 A6E0     		b	.L315
 3537              	.L362:
1341:.\fun.c       ****                 }
1342:.\fun.c       ****             }
1343:.\fun.c       ****         }else
1344:.\fun.c       ****         {
1345:.\fun.c       ****             PressFlag.xzpressstart = 0;
 3538              		.loc 1 1345 0
 3539 0476 5C4B     		ldr	r3, .L506+32
 3540 0478 0120     		mov	r0, #1
 3541 047a 1A78     		ldrb	r2, [r3]
1346:.\fun.c       ****             XzPressCnt = 0;
 3542              		.loc 1 1346 0
 3543 047c 0026     		mov	r6, #0
1345:.\fun.c       ****             PressFlag.xzpressstart = 0;
 3544              		.loc 1 1345 0
 3545 047e 8243     		bic	r2, r0
 3546 0480 1A70     		strb	r2, [r3]
 3547              		.loc 1 1346 0
ARM GAS  C:\Users\ZHANGM~1\AppData\Local\Temp\cccEtK9g.s 			page 90


 3548 0482 3E70     		strb	r6, [r7]
 3549 0484 3BE0     		b	.L364
 3550              	.L361:
1347:.\fun.c       ****         }
1348:.\fun.c       ****         
1349:.\fun.c       **** 
1350:.\fun.c       ****        
1351:.\fun.c       ****         
1352:.\fun.c       ****     
1353:.\fun.c       ****     }            
1354:.\fun.c       ****     else if(WorkFlag.lxxzwf == 1)
 3551              		.loc 1 1354 0
 3552 0486 202A     		cmp	r2, #32
 3553 0488 39D1     		bne	.L364
1355:.\fun.c       ****     {
1356:.\fun.c       ****        if(PowerOnCnt00 <TIMER10S)
 3554              		.loc 1 1356 0
 3555 048a 594E     		ldr	r6, .L506+40
 3556 048c 3088     		ldrh	r0, [r6]
 3557 048e 6328     		cmp	r0, #99
 3558 0490 1CD8     		bhi	.L366
1357:.\fun.c       ****         {        
1358:.\fun.c       ****             //判断选择键和复位键是否持续同时按下
1359:.\fun.c       ****             if(((BtnData1 & (1 << BTN_XZ))&&(BtnData2 & (1 << BTN_XZ)))&&
 3559              		.loc 1 1359 0
 3560 0492 0426     		mov	r6, #4
 3561 0494 574F     		ldr	r7, .L506+44
 3562 0496 3342     		tst	r3, r6
 3563 0498 0BD0     		beq	.L367
 3564              		.loc 1 1359 0 is_stmt 0 discriminator 1
 3565 049a 4C48     		ldr	r0, .L506+4
 3566 049c 0278     		ldrb	r2, [r0]
 3567 049e 3242     		tst	r2, r6
 3568 04a0 07D0     		beq	.L367
1360:.\fun.c       ****                ((BtnData1 & (1 << BTN_FW))&&(BtnData2 & (1 << BTN_FW))))
 3569              		.loc 1 1360 0 is_stmt 1 discriminator 1
 3570 04a2 0221     		mov	r1, #2
1359:.\fun.c       ****             if(((BtnData1 & (1 << BTN_XZ))&&(BtnData2 & (1 << BTN_XZ)))&&
 3571              		.loc 1 1359 0 discriminator 1
 3572 04a4 0B42     		tst	r3, r1
 3573 04a6 04D0     		beq	.L367
 3574              		.loc 1 1360 0
 3575 04a8 0A42     		tst	r2, r1
 3576 04aa 02D0     		beq	.L367
1361:.\fun.c       ****             {                 
1362:.\fun.c       ****                 yanshifig=1;                 
 3577              		.loc 1 1362 0
 3578 04ac 0123     		mov	r3, #1
 3579 04ae 3B70     		strb	r3, [r7]
 3580 04b0 25E0     		b	.L364
 3581              	.L367:
1363:.\fun.c       ****             }
1364:.\fun.c       ****             
1365:.\fun.c       ****             else
1366:.\fun.c       ****             {//否，其中一个键释放
1367:.\fun.c       ****                 WorkFlag.lxxzwf = 2;
 3582              		.loc 1 1367 0
ARM GAS  C:\Users\ZHANGM~1\AppData\Local\Temp\cccEtK9g.s 			page 91


 3583 04b2 A378     		ldrb	r3, [r4, #2]
 3584 04b4 6026     		mov	r6, #96
 3585 04b6 B343     		bic	r3, r6
 3586 04b8 4020     		mov	r0, #64
 3587 04ba 0343     		orr	r3, r0
1368:.\fun.c       ****                  yanshifig=0;
 3588              		.loc 1 1368 0
 3589 04bc 0022     		mov	r2, #0
1367:.\fun.c       ****                 WorkFlag.lxxzwf = 2;
 3590              		.loc 1 1367 0
 3591 04be A370     		strb	r3, [r4, #2]
 3592              		.loc 1 1368 0
 3593 04c0 3A70     		strb	r2, [r7]
1369:.\fun.c       ****                 WorkFlag.yanshista=0;   
 3594              		.loc 1 1369 0
 3595 04c2 6778     		ldrb	r7, [r4, #1]
 3596 04c4 0121     		mov	r1, #1
 3597 04c6 8F43     		bic	r7, r1
 3598 04c8 6770     		strb	r7, [r4, #1]
 3599 04ca 18E0     		b	.L364
 3600              	.L366:
1370:.\fun.c       ****             }
1371:.\fun.c       ****             
1372:.\fun.c       ****         } 
1373:.\fun.c       ****         
1374:.\fun.c       ****         else
1375:.\fun.c       ****         {
1376:.\fun.c       ****             
1377:.\fun.c       ****             CyDelayUs(1);  
 3601              		.loc 1 1377 0
 3602 04cc 0120     		mov	r0, #1
 3603 04ce FFF7FEFF 		bl	CyDelayUs
 3604              	.LVL38:
1378:.\fun.c       ****             if(((BtnData1 & (1 << BTN_XZ))&&(BtnData2 & (1 << BTN_XZ)))&&
 3605              		.loc 1 1378 0
 3606 04d2 2F78     		ldrb	r7, [r5]
 3607 04d4 0422     		mov	r2, #4
 3608 04d6 484B     		ldr	r3, .L506+48
 3609 04d8 1742     		tst	r7, r2
 3610 04da 0AD0     		beq	.L368
 3611              		.loc 1 1378 0 is_stmt 0 discriminator 1
 3612 04dc 3B49     		ldr	r1, .L506+4
 3613 04de 0E78     		ldrb	r6, [r1]
 3614 04e0 1642     		tst	r6, r2
 3615 04e2 06D0     		beq	.L368
1379:.\fun.c       ****                ((BtnData1 & (1 << BTN_FW))&&(BtnData2 & (1 << BTN_FW))))         
 3616              		.loc 1 1379 0 is_stmt 1 discriminator 1
 3617 04e4 0220     		mov	r0, #2
1378:.\fun.c       ****             if(((BtnData1 & (1 << BTN_XZ))&&(BtnData2 & (1 << BTN_XZ)))&&
 3618              		.loc 1 1378 0 discriminator 1
 3619 04e6 0742     		tst	r7, r0
 3620 04e8 03D0     		beq	.L368
 3621              		.loc 1 1379 0
 3622 04ea 0642     		tst	r6, r0
 3623 04ec 01D0     		beq	.L368
1380:.\fun.c       ****             {
1381:.\fun.c       ****                 fastfig=1;           
ARM GAS  C:\Users\ZHANGM~1\AppData\Local\Temp\cccEtK9g.s 			page 92


 3624              		.loc 1 1381 0
 3625 04ee 0121     		mov	r1, #1
 3626 04f0 04E0     		b	.L498
 3627              	.L368:
1382:.\fun.c       ****             }    
1383:.\fun.c       ****             else
1384:.\fun.c       ****             {
1385:.\fun.c       ****                  WorkFlag.lxxzwf = 0;
 3628              		.loc 1 1385 0
 3629 04f2 A778     		ldrb	r7, [r4, #2]
 3630 04f4 6022     		mov	r2, #96
 3631 04f6 9743     		bic	r7, r2
 3632 04f8 A770     		strb	r7, [r4, #2]
1386:.\fun.c       ****                   fastfig=0;       
 3633              		.loc 1 1386 0
 3634 04fa 0021     		mov	r1, #0
 3635              	.L498:
 3636 04fc 1970     		strb	r1, [r3]
 3637              	.L364:
1387:.\fun.c       ****             }
1388:.\fun.c       ****   
1389:.\fun.c       ****         }
1390:.\fun.c       ****         
1391:.\fun.c       ****         
1392:.\fun.c       **** 
1393:.\fun.c       ****     }
1394:.\fun.c       ****    
1395:.\fun.c       ****              
1396:.\fun.c       ****    //判断是否南北键和选择键被同时按下
1397:.\fun.c       **** 
1398:.\fun.c       ****     if(((BtnData1 & (1 << BTN_XZ))&&(BtnData2 & (1 << BTN_XZ)))&&
 3638              		.loc 1 1398 0
 3639 04fe 2878     		ldrb	r0, [r5]
 3640 0500 0427     		mov	r7, #4
 3641 0502 3E4B     		ldr	r3, .L506+52
 3642 0504 3842     		tst	r0, r7
 3643 0506 13D0     		beq	.L369
 3644              		.loc 1 1398 0 is_stmt 0 discriminator 1
 3645 0508 3049     		ldr	r1, .L506+4
 3646 050a 0E78     		ldrb	r6, [r1]
 3647 050c 3E42     		tst	r6, r7
 3648 050e 0FD0     		beq	.L369
1399:.\fun.c       ****        ((BtnData1 & (1 << BTN_NB))&&(BtnData2 & (1 << BTN_NB))))
 3649              		.loc 1 1399 0 is_stmt 1 discriminator 1
 3650 0510 0822     		mov	r2, #8
1398:.\fun.c       ****     if(((BtnData1 & (1 << BTN_XZ))&&(BtnData2 & (1 << BTN_XZ)))&&
 3651              		.loc 1 1398 0 discriminator 1
 3652 0512 1042     		tst	r0, r2
 3653 0514 0CD0     		beq	.L369
 3654              		.loc 1 1399 0
 3655 0516 1642     		tst	r6, r2
 3656 0518 0AD0     		beq	.L369
1400:.\fun.c       **** 		   {
1401:.\fun.c       **** 			   	if(WifiPressCnt >TIMER1S)
 3657              		.loc 1 1401 0
 3658 051a 1F78     		ldrb	r7, [r3]
 3659 051c 0A2F     		cmp	r7, #10
ARM GAS  C:\Users\ZHANGM~1\AppData\Local\Temp\cccEtK9g.s 			page 93


 3660 051e 09D9     		bls	.L370
1402:.\fun.c       **** 			   		{
1403:.\fun.c       **** 		        	WifiPressCnt = 0;  		
 3661              		.loc 1 1403 0
 3662 0520 0021     		mov	r1, #0
1404:.\fun.c       **** 		        	Load_Command(MCU_POWERONSMARTLINK_DATA);
 3663              		.loc 1 1404 0
 3664 0522 3748     		ldr	r0, .L506+56
1403:.\fun.c       **** 		        	WifiPressCnt = 0;  		
 3665              		.loc 1 1403 0
 3666 0524 1970     		strb	r1, [r3]
 3667              		.loc 1 1404 0
 3668 0526 FFF7FEFF 		bl	Load_Command
 3669              	.LVL39:
1405:.\fun.c       **** 	  					BUZfkg=1;
 3670              		.loc 1 1405 0
 3671 052a 0120     		mov	r0, #1
 3672 052c 2C4B     		ldr	r3, .L506+24
 3673 052e 00E0     		b	.L499
 3674              	.L369:
1406:.\fun.c       **** 	  				}
1407:.\fun.c       **** 		   } 
1408:.\fun.c       **** 		else
1409:.\fun.c       **** 		 	{
1410:.\fun.c       **** 			   WifiPressCnt = 0;
 3675              		.loc 1 1410 0
 3676 0530 0020     		mov	r0, #0
 3677              	.L499:
 3678 0532 1870     		strb	r0, [r3]
 3679              	.L370:
1411:.\fun.c       **** 		 	} 	 
1412:.\fun.c       ****     if(yanshicnt>=TIMER5S) 
 3680              		.loc 1 1412 0
 3681 0534 334B     		ldr	r3, .L506+60
 3682 0536 1E78     		ldrb	r6, [r3]
 3683 0538 312E     		cmp	r6, #49
 3684 053a 04D9     		bls	.L371
1413:.\fun.c       ****     	WorkFlag.yanshista=1;
 3685              		.loc 1 1413 0
 3686 053c 6078     		ldrb	r0, [r4, #1]
 3687 053e 0127     		mov	r7, #1
 3688 0540 3843     		orr	r0, r7
 3689 0542 6070     		strb	r0, [r4, #1]
 3690 0544 0EE0     		b	.L372
 3691              	.L371:
1414:.\fun.c       ****     else if((fastcnt>=TIMER10S)&&(PowerOnCnt00<TIMER5MB)) 
 3692              		.loc 1 1414 0
 3693 0546 304C     		ldr	r4, .L506+64
 3694 0548 2278     		ldrb	r2, [r4]
 3695 054a 632A     		cmp	r2, #99
 3696 054c 0AD9     		bls	.L372
 3697              		.loc 1 1414 0 is_stmt 0 discriminator 1
 3698 054e 2848     		ldr	r0, .L506+40
 3699 0550 2E49     		ldr	r1, .L506+68
 3700 0552 0788     		ldrh	r7, [r0]
 3701 0554 8F42     		cmp	r7, r1
 3702 0556 05D8     		bhi	.L372
ARM GAS  C:\Users\ZHANGM~1\AppData\Local\Temp\cccEtK9g.s 			page 94


1415:.\fun.c       ****     {
1416:.\fun.c       ****         fastfig=0;
 3703              		.loc 1 1416 0 is_stmt 1
 3704 0558 274B     		ldr	r3, .L506+48
1417:.\fun.c       ****         faststa=1;
 3705              		.loc 1 1417 0
 3706 055a 2D4A     		ldr	r2, .L506+72
1416:.\fun.c       ****         fastfig=0;
 3707              		.loc 1 1416 0
 3708 055c 0026     		mov	r6, #0
 3709              		.loc 1 1417 0
 3710 055e 0124     		mov	r4, #1
1416:.\fun.c       ****         fastfig=0;
 3711              		.loc 1 1416 0
 3712 0560 1E70     		strb	r6, [r3]
 3713              		.loc 1 1417 0
 3714 0562 1470     		strb	r4, [r2]
 3715              	.L372:
1418:.\fun.c       ****     }   
1419:.\fun.c       ****     
1420:.\fun.c       ****     if(fastjishifig==1)
 3716              		.loc 1 1420 0
 3717 0564 2B49     		ldr	r1, .L506+76
 3718 0566 0E78     		ldrb	r6, [r1]
 3719 0568 081C     		mov	r0, r1
 3720 056a 012E     		cmp	r6, #1
 3721 056c 2AD1     		bne	.L315
1421:.\fun.c       ****     {
1422:.\fun.c       ****         if(((KEYNB)==1||(KEYXZ)==1||(KEYFW)==1||(KEYQX)==1)||(fastjishicnt>=TIMER5M))
 3722              		.loc 1 1422 0
 3723 056e 2D78     		ldrb	r5, [r5]
 3724 0570 0823     		mov	r3, #8
 3725 0572 1D42     		tst	r5, r3
 3726 0574 03D0     		beq	.L373
 3727              		.loc 1 1422 0 is_stmt 0 discriminator 1
 3728 0576 154C     		ldr	r4, .L506+4
 3729 0578 2278     		ldrb	r2, [r4]
 3730 057a 1A42     		tst	r2, r3
 3731 057c 05D0     		beq	.L374
 3732              	.L373:
 3733              		.loc 1 1422 0
 3734 057e 6A07     		lsl	r2, r5, #29
 3735 0580 0DD5     		bpl	.L375
 3736              	.L378:
 3737              		.loc 1 1422 0 discriminator 1
 3738 0582 124F     		ldr	r7, .L506+4
 3739 0584 3978     		ldrb	r1, [r7]
 3740 0586 0029     		cmp	r1, #0
 3741 0588 09D1     		bne	.L375
 3742              	.L374:
1423:.\fun.c       ****         {   
1424:.\fun.c       ****             
1425:.\fun.c       ****             BUZfkg=1;
1426:.\fun.c       ****             fastjishifig=0;
 3743              		.loc 1 1426 0 is_stmt 1
 3744 058a 0025     		mov	r5, #0
 3745 058c 0570     		strb	r5, [r0]
ARM GAS  C:\Users\ZHANGM~1\AppData\Local\Temp\cccEtK9g.s 			page 95


1425:.\fun.c       ****             BUZfkg=1;
 3746              		.loc 1 1425 0
 3747 058e 144A     		ldr	r2, .L506+24
1427:.\fun.c       ****             cleareepromArrayflag=0;
 3748              		.loc 1 1427 0
 3749 0590 2148     		ldr	r0, .L506+80
1425:.\fun.c       ****             BUZfkg=1;
 3750              		.loc 1 1425 0
 3751 0592 0124     		mov	r4, #1
 3752 0594 1470     		strb	r4, [r2]
 3753              		.loc 1 1427 0
 3754 0596 0570     		strb	r5, [r0]
1428:.\fun.c       ****             //CySoftwareReset();
1429:.\fun.c       ****             clean_ram();
 3755              		.loc 1 1429 0
 3756 0598 FFF7FEFF 		bl	clean_ram
 3757              	.LVL40:
 3758 059c 12E0     		b	.L315
 3759              	.L375:
1422:.\fun.c       ****         if(((KEYNB)==1||(KEYXZ)==1||(KEYFW)==1||(KEYQX)==1)||(fastjishicnt>=TIMER5M))
 3760              		.loc 1 1422 0
 3761 059e 0226     		mov	r6, #2
 3762 05a0 3542     		tst	r5, r6
 3763 05a2 03D0     		beq	.L376
 3764              	.L379:
1422:.\fun.c       ****         if(((KEYNB)==1||(KEYXZ)==1||(KEYFW)==1||(KEYQX)==1)||(fastjishicnt>=TIMER5M))
 3765              		.loc 1 1422 0 is_stmt 0 discriminator 1
 3766 05a4 094B     		ldr	r3, .L506+4
 3767 05a6 1C78     		ldrb	r4, [r3]
 3768 05a8 3442     		tst	r4, r6
 3769 05aa EED0     		beq	.L374
 3770              	.L376:
1422:.\fun.c       ****         if(((KEYNB)==1||(KEYXZ)==1||(KEYFW)==1||(KEYQX)==1)||(fastjishicnt>=TIMER5M))
 3771              		.loc 1 1422 0
 3772 05ac 0122     		mov	r2, #1
 3773 05ae 1542     		tst	r5, r2
 3774 05b0 03D0     		beq	.L377
 3775              	.L380:
1422:.\fun.c       ****         if(((KEYNB)==1||(KEYXZ)==1||(KEYFW)==1||(KEYQX)==1)||(fastjishicnt>=TIMER5M))
 3776              		.loc 1 1422 0 discriminator 1
 3777 05b2 064D     		ldr	r5, .L506+4
 3778 05b4 2F78     		ldrb	r7, [r5]
 3779 05b6 1742     		tst	r7, r2
 3780 05b8 E7D0     		beq	.L374
 3781              	.L377:
1422:.\fun.c       ****         if(((KEYNB)==1||(KEYXZ)==1||(KEYFW)==1||(KEYQX)==1)||(fastjishicnt>=TIMER5M))
 3782              		.loc 1 1422 0
 3783 05ba 1849     		ldr	r1, .L506+84
 3784 05bc 184B     		ldr	r3, .L506+88
 3785 05be 0E88     		ldrh	r6, [r1]
 3786 05c0 9E42     		cmp	r6, r3
 3787 05c2 E2D8     		bhi	.L374
 3788              	.L315:
1430:.\fun.c       ****         }    
1431:.\fun.c       ****     }
1432:.\fun.c       **** }
 3789              		.loc 1 1432 0 is_stmt 1
ARM GAS  C:\Users\ZHANGM~1\AppData\Local\Temp\cccEtK9g.s 			page 96


 3790              		@ sp needed for prologue
 3791 05c4 F8BD     		pop	{r3, r4, r5, r6, r7, pc}
 3792              	.L507:
 3793 05c6 C046     		.align	2
 3794              	.L506:
 3795 05c8 00000000 		.word	NbPressCnt
 3796 05cc 00000000 		.word	BtnData2
 3797 05d0 00000000 		.word	PowerOnOneHourCnt
 3798 05d4 9F8C0000 		.word	35999
 3799 05d8 00000000 		.word	NBPressStart
 3800 05dc 00000000 		.word	NBfig
 3801 05e0 00000000 		.word	BUZfkg
 3802 05e4 00000000 		.word	XzPressCnt
 3803 05e8 00000000 		.word	PressFlag
 3804 05ec 00000000 		.word	DisFlag
 3805 05f0 00000000 		.word	PowerOnCnt00
 3806 05f4 00000000 		.word	yanshifig
 3807 05f8 00000000 		.word	fastfig
 3808 05fc 00000000 		.word	WifiPressCnt
 3809 0600 C2CC0000 		.word	52418
 3810 0604 00000000 		.word	yanshicnt
 3811 0608 00000000 		.word	fastcnt
 3812 060c 6F170000 		.word	5999
 3813 0610 00000000 		.word	faststa
 3814 0614 00000000 		.word	fastjishifig
 3815 0618 00000000 		.word	cleareepromArrayflag
 3816 061c 00000000 		.word	fastjishicnt
 3817 0620 B70B0000 		.word	2999
 3818              		.cfi_endproc
 3819              	.LFE42:
 3820              		.size	key, .-key
 3821              		.section	.text.Work_Init_Fun,"ax",%progbits
 3822              		.align	1
 3823              		.global	Work_Init_Fun
 3824              		.code	16
 3825              		.thumb_func
 3826              		.type	Work_Init_Fun, %function
 3827              	Work_Init_Fun:
 3828              	.LFB43:
1433:.\fun.c       **** void Work_Init_Fun(void)
1434:.\fun.c       **** {
 3829              		.loc 1 1434 0
 3830              		.cfi_startproc
 3831 0000 70B5     		push	{r4, r5, r6, lr}
 3832              	.LCFI10:
 3833              		.cfi_def_cfa_offset 16
 3834              		.cfi_offset 4, -16
 3835              		.cfi_offset 5, -12
 3836              		.cfi_offset 6, -8
 3837              		.cfi_offset 14, -4
1435:.\fun.c       ****     //WorkFlag.worksta = 1;
1436:.\fun.c       ****    	DisFlag.wifierror = 1;        //wifi error   
 3838              		.loc 1 1436 0
 3839 0002 124B     		ldr	r3, .L509
 3840 0004 0222     		mov	r2, #2
 3841 0006 9878     		ldrb	r0, [r3, #2]
1437:.\fun.c       ****    	DisFlag.wifilinkingsign = 1;        //wifi正常    
ARM GAS  C:\Users\ZHANGM~1\AppData\Local\Temp\cccEtK9g.s 			page 97


 3842              		.loc 1 1437 0
 3843 0008 0421     		mov	r1, #4
 3844 000a 1043     		orr	r0, r2
1438:.\fun.c       ****     DisFlag.working = 1;        //亮 工作中
 3845              		.loc 1 1438 0
 3846 000c 1C78     		ldrb	r4, [r3]
1437:.\fun.c       ****    	DisFlag.wifilinkingsign = 1;        //wifi正常    
 3847              		.loc 1 1437 0
 3848 000e 0843     		orr	r0, r1
 3849 0010 9870     		strb	r0, [r3, #2]
 3850              		.loc 1 1438 0
 3851 0012 0120     		mov	r0, #1
1439:.\fun.c       ****     DisFlag.workingsign = 1;    //亮 水滴
 3852              		.loc 1 1439 0
 3853 0014 0443     		orr	r4, r0
1440:.\fun.c       ****     DisFlag.cleaning = 1;       //亮 清洗
1441:.\fun.c       ****     DisFlag.outofwater = 1;     //亮 缺水
1442:.\fun.c       ****     DisFlag.error = 1;          //亮 故障
 3854              		.loc 1 1442 0
 3855 0016 5E78     		ldrb	r6, [r3, #1]
1440:.\fun.c       ****     DisFlag.cleaning = 1;       //亮 清洗
 3856              		.loc 1 1440 0
 3857 0018 1443     		orr	r4, r2
1441:.\fun.c       ****     DisFlag.outofwater = 1;     //亮 缺水
 3858              		.loc 1 1441 0
 3859 001a 4025     		mov	r5, #64
 3860 001c 2C43     		orr	r4, r5
1443:.\fun.c       ****     DisFlag.outofwatersign = 0;    
1444:.\fun.c       ****     DisFlag.errorsign = 0;  
1445:.\fun.c       ****     DisFlag.jsll = 1;
1446:.\fun.c       ****     //DisFlag.north=1;//上电北常亮
1447:.\fun.c       ****    
1448:.\fun.c       ****     LvXinNum1 = 0;
 3861              		.loc 1 1448 0
 3862 001e 0C4D     		ldr	r5, .L509+4
1445:.\fun.c       ****     DisFlag.jsll = 1;
 3863              		.loc 1 1445 0
 3864 0020 3043     		orr	r0, r6
 3865              		.loc 1 1448 0
 3866 0022 0026     		mov	r6, #0
 3867 0024 2E70     		strb	r6, [r5]
1449:.\fun.c       ****     DisFlag.cleaningsign=1;//上电水滴常亮
1450:.\fun.c       ****     DisFlag.outofwatersign=1;//缺水指示常亮
 3868              		.loc 1 1450 0
 3869 0026 7826     		mov	r6, #120
 3870 0028 7542     		neg	r5, r6
1449:.\fun.c       ****     DisFlag.cleaningsign=1;//上电水滴常亮
 3871              		.loc 1 1449 0
 3872 002a 0C43     		orr	r4, r1
1451:.\fun.c       ****     DisFlag.errorsign=1;//故障指示也常亮
 3873              		.loc 1 1451 0
 3874 002c 0143     		orr	r1, r0
1450:.\fun.c       ****     DisFlag.outofwatersign=1;//缺水指示常亮
 3875              		.loc 1 1450 0
 3876 002e 2C43     		orr	r4, r5
 3877              		.loc 1 1451 0
 3878 0030 0A43     		orr	r2, r1
ARM GAS  C:\Users\ZHANGM~1\AppData\Local\Temp\cccEtK9g.s 			page 98


1450:.\fun.c       ****     DisFlag.outofwatersign=1;//缺水指示常亮
 3879              		.loc 1 1450 0
 3880 0032 1C70     		strb	r4, [r3]
 3881              		.loc 1 1451 0
 3882 0034 5A70     		strb	r2, [r3, #1]
1452:.\fun.c       ****     NBmint=TIMER1MB;//默认为为北方计时
 3883              		.loc 1 1452 0
 3884 0036 0749     		ldr	r1, .L509+8
 3885 0038 9623     		mov	r3, #150
1453:.\fun.c       ****    // NBfig=1;
1454:.\fun.c       ****     WorkFlag.lvxingxzsta=0;
 3886              		.loc 1 1454 0
 3887 003a 074C     		ldr	r4, .L509+12
1452:.\fun.c       ****     NBmint=TIMER1MB;//默认为为北方计时
 3888              		.loc 1 1452 0
 3889 003c 9A00     		lsl	r2, r3, #2
 3890 003e 0A80     		strh	r2, [r1]
 3891              		.loc 1 1454 0
 3892 0040 2078     		ldrb	r0, [r4]
 3893 0042 2026     		mov	r6, #32
 3894 0044 B043     		bic	r0, r6
 3895 0046 2070     		strb	r0, [r4]
1455:.\fun.c       ****     
1456:.\fun.c       **** }
 3896              		.loc 1 1456 0
 3897              		@ sp needed for prologue
 3898 0048 70BD     		pop	{r4, r5, r6, pc}
 3899              	.L510:
 3900 004a C046     		.align	2
 3901              	.L509:
 3902 004c 00000000 		.word	DisFlag
 3903 0050 00000000 		.word	LvXinNum1
 3904 0054 00000000 		.word	NBmint
 3905 0058 00000000 		.word	WorkFlag
 3906              		.cfi_endproc
 3907              	.LFE43:
 3908              		.size	Work_Init_Fun, .-Work_Init_Fun
 3909              		.section	.text.Wifi_Fun,"ax",%progbits
 3910              		.align	1
 3911              		.global	Wifi_Fun
 3912              		.code	16
 3913              		.thumb_func
 3914              		.type	Wifi_Fun, %function
 3915              	Wifi_Fun:
 3916              	.LFB44:
1457:.\fun.c       **** 
1458:.\fun.c       **** 
1459:.\fun.c       **** void Wifi_Fun(void)
1460:.\fun.c       **** {
 3917              		.loc 1 1460 0
 3918              		.cfi_startproc
 3919 0000 08B5     		push	{r3, lr}
 3920              	.LCFI11:
 3921              		.cfi_def_cfa_offset 8
 3922              		.cfi_offset 3, -8
 3923              		.cfi_offset 14, -4
1461:.\fun.c       **** 
ARM GAS  C:\Users\ZHANGM~1\AppData\Local\Temp\cccEtK9g.s 			page 99


1462:.\fun.c       **** 	Uart_Exception_Handl();
 3924              		.loc 1 1462 0
 3925 0002 FFF7FEFF 		bl	Uart_Exception_Handl
 3926              	.LVL41:
1463:.\fun.c       **** 	Send_To_WifiUart();
 3927              		.loc 1 1463 0
 3928 0006 FFF7FEFF 		bl	Send_To_WifiUart
 3929              	.LVL42:
1464:.\fun.c       **** 	//SmarkLink_State=WIFI_SENDDINGSTATE_DATA_LINK_SERVER;
1465:.\fun.c       **** 	switch(SmarkLink_State)
 3930              		.loc 1 1465 0
 3931 000a 124B     		ldr	r3, .L526
 3932 000c 1878     		ldrb	r0, [r3]
 3933 000e 124B     		ldr	r3, .L526+4
 3934 0010 0828     		cmp	r0, #8
 3935 0012 19D8     		bhi	.L512
 3936 0014 0222     		mov	r2, #2
1466:.\fun.c       **** 	{
1467:.\fun.c       **** 		case WIFI_SENDDINGSTATE_DATA_NO_LINK_ROUTER://：无法连接路由器				      
1468:.\fun.c       **** 			DisFlag.wifierror=1;
1469:.\fun.c       **** 			DisFlag.wifilinkingsignflash=0;
1470:.\fun.c       **** 			DisFlag.wifilinkingsign=0;			  				  					  					  					  					  					  					  				  					  				
1471:.\fun.c       **** 		  break;
1472:.\fun.c       **** 		case WIFI_SENDDINGSTATE_DATA_NO_LINK_SERVER://01：无法连接服务器				      
1473:.\fun.c       **** 			DisFlag.wifierror=1;
1474:.\fun.c       **** 			DisFlag.wifilinkingsignflash=0;
1475:.\fun.c       **** 			DisFlag.wifilinkingsign=0;		  				  				  					  					  					  					  					  					  				  					 
1476:.\fun.c       **** 		  break;
1477:.\fun.c       **** 		case WIFI_SENDDINGSTATE_DATA_LINK_ROUTER:	//：已经路由器（指示灯常亮）			      
1478:.\fun.c       **** 			DisFlag.wifierror=0;
1479:.\fun.c       **** 			DisFlag.wifilinkingsignflash=1;
1480:.\fun.c       **** 			DisFlag.wifilinkingsign=0;			  				  					  					  					  					  					  					  				  					  				
1481:.\fun.c       **** 		  break;
1482:.\fun.c       **** 		case WIFI_SENDDINGSTATE_DATA_LINK_SERVER:		//03：已连接服务器（指示灯常亮）		      
1483:.\fun.c       **** 			DisFlag.wifierror=0;
1484:.\fun.c       **** 			DisFlag.wifilinkingsignflash=0;
1485:.\fun.c       **** 			DisFlag.wifilinkingsign=1;	   				  				  					  					  					  					  					  					  				  					 
1486:.\fun.c       **** 		  break;
1487:.\fun.c       **** 		case WIFI_SENDDINGSTATE_DATA_LINK_SMART_SETTING:		//已进入SmartLink等待App配置(指示灯
1488:.\fun.c       **** 			DisFlag.wifierror=0;
1489:.\fun.c       **** 			DisFlag.wifilinkingsignflash=1;
1490:.\fun.c       **** 			DisFlag.wifilinkingsign=0;					     				  				  					  					  					  					  					  					  				  
1491:.\fun.c       **** 		  break;
1492:.\fun.c       **** 		case WIFI_SENDDINGSTATE_DATA_LINK_SMART_SETTING_WAITTING:	//05：正在进SmartLink 配置中(指
1493:.\fun.c       **** 			DisFlag.wifierror=0;
1494:.\fun.c       **** 			DisFlag.wifilinkingsignflash=1;
1495:.\fun.c       **** 			DisFlag.wifilinkingsign=0;	  
1496:.\fun.c       **** 		  break;
1497:.\fun.c       **** 		case WIFI_SENDDINGSTATE_DATA_SMART_SETTING_FAIL:	//06：SmartLink 配置失败
1498:.\fun.c       **** 			DisFlag.wifierror=1;
1499:.\fun.c       **** 			DisFlag.wifilinkingsignflash=0;
1500:.\fun.c       **** 			DisFlag.wifilinkingsign=0;	 			      
1501:.\fun.c       **** 		  break;
1502:.\fun.c       **** 		case WIFI_SENDDINGSTATE_DATA_SMART_SETTING_OK:	//07：SmartLink配置成功（指示灯常亮同
1503:.\fun.c       **** 			DisFlag.wifierror=0;
1504:.\fun.c       **** 			DisFlag.wifilinkingsignflash=1;
1505:.\fun.c       **** 			DisFlag.wifilinkingsign=0;	 			      			     				  				  					  					  					  					  					  				
ARM GAS  C:\Users\ZHANGM~1\AppData\Local\Temp\cccEtK9g.s 			page 100


1506:.\fun.c       **** 		  break;
1507:.\fun.c       **** 		case WIFI_SENDDINGSTATE_DATA_SOFTAP:	//08：SoftAP状态	
1508:.\fun.c       **** 			DisFlag.wifierror=0;
 3937              		.loc 1 1508 0
 3938 0016 9978     		ldrb	r1, [r3, #2]
1465:.\fun.c       **** 	switch(SmarkLink_State)
 3939              		.loc 1 1465 0
 3940 0018 FFF7FEFF 		bl	__gnu_thumb1_case_uqi
 3941              	.L522:
 3942 001c 0C       		.byte	(.L519-.L522)/2
 3943 001d 0C       		.byte	(.L519-.L522)/2
 3944 001e 0F       		.byte	(.L521-.L522)/2
 3945 001f 05       		.byte	(.L516-.L522)/2
 3946 0020 0F       		.byte	(.L521-.L522)/2
 3947 0021 0F       		.byte	(.L521-.L522)/2
 3948 0022 0C       		.byte	(.L519-.L522)/2
 3949 0023 0F       		.byte	(.L521-.L522)/2
 3950 0024 0F       		.byte	(.L521-.L522)/2
 3951 0025 00       		.align	1
 3952              	.L516:
1484:.\fun.c       **** 			DisFlag.wifilinkingsignflash=0;
 3953              		.loc 1 1484 0
 3954 0026 9143     		bic	r1, r2
 3955 0028 0A1C     		mov	r2, r1
1485:.\fun.c       **** 			DisFlag.wifilinkingsign=1;	   				  				  					  					  					  					  					  					  				  					 
 3956              		.loc 1 1485 0
 3957 002a 0820     		mov	r0, #8
 3958 002c 8243     		bic	r2, r0
 3959 002e 0421     		mov	r1, #4
 3960 0030 0A43     		orr	r2, r1
 3961 0032 0CE0     		b	.L524
 3962              	.L519:
1499:.\fun.c       **** 			DisFlag.wifilinkingsignflash=0;
 3963              		.loc 1 1499 0
 3964 0034 0A43     		orr	r2, r1
1500:.\fun.c       **** 			DisFlag.wifilinkingsign=0;	 			      
 3965              		.loc 1 1500 0
 3966 0036 F320     		mov	r0, #243
 3967 0038 08E0     		b	.L525
 3968              	.L521:
1509:.\fun.c       **** 			DisFlag.wifilinkingsignflash=1;
 3969              		.loc 1 1509 0
 3970 003a 9143     		bic	r1, r2
 3971 003c 0A1C     		mov	r2, r1
1510:.\fun.c       **** 			DisFlag.wifilinkingsign=0;	 	
 3972              		.loc 1 1510 0
 3973 003e 0820     		mov	r0, #8
 3974 0040 0243     		orr	r2, r0
 3975 0042 0421     		mov	r1, #4
 3976 0044 8A43     		bic	r2, r1
 3977 0046 02E0     		b	.L524
 3978              	.L512:
1511:.\fun.c       **** 			break;	
1512:.\fun.c       **** 		default:
1513:.\fun.c       **** 			DisFlag.wifierror=0;
 3979              		.loc 1 1513 0
 3980 0048 9878     		ldrb	r0, [r3, #2]
ARM GAS  C:\Users\ZHANGM~1\AppData\Local\Temp\cccEtK9g.s 			page 101


1514:.\fun.c       **** 			DisFlag.wifilinkingsignflash=0;
1515:.\fun.c       **** 			DisFlag.wifilinkingsign=0;	 
 3981              		.loc 1 1515 0
 3982 004a F122     		mov	r2, #241
 3983              	.L525:
 3984 004c 0240     		and	r2, r0
 3985              	.L524:
 3986 004e 9A70     		strb	r2, [r3, #2]
1516:.\fun.c       **** 			break;
1517:.\fun.c       **** 	}					
1518:.\fun.c       **** 	
1519:.\fun.c       **** 	
1520:.\fun.c       **** }
 3987              		.loc 1 1520 0
 3988              		@ sp needed for prologue
 3989 0050 08BD     		pop	{r3, pc}
 3990              	.L527:
 3991 0052 C046     		.align	2
 3992              	.L526:
 3993 0054 00000000 		.word	SmarkLink_State
 3994 0058 00000000 		.word	DisFlag
 3995              		.cfi_endproc
 3996              	.LFE44:
 3997              		.size	Wifi_Fun, .-Wifi_Fun
 3998              		.section	.text.Work_Fun,"ax",%progbits
 3999              		.align	1
 4000              		.global	Work_Fun
 4001              		.code	16
 4002              		.thumb_func
 4003              		.type	Work_Fun, %function
 4004              	Work_Fun:
 4005              	.LFB45:
1521:.\fun.c       **** void Work_Fun(void)
1522:.\fun.c       **** {  
 4006              		.loc 1 1522 0
 4007              		.cfi_startproc
 4008 0000 F0B5     		push	{r4, r5, r6, r7, lr}
 4009              	.LCFI12:
 4010              		.cfi_def_cfa_offset 20
 4011              		.cfi_offset 4, -20
 4012              		.cfi_offset 5, -16
 4013              		.cfi_offset 6, -12
 4014              		.cfi_offset 7, -8
 4015              		.cfi_offset 14, -4
 4016 0002 85B0     		sub	sp, sp, #20
 4017              	.LCFI13:
 4018              		.cfi_def_cfa_offset 40
1523:.\fun.c       **** 	
1524:.\fun.c       ****     stand();//待机状态检测
 4019              		.loc 1 1524 0
 4020 0004 FFF7FEFF 		bl	stand
 4021              	.LVL43:
1525:.\fun.c       ****     LXPercent();//滤芯寿命百分比
 4022              		.loc 1 1525 0
 4023 0008 FFF7FEFF 		bl	LXPercent
 4024              	.LVL44:
1526:.\fun.c       ****     if(WorkFlag.yanshista==0||faststa==0)
ARM GAS  C:\Users\ZHANGM~1\AppData\Local\Temp\cccEtK9g.s 			page 102


 4025              		.loc 1 1526 0
 4026 000c B94B     		ldr	r3, .L630
 4027 000e 5A78     		ldrb	r2, [r3, #1]
 4028 0010 1D1C     		mov	r5, r3
 4029 0012 D007     		lsl	r0, r2, #31
 4030 0014 03D5     		bpl	.L529
 4031              		.loc 1 1526 0 is_stmt 0 discriminator 1
 4032 0016 B848     		ldr	r0, .L630+4
 4033 0018 0178     		ldrb	r1, [r0]
 4034 001a 0029     		cmp	r1, #0
 4035 001c 01D1     		bne	.L530
 4036              	.L529:
1527:.\fun.c       ****     	error_alm();//异常报警
 4037              		.loc 1 1527 0 is_stmt 1
 4038 001e FFF7FEFF 		bl	error_alm
 4039              	.LVL45:
 4040              	.L530:
1528:.\fun.c       ****     queshui_alm();
 4041              		.loc 1 1528 0
 4042 0022 FFF7FEFF 		bl	queshui_alm
 4043              	.LVL46:
1529:.\fun.c       ****  		Wifi_Fun(); 
 4044              		.loc 1 1529 0
 4045 0026 FFF7FEFF 		bl	Wifi_Fun
 4046              	.LVL47:
1530:.\fun.c       ****  		Process_From_Wifi_Data();  
 4047              		.loc 1 1530 0
 4048 002a FFF7FEFF 		bl	Process_From_Wifi_Data
 4049              	.LVL48:
1531:.\fun.c       ****  		Process_From_Tdsboard_Data(); 
 4050              		.loc 1 1531 0
 4051 002e FFF7FEFF 		bl	Process_From_Tdsboard_Data
 4052              	.LVL49:
1532:.\fun.c       ****     if(NBfig==1)
 4053              		.loc 1 1532 0
 4054 0032 B24C     		ldr	r4, .L630+8
 4055 0034 2023     		mov	r3, #32
 4056 0036 2678     		ldrb	r6, [r4]
 4057 0038 B14C     		ldr	r4, .L630+12
 4058 003a 012E     		cmp	r6, #1
 4059 003c 04D1     		bne	.L531
1533:.\fun.c       ****     {
1534:.\fun.c       ****         DisFlag.north=1;//北
 4060              		.loc 1 1534 0
 4061 003e 2078     		ldrb	r0, [r4]
1535:.\fun.c       ****         DisFlag.south=0;   
 4062              		.loc 1 1535 0
 4063 0040 1021     		mov	r1, #16
 4064 0042 0343     		orr	r3, r0
 4065 0044 8B43     		bic	r3, r1
 4066 0046 04E0     		b	.L623
 4067              	.L531:
1536:.\fun.c       ****         
1537:.\fun.c       ****     }
1538:.\fun.c       ****     else
1539:.\fun.c       ****     {
1540:.\fun.c       ****         DisFlag.north=0;//南
ARM GAS  C:\Users\ZHANGM~1\AppData\Local\Temp\cccEtK9g.s 			page 103


 4068              		.loc 1 1540 0
 4069 0048 2778     		ldrb	r7, [r4]
1541:.\fun.c       ****         DisFlag.south=1;    
 4070              		.loc 1 1541 0
 4071 004a 1022     		mov	r2, #16
 4072 004c 9F43     		bic	r7, r3
 4073 004e 3B1C     		mov	r3, r7
 4074 0050 1343     		orr	r3, r2
 4075              	.L623:
 4076 0052 2370     		strb	r3, [r4]
1542:.\fun.c       ****     }
1543:.\fun.c       ****     key();//按键检测程序 
 4077              		.loc 1 1543 0
 4078 0054 FFF7FEFF 		bl	key
 4079              	.LVL50:
1544:.\fun.c       ****     if(WorkFlag02.poll_24H_value_sendingcmp==1)  
 4080              		.loc 1 1544 0
 4081 0058 AA4E     		ldr	r6, .L630+16
 4082 005a 0423     		mov	r3, #4
 4083 005c 3778     		ldrb	r7, [r6]
 4084 005e 1F42     		tst	r7, r3
 4085 0060 08D0     		beq	.L533
1545:.\fun.c       ****     	{
1546:.\fun.c       ****     		 WorkFlag02.poll_24H_value_sendingcmp=0;
 4086              		.loc 1 1546 0
 4087 0062 9F43     		bic	r7, r3
1547:.\fun.c       ****     		 Load_Command(HOST_FILTER_USED_TIME_DATA);
 4088              		.loc 1 1547 0
 4089 0064 A848     		ldr	r0, .L630+20
1546:.\fun.c       ****     		 WorkFlag02.poll_24H_value_sendingcmp=0;
 4090              		.loc 1 1546 0
 4091 0066 3770     		strb	r7, [r6]
 4092              		.loc 1 1547 0
 4093 0068 FFF7FEFF 		bl	Load_Command
 4094              	.LVL51:
1548:.\fun.c       ****     		 Load_Command(HOST_STATE_DATA);
 4095              		.loc 1 1548 0
 4096 006c 9022     		mov	r2, #144
 4097 006e 1002     		lsl	r0, r2, #8
 4098 0070 FFF7FEFF 		bl	Load_Command
 4099              	.LVL52:
 4100              	.L533:
1549:.\fun.c       ****     	}  
1550:.\fun.c       **** 		if((WorkFlag.poweroff==1)&&(WorkFlag.poweron==0))//关机状态**********************************
 4101              		.loc 1 1550 0
 4102 0074 6E78     		ldrb	r6, [r5, #1]
 4103 0076 3F20     		mov	r0, #63
 4104 0078 311C     		mov	r1, r6
 4105 007a 8143     		bic	r1, r0
 4106 007c 8029     		cmp	r1, #128
 4107 007e 0ED1     		bne	.L534
1551:.\fun.c       ****       {
1552:.\fun.c       ****           LedPannelBuf[0] = 0xffffffff;       //待机状态所有指示灯全灭
 4108              		.loc 1 1552 0
 4109 0080 A24D     		ldr	r5, .L630+24
 4110 0082 0123     		mov	r3, #1
 4111 0084 5A42     		neg	r2, r3
ARM GAS  C:\Users\ZHANGM~1\AppData\Local\Temp\cccEtK9g.s 			page 104


1553:.\fun.c       ****           LedPannelBuf[1] = 0xffffffff;
1554:.\fun.c       ****           LedPannelBuf[2] = 0xffffffff;
1555:.\fun.c       ****           LedPannelBuf[3] = 0xffffffff;
1556:.\fun.c       ****           LedPannelBuf[4] = 0xffffffff;
1557:.\fun.c       ****           LedPannelBuf[5] = 0xffffffff;
1558:.\fun.c       ****           LedPannelBuf[6] = 0xffffffff; 
1559:.\fun.c       ****           K1_Write(0);
 4112              		.loc 1 1559 0
 4113 0086 0020     		mov	r0, #0
1552:.\fun.c       ****           LedPannelBuf[0] = 0xffffffff;       //待机状态所有指示灯全灭
 4114              		.loc 1 1552 0
 4115 0088 2A60     		str	r2, [r5]
1553:.\fun.c       ****           LedPannelBuf[1] = 0xffffffff;
 4116              		.loc 1 1553 0
 4117 008a 6A60     		str	r2, [r5, #4]
1554:.\fun.c       ****           LedPannelBuf[2] = 0xffffffff;
 4118              		.loc 1 1554 0
 4119 008c AA60     		str	r2, [r5, #8]
1555:.\fun.c       ****           LedPannelBuf[3] = 0xffffffff;
 4120              		.loc 1 1555 0
 4121 008e EA60     		str	r2, [r5, #12]
1556:.\fun.c       ****           LedPannelBuf[4] = 0xffffffff;
 4122              		.loc 1 1556 0
 4123 0090 2A61     		str	r2, [r5, #16]
1557:.\fun.c       ****           LedPannelBuf[5] = 0xffffffff;
 4124              		.loc 1 1557 0
 4125 0092 6A61     		str	r2, [r5, #20]
1558:.\fun.c       ****           LedPannelBuf[6] = 0xffffffff; 
 4126              		.loc 1 1558 0
 4127 0094 AA61     		str	r2, [r5, #24]
 4128              		.loc 1 1559 0
 4129 0096 FFF7FEFF 		bl	K1_Write
 4130              	.LVL53:
1560:.\fun.c       ****     			K2_Write(0);
 4131              		.loc 1 1560 0
 4132 009a 0020     		mov	r0, #0
 4133 009c 2DE2     		b	.L629
 4134              	.L534:
1561:.\fun.c       ****     			return;
1562:.\fun.c       ****       }        
1563:.\fun.c       ****    	else if((WorkFlag.poweroff==0)&&(WorkFlag.poweron==1))//开机状态***************************
 4135              		.loc 1 1563 0
 4136 009e 4029     		cmp	r1, #64
 4137 00a0 02D1     		bne	.L536
1564:.\fun.c       ****       {
1565:.\fun.c       **** 				WorkFlag.poweron=0;
 4138              		.loc 1 1565 0
 4139 00a2 8E43     		bic	r6, r1
 4140 00a4 6E70     		strb	r6, [r5, #1]
 4141 00a6 68E1     		b	.L537
 4142              	.L536:
1566:.\fun.c       ****       }   
1567:.\fun.c       ****     else if(WorkFlag.yanshista)//商场演示模式************************************************
 4143              		.loc 1 1567 0
 4144 00a8 0127     		mov	r7, #1
 4145 00aa 3E40     		and	r6, r7
 4146 00ac 40D0     		beq	.L538
ARM GAS  C:\Users\ZHANGM~1\AppData\Local\Temp\cccEtK9g.s 			page 105


1568:.\fun.c       ****     {
1569:.\fun.c       ****         if(yanshidisfig==0)
 4147              		.loc 1 1569 0
 4148 00ae 984E     		ldr	r6, .L630+28
 4149 00b0 3078     		ldrb	r0, [r6]
 4150 00b2 0028     		cmp	r0, #0
 4151 00b4 08D1     		bne	.L539
1570:.\fun.c       ****         {
1571:.\fun.c       ****             templvxin[0]=5;
 4152              		.loc 1 1571 0
 4153 00b6 9749     		ldr	r1, .L630+32
 4154 00b8 0522     		mov	r2, #5
 4155 00ba 0A70     		strb	r2, [r1]
1572:.\fun.c       ****             templvxin[1]=5;
 4156              		.loc 1 1572 0
 4157 00bc 4A70     		strb	r2, [r1, #1]
1573:.\fun.c       ****             templvxin[2]=5;
 4158              		.loc 1 1573 0
 4159 00be 8A70     		strb	r2, [r1, #2]
1574:.\fun.c       ****             templvxin[3]=5;
 4160              		.loc 1 1574 0
 4161 00c0 CA70     		strb	r2, [r1, #3]
1575:.\fun.c       ****             templvxin[4]=5;
 4162              		.loc 1 1575 0
 4163 00c2 0A71     		strb	r2, [r1, #4]
1576:.\fun.c       ****             templvxin[5]=5;
 4164              		.loc 1 1576 0
 4165 00c4 4A71     		strb	r2, [r1, #5]
1577:.\fun.c       ****             yanshidisfig=1;
 4166              		.loc 1 1577 0
 4167 00c6 3770     		strb	r7, [r6]
 4168              	.L539:
1578:.\fun.c       ****         
1579:.\fun.c       ****         }        
1580:.\fun.c       ****         //长按选择键5S
1581:.\fun.c       ****         if((BtnData1 & (1 << BTN_XZ))&&(BtnData2 & (1 << BTN_XZ)))
 4169              		.loc 1 1581 0
 4170 00c8 934F     		ldr	r7, .L630+36
 4171 00ca 0420     		mov	r0, #4
 4172 00cc 3E78     		ldrb	r6, [r7]
 4173 00ce 934B     		ldr	r3, .L630+40
 4174 00d0 0642     		tst	r6, r0
 4175 00d2 1FD0     		beq	.L540
 4176              		.loc 1 1581 0 is_stmt 0 discriminator 1
 4177 00d4 9249     		ldr	r1, .L630+44
 4178 00d6 0A78     		ldrb	r2, [r1]
 4179 00d8 0242     		tst	r2, r0
 4180 00da 1BD0     		beq	.L540
1582:.\fun.c       ****         {
1583:.\fun.c       ****             if(XzPressCnt > TIMER5S)
 4181              		.loc 1 1583 0 is_stmt 1
 4182 00dc 1B78     		ldrb	r3, [r3]
 4183 00de 322B     		cmp	r3, #50
 4184 00e0 1FD9     		bls	.L541
1584:.\fun.c       ****             {
1585:.\fun.c       ****                 if(PressFlag.xzpressstart == 0)
 4185              		.loc 1 1585 0
ARM GAS  C:\Users\ZHANGM~1\AppData\Local\Temp\cccEtK9g.s 			page 106


 4186 00e2 904A     		ldr	r2, .L630+48
 4187 00e4 0127     		mov	r7, #1
 4188 00e6 1178     		ldrb	r1, [r2]
 4189 00e8 3942     		tst	r1, r7
 4190 00ea 1AD1     		bne	.L541
1586:.\fun.c       ****                 {
1587:.\fun.c       ****                     
1588:.\fun.c       ****                     PressFlag.xzpressstart = 1;
1589:.\fun.c       ****                     BUZfkg=1;
 4191              		.loc 1 1589 0
 4192 00ec 8E4E     		ldr	r6, .L630+52
1588:.\fun.c       ****                     PressFlag.xzpressstart = 1;
 4193              		.loc 1 1588 0
 4194 00ee 3943     		orr	r1, r7
 4195 00f0 1170     		strb	r1, [r2]
 4196              		.loc 1 1589 0
 4197 00f2 3770     		strb	r7, [r6]
1590:.\fun.c       ****                     WorkFlag.lvxingxzsta = 1;
 4198              		.loc 1 1590 0
 4199 00f4 2878     		ldrb	r0, [r5]
 4200 00f6 2023     		mov	r3, #32
 4201 00f8 1843     		orr	r0, r3
 4202 00fa 2870     		strb	r0, [r5]
1591:.\fun.c       ****                     //WorkFlag.worksta = 0;
1592:.\fun.c       ****                     
1593:.\fun.c       ****                     DisFlag.sflash = 1;
 4203              		.loc 1 1593 0
 4204 00fc 6578     		ldrb	r5, [r4, #1]
1594:.\fun.c       ****                     DisFlag.hflash = 1;
1595:.\fun.c       ****                     DisFlag.jflash = 1;
 4205              		.loc 1 1595 0
 4206 00fe 1822     		mov	r2, #24
1596:.\fun.c       ****                     DisFlag.kflash = 1;
1597:.\fun.c       ****                     DisFlag.lflash = 1;
1598:.\fun.c       ****                     DisFlag.mflash = 1;
 4207              		.loc 1 1598 0
 4208 0100 A078     		ldrb	r0, [r4, #2]
1595:.\fun.c       ****                     DisFlag.jflash = 1;
 4209              		.loc 1 1595 0
 4210 0102 2A43     		orr	r2, r5
1597:.\fun.c       ****                     DisFlag.lflash = 1;
 4211              		.loc 1 1597 0
 4212 0104 4021     		mov	r1, #64
1596:.\fun.c       ****                     DisFlag.kflash = 1;
 4213              		.loc 1 1596 0
 4214 0106 1343     		orr	r3, r2
1597:.\fun.c       ****                     DisFlag.lflash = 1;
 4215              		.loc 1 1597 0
 4216 0108 4E42     		neg	r6, r1
 4217 010a 3343     		orr	r3, r6
 4218              		.loc 1 1598 0
 4219 010c 0743     		orr	r7, r0
1597:.\fun.c       ****                     DisFlag.lflash = 1;
 4220              		.loc 1 1597 0
 4221 010e 6370     		strb	r3, [r4, #1]
 4222              		.loc 1 1598 0
 4223 0110 A770     		strb	r7, [r4, #2]
ARM GAS  C:\Users\ZHANGM~1\AppData\Local\Temp\cccEtK9g.s 			page 107


1599:.\fun.c       ****              
1600:.\fun.c       ****                    return;
 4224              		.loc 1 1600 0
 4225 0112 3CE2     		b	.L528
 4226              	.L540:
1601:.\fun.c       ****                 }
1602:.\fun.c       ****             }
1603:.\fun.c       ****         }
1604:.\fun.c       ****         else
1605:.\fun.c       ****         {
1606:.\fun.c       ****             PressFlag.xzpressstart = 0;
 4227              		.loc 1 1606 0
 4228 0114 834C     		ldr	r4, .L630+48
 4229 0116 0126     		mov	r6, #1
 4230 0118 2778     		ldrb	r7, [r4]
1607:.\fun.c       ****             XzPressCnt = 0;
 4231              		.loc 1 1607 0
 4232 011a 0020     		mov	r0, #0
1606:.\fun.c       ****             PressFlag.xzpressstart = 0;
 4233              		.loc 1 1606 0
 4234 011c B743     		bic	r7, r6
 4235 011e 2770     		strb	r7, [r4]
 4236              		.loc 1 1607 0
 4237 0120 1870     		strb	r0, [r3]
 4238              	.L541:
1608:.\fun.c       ****         }
1609:.\fun.c       ****         
1610:.\fun.c       ****         
1611:.\fun.c       ****         K1_Write(0);
 4239              		.loc 1 1611 0
 4240 0122 0020     		mov	r0, #0
 4241 0124 FFF7FEFF 		bl	K1_Write
 4242              	.LVL54:
1612:.\fun.c       ****         K2_Write(0);
 4243              		.loc 1 1612 0
 4244 0128 0020     		mov	r0, #0
 4245 012a FFF7FEFF 		bl	K2_Write
 4246              	.LVL55:
 4247 012e 24E1     		b	.L537
 4248              	.L538:
1613:.\fun.c       ****        
1614:.\fun.c       ****             
1615:.\fun.c       ****     } 
1616:.\fun.c       ****     else if(faststa)//快检模式************************************************
 4249              		.loc 1 1616 0
 4250 0130 714B     		ldr	r3, .L630+4
 4251 0132 1B78     		ldrb	r3, [r3]
 4252 0134 002B     		cmp	r3, #0
 4253 0136 1CD0     		beq	.L542
1617:.\fun.c       ****     {
1618:.\fun.c       ****         BUZfkg=1;
 4254              		.loc 1 1618 0
 4255 0138 7B4D     		ldr	r5, .L630+52
1619:.\fun.c       ****         fastcnt=0;
 4256              		.loc 1 1619 0
 4257 013a 7C4C     		ldr	r4, .L630+56
1620:.\fun.c       ****         fastjishifig=1;
ARM GAS  C:\Users\ZHANGM~1\AppData\Local\Temp\cccEtK9g.s 			page 108


 4258              		.loc 1 1620 0
 4259 013c 7C48     		ldr	r0, .L630+60
1621:.\fun.c       ****         //V24_IN_ISR_Disable();//关外部中断  不保存数据
1622:.\fun.c       ****         cleareepromArrayflag=1;
 4260              		.loc 1 1622 0
 4261 013e 7D49     		ldr	r1, .L630+64
1618:.\fun.c       ****         BUZfkg=1;
 4262              		.loc 1 1618 0
 4263 0140 2F70     		strb	r7, [r5]
1620:.\fun.c       ****         fastjishifig=1;
 4264              		.loc 1 1620 0
 4265 0142 0770     		strb	r7, [r0]
 4266              		.loc 1 1622 0
 4267 0144 0F70     		strb	r7, [r1]
1619:.\fun.c       ****         fastcnt=0;
 4268              		.loc 1 1619 0
 4269 0146 2670     		strb	r6, [r4]
1623:.\fun.c       ****         //cleareepromArray();
1624:.\fun.c       ****         clean_ram();
 4270              		.loc 1 1624 0
 4271 0148 FFF7FEFF 		bl	clean_ram
 4272              	.LVL56:
1625:.\fun.c       ****         SP=7;
 4273              		.loc 1 1625 0
 4274 014c 7A4B     		ldr	r3, .L630+68
1626:.\fun.c       ****         HP=9;
 4275              		.loc 1 1626 0
 4276 014e 7B4D     		ldr	r5, .L630+72
1625:.\fun.c       ****         SP=7;
 4277              		.loc 1 1625 0
 4278 0150 0722     		mov	r2, #7
 4279              		.loc 1 1626 0
 4280 0152 0927     		mov	r7, #9
1625:.\fun.c       ****         SP=7;
 4281              		.loc 1 1625 0
 4282 0154 1A80     		strh	r2, [r3]
 4283              		.loc 1 1626 0
 4284 0156 2F80     		strh	r7, [r5]
1627:.\fun.c       ****         JP=60;
 4285              		.loc 1 1627 0
 4286 0158 7948     		ldr	r0, .L630+76
1628:.\fun.c       ****         KP=60;
 4287              		.loc 1 1628 0
 4288 015a 7A49     		ldr	r1, .L630+80
1629:.\fun.c       ****         LP=60;
 4289              		.loc 1 1629 0
 4290 015c 7A4A     		ldr	r2, .L630+84
1630:.\fun.c       ****         MP=15;
 4291              		.loc 1 1630 0
 4292 015e 7B4B     		ldr	r3, .L630+88
1631:.\fun.c       ****         faststa=0;
 4293              		.loc 1 1631 0
 4294 0160 654D     		ldr	r5, .L630+4
1627:.\fun.c       ****         JP=60;
 4295              		.loc 1 1627 0
 4296 0162 3C24     		mov	r4, #60
1630:.\fun.c       ****         MP=15;
ARM GAS  C:\Users\ZHANGM~1\AppData\Local\Temp\cccEtK9g.s 			page 109


 4297              		.loc 1 1630 0
 4298 0164 0F27     		mov	r7, #15
1627:.\fun.c       ****         JP=60;
 4299              		.loc 1 1627 0
 4300 0166 0480     		strh	r4, [r0]
1628:.\fun.c       ****         KP=60;
 4301              		.loc 1 1628 0
 4302 0168 0C80     		strh	r4, [r1]
1629:.\fun.c       ****         LP=60;
 4303              		.loc 1 1629 0
 4304 016a 1480     		strh	r4, [r2]
1630:.\fun.c       ****         MP=15;
 4305              		.loc 1 1630 0
 4306 016c 1F80     		strh	r7, [r3]
 4307              		.loc 1 1631 0
 4308 016e 2E70     		strb	r6, [r5]
1632:.\fun.c       ****         return;   
 4309              		.loc 1 1632 0
 4310 0170 0DE2     		b	.L528
 4311              	.L542:
1633:.\fun.c       ****     
1634:.\fun.c       ****     }      
1635:.\fun.c       ****     else if(WorkFlag.zijiansta) //开机上电自检模式*****************************************
 4312              		.loc 1 1635 0
 4313 0172 E878     		ldrb	r0, [r5, #3]
 4314 0174 061C     		mov	r6, r0
 4315 0176 3E40     		and	r6, r7
 4316 0178 0196     		str	r6, [sp, #4]
 4317 017a 63D0     		beq	.L543
1636:.\fun.c       ****     {       
1637:.\fun.c       ****         if(zijianstacnt>10&&zijianstacnt<13)
 4318              		.loc 1 1637 0
 4319 017c 744E     		ldr	r6, .L630+92
 4320 017e 3078     		ldrb	r0, [r6]
 4321 0180 011C     		mov	r1, r0
 4322 0182 0B39     		sub	r1, r1, #11
 4323 0184 0129     		cmp	r1, #1
 4324 0186 04D8     		bhi	.L544
1638:.\fun.c       ****         {
1639:.\fun.c       ****             BUZfkg=1;
 4325              		.loc 1 1639 0
 4326 0188 6748     		ldr	r0, .L630+52
 4327 018a 0770     		strb	r7, [r0]
1640:.\fun.c       ****             jixing();//机型判断及显示程序
 4328              		.loc 1 1640 0
 4329 018c FFF7FEFF 		bl	jixing
 4330              	.LVL57:
 4331 0190 2FE0     		b	.L545
 4332              	.L544:
1641:.\fun.c       ****         }
1642:.\fun.c       ****             
1643:.\fun.c       ****             
1644:.\fun.c       ****         else if(zijianstacnt>15&&zijianstacnt<18)  
 4333              		.loc 1 1644 0
 4334 0192 021C     		mov	r2, r0
 4335 0194 103A     		sub	r2, r2, #16
 4336 0196 012A     		cmp	r2, #1
ARM GAS  C:\Users\ZHANGM~1\AppData\Local\Temp\cccEtK9g.s 			page 110


 4337 0198 18D8     		bhi	.L546
1645:.\fun.c       ****         {
1646:.\fun.c       ****           switch(jixingnumber)
 4338              		.loc 1 1646 0
 4339 019a 6E48     		ldr	r0, .L630+96
 4340 019c 0078     		ldrb	r0, [r0]
 4341 019e 0138     		sub	r0, r0, #1
 4342 01a0 0528     		cmp	r0, #5
 4343 01a2 26D8     		bhi	.L545
 4344 01a4 0122     		mov	r2, #1
 4345 01a6 5949     		ldr	r1, .L630+24
 4346 01a8 5342     		neg	r3, r2
 4347 01aa FFF7FEFF 		bl	__gnu_thumb1_case_uqi
 4348              	.L553:
 4349 01ae 03       		.byte	(.L547-.L553)/2
 4350 01af 05       		.byte	(.L548-.L553)/2
 4351 01b0 07       		.byte	(.L549-.L553)/2
 4352 01b1 09       		.byte	(.L550-.L553)/2
 4353 01b2 0B       		.byte	(.L551-.L553)/2
 4354 01b3 0D       		.byte	(.L552-.L553)/2
 4355              		.align	1
 4356              	.L547:
1647:.\fun.c       **** 				    {          
1648:.\fun.c       **** 				        case 1:
1649:.\fun.c       **** 				            LedPannelBuf[S_CON] =0xffffffff;//如果为1号机型则 1号机型点亮
 4357              		.loc 1 1649 0
 4358 01b4 0B60     		str	r3, [r1]
1650:.\fun.c       **** 				            				        break;
 4359              		.loc 1 1650 0
 4360 01b6 1CE0     		b	.L545
 4361              	.L548:
1651:.\fun.c       **** 				        case 2:
1652:.\fun.c       **** 				            LedPannelBuf[H_CON] =0xffffffff;//如果为1号机型则 1号机型点亮
 4362              		.loc 1 1652 0
 4363 01b8 4B60     		str	r3, [r1, #4]
1653:.\fun.c       **** 				            				        break;
 4364              		.loc 1 1653 0
 4365 01ba 1AE0     		b	.L545
 4366              	.L549:
1654:.\fun.c       **** 				        case 3:
1655:.\fun.c       **** 				            LedPannelBuf[J_CON] =0xffffffff;//如果为1号机型则 1号机型点亮
 4367              		.loc 1 1655 0
 4368 01bc 8B60     		str	r3, [r1, #8]
1656:.\fun.c       **** 				            				        break;
 4369              		.loc 1 1656 0
 4370 01be 18E0     		b	.L545
 4371              	.L550:
1657:.\fun.c       **** 				        case 4:
1658:.\fun.c       **** 				            LedPannelBuf[K_CON] =0xffffffff;//如果为1号机型则 1号机型点亮
 4372              		.loc 1 1658 0
 4373 01c0 CB60     		str	r3, [r1, #12]
1659:.\fun.c       **** 				            				        break;
 4374              		.loc 1 1659 0
 4375 01c2 16E0     		b	.L545
 4376              	.L551:
1660:.\fun.c       **** 				        case 5:
1661:.\fun.c       **** 				            LedPannelBuf[L_CON] =0xffffffff;//如果为1号机型则 1号机型点亮
ARM GAS  C:\Users\ZHANGM~1\AppData\Local\Temp\cccEtK9g.s 			page 111


 4377              		.loc 1 1661 0
 4378 01c4 0B61     		str	r3, [r1, #16]
1662:.\fun.c       **** 				            				        break;
 4379              		.loc 1 1662 0
 4380 01c6 14E0     		b	.L545
 4381              	.L552:
1663:.\fun.c       **** 				        case 6:
1664:.\fun.c       **** 				            LedPannelBuf[M_CON] =0xffffffff;//如果为1号机型则 1号机型点亮
 4382              		.loc 1 1664 0
 4383 01c8 4B61     		str	r3, [r1, #20]
1665:.\fun.c       **** 				            				        break;
 4384              		.loc 1 1665 0
 4385 01ca 12E0     		b	.L545
 4386              	.L546:
1666:.\fun.c       **** 				        break;
1667:.\fun.c       **** 				    } 
1668:.\fun.c       ****         }
1669:.\fun.c       ****    
1670:.\fun.c       ****         else if(zijianstacnt>18&&zijianstacnt<28)
 4387              		.loc 1 1670 0
 4388 01cc 011C     		mov	r1, r0
 4389 01ce 1339     		sub	r1, r1, #19
 4390 01d0 0829     		cmp	r1, #8
 4391 01d2 08D8     		bhi	.L554
1671:.\fun.c       ****         {        
1672:.\fun.c       ****             LedPannelBuf[0] = 0;
 4392              		.loc 1 1672 0
 4393 01d4 4D4F     		ldr	r7, .L630+24
 4394 01d6 3B60     		str	r3, [r7]
1673:.\fun.c       ****             LedPannelBuf[1] = 0;
 4395              		.loc 1 1673 0
 4396 01d8 7B60     		str	r3, [r7, #4]
1674:.\fun.c       ****             LedPannelBuf[2] = 0;
 4397              		.loc 1 1674 0
 4398 01da BB60     		str	r3, [r7, #8]
1675:.\fun.c       ****             LedPannelBuf[3] = 0;
 4399              		.loc 1 1675 0
 4400 01dc FB60     		str	r3, [r7, #12]
1676:.\fun.c       ****             LedPannelBuf[4] = 0;
 4401              		.loc 1 1676 0
 4402 01de 3B61     		str	r3, [r7, #16]
1677:.\fun.c       ****             LedPannelBuf[5] = 0;
 4403              		.loc 1 1677 0
 4404 01e0 7B61     		str	r3, [r7, #20]
1678:.\fun.c       ****             LedPannelBuf[6] = 0;
 4405              		.loc 1 1678 0
 4406 01e2 BB61     		str	r3, [r7, #24]
 4407 01e4 05E0     		b	.L545
 4408              	.L554:
1679:.\fun.c       ****               
1680:.\fun.c       ****         }
1681:.\fun.c       ****         else if(zijianstacnt>28&&zijianstacnt<30)
 4409              		.loc 1 1681 0
 4410 01e6 1D28     		cmp	r0, #29
 4411 01e8 03D1     		bne	.L545
1682:.\fun.c       ****         {
1683:.\fun.c       ****             zijiandisplayfig=1;//机型和全屏检测后,可以开始正常的显示
ARM GAS  C:\Users\ZHANGM~1\AppData\Local\Temp\cccEtK9g.s 			page 112


 4412              		.loc 1 1683 0
 4413 01ea 5B4B     		ldr	r3, .L630+100
 4414 01ec 1F70     		strb	r7, [r3]
1684:.\fun.c       ****             Work_Init_Fun();//正常显示开始给LED显示初始化
 4415              		.loc 1 1684 0
 4416 01ee FFF7FEFF 		bl	Work_Init_Fun
 4417              	.LVL58:
 4418              	.L545:
1685:.\fun.c       ****         }    
1686:.\fun.c       ****             
1687:.\fun.c       ****         
1688:.\fun.c       ****         if(zijianstacnt>30&&zijianstacnt<33)//如果无故障报警,3S后退出自检状态
 4419              		.loc 1 1688 0
 4420 01f2 3778     		ldrb	r7, [r6]
 4421 01f4 391C     		mov	r1, r7
 4422 01f6 1F39     		sub	r1, r1, #31
 4423 01f8 0129     		cmp	r1, #1
 4424 01fa 06D8     		bhi	.L555
1689:.\fun.c       ****         {    
1690:.\fun.c       ****             
1691:.\fun.c       ****             if(WorkFlag.nowater==1)
 4425              		.loc 1 1691 0
 4426 01fc 2E78     		ldrb	r6, [r5]
 4427 01fe 0223     		mov	r3, #2
 4428 0200 1E42     		tst	r6, r3
 4429 0202 13D0     		beq	.L557
1692:.\fun.c       ****                 BUZfkg=2;
 4430              		.loc 1 1692 0
 4431 0204 484F     		ldr	r7, .L630+52
 4432 0206 3B70     		strb	r3, [r7]
 4433 0208 10E0     		b	.L557
 4434              	.L555:
1693:.\fun.c       ****         }  
1694:.\fun.c       ****         if(zijianstacnt>33&&Error_Data.bit.Error_01_flag==0&&Error_Data.bit.Error_02_flag==0&&WorkF
 4435              		.loc 1 1694 0
 4436 020a 212F     		cmp	r7, #33
 4437 020c 0ED9     		bls	.L557
 4438              		.loc 1 1694 0 is_stmt 0 discriminator 1
 4439 020e 534A     		ldr	r2, .L630+104
 4440 0210 0623     		mov	r3, #6
 4441 0212 1078     		ldrb	r0, [r2]
 4442 0214 1842     		tst	r0, r3
 4443 0216 09D1     		bne	.L557
 4444 0218 2F78     		ldrb	r7, [r5]
 4445 021a 0220     		mov	r0, #2
 4446 021c 3840     		and	r0, r7
 4447 021e 05D1     		bne	.L557
1695:.\fun.c       ****         {
1696:.\fun.c       ****             WorkFlag.zijiansta=0;
 4448              		.loc 1 1696 0 is_stmt 1
 4449 0220 EA78     		ldrb	r2, [r5, #3]
 4450 0222 0121     		mov	r1, #1
 4451 0224 8A43     		bic	r2, r1
 4452 0226 EA70     		strb	r2, [r5, #3]
1697:.\fun.c       ****          
1698:.\fun.c       ****             zijianstacnt=0;
 4453              		.loc 1 1698 0
ARM GAS  C:\Users\ZHANGM~1\AppData\Local\Temp\cccEtK9g.s 			page 113


 4454 0228 3070     		strb	r0, [r6]
 4455 022a 06E0     		b	.L558
 4456              	.L557:
1699:.\fun.c       ****         
1700:.\fun.c       ****         
1701:.\fun.c       ****         }
1702:.\fun.c       ****         else
1703:.\fun.c       ****         {
1704:.\fun.c       ****                         
1705:.\fun.c       ****             if(WorkFlag.nowater==1)
 4457              		.loc 1 1705 0
 4458 022c 2878     		ldrb	r0, [r5]
 4459 022e 8607     		lsl	r6, r0, #30
 4460 0230 03D5     		bpl	.L558
1706:.\fun.c       ****                 DisFlag.outofwatersignflash =1;    
 4461              		.loc 1 1706 0
 4462 0232 A178     		ldrb	r1, [r4, #2]
 4463 0234 2022     		mov	r2, #32
 4464 0236 1143     		orr	r1, r2
 4465 0238 A170     		strb	r1, [r4, #2]
 4466              	.L558:
1707:.\fun.c       ****         
1708:.\fun.c       ****             
1709:.\fun.c       ****         
1710:.\fun.c       ****         
1711:.\fun.c       ****         
1712:.\fun.c       ****         
1713:.\fun.c       ****         }
1714:.\fun.c       ****         
1715:.\fun.c       ****         if(WorkFlag.nowater==0)  
 4467              		.loc 1 1715 0
 4468 023a 2E78     		ldrb	r6, [r5]
 4469 023c B007     		lsl	r0, r6, #30
 4470 023e 00D5     		bpl	.LCB4150
 4471 0240 9BE0     		b	.L537	@long jump
 4472              	.LCB4150:
 4473 0242 96E0     		b	.L624
 4474              	.L543:
1716:.\fun.c       ****             DisFlag.outofwatersignflash =0;  
1717:.\fun.c       ****         
1718:.\fun.c       ****        
1719:.\fun.c       ****     }
1720:.\fun.c       ****     
1721:.\fun.c       ****     else if(WorkFlag.nowater==1)//缺水故障状态,停止工作**********************************
 4475              		.loc 1 1721 0
 4476 0244 2B78     		ldrb	r3, [r5]
 4477 0246 0222     		mov	r2, #2
 4478 0248 111C     		mov	r1, r2
 4479 024a 1940     		and	r1, r3
 4480 024c 9446     		mov	ip, r2
 4481 024e 0291     		str	r1, [sp, #8]
 4482 0250 0391     		str	r1, [sp, #12]
 4483 0252 434B     		ldr	r3, .L630+108
 4484 0254 10D0     		beq	.L559
1722:.\fun.c       ****     {
1723:.\fun.c       ****         
1724:.\fun.c       ****         
ARM GAS  C:\Users\ZHANGM~1\AppData\Local\Temp\cccEtK9g.s 			page 114


1725:.\fun.c       ****         DisFlag.outofwatersignflash =1; //缺水指示灯闪烁    
 4485              		.loc 1 1725 0
 4486 0256 A778     		ldrb	r7, [r4, #2]
 4487 0258 2021     		mov	r1, #32
 4488 025a 0F43     		orr	r7, r1
 4489 025c A770     		strb	r7, [r4, #2]
1726:.\fun.c       ****         
1727:.\fun.c       ****         workstartfig=0;//停止工作
1728:.\fun.c       ****         
1729:.\fun.c       ****         K1_Write(0);//关掉进水阀
 4490              		.loc 1 1729 0
 4491 025e 0198     		ldr	r0, [sp, #4]
1727:.\fun.c       ****         workstartfig=0;//停止工作
 4492              		.loc 1 1727 0
 4493 0260 1E70     		strb	r6, [r3]
 4494              		.loc 1 1729 0
 4495 0262 FFF7FEFF 		bl	K1_Write
 4496              	.LVL59:
1730:.\fun.c       ****         K2_Write(0);//关掉冲洗阀
 4497              		.loc 1 1730 0
 4498 0266 0198     		ldr	r0, [sp, #4]
 4499 0268 FFF7FEFF 		bl	K2_Write
 4500              	.LVL60:
1731:.\fun.c       ****         
1732:.\fun.c       ****         DisFlag.cleaningsignflash=0;//冲洗闪烁不闪烁
 4501              		.loc 1 1732 0
 4502 026c A278     		ldrb	r2, [r4, #2]
1733:.\fun.c       ****         DisFlag.workingsignflash =0;//制水工作指示灯不闪烁
 4503              		.loc 1 1733 0
 4504 026e AF23     		mov	r3, #175
 4505 0270 1340     		and	r3, r2
 4506 0272 A370     		strb	r3, [r4, #2]
1734:.\fun.c       ****         
1735:.\fun.c       ****      
1736:.\fun.c       ****         
1737:.\fun.c       ****         chongxifig=0;//冲洗有故障时冲洗计时标志清0 
 4507              		.loc 1 1737 0
 4508 0274 3B4B     		ldr	r3, .L630+112
 4509 0276 12E0     		b	.L626
 4510              	.L559:
1738:.\fun.c       ****         
1739:.\fun.c       ****         
1740:.\fun.c       ****         
1741:.\fun.c       ****         
1742:.\fun.c       ****     }
1743:.\fun.c       ****     else if(Error_Data.bit.Error_00_flag==1)//缺水故障状态,停止工作**********************
 4511              		.loc 1 1743 0
 4512 0278 384E     		ldr	r6, .L630+104
 4513 027a 3278     		ldrb	r2, [r6]
 4514 027c 3A40     		and	r2, r7
 4515 027e 0092     		str	r2, [sp]
 4516 0280 161E     		sub	r6, r2, #0
 4517 0282 0ED0     		beq	.L560
1744:.\fun.c       ****     {
1745:.\fun.c       ****                
1746:.\fun.c       ****         workstartfig=0;//停止工作
 4518              		.loc 1 1746 0
ARM GAS  C:\Users\ZHANGM~1\AppData\Local\Temp\cccEtK9g.s 			page 115


 4519 0284 0821     		mov	r1, #8
 4520 0286 6C46     		mov	r4, sp
 4521 0288 0F5D     		ldrb	r7, [r1, r4]
1747:.\fun.c       ****         
1748:.\fun.c       ****         K1_Write(0);//关掉进水阀
 4522              		.loc 1 1748 0
 4523 028a 0398     		ldr	r0, [sp, #12]
1746:.\fun.c       ****         workstartfig=0;//停止工作
 4524              		.loc 1 1746 0
 4525 028c 1F70     		strb	r7, [r3]
 4526              		.loc 1 1748 0
 4527 028e FFF7FEFF 		bl	K1_Write
 4528              	.LVL61:
1749:.\fun.c       ****         K2_Write(0);//关掉冲洗阀        
 4529              		.loc 1 1749 0
 4530 0292 0398     		ldr	r0, [sp, #12]
 4531 0294 FFF7FEFF 		bl	K2_Write
 4532              	.LVL62:
1750:.\fun.c       ****         chongxifig=0;//冲洗有故障时冲洗计时标志清0 
 4533              		.loc 1 1750 0
 4534 0298 0820     		mov	r0, #8
 4535 029a 324B     		ldr	r3, .L630+112
 4536 029c 065D     		ldrb	r6, [r0, r4]
 4537              	.L626:
 4538 029e 1E70     		strb	r6, [r3]
 4539 02a0 6BE0     		b	.L537
 4540              	.L560:
1751:.\fun.c       ****         
1752:.\fun.c       ****         
1753:.\fun.c       ****         
1754:.\fun.c       ****         
1755:.\fun.c       ****     }
1756:.\fun.c       ****     else if(WorkFlag.shoucibysta==1)//若果是首次上电,且无故障则进入首次冲洗状态
 4541              		.loc 1 1756 0
 4542 02a2 6146     		mov	r1, ip
 4543 02a4 0842     		tst	r0, r1
 4544 02a6 63D0     		beq	.L561
1757:.\fun.c       ****     {
1758:.\fun.c       ****        //故障排可以开始冲洗//有自来水,且压力罐水不满开始首次冲洗
1759:.\fun.c       ****                                                     
1760:.\fun.c       ****             DisFlag.outofwatersignflash =0;//进入首次上电冲洗,说明没故障,故障指示
 4545              		.loc 1 1760 0
 4546 02a8 A378     		ldrb	r3, [r4, #2]
 4547 02aa 2022     		mov	r2, #32
 4548 02ac 9343     		bic	r3, r2
1761:.\fun.c       ****             
1762:.\fun.c       ****             chongxifig=1;//进入上电首次冲洗,则冲洗计时开始
1763:.\fun.c       ****             if(chongxicnt<600)//60S自动60*100ms=30S
 4549              		.loc 1 1763 0
 4550 02ae 2E49     		ldr	r1, .L630+116
1760:.\fun.c       ****             DisFlag.outofwatersignflash =0;//进入首次上电冲洗,说明没故障,故障指示
 4551              		.loc 1 1760 0
 4552 02b0 A370     		strb	r3, [r4, #2]
1762:.\fun.c       ****             chongxifig=1;//进入上电首次冲洗,则冲洗计时开始
 4553              		.loc 1 1762 0
 4554 02b2 2C4A     		ldr	r2, .L630+112
 4555              		.loc 1 1763 0
ARM GAS  C:\Users\ZHANGM~1\AppData\Local\Temp\cccEtK9g.s 			page 116


 4556 02b4 0B88     		ldrh	r3, [r1]
 4557 02b6 2D49     		ldr	r1, .L630+120
1762:.\fun.c       ****             chongxifig=1;//进入上电首次冲洗,则冲洗计时开始
 4558              		.loc 1 1762 0
 4559 02b8 1770     		strb	r7, [r2]
 4560              		.loc 1 1763 0
 4561 02ba 8B42     		cmp	r3, r1
 4562 02bc 09D8     		bhi	.L562
1764:.\fun.c       ****            
1765:.\fun.c       ****             {   
1766:.\fun.c       ****                 K1_Write(1);//打开进水阀
 4563              		.loc 1 1766 0
 4564 02be 381C     		mov	r0, r7
 4565 02c0 FFF7FEFF 		bl	K1_Write
 4566              	.LVL63:
1767:.\fun.c       ****                 K2_Write(1);//打开冲洗阀
 4567              		.loc 1 1767 0
 4568 02c4 381C     		mov	r0, r7
 4569 02c6 FFF7FEFF 		bl	K2_Write
 4570              	.LVL64:
1768:.\fun.c       ****                 DisFlag.cleaningsignflash=1;//冲洗指示灯闪烁
 4571              		.loc 1 1768 0
 4572 02ca A378     		ldrb	r3, [r4, #2]
 4573 02cc 4026     		mov	r6, #64
 4574 02ce 3343     		orr	r3, r6
 4575 02d0 52E0     		b	.L627
 4576              	.L562:
1769:.\fun.c       ****             }    
1770:.\fun.c       ****             else
1771:.\fun.c       ****             {
1772:.\fun.c       ****                 WorkFlag.shoucibysta=0;//首次上电冲洗完成后退出冲洗状态
 4577              		.loc 1 1772 0
 4578 02d2 6746     		mov	r7, ip
 4579 02d4 B843     		bic	r0, r7
 4580 02d6 E870     		strb	r0, [r5, #3]
1773:.\fun.c       ****                 chongxifig=0;
 4581              		.loc 1 1773 0
 4582 02d8 6846     		mov	r0, sp
 4583 02da 0378     		ldrb	r3, [r0]
1774:.\fun.c       ****                 chongxicnt=0;       //冲洗计时器清0
1775:.\fun.c       ****                 K1_Write(0);
 4584              		.loc 1 1775 0
 4585 02dc 301C     		mov	r0, r6
1773:.\fun.c       ****                 chongxifig=0;
 4586              		.loc 1 1773 0
 4587 02de 1370     		strb	r3, [r2]
1774:.\fun.c       ****                 chongxicnt=0;       //冲洗计时器清0
 4588              		.loc 1 1774 0
 4589 02e0 214A     		ldr	r2, .L630+116
1776:.\fun.c       ****                 K2_Write(0);        //首次冲洗完成关闭进水和冲洗阀
1777:.\fun.c       ****                 DisFlag.cleaningsignflash=0;//首次上电冲洗完成冲洗指示灯不闪烁
 4590              		.loc 1 1777 0
 4591 02e2 4027     		mov	r7, #64
1774:.\fun.c       ****                 chongxicnt=0;       //冲洗计时器清0
 4592              		.loc 1 1774 0
 4593 02e4 1680     		strh	r6, [r2]
1775:.\fun.c       ****                 K1_Write(0);
ARM GAS  C:\Users\ZHANGM~1\AppData\Local\Temp\cccEtK9g.s 			page 117


 4594              		.loc 1 1775 0
 4595 02e6 FFF7FEFF 		bl	K1_Write
 4596              	.LVL65:
1776:.\fun.c       ****                 K2_Write(0);        //首次冲洗完成关闭进水和冲洗阀
 4597              		.loc 1 1776 0
 4598 02ea 301C     		mov	r0, r6
 4599 02ec FFF7FEFF 		bl	K2_Write
 4600              	.LVL66:
 4601              		.loc 1 1777 0
 4602 02f0 A378     		ldrb	r3, [r4, #2]
 4603 02f2 40E0     		b	.L625
 4604              	.L631:
 4605              		.align	2
 4606              	.L630:
 4607 02f4 00000000 		.word	WorkFlag
 4608 02f8 00000000 		.word	faststa
 4609 02fc 00000000 		.word	NBfig
 4610 0300 00000000 		.word	DisFlag
 4611 0304 00000000 		.word	WorkFlag02
 4612 0308 02900000 		.word	36866
 4613 030c 00000000 		.word	LedPannelBuf
 4614 0310 00000000 		.word	yanshidisfig
 4615 0314 00000000 		.word	templvxin
 4616 0318 00000000 		.word	BtnData1
 4617 031c 00000000 		.word	XzPressCnt
 4618 0320 00000000 		.word	BtnData2
 4619 0324 00000000 		.word	PressFlag
 4620 0328 00000000 		.word	BUZfkg
 4621 032c 00000000 		.word	fastcnt
 4622 0330 00000000 		.word	fastjishifig
 4623 0334 00000000 		.word	cleareepromArrayflag
 4624 0338 00000000 		.word	SP
 4625 033c 00000000 		.word	HP
 4626 0340 00000000 		.word	JP
 4627 0344 00000000 		.word	KP
 4628 0348 00000000 		.word	LP
 4629 034c 00000000 		.word	MP
 4630 0350 00000000 		.word	zijianstacnt
 4631 0354 00000000 		.word	jixingnumber
 4632 0358 00000000 		.word	zijiandisplayfig
 4633 035c 00000000 		.word	Error_Data
 4634 0360 00000000 		.word	workstartfig
 4635 0364 00000000 		.word	chongxifig
 4636 0368 00000000 		.word	chongxicnt
 4637 036c 57020000 		.word	599
 4638              	.L561:
1778:.\fun.c       ****               
1779:.\fun.c       ****             }
1780:.\fun.c       ****             
1781:.\fun.c       ****         
1782:.\fun.c       ****       
1783:.\fun.c       ****     }        
1784:.\fun.c       ****         
1785:.\fun.c       ****     else
1786:.\fun.c       ****  
1787:.\fun.c       ****     {
1788:.\fun.c       ****         //WorkFlag.worksta=1;
ARM GAS  C:\Users\ZHANGM~1\AppData\Local\Temp\cccEtK9g.s 			page 118


1789:.\fun.c       ****         workstartfig=1;//故障排可以开始正常工作
 4639              		.loc 1 1789 0
 4640 0370 1F70     		strb	r7, [r3]
 4641              	.L624:
1790:.\fun.c       ****         DisFlag.outofwatersignflash =0;//故障排除缺水指示灯不闪
 4642              		.loc 1 1790 0
 4643 0372 A378     		ldrb	r3, [r4, #2]
 4644 0374 2027     		mov	r7, #32
 4645              	.L625:
 4646 0376 BB43     		bic	r3, r7
 4647              	.L627:
 4648 0378 A370     		strb	r3, [r4, #2]
 4649              	.L537:
1791:.\fun.c       ****         
1792:.\fun.c       ****     }
1793:.\fun.c       ****     
1794:.\fun.c       ****  //  if((workstartfig==1)&&(WorkFlag.nowater==0))   //自检模式无故障后开始正常工作模
1795:.\fun.c       ****    if(workstartfig)   //自检模式无故障后开始正常工作模式*****************
 4650              		.loc 1 1795 0
 4651 037a 864C     		ldr	r4, .L632
 4652 037c 2778     		ldrb	r7, [r4]
 4653 037e 002F     		cmp	r7, #0
 4654 0380 00D1     		bne	.LCB4322
 4655 0382 04E1     		b	.L528	@long jump
 4656              	.LCB4322:
1796:.\fun.c       ****     {   
1797:.\fun.c       ****         
1798:.\fun.c       ****         
1799:.\fun.c       ****         if(gyfullcnt>=50&&WorkFlag.gyfull==1)//如果压力罐水满50次则自动冲洗debug
 4657              		.loc 1 1799 0
 4658 0384 844B     		ldr	r3, .L632+4
 4659 0386 1A78     		ldrb	r2, [r3]
 4660 0388 0192     		str	r2, [sp, #4]
 4661 038a 312A     		cmp	r2, #49
 4662 038c 05D9     		bls	.L564
 4663              		.loc 1 1799 0 is_stmt 0 discriminator 1
 4664 038e E978     		ldrb	r1, [r5, #3]
 4665 0390 CA06     		lsl	r2, r1, #27
 4666 0392 02D5     		bpl	.L564
1800:.\fun.c       ****         	{                                      
1801:.\fun.c       ****             WorkFlag.zidongbysta=1;      
 4667              		.loc 1 1801 0 is_stmt 1
 4668 0394 0426     		mov	r6, #4
 4669 0396 3143     		orr	r1, r6
 4670 0398 E970     		strb	r1, [r5, #3]
 4671              	.L564:
1802:.\fun.c       ****         	}
1803:.\fun.c       ****         //取水延后冲洗zhm
1804:.\fun.c       ****         if(WorkFlag.shoudongbystabak==1&&WorkFlag.gyfull==1)
 4672              		.loc 1 1804 0
 4673 039a 8048     		ldr	r0, .L632+8
 4674 039c 2C68     		ldr	r4, [r5]
 4675 039e 0440     		and	r4, r0
 4676 03a0 8442     		cmp	r4, r0
 4677 03a2 03D1     		bne	.L565
1805:.\fun.c       ****           {                                       
1806:.\fun.c       ****         		WorkFlag.shoudongbysta=1;      			        	        
ARM GAS  C:\Users\ZHANGM~1\AppData\Local\Temp\cccEtK9g.s 			page 119


 4678              		.loc 1 1806 0
 4679 03a4 2F78     		ldrb	r7, [r5]
 4680 03a6 4023     		mov	r3, #64
 4681 03a8 1F43     		orr	r7, r3
 4682 03aa 2F70     		strb	r7, [r5]
 4683              	.L565:
1807:.\fun.c       ****           }       
1808:.\fun.c       ****         if(WorkFlag.standbysta)//待机状态******************************************************
 4684              		.loc 1 1808 0
 4685 03ac AA78     		ldrb	r2, [r5, #2]
 4686 03ae 0121     		mov	r1, #1
 4687 03b0 1140     		and	r1, r2
 4688 03b2 081E     		sub	r0, r1, #0
 4689 03b4 2BD0     		beq	.L566
1809:.\fun.c       ****         {
1810:.\fun.c       ****           
1811:.\fun.c       ****             LedPannelBuf[0] = 0xffffffff;       //待机状态所有指示灯全灭
1812:.\fun.c       ****             LedPannelBuf[1] = 0xffffffff;
1813:.\fun.c       ****             LedPannelBuf[2] = 0xffffffff;
1814:.\fun.c       ****             LedPannelBuf[3] = 0xffffffff;
1815:.\fun.c       ****             LedPannelBuf[4] = 0xffffffff;
1816:.\fun.c       ****             LedPannelBuf[5] = 0xffffffff;
1817:.\fun.c       ****             LedPannelBuf[6] = 0xffffffff;
1818:.\fun.c       ****             if((KEYNB)==1||(KEYXZ)==1||(KEYFW)==1||(KEYQX)==1)//在待机状下点按任意键蜂
 4690              		.loc 1 1818 0
 4691 03b6 7A4B     		ldr	r3, .L632+12
1811:.\fun.c       ****             LedPannelBuf[0] = 0xffffffff;       //待机状态所有指示灯全灭
 4692              		.loc 1 1811 0
 4693 03b8 7A4F     		ldr	r7, .L632+16
 4694 03ba 0121     		mov	r1, #1
 4695              		.loc 1 1818 0
 4696 03bc 1E78     		ldrb	r6, [r3]
1811:.\fun.c       ****             LedPannelBuf[0] = 0xffffffff;       //待机状态所有指示灯全灭
 4697              		.loc 1 1811 0
 4698 03be 4842     		neg	r0, r1
 4699              		.loc 1 1818 0
 4700 03c0 0822     		mov	r2, #8
1811:.\fun.c       ****             LedPannelBuf[0] = 0xffffffff;       //待机状态所有指示灯全灭
 4701              		.loc 1 1811 0
 4702 03c2 3860     		str	r0, [r7]
1812:.\fun.c       ****             LedPannelBuf[1] = 0xffffffff;
 4703              		.loc 1 1812 0
 4704 03c4 7860     		str	r0, [r7, #4]
1813:.\fun.c       ****             LedPannelBuf[2] = 0xffffffff;
 4705              		.loc 1 1813 0
 4706 03c6 B860     		str	r0, [r7, #8]
1814:.\fun.c       ****             LedPannelBuf[3] = 0xffffffff;
 4707              		.loc 1 1814 0
 4708 03c8 F860     		str	r0, [r7, #12]
1815:.\fun.c       ****             LedPannelBuf[4] = 0xffffffff;
 4709              		.loc 1 1815 0
 4710 03ca 3861     		str	r0, [r7, #16]
1816:.\fun.c       ****             LedPannelBuf[5] = 0xffffffff;
 4711              		.loc 1 1816 0
 4712 03cc 7861     		str	r0, [r7, #20]
1817:.\fun.c       ****             LedPannelBuf[6] = 0xffffffff;
 4713              		.loc 1 1817 0
ARM GAS  C:\Users\ZHANGM~1\AppData\Local\Temp\cccEtK9g.s 			page 120


 4714 03ce B861     		str	r0, [r7, #24]
 4715              		.loc 1 1818 0
 4716 03d0 1642     		tst	r6, r2
 4717 03d2 03D0     		beq	.L567
 4718              		.loc 1 1818 0 is_stmt 0 discriminator 1
 4719 03d4 744C     		ldr	r4, .L632+20
 4720 03d6 2778     		ldrb	r7, [r4]
 4721 03d8 1742     		tst	r7, r2
 4722 03da 07D0     		beq	.L568
 4723              	.L567:
 4724              		.loc 1 1818 0
 4725 03dc 7407     		lsl	r4, r6, #29
 4726 03de 00D4     		bmi	.LCB4391
 4727 03e0 C3E0     		b	.L569	@long jump
 4728              	.LCB4391:
 4729              	.L581:
 4730              		.loc 1 1818 0 discriminator 1
 4731 03e2 7149     		ldr	r1, .L632+20
 4732 03e4 0878     		ldrb	r0, [r1]
 4733 03e6 0028     		cmp	r0, #0
 4734 03e8 00D0     		beq	.LCB4396
 4735 03ea BEE0     		b	.L569	@long jump
 4736              	.LCB4396:
 4737              	.L568:
1819:.\fun.c       ****                 BUZfkg=1;
 4738              		.loc 1 1819 0 is_stmt 1
 4739 03ec 6F4B     		ldr	r3, .L632+24
 4740 03ee 0120     		mov	r0, #1
 4741 03f0 1870     		strb	r0, [r3]
 4742              	.L571:
1820:.\fun.c       ****             if(WorkFlag.gyfull==0)//待机的时候如果压力罐水不满则退出待机
 4743              		.loc 1 1820 0
 4744 03f2 EA78     		ldrb	r2, [r5, #3]
 4745 03f4 1024     		mov	r4, #16
 4746 03f6 1440     		and	r4, r2
 4747 03f8 00D0     		beq	.LCB4409
 4748 03fa C8E0     		b	.L528	@long jump
 4749              	.LCB4409:
1821:.\fun.c       ****             {
1822:.\fun.c       ****                 standflashcnt=0;
 4750              		.loc 1 1822 0
 4751 03fc 6C4F     		ldr	r7, .L632+28
1823:.\fun.c       ****                 standkeycnt=0;
 4752              		.loc 1 1823 0
 4753 03fe 6D4E     		ldr	r6, .L632+32
1822:.\fun.c       ****                 standflashcnt=0;
 4754              		.loc 1 1822 0
 4755 0400 3C80     		strh	r4, [r7]
 4756              		.loc 1 1823 0
 4757 0402 3480     		strh	r4, [r6]
1824:.\fun.c       ****                 WorkFlag.standbysta=0;  
 4758              		.loc 1 1824 0
 4759 0404 A978     		ldrb	r1, [r5, #2]
 4760 0406 0120     		mov	r0, #1
 4761 0408 8143     		bic	r1, r0
 4762 040a A970     		strb	r1, [r5, #2]
 4763 040c BFE0     		b	.L528
ARM GAS  C:\Users\ZHANGM~1\AppData\Local\Temp\cccEtK9g.s 			page 121


 4764              	.L566:
1825:.\fun.c       ****             
1826:.\fun.c       ****             }  
1827:.\fun.c       ****             
1828:.\fun.c       ****             
1829:.\fun.c       ****         
1830:.\fun.c       ****         }
1831:.\fun.c       ****         
1832:.\fun.c       ****         
1833:.\fun.c       ****         
1834:.\fun.c       ****         else if(WorkFlag.shoudongbysta)//手动保养模式****************************************
 4765              		.loc 1 1834 0
 4766 040e 2E78     		ldrb	r6, [r5]
 4767 0410 4021     		mov	r1, #64
 4768 0412 3140     		and	r1, r6
 4769 0414 0396     		str	r6, [sp, #12]
 4770 0416 0291     		str	r1, [sp, #8]
 4771 0418 674F     		ldr	r7, .L632+36
 4772 041a 31D0     		beq	.L573
1835:.\fun.c       ****         {
1836:.\fun.c       ****             
1837:.\fun.c       ****             DisFlag.workingsignflash =0;//制水指示灯不闪
1838:.\fun.c       ****             
1839:.\fun.c       ****             chongxifig=1;//进入手动保养状态 冲洗计时标志开始
1840:.\fun.c       ****             
1841:.\fun.c       ****             
1842:.\fun.c       **** //            if(chongxicnt < 450) //450 * 100ms = 45S
1843:.\fun.c       ****             if(chongxicnt < 600) //600 * 100ms = 60S
 4773              		.loc 1 1843 0
 4774 041c 674A     		ldr	r2, .L632+40
1839:.\fun.c       ****             chongxifig=1;//进入手动保养状态 冲洗计时标志开始
 4775              		.loc 1 1839 0
 4776 041e 6849     		ldr	r1, .L632+44
 4777              		.loc 1 1843 0
 4778 0420 1688     		ldrh	r6, [r2]
1837:.\fun.c       ****             DisFlag.workingsignflash =0;//制水指示灯不闪
 4779              		.loc 1 1837 0
 4780 0422 BB78     		ldrb	r3, [r7, #2]
1839:.\fun.c       ****             chongxifig=1;//进入手动保养状态 冲洗计时标志开始
 4781              		.loc 1 1839 0
 4782 0424 0124     		mov	r4, #1
 4783 0426 0C70     		strb	r4, [r1]
 4784              		.loc 1 1843 0
 4785 0428 0196     		str	r6, [sp, #4]
 4786 042a 1024     		mov	r4, #16
 4787 042c A343     		bic	r3, r4
 4788 042e 019E     		ldr	r6, [sp, #4]
 4789 0430 644C     		ldr	r4, .L632+48
 4790 0432 A642     		cmp	r6, r4
 4791 0434 09D8     		bhi	.L574
1844:.\fun.c       ****             {
1845:.\fun.c       ****                DisFlag.cleaningsignflash=1;
 4792              		.loc 1 1845 0
 4793 0436 4020     		mov	r0, #64
 4794 0438 0343     		orr	r3, r0
 4795 043a BB70     		strb	r3, [r7, #2]
1846:.\fun.c       ****                K2_Write(1);    //打开冲洗电磁阀
ARM GAS  C:\Users\ZHANGM~1\AppData\Local\Temp\cccEtK9g.s 			page 122


 4796              		.loc 1 1846 0
 4797 043c 0120     		mov	r0, #1
 4798 043e FFF7FEFF 		bl	K2_Write
 4799              	.LVL67:
1847:.\fun.c       ****                K1_Write(1);   //打开进水电磁阀 
 4800              		.loc 1 1847 0
 4801 0442 0120     		mov	r0, #1
 4802 0444 FFF7FEFF 		bl	K1_Write
 4803              	.LVL68:
 4804 0448 0CE0     		b	.L575
 4805              	.L574:
1848:.\fun.c       ****             }
1849:.\fun.c       ****             else
1850:.\fun.c       ****             {
1851:.\fun.c       ****                 WorkFlag.shoudongbysta = 0;
1852:.\fun.c       ****                 //if(chongxicnt >=600)
1853:.\fun.c       ****                 	WorkFlag.shoudongbystabak = 0;
 4806              		.loc 1 1853 0
 4807 044a 039E     		ldr	r6, [sp, #12]
 4808 044c 4024     		mov	r4, #64
 4809 044e A643     		bic	r6, r4
 4810 0450 7F24     		mov	r4, #127
 4811 0452 2640     		and	r6, r4
 4812 0454 2E70     		strb	r6, [r5]
1854:.\fun.c       ****                 //WorkFlag.worksta = 1;
1855:.\fun.c       ****                 chongxifig = 0;//手动保养结束清标志位
 4813              		.loc 1 1855 0
 4814 0456 0870     		strb	r0, [r1]
1856:.\fun.c       ****                 chongxicnt=0;
1857:.\fun.c       ****                 DisFlag.cleaningsignflash=0;
 4815              		.loc 1 1857 0
 4816 0458 4021     		mov	r1, #64
 4817 045a 8B43     		bic	r3, r1
1856:.\fun.c       ****                 chongxicnt=0;
 4818              		.loc 1 1856 0
 4819 045c 1080     		strh	r0, [r2]
 4820              		.loc 1 1857 0
 4821 045e BB70     		strb	r3, [r7, #2]
1858:.\fun.c       ****                 K2_Write(0); 
 4822              		.loc 1 1858 0
 4823 0460 FFF7FEFF 		bl	K2_Write
 4824              	.LVL69:
 4825              	.L575:
1859:.\fun.c       ****                  
1860:.\fun.c       ****             }
1861:.\fun.c       ****             if(WorkFlag.gyfull==0)//如果在自动冲洗的时候检测高压开关闭合,则退
 4826              		.loc 1 1861 0
 4827 0464 584B     		ldr	r3, .L632+52
 4828 0466 1022     		mov	r2, #16
 4829 0468 D878     		ldrb	r0, [r3, #3]
 4830 046a 1040     		and	r0, r2
 4831 046c 00D0     		beq	.LCB4485
 4832 046e 8EE0     		b	.L528	@long jump
 4833              	.LCB4485:
1862:.\fun.c       ****             {
1863:.\fun.c       ****                 WorkFlag.shoudongbysta = 0;
 4834              		.loc 1 1863 0
ARM GAS  C:\Users\ZHANGM~1\AppData\Local\Temp\cccEtK9g.s 			page 123


 4835 0470 1E78     		ldrb	r6, [r3]
 4836 0472 4024     		mov	r4, #64
 4837 0474 A643     		bic	r6, r4
 4838 0476 1E70     		strb	r6, [r3]
1864:.\fun.c       ****                 //if(chongxicnt >= 600) 
1865:.\fun.c       ****                 	//WorkFlag.shoudongbystabak = 1;
1866:.\fun.c       ****                 //WorkFlag.worksta = 1;
1867:.\fun.c       ****                 //chongxifig = 0;//手动保养结束清标志位
1868:.\fun.c       ****                 // chongxicnt=0;
1869:.\fun.c       ****                 DisFlag.cleaningsignflash=0;
 4839              		.loc 1 1869 0
 4840 0478 BD78     		ldrb	r5, [r7, #2]
 4841 047a A543     		bic	r5, r4
 4842 047c BD70     		strb	r5, [r7, #2]
 4843 047e 3CE0     		b	.L629
 4844              	.L573:
1870:.\fun.c       ****                 K2_Write(0);                                     
1871:.\fun.c       ****             }   
1872:.\fun.c       ****                 
1873:.\fun.c       ****         }      
1874:.\fun.c       ****                      
1875:.\fun.c       ****                   
1876:.\fun.c       ****         else if(WorkFlag.zidongbysta)//自动保养模式*****************************
 4845              		.loc 1 1876 0
 4846 0480 EE78     		ldrb	r6, [r5, #3]
 4847 0482 0420     		mov	r0, #4
 4848 0484 8446     		mov	ip, r0
 4849 0486 3040     		and	r0, r6
 4850 0488 3AD0     		beq	.L576
1877:.\fun.c       ****             
1878:.\fun.c       ****         {
1879:.\fun.c       ****            //BUZfkg=1;            
1880:.\fun.c       ****             DisFlag.workingsignflash =0;//制水指示灯不闪            
 4851              		.loc 1 1880 0
 4852 048a BB78     		ldrb	r3, [r7, #2]
 4853 048c 1024     		mov	r4, #16
 4854 048e A343     		bic	r3, r4
 4855 0490 BB70     		strb	r3, [r7, #2]
1881:.\fun.c       ****             chongxifig=1;//进入自动保养状态 冲洗计时标志开始                       
 4856              		.loc 1 1881 0
 4857 0492 4B4A     		ldr	r2, .L632+44
1882:.\fun.c       ****             if(chongxicnt < 600) //600 * 100ms = 60S
 4858              		.loc 1 1882 0
 4859 0494 494B     		ldr	r3, .L632+40
1881:.\fun.c       ****             chongxifig=1;//进入自动保养状态 冲洗计时标志开始                       
 4860              		.loc 1 1881 0
 4861 0496 0120     		mov	r0, #1
 4862 0498 1070     		strb	r0, [r2]
 4863 049a 3C1C     		mov	r4, r7
 4864              		.loc 1 1882 0
 4865 049c 1888     		ldrh	r0, [r3]
 4866 049e 494F     		ldr	r7, .L632+48
 4867 04a0 B842     		cmp	r0, r7
 4868 04a2 0AD8     		bhi	.L577
1883:.\fun.c       ****             {
1884:.\fun.c       ****                DisFlag.cleaningsignflash=1;
 4869              		.loc 1 1884 0
ARM GAS  C:\Users\ZHANGM~1\AppData\Local\Temp\cccEtK9g.s 			page 124


 4870 04a4 A578     		ldrb	r5, [r4, #2]
 4871 04a6 4026     		mov	r6, #64
 4872 04a8 3543     		orr	r5, r6
 4873 04aa A570     		strb	r5, [r4, #2]
1885:.\fun.c       ****                K2_Write(1);    //打开冲洗电磁阀
 4874              		.loc 1 1885 0
 4875 04ac 0120     		mov	r0, #1
 4876 04ae FFF7FEFF 		bl	K2_Write
 4877              	.LVL70:
1886:.\fun.c       ****                K1_Write(1);   //打开进水电磁阀 ，
 4878              		.loc 1 1886 0
 4879 04b2 0120     		mov	r0, #1
 4880 04b4 FFF7FEFF 		bl	K1_Write
 4881              	.LVL71:
 4882 04b8 13E0     		b	.L578
 4883              	.L577:
1887:.\fun.c       ****             }
1888:.\fun.c       ****             else
1889:.\fun.c       ****             {
1890:.\fun.c       ****                 WorkFlag.zidongbysta = 0;
 4884              		.loc 1 1890 0
 4885 04ba 6046     		mov	r0, ip
 4886 04bc 8643     		bic	r6, r0
 4887 04be EE70     		strb	r6, [r5, #3]
1891:.\fun.c       ****                 //WorkFlag.worksta = 1;
1892:.\fun.c       ****                 chongxifig = 0;//手动保养结束清标志位
1893:.\fun.c       ****                 chongxicnt=0;
 4888              		.loc 1 1893 0
 4889 04c0 6D46     		mov	r5, sp
 4890 04c2 0826     		mov	r6, #8
1892:.\fun.c       ****                 chongxifig = 0;//手动保养结束清标志位
 4891              		.loc 1 1892 0
 4892 04c4 1170     		strb	r1, [r2]
 4893              		.loc 1 1893 0
 4894 04c6 725B     		ldrh	r2, [r6, r5]
 4895 04c8 1A80     		strh	r2, [r3]
1894:.\fun.c       ****                 if(gyfullcnt>=4)//zhm
 4896              		.loc 1 1894 0
 4897 04ca 019B     		ldr	r3, [sp, #4]
 4898 04cc 032B     		cmp	r3, #3
 4899 04ce 01D9     		bls	.L579
1895:.\fun.c       ****                 gyfullcnt=0;
 4900              		.loc 1 1895 0
 4901 04d0 314F     		ldr	r7, .L632+4
 4902 04d2 3970     		strb	r1, [r7]
 4903              	.L579:
1896:.\fun.c       ****                 DisFlag.cleaningsignflash=0;
 4904              		.loc 1 1896 0
 4905 04d4 A178     		ldrb	r1, [r4, #2]
 4906 04d6 4020     		mov	r0, #64
 4907 04d8 8143     		bic	r1, r0
 4908 04da A170     		strb	r1, [r4, #2]
1897:.\fun.c       ****                 K2_Write(0); 
 4909              		.loc 1 1897 0
 4910 04dc 0020     		mov	r0, #0
 4911 04de FFF7FEFF 		bl	K2_Write
 4912              	.LVL72:
ARM GAS  C:\Users\ZHANGM~1\AppData\Local\Temp\cccEtK9g.s 			page 125


 4913              	.L578:
1898:.\fun.c       ****                  
1899:.\fun.c       ****             }                           
1900:.\fun.c       ****             if(WorkFlag.gyfull==0)//如果在自动冲洗的时候检测高压开关闭合,则退
 4914              		.loc 1 1900 0
 4915 04e2 394B     		ldr	r3, .L632+52
 4916 04e4 1020     		mov	r0, #16
 4917 04e6 DA78     		ldrb	r2, [r3, #3]
 4918 04e8 1040     		and	r0, r2
 4919 04ea 50D1     		bne	.L528
1901:.\fun.c       ****             {
1902:.\fun.c       ****                 
1903:.\fun.c       ****                 WorkFlag.zidongbysta = 0;
 4920              		.loc 1 1903 0
 4921 04ec 0427     		mov	r7, #4
 4922 04ee BA43     		bic	r2, r7
 4923 04f0 DA70     		strb	r2, [r3, #3]
1904:.\fun.c       ****                 DisFlag.cleaningsignflash=0;
 4924              		.loc 1 1904 0
 4925 04f2 A178     		ldrb	r1, [r4, #2]
 4926 04f4 4025     		mov	r5, #64
 4927 04f6 A943     		bic	r1, r5
 4928 04f8 A170     		strb	r1, [r4, #2]
 4929              	.L629:
1905:.\fun.c       ****                 K2_Write(0); 
 4930              		.loc 1 1905 0
 4931 04fa FFF7FEFF 		bl	K2_Write
 4932              	.LVL73:
 4933 04fe 46E0     		b	.L528
 4934              	.L576:
1906:.\fun.c       ****             
1907:.\fun.c       ****             
1908:.\fun.c       ****             
1909:.\fun.c       ****             }                                    
1910:.\fun.c       ****         }    
1911:.\fun.c       ****            
1912:.\fun.c       **** //        else if(WorkFlag.gyfull==0&&WorkFlag.nowater==0)//制水模式,压力罐水不满时候**
1913:.\fun.c       ****         else if(WorkFlag.gyfull==0)//制水模式,压力罐水不满时候*************************
 4935              		.loc 1 1913 0
 4936 0500 1024     		mov	r4, #16
 4937 0502 2640     		and	r6, r4
 4938 0504 314C     		ldr	r4, .L632+56
 4939 0506 19D1     		bne	.L580
1914:.\fun.c       ****         {
1915:.\fun.c       ****             
1916:.\fun.c       ****             K1_Write(1);            //打开进水电子阀
 4940              		.loc 1 1916 0
 4941 0508 0120     		mov	r0, #1
 4942 050a FFF7FEFF 		bl	K1_Write
 4943              	.LVL74:
1917:.\fun.c       ****             K2_Write(0); 
 4944              		.loc 1 1917 0
 4945 050e 301C     		mov	r0, r6
 4946 0510 FFF7FEFF 		bl	K2_Write
 4947              	.LVL75:
1918:.\fun.c       ****             DisFlag.cleaningsignflash=0;//冲洗指示灯不闪
 4948              		.loc 1 1918 0
ARM GAS  C:\Users\ZHANGM~1\AppData\Local\Temp\cccEtK9g.s 			page 126


 4949 0514 BA78     		ldrb	r2, [r7, #2]
1919:.\fun.c       ****             WorkFlag02.close_value_sendingcmp=1;
 4950              		.loc 1 1919 0
 4951 0516 2378     		ldrb	r3, [r4]
1920:.\fun.c       ****             DisFlag.workingsignflash =1;//制水指示灯开始闪烁
 4952              		.loc 1 1920 0
 4953 0518 4026     		mov	r6, #64
1919:.\fun.c       ****             WorkFlag02.close_value_sendingcmp=1;
 4954              		.loc 1 1919 0
 4955 051a 0221     		mov	r1, #2
 4956              		.loc 1 1920 0
 4957 051c B243     		bic	r2, r6
 4958 051e 1020     		mov	r0, #16
 4959 0520 0243     		orr	r2, r0
1919:.\fun.c       ****             WorkFlag02.close_value_sendingcmp=1;
 4960              		.loc 1 1919 0
 4961 0522 0B43     		orr	r3, r1
 4962 0524 2370     		strb	r3, [r4]
 4963              		.loc 1 1920 0
 4964 0526 BA70     		strb	r2, [r7, #2]
1921:.\fun.c       ****             WorkFlag.jishi = 1;     //开始寿命计数    
 4965              		.loc 1 1921 0
 4966 0528 2F78     		ldrb	r7, [r5]
 4967 052a 0822     		mov	r2, #8
 4968 052c 1743     		orr	r7, r2
 4969 052e 2F70     		strb	r7, [r5]
1922:.\fun.c       ****             if(WorkFlag02.open_value_sendingcmp==1)//开龙头发送完成标志	
 4970              		.loc 1 1922 0
 4971 0530 0125     		mov	r5, #1
 4972 0532 2B42     		tst	r3, r5
 4973 0534 2BD0     		beq	.L528
1923:.\fun.c       ****             	{
1924:.\fun.c       ****             		WorkFlag02.open_value_sendingcmp=0;
 4974              		.loc 1 1924 0
 4975 0536 AB43     		bic	r3, r5
 4976 0538 2370     		strb	r3, [r4]
 4977 053a 12E0     		b	.L628
 4978              	.L580:
1925:.\fun.c       ****             		Load_Command(HOST_FILTER_USED_TIME_DATA);
1926:.\fun.c       ****             	}
1927:.\fun.c       ****    
1928:.\fun.c       ****         }  
1929:.\fun.c       ****         else if(WorkFlag.gyfull==1) //压力罐水满)
1930:.\fun.c       ****         {
1931:.\fun.c       ****             K1_Write(0); //进水电磁阀关闭 
 4979              		.loc 1 1931 0
 4980 053c FFF7FEFF 		bl	K1_Write
 4981              	.LVL76:
1932:.\fun.c       ****             DisFlag.workingsignflash =0;//水满停止制水灯不闪烁
 4982              		.loc 1 1932 0
 4983 0540 BB78     		ldrb	r3, [r7, #2]
 4984 0542 1022     		mov	r2, #16
 4985 0544 9343     		bic	r3, r2
 4986 0546 BB70     		strb	r3, [r7, #2]
1933:.\fun.c       ****             WorkFlag02.open_value_sendingcmp=1;
 4987              		.loc 1 1933 0
 4988 0548 2178     		ldrb	r1, [r4]
ARM GAS  C:\Users\ZHANGM~1\AppData\Local\Temp\cccEtK9g.s 			page 127


 4989 054a 0127     		mov	r7, #1
 4990 054c 0F43     		orr	r7, r1
 4991 054e 2770     		strb	r7, [r4]
1934:.\fun.c       ****             WorkFlag.jishi = 0; //制水计时标志置0
 4992              		.loc 1 1934 0
 4993 0550 2E78     		ldrb	r6, [r5]
 4994 0552 0820     		mov	r0, #8
 4995 0554 8643     		bic	r6, r0
 4996 0556 2E70     		strb	r6, [r5]
1935:.\fun.c       ****             if(WorkFlag02.close_value_sendingcmp==1)//开龙头发送完成标志 
 4997              		.loc 1 1935 0
 4998 0558 0225     		mov	r5, #2
 4999 055a 2F42     		tst	r7, r5
 5000 055c 17D0     		beq	.L528
1936:.\fun.c       ****             	{
1937:.\fun.c       ****             		WorkFlag02.close_value_sendingcmp=0;
 5001              		.loc 1 1937 0
 5002 055e AF43     		bic	r7, r5
 5003 0560 2770     		strb	r7, [r4]
 5004              	.L628:
1938:.\fun.c       ****             		Load_Command(HOST_FILTER_USED_TIME_DATA);
 5005              		.loc 1 1938 0
 5006 0562 1B48     		ldr	r0, .L632+60
 5007 0564 FFF7FEFF 		bl	Load_Command
 5008              	.LVL77:
 5009 0568 11E0     		b	.L528
 5010              	.L569:
1818:.\fun.c       ****             if((KEYNB)==1||(KEYXZ)==1||(KEYFW)==1||(KEYQX)==1)//在待机状下点按任意键蜂
 5011              		.loc 1 1818 0
 5012 056a 0223     		mov	r3, #2
 5013 056c 1E42     		tst	r6, r3
 5014 056e 04D0     		beq	.L570
 5015              	.L582:
1818:.\fun.c       ****             if((KEYNB)==1||(KEYXZ)==1||(KEYFW)==1||(KEYQX)==1)//在待机状下点按任意键蜂
 5016              		.loc 1 1818 0 is_stmt 0 discriminator 1
 5017 0570 0D4A     		ldr	r2, .L632+20
 5018 0572 1478     		ldrb	r4, [r2]
 5019 0574 1C42     		tst	r4, r3
 5020 0576 00D1     		bne	.LCB4667
 5021 0578 38E7     		b	.L568	@long jump
 5022              	.LCB4667:
 5023              	.L570:
1818:.\fun.c       ****             if((KEYNB)==1||(KEYXZ)==1||(KEYFW)==1||(KEYQX)==1)//在待机状下点按任意键蜂
 5024              		.loc 1 1818 0
 5025 057a 0127     		mov	r7, #1
 5026 057c 3E42     		tst	r6, r7
 5027 057e 00D1     		bne	.LCB4674
 5028 0580 37E7     		b	.L571	@long jump
 5029              	.LCB4674:
 5030              	.L583:
1818:.\fun.c       ****             if((KEYNB)==1||(KEYXZ)==1||(KEYFW)==1||(KEYQX)==1)//在待机状下点按任意键蜂
 5031              		.loc 1 1818 0 discriminator 1
 5032 0582 094E     		ldr	r6, .L632+20
 5033 0584 3178     		ldrb	r1, [r6]
 5034 0586 3942     		tst	r1, r7
 5035 0588 00D0     		beq	.LCB4682
 5036 058a 32E7     		b	.L571	@long jump
ARM GAS  C:\Users\ZHANGM~1\AppData\Local\Temp\cccEtK9g.s 			page 128


 5037              	.LCB4682:
 5038 058c 2EE7     		b	.L568
 5039              	.L528:
1939:.\fun.c       ****             	}
1940:.\fun.c       ****         }        
1941:.\fun.c       ****             
1942:.\fun.c       ****          
1943:.\fun.c       ****       
1944:.\fun.c       ****             
1945:.\fun.c       ****     }    
1946:.\fun.c       **** 
1947:.\fun.c       ****     
1948:.\fun.c       ****           
1949:.\fun.c       **** }
 5040              		.loc 1 1949 0 is_stmt 1
 5041 058e 05B0     		add	sp, sp, #20
 5042              		@ sp needed for prologue
 5043 0590 F0BD     		pop	{r4, r5, r6, r7, pc}
 5044              	.L633:
 5045 0592 C046     		.align	2
 5046              	.L632:
 5047 0594 00000000 		.word	workstartfig
 5048 0598 00000000 		.word	gyfullcnt
 5049 059c 80000010 		.word	268435584
 5050 05a0 00000000 		.word	BtnData1
 5051 05a4 00000000 		.word	LedPannelBuf
 5052 05a8 00000000 		.word	BtnData2
 5053 05ac 00000000 		.word	BUZfkg
 5054 05b0 00000000 		.word	standflashcnt
 5055 05b4 00000000 		.word	standkeycnt
 5056 05b8 00000000 		.word	DisFlag
 5057 05bc 00000000 		.word	chongxicnt
 5058 05c0 00000000 		.word	chongxifig
 5059 05c4 57020000 		.word	599
 5060 05c8 00000000 		.word	WorkFlag
 5061 05cc 00000000 		.word	WorkFlag02
 5062 05d0 02900000 		.word	36866
 5063              		.cfi_endproc
 5064              	.LFE45:
 5065              		.size	Work_Fun, .-Work_Fun
 5066              		.comm	Counter_Key,1,1
 5067              		.comm	Filter_Changed_Num,24,2
 5068              		.comm	Filter_Full_Data_Buf,12,2
 5069              		.comm	Filter_Manage_Num,1,1
 5070              		.comm	Error_Counter,1,1
 5071              		.comm	Value_Flow,2,2
 5072              		.comm	Value_T,1,1
 5073              		.comm	Value_Loushui_Ad,2,2
 5074              		.comm	Value_Tds1,2,2
 5075              		.comm	Value_Tds0,2,2
 5076              		.comm	shuibumanfig,1,1
 5077              		.comm	jserrorcntfig,1,1
 5078              		.comm	jserrorcnt,1,1
 5079              		.comm	poweroverfig,1,1
 5080              		.comm	V24cnt,2,2
 5081              		.comm	PowerOnCnt01,1,1
 5082              		.comm	PowerOnCnt00,2,2
ARM GAS  C:\Users\ZHANGM~1\AppData\Local\Temp\cccEtK9g.s 			page 129


 5083              		.comm	StandByCnt,2,2
 5084              		.comm	cleareepromArrayflag,1,1
 5085              		.comm	LvXinNum1,1,1
 5086              		.comm	LvXinNum,1,1
 5087              		.comm	EEgyfullcnt,1,1
 5088              		.comm	WorkFlag01_Dispcnt,1,1
 5089              		.comm	fastjishicnt,2,2
 5090              		.comm	yanshidisfig,1,1
 5091              		.comm	fastjishifig,1,1
 5092              		.comm	n,1,1
 5093              		.comm	fastcnt,1,1
 5094              		.comm	fastfig,1,1
 5095              		.comm	yanshifig,1,1
 5096              		.comm	yanshicnt,1,1
 5097              		.comm	faststa,1,1
 5098              		.comm	Tds_Ack_Timer,1,1
 5099              		.comm	MP_N,2,2
 5100              		.comm	LP_N,2,2
 5101              		.comm	KP_N,2,2
 5102              		.comm	JP_N,2,2
 5103              		.comm	HP_N,2,2
 5104              		.comm	SP_N,2,2
 5105              		.comm	MP,2,2
 5106              		.comm	LP,2,2
 5107              		.comm	KP,2,2
 5108              		.comm	JP,2,2
 5109              		.comm	HP,2,2
 5110              		.comm	SP,2,2
 5111              		.comm	Tds_Dispcnt,2,2
 5112              		.comm	LvxinJishi,24,2
 5113              		.comm	LianXuJiShi,4,4
 5114              		.comm	EEjingshuiliang,2,2
 5115              		.comm	jingshuiliang,2,2
 5116              		.comm	Error_Data,4,4
 5117              		.comm	Work_State,4,4
 5118              		.comm	Switch_Data,4,4
 5119              		.comm	WorkFlag01,4,4
 5120              		.comm	WorkFlag,4,4
 5121              		.comm	WorkFlag02,4,4
 5122              		.comm	ErrorFlag,4,4
 5123              		.comm	lvxindaoqifig,1,1
 5124              		.comm	lvxinbaojingcnt,1,1
 5125              		.comm	waterfullfig,1,1
 5126              		.comm	GYfig1,1,1
 5127              		.comm	GYcnt1,1,1
 5128              		.comm	Mfig,1,1
 5129              		.comm	Lfig,1,1
 5130              		.comm	Kfig,1,1
 5131              		.comm	Jfig,1,1
 5132              		.comm	Hfig,1,1
 5133              		.comm	Sfig,1,1
 5134              		.comm	gyfullcnt,1,1
 5135              		.comm	GYcnt,1,1
 5136              		.comm	GYfig,1,1
 5137              		.comm	workstartfig,1,1
 5138              		.comm	zijiandisplayfig,1,1
 5139              		.comm	jishihour,1,1
ARM GAS  C:\Users\ZHANGM~1\AppData\Local\Temp\cccEtK9g.s 			page 130


 5140              		.comm	onehourcnt,1,1
 5141              		.comm	jixingnumber,1,1
 5142              		.comm	zijianstacnt,1,1
 5143              		.comm	standkeycnt,2,2
 5144              		.comm	standflashcnt,2,2
 5145              		.comm	eroorcnt,2,2
 5146              		.comm	jingshuicnt,2,2
 5147              		.comm	NBmint,2,2
 5148              		.comm	onemincnt,2,2
 5149              		.comm	LXXZstandcnt,2,2
 5150              		.comm	NBstandcnt,2,2
 5151              		.comm	chongxicnt,2,2
 5152              		.comm	PressFlag,4,4
 5153              		.comm	chongxifig,1,1
 5154              		.comm	WifiPressCnt,1,1
 5155              		.comm	XzPressCnt,1,1
 5156              		.comm	lXXZcnt_fig,1,1
 5157              		.comm	LXXZOUT_fig,1,1
 5158              		.comm	NBPressStart,1,1
 5159              		.comm	NBPressCnt,1,1
 5160              		.comm	NBfig,1,1
 5161              		.comm	NbPressCnt,1,1
 5162              		.comm	PowerOnOneHourCnt,4,4
 5163              		.comm	DYWDcnt1,2,2
 5164              		.comm	DYWDcnt,1,1
 5165              		.comm	DYWDfig1,1,1
 5166              		.comm	DYWDfig,1,1
 5167              		.comm	standstar_fig,1,1
 5168              		.comm	liucheng4,1,1
 5169              		.comm	liucheng3,1,1
 5170              		.comm	liucheng2,1,1
 5171              		.comm	liucheng1,1,1
 5172              		.comm	standkeyfig,1,1
 5173              		.comm	standflashfig,1,1
 5174              		.comm	BUZqueshuifkg,1,1
 5175              		.comm	BUZfkgtemp,1,1
 5176              		.comm	qushui_BUZcnt,1,1
 5177              		.comm	BUZfkg,1,1
 5178              		.comm	eefig,1,1
 5179              		.comm	BuzzerDly,1,1
 5180              		.comm	BuzzerCnt,1,1
 5181              		.comm	BuzzerNum,1,1
 5182              		.comm	BuzzerFlag,4,4
 5183              		.text
 5184              	.Letext0:
 5185              		.file 2 "./Generated_Source/PSoC4/cytypes.h"
 5186              		.file 3 ".\\fun.h"
 5187              		.file 4 ".\\display.h"
 5188              		.file 5 ".\\uart_wifi.h"
 5189              		.file 6 ".\\module.h"
 5190              		.file 7 "./Generated_Source/PSoC4/PWM.h"
 5191              		.file 8 "./Generated_Source/PSoC4/DYWD.h"
 5192              		.file 9 "./Generated_Source/PSoC4/GYWD.h"
 5193              		.file 10 "./Generated_Source/PSoC4/K1.h"
 5194              		.file 11 "./Generated_Source/PSoC4/CX.h"
 5195              		.file 12 "./Generated_Source/PSoC4/K2.h"
 5196              		.file 13 "./Generated_Source/PSoC4/JS.h"
ARM GAS  C:\Users\ZHANGM~1\AppData\Local\Temp\cccEtK9g.s 			page 131


 5197              		.file 14 "./Generated_Source/PSoC4/CyLib.h"
 5198              		.section	.debug_info,"",%progbits
 5199              	.Ldebug_info0:
 5200 0000 D3160000 		.4byte	0x16d3
 5201 0004 0200     		.2byte	0x2
 5202 0006 00000000 		.4byte	.Ldebug_abbrev0
 5203 000a 04       		.byte	0x4
 5204 000b 01       		.uleb128 0x1
 5205 000c EB0A0000 		.4byte	.LASF267
 5206 0010 01       		.byte	0x1
 5207 0011 89050000 		.4byte	.LASF268
 5208 0015 DC070000 		.4byte	.LASF269
 5209 0019 00000000 		.4byte	.Ldebug_ranges0+0
 5210 001d 00000000 		.4byte	0
 5211 0021 00000000 		.4byte	0
 5212 0025 00000000 		.4byte	.Ldebug_line0
 5213 0029 02       		.uleb128 0x2
 5214 002a 01       		.byte	0x1
 5215 002b 06       		.byte	0x6
 5216 002c 9B0A0000 		.4byte	.LASF0
 5217 0030 02       		.uleb128 0x2
 5218 0031 01       		.byte	0x1
 5219 0032 08       		.byte	0x8
 5220 0033 91090000 		.4byte	.LASF1
 5221 0037 02       		.uleb128 0x2
 5222 0038 02       		.byte	0x2
 5223 0039 05       		.byte	0x5
 5224 003a 8A070000 		.4byte	.LASF2
 5225 003e 02       		.uleb128 0x2
 5226 003f 02       		.byte	0x2
 5227 0040 07       		.byte	0x7
 5228 0041 BD0A0000 		.4byte	.LASF3
 5229 0045 02       		.uleb128 0x2
 5230 0046 04       		.byte	0x4
 5231 0047 05       		.byte	0x5
 5232 0048 B3070000 		.4byte	.LASF4
 5233 004c 02       		.uleb128 0x2
 5234 004d 04       		.byte	0x4
 5235 004e 07       		.byte	0x7
 5236 004f E9080000 		.4byte	.LASF5
 5237 0053 02       		.uleb128 0x2
 5238 0054 08       		.byte	0x8
 5239 0055 05       		.byte	0x5
 5240 0056 7B050000 		.4byte	.LASF6
 5241 005a 02       		.uleb128 0x2
 5242 005b 08       		.byte	0x8
 5243 005c 07       		.byte	0x7
 5244 005d 10030000 		.4byte	.LASF7
 5245 0061 03       		.uleb128 0x3
 5246 0062 04       		.byte	0x4
 5247 0063 05       		.byte	0x5
 5248 0064 696E7400 		.ascii	"int\000"
 5249 0068 02       		.uleb128 0x2
 5250 0069 04       		.byte	0x4
 5251 006a 07       		.byte	0x7
 5252 006b 0B010000 		.4byte	.LASF8
 5253 006f 04       		.uleb128 0x4
ARM GAS  C:\Users\ZHANGM~1\AppData\Local\Temp\cccEtK9g.s 			page 132


 5254 0070 700B0000 		.4byte	.LASF9
 5255 0074 02       		.byte	0x2
 5256 0075 5B       		.byte	0x5b
 5257 0076 30000000 		.4byte	0x30
 5258 007a 04       		.uleb128 0x4
 5259 007b 2E050000 		.4byte	.LASF10
 5260 007f 02       		.byte	0x2
 5261 0080 5C       		.byte	0x5c
 5262 0081 3E000000 		.4byte	0x3e
 5263 0085 04       		.uleb128 0x4
 5264 0086 2C060000 		.4byte	.LASF11
 5265 008a 02       		.byte	0x2
 5266 008b 5D       		.byte	0x5d
 5267 008c 4C000000 		.4byte	0x4c
 5268 0090 02       		.uleb128 0x2
 5269 0091 04       		.byte	0x4
 5270 0092 04       		.byte	0x4
 5271 0093 98020000 		.4byte	.LASF12
 5272 0097 02       		.uleb128 0x2
 5273 0098 08       		.byte	0x8
 5274 0099 04       		.byte	0x4
 5275 009a 760B0000 		.4byte	.LASF13
 5276 009e 02       		.uleb128 0x2
 5277 009f 01       		.byte	0x1
 5278 00a0 08       		.byte	0x8
 5279 00a1 F4040000 		.4byte	.LASF14
 5280 00a5 02       		.uleb128 0x2
 5281 00a6 04       		.byte	0x4
 5282 00a7 07       		.byte	0x7
 5283 00a8 D7080000 		.4byte	.LASF15
 5284 00ac 05       		.uleb128 0x5
 5285 00ad 04       		.byte	0x4
 5286 00ae 03       		.byte	0x3
 5287 00af 1B       		.byte	0x1b
 5288 00b0 D6000000 		.4byte	0xd6
 5289 00b4 06       		.uleb128 0x6
 5290 00b5 AD080000 		.4byte	.LASF16
 5291 00b9 03       		.byte	0x3
 5292 00ba 1C       		.byte	0x1c
 5293 00bb 68000000 		.4byte	0x68
 5294 00bf 04       		.byte	0x4
 5295 00c0 01       		.byte	0x1
 5296 00c1 1F       		.byte	0x1f
 5297 00c2 02       		.byte	0x2
 5298 00c3 23       		.byte	0x23
 5299 00c4 00       		.uleb128 0
 5300 00c5 07       		.uleb128 0x7
 5301 00c6 656E00   		.ascii	"en\000"
 5302 00c9 03       		.byte	0x3
 5303 00ca 1D       		.byte	0x1d
 5304 00cb 68000000 		.4byte	0x68
 5305 00cf 04       		.byte	0x4
 5306 00d0 01       		.byte	0x1
 5307 00d1 1E       		.byte	0x1e
 5308 00d2 02       		.byte	0x2
 5309 00d3 23       		.byte	0x23
 5310 00d4 00       		.uleb128 0
ARM GAS  C:\Users\ZHANGM~1\AppData\Local\Temp\cccEtK9g.s 			page 133


 5311 00d5 00       		.byte	0
 5312 00d6 05       		.uleb128 0x5
 5313 00d7 04       		.byte	0x4
 5314 00d8 03       		.byte	0x3
 5315 00d9 57       		.byte	0x57
 5316 00da F0000000 		.4byte	0xf0
 5317 00de 06       		.uleb128 0x6
 5318 00df A0080000 		.4byte	.LASF17
 5319 00e3 03       		.byte	0x3
 5320 00e4 58       		.byte	0x58
 5321 00e5 68000000 		.4byte	0x68
 5322 00e9 04       		.byte	0x4
 5323 00ea 01       		.byte	0x1
 5324 00eb 1F       		.byte	0x1f
 5325 00ec 02       		.byte	0x2
 5326 00ed 23       		.byte	0x23
 5327 00ee 00       		.uleb128 0
 5328 00ef 00       		.byte	0
 5329 00f0 05       		.uleb128 0x5
 5330 00f1 04       		.byte	0x4
 5331 00f2 03       		.byte	0x3
 5332 00f3 63       		.byte	0x63
 5333 00f4 92010000 		.4byte	0x192
 5334 00f8 06       		.uleb128 0x6
 5335 00f9 7F000000 		.4byte	.LASF18
 5336 00fd 03       		.byte	0x3
 5337 00fe 65       		.byte	0x65
 5338 00ff 68000000 		.4byte	0x68
 5339 0103 04       		.byte	0x4
 5340 0104 01       		.byte	0x1
 5341 0105 1F       		.byte	0x1f
 5342 0106 02       		.byte	0x2
 5343 0107 23       		.byte	0x23
 5344 0108 00       		.uleb128 0
 5345 0109 06       		.uleb128 0x6
 5346 010a 88000000 		.4byte	.LASF19
 5347 010e 03       		.byte	0x3
 5348 010f 66       		.byte	0x66
 5349 0110 68000000 		.4byte	0x68
 5350 0114 04       		.byte	0x4
 5351 0115 01       		.byte	0x1
 5352 0116 1E       		.byte	0x1e
 5353 0117 02       		.byte	0x2
 5354 0118 23       		.byte	0x23
 5355 0119 00       		.uleb128 0
 5356 011a 06       		.uleb128 0x6
 5357 011b 91000000 		.4byte	.LASF20
 5358 011f 03       		.byte	0x3
 5359 0120 67       		.byte	0x67
 5360 0121 68000000 		.4byte	0x68
 5361 0125 04       		.byte	0x4
 5362 0126 01       		.byte	0x1
 5363 0127 1D       		.byte	0x1d
 5364 0128 02       		.byte	0x2
 5365 0129 23       		.byte	0x23
 5366 012a 00       		.uleb128 0
 5367 012b 06       		.uleb128 0x6
ARM GAS  C:\Users\ZHANGM~1\AppData\Local\Temp\cccEtK9g.s 			page 134


 5368 012c 9A000000 		.4byte	.LASF21
 5369 0130 03       		.byte	0x3
 5370 0131 68       		.byte	0x68
 5371 0132 68000000 		.4byte	0x68
 5372 0136 04       		.byte	0x4
 5373 0137 01       		.byte	0x1
 5374 0138 1C       		.byte	0x1c
 5375 0139 02       		.byte	0x2
 5376 013a 23       		.byte	0x23
 5377 013b 00       		.uleb128 0
 5378 013c 06       		.uleb128 0x6
 5379 013d A3000000 		.4byte	.LASF22
 5380 0141 03       		.byte	0x3
 5381 0142 69       		.byte	0x69
 5382 0143 68000000 		.4byte	0x68
 5383 0147 04       		.byte	0x4
 5384 0148 01       		.byte	0x1
 5385 0149 1B       		.byte	0x1b
 5386 014a 02       		.byte	0x2
 5387 014b 23       		.byte	0x23
 5388 014c 00       		.uleb128 0
 5389 014d 06       		.uleb128 0x6
 5390 014e AC000000 		.4byte	.LASF23
 5391 0152 03       		.byte	0x3
 5392 0153 6A       		.byte	0x6a
 5393 0154 68000000 		.4byte	0x68
 5394 0158 04       		.byte	0x4
 5395 0159 01       		.byte	0x1
 5396 015a 1A       		.byte	0x1a
 5397 015b 02       		.byte	0x2
 5398 015c 23       		.byte	0x23
 5399 015d 00       		.uleb128 0
 5400 015e 06       		.uleb128 0x6
 5401 015f B5000000 		.4byte	.LASF24
 5402 0163 03       		.byte	0x3
 5403 0164 6B       		.byte	0x6b
 5404 0165 68000000 		.4byte	0x68
 5405 0169 04       		.byte	0x4
 5406 016a 01       		.byte	0x1
 5407 016b 19       		.byte	0x19
 5408 016c 02       		.byte	0x2
 5409 016d 23       		.byte	0x23
 5410 016e 00       		.uleb128 0
 5411 016f 06       		.uleb128 0x6
 5412 0170 BE000000 		.4byte	.LASF25
 5413 0174 03       		.byte	0x3
 5414 0175 6C       		.byte	0x6c
 5415 0176 68000000 		.4byte	0x68
 5416 017a 04       		.byte	0x4
 5417 017b 01       		.byte	0x1
 5418 017c 18       		.byte	0x18
 5419 017d 02       		.byte	0x2
 5420 017e 23       		.byte	0x23
 5421 017f 00       		.uleb128 0
 5422 0180 06       		.uleb128 0x6
 5423 0181 C7000000 		.4byte	.LASF26
 5424 0185 03       		.byte	0x3
ARM GAS  C:\Users\ZHANGM~1\AppData\Local\Temp\cccEtK9g.s 			page 135


 5425 0186 6D       		.byte	0x6d
 5426 0187 68000000 		.4byte	0x68
 5427 018b 04       		.byte	0x4
 5428 018c 01       		.byte	0x1
 5429 018d 17       		.byte	0x17
 5430 018e 02       		.byte	0x2
 5431 018f 23       		.byte	0x23
 5432 0190 00       		.uleb128 0
 5433 0191 00       		.byte	0
 5434 0192 05       		.uleb128 0x5
 5435 0193 04       		.byte	0x4
 5436 0194 03       		.byte	0x3
 5437 0195 6F       		.byte	0x6f
 5438 0196 CE010000 		.4byte	0x1ce
 5439 019a 06       		.uleb128 0x6
 5440 019b A9060000 		.4byte	.LASF27
 5441 019f 03       		.byte	0x3
 5442 01a0 71       		.byte	0x71
 5443 01a1 68000000 		.4byte	0x68
 5444 01a5 04       		.byte	0x4
 5445 01a6 01       		.byte	0x1
 5446 01a7 1F       		.byte	0x1f
 5447 01a8 02       		.byte	0x2
 5448 01a9 23       		.byte	0x23
 5449 01aa 00       		.uleb128 0
 5450 01ab 06       		.uleb128 0x6
 5451 01ac D2010000 		.4byte	.LASF28
 5452 01b0 03       		.byte	0x3
 5453 01b1 72       		.byte	0x72
 5454 01b2 68000000 		.4byte	0x68
 5455 01b6 04       		.byte	0x4
 5456 01b7 01       		.byte	0x1
 5457 01b8 1E       		.byte	0x1e
 5458 01b9 02       		.byte	0x2
 5459 01ba 23       		.byte	0x23
 5460 01bb 00       		.uleb128 0
 5461 01bc 06       		.uleb128 0x6
 5462 01bd 32080000 		.4byte	.LASF29
 5463 01c1 03       		.byte	0x3
 5464 01c2 73       		.byte	0x73
 5465 01c3 68000000 		.4byte	0x68
 5466 01c7 04       		.byte	0x4
 5467 01c8 01       		.byte	0x1
 5468 01c9 1D       		.byte	0x1d
 5469 01ca 02       		.byte	0x2
 5470 01cb 23       		.byte	0x23
 5471 01cc 00       		.uleb128 0
 5472 01cd 00       		.byte	0
 5473 01ce 05       		.uleb128 0x5
 5474 01cf 04       		.byte	0x4
 5475 01d0 03       		.byte	0x3
 5476 01d1 75       		.byte	0x75
 5477 01d2 D5030000 		.4byte	0x3d5
 5478 01d6 06       		.uleb128 0x6
 5479 01d7 AE010000 		.4byte	.LASF30
 5480 01db 03       		.byte	0x3
 5481 01dc 76       		.byte	0x76
ARM GAS  C:\Users\ZHANGM~1\AppData\Local\Temp\cccEtK9g.s 			page 136


 5482 01dd 68000000 		.4byte	0x68
 5483 01e1 04       		.byte	0x4
 5484 01e2 01       		.byte	0x1
 5485 01e3 1F       		.byte	0x1f
 5486 01e4 02       		.byte	0x2
 5487 01e5 23       		.byte	0x23
 5488 01e6 00       		.uleb128 0
 5489 01e7 06       		.uleb128 0x6
 5490 01e8 9E020000 		.4byte	.LASF31
 5491 01ec 03       		.byte	0x3
 5492 01ed 77       		.byte	0x77
 5493 01ee 68000000 		.4byte	0x68
 5494 01f2 04       		.byte	0x4
 5495 01f3 01       		.byte	0x1
 5496 01f4 1E       		.byte	0x1e
 5497 01f5 02       		.byte	0x2
 5498 01f6 23       		.byte	0x23
 5499 01f7 00       		.uleb128 0
 5500 01f8 06       		.uleb128 0x6
 5501 01f9 5D030000 		.4byte	.LASF32
 5502 01fd 03       		.byte	0x3
 5503 01fe 78       		.byte	0x78
 5504 01ff 68000000 		.4byte	0x68
 5505 0203 04       		.byte	0x4
 5506 0204 01       		.byte	0x1
 5507 0205 1D       		.byte	0x1d
 5508 0206 02       		.byte	0x2
 5509 0207 23       		.byte	0x23
 5510 0208 00       		.uleb128 0
 5511 0209 06       		.uleb128 0x6
 5512 020a A8010000 		.4byte	.LASF33
 5513 020e 03       		.byte	0x3
 5514 020f 79       		.byte	0x79
 5515 0210 68000000 		.4byte	0x68
 5516 0214 04       		.byte	0x4
 5517 0215 01       		.byte	0x1
 5518 0216 1C       		.byte	0x1c
 5519 0217 02       		.byte	0x2
 5520 0218 23       		.byte	0x23
 5521 0219 00       		.uleb128 0
 5522 021a 06       		.uleb128 0x6
 5523 021b 2D010000 		.4byte	.LASF34
 5524 021f 03       		.byte	0x3
 5525 0220 7A       		.byte	0x7a
 5526 0221 68000000 		.4byte	0x68
 5527 0225 04       		.byte	0x4
 5528 0226 01       		.byte	0x1
 5529 0227 1B       		.byte	0x1b
 5530 0228 02       		.byte	0x2
 5531 0229 23       		.byte	0x23
 5532 022a 00       		.uleb128 0
 5533 022b 06       		.uleb128 0x6
 5534 022c 04030000 		.4byte	.LASF35
 5535 0230 03       		.byte	0x3
 5536 0231 7B       		.byte	0x7b
 5537 0232 68000000 		.4byte	0x68
 5538 0236 04       		.byte	0x4
ARM GAS  C:\Users\ZHANGM~1\AppData\Local\Temp\cccEtK9g.s 			page 137


 5539 0237 01       		.byte	0x1
 5540 0238 1A       		.byte	0x1a
 5541 0239 02       		.byte	0x2
 5542 023a 23       		.byte	0x23
 5543 023b 00       		.uleb128 0
 5544 023c 06       		.uleb128 0x6
 5545 023d 190A0000 		.4byte	.LASF36
 5546 0241 03       		.byte	0x3
 5547 0242 7C       		.byte	0x7c
 5548 0243 68000000 		.4byte	0x68
 5549 0247 04       		.byte	0x4
 5550 0248 01       		.byte	0x1
 5551 0249 19       		.byte	0x19
 5552 024a 02       		.byte	0x2
 5553 024b 23       		.byte	0x23
 5554 024c 00       		.uleb128 0
 5555 024d 06       		.uleb128 0x6
 5556 024e BA020000 		.4byte	.LASF37
 5557 0252 03       		.byte	0x3
 5558 0253 7D       		.byte	0x7d
 5559 0254 68000000 		.4byte	0x68
 5560 0258 04       		.byte	0x4
 5561 0259 01       		.byte	0x1
 5562 025a 18       		.byte	0x18
 5563 025b 02       		.byte	0x2
 5564 025c 23       		.byte	0x23
 5565 025d 00       		.uleb128 0
 5566 025e 06       		.uleb128 0x6
 5567 025f 8F060000 		.4byte	.LASF38
 5568 0263 03       		.byte	0x3
 5569 0264 7E       		.byte	0x7e
 5570 0265 68000000 		.4byte	0x68
 5571 0269 04       		.byte	0x4
 5572 026a 01       		.byte	0x1
 5573 026b 17       		.byte	0x17
 5574 026c 02       		.byte	0x2
 5575 026d 23       		.byte	0x23
 5576 026e 00       		.uleb128 0
 5577 026f 06       		.uleb128 0x6
 5578 0270 A1060000 		.4byte	.LASF39
 5579 0274 03       		.byte	0x3
 5580 0275 7F       		.byte	0x7f
 5581 0276 68000000 		.4byte	0x68
 5582 027a 04       		.byte	0x4
 5583 027b 01       		.byte	0x1
 5584 027c 16       		.byte	0x16
 5585 027d 02       		.byte	0x2
 5586 027e 23       		.byte	0x23
 5587 027f 00       		.uleb128 0
 5588 0280 06       		.uleb128 0x6
 5589 0281 30020000 		.4byte	.LASF40
 5590 0285 03       		.byte	0x3
 5591 0286 80       		.byte	0x80
 5592 0287 68000000 		.4byte	0x68
 5593 028b 04       		.byte	0x4
 5594 028c 01       		.byte	0x1
 5595 028d 15       		.byte	0x15
ARM GAS  C:\Users\ZHANGM~1\AppData\Local\Temp\cccEtK9g.s 			page 138


 5596 028e 02       		.byte	0x2
 5597 028f 23       		.byte	0x23
 5598 0290 00       		.uleb128 0
 5599 0291 06       		.uleb128 0x6
 5600 0292 3C000000 		.4byte	.LASF41
 5601 0296 03       		.byte	0x3
 5602 0297 81       		.byte	0x81
 5603 0298 68000000 		.4byte	0x68
 5604 029c 04       		.byte	0x4
 5605 029d 01       		.byte	0x1
 5606 029e 14       		.byte	0x14
 5607 029f 02       		.byte	0x2
 5608 02a0 23       		.byte	0x23
 5609 02a1 00       		.uleb128 0
 5610 02a2 06       		.uleb128 0x6
 5611 02a3 D80B0000 		.4byte	.LASF42
 5612 02a7 03       		.byte	0x3
 5613 02a8 82       		.byte	0x82
 5614 02a9 68000000 		.4byte	0x68
 5615 02ad 04       		.byte	0x4
 5616 02ae 01       		.byte	0x1
 5617 02af 13       		.byte	0x13
 5618 02b0 02       		.byte	0x2
 5619 02b1 23       		.byte	0x23
 5620 02b2 00       		.uleb128 0
 5621 02b3 06       		.uleb128 0x6
 5622 02b4 7E070000 		.4byte	.LASF43
 5623 02b8 03       		.byte	0x3
 5624 02b9 83       		.byte	0x83
 5625 02ba 68000000 		.4byte	0x68
 5626 02be 04       		.byte	0x4
 5627 02bf 01       		.byte	0x1
 5628 02c0 12       		.byte	0x12
 5629 02c1 02       		.byte	0x2
 5630 02c2 23       		.byte	0x23
 5631 02c3 00       		.uleb128 0
 5632 02c4 06       		.uleb128 0x6
 5633 02c5 B2050000 		.4byte	.LASF44
 5634 02c9 03       		.byte	0x3
 5635 02ca 84       		.byte	0x84
 5636 02cb 68000000 		.4byte	0x68
 5637 02cf 04       		.byte	0x4
 5638 02d0 01       		.byte	0x1
 5639 02d1 11       		.byte	0x11
 5640 02d2 02       		.byte	0x2
 5641 02d3 23       		.byte	0x23
 5642 02d4 00       		.uleb128 0
 5643 02d5 06       		.uleb128 0x6
 5644 02d6 3A050000 		.4byte	.LASF45
 5645 02da 03       		.byte	0x3
 5646 02db 85       		.byte	0x85
 5647 02dc 68000000 		.4byte	0x68
 5648 02e0 04       		.byte	0x4
 5649 02e1 01       		.byte	0x1
 5650 02e2 10       		.byte	0x10
 5651 02e3 02       		.byte	0x2
 5652 02e4 23       		.byte	0x23
ARM GAS  C:\Users\ZHANGM~1\AppData\Local\Temp\cccEtK9g.s 			page 139


 5653 02e5 00       		.uleb128 0
 5654 02e6 06       		.uleb128 0x6
 5655 02e7 4B0A0000 		.4byte	.LASF46
 5656 02eb 03       		.byte	0x3
 5657 02ec 86       		.byte	0x86
 5658 02ed 68000000 		.4byte	0x68
 5659 02f1 04       		.byte	0x4
 5660 02f2 01       		.byte	0x1
 5661 02f3 0F       		.byte	0xf
 5662 02f4 02       		.byte	0x2
 5663 02f5 23       		.byte	0x23
 5664 02f6 00       		.uleb128 0
 5665 02f7 06       		.uleb128 0x6
 5666 02f8 03040000 		.4byte	.LASF47
 5667 02fc 03       		.byte	0x3
 5668 02fd 87       		.byte	0x87
 5669 02fe 68000000 		.4byte	0x68
 5670 0302 04       		.byte	0x4
 5671 0303 01       		.byte	0x1
 5672 0304 0E       		.byte	0xe
 5673 0305 02       		.byte	0x2
 5674 0306 23       		.byte	0x23
 5675 0307 00       		.uleb128 0
 5676 0308 06       		.uleb128 0x6
 5677 0309 43050000 		.4byte	.LASF48
 5678 030d 03       		.byte	0x3
 5679 030e 88       		.byte	0x88
 5680 030f 68000000 		.4byte	0x68
 5681 0313 04       		.byte	0x4
 5682 0314 01       		.byte	0x1
 5683 0315 0D       		.byte	0xd
 5684 0316 02       		.byte	0x2
 5685 0317 23       		.byte	0x23
 5686 0318 00       		.uleb128 0
 5687 0319 06       		.uleb128 0x6
 5688 031a 78030000 		.4byte	.LASF49
 5689 031e 03       		.byte	0x3
 5690 031f 89       		.byte	0x89
 5691 0320 68000000 		.4byte	0x68
 5692 0324 04       		.byte	0x4
 5693 0325 01       		.byte	0x1
 5694 0326 0C       		.byte	0xc
 5695 0327 02       		.byte	0x2
 5696 0328 23       		.byte	0x23
 5697 0329 00       		.uleb128 0
 5698 032a 06       		.uleb128 0x6
 5699 032b 48000000 		.4byte	.LASF50
 5700 032f 03       		.byte	0x3
 5701 0330 8A       		.byte	0x8a
 5702 0331 68000000 		.4byte	0x68
 5703 0335 04       		.byte	0x4
 5704 0336 01       		.byte	0x1
 5705 0337 0B       		.byte	0xb
 5706 0338 02       		.byte	0x2
 5707 0339 23       		.byte	0x23
 5708 033a 00       		.uleb128 0
 5709 033b 06       		.uleb128 0x6
ARM GAS  C:\Users\ZHANGM~1\AppData\Local\Temp\cccEtK9g.s 			page 140


 5710 033c 33060000 		.4byte	.LASF51
 5711 0340 03       		.byte	0x3
 5712 0341 8B       		.byte	0x8b
 5713 0342 68000000 		.4byte	0x68
 5714 0346 04       		.byte	0x4
 5715 0347 02       		.byte	0x2
 5716 0348 09       		.byte	0x9
 5717 0349 02       		.byte	0x2
 5718 034a 23       		.byte	0x23
 5719 034b 00       		.uleb128 0
 5720 034c 06       		.uleb128 0x6
 5721 034d 6A090000 		.4byte	.LASF52
 5722 0351 03       		.byte	0x3
 5723 0352 8C       		.byte	0x8c
 5724 0353 68000000 		.4byte	0x68
 5725 0357 04       		.byte	0x4
 5726 0358 01       		.byte	0x1
 5727 0359 08       		.byte	0x8
 5728 035a 02       		.byte	0x2
 5729 035b 23       		.byte	0x23
 5730 035c 00       		.uleb128 0
 5731 035d 06       		.uleb128 0x6
 5732 035e B3080000 		.4byte	.LASF53
 5733 0362 03       		.byte	0x3
 5734 0363 8D       		.byte	0x8d
 5735 0364 68000000 		.4byte	0x68
 5736 0368 04       		.byte	0x4
 5737 0369 01       		.byte	0x1
 5738 036a 07       		.byte	0x7
 5739 036b 02       		.byte	0x2
 5740 036c 23       		.byte	0x23
 5741 036d 00       		.uleb128 0
 5742 036e 06       		.uleb128 0x6
 5743 036f E7060000 		.4byte	.LASF54
 5744 0373 03       		.byte	0x3
 5745 0374 8E       		.byte	0x8e
 5746 0375 68000000 		.4byte	0x68
 5747 0379 04       		.byte	0x4
 5748 037a 01       		.byte	0x1
 5749 037b 06       		.byte	0x6
 5750 037c 02       		.byte	0x2
 5751 037d 23       		.byte	0x23
 5752 037e 00       		.uleb128 0
 5753 037f 06       		.uleb128 0x6
 5754 0380 6C030000 		.4byte	.LASF55
 5755 0384 03       		.byte	0x3
 5756 0385 8F       		.byte	0x8f
 5757 0386 68000000 		.4byte	0x68
 5758 038a 04       		.byte	0x4
 5759 038b 01       		.byte	0x1
 5760 038c 05       		.byte	0x5
 5761 038d 02       		.byte	0x2
 5762 038e 23       		.byte	0x23
 5763 038f 00       		.uleb128 0
 5764 0390 06       		.uleb128 0x6
 5765 0391 64030000 		.4byte	.LASF56
 5766 0395 03       		.byte	0x3
ARM GAS  C:\Users\ZHANGM~1\AppData\Local\Temp\cccEtK9g.s 			page 141


 5767 0396 90       		.byte	0x90
 5768 0397 68000000 		.4byte	0x68
 5769 039b 04       		.byte	0x4
 5770 039c 01       		.byte	0x1
 5771 039d 04       		.byte	0x4
 5772 039e 02       		.byte	0x2
 5773 039f 23       		.byte	0x23
 5774 03a0 00       		.uleb128 0
 5775 03a1 06       		.uleb128 0x6
 5776 03a2 F3010000 		.4byte	.LASF57
 5777 03a6 03       		.byte	0x3
 5778 03a7 91       		.byte	0x91
 5779 03a8 68000000 		.4byte	0x68
 5780 03ac 04       		.byte	0x4
 5781 03ad 01       		.byte	0x1
 5782 03ae 03       		.byte	0x3
 5783 03af 02       		.byte	0x2
 5784 03b0 23       		.byte	0x23
 5785 03b1 00       		.uleb128 0
 5786 03b2 06       		.uleb128 0x6
 5787 03b3 3A060000 		.4byte	.LASF58
 5788 03b7 03       		.byte	0x3
 5789 03b8 92       		.byte	0x92
 5790 03b9 68000000 		.4byte	0x68
 5791 03bd 04       		.byte	0x4
 5792 03be 01       		.byte	0x1
 5793 03bf 02       		.byte	0x2
 5794 03c0 02       		.byte	0x2
 5795 03c1 23       		.byte	0x23
 5796 03c2 00       		.uleb128 0
 5797 03c3 06       		.uleb128 0x6
 5798 03c4 F1030000 		.4byte	.LASF59
 5799 03c8 03       		.byte	0x3
 5800 03c9 93       		.byte	0x93
 5801 03ca 68000000 		.4byte	0x68
 5802 03ce 04       		.byte	0x4
 5803 03cf 01       		.byte	0x1
 5804 03d0 01       		.byte	0x1
 5805 03d1 02       		.byte	0x2
 5806 03d2 23       		.byte	0x23
 5807 03d3 00       		.uleb128 0
 5808 03d4 00       		.byte	0
 5809 03d5 05       		.uleb128 0x5
 5810 03d6 04       		.byte	0x4
 5811 03d7 03       		.byte	0x3
 5812 03d8 97       		.byte	0x97
 5813 03d9 11040000 		.4byte	0x411
 5814 03dd 06       		.uleb128 0x6
 5815 03de 29070000 		.4byte	.LASF60
 5816 03e2 03       		.byte	0x3
 5817 03e3 99       		.byte	0x99
 5818 03e4 68000000 		.4byte	0x68
 5819 03e8 04       		.byte	0x4
 5820 03e9 01       		.byte	0x1
 5821 03ea 1F       		.byte	0x1f
 5822 03eb 02       		.byte	0x2
 5823 03ec 23       		.byte	0x23
ARM GAS  C:\Users\ZHANGM~1\AppData\Local\Temp\cccEtK9g.s 			page 142


 5824 03ed 00       		.uleb128 0
 5825 03ee 06       		.uleb128 0x6
 5826 03ef 7D030000 		.4byte	.LASF61
 5827 03f3 03       		.byte	0x3
 5828 03f4 9A       		.byte	0x9a
 5829 03f5 68000000 		.4byte	0x68
 5830 03f9 04       		.byte	0x4
 5831 03fa 01       		.byte	0x1
 5832 03fb 1E       		.byte	0x1e
 5833 03fc 02       		.byte	0x2
 5834 03fd 23       		.byte	0x23
 5835 03fe 00       		.uleb128 0
 5836 03ff 06       		.uleb128 0x6
 5837 0400 BD040000 		.4byte	.LASF62
 5838 0404 03       		.byte	0x3
 5839 0405 9B       		.byte	0x9b
 5840 0406 68000000 		.4byte	0x68
 5841 040a 04       		.byte	0x4
 5842 040b 01       		.byte	0x1
 5843 040c 1D       		.byte	0x1d
 5844 040d 02       		.byte	0x2
 5845 040e 23       		.byte	0x23
 5846 040f 00       		.uleb128 0
 5847 0410 00       		.byte	0
 5848 0411 08       		.uleb128 0x8
 5849 0412 04       		.byte	0x4
 5850 0413 03       		.byte	0x3
 5851 0414 95       		.byte	0x95
 5852 0415 30040000 		.4byte	0x430
 5853 0419 09       		.uleb128 0x9
 5854 041a 616C6C00 		.ascii	"all\000"
 5855 041e 03       		.byte	0x3
 5856 041f 96       		.byte	0x96
 5857 0420 7A000000 		.4byte	0x7a
 5858 0424 09       		.uleb128 0x9
 5859 0425 62697400 		.ascii	"bit\000"
 5860 0429 03       		.byte	0x3
 5861 042a 9C       		.byte	0x9c
 5862 042b D5030000 		.4byte	0x3d5
 5863 042f 00       		.byte	0
 5864 0430 05       		.uleb128 0x5
 5865 0431 04       		.byte	0x4
 5866 0432 03       		.byte	0x3
 5867 0433 A2       		.byte	0xa2
 5868 0434 5B040000 		.4byte	0x45b
 5869 0438 06       		.uleb128 0x6
 5870 0439 ED0B0000 		.4byte	.LASF63
 5871 043d 03       		.byte	0x3
 5872 043e A4       		.byte	0xa4
 5873 043f 68000000 		.4byte	0x68
 5874 0443 04       		.byte	0x4
 5875 0444 01       		.byte	0x1
 5876 0445 1F       		.byte	0x1f
 5877 0446 02       		.byte	0x2
 5878 0447 23       		.byte	0x23
 5879 0448 00       		.uleb128 0
 5880 0449 06       		.uleb128 0x6
ARM GAS  C:\Users\ZHANGM~1\AppData\Local\Temp\cccEtK9g.s 			page 143


 5881 044a 44010000 		.4byte	.LASF64
 5882 044e 03       		.byte	0x3
 5883 044f A5       		.byte	0xa5
 5884 0450 68000000 		.4byte	0x68
 5885 0454 04       		.byte	0x4
 5886 0455 01       		.byte	0x1
 5887 0456 1E       		.byte	0x1e
 5888 0457 02       		.byte	0x2
 5889 0458 23       		.byte	0x23
 5890 0459 00       		.uleb128 0
 5891 045a 00       		.byte	0
 5892 045b 08       		.uleb128 0x8
 5893 045c 04       		.byte	0x4
 5894 045d 03       		.byte	0x3
 5895 045e A0       		.byte	0xa0
 5896 045f 7A040000 		.4byte	0x47a
 5897 0463 09       		.uleb128 0x9
 5898 0464 616C6C00 		.ascii	"all\000"
 5899 0468 03       		.byte	0x3
 5900 0469 A1       		.byte	0xa1
 5901 046a 7A000000 		.4byte	0x7a
 5902 046e 09       		.uleb128 0x9
 5903 046f 62697400 		.ascii	"bit\000"
 5904 0473 03       		.byte	0x3
 5905 0474 A6       		.byte	0xa6
 5906 0475 30040000 		.4byte	0x430
 5907 0479 00       		.byte	0
 5908 047a 05       		.uleb128 0x5
 5909 047b 04       		.byte	0x4
 5910 047c 03       		.byte	0x3
 5911 047d AB       		.byte	0xab
 5912 047e C7040000 		.4byte	0x4c7
 5913 0482 06       		.uleb128 0x6
 5914 0483 5B000000 		.4byte	.LASF65
 5915 0487 03       		.byte	0x3
 5916 0488 AD       		.byte	0xad
 5917 0489 68000000 		.4byte	0x68
 5918 048d 04       		.byte	0x4
 5919 048e 01       		.byte	0x1
 5920 048f 1F       		.byte	0x1f
 5921 0490 02       		.byte	0x2
 5922 0491 23       		.byte	0x23
 5923 0492 00       		.uleb128 0
 5924 0493 06       		.uleb128 0x6
 5925 0494 AE010000 		.4byte	.LASF30
 5926 0498 03       		.byte	0x3
 5927 0499 AE       		.byte	0xae
 5928 049a 68000000 		.4byte	0x68
 5929 049e 04       		.byte	0x4
 5930 049f 01       		.byte	0x1
 5931 04a0 1E       		.byte	0x1e
 5932 04a1 02       		.byte	0x2
 5933 04a2 23       		.byte	0x23
 5934 04a3 00       		.uleb128 0
 5935 04a4 06       		.uleb128 0x6
 5936 04a5 BC070000 		.4byte	.LASF66
 5937 04a9 03       		.byte	0x3
ARM GAS  C:\Users\ZHANGM~1\AppData\Local\Temp\cccEtK9g.s 			page 144


 5938 04aa AF       		.byte	0xaf
 5939 04ab 68000000 		.4byte	0x68
 5940 04af 04       		.byte	0x4
 5941 04b0 01       		.byte	0x1
 5942 04b1 1D       		.byte	0x1d
 5943 04b2 02       		.byte	0x2
 5944 04b3 23       		.byte	0x23
 5945 04b4 00       		.uleb128 0
 5946 04b5 06       		.uleb128 0x6
 5947 04b6 BE090000 		.4byte	.LASF67
 5948 04ba 03       		.byte	0x3
 5949 04bb B0       		.byte	0xb0
 5950 04bc 68000000 		.4byte	0x68
 5951 04c0 04       		.byte	0x4
 5952 04c1 01       		.byte	0x1
 5953 04c2 1C       		.byte	0x1c
 5954 04c3 02       		.byte	0x2
 5955 04c4 23       		.byte	0x23
 5956 04c5 00       		.uleb128 0
 5957 04c6 00       		.byte	0
 5958 04c7 08       		.uleb128 0x8
 5959 04c8 04       		.byte	0x4
 5960 04c9 03       		.byte	0x3
 5961 04ca A9       		.byte	0xa9
 5962 04cb E6040000 		.4byte	0x4e6
 5963 04cf 09       		.uleb128 0x9
 5964 04d0 616C6C00 		.ascii	"all\000"
 5965 04d4 03       		.byte	0x3
 5966 04d5 AA       		.byte	0xaa
 5967 04d6 7A000000 		.4byte	0x7a
 5968 04da 09       		.uleb128 0x9
 5969 04db 62697400 		.ascii	"bit\000"
 5970 04df 03       		.byte	0x3
 5971 04e0 B1       		.byte	0xb1
 5972 04e1 7A040000 		.4byte	0x47a
 5973 04e5 00       		.byte	0
 5974 04e6 05       		.uleb128 0x5
 5975 04e7 04       		.byte	0x4
 5976 04e8 03       		.byte	0x3
 5977 04e9 B7       		.byte	0xb7
 5978 04ea 88050000 		.4byte	0x588
 5979 04ee 06       		.uleb128 0x6
 5980 04ef 8A020000 		.4byte	.LASF68
 5981 04f3 03       		.byte	0x3
 5982 04f4 B9       		.byte	0xb9
 5983 04f5 68000000 		.4byte	0x68
 5984 04f9 04       		.byte	0x4
 5985 04fa 01       		.byte	0x1
 5986 04fb 1F       		.byte	0x1f
 5987 04fc 02       		.byte	0x2
 5988 04fd 23       		.byte	0x23
 5989 04fe 00       		.uleb128 0
 5990 04ff 06       		.uleb128 0x6
 5991 0500 7F080000 		.4byte	.LASF69
 5992 0504 03       		.byte	0x3
 5993 0505 BA       		.byte	0xba
 5994 0506 68000000 		.4byte	0x68
ARM GAS  C:\Users\ZHANGM~1\AppData\Local\Temp\cccEtK9g.s 			page 145


 5995 050a 04       		.byte	0x4
 5996 050b 01       		.byte	0x1
 5997 050c 1E       		.byte	0x1e
 5998 050d 02       		.byte	0x2
 5999 050e 23       		.byte	0x23
 6000 050f 00       		.uleb128 0
 6001 0510 06       		.uleb128 0x6
 6002 0511 9C040000 		.4byte	.LASF70
 6003 0515 03       		.byte	0x3
 6004 0516 BB       		.byte	0xbb
 6005 0517 68000000 		.4byte	0x68
 6006 051b 04       		.byte	0x4
 6007 051c 01       		.byte	0x1
 6008 051d 1D       		.byte	0x1d
 6009 051e 02       		.byte	0x2
 6010 051f 23       		.byte	0x23
 6011 0520 00       		.uleb128 0
 6012 0521 06       		.uleb128 0x6
 6013 0522 4D000000 		.4byte	.LASF71
 6014 0526 03       		.byte	0x3
 6015 0527 BC       		.byte	0xbc
 6016 0528 68000000 		.4byte	0x68
 6017 052c 04       		.byte	0x4
 6018 052d 01       		.byte	0x1
 6019 052e 1C       		.byte	0x1c
 6020 052f 02       		.byte	0x2
 6021 0530 23       		.byte	0x23
 6022 0531 00       		.uleb128 0
 6023 0532 06       		.uleb128 0x6
 6024 0533 06060000 		.4byte	.LASF72
 6025 0537 03       		.byte	0x3
 6026 0538 BD       		.byte	0xbd
 6027 0539 68000000 		.4byte	0x68
 6028 053d 04       		.byte	0x4
 6029 053e 01       		.byte	0x1
 6030 053f 1B       		.byte	0x1b
 6031 0540 02       		.byte	0x2
 6032 0541 23       		.byte	0x23
 6033 0542 00       		.uleb128 0
 6034 0543 06       		.uleb128 0x6
 6035 0544 68020000 		.4byte	.LASF73
 6036 0548 03       		.byte	0x3
 6037 0549 BE       		.byte	0xbe
 6038 054a 68000000 		.4byte	0x68
 6039 054e 04       		.byte	0x4
 6040 054f 01       		.byte	0x1
 6041 0550 1A       		.byte	0x1a
 6042 0551 02       		.byte	0x2
 6043 0552 23       		.byte	0x23
 6044 0553 00       		.uleb128 0
 6045 0554 06       		.uleb128 0x6
 6046 0555 9F090000 		.4byte	.LASF74
 6047 0559 03       		.byte	0x3
 6048 055a BF       		.byte	0xbf
 6049 055b 68000000 		.4byte	0x68
 6050 055f 04       		.byte	0x4
 6051 0560 01       		.byte	0x1
ARM GAS  C:\Users\ZHANGM~1\AppData\Local\Temp\cccEtK9g.s 			page 146


 6052 0561 19       		.byte	0x19
 6053 0562 02       		.byte	0x2
 6054 0563 23       		.byte	0x23
 6055 0564 00       		.uleb128 0
 6056 0565 06       		.uleb128 0x6
 6057 0566 43040000 		.4byte	.LASF75
 6058 056a 03       		.byte	0x3
 6059 056b C0       		.byte	0xc0
 6060 056c 68000000 		.4byte	0x68
 6061 0570 04       		.byte	0x4
 6062 0571 01       		.byte	0x1
 6063 0572 18       		.byte	0x18
 6064 0573 02       		.byte	0x2
 6065 0574 23       		.byte	0x23
 6066 0575 00       		.uleb128 0
 6067 0576 06       		.uleb128 0x6
 6068 0577 09000000 		.4byte	.LASF76
 6069 057b 03       		.byte	0x3
 6070 057c C1       		.byte	0xc1
 6071 057d 68000000 		.4byte	0x68
 6072 0581 04       		.byte	0x4
 6073 0582 01       		.byte	0x1
 6074 0583 17       		.byte	0x17
 6075 0584 02       		.byte	0x2
 6076 0585 23       		.byte	0x23
 6077 0586 00       		.uleb128 0
 6078 0587 00       		.byte	0
 6079 0588 08       		.uleb128 0x8
 6080 0589 04       		.byte	0x4
 6081 058a 03       		.byte	0x3
 6082 058b B5       		.byte	0xb5
 6083 058c A7050000 		.4byte	0x5a7
 6084 0590 09       		.uleb128 0x9
 6085 0591 616C6C00 		.ascii	"all\000"
 6086 0595 03       		.byte	0x3
 6087 0596 B6       		.byte	0xb6
 6088 0597 7A000000 		.4byte	0x7a
 6089 059b 09       		.uleb128 0x9
 6090 059c 62697400 		.ascii	"bit\000"
 6091 05a0 03       		.byte	0x3
 6092 05a1 C2       		.byte	0xc2
 6093 05a2 E6040000 		.4byte	0x4e6
 6094 05a6 00       		.byte	0
 6095 05a7 05       		.uleb128 0x5
 6096 05a8 08       		.byte	0x8
 6097 05a9 04       		.byte	0x4
 6098 05aa 7F       		.byte	0x7f
 6099 05ab D0070000 		.4byte	0x7d0
 6100 05af 06       		.uleb128 0x6
 6101 05b0 5B000000 		.4byte	.LASF65
 6102 05b4 04       		.byte	0x4
 6103 05b5 80       		.byte	0x80
 6104 05b6 68000000 		.4byte	0x68
 6105 05ba 04       		.byte	0x4
 6106 05bb 01       		.byte	0x1
 6107 05bc 1F       		.byte	0x1f
 6108 05bd 02       		.byte	0x2
ARM GAS  C:\Users\ZHANGM~1\AppData\Local\Temp\cccEtK9g.s 			page 147


 6109 05be 23       		.byte	0x23
 6110 05bf 00       		.uleb128 0
 6111 05c0 06       		.uleb128 0x6
 6112 05c1 AE020000 		.4byte	.LASF77
 6113 05c5 04       		.byte	0x4
 6114 05c6 81       		.byte	0x81
 6115 05c7 68000000 		.4byte	0x68
 6116 05cb 04       		.byte	0x4
 6117 05cc 01       		.byte	0x1
 6118 05cd 1E       		.byte	0x1e
 6119 05ce 02       		.byte	0x2
 6120 05cf 23       		.byte	0x23
 6121 05d0 00       		.uleb128 0
 6122 05d1 06       		.uleb128 0x6
 6123 05d2 270A0000 		.4byte	.LASF78
 6124 05d6 04       		.byte	0x4
 6125 05d7 82       		.byte	0x82
 6126 05d8 68000000 		.4byte	0x68
 6127 05dc 04       		.byte	0x4
 6128 05dd 01       		.byte	0x1
 6129 05de 1D       		.byte	0x1d
 6130 05df 02       		.byte	0x2
 6131 05e0 23       		.byte	0x23
 6132 05e1 00       		.uleb128 0
 6133 05e2 06       		.uleb128 0x6
 6134 05e3 55010000 		.4byte	.LASF79
 6135 05e7 04       		.byte	0x4
 6136 05e8 83       		.byte	0x83
 6137 05e9 68000000 		.4byte	0x68
 6138 05ed 04       		.byte	0x4
 6139 05ee 01       		.byte	0x1
 6140 05ef 1C       		.byte	0x1c
 6141 05f0 02       		.byte	0x2
 6142 05f1 23       		.byte	0x23
 6143 05f2 00       		.uleb128 0
 6144 05f3 06       		.uleb128 0x6
 6145 05f4 76020000 		.4byte	.LASF80
 6146 05f8 04       		.byte	0x4
 6147 05f9 84       		.byte	0x84
 6148 05fa 68000000 		.4byte	0x68
 6149 05fe 04       		.byte	0x4
 6150 05ff 01       		.byte	0x1
 6151 0600 1B       		.byte	0x1b
 6152 0601 02       		.byte	0x2
 6153 0602 23       		.byte	0x23
 6154 0603 00       		.uleb128 0
 6155 0604 06       		.uleb128 0x6
 6156 0605 69060000 		.4byte	.LASF81
 6157 0609 04       		.byte	0x4
 6158 060a 85       		.byte	0x85
 6159 060b 68000000 		.4byte	0x68
 6160 060f 04       		.byte	0x4
 6161 0610 01       		.byte	0x1
 6162 0611 1A       		.byte	0x1a
 6163 0612 02       		.byte	0x2
 6164 0613 23       		.byte	0x23
 6165 0614 00       		.uleb128 0
ARM GAS  C:\Users\ZHANGM~1\AppData\Local\Temp\cccEtK9g.s 			page 148


 6166 0615 06       		.uleb128 0x6
 6167 0616 51040000 		.4byte	.LASF82
 6168 061a 04       		.byte	0x4
 6169 061b 86       		.byte	0x86
 6170 061c 68000000 		.4byte	0x68
 6171 0620 04       		.byte	0x4
 6172 0621 01       		.byte	0x1
 6173 0622 19       		.byte	0x19
 6174 0623 02       		.byte	0x2
 6175 0624 23       		.byte	0x23
 6176 0625 00       		.uleb128 0
 6177 0626 06       		.uleb128 0x6
 6178 0627 37010000 		.4byte	.LASF83
 6179 062b 04       		.byte	0x4
 6180 062c 87       		.byte	0x87
 6181 062d 68000000 		.4byte	0x68
 6182 0631 04       		.byte	0x4
 6183 0632 01       		.byte	0x1
 6184 0633 18       		.byte	0x18
 6185 0634 02       		.byte	0x2
 6186 0635 23       		.byte	0x23
 6187 0636 00       		.uleb128 0
 6188 0637 06       		.uleb128 0x6
 6189 0638 AE010000 		.4byte	.LASF30
 6190 063c 04       		.byte	0x4
 6191 063d 88       		.byte	0x88
 6192 063e 68000000 		.4byte	0x68
 6193 0642 04       		.byte	0x4
 6194 0643 01       		.byte	0x1
 6195 0644 17       		.byte	0x17
 6196 0645 02       		.byte	0x2
 6197 0646 23       		.byte	0x23
 6198 0647 00       		.uleb128 0
 6199 0648 06       		.uleb128 0x6
 6200 0649 AF030000 		.4byte	.LASF84
 6201 064d 04       		.byte	0x4
 6202 064e 89       		.byte	0x89
 6203 064f 68000000 		.4byte	0x68
 6204 0653 04       		.byte	0x4
 6205 0654 01       		.byte	0x1
 6206 0655 16       		.byte	0x16
 6207 0656 02       		.byte	0x2
 6208 0657 23       		.byte	0x23
 6209 0658 00       		.uleb128 0
 6210 0659 06       		.uleb128 0x6
 6211 065a D4050000 		.4byte	.LASF85
 6212 065e 04       		.byte	0x4
 6213 065f 8A       		.byte	0x8a
 6214 0660 68000000 		.4byte	0x68
 6215 0664 04       		.byte	0x4
 6216 0665 01       		.byte	0x1
 6217 0666 15       		.byte	0x15
 6218 0667 02       		.byte	0x2
 6219 0668 23       		.byte	0x23
 6220 0669 00       		.uleb128 0
 6221 066a 06       		.uleb128 0x6
 6222 066b 17000000 		.4byte	.LASF86
ARM GAS  C:\Users\ZHANGM~1\AppData\Local\Temp\cccEtK9g.s 			page 149


 6223 066f 04       		.byte	0x4
 6224 0670 8B       		.byte	0x8b
 6225 0671 68000000 		.4byte	0x68
 6226 0675 04       		.byte	0x4
 6227 0676 01       		.byte	0x1
 6228 0677 14       		.byte	0x14
 6229 0678 02       		.byte	0x2
 6230 0679 23       		.byte	0x23
 6231 067a 00       		.uleb128 0
 6232 067b 06       		.uleb128 0x6
 6233 067c 48050000 		.4byte	.LASF87
 6234 0680 04       		.byte	0x4
 6235 0681 8C       		.byte	0x8c
 6236 0682 68000000 		.4byte	0x68
 6237 0686 04       		.byte	0x4
 6238 0687 01       		.byte	0x1
 6239 0688 13       		.byte	0x13
 6240 0689 02       		.byte	0x2
 6241 068a 23       		.byte	0x23
 6242 068b 00       		.uleb128 0
 6243 068c 06       		.uleb128 0x6
 6244 068d 60040000 		.4byte	.LASF88
 6245 0691 04       		.byte	0x4
 6246 0692 8D       		.byte	0x8d
 6247 0693 68000000 		.4byte	0x68
 6248 0697 04       		.byte	0x4
 6249 0698 01       		.byte	0x1
 6250 0699 12       		.byte	0x12
 6251 069a 02       		.byte	0x2
 6252 069b 23       		.byte	0x23
 6253 069c 00       		.uleb128 0
 6254 069d 06       		.uleb128 0x6
 6255 069e 4E010000 		.4byte	.LASF89
 6256 06a2 04       		.byte	0x4
 6257 06a3 8E       		.byte	0x8e
 6258 06a4 68000000 		.4byte	0x68
 6259 06a8 04       		.byte	0x4
 6260 06a9 01       		.byte	0x1
 6261 06aa 11       		.byte	0x11
 6262 06ab 02       		.byte	0x2
 6263 06ac 23       		.byte	0x23
 6264 06ad 00       		.uleb128 0
 6265 06ae 06       		.uleb128 0x6
 6266 06af 8D080000 		.4byte	.LASF90
 6267 06b3 04       		.byte	0x4
 6268 06b4 8F       		.byte	0x8f
 6269 06b5 68000000 		.4byte	0x68
 6270 06b9 04       		.byte	0x4
 6271 06ba 01       		.byte	0x1
 6272 06bb 10       		.byte	0x10
 6273 06bc 02       		.byte	0x2
 6274 06bd 23       		.byte	0x23
 6275 06be 00       		.uleb128 0
 6276 06bf 06       		.uleb128 0x6
 6277 06c0 AA040000 		.4byte	.LASF91
 6278 06c4 04       		.byte	0x4
 6279 06c5 90       		.byte	0x90
ARM GAS  C:\Users\ZHANGM~1\AppData\Local\Temp\cccEtK9g.s 			page 150


 6280 06c6 68000000 		.4byte	0x68
 6281 06ca 04       		.byte	0x4
 6282 06cb 01       		.byte	0x1
 6283 06cc 0F       		.byte	0xf
 6284 06cd 02       		.byte	0x2
 6285 06ce 23       		.byte	0x23
 6286 06cf 00       		.uleb128 0
 6287 06d0 06       		.uleb128 0x6
 6288 06d1 9B0B0000 		.4byte	.LASF92
 6289 06d5 04       		.byte	0x4
 6290 06d6 91       		.byte	0x91
 6291 06d7 68000000 		.4byte	0x68
 6292 06db 04       		.byte	0x4
 6293 06dc 01       		.byte	0x1
 6294 06dd 0E       		.byte	0xe
 6295 06de 02       		.byte	0x2
 6296 06df 23       		.byte	0x23
 6297 06e0 00       		.uleb128 0
 6298 06e1 06       		.uleb128 0x6
 6299 06e2 D00A0000 		.4byte	.LASF93
 6300 06e6 04       		.byte	0x4
 6301 06e7 92       		.byte	0x92
 6302 06e8 68000000 		.4byte	0x68
 6303 06ec 04       		.byte	0x4
 6304 06ed 01       		.byte	0x1
 6305 06ee 0D       		.byte	0xd
 6306 06ef 02       		.byte	0x2
 6307 06f0 23       		.byte	0x23
 6308 06f1 00       		.uleb128 0
 6309 06f2 06       		.uleb128 0x6
 6310 06f3 93010000 		.4byte	.LASF94
 6311 06f7 04       		.byte	0x4
 6312 06f8 93       		.byte	0x93
 6313 06f9 68000000 		.4byte	0x68
 6314 06fd 04       		.byte	0x4
 6315 06fe 01       		.byte	0x1
 6316 06ff 0C       		.byte	0xc
 6317 0700 02       		.byte	0x2
 6318 0701 23       		.byte	0x23
 6319 0702 00       		.uleb128 0
 6320 0703 06       		.uleb128 0x6
 6321 0704 6E000000 		.4byte	.LASF95
 6322 0708 04       		.byte	0x4
 6323 0709 94       		.byte	0x94
 6324 070a 68000000 		.4byte	0x68
 6325 070e 04       		.byte	0x4
 6326 070f 01       		.byte	0x1
 6327 0710 0B       		.byte	0xb
 6328 0711 02       		.byte	0x2
 6329 0712 23       		.byte	0x23
 6330 0713 00       		.uleb128 0
 6331 0714 06       		.uleb128 0x6
 6332 0715 620A0000 		.4byte	.LASF96
 6333 0719 04       		.byte	0x4
 6334 071a 95       		.byte	0x95
 6335 071b 68000000 		.4byte	0x68
 6336 071f 04       		.byte	0x4
ARM GAS  C:\Users\ZHANGM~1\AppData\Local\Temp\cccEtK9g.s 			page 151


 6337 0720 01       		.byte	0x1
 6338 0721 0A       		.byte	0xa
 6339 0722 02       		.byte	0x2
 6340 0723 23       		.byte	0x23
 6341 0724 00       		.uleb128 0
 6342 0725 06       		.uleb128 0x6
 6343 0726 81010000 		.4byte	.LASF97
 6344 072a 04       		.byte	0x4
 6345 072b 96       		.byte	0x96
 6346 072c 68000000 		.4byte	0x68
 6347 0730 04       		.byte	0x4
 6348 0731 01       		.byte	0x1
 6349 0732 09       		.byte	0x9
 6350 0733 02       		.byte	0x2
 6351 0734 23       		.byte	0x23
 6352 0735 00       		.uleb128 0
 6353 0736 06       		.uleb128 0x6
 6354 0737 5B070000 		.4byte	.LASF98
 6355 073b 04       		.byte	0x4
 6356 073c 97       		.byte	0x97
 6357 073d 68000000 		.4byte	0x68
 6358 0741 04       		.byte	0x4
 6359 0742 01       		.byte	0x1
 6360 0743 08       		.byte	0x8
 6361 0744 02       		.byte	0x2
 6362 0745 23       		.byte	0x23
 6363 0746 00       		.uleb128 0
 6364 0747 06       		.uleb128 0x6
 6365 0748 640B0000 		.4byte	.LASF99
 6366 074c 04       		.byte	0x4
 6367 074d 98       		.byte	0x98
 6368 074e 68000000 		.4byte	0x68
 6369 0752 04       		.byte	0x4
 6370 0753 01       		.byte	0x1
 6371 0754 07       		.byte	0x7
 6372 0755 02       		.byte	0x2
 6373 0756 23       		.byte	0x23
 6374 0757 00       		.uleb128 0
 6375 0758 06       		.uleb128 0x6
 6376 0759 B10A0000 		.4byte	.LASF100
 6377 075d 04       		.byte	0x4
 6378 075e 99       		.byte	0x99
 6379 075f 68000000 		.4byte	0x68
 6380 0763 04       		.byte	0x4
 6381 0764 01       		.byte	0x1
 6382 0765 06       		.byte	0x6
 6383 0766 02       		.byte	0x2
 6384 0767 23       		.byte	0x23
 6385 0768 00       		.uleb128 0
 6386 0769 06       		.uleb128 0x6
 6387 076a C8050000 		.4byte	.LASF101
 6388 076e 04       		.byte	0x4
 6389 076f 9A       		.byte	0x9a
 6390 0770 68000000 		.4byte	0x68
 6391 0774 04       		.byte	0x4
 6392 0775 01       		.byte	0x1
 6393 0776 05       		.byte	0x5
ARM GAS  C:\Users\ZHANGM~1\AppData\Local\Temp\cccEtK9g.s 			page 152


 6394 0777 02       		.byte	0x2
 6395 0778 23       		.byte	0x23
 6396 0779 00       		.uleb128 0
 6397 077a 06       		.uleb128 0x6
 6398 077b B1040000 		.4byte	.LASF102
 6399 077f 04       		.byte	0x4
 6400 0780 9B       		.byte	0x9b
 6401 0781 68000000 		.4byte	0x68
 6402 0785 04       		.byte	0x4
 6403 0786 01       		.byte	0x1
 6404 0787 04       		.byte	0x4
 6405 0788 02       		.byte	0x2
 6406 0789 23       		.byte	0x23
 6407 078a 00       		.uleb128 0
 6408 078b 06       		.uleb128 0x6
 6409 078c C1010000 		.4byte	.LASF103
 6410 0790 04       		.byte	0x4
 6411 0791 9C       		.byte	0x9c
 6412 0792 68000000 		.4byte	0x68
 6413 0796 04       		.byte	0x4
 6414 0797 01       		.byte	0x1
 6415 0798 03       		.byte	0x3
 6416 0799 02       		.byte	0x2
 6417 079a 23       		.byte	0x23
 6418 079b 00       		.uleb128 0
 6419 079c 06       		.uleb128 0x6
 6420 079d F80B0000 		.4byte	.LASF104
 6421 07a1 04       		.byte	0x4
 6422 07a2 9D       		.byte	0x9d
 6423 07a3 68000000 		.4byte	0x68
 6424 07a7 04       		.byte	0x4
 6425 07a8 01       		.byte	0x1
 6426 07a9 02       		.byte	0x2
 6427 07aa 02       		.byte	0x2
 6428 07ab 23       		.byte	0x23
 6429 07ac 00       		.uleb128 0
 6430 07ad 07       		.uleb128 0x7
 6431 07ae 73746100 		.ascii	"sta\000"
 6432 07b2 04       		.byte	0x4
 6433 07b3 9E       		.byte	0x9e
 6434 07b4 68000000 		.4byte	0x68
 6435 07b8 04       		.byte	0x4
 6436 07b9 01       		.byte	0x1
 6437 07ba 01       		.byte	0x1
 6438 07bb 02       		.byte	0x2
 6439 07bc 23       		.byte	0x23
 6440 07bd 00       		.uleb128 0
 6441 07be 06       		.uleb128 0x6
 6442 07bf 52070000 		.4byte	.LASF105
 6443 07c3 04       		.byte	0x4
 6444 07c4 9F       		.byte	0x9f
 6445 07c5 68000000 		.4byte	0x68
 6446 07c9 04       		.byte	0x4
 6447 07ca 01       		.byte	0x1
 6448 07cb 00       		.byte	0
 6449 07cc 02       		.byte	0x2
 6450 07cd 23       		.byte	0x23
ARM GAS  C:\Users\ZHANGM~1\AppData\Local\Temp\cccEtK9g.s 			page 153


 6451 07ce 00       		.uleb128 0
 6452 07cf 00       		.byte	0
 6453 07d0 0A       		.uleb128 0xa
 6454 07d1 01       		.byte	0x1
 6455 07d2 DC060000 		.4byte	.LASF106
 6456 07d6 01       		.byte	0x1
 6457 07d7 13       		.byte	0x13
 6458 07d8 01       		.byte	0x1
 6459 07d9 00000000 		.4byte	.LFB33
 6460 07dd 88000000 		.4byte	.LFE33
 6461 07e1 00000000 		.4byte	.LLST0
 6462 07e5 01       		.byte	0x1
 6463 07e6 06080000 		.4byte	0x806
 6464 07ea 0B       		.uleb128 0xb
 6465 07eb 16000000 		.4byte	.LVL0
 6466 07ef DA150000 		.4byte	0x15da
 6467 07f3 0B       		.uleb128 0xb
 6468 07f4 1C000000 		.4byte	.LVL1
 6469 07f8 E5150000 		.4byte	0x15e5
 6470 07fc 0B       		.uleb128 0xb
 6471 07fd 48000000 		.4byte	.LVL2
 6472 0801 E5150000 		.4byte	0x15e5
 6473 0805 00       		.byte	0
 6474 0806 0A       		.uleb128 0xa
 6475 0807 01       		.byte	0x1
 6476 0808 340B0000 		.4byte	.LASF107
 6477 080c 01       		.byte	0x1
 6478 080d 6F       		.byte	0x6f
 6479 080e 01       		.byte	0x1
 6480 080f 00000000 		.4byte	.LFB34
 6481 0813 D4040000 		.4byte	.LFE34
 6482 0817 20000000 		.4byte	.LLST1
 6483 081b 01       		.byte	0x1
 6484 081c 45080000 		.4byte	0x845
 6485 0820 0B       		.uleb128 0xb
 6486 0821 AA020000 		.4byte	.LVL12
 6487 0825 F0150000 		.4byte	0x15f0
 6488 0829 0B       		.uleb128 0xb
 6489 082a C6020000 		.4byte	.LVL13
 6490 082e F0150000 		.4byte	0x15f0
 6491 0832 0B       		.uleb128 0xb
 6492 0833 BA030000 		.4byte	.LVL14
 6493 0837 FE150000 		.4byte	0x15fe
 6494 083b 0B       		.uleb128 0xb
 6495 083c D6030000 		.4byte	.LVL15
 6496 0840 FE150000 		.4byte	0x15fe
 6497 0844 00       		.byte	0
 6498 0845 0C       		.uleb128 0xc
 6499 0846 01       		.byte	0x1
 6500 0847 55050000 		.4byte	.LASF108
 6501 084b 01       		.byte	0x1
 6502 084c 7801     		.2byte	0x178
 6503 084e 01       		.byte	0x1
 6504 084f 00000000 		.4byte	.LFB35
 6505 0853 28010000 		.4byte	.LFE35
 6506 0857 40000000 		.4byte	.LLST2
 6507 085b 01       		.byte	0x1
ARM GAS  C:\Users\ZHANGM~1\AppData\Local\Temp\cccEtK9g.s 			page 154


 6508 085c 0D       		.uleb128 0xd
 6509 085d 01       		.byte	0x1
 6510 085e 53020000 		.4byte	.LASF109
 6511 0862 01       		.byte	0x1
 6512 0863 CB01     		.2byte	0x1cb
 6513 0865 01       		.byte	0x1
 6514 0866 00000000 		.4byte	.LFB37
 6515 086a E8030000 		.4byte	.LFE37
 6516 086e 60000000 		.4byte	.LLST3
 6517 0872 01       		.byte	0x1
 6518 0873 0E       		.uleb128 0xe
 6519 0874 01       		.byte	0x1
 6520 0875 24080000 		.4byte	.LASF110
 6521 0879 01       		.byte	0x1
 6522 087a A601     		.2byte	0x1a6
 6523 087c 01       		.byte	0x1
 6524 087d 00000000 		.4byte	.LFB36
 6525 0881 C8000000 		.4byte	.LFE36
 6526 0885 80000000 		.4byte	.LLST4
 6527 0889 01       		.byte	0x1
 6528 088a 98080000 		.4byte	0x898
 6529 088e 0B       		.uleb128 0xb
 6530 088f 06000000 		.4byte	.LVL28
 6531 0893 5C080000 		.4byte	0x85c
 6532 0897 00       		.byte	0
 6533 0898 0E       		.uleb128 0xe
 6534 0899 01       		.byte	0x1
 6535 089a A70A0000 		.4byte	.LASF111
 6536 089e 01       		.byte	0x1
 6537 089f DE02     		.2byte	0x2de
 6538 08a1 01       		.byte	0x1
 6539 08a2 00000000 		.4byte	.LFB38
 6540 08a6 CC000000 		.4byte	.LFE38
 6541 08aa A0000000 		.4byte	.LLST5
 6542 08ae 01       		.byte	0x1
 6543 08af FE080000 		.4byte	0x8fe
 6544 08b3 0B       		.uleb128 0xb
 6545 08b4 06000000 		.4byte	.LVL29
 6546 08b8 0C160000 		.4byte	0x160c
 6547 08bc 0B       		.uleb128 0xb
 6548 08bd 10000000 		.4byte	.LVL30
 6549 08c1 1A160000 		.4byte	0x161a
 6550 08c5 0F       		.uleb128 0xf
 6551 08c6 30000000 		.4byte	.LVL31
 6552 08ca 28160000 		.4byte	0x1628
 6553 08ce DA080000 		.4byte	0x8da
 6554 08d2 10       		.uleb128 0x10
 6555 08d3 01       		.byte	0x1
 6556 08d4 50       		.byte	0x50
 6557 08d5 03       		.byte	0x3
 6558 08d6 0B       		.byte	0xb
 6559 08d7 F190     		.2byte	0x90f1
 6560 08d9 00       		.byte	0
 6561 08da 0B       		.uleb128 0xb
 6562 08db 3A000000 		.4byte	.LVL32
 6563 08df 3C160000 		.4byte	0x163c
 6564 08e3 0B       		.uleb128 0xb
ARM GAS  C:\Users\ZHANGM~1\AppData\Local\Temp\cccEtK9g.s 			page 155


 6565 08e4 42000000 		.4byte	.LVL33
 6566 08e8 4A160000 		.4byte	0x164a
 6567 08ec 11       		.uleb128 0x11
 6568 08ed 7C000000 		.4byte	.LVL34
 6569 08f1 28160000 		.4byte	0x1628
 6570 08f5 10       		.uleb128 0x10
 6571 08f6 01       		.byte	0x1
 6572 08f7 50       		.byte	0x50
 6573 08f8 03       		.byte	0x3
 6574 08f9 0B       		.byte	0xb
 6575 08fa F290     		.2byte	0x90f2
 6576 08fc 00       		.byte	0
 6577 08fd 00       		.byte	0
 6578 08fe 0E       		.uleb128 0xe
 6579 08ff 01       		.byte	0x1
 6580 0900 03050000 		.4byte	.LASF112
 6581 0904 01       		.byte	0x1
 6582 0905 1303     		.2byte	0x313
 6583 0907 01       		.byte	0x1
 6584 0908 00000000 		.4byte	.LFB39
 6585 090c CC010000 		.4byte	.LFE39
 6586 0910 C0000000 		.4byte	.LLST6
 6587 0914 01       		.byte	0x1
 6588 0915 41090000 		.4byte	0x941
 6589 0919 0F       		.uleb128 0xf
 6590 091a 14000000 		.4byte	.LVL35
 6591 091e 28160000 		.4byte	0x1628
 6592 0922 2E090000 		.4byte	0x92e
 6593 0926 10       		.uleb128 0x10
 6594 0927 01       		.byte	0x1
 6595 0928 50       		.byte	0x50
 6596 0929 03       		.byte	0x3
 6597 092a 0B       		.byte	0xb
 6598 092b F090     		.2byte	0x90f0
 6599 092d 00       		.byte	0
 6600 092e 0B       		.uleb128 0xb
 6601 092f 28000000 		.4byte	.LVL36
 6602 0933 F0150000 		.4byte	0x15f0
 6603 0937 0B       		.uleb128 0xb
 6604 0938 90000000 		.4byte	.LVL37
 6605 093c FE150000 		.4byte	0x15fe
 6606 0940 00       		.byte	0
 6607 0941 0C       		.uleb128 0xc
 6608 0942 01       		.byte	0x1
 6609 0943 A8030000 		.4byte	.LASF113
 6610 0947 01       		.byte	0x1
 6611 0948 A403     		.2byte	0x3a4
 6612 094a 01       		.byte	0x1
 6613 094b 00000000 		.4byte	.LFB40
 6614 094f 40000000 		.4byte	.LFE40
 6615 0953 E0000000 		.4byte	.LLST7
 6616 0957 01       		.byte	0x1
 6617 0958 0C       		.uleb128 0xc
 6618 0959 01       		.byte	0x1
 6619 095a D2080000 		.4byte	.LASF114
 6620 095e 01       		.byte	0x1
 6621 095f C003     		.2byte	0x3c0
ARM GAS  C:\Users\ZHANGM~1\AppData\Local\Temp\cccEtK9g.s 			page 156


 6622 0961 01       		.byte	0x1
 6623 0962 00000000 		.4byte	.LFB41
 6624 0966 B4000000 		.4byte	.LFE41
 6625 096a 00010000 		.4byte	.LLST8
 6626 096e 01       		.byte	0x1
 6627 096f 12       		.uleb128 0x12
 6628 0970 01       		.byte	0x1
 6629 0971 6B657900 		.ascii	"key\000"
 6630 0975 01       		.byte	0x1
 6631 0976 F403     		.2byte	0x3f4
 6632 0978 01       		.byte	0x1
 6633 0979 00000000 		.4byte	.LFB42
 6634 097d 24060000 		.4byte	.LFE42
 6635 0981 20010000 		.4byte	.LLST9
 6636 0985 01       		.byte	0x1
 6637 0986 BC090000 		.4byte	0x9bc
 6638 098a 0F       		.uleb128 0xf
 6639 098b D2040000 		.4byte	.LVL38
 6640 098f 58160000 		.4byte	0x1658
 6641 0993 9D090000 		.4byte	0x99d
 6642 0997 10       		.uleb128 0x10
 6643 0998 01       		.byte	0x1
 6644 0999 50       		.byte	0x50
 6645 099a 01       		.byte	0x1
 6646 099b 31       		.byte	0x31
 6647 099c 00       		.byte	0
 6648 099d 0F       		.uleb128 0xf
 6649 099e 2A050000 		.4byte	.LVL39
 6650 09a2 6C160000 		.4byte	0x166c
 6651 09a6 B2090000 		.4byte	0x9b2
 6652 09aa 10       		.uleb128 0x10
 6653 09ab 01       		.byte	0x1
 6654 09ac 50       		.byte	0x50
 6655 09ad 03       		.byte	0x3
 6656 09ae 0B       		.byte	0xb
 6657 09af C2CC     		.2byte	0xccc2
 6658 09b1 00       		.byte	0
 6659 09b2 0B       		.uleb128 0xb
 6660 09b3 9C050000 		.4byte	.LVL40
 6661 09b7 80160000 		.4byte	0x1680
 6662 09bb 00       		.byte	0
 6663 09bc 0C       		.uleb128 0xc
 6664 09bd 01       		.byte	0x1
 6665 09be 71080000 		.4byte	.LASF115
 6666 09c2 01       		.byte	0x1
 6667 09c3 9905     		.2byte	0x599
 6668 09c5 01       		.byte	0x1
 6669 09c6 00000000 		.4byte	.LFB43
 6670 09ca 5C000000 		.4byte	.LFE43
 6671 09ce 40010000 		.4byte	.LLST10
 6672 09d2 01       		.byte	0x1
 6673 09d3 0E       		.uleb128 0xe
 6674 09d4 01       		.byte	0x1
 6675 09d5 12020000 		.4byte	.LASF116
 6676 09d9 01       		.byte	0x1
 6677 09da B305     		.2byte	0x5b3
 6678 09dc 01       		.byte	0x1
ARM GAS  C:\Users\ZHANGM~1\AppData\Local\Temp\cccEtK9g.s 			page 157


 6679 09dd 00000000 		.4byte	.LFB44
 6680 09e1 5C000000 		.4byte	.LFE44
 6681 09e5 60010000 		.4byte	.LLST11
 6682 09e9 01       		.byte	0x1
 6683 09ea 010A0000 		.4byte	0xa01
 6684 09ee 0B       		.uleb128 0xb
 6685 09ef 06000000 		.4byte	.LVL41
 6686 09f3 8A160000 		.4byte	0x168a
 6687 09f7 0B       		.uleb128 0xb
 6688 09f8 0A000000 		.4byte	.LVL42
 6689 09fc 94160000 		.4byte	0x1694
 6690 0a00 00       		.byte	0
 6691 0a01 0E       		.uleb128 0xe
 6692 0a02 01       		.byte	0x1
 6693 0a03 E40B0000 		.4byte	.LASF117
 6694 0a07 01       		.byte	0x1
 6695 0a08 F105     		.2byte	0x5f1
 6696 0a0a 01       		.byte	0x1
 6697 0a0b 00000000 		.4byte	.LFB45
 6698 0a0f D4050000 		.4byte	.LFE45
 6699 0a13 80010000 		.4byte	.LLST12
 6700 0a17 01       		.byte	0x1
 6701 0a18 3D0C0000 		.4byte	0xc3d
 6702 0a1c 0B       		.uleb128 0xb
 6703 0a1d 08000000 		.4byte	.LVL43
 6704 0a21 45080000 		.4byte	0x845
 6705 0a25 0B       		.uleb128 0xb
 6706 0a26 0C000000 		.4byte	.LVL44
 6707 0a2a 5C080000 		.4byte	0x85c
 6708 0a2e 0B       		.uleb128 0xb
 6709 0a2f 22000000 		.4byte	.LVL45
 6710 0a33 98080000 		.4byte	0x898
 6711 0a37 0B       		.uleb128 0xb
 6712 0a38 26000000 		.4byte	.LVL46
 6713 0a3c FE080000 		.4byte	0x8fe
 6714 0a40 0B       		.uleb128 0xb
 6715 0a41 2A000000 		.4byte	.LVL47
 6716 0a45 D3090000 		.4byte	0x9d3
 6717 0a49 0B       		.uleb128 0xb
 6718 0a4a 2E000000 		.4byte	.LVL48
 6719 0a4e 9E160000 		.4byte	0x169e
 6720 0a52 0B       		.uleb128 0xb
 6721 0a53 32000000 		.4byte	.LVL49
 6722 0a57 A8160000 		.4byte	0x16a8
 6723 0a5b 0B       		.uleb128 0xb
 6724 0a5c 58000000 		.4byte	.LVL50
 6725 0a60 6F090000 		.4byte	0x96f
 6726 0a64 0F       		.uleb128 0xf
 6727 0a65 6C000000 		.4byte	.LVL51
 6728 0a69 6C160000 		.4byte	0x166c
 6729 0a6d 790A0000 		.4byte	0xa79
 6730 0a71 10       		.uleb128 0x10
 6731 0a72 01       		.byte	0x1
 6732 0a73 50       		.byte	0x50
 6733 0a74 03       		.byte	0x3
 6734 0a75 0B       		.byte	0xb
 6735 0a76 0290     		.2byte	0x9002
ARM GAS  C:\Users\ZHANGM~1\AppData\Local\Temp\cccEtK9g.s 			page 158


 6736 0a78 00       		.byte	0
 6737 0a79 0F       		.uleb128 0xf
 6738 0a7a 74000000 		.4byte	.LVL52
 6739 0a7e 6C160000 		.4byte	0x166c
 6740 0a82 8E0A0000 		.4byte	0xa8e
 6741 0a86 10       		.uleb128 0x10
 6742 0a87 01       		.byte	0x1
 6743 0a88 50       		.byte	0x50
 6744 0a89 03       		.byte	0x3
 6745 0a8a 0B       		.byte	0xb
 6746 0a8b 0090     		.2byte	0x9000
 6747 0a8d 00       		.byte	0
 6748 0a8e 0F       		.uleb128 0xf
 6749 0a8f 9A000000 		.4byte	.LVL53
 6750 0a93 B2160000 		.4byte	0x16b2
 6751 0a97 A10A0000 		.4byte	0xaa1
 6752 0a9b 10       		.uleb128 0x10
 6753 0a9c 01       		.byte	0x1
 6754 0a9d 50       		.byte	0x50
 6755 0a9e 01       		.byte	0x1
 6756 0a9f 30       		.byte	0x30
 6757 0aa0 00       		.byte	0
 6758 0aa1 0F       		.uleb128 0xf
 6759 0aa2 28010000 		.4byte	.LVL54
 6760 0aa6 B2160000 		.4byte	0x16b2
 6761 0aaa B40A0000 		.4byte	0xab4
 6762 0aae 10       		.uleb128 0x10
 6763 0aaf 01       		.byte	0x1
 6764 0ab0 50       		.byte	0x50
 6765 0ab1 01       		.byte	0x1
 6766 0ab2 30       		.byte	0x30
 6767 0ab3 00       		.byte	0
 6768 0ab4 0F       		.uleb128 0xf
 6769 0ab5 2E010000 		.4byte	.LVL55
 6770 0ab9 C6160000 		.4byte	0x16c6
 6771 0abd C70A0000 		.4byte	0xac7
 6772 0ac1 10       		.uleb128 0x10
 6773 0ac2 01       		.byte	0x1
 6774 0ac3 50       		.byte	0x50
 6775 0ac4 01       		.byte	0x1
 6776 0ac5 30       		.byte	0x30
 6777 0ac6 00       		.byte	0
 6778 0ac7 0B       		.uleb128 0xb
 6779 0ac8 4C010000 		.4byte	.LVL56
 6780 0acc 80160000 		.4byte	0x1680
 6781 0ad0 0B       		.uleb128 0xb
 6782 0ad1 90010000 		.4byte	.LVL57
 6783 0ad5 41090000 		.4byte	0x941
 6784 0ad9 0B       		.uleb128 0xb
 6785 0ada F2010000 		.4byte	.LVL58
 6786 0ade BC090000 		.4byte	0x9bc
 6787 0ae2 0F       		.uleb128 0xf
 6788 0ae3 66020000 		.4byte	.LVL59
 6789 0ae7 B2160000 		.4byte	0x16b2
 6790 0aeb F80A0000 		.4byte	0xaf8
 6791 0aef 10       		.uleb128 0x10
 6792 0af0 01       		.byte	0x1
ARM GAS  C:\Users\ZHANGM~1\AppData\Local\Temp\cccEtK9g.s 			page 159


 6793 0af1 50       		.byte	0x50
 6794 0af2 04       		.byte	0x4
 6795 0af3 91       		.byte	0x91
 6796 0af4 5C       		.sleb128 -36
 6797 0af5 94       		.byte	0x94
 6798 0af6 01       		.byte	0x1
 6799 0af7 00       		.byte	0
 6800 0af8 0F       		.uleb128 0xf
 6801 0af9 6C020000 		.4byte	.LVL60
 6802 0afd C6160000 		.4byte	0x16c6
 6803 0b01 0E0B0000 		.4byte	0xb0e
 6804 0b05 10       		.uleb128 0x10
 6805 0b06 01       		.byte	0x1
 6806 0b07 50       		.byte	0x50
 6807 0b08 04       		.byte	0x4
 6808 0b09 91       		.byte	0x91
 6809 0b0a 5C       		.sleb128 -36
 6810 0b0b 94       		.byte	0x94
 6811 0b0c 01       		.byte	0x1
 6812 0b0d 00       		.byte	0
 6813 0b0e 0F       		.uleb128 0xf
 6814 0b0f 92020000 		.4byte	.LVL61
 6815 0b13 B2160000 		.4byte	0x16b2
 6816 0b17 240B0000 		.4byte	0xb24
 6817 0b1b 10       		.uleb128 0x10
 6818 0b1c 01       		.byte	0x1
 6819 0b1d 50       		.byte	0x50
 6820 0b1e 04       		.byte	0x4
 6821 0b1f 91       		.byte	0x91
 6822 0b20 64       		.sleb128 -28
 6823 0b21 94       		.byte	0x94
 6824 0b22 01       		.byte	0x1
 6825 0b23 00       		.byte	0
 6826 0b24 0F       		.uleb128 0xf
 6827 0b25 98020000 		.4byte	.LVL62
 6828 0b29 C6160000 		.4byte	0x16c6
 6829 0b2d 3A0B0000 		.4byte	0xb3a
 6830 0b31 10       		.uleb128 0x10
 6831 0b32 01       		.byte	0x1
 6832 0b33 50       		.byte	0x50
 6833 0b34 04       		.byte	0x4
 6834 0b35 91       		.byte	0x91
 6835 0b36 64       		.sleb128 -28
 6836 0b37 94       		.byte	0x94
 6837 0b38 01       		.byte	0x1
 6838 0b39 00       		.byte	0
 6839 0b3a 0F       		.uleb128 0xf
 6840 0b3b C4020000 		.4byte	.LVL63
 6841 0b3f B2160000 		.4byte	0x16b2
 6842 0b43 4E0B0000 		.4byte	0xb4e
 6843 0b47 10       		.uleb128 0x10
 6844 0b48 01       		.byte	0x1
 6845 0b49 50       		.byte	0x50
 6846 0b4a 02       		.byte	0x2
 6847 0b4b 77       		.byte	0x77
 6848 0b4c 00       		.sleb128 0
 6849 0b4d 00       		.byte	0
ARM GAS  C:\Users\ZHANGM~1\AppData\Local\Temp\cccEtK9g.s 			page 160


 6850 0b4e 0F       		.uleb128 0xf
 6851 0b4f CA020000 		.4byte	.LVL64
 6852 0b53 C6160000 		.4byte	0x16c6
 6853 0b57 620B0000 		.4byte	0xb62
 6854 0b5b 10       		.uleb128 0x10
 6855 0b5c 01       		.byte	0x1
 6856 0b5d 50       		.byte	0x50
 6857 0b5e 02       		.byte	0x2
 6858 0b5f 77       		.byte	0x77
 6859 0b60 00       		.sleb128 0
 6860 0b61 00       		.byte	0
 6861 0b62 0F       		.uleb128 0xf
 6862 0b63 EA020000 		.4byte	.LVL65
 6863 0b67 B2160000 		.4byte	0x16b2
 6864 0b6b 760B0000 		.4byte	0xb76
 6865 0b6f 10       		.uleb128 0x10
 6866 0b70 01       		.byte	0x1
 6867 0b71 50       		.byte	0x50
 6868 0b72 02       		.byte	0x2
 6869 0b73 76       		.byte	0x76
 6870 0b74 00       		.sleb128 0
 6871 0b75 00       		.byte	0
 6872 0b76 0F       		.uleb128 0xf
 6873 0b77 F0020000 		.4byte	.LVL66
 6874 0b7b C6160000 		.4byte	0x16c6
 6875 0b7f 8A0B0000 		.4byte	0xb8a
 6876 0b83 10       		.uleb128 0x10
 6877 0b84 01       		.byte	0x1
 6878 0b85 50       		.byte	0x50
 6879 0b86 02       		.byte	0x2
 6880 0b87 76       		.byte	0x76
 6881 0b88 00       		.sleb128 0
 6882 0b89 00       		.byte	0
 6883 0b8a 0F       		.uleb128 0xf
 6884 0b8b 42040000 		.4byte	.LVL67
 6885 0b8f C6160000 		.4byte	0x16c6
 6886 0b93 9D0B0000 		.4byte	0xb9d
 6887 0b97 10       		.uleb128 0x10
 6888 0b98 01       		.byte	0x1
 6889 0b99 50       		.byte	0x50
 6890 0b9a 01       		.byte	0x1
 6891 0b9b 31       		.byte	0x31
 6892 0b9c 00       		.byte	0
 6893 0b9d 0F       		.uleb128 0xf
 6894 0b9e 48040000 		.4byte	.LVL68
 6895 0ba2 B2160000 		.4byte	0x16b2
 6896 0ba6 B00B0000 		.4byte	0xbb0
 6897 0baa 10       		.uleb128 0x10
 6898 0bab 01       		.byte	0x1
 6899 0bac 50       		.byte	0x50
 6900 0bad 01       		.byte	0x1
 6901 0bae 31       		.byte	0x31
 6902 0baf 00       		.byte	0
 6903 0bb0 0B       		.uleb128 0xb
 6904 0bb1 64040000 		.4byte	.LVL69
 6905 0bb5 C6160000 		.4byte	0x16c6
 6906 0bb9 0F       		.uleb128 0xf
ARM GAS  C:\Users\ZHANGM~1\AppData\Local\Temp\cccEtK9g.s 			page 161


 6907 0bba B2040000 		.4byte	.LVL70
 6908 0bbe C6160000 		.4byte	0x16c6
 6909 0bc2 CC0B0000 		.4byte	0xbcc
 6910 0bc6 10       		.uleb128 0x10
 6911 0bc7 01       		.byte	0x1
 6912 0bc8 50       		.byte	0x50
 6913 0bc9 01       		.byte	0x1
 6914 0bca 31       		.byte	0x31
 6915 0bcb 00       		.byte	0
 6916 0bcc 0F       		.uleb128 0xf
 6917 0bcd B8040000 		.4byte	.LVL71
 6918 0bd1 B2160000 		.4byte	0x16b2
 6919 0bd5 DF0B0000 		.4byte	0xbdf
 6920 0bd9 10       		.uleb128 0x10
 6921 0bda 01       		.byte	0x1
 6922 0bdb 50       		.byte	0x50
 6923 0bdc 01       		.byte	0x1
 6924 0bdd 31       		.byte	0x31
 6925 0bde 00       		.byte	0
 6926 0bdf 0F       		.uleb128 0xf
 6927 0be0 E2040000 		.4byte	.LVL72
 6928 0be4 C6160000 		.4byte	0x16c6
 6929 0be8 F20B0000 		.4byte	0xbf2
 6930 0bec 10       		.uleb128 0x10
 6931 0bed 01       		.byte	0x1
 6932 0bee 50       		.byte	0x50
 6933 0bef 01       		.byte	0x1
 6934 0bf0 30       		.byte	0x30
 6935 0bf1 00       		.byte	0
 6936 0bf2 0B       		.uleb128 0xb
 6937 0bf3 FE040000 		.4byte	.LVL73
 6938 0bf7 C6160000 		.4byte	0x16c6
 6939 0bfb 0F       		.uleb128 0xf
 6940 0bfc 0E050000 		.4byte	.LVL74
 6941 0c00 B2160000 		.4byte	0x16b2
 6942 0c04 0E0C0000 		.4byte	0xc0e
 6943 0c08 10       		.uleb128 0x10
 6944 0c09 01       		.byte	0x1
 6945 0c0a 50       		.byte	0x50
 6946 0c0b 01       		.byte	0x1
 6947 0c0c 31       		.byte	0x31
 6948 0c0d 00       		.byte	0
 6949 0c0e 0F       		.uleb128 0xf
 6950 0c0f 14050000 		.4byte	.LVL75
 6951 0c13 C6160000 		.4byte	0x16c6
 6952 0c17 220C0000 		.4byte	0xc22
 6953 0c1b 10       		.uleb128 0x10
 6954 0c1c 01       		.byte	0x1
 6955 0c1d 50       		.byte	0x50
 6956 0c1e 02       		.byte	0x2
 6957 0c1f 76       		.byte	0x76
 6958 0c20 00       		.sleb128 0
 6959 0c21 00       		.byte	0
 6960 0c22 0B       		.uleb128 0xb
 6961 0c23 40050000 		.4byte	.LVL76
 6962 0c27 B2160000 		.4byte	0x16b2
 6963 0c2b 11       		.uleb128 0x11
ARM GAS  C:\Users\ZHANGM~1\AppData\Local\Temp\cccEtK9g.s 			page 162


 6964 0c2c 68050000 		.4byte	.LVL77
 6965 0c30 6C160000 		.4byte	0x166c
 6966 0c34 10       		.uleb128 0x10
 6967 0c35 01       		.byte	0x1
 6968 0c36 50       		.byte	0x50
 6969 0c37 03       		.byte	0x3
 6970 0c38 0B       		.byte	0xb
 6971 0c39 0290     		.2byte	0x9002
 6972 0c3b 00       		.byte	0
 6973 0c3c 00       		.byte	0
 6974 0c3d 13       		.uleb128 0x13
 6975 0c3e 900B0000 		.4byte	.LASF118
 6976 0c42 03       		.byte	0x3
 6977 0c43 1F       		.byte	0x1f
 6978 0c44 AC000000 		.4byte	0xac
 6979 0c48 01       		.byte	0x1
 6980 0c49 05       		.byte	0x5
 6981 0c4a 03       		.byte	0x3
 6982 0c4b 00000000 		.4byte	BuzzerFlag
 6983 0c4f 13       		.uleb128 0x13
 6984 0c50 35070000 		.4byte	.LASF119
 6985 0c54 03       		.byte	0x3
 6986 0c55 20       		.byte	0x20
 6987 0c56 6F000000 		.4byte	0x6f
 6988 0c5a 01       		.byte	0x1
 6989 0c5b 05       		.byte	0x5
 6990 0c5c 03       		.byte	0x3
 6991 0c5d 00000000 		.4byte	BuzzerNum
 6992 0c61 13       		.uleb128 0x13
 6993 0c62 C6090000 		.4byte	.LASF120
 6994 0c66 03       		.byte	0x3
 6995 0c67 20       		.byte	0x20
 6996 0c68 6F000000 		.4byte	0x6f
 6997 0c6c 01       		.byte	0x1
 6998 0c6d 05       		.byte	0x5
 6999 0c6e 03       		.byte	0x3
 7000 0c6f 00000000 		.4byte	BuzzerCnt
 7001 0c73 13       		.uleb128 0x13
 7002 0c74 64010000 		.4byte	.LASF121
 7003 0c78 03       		.byte	0x3
 7004 0c79 20       		.byte	0x20
 7005 0c7a 6F000000 		.4byte	0x6f
 7006 0c7e 01       		.byte	0x1
 7007 0c7f 05       		.byte	0x5
 7008 0c80 03       		.byte	0x3
 7009 0c81 00000000 		.4byte	BuzzerDly
 7010 0c85 13       		.uleb128 0x13
 7011 0c86 4F050000 		.4byte	.LASF122
 7012 0c8a 03       		.byte	0x3
 7013 0c8b 20       		.byte	0x20
 7014 0c8c 6F000000 		.4byte	0x6f
 7015 0c90 01       		.byte	0x1
 7016 0c91 05       		.byte	0x5
 7017 0c92 03       		.byte	0x3
 7018 0c93 00000000 		.4byte	eefig
 7019 0c97 13       		.uleb128 0x13
 7020 0c98 BF030000 		.4byte	.LASF123
ARM GAS  C:\Users\ZHANGM~1\AppData\Local\Temp\cccEtK9g.s 			page 163


 7021 0c9c 03       		.byte	0x3
 7022 0c9d 23       		.byte	0x23
 7023 0c9e 6F000000 		.4byte	0x6f
 7024 0ca2 01       		.byte	0x1
 7025 0ca3 05       		.byte	0x5
 7026 0ca4 03       		.byte	0x3
 7027 0ca5 00000000 		.4byte	BUZfkg
 7028 0ca9 13       		.uleb128 0x13
 7029 0caa BA050000 		.4byte	.LASF124
 7030 0cae 03       		.byte	0x3
 7031 0caf 23       		.byte	0x23
 7032 0cb0 6F000000 		.4byte	0x6f
 7033 0cb4 01       		.byte	0x1
 7034 0cb5 05       		.byte	0x5
 7035 0cb6 03       		.byte	0x3
 7036 0cb7 00000000 		.4byte	qushui_BUZcnt
 7037 0cbb 13       		.uleb128 0x13
 7038 0cbc 63000000 		.4byte	.LASF125
 7039 0cc0 03       		.byte	0x3
 7040 0cc1 23       		.byte	0x23
 7041 0cc2 6F000000 		.4byte	0x6f
 7042 0cc6 01       		.byte	0x1
 7043 0cc7 05       		.byte	0x5
 7044 0cc8 03       		.byte	0x3
 7045 0cc9 00000000 		.4byte	BUZfkgtemp
 7046 0ccd 13       		.uleb128 0x13
 7047 0cce 23090000 		.4byte	.LASF126
 7048 0cd2 03       		.byte	0x3
 7049 0cd3 23       		.byte	0x23
 7050 0cd4 6F000000 		.4byte	0x6f
 7051 0cd8 01       		.byte	0x1
 7052 0cd9 05       		.byte	0x5
 7053 0cda 03       		.byte	0x3
 7054 0cdb 00000000 		.4byte	BUZqueshuifkg
 7055 0cdf 13       		.uleb128 0x13
 7056 0ce0 7C020000 		.4byte	.LASF127
 7057 0ce4 03       		.byte	0x3
 7058 0ce5 23       		.byte	0x23
 7059 0ce6 6F000000 		.4byte	0x6f
 7060 0cea 01       		.byte	0x1
 7061 0ceb 05       		.byte	0x5
 7062 0cec 03       		.byte	0x3
 7063 0ced 00000000 		.4byte	standflashfig
 7064 0cf1 13       		.uleb128 0x13
 7065 0cf2 4C080000 		.4byte	.LASF128
 7066 0cf6 03       		.byte	0x3
 7067 0cf7 23       		.byte	0x23
 7068 0cf8 6F000000 		.4byte	0x6f
 7069 0cfc 01       		.byte	0x1
 7070 0cfd 05       		.byte	0x5
 7071 0cfe 03       		.byte	0x3
 7072 0cff 00000000 		.4byte	standkeyfig
 7073 0d03 13       		.uleb128 0x13
 7074 0d04 60090000 		.4byte	.LASF129
 7075 0d08 03       		.byte	0x3
 7076 0d09 25       		.byte	0x25
 7077 0d0a 6F000000 		.4byte	0x6f
ARM GAS  C:\Users\ZHANGM~1\AppData\Local\Temp\cccEtK9g.s 			page 164


 7078 0d0e 01       		.byte	0x1
 7079 0d0f 05       		.byte	0x5
 7080 0d10 03       		.byte	0x3
 7081 0d11 00000000 		.4byte	liucheng1
 7082 0d15 13       		.uleb128 0x13
 7083 0d16 26020000 		.4byte	.LASF130
 7084 0d1a 03       		.byte	0x3
 7085 0d1b 25       		.byte	0x25
 7086 0d1c 6F000000 		.4byte	0x6f
 7087 0d20 01       		.byte	0x1
 7088 0d21 05       		.byte	0x5
 7089 0d22 03       		.byte	0x3
 7090 0d23 00000000 		.4byte	liucheng2
 7091 0d27 13       		.uleb128 0x13
 7092 0d28 72090000 		.4byte	.LASF131
 7093 0d2c 03       		.byte	0x3
 7094 0d2d 25       		.byte	0x25
 7095 0d2e 6F000000 		.4byte	0x6f
 7096 0d32 01       		.byte	0x1
 7097 0d33 05       		.byte	0x5
 7098 0d34 03       		.byte	0x3
 7099 0d35 00000000 		.4byte	liucheng3
 7100 0d39 13       		.uleb128 0x13
 7101 0d3a 7C090000 		.4byte	.LASF132
 7102 0d3e 03       		.byte	0x3
 7103 0d3f 25       		.byte	0x25
 7104 0d40 6F000000 		.4byte	0x6f
 7105 0d44 01       		.byte	0x1
 7106 0d45 05       		.byte	0x5
 7107 0d46 03       		.byte	0x3
 7108 0d47 00000000 		.4byte	liucheng4
 7109 0d4b 13       		.uleb128 0x13
 7110 0d4c F8050000 		.4byte	.LASF133
 7111 0d50 03       		.byte	0x3
 7112 0d51 25       		.byte	0x25
 7113 0d52 6F000000 		.4byte	0x6f
 7114 0d56 01       		.byte	0x1
 7115 0d57 05       		.byte	0x5
 7116 0d58 03       		.byte	0x3
 7117 0d59 00000000 		.4byte	standstar_fig
 7118 0d5d 13       		.uleb128 0x13
 7119 0d5e 3F070000 		.4byte	.LASF134
 7120 0d62 03       		.byte	0x3
 7121 0d63 25       		.byte	0x25
 7122 0d64 6F000000 		.4byte	0x6f
 7123 0d68 01       		.byte	0x1
 7124 0d69 05       		.byte	0x5
 7125 0d6a 03       		.byte	0x3
 7126 0d6b 00000000 		.4byte	DYWDfig
 7127 0d6f 13       		.uleb128 0x13
 7128 0d70 78010000 		.4byte	.LASF135
 7129 0d74 03       		.byte	0x3
 7130 0d75 25       		.byte	0x25
 7131 0d76 6F000000 		.4byte	0x6f
 7132 0d7a 01       		.byte	0x1
 7133 0d7b 05       		.byte	0x5
 7134 0d7c 03       		.byte	0x3
ARM GAS  C:\Users\ZHANGM~1\AppData\Local\Temp\cccEtK9g.s 			page 165


 7135 0d7d 00000000 		.4byte	DYWDfig1
 7136 0d81 13       		.uleb128 0x13
 7137 0d82 D4060000 		.4byte	.LASF136
 7138 0d86 03       		.byte	0x3
 7139 0d87 25       		.byte	0x25
 7140 0d88 6F000000 		.4byte	0x6f
 7141 0d8c 01       		.byte	0x1
 7142 0d8d 05       		.byte	0x5
 7143 0d8e 03       		.byte	0x3
 7144 0d8f 00000000 		.4byte	DYWDcnt
 7145 0d93 13       		.uleb128 0x13
 7146 0d94 D9020000 		.4byte	.LASF137
 7147 0d98 03       		.byte	0x3
 7148 0d99 26       		.byte	0x26
 7149 0d9a 7A000000 		.4byte	0x7a
 7150 0d9e 01       		.byte	0x1
 7151 0d9f 05       		.byte	0x5
 7152 0da0 03       		.byte	0x3
 7153 0da1 00000000 		.4byte	DYWDcnt1
 7154 0da5 13       		.uleb128 0x13
 7155 0da6 07070000 		.4byte	.LASF138
 7156 0daa 03       		.byte	0x3
 7157 0dab 54       		.byte	0x54
 7158 0dac 85000000 		.4byte	0x85
 7159 0db0 01       		.byte	0x1
 7160 0db1 05       		.byte	0x5
 7161 0db2 03       		.byte	0x3
 7162 0db3 00000000 		.4byte	PowerOnOneHourCnt
 7163 0db7 13       		.uleb128 0x13
 7164 0db8 C9060000 		.4byte	.LASF139
 7165 0dbc 03       		.byte	0x3
 7166 0dbd 55       		.byte	0x55
 7167 0dbe 6F000000 		.4byte	0x6f
 7168 0dc2 01       		.byte	0x1
 7169 0dc3 05       		.byte	0x5
 7170 0dc4 03       		.byte	0x3
 7171 0dc5 00000000 		.4byte	NbPressCnt
 7172 0dc9 13       		.uleb128 0x13
 7173 0dca B9030000 		.4byte	.LASF140
 7174 0dce 03       		.byte	0x3
 7175 0dcf 55       		.byte	0x55
 7176 0dd0 6F000000 		.4byte	0x6f
 7177 0dd4 01       		.byte	0x1
 7178 0dd5 05       		.byte	0x5
 7179 0dd6 03       		.byte	0x3
 7180 0dd7 00000000 		.4byte	NBfig
 7181 0ddb 13       		.uleb128 0x13
 7182 0ddc FC060000 		.4byte	.LASF141
 7183 0de0 03       		.byte	0x3
 7184 0de1 55       		.byte	0x55
 7185 0de2 6F000000 		.4byte	0x6f
 7186 0de6 01       		.byte	0x1
 7187 0de7 05       		.byte	0x5
 7188 0de8 03       		.byte	0x3
 7189 0de9 00000000 		.4byte	NBPressCnt
 7190 0ded 13       		.uleb128 0x13
 7191 0dee 10040000 		.4byte	.LASF142
ARM GAS  C:\Users\ZHANGM~1\AppData\Local\Temp\cccEtK9g.s 			page 166


 7192 0df2 03       		.byte	0x3
 7193 0df3 55       		.byte	0x55
 7194 0df4 6F000000 		.4byte	0x6f
 7195 0df8 01       		.byte	0x1
 7196 0df9 05       		.byte	0x5
 7197 0dfa 03       		.byte	0x3
 7198 0dfb 00000000 		.4byte	NBPressStart
 7199 0dff 13       		.uleb128 0x13
 7200 0e00 D0000000 		.4byte	.LASF143
 7201 0e04 03       		.byte	0x3
 7202 0e05 55       		.byte	0x55
 7203 0e06 6F000000 		.4byte	0x6f
 7204 0e0a 01       		.byte	0x1
 7205 0e0b 05       		.byte	0x5
 7206 0e0c 03       		.byte	0x3
 7207 0e0d 00000000 		.4byte	LXXZOUT_fig
 7208 0e11 13       		.uleb128 0x13
 7209 0e12 91050000 		.4byte	.LASF144
 7210 0e16 03       		.byte	0x3
 7211 0e17 55       		.byte	0x55
 7212 0e18 6F000000 		.4byte	0x6f
 7213 0e1c 01       		.byte	0x1
 7214 0e1d 05       		.byte	0x5
 7215 0e1e 03       		.byte	0x3
 7216 0e1f 00000000 		.4byte	lXXZcnt_fig
 7217 0e23 13       		.uleb128 0x13
 7218 0e24 00010000 		.4byte	.LASF145
 7219 0e28 03       		.byte	0x3
 7220 0e29 56       		.byte	0x56
 7221 0e2a 6F000000 		.4byte	0x6f
 7222 0e2e 01       		.byte	0x1
 7223 0e2f 05       		.byte	0x5
 7224 0e30 03       		.byte	0x3
 7225 0e31 00000000 		.4byte	XzPressCnt
 7226 0e35 13       		.uleb128 0x13
 7227 0e36 58080000 		.4byte	.LASF146
 7228 0e3a 03       		.byte	0x3
 7229 0e3b 56       		.byte	0x56
 7230 0e3c 6F000000 		.4byte	0x6f
 7231 0e40 01       		.byte	0x1
 7232 0e41 05       		.byte	0x5
 7233 0e42 03       		.byte	0x3
 7234 0e43 00000000 		.4byte	WifiPressCnt
 7235 0e47 13       		.uleb128 0x13
 7236 0e48 BD080000 		.4byte	.LASF147
 7237 0e4c 03       		.byte	0x3
 7238 0e4d 56       		.byte	0x56
 7239 0e4e 6F000000 		.4byte	0x6f
 7240 0e52 01       		.byte	0x1
 7241 0e53 05       		.byte	0x5
 7242 0e54 03       		.byte	0x3
 7243 0e55 00000000 		.4byte	chongxifig
 7244 0e59 13       		.uleb128 0x13
 7245 0e5a 0F0A0000 		.4byte	.LASF148
 7246 0e5e 03       		.byte	0x3
 7247 0e5f 5A       		.byte	0x5a
 7248 0e60 D6000000 		.4byte	0xd6
ARM GAS  C:\Users\ZHANGM~1\AppData\Local\Temp\cccEtK9g.s 			page 167


 7249 0e64 01       		.byte	0x1
 7250 0e65 05       		.byte	0x5
 7251 0e66 03       		.byte	0x3
 7252 0e67 00000000 		.4byte	PressFlag
 7253 0e6b 13       		.uleb128 0x13
 7254 0e6c E00A0000 		.4byte	.LASF149
 7255 0e70 03       		.byte	0x3
 7256 0e71 5C       		.byte	0x5c
 7257 0e72 7A000000 		.4byte	0x7a
 7258 0e76 01       		.byte	0x1
 7259 0e77 05       		.byte	0x5
 7260 0e78 03       		.byte	0x3
 7261 0e79 00000000 		.4byte	chongxicnt
 7262 0e7d 13       		.uleb128 0x13
 7263 0e7e 18090000 		.4byte	.LASF150
 7264 0e82 03       		.byte	0x3
 7265 0e83 5C       		.byte	0x5c
 7266 0e84 7A000000 		.4byte	0x7a
 7267 0e88 01       		.byte	0x1
 7268 0e89 05       		.byte	0x5
 7269 0e8a 03       		.byte	0x3
 7270 0e8b 00000000 		.4byte	NBstandcnt
 7271 0e8f 13       		.uleb128 0x13
 7272 0e90 F7020000 		.4byte	.LASF151
 7273 0e94 03       		.byte	0x3
 7274 0e95 5C       		.byte	0x5c
 7275 0e96 7A000000 		.4byte	0x7a
 7276 0e9a 01       		.byte	0x1
 7277 0e9b 05       		.byte	0x5
 7278 0e9c 03       		.byte	0x3
 7279 0e9d 00000000 		.4byte	LXXZstandcnt
 7280 0ea1 13       		.uleb128 0x13
 7281 0ea2 BF060000 		.4byte	.LASF152
 7282 0ea6 03       		.byte	0x3
 7283 0ea7 5C       		.byte	0x5c
 7284 0ea8 7A000000 		.4byte	0x7a
 7285 0eac 01       		.byte	0x1
 7286 0ead 05       		.byte	0x5
 7287 0eae 03       		.byte	0x3
 7288 0eaf 00000000 		.4byte	onemincnt
 7289 0eb3 13       		.uleb128 0x13
 7290 0eb4 22070000 		.4byte	.LASF153
 7291 0eb8 03       		.byte	0x3
 7292 0eb9 5C       		.byte	0x5c
 7293 0eba 7A000000 		.4byte	0x7a
 7294 0ebe 01       		.byte	0x1
 7295 0ebf 05       		.byte	0x5
 7296 0ec0 03       		.byte	0x3
 7297 0ec1 00000000 		.4byte	NBmint
 7298 0ec5 13       		.uleb128 0x13
 7299 0ec6 4C090000 		.4byte	.LASF154
 7300 0eca 03       		.byte	0x3
 7301 0ecb 5C       		.byte	0x5c
 7302 0ecc 7A000000 		.4byte	0x7a
 7303 0ed0 01       		.byte	0x1
 7304 0ed1 05       		.byte	0x5
 7305 0ed2 03       		.byte	0x3
ARM GAS  C:\Users\ZHANGM~1\AppData\Local\Temp\cccEtK9g.s 			page 168


 7306 0ed3 00000000 		.4byte	jingshuicnt
 7307 0ed7 13       		.uleb128 0x13
 7308 0ed8 19070000 		.4byte	.LASF155
 7309 0edc 03       		.byte	0x3
 7310 0edd 5C       		.byte	0x5c
 7311 0ede 7A000000 		.4byte	0x7a
 7312 0ee2 01       		.byte	0x1
 7313 0ee3 05       		.byte	0x5
 7314 0ee4 03       		.byte	0x3
 7315 0ee5 00000000 		.4byte	eroorcnt
 7316 0ee9 13       		.uleb128 0x13
 7317 0eea 22040000 		.4byte	.LASF156
 7318 0eee 03       		.byte	0x3
 7319 0eef 5C       		.byte	0x5c
 7320 0ef0 7A000000 		.4byte	0x7a
 7321 0ef4 01       		.byte	0x1
 7322 0ef5 05       		.byte	0x5
 7323 0ef6 03       		.byte	0x3
 7324 0ef7 00000000 		.4byte	standflashcnt
 7325 0efb 13       		.uleb128 0x13
 7326 0efc 560A0000 		.4byte	.LASF157
 7327 0f00 03       		.byte	0x3
 7328 0f01 5C       		.byte	0x5c
 7329 0f02 7A000000 		.4byte	0x7a
 7330 0f06 01       		.byte	0x1
 7331 0f07 05       		.byte	0x5
 7332 0f08 03       		.byte	0x3
 7333 0f09 00000000 		.4byte	standkeycnt
 7334 0f0d 13       		.uleb128 0x13
 7335 0f0e D7040000 		.4byte	.LASF158
 7336 0f12 03       		.byte	0x3
 7337 0f13 5D       		.byte	0x5d
 7338 0f14 6F000000 		.4byte	0x6f
 7339 0f18 01       		.byte	0x1
 7340 0f19 05       		.byte	0x5
 7341 0f1a 03       		.byte	0x3
 7342 0f1b 00000000 		.4byte	zijianstacnt
 7343 0f1f 13       		.uleb128 0x13
 7344 0f20 0F050000 		.4byte	.LASF159
 7345 0f24 03       		.byte	0x3
 7346 0f25 5E       		.byte	0x5e
 7347 0f26 6F000000 		.4byte	0x6f
 7348 0f2a 01       		.byte	0x1
 7349 0f2b 05       		.byte	0x5
 7350 0f2c 03       		.byte	0x3
 7351 0f2d 00000000 		.4byte	jixingnumber
 7352 0f31 13       		.uleb128 0x13
 7353 0f32 5E060000 		.4byte	.LASF160
 7354 0f36 03       		.byte	0x3
 7355 0f37 5E       		.byte	0x5e
 7356 0f38 6F000000 		.4byte	0x6f
 7357 0f3c 01       		.byte	0x1
 7358 0f3d 05       		.byte	0x5
 7359 0f3e 03       		.byte	0x3
 7360 0f3f 00000000 		.4byte	onehourcnt
 7361 0f43 13       		.uleb128 0x13
 7362 0f44 F6090000 		.4byte	.LASF161
ARM GAS  C:\Users\ZHANGM~1\AppData\Local\Temp\cccEtK9g.s 			page 169


 7363 0f48 03       		.byte	0x3
 7364 0f49 5E       		.byte	0x5e
 7365 0f4a 6F000000 		.4byte	0x6f
 7366 0f4e 01       		.byte	0x1
 7367 0f4f 05       		.byte	0x5
 7368 0f50 03       		.byte	0x3
 7369 0f51 00000000 		.4byte	jishihour
 7370 0f55 13       		.uleb128 0x13
 7371 0f56 AD090000 		.4byte	.LASF162
 7372 0f5a 03       		.byte	0x3
 7373 0f5b 5F       		.byte	0x5f
 7374 0f5c 6F000000 		.4byte	0x6f
 7375 0f60 01       		.byte	0x1
 7376 0f61 05       		.byte	0x5
 7377 0f62 03       		.byte	0x3
 7378 0f63 00000000 		.4byte	zijiandisplayfig
 7379 0f67 13       		.uleb128 0x13
 7380 0f68 890A0000 		.4byte	.LASF163
 7381 0f6c 03       		.byte	0x3
 7382 0f6d 5F       		.byte	0x5f
 7383 0f6e 6F000000 		.4byte	0x6f
 7384 0f72 01       		.byte	0x1
 7385 0f73 05       		.byte	0x5
 7386 0f74 03       		.byte	0x3
 7387 0f75 00000000 		.4byte	workstartfig
 7388 0f79 13       		.uleb128 0x13
 7389 0f7a 1E000000 		.4byte	.LASF164
 7390 0f7e 03       		.byte	0x3
 7391 0f7f 5F       		.byte	0x5f
 7392 0f80 6F000000 		.4byte	0x6f
 7393 0f84 01       		.byte	0x1
 7394 0f85 05       		.byte	0x5
 7395 0f86 03       		.byte	0x3
 7396 0f87 00000000 		.4byte	GYfig
 7397 0f8b 13       		.uleb128 0x13
 7398 0f8c 0C020000 		.4byte	.LASF165
 7399 0f90 03       		.byte	0x3
 7400 0f91 5F       		.byte	0x5f
 7401 0f92 6F000000 		.4byte	0x6f
 7402 0f96 01       		.byte	0x1
 7403 0f97 05       		.byte	0x5
 7404 0f98 03       		.byte	0x3
 7405 0f99 00000000 		.4byte	GYcnt
 7406 0f9d 13       		.uleb128 0x13
 7407 0f9e 5B050000 		.4byte	.LASF166
 7408 0fa2 03       		.byte	0x3
 7409 0fa3 5F       		.byte	0x5f
 7410 0fa4 6F000000 		.4byte	0x6f
 7411 0fa8 01       		.byte	0x1
 7412 0fa9 05       		.byte	0x5
 7413 0faa 03       		.byte	0x3
 7414 0fab 00000000 		.4byte	gyfullcnt
 7415 0faf 13       		.uleb128 0x13
 7416 0fb0 960A0000 		.4byte	.LASF167
 7417 0fb4 03       		.byte	0x3
 7418 0fb5 5F       		.byte	0x5f
 7419 0fb6 6F000000 		.4byte	0x6f
ARM GAS  C:\Users\ZHANGM~1\AppData\Local\Temp\cccEtK9g.s 			page 170


 7420 0fba 01       		.byte	0x1
 7421 0fbb 05       		.byte	0x5
 7422 0fbc 03       		.byte	0x3
 7423 0fbd 00000000 		.4byte	Sfig
 7424 0fc1 13       		.uleb128 0x13
 7425 0fc2 14060000 		.4byte	.LASF168
 7426 0fc6 03       		.byte	0x3
 7427 0fc7 5F       		.byte	0x5f
 7428 0fc8 6F000000 		.4byte	0x6f
 7429 0fcc 01       		.byte	0x1
 7430 0fcd 05       		.byte	0x5
 7431 0fce 03       		.byte	0x3
 7432 0fcf 00000000 		.4byte	Hfig
 7433 0fd3 13       		.uleb128 0x13
 7434 0fd4 CD070000 		.4byte	.LASF169
 7435 0fd8 03       		.byte	0x3
 7436 0fd9 5F       		.byte	0x5f
 7437 0fda 6F000000 		.4byte	0x6f
 7438 0fde 01       		.byte	0x1
 7439 0fdf 05       		.byte	0x5
 7440 0fe0 03       		.byte	0x3
 7441 0fe1 00000000 		.4byte	Jfig
 7442 0fe5 13       		.uleb128 0x13
 7443 0fe6 96030000 		.4byte	.LASF170
 7444 0fea 03       		.byte	0x3
 7445 0feb 5F       		.byte	0x5f
 7446 0fec 6F000000 		.4byte	0x6f
 7447 0ff0 01       		.byte	0x1
 7448 0ff1 05       		.byte	0x5
 7449 0ff2 03       		.byte	0x3
 7450 0ff3 00000000 		.4byte	Kfig
 7451 0ff7 13       		.uleb128 0x13
 7452 0ff8 000A0000 		.4byte	.LASF171
 7453 0ffc 03       		.byte	0x3
 7454 0ffd 5F       		.byte	0x5f
 7455 0ffe 6F000000 		.4byte	0x6f
 7456 1002 01       		.byte	0x1
 7457 1003 05       		.byte	0x5
 7458 1004 03       		.byte	0x3
 7459 1005 00000000 		.4byte	Lfig
 7460 1009 13       		.uleb128 0x13
 7461 100a 1D040000 		.4byte	.LASF172
 7462 100e 03       		.byte	0x3
 7463 100f 5F       		.byte	0x5f
 7464 1010 6F000000 		.4byte	0x6f
 7465 1014 01       		.byte	0x1
 7466 1015 05       		.byte	0x5
 7467 1016 03       		.byte	0x3
 7468 1017 00000000 		.4byte	Mfig
 7469 101b 13       		.uleb128 0x13
 7470 101c 820A0000 		.4byte	.LASF173
 7471 1020 03       		.byte	0x3
 7472 1021 60       		.byte	0x60
 7473 1022 6F000000 		.4byte	0x6f
 7474 1026 01       		.byte	0x1
 7475 1027 05       		.byte	0x5
 7476 1028 03       		.byte	0x3
ARM GAS  C:\Users\ZHANGM~1\AppData\Local\Temp\cccEtK9g.s 			page 171


 7477 1029 00000000 		.4byte	GYcnt1
 7478 102d 13       		.uleb128 0x13
 7479 102e 11090000 		.4byte	.LASF174
 7480 1032 03       		.byte	0x3
 7481 1033 60       		.byte	0x60
 7482 1034 6F000000 		.4byte	0x6f
 7483 1038 01       		.byte	0x1
 7484 1039 05       		.byte	0x5
 7485 103a 03       		.byte	0x3
 7486 103b 00000000 		.4byte	GYfig1
 7487 103f 13       		.uleb128 0x13
 7488 1040 FB080000 		.4byte	.LASF175
 7489 1044 03       		.byte	0x3
 7490 1045 60       		.byte	0x60
 7491 1046 6F000000 		.4byte	0x6f
 7492 104a 01       		.byte	0x1
 7493 104b 05       		.byte	0x5
 7494 104c 03       		.byte	0x3
 7495 104d 00000000 		.4byte	waterfullfig
 7496 1051 13       		.uleb128 0x13
 7497 1052 D8030000 		.4byte	.LASF176
 7498 1056 03       		.byte	0x3
 7499 1057 61       		.byte	0x61
 7500 1058 6F000000 		.4byte	0x6f
 7501 105c 01       		.byte	0x1
 7502 105d 05       		.byte	0x5
 7503 105e 03       		.byte	0x3
 7504 105f 00000000 		.4byte	lvxinbaojingcnt
 7505 1063 13       		.uleb128 0x13
 7506 1064 E8000000 		.4byte	.LASF177
 7507 1068 03       		.byte	0x3
 7508 1069 62       		.byte	0x62
 7509 106a 6F000000 		.4byte	0x6f
 7510 106e 01       		.byte	0x1
 7511 106f 05       		.byte	0x5
 7512 1070 03       		.byte	0x3
 7513 1071 00000000 		.4byte	lvxindaoqifig
 7514 1075 13       		.uleb128 0x13
 7515 1076 7D0B0000 		.4byte	.LASF178
 7516 107a 03       		.byte	0x3
 7517 107b 6E       		.byte	0x6e
 7518 107c F0000000 		.4byte	0xf0
 7519 1080 01       		.byte	0x1
 7520 1081 05       		.byte	0x5
 7521 1082 03       		.byte	0x3
 7522 1083 00000000 		.4byte	ErrorFlag
 7523 1087 13       		.uleb128 0x13
 7524 1088 ED050000 		.4byte	.LASF179
 7525 108c 03       		.byte	0x3
 7526 108d 74       		.byte	0x74
 7527 108e 92010000 		.4byte	0x192
 7528 1092 01       		.byte	0x1
 7529 1093 05       		.byte	0x5
 7530 1094 03       		.byte	0x3
 7531 1095 00000000 		.4byte	WorkFlag02
 7532 1099 13       		.uleb128 0x13
 7533 109a E8030000 		.4byte	.LASF180
ARM GAS  C:\Users\ZHANGM~1\AppData\Local\Temp\cccEtK9g.s 			page 172


 7534 109e 03       		.byte	0x3
 7535 109f 94       		.byte	0x94
 7536 10a0 CE010000 		.4byte	0x1ce
 7537 10a4 01       		.byte	0x1
 7538 10a5 05       		.byte	0x5
 7539 10a6 03       		.byte	0x3
 7540 10a7 00000000 		.4byte	WorkFlag
 7541 10ab 13       		.uleb128 0x13
 7542 10ac E2050000 		.4byte	.LASF181
 7543 10b0 03       		.byte	0x3
 7544 10b1 9D       		.byte	0x9d
 7545 10b2 11040000 		.4byte	0x411
 7546 10b6 01       		.byte	0x1
 7547 10b7 05       		.byte	0x5
 7548 10b8 03       		.byte	0x3
 7549 10b9 00000000 		.4byte	WorkFlag01
 7550 10bd 13       		.uleb128 0x13
 7551 10be 79060000 		.4byte	.LASF182
 7552 10c2 03       		.byte	0x3
 7553 10c3 A7       		.byte	0xa7
 7554 10c4 5B040000 		.4byte	0x45b
 7555 10c8 01       		.byte	0x1
 7556 10c9 05       		.byte	0x5
 7557 10ca 03       		.byte	0x3
 7558 10cb 00000000 		.4byte	Switch_Data
 7559 10cf 13       		.uleb128 0x13
 7560 10d0 590B0000 		.4byte	.LASF183
 7561 10d4 03       		.byte	0x3
 7562 10d5 B2       		.byte	0xb2
 7563 10d6 C7040000 		.4byte	0x4c7
 7564 10da 01       		.byte	0x1
 7565 10db 05       		.byte	0x5
 7566 10dc 03       		.byte	0x3
 7567 10dd 00000000 		.4byte	Work_State
 7568 10e1 13       		.uleb128 0x13
 7569 10e2 24000000 		.4byte	.LASF184
 7570 10e6 03       		.byte	0x3
 7571 10e7 C3       		.byte	0xc3
 7572 10e8 88050000 		.4byte	0x588
 7573 10ec 01       		.byte	0x1
 7574 10ed 05       		.byte	0x5
 7575 10ee 03       		.byte	0x3
 7576 10ef 00000000 		.4byte	Error_Data
 7577 10f3 13       		.uleb128 0x13
 7578 10f4 3A030000 		.4byte	.LASF185
 7579 10f8 03       		.byte	0x3
 7580 10f9 C5       		.byte	0xc5
 7581 10fa 7A000000 		.4byte	0x7a
 7582 10fe 01       		.byte	0x1
 7583 10ff 05       		.byte	0x5
 7584 1100 03       		.byte	0x3
 7585 1101 00000000 		.4byte	jingshuiliang
 7586 1105 13       		.uleb128 0x13
 7587 1106 E4040000 		.4byte	.LASF186
 7588 110a 03       		.byte	0x3
 7589 110b C5       		.byte	0xc5
 7590 110c 7A000000 		.4byte	0x7a
ARM GAS  C:\Users\ZHANGM~1\AppData\Local\Temp\cccEtK9g.s 			page 173


 7591 1110 01       		.byte	0x1
 7592 1111 05       		.byte	0x5
 7593 1112 03       		.byte	0x3
 7594 1113 00000000 		.4byte	EEjingshuiliang
 7595 1117 13       		.uleb128 0x13
 7596 1118 760A0000 		.4byte	.LASF187
 7597 111c 03       		.byte	0x3
 7598 111d C6       		.byte	0xc6
 7599 111e 85000000 		.4byte	0x85
 7600 1122 01       		.byte	0x1
 7601 1123 05       		.byte	0x5
 7602 1124 03       		.byte	0x3
 7603 1125 00000000 		.4byte	LianXuJiShi
 7604 1129 14       		.uleb128 0x14
 7605 112a 7A000000 		.4byte	0x7a
 7606 112e 39110000 		.4byte	0x1139
 7607 1132 15       		.uleb128 0x15
 7608 1133 A5000000 		.4byte	0xa5
 7609 1137 0B       		.byte	0xb
 7610 1138 00       		.byte	0
 7611 1139 13       		.uleb128 0x13
 7612 113a 5D020000 		.4byte	.LASF188
 7613 113e 03       		.byte	0x3
 7614 113f C7       		.byte	0xc7
 7615 1140 29110000 		.4byte	0x1129
 7616 1144 01       		.byte	0x1
 7617 1145 05       		.byte	0x5
 7618 1146 03       		.byte	0x3
 7619 1147 00000000 		.4byte	LvxinJishi
 7620 114b 13       		.uleb128 0x13
 7621 114c B60B0000 		.4byte	.LASF189
 7622 1150 03       		.byte	0x3
 7623 1151 C9       		.byte	0xc9
 7624 1152 7A000000 		.4byte	0x7a
 7625 1156 01       		.byte	0x1
 7626 1157 05       		.byte	0x5
 7627 1158 03       		.byte	0x3
 7628 1159 00000000 		.4byte	Tds_Dispcnt
 7629 115d 16       		.uleb128 0x16
 7630 115e 535000   		.ascii	"SP\000"
 7631 1161 03       		.byte	0x3
 7632 1162 CB       		.byte	0xcb
 7633 1163 7A000000 		.4byte	0x7a
 7634 1167 01       		.byte	0x1
 7635 1168 05       		.byte	0x5
 7636 1169 03       		.byte	0x3
 7637 116a 00000000 		.4byte	SP
 7638 116e 16       		.uleb128 0x16
 7639 116f 485000   		.ascii	"HP\000"
 7640 1172 03       		.byte	0x3
 7641 1173 CB       		.byte	0xcb
 7642 1174 7A000000 		.4byte	0x7a
 7643 1178 01       		.byte	0x1
 7644 1179 05       		.byte	0x5
 7645 117a 03       		.byte	0x3
 7646 117b 00000000 		.4byte	HP
 7647 117f 16       		.uleb128 0x16
ARM GAS  C:\Users\ZHANGM~1\AppData\Local\Temp\cccEtK9g.s 			page 174


 7648 1180 4A5000   		.ascii	"JP\000"
 7649 1183 03       		.byte	0x3
 7650 1184 CB       		.byte	0xcb
 7651 1185 7A000000 		.4byte	0x7a
 7652 1189 01       		.byte	0x1
 7653 118a 05       		.byte	0x5
 7654 118b 03       		.byte	0x3
 7655 118c 00000000 		.4byte	JP
 7656 1190 16       		.uleb128 0x16
 7657 1191 4B5000   		.ascii	"KP\000"
 7658 1194 03       		.byte	0x3
 7659 1195 CB       		.byte	0xcb
 7660 1196 7A000000 		.4byte	0x7a
 7661 119a 01       		.byte	0x1
 7662 119b 05       		.byte	0x5
 7663 119c 03       		.byte	0x3
 7664 119d 00000000 		.4byte	KP
 7665 11a1 16       		.uleb128 0x16
 7666 11a2 4C5000   		.ascii	"LP\000"
 7667 11a5 03       		.byte	0x3
 7668 11a6 CB       		.byte	0xcb
 7669 11a7 7A000000 		.4byte	0x7a
 7670 11ab 01       		.byte	0x1
 7671 11ac 05       		.byte	0x5
 7672 11ad 03       		.byte	0x3
 7673 11ae 00000000 		.4byte	LP
 7674 11b2 16       		.uleb128 0x16
 7675 11b3 4D5000   		.ascii	"MP\000"
 7676 11b6 03       		.byte	0x3
 7677 11b7 CB       		.byte	0xcb
 7678 11b8 7A000000 		.4byte	0x7a
 7679 11bc 01       		.byte	0x1
 7680 11bd 05       		.byte	0x5
 7681 11be 03       		.byte	0x3
 7682 11bf 00000000 		.4byte	MP
 7683 11c3 13       		.uleb128 0x13
 7684 11c4 6C080000 		.4byte	.LASF190
 7685 11c8 03       		.byte	0x3
 7686 11c9 CC       		.byte	0xcc
 7687 11ca 7A000000 		.4byte	0x7a
 7688 11ce 01       		.byte	0x1
 7689 11cf 05       		.byte	0x5
 7690 11d0 03       		.byte	0x3
 7691 11d1 00000000 		.4byte	SP_N
 7692 11d5 13       		.uleb128 0x13
 7693 11d6 CD010000 		.4byte	.LASF191
 7694 11da 03       		.byte	0x3
 7695 11db CC       		.byte	0xcc
 7696 11dc 7A000000 		.4byte	0x7a
 7697 11e0 01       		.byte	0x1
 7698 11e1 05       		.byte	0x5
 7699 11e2 03       		.byte	0x3
 7700 11e3 00000000 		.4byte	HP_N
 7701 11e7 13       		.uleb128 0x13
 7702 11e8 C6030000 		.4byte	.LASF192
 7703 11ec 03       		.byte	0x3
 7704 11ed CC       		.byte	0xcc
ARM GAS  C:\Users\ZHANGM~1\AppData\Local\Temp\cccEtK9g.s 			page 175


 7705 11ee 7A000000 		.4byte	0x7a
 7706 11f2 01       		.byte	0x1
 7707 11f3 05       		.byte	0x5
 7708 11f4 03       		.byte	0x3
 7709 11f5 00000000 		.4byte	JP_N
 7710 11f9 13       		.uleb128 0x13
 7711 11fa 460A0000 		.4byte	.LASF193
 7712 11fe 03       		.byte	0x3
 7713 11ff CC       		.byte	0xcc
 7714 1200 7A000000 		.4byte	0x7a
 7715 1204 01       		.byte	0x1
 7716 1205 05       		.byte	0x5
 7717 1206 03       		.byte	0x3
 7718 1207 00000000 		.4byte	KP_N
 7719 120b 13       		.uleb128 0x13
 7720 120c 35050000 		.4byte	.LASF194
 7721 1210 03       		.byte	0x3
 7722 1211 CC       		.byte	0xcc
 7723 1212 7A000000 		.4byte	0x7a
 7724 1216 01       		.byte	0x1
 7725 1217 05       		.byte	0x5
 7726 1218 03       		.byte	0x3
 7727 1219 00000000 		.4byte	LP_N
 7728 121d 13       		.uleb128 0x13
 7729 121e 0B040000 		.4byte	.LASF195
 7730 1222 03       		.byte	0x3
 7731 1223 CC       		.byte	0xcc
 7732 1224 7A000000 		.4byte	0x7a
 7733 1228 01       		.byte	0x1
 7734 1229 05       		.byte	0x5
 7735 122a 03       		.byte	0x3
 7736 122b 00000000 		.4byte	MP_N
 7737 122f 13       		.uleb128 0x13
 7738 1230 A5070000 		.4byte	.LASF196
 7739 1234 03       		.byte	0x3
 7740 1235 CD       		.byte	0xcd
 7741 1236 6F000000 		.4byte	0x6f
 7742 123a 01       		.byte	0x1
 7743 123b 05       		.byte	0x5
 7744 123c 03       		.byte	0x3
 7745 123d 00000000 		.4byte	Tds_Ack_Timer
 7746 1241 13       		.uleb128 0x13
 7747 1242 A6020000 		.4byte	.LASF197
 7748 1246 03       		.byte	0x3
 7749 1247 CF       		.byte	0xcf
 7750 1248 6F000000 		.4byte	0x6f
 7751 124c 01       		.byte	0x1
 7752 124d 05       		.byte	0x5
 7753 124e 03       		.byte	0x3
 7754 124f 00000000 		.4byte	faststa
 7755 1253 13       		.uleb128 0x13
 7756 1254 F9040000 		.4byte	.LASF198
 7757 1258 03       		.byte	0x3
 7758 1259 CF       		.byte	0xcf
 7759 125a 6F000000 		.4byte	0x6f
 7760 125e 01       		.byte	0x1
 7761 125f 05       		.byte	0x5
ARM GAS  C:\Users\ZHANGM~1\AppData\Local\Temp\cccEtK9g.s 			page 176


 7762 1260 03       		.byte	0x3
 7763 1261 00000000 		.4byte	yanshicnt
 7764 1265 13       		.uleb128 0x13
 7765 1266 D2070000 		.4byte	.LASF199
 7766 126a 03       		.byte	0x3
 7767 126b CF       		.byte	0xcf
 7768 126c 6F000000 		.4byte	0x6f
 7769 1270 01       		.byte	0x1
 7770 1271 05       		.byte	0x5
 7771 1272 03       		.byte	0x3
 7772 1273 00000000 		.4byte	yanshifig
 7773 1277 13       		.uleb128 0x13
 7774 1278 03040000 		.4byte	.LASF47
 7775 127c 03       		.byte	0x3
 7776 127d CF       		.byte	0xcf
 7777 127e 6F000000 		.4byte	0x6f
 7778 1282 01       		.byte	0x1
 7779 1283 05       		.byte	0x5
 7780 1284 03       		.byte	0x3
 7781 1285 00000000 		.4byte	fastfig
 7782 1289 13       		.uleb128 0x13
 7783 128a 25010000 		.4byte	.LASF200
 7784 128e 03       		.byte	0x3
 7785 128f CF       		.byte	0xcf
 7786 1290 6F000000 		.4byte	0x6f
 7787 1294 01       		.byte	0x1
 7788 1295 05       		.byte	0x5
 7789 1296 03       		.byte	0x3
 7790 1297 00000000 		.4byte	fastcnt
 7791 129b 16       		.uleb128 0x16
 7792 129c 6E00     		.ascii	"n\000"
 7793 129e 03       		.byte	0x3
 7794 129f CF       		.byte	0xcf
 7795 12a0 6F000000 		.4byte	0x6f
 7796 12a4 01       		.byte	0x1
 7797 12a5 05       		.byte	0x5
 7798 12a6 03       		.byte	0x3
 7799 12a7 00000000 		.4byte	n
 7800 12ab 13       		.uleb128 0x13
 7801 12ac B4010000 		.4byte	.LASF201
 7802 12b0 03       		.byte	0x3
 7803 12b1 CF       		.byte	0xcf
 7804 12b2 6F000000 		.4byte	0x6f
 7805 12b6 01       		.byte	0x1
 7806 12b7 05       		.byte	0x5
 7807 12b8 03       		.byte	0x3
 7808 12b9 00000000 		.4byte	fastjishifig
 7809 12bd 13       		.uleb128 0x13
 7810 12be 2F000000 		.4byte	.LASF202
 7811 12c2 03       		.byte	0x3
 7812 12c3 CF       		.byte	0xcf
 7813 12c4 6F000000 		.4byte	0x6f
 7814 12c8 01       		.byte	0x1
 7815 12c9 05       		.byte	0x5
 7816 12ca 03       		.byte	0x3
 7817 12cb 00000000 		.4byte	yanshidisfig
 7818 12cf 13       		.uleb128 0x13
ARM GAS  C:\Users\ZHANGM~1\AppData\Local\Temp\cccEtK9g.s 			page 177


 7819 12d0 9B030000 		.4byte	.LASF203
 7820 12d4 03       		.byte	0x3
 7821 12d5 D0       		.byte	0xd0
 7822 12d6 7A000000 		.4byte	0x7a
 7823 12da 01       		.byte	0x1
 7824 12db 05       		.byte	0x5
 7825 12dc 03       		.byte	0x3
 7826 12dd 00000000 		.4byte	fastjishicnt
 7827 12e1 13       		.uleb128 0x13
 7828 12e2 30040000 		.4byte	.LASF204
 7829 12e6 03       		.byte	0x3
 7830 12e7 D1       		.byte	0xd1
 7831 12e8 6F000000 		.4byte	0x6f
 7832 12ec 01       		.byte	0x1
 7833 12ed 05       		.byte	0x5
 7834 12ee 03       		.byte	0x3
 7835 12ef 00000000 		.4byte	WorkFlag01_Dispcnt
 7836 12f3 13       		.uleb128 0x13
 7837 12f4 94080000 		.4byte	.LASF205
 7838 12f8 03       		.byte	0x3
 7839 12f9 D2       		.byte	0xd2
 7840 12fa 6F000000 		.4byte	0x6f
 7841 12fe 01       		.byte	0x1
 7842 12ff 05       		.byte	0x5
 7843 1300 03       		.byte	0x3
 7844 1301 00000000 		.4byte	EEgyfullcnt
 7845 1305 13       		.uleb128 0x13
 7846 1306 E0080000 		.4byte	.LASF206
 7847 130a 03       		.byte	0x3
 7848 130b D3       		.byte	0xd3
 7849 130c 6F000000 		.4byte	0x6f
 7850 1310 01       		.byte	0x1
 7851 1311 05       		.byte	0x5
 7852 1312 03       		.byte	0x3
 7853 1313 00000000 		.4byte	LvXinNum
 7854 1317 13       		.uleb128 0x13
 7855 1318 6F060000 		.4byte	.LASF207
 7856 131c 03       		.byte	0x3
 7857 131d D3       		.byte	0xd3
 7858 131e 6F000000 		.4byte	0x6f
 7859 1322 01       		.byte	0x1
 7860 1323 05       		.byte	0x5
 7861 1324 03       		.byte	0x3
 7862 1325 00000000 		.4byte	LvXinNum1
 7863 1329 13       		.uleb128 0x13
 7864 132a E1090000 		.4byte	.LASF208
 7865 132e 03       		.byte	0x3
 7866 132f D4       		.byte	0xd4
 7867 1330 6F000000 		.4byte	0x6f
 7868 1334 01       		.byte	0x1
 7869 1335 05       		.byte	0x5
 7870 1336 03       		.byte	0x3
 7871 1337 00000000 		.4byte	cleareepromArrayflag
 7872 133b 13       		.uleb128 0x13
 7873 133c 6A070000 		.4byte	.LASF209
 7874 1340 03       		.byte	0x3
 7875 1341 D6       		.byte	0xd6
ARM GAS  C:\Users\ZHANGM~1\AppData\Local\Temp\cccEtK9g.s 			page 178


 7876 1342 7A000000 		.4byte	0x7a
 7877 1346 01       		.byte	0x1
 7878 1347 05       		.byte	0x5
 7879 1348 03       		.byte	0x3
 7880 1349 00000000 		.4byte	StandByCnt
 7881 134d 13       		.uleb128 0x13
 7882 134e 44060000 		.4byte	.LASF210
 7883 1352 03       		.byte	0x3
 7884 1353 D7       		.byte	0xd7
 7885 1354 7A000000 		.4byte	0x7a
 7886 1358 01       		.byte	0x1
 7887 1359 05       		.byte	0x5
 7888 135a 03       		.byte	0x3
 7889 135b 00000000 		.4byte	PowerOnCnt00
 7890 135f 13       		.uleb128 0x13
 7891 1360 51060000 		.4byte	.LASF211
 7892 1364 03       		.byte	0x3
 7893 1365 D8       		.byte	0xd8
 7894 1366 6F000000 		.4byte	0x6f
 7895 136a 01       		.byte	0x1
 7896 136b 05       		.byte	0x5
 7897 136c 03       		.byte	0x3
 7898 136d 00000000 		.4byte	PowerOnCnt01
 7899 1371 13       		.uleb128 0x13
 7900 1372 65080000 		.4byte	.LASF212
 7901 1376 03       		.byte	0x3
 7902 1377 D9       		.byte	0xd9
 7903 1378 7A000000 		.4byte	0x7a
 7904 137c 01       		.byte	0x1
 7905 137d 05       		.byte	0x5
 7906 137e 03       		.byte	0x3
 7907 137f 00000000 		.4byte	V24cnt
 7908 1383 13       		.uleb128 0x13
 7909 1384 38020000 		.4byte	.LASF213
 7910 1388 03       		.byte	0x3
 7911 1389 DA       		.byte	0xda
 7912 138a 6F000000 		.4byte	0x6f
 7913 138e 01       		.byte	0x1
 7914 138f 05       		.byte	0x5
 7915 1390 03       		.byte	0x3
 7916 1391 00000000 		.4byte	poweroverfig
 7917 1395 13       		.uleb128 0x13
 7918 1396 86090000 		.4byte	.LASF214
 7919 139a 03       		.byte	0x3
 7920 139b DB       		.byte	0xdb
 7921 139c 6F000000 		.4byte	0x6f
 7922 13a0 01       		.byte	0x1
 7923 13a1 05       		.byte	0x5
 7924 13a2 03       		.byte	0x3
 7925 13a3 00000000 		.4byte	jserrorcnt
 7926 13a7 13       		.uleb128 0x13
 7927 13a8 45020000 		.4byte	.LASF215
 7928 13ac 03       		.byte	0x3
 7929 13ad DB       		.byte	0xdb
 7930 13ae 6F000000 		.4byte	0x6f
 7931 13b2 01       		.byte	0x1
 7932 13b3 05       		.byte	0x5
ARM GAS  C:\Users\ZHANGM~1\AppData\Local\Temp\cccEtK9g.s 			page 179


 7933 13b4 03       		.byte	0x3
 7934 13b5 00000000 		.4byte	jserrorcntfig
 7935 13b9 13       		.uleb128 0x13
 7936 13ba CB030000 		.4byte	.LASF216
 7937 13be 03       		.byte	0x3
 7938 13bf DC       		.byte	0xdc
 7939 13c0 6F000000 		.4byte	0x6f
 7940 13c4 01       		.byte	0x1
 7941 13c5 05       		.byte	0x5
 7942 13c6 03       		.byte	0x3
 7943 13c7 00000000 		.4byte	shuibumanfig
 7944 13cb 13       		.uleb128 0x13
 7945 13cc 47070000 		.4byte	.LASF217
 7946 13d0 05       		.byte	0x5
 7947 13d1 B1       		.byte	0xb1
 7948 13d2 7A000000 		.4byte	0x7a
 7949 13d6 01       		.byte	0x1
 7950 13d7 05       		.byte	0x5
 7951 13d8 03       		.byte	0x3
 7952 13d9 00000000 		.4byte	Value_Tds0
 7953 13dd 13       		.uleb128 0x13
 7954 13de 1B020000 		.4byte	.LASF218
 7955 13e2 05       		.byte	0x5
 7956 13e3 B2       		.byte	0xb2
 7957 13e4 7A000000 		.4byte	0x7a
 7958 13e8 01       		.byte	0x1
 7959 13e9 05       		.byte	0x5
 7960 13ea 03       		.byte	0x3
 7961 13eb 00000000 		.4byte	Value_Tds1
 7962 13ef 13       		.uleb128 0x13
 7963 13f0 D0090000 		.4byte	.LASF219
 7964 13f4 05       		.byte	0x5
 7965 13f5 B3       		.byte	0xb3
 7966 13f6 7A000000 		.4byte	0x7a
 7967 13fa 01       		.byte	0x1
 7968 13fb 05       		.byte	0x5
 7969 13fc 03       		.byte	0x3
 7970 13fd 00000000 		.4byte	Value_Loushui_Ad
 7971 1401 13       		.uleb128 0x13
 7972 1402 24060000 		.4byte	.LASF220
 7973 1406 05       		.byte	0x5
 7974 1407 B4       		.byte	0xb4
 7975 1408 6F000000 		.4byte	0x6f
 7976 140c 01       		.byte	0x1
 7977 140d 05       		.byte	0x5
 7978 140e 03       		.byte	0x3
 7979 140f 00000000 		.4byte	Value_T
 7980 1413 13       		.uleb128 0x13
 7981 1414 19060000 		.4byte	.LASF221
 7982 1418 05       		.byte	0x5
 7983 1419 B5       		.byte	0xb5
 7984 141a 7A000000 		.4byte	0x7a
 7985 141e 01       		.byte	0x1
 7986 141f 05       		.byte	0x5
 7987 1420 03       		.byte	0x3
 7988 1421 00000000 		.4byte	Value_Flow
 7989 1425 13       		.uleb128 0x13
ARM GAS  C:\Users\ZHANGM~1\AppData\Local\Temp\cccEtK9g.s 			page 180


 7990 1426 CB020000 		.4byte	.LASF222
 7991 142a 03       		.byte	0x3
 7992 142b E4       		.byte	0xe4
 7993 142c 6F000000 		.4byte	0x6f
 7994 1430 01       		.byte	0x1
 7995 1431 05       		.byte	0x5
 7996 1432 03       		.byte	0x3
 7997 1433 00000000 		.4byte	Error_Counter
 7998 1437 13       		.uleb128 0x13
 7999 1438 FA010000 		.4byte	.LASF223
 8000 143c 03       		.byte	0x3
 8001 143d E5       		.byte	0xe5
 8002 143e 6F000000 		.4byte	0x6f
 8003 1442 01       		.byte	0x1
 8004 1443 05       		.byte	0x5
 8005 1444 03       		.byte	0x3
 8006 1445 00000000 		.4byte	Filter_Manage_Num
 8007 1449 14       		.uleb128 0x14
 8008 144a 7A000000 		.4byte	0x7a
 8009 144e 59140000 		.4byte	0x1459
 8010 1452 15       		.uleb128 0x15
 8011 1453 A5000000 		.4byte	0xa5
 8012 1457 05       		.byte	0x5
 8013 1458 00       		.byte	0
 8014 1459 13       		.uleb128 0x13
 8015 145a 48030000 		.4byte	.LASF224
 8016 145e 03       		.byte	0x3
 8017 145f E6       		.byte	0xe6
 8018 1460 49140000 		.4byte	0x1449
 8019 1464 01       		.byte	0x1
 8020 1465 05       		.byte	0x5
 8021 1466 03       		.byte	0x3
 8022 1467 00000000 		.4byte	Filter_Full_Data_Buf
 8023 146b 13       		.uleb128 0x13
 8024 146c 79040000 		.4byte	.LASF225
 8025 1470 03       		.byte	0x3
 8026 1471 E6       		.byte	0xe6
 8027 1472 29110000 		.4byte	0x1129
 8028 1476 01       		.byte	0x1
 8029 1477 05       		.byte	0x5
 8030 1478 03       		.byte	0x3
 8031 1479 00000000 		.4byte	Filter_Changed_Num
 8032 147d 17       		.uleb128 0x17
 8033 147e 1C050000 		.4byte	.LASF226
 8034 1482 06       		.byte	0x6
 8035 1483 22       		.byte	0x22
 8036 1484 30000000 		.4byte	0x30
 8037 1488 01       		.byte	0x1
 8038 1489 01       		.byte	0x1
 8039 148a 17       		.uleb128 0x17
 8040 148b 25050000 		.4byte	.LASF227
 8041 148f 06       		.byte	0x6
 8042 1490 22       		.byte	0x22
 8043 1491 30000000 		.4byte	0x30
 8044 1495 01       		.byte	0x1
 8045 1496 01       		.byte	0x1
 8046 1497 17       		.uleb128 0x17
ARM GAS  C:\Users\ZHANGM~1\AppData\Local\Temp\cccEtK9g.s 			page 181


 8047 1498 8C040000 		.4byte	.LASF228
 8048 149c 06       		.byte	0x6
 8049 149d 40       		.byte	0x40
 8050 149e 6F000000 		.4byte	0x6f
 8051 14a2 01       		.byte	0x1
 8052 14a3 01       		.byte	0x1
 8053 14a4 14       		.uleb128 0x14
 8054 14a5 4C000000 		.4byte	0x4c
 8055 14a9 B4140000 		.4byte	0x14b4
 8056 14ad 15       		.uleb128 0x15
 8057 14ae A5000000 		.4byte	0xa5
 8058 14b2 06       		.byte	0x6
 8059 14b3 00       		.byte	0
 8060 14b4 17       		.uleb128 0x17
 8061 14b5 89030000 		.4byte	.LASF229
 8062 14b9 04       		.byte	0x4
 8063 14ba 20       		.byte	0x20
 8064 14bb A4140000 		.4byte	0x14a4
 8065 14bf 01       		.byte	0x1
 8066 14c0 01       		.byte	0x1
 8067 14c1 14       		.uleb128 0x14
 8068 14c2 30000000 		.4byte	0x30
 8069 14c6 D1140000 		.4byte	0x14d1
 8070 14ca 15       		.uleb128 0x15
 8071 14cb A5000000 		.4byte	0xa5
 8072 14cf 05       		.byte	0x5
 8073 14d0 00       		.byte	0
 8074 14d1 17       		.uleb128 0x17
 8075 14d2 30030000 		.4byte	.LASF230
 8076 14d6 04       		.byte	0x4
 8077 14d7 22       		.byte	0x22
 8078 14d8 C1140000 		.4byte	0x14c1
 8079 14dc 01       		.byte	0x1
 8080 14dd 01       		.byte	0x1
 8081 14de 17       		.uleb128 0x17
 8082 14df 94070000 		.4byte	.LASF231
 8083 14e3 04       		.byte	0x4
 8084 14e4 26       		.byte	0x26
 8085 14e5 6F000000 		.4byte	0x6f
 8086 14e9 01       		.byte	0x1
 8087 14ea 01       		.byte	0x1
 8088 14eb 17       		.uleb128 0x17
 8089 14ec D9050000 		.4byte	.LASF232
 8090 14f0 04       		.byte	0x4
 8091 14f1 29       		.byte	0x29
 8092 14f2 6F000000 		.4byte	0x6f
 8093 14f6 01       		.byte	0x1
 8094 14f7 01       		.byte	0x1
 8095 14f8 17       		.uleb128 0x17
 8096 14f9 320A0000 		.4byte	.LASF233
 8097 14fd 04       		.byte	0x4
 8098 14fe 2D       		.byte	0x2d
 8099 14ff 6F000000 		.4byte	0x6f
 8100 1503 01       		.byte	0x1
 8101 1504 01       		.byte	0x1
 8102 1505 17       		.uleb128 0x17
 8103 1506 27030000 		.4byte	.LASF234
ARM GAS  C:\Users\ZHANGM~1\AppData\Local\Temp\cccEtK9g.s 			page 182


 8104 150a 04       		.byte	0x4
 8105 150b 31       		.byte	0x31
 8106 150c 6F000000 		.4byte	0x6f
 8107 1510 01       		.byte	0x1
 8108 1511 01       		.byte	0x1
 8109 1512 17       		.uleb128 0x17
 8110 1513 F3060000 		.4byte	.LASF235
 8111 1517 04       		.byte	0x4
 8112 1518 35       		.byte	0x35
 8113 1519 6F000000 		.4byte	0x6f
 8114 151d 01       		.byte	0x1
 8115 151e 01       		.byte	0x1
 8116 151f 17       		.uleb128 0x17
 8117 1520 00000000 		.4byte	.LASF236
 8118 1524 04       		.byte	0x4
 8119 1525 39       		.byte	0x39
 8120 1526 6F000000 		.4byte	0x6f
 8121 152a 01       		.byte	0x1
 8122 152b 01       		.byte	0x1
 8123 152c 17       		.uleb128 0x17
 8124 152d 75070000 		.4byte	.LASF237
 8125 1531 04       		.byte	0x4
 8126 1532 3B       		.byte	0x3b
 8127 1533 6F000000 		.4byte	0x6f
 8128 1537 01       		.byte	0x1
 8129 1538 01       		.byte	0x1
 8130 1539 17       		.uleb128 0x17
 8131 153a 99060000 		.4byte	.LASF238
 8132 153e 04       		.byte	0x4
 8133 153f A1       		.byte	0xa1
 8134 1540 A7050000 		.4byte	0x5a7
 8135 1544 01       		.byte	0x1
 8136 1545 01       		.byte	0x1
 8137 1546 17       		.uleb128 0x17
 8138 1547 DC000000 		.4byte	.LASF239
 8139 154b 04       		.byte	0x4
 8140 154c A2       		.byte	0xa2
 8141 154d 6F000000 		.4byte	0x6f
 8142 1551 01       		.byte	0x1
 8143 1552 01       		.byte	0x1
 8144 1553 17       		.uleb128 0x17
 8145 1554 96040000 		.4byte	.LASF240
 8146 1558 04       		.byte	0x4
 8147 1559 A4       		.byte	0xa4
 8148 155a 6F000000 		.4byte	0x6f
 8149 155e 01       		.byte	0x1
 8150 155f 01       		.byte	0x1
 8151 1560 17       		.uleb128 0x17
 8152 1561 5A040000 		.4byte	.LASF241
 8153 1565 04       		.byte	0x4
 8154 1566 A4       		.byte	0xa4
 8155 1567 6F000000 		.4byte	0x6f
 8156 156b 01       		.byte	0x1
 8157 156c 01       		.byte	0x1
 8158 156d 17       		.uleb128 0x17
 8159 156e D20B0000 		.4byte	.LASF242
 8160 1572 04       		.byte	0x4
ARM GAS  C:\Users\ZHANGM~1\AppData\Local\Temp\cccEtK9g.s 			page 183


 8161 1573 A4       		.byte	0xa4
 8162 1574 6F000000 		.4byte	0x6f
 8163 1578 01       		.byte	0x1
 8164 1579 01       		.byte	0x1
 8165 157a 17       		.uleb128 0x17
 8166 157b 67040000 		.4byte	.LASF243
 8167 157f 04       		.byte	0x4
 8168 1580 A4       		.byte	0xa4
 8169 1581 6F000000 		.4byte	0x6f
 8170 1585 01       		.byte	0x1
 8171 1586 01       		.byte	0x1
 8172 1587 17       		.uleb128 0x17
 8173 1588 6D040000 		.4byte	.LASF244
 8174 158c 04       		.byte	0x4
 8175 158d A4       		.byte	0xa4
 8176 158e 6F000000 		.4byte	0x6f
 8177 1592 01       		.byte	0x1
 8178 1593 01       		.byte	0x1
 8179 1594 17       		.uleb128 0x17
 8180 1595 73040000 		.4byte	.LASF245
 8181 1599 04       		.byte	0x4
 8182 159a A4       		.byte	0xa4
 8183 159b 6F000000 		.4byte	0x6f
 8184 159f 01       		.byte	0x1
 8185 15a0 01       		.byte	0x1
 8186 15a1 17       		.uleb128 0x17
 8187 15a2 F6000000 		.4byte	.LASF246
 8188 15a6 05       		.byte	0x5
 8189 15a7 AD       		.byte	0xad
 8190 15a8 6F000000 		.4byte	0x6f
 8191 15ac 01       		.byte	0x1
 8192 15ad 01       		.byte	0x1
 8193 15ae 17       		.uleb128 0x17
 8194 15af C20B0000 		.4byte	.LASF247
 8195 15b3 05       		.byte	0x5
 8196 15b4 B6       		.byte	0xb6
 8197 15b5 6F000000 		.4byte	0x6f
 8198 15b9 01       		.byte	0x1
 8199 15ba 01       		.byte	0x1
 8200 15bb 17       		.uleb128 0x17
 8201 15bc 65050000 		.4byte	.LASF248
 8202 15c0 05       		.byte	0x5
 8203 15c1 B7       		.byte	0xb7
 8204 15c2 6F000000 		.4byte	0x6f
 8205 15c6 01       		.byte	0x1
 8206 15c7 01       		.byte	0x1
 8207 15c8 13       		.uleb128 0x13
 8208 15c9 A6050000 		.4byte	.LASF249
 8209 15cd 01       		.byte	0x1
 8210 15ce 0F       		.byte	0xf
 8211 15cf 6F000000 		.4byte	0x6f
 8212 15d3 01       		.byte	0x1
 8213 15d4 05       		.byte	0x5
 8214 15d5 03       		.byte	0x3
 8215 15d6 00000000 		.4byte	Counter_Key
 8216 15da 18       		.uleb128 0x18
 8217 15db 01       		.byte	0x1
ARM GAS  C:\Users\ZHANGM~1\AppData\Local\Temp\cccEtK9g.s 			page 184


 8218 15dc E9010000 		.4byte	.LASF250
 8219 15e0 07       		.byte	0x7
 8220 15e1 2101     		.2byte	0x121
 8221 15e3 01       		.byte	0x1
 8222 15e4 01       		.byte	0x1
 8223 15e5 18       		.uleb128 0x18
 8224 15e6 01       		.byte	0x1
 8225 15e7 08090000 		.4byte	.LASF251
 8226 15eb 07       		.byte	0x7
 8227 15ec 2201     		.2byte	0x122
 8228 15ee 01       		.byte	0x1
 8229 15ef 01       		.byte	0x1
 8230 15f0 19       		.uleb128 0x19
 8231 15f1 01       		.byte	0x1
 8232 15f2 C8080000 		.4byte	.LASF252
 8233 15f6 08       		.byte	0x8
 8234 15f7 20       		.byte	0x20
 8235 15f8 01       		.byte	0x1
 8236 15f9 6F000000 		.4byte	0x6f
 8237 15fd 01       		.byte	0x1
 8238 15fe 19       		.uleb128 0x19
 8239 15ff 01       		.byte	0x1
 8240 1600 6E010000 		.4byte	.LASF253
 8241 1604 09       		.byte	0x9
 8242 1605 20       		.byte	0x20
 8243 1606 01       		.byte	0x1
 8244 1607 6F000000 		.4byte	0x6f
 8245 160b 01       		.byte	0x1
 8246 160c 19       		.uleb128 0x19
 8247 160d 01       		.byte	0x1
 8248 160e C5070000 		.4byte	.LASF254
 8249 1612 0A       		.byte	0xa
 8250 1613 20       		.byte	0x20
 8251 1614 01       		.byte	0x1
 8252 1615 6F000000 		.4byte	0x6f
 8253 1619 01       		.byte	0x1
 8254 161a 19       		.uleb128 0x19
 8255 161b 01       		.byte	0x1
 8256 161c 58090000 		.4byte	.LASF255
 8257 1620 0B       		.byte	0xb
 8258 1621 20       		.byte	0x20
 8259 1622 01       		.byte	0x1
 8260 1623 6F000000 		.4byte	0x6f
 8261 1627 01       		.byte	0x1
 8262 1628 1A       		.uleb128 0x1a
 8263 1629 01       		.byte	0x1
 8264 162a 3B0A0000 		.4byte	.LASF258
 8265 162e 03       		.byte	0x3
 8266 162f FA       		.byte	0xfa
 8267 1630 01       		.byte	0x1
 8268 1631 01       		.byte	0x1
 8269 1632 3C160000 		.4byte	0x163c
 8270 1636 1B       		.uleb128 0x1b
 8271 1637 7A000000 		.4byte	0x7a
 8272 163b 00       		.byte	0
 8273 163c 19       		.uleb128 0x19
 8274 163d 01       		.byte	0x1
ARM GAS  C:\Users\ZHANGM~1\AppData\Local\Temp\cccEtK9g.s 			page 185


 8275 163e FB030000 		.4byte	.LASF256
 8276 1642 0C       		.byte	0xc
 8277 1643 20       		.byte	0x20
 8278 1644 01       		.byte	0x1
 8279 1645 6F000000 		.4byte	0x6f
 8280 1649 01       		.byte	0x1
 8281 164a 19       		.uleb128 0x19
 8282 164b 01       		.byte	0x1
 8283 164c 9D070000 		.4byte	.LASF257
 8284 1650 0D       		.byte	0xd
 8285 1651 20       		.byte	0x20
 8286 1652 01       		.byte	0x1
 8287 1653 6F000000 		.4byte	0x6f
 8288 1657 01       		.byte	0x1
 8289 1658 1A       		.uleb128 0x1a
 8290 1659 01       		.byte	0x1
 8291 165a 85060000 		.4byte	.LASF259
 8292 165e 0E       		.byte	0xe
 8293 165f 6D       		.byte	0x6d
 8294 1660 01       		.byte	0x1
 8295 1661 01       		.byte	0x1
 8296 1662 6C160000 		.4byte	0x166c
 8297 1666 1B       		.uleb128 0x1b
 8298 1667 7A000000 		.4byte	0x7a
 8299 166b 00       		.byte	0
 8300 166c 1A       		.uleb128 0x1a
 8301 166d 01       		.byte	0x1
 8302 166e 18010000 		.4byte	.LASF260
 8303 1672 05       		.byte	0x5
 8304 1673 D4       		.byte	0xd4
 8305 1674 01       		.byte	0x1
 8306 1675 01       		.byte	0x1
 8307 1676 80160000 		.4byte	0x1680
 8308 167a 1B       		.uleb128 0x1b
 8309 167b 7A000000 		.4byte	0x7a
 8310 167f 00       		.byte	0
 8311 1680 1C       		.uleb128 0x1c
 8312 1681 01       		.byte	0x1
 8313 1682 050A0000 		.4byte	.LASF261
 8314 1686 06       		.byte	0x6
 8315 1687 80       		.byte	0x80
 8316 1688 01       		.byte	0x1
 8317 1689 01       		.byte	0x1
 8318 168a 1C       		.uleb128 0x1c
 8319 168b 01       		.byte	0x1
 8320 168c E2020000 		.4byte	.LASF262
 8321 1690 05       		.byte	0x5
 8322 1691 BD       		.byte	0xbd
 8323 1692 01       		.byte	0x1
 8324 1693 01       		.byte	0x1
 8325 1694 1C       		.uleb128 0x1c
 8326 1695 01       		.byte	0x1
 8327 1696 A50B0000 		.4byte	.LASF263
 8328 169a 05       		.byte	0x5
 8329 169b B9       		.byte	0xb9
 8330 169c 01       		.byte	0x1
 8331 169d 01       		.byte	0x1
ARM GAS  C:\Users\ZHANGM~1\AppData\Local\Temp\cccEtK9g.s 			page 186


 8332 169e 1C       		.uleb128 0x1c
 8333 169f 01       		.byte	0x1
 8334 16a0 420B0000 		.4byte	.LASF264
 8335 16a4 05       		.byte	0x5
 8336 16a5 BC       		.byte	0xbc
 8337 16a6 01       		.byte	0x1
 8338 16a7 01       		.byte	0x1
 8339 16a8 1C       		.uleb128 0x1c
 8340 16a9 01       		.byte	0x1
 8341 16aa 31090000 		.4byte	.LASF265
 8342 16ae 05       		.byte	0x5
 8343 16af D5       		.byte	0xd5
 8344 16b0 01       		.byte	0x1
 8345 16b1 01       		.byte	0x1
 8346 16b2 1A       		.uleb128 0x1a
 8347 16b3 01       		.byte	0x1
 8348 16b4 9D050000 		.4byte	.LASF266
 8349 16b8 0A       		.byte	0xa
 8350 16b9 1D       		.byte	0x1d
 8351 16ba 01       		.byte	0x1
 8352 16bb 01       		.byte	0x1
 8353 16bc C6160000 		.4byte	0x16c6
 8354 16c0 1B       		.uleb128 0x1b
 8355 16c1 6F000000 		.4byte	0x6f
 8356 16c5 00       		.byte	0
 8357 16c6 1D       		.uleb128 0x1d
 8358 16c7 01       		.byte	0x1
 8359 16c8 870B0000 		.4byte	.LASF270
 8360 16cc 0C       		.byte	0xc
 8361 16cd 1D       		.byte	0x1d
 8362 16ce 01       		.byte	0x1
 8363 16cf 01       		.byte	0x1
 8364 16d0 1B       		.uleb128 0x1b
 8365 16d1 6F000000 		.4byte	0x6f
 8366 16d5 00       		.byte	0
 8367 16d6 00       		.byte	0
 8368              		.section	.debug_abbrev,"",%progbits
 8369              	.Ldebug_abbrev0:
 8370 0000 01       		.uleb128 0x1
 8371 0001 11       		.uleb128 0x11
 8372 0002 01       		.byte	0x1
 8373 0003 25       		.uleb128 0x25
 8374 0004 0E       		.uleb128 0xe
 8375 0005 13       		.uleb128 0x13
 8376 0006 0B       		.uleb128 0xb
 8377 0007 03       		.uleb128 0x3
 8378 0008 0E       		.uleb128 0xe
 8379 0009 1B       		.uleb128 0x1b
 8380 000a 0E       		.uleb128 0xe
 8381 000b 55       		.uleb128 0x55
 8382 000c 06       		.uleb128 0x6
 8383 000d 11       		.uleb128 0x11
 8384 000e 01       		.uleb128 0x1
 8385 000f 52       		.uleb128 0x52
 8386 0010 01       		.uleb128 0x1
 8387 0011 10       		.uleb128 0x10
 8388 0012 06       		.uleb128 0x6
ARM GAS  C:\Users\ZHANGM~1\AppData\Local\Temp\cccEtK9g.s 			page 187


 8389 0013 00       		.byte	0
 8390 0014 00       		.byte	0
 8391 0015 02       		.uleb128 0x2
 8392 0016 24       		.uleb128 0x24
 8393 0017 00       		.byte	0
 8394 0018 0B       		.uleb128 0xb
 8395 0019 0B       		.uleb128 0xb
 8396 001a 3E       		.uleb128 0x3e
 8397 001b 0B       		.uleb128 0xb
 8398 001c 03       		.uleb128 0x3
 8399 001d 0E       		.uleb128 0xe
 8400 001e 00       		.byte	0
 8401 001f 00       		.byte	0
 8402 0020 03       		.uleb128 0x3
 8403 0021 24       		.uleb128 0x24
 8404 0022 00       		.byte	0
 8405 0023 0B       		.uleb128 0xb
 8406 0024 0B       		.uleb128 0xb
 8407 0025 3E       		.uleb128 0x3e
 8408 0026 0B       		.uleb128 0xb
 8409 0027 03       		.uleb128 0x3
 8410 0028 08       		.uleb128 0x8
 8411 0029 00       		.byte	0
 8412 002a 00       		.byte	0
 8413 002b 04       		.uleb128 0x4
 8414 002c 16       		.uleb128 0x16
 8415 002d 00       		.byte	0
 8416 002e 03       		.uleb128 0x3
 8417 002f 0E       		.uleb128 0xe
 8418 0030 3A       		.uleb128 0x3a
 8419 0031 0B       		.uleb128 0xb
 8420 0032 3B       		.uleb128 0x3b
 8421 0033 0B       		.uleb128 0xb
 8422 0034 49       		.uleb128 0x49
 8423 0035 13       		.uleb128 0x13
 8424 0036 00       		.byte	0
 8425 0037 00       		.byte	0
 8426 0038 05       		.uleb128 0x5
 8427 0039 13       		.uleb128 0x13
 8428 003a 01       		.byte	0x1
 8429 003b 0B       		.uleb128 0xb
 8430 003c 0B       		.uleb128 0xb
 8431 003d 3A       		.uleb128 0x3a
 8432 003e 0B       		.uleb128 0xb
 8433 003f 3B       		.uleb128 0x3b
 8434 0040 0B       		.uleb128 0xb
 8435 0041 01       		.uleb128 0x1
 8436 0042 13       		.uleb128 0x13
 8437 0043 00       		.byte	0
 8438 0044 00       		.byte	0
 8439 0045 06       		.uleb128 0x6
 8440 0046 0D       		.uleb128 0xd
 8441 0047 00       		.byte	0
 8442 0048 03       		.uleb128 0x3
 8443 0049 0E       		.uleb128 0xe
 8444 004a 3A       		.uleb128 0x3a
 8445 004b 0B       		.uleb128 0xb
ARM GAS  C:\Users\ZHANGM~1\AppData\Local\Temp\cccEtK9g.s 			page 188


 8446 004c 3B       		.uleb128 0x3b
 8447 004d 0B       		.uleb128 0xb
 8448 004e 49       		.uleb128 0x49
 8449 004f 13       		.uleb128 0x13
 8450 0050 0B       		.uleb128 0xb
 8451 0051 0B       		.uleb128 0xb
 8452 0052 0D       		.uleb128 0xd
 8453 0053 0B       		.uleb128 0xb
 8454 0054 0C       		.uleb128 0xc
 8455 0055 0B       		.uleb128 0xb
 8456 0056 38       		.uleb128 0x38
 8457 0057 0A       		.uleb128 0xa
 8458 0058 00       		.byte	0
 8459 0059 00       		.byte	0
 8460 005a 07       		.uleb128 0x7
 8461 005b 0D       		.uleb128 0xd
 8462 005c 00       		.byte	0
 8463 005d 03       		.uleb128 0x3
 8464 005e 08       		.uleb128 0x8
 8465 005f 3A       		.uleb128 0x3a
 8466 0060 0B       		.uleb128 0xb
 8467 0061 3B       		.uleb128 0x3b
 8468 0062 0B       		.uleb128 0xb
 8469 0063 49       		.uleb128 0x49
 8470 0064 13       		.uleb128 0x13
 8471 0065 0B       		.uleb128 0xb
 8472 0066 0B       		.uleb128 0xb
 8473 0067 0D       		.uleb128 0xd
 8474 0068 0B       		.uleb128 0xb
 8475 0069 0C       		.uleb128 0xc
 8476 006a 0B       		.uleb128 0xb
 8477 006b 38       		.uleb128 0x38
 8478 006c 0A       		.uleb128 0xa
 8479 006d 00       		.byte	0
 8480 006e 00       		.byte	0
 8481 006f 08       		.uleb128 0x8
 8482 0070 17       		.uleb128 0x17
 8483 0071 01       		.byte	0x1
 8484 0072 0B       		.uleb128 0xb
 8485 0073 0B       		.uleb128 0xb
 8486 0074 3A       		.uleb128 0x3a
 8487 0075 0B       		.uleb128 0xb
 8488 0076 3B       		.uleb128 0x3b
 8489 0077 0B       		.uleb128 0xb
 8490 0078 01       		.uleb128 0x1
 8491 0079 13       		.uleb128 0x13
 8492 007a 00       		.byte	0
 8493 007b 00       		.byte	0
 8494 007c 09       		.uleb128 0x9
 8495 007d 0D       		.uleb128 0xd
 8496 007e 00       		.byte	0
 8497 007f 03       		.uleb128 0x3
 8498 0080 08       		.uleb128 0x8
 8499 0081 3A       		.uleb128 0x3a
 8500 0082 0B       		.uleb128 0xb
 8501 0083 3B       		.uleb128 0x3b
 8502 0084 0B       		.uleb128 0xb
ARM GAS  C:\Users\ZHANGM~1\AppData\Local\Temp\cccEtK9g.s 			page 189


 8503 0085 49       		.uleb128 0x49
 8504 0086 13       		.uleb128 0x13
 8505 0087 00       		.byte	0
 8506 0088 00       		.byte	0
 8507 0089 0A       		.uleb128 0xa
 8508 008a 2E       		.uleb128 0x2e
 8509 008b 01       		.byte	0x1
 8510 008c 3F       		.uleb128 0x3f
 8511 008d 0C       		.uleb128 0xc
 8512 008e 03       		.uleb128 0x3
 8513 008f 0E       		.uleb128 0xe
 8514 0090 3A       		.uleb128 0x3a
 8515 0091 0B       		.uleb128 0xb
 8516 0092 3B       		.uleb128 0x3b
 8517 0093 0B       		.uleb128 0xb
 8518 0094 27       		.uleb128 0x27
 8519 0095 0C       		.uleb128 0xc
 8520 0096 11       		.uleb128 0x11
 8521 0097 01       		.uleb128 0x1
 8522 0098 12       		.uleb128 0x12
 8523 0099 01       		.uleb128 0x1
 8524 009a 40       		.uleb128 0x40
 8525 009b 06       		.uleb128 0x6
 8526 009c 9742     		.uleb128 0x2117
 8527 009e 0C       		.uleb128 0xc
 8528 009f 01       		.uleb128 0x1
 8529 00a0 13       		.uleb128 0x13
 8530 00a1 00       		.byte	0
 8531 00a2 00       		.byte	0
 8532 00a3 0B       		.uleb128 0xb
 8533 00a4 898201   		.uleb128 0x4109
 8534 00a7 00       		.byte	0
 8535 00a8 11       		.uleb128 0x11
 8536 00a9 01       		.uleb128 0x1
 8537 00aa 31       		.uleb128 0x31
 8538 00ab 13       		.uleb128 0x13
 8539 00ac 00       		.byte	0
 8540 00ad 00       		.byte	0
 8541 00ae 0C       		.uleb128 0xc
 8542 00af 2E       		.uleb128 0x2e
 8543 00b0 00       		.byte	0
 8544 00b1 3F       		.uleb128 0x3f
 8545 00b2 0C       		.uleb128 0xc
 8546 00b3 03       		.uleb128 0x3
 8547 00b4 0E       		.uleb128 0xe
 8548 00b5 3A       		.uleb128 0x3a
 8549 00b6 0B       		.uleb128 0xb
 8550 00b7 3B       		.uleb128 0x3b
 8551 00b8 05       		.uleb128 0x5
 8552 00b9 27       		.uleb128 0x27
 8553 00ba 0C       		.uleb128 0xc
 8554 00bb 11       		.uleb128 0x11
 8555 00bc 01       		.uleb128 0x1
 8556 00bd 12       		.uleb128 0x12
 8557 00be 01       		.uleb128 0x1
 8558 00bf 40       		.uleb128 0x40
 8559 00c0 06       		.uleb128 0x6
ARM GAS  C:\Users\ZHANGM~1\AppData\Local\Temp\cccEtK9g.s 			page 190


 8560 00c1 9742     		.uleb128 0x2117
 8561 00c3 0C       		.uleb128 0xc
 8562 00c4 00       		.byte	0
 8563 00c5 00       		.byte	0
 8564 00c6 0D       		.uleb128 0xd
 8565 00c7 2E       		.uleb128 0x2e
 8566 00c8 00       		.byte	0
 8567 00c9 3F       		.uleb128 0x3f
 8568 00ca 0C       		.uleb128 0xc
 8569 00cb 03       		.uleb128 0x3
 8570 00cc 0E       		.uleb128 0xe
 8571 00cd 3A       		.uleb128 0x3a
 8572 00ce 0B       		.uleb128 0xb
 8573 00cf 3B       		.uleb128 0x3b
 8574 00d0 05       		.uleb128 0x5
 8575 00d1 27       		.uleb128 0x27
 8576 00d2 0C       		.uleb128 0xc
 8577 00d3 11       		.uleb128 0x11
 8578 00d4 01       		.uleb128 0x1
 8579 00d5 12       		.uleb128 0x12
 8580 00d6 01       		.uleb128 0x1
 8581 00d7 40       		.uleb128 0x40
 8582 00d8 06       		.uleb128 0x6
 8583 00d9 9642     		.uleb128 0x2116
 8584 00db 0C       		.uleb128 0xc
 8585 00dc 00       		.byte	0
 8586 00dd 00       		.byte	0
 8587 00de 0E       		.uleb128 0xe
 8588 00df 2E       		.uleb128 0x2e
 8589 00e0 01       		.byte	0x1
 8590 00e1 3F       		.uleb128 0x3f
 8591 00e2 0C       		.uleb128 0xc
 8592 00e3 03       		.uleb128 0x3
 8593 00e4 0E       		.uleb128 0xe
 8594 00e5 3A       		.uleb128 0x3a
 8595 00e6 0B       		.uleb128 0xb
 8596 00e7 3B       		.uleb128 0x3b
 8597 00e8 05       		.uleb128 0x5
 8598 00e9 27       		.uleb128 0x27
 8599 00ea 0C       		.uleb128 0xc
 8600 00eb 11       		.uleb128 0x11
 8601 00ec 01       		.uleb128 0x1
 8602 00ed 12       		.uleb128 0x12
 8603 00ee 01       		.uleb128 0x1
 8604 00ef 40       		.uleb128 0x40
 8605 00f0 06       		.uleb128 0x6
 8606 00f1 9742     		.uleb128 0x2117
 8607 00f3 0C       		.uleb128 0xc
 8608 00f4 01       		.uleb128 0x1
 8609 00f5 13       		.uleb128 0x13
 8610 00f6 00       		.byte	0
 8611 00f7 00       		.byte	0
 8612 00f8 0F       		.uleb128 0xf
 8613 00f9 898201   		.uleb128 0x4109
 8614 00fc 01       		.byte	0x1
 8615 00fd 11       		.uleb128 0x11
 8616 00fe 01       		.uleb128 0x1
ARM GAS  C:\Users\ZHANGM~1\AppData\Local\Temp\cccEtK9g.s 			page 191


 8617 00ff 31       		.uleb128 0x31
 8618 0100 13       		.uleb128 0x13
 8619 0101 01       		.uleb128 0x1
 8620 0102 13       		.uleb128 0x13
 8621 0103 00       		.byte	0
 8622 0104 00       		.byte	0
 8623 0105 10       		.uleb128 0x10
 8624 0106 8A8201   		.uleb128 0x410a
 8625 0109 00       		.byte	0
 8626 010a 02       		.uleb128 0x2
 8627 010b 0A       		.uleb128 0xa
 8628 010c 9142     		.uleb128 0x2111
 8629 010e 0A       		.uleb128 0xa
 8630 010f 00       		.byte	0
 8631 0110 00       		.byte	0
 8632 0111 11       		.uleb128 0x11
 8633 0112 898201   		.uleb128 0x4109
 8634 0115 01       		.byte	0x1
 8635 0116 11       		.uleb128 0x11
 8636 0117 01       		.uleb128 0x1
 8637 0118 31       		.uleb128 0x31
 8638 0119 13       		.uleb128 0x13
 8639 011a 00       		.byte	0
 8640 011b 00       		.byte	0
 8641 011c 12       		.uleb128 0x12
 8642 011d 2E       		.uleb128 0x2e
 8643 011e 01       		.byte	0x1
 8644 011f 3F       		.uleb128 0x3f
 8645 0120 0C       		.uleb128 0xc
 8646 0121 03       		.uleb128 0x3
 8647 0122 08       		.uleb128 0x8
 8648 0123 3A       		.uleb128 0x3a
 8649 0124 0B       		.uleb128 0xb
 8650 0125 3B       		.uleb128 0x3b
 8651 0126 05       		.uleb128 0x5
 8652 0127 27       		.uleb128 0x27
 8653 0128 0C       		.uleb128 0xc
 8654 0129 11       		.uleb128 0x11
 8655 012a 01       		.uleb128 0x1
 8656 012b 12       		.uleb128 0x12
 8657 012c 01       		.uleb128 0x1
 8658 012d 40       		.uleb128 0x40
 8659 012e 06       		.uleb128 0x6
 8660 012f 9742     		.uleb128 0x2117
 8661 0131 0C       		.uleb128 0xc
 8662 0132 01       		.uleb128 0x1
 8663 0133 13       		.uleb128 0x13
 8664 0134 00       		.byte	0
 8665 0135 00       		.byte	0
 8666 0136 13       		.uleb128 0x13
 8667 0137 34       		.uleb128 0x34
 8668 0138 00       		.byte	0
 8669 0139 03       		.uleb128 0x3
 8670 013a 0E       		.uleb128 0xe
 8671 013b 3A       		.uleb128 0x3a
 8672 013c 0B       		.uleb128 0xb
 8673 013d 3B       		.uleb128 0x3b
ARM GAS  C:\Users\ZHANGM~1\AppData\Local\Temp\cccEtK9g.s 			page 192


 8674 013e 0B       		.uleb128 0xb
 8675 013f 49       		.uleb128 0x49
 8676 0140 13       		.uleb128 0x13
 8677 0141 3F       		.uleb128 0x3f
 8678 0142 0C       		.uleb128 0xc
 8679 0143 02       		.uleb128 0x2
 8680 0144 0A       		.uleb128 0xa
 8681 0145 00       		.byte	0
 8682 0146 00       		.byte	0
 8683 0147 14       		.uleb128 0x14
 8684 0148 01       		.uleb128 0x1
 8685 0149 01       		.byte	0x1
 8686 014a 49       		.uleb128 0x49
 8687 014b 13       		.uleb128 0x13
 8688 014c 01       		.uleb128 0x1
 8689 014d 13       		.uleb128 0x13
 8690 014e 00       		.byte	0
 8691 014f 00       		.byte	0
 8692 0150 15       		.uleb128 0x15
 8693 0151 21       		.uleb128 0x21
 8694 0152 00       		.byte	0
 8695 0153 49       		.uleb128 0x49
 8696 0154 13       		.uleb128 0x13
 8697 0155 2F       		.uleb128 0x2f
 8698 0156 0B       		.uleb128 0xb
 8699 0157 00       		.byte	0
 8700 0158 00       		.byte	0
 8701 0159 16       		.uleb128 0x16
 8702 015a 34       		.uleb128 0x34
 8703 015b 00       		.byte	0
 8704 015c 03       		.uleb128 0x3
 8705 015d 08       		.uleb128 0x8
 8706 015e 3A       		.uleb128 0x3a
 8707 015f 0B       		.uleb128 0xb
 8708 0160 3B       		.uleb128 0x3b
 8709 0161 0B       		.uleb128 0xb
 8710 0162 49       		.uleb128 0x49
 8711 0163 13       		.uleb128 0x13
 8712 0164 3F       		.uleb128 0x3f
 8713 0165 0C       		.uleb128 0xc
 8714 0166 02       		.uleb128 0x2
 8715 0167 0A       		.uleb128 0xa
 8716 0168 00       		.byte	0
 8717 0169 00       		.byte	0
 8718 016a 17       		.uleb128 0x17
 8719 016b 34       		.uleb128 0x34
 8720 016c 00       		.byte	0
 8721 016d 03       		.uleb128 0x3
 8722 016e 0E       		.uleb128 0xe
 8723 016f 3A       		.uleb128 0x3a
 8724 0170 0B       		.uleb128 0xb
 8725 0171 3B       		.uleb128 0x3b
 8726 0172 0B       		.uleb128 0xb
 8727 0173 49       		.uleb128 0x49
 8728 0174 13       		.uleb128 0x13
 8729 0175 3F       		.uleb128 0x3f
 8730 0176 0C       		.uleb128 0xc
ARM GAS  C:\Users\ZHANGM~1\AppData\Local\Temp\cccEtK9g.s 			page 193


 8731 0177 3C       		.uleb128 0x3c
 8732 0178 0C       		.uleb128 0xc
 8733 0179 00       		.byte	0
 8734 017a 00       		.byte	0
 8735 017b 18       		.uleb128 0x18
 8736 017c 2E       		.uleb128 0x2e
 8737 017d 00       		.byte	0
 8738 017e 3F       		.uleb128 0x3f
 8739 017f 0C       		.uleb128 0xc
 8740 0180 03       		.uleb128 0x3
 8741 0181 0E       		.uleb128 0xe
 8742 0182 3A       		.uleb128 0x3a
 8743 0183 0B       		.uleb128 0xb
 8744 0184 3B       		.uleb128 0x3b
 8745 0185 05       		.uleb128 0x5
 8746 0186 27       		.uleb128 0x27
 8747 0187 0C       		.uleb128 0xc
 8748 0188 3C       		.uleb128 0x3c
 8749 0189 0C       		.uleb128 0xc
 8750 018a 00       		.byte	0
 8751 018b 00       		.byte	0
 8752 018c 19       		.uleb128 0x19
 8753 018d 2E       		.uleb128 0x2e
 8754 018e 00       		.byte	0
 8755 018f 3F       		.uleb128 0x3f
 8756 0190 0C       		.uleb128 0xc
 8757 0191 03       		.uleb128 0x3
 8758 0192 0E       		.uleb128 0xe
 8759 0193 3A       		.uleb128 0x3a
 8760 0194 0B       		.uleb128 0xb
 8761 0195 3B       		.uleb128 0x3b
 8762 0196 0B       		.uleb128 0xb
 8763 0197 27       		.uleb128 0x27
 8764 0198 0C       		.uleb128 0xc
 8765 0199 49       		.uleb128 0x49
 8766 019a 13       		.uleb128 0x13
 8767 019b 3C       		.uleb128 0x3c
 8768 019c 0C       		.uleb128 0xc
 8769 019d 00       		.byte	0
 8770 019e 00       		.byte	0
 8771 019f 1A       		.uleb128 0x1a
 8772 01a0 2E       		.uleb128 0x2e
 8773 01a1 01       		.byte	0x1
 8774 01a2 3F       		.uleb128 0x3f
 8775 01a3 0C       		.uleb128 0xc
 8776 01a4 03       		.uleb128 0x3
 8777 01a5 0E       		.uleb128 0xe
 8778 01a6 3A       		.uleb128 0x3a
 8779 01a7 0B       		.uleb128 0xb
 8780 01a8 3B       		.uleb128 0x3b
 8781 01a9 0B       		.uleb128 0xb
 8782 01aa 27       		.uleb128 0x27
 8783 01ab 0C       		.uleb128 0xc
 8784 01ac 3C       		.uleb128 0x3c
 8785 01ad 0C       		.uleb128 0xc
 8786 01ae 01       		.uleb128 0x1
 8787 01af 13       		.uleb128 0x13
ARM GAS  C:\Users\ZHANGM~1\AppData\Local\Temp\cccEtK9g.s 			page 194


 8788 01b0 00       		.byte	0
 8789 01b1 00       		.byte	0
 8790 01b2 1B       		.uleb128 0x1b
 8791 01b3 05       		.uleb128 0x5
 8792 01b4 00       		.byte	0
 8793 01b5 49       		.uleb128 0x49
 8794 01b6 13       		.uleb128 0x13
 8795 01b7 00       		.byte	0
 8796 01b8 00       		.byte	0
 8797 01b9 1C       		.uleb128 0x1c
 8798 01ba 2E       		.uleb128 0x2e
 8799 01bb 00       		.byte	0
 8800 01bc 3F       		.uleb128 0x3f
 8801 01bd 0C       		.uleb128 0xc
 8802 01be 03       		.uleb128 0x3
 8803 01bf 0E       		.uleb128 0xe
 8804 01c0 3A       		.uleb128 0x3a
 8805 01c1 0B       		.uleb128 0xb
 8806 01c2 3B       		.uleb128 0x3b
 8807 01c3 0B       		.uleb128 0xb
 8808 01c4 27       		.uleb128 0x27
 8809 01c5 0C       		.uleb128 0xc
 8810 01c6 3C       		.uleb128 0x3c
 8811 01c7 0C       		.uleb128 0xc
 8812 01c8 00       		.byte	0
 8813 01c9 00       		.byte	0
 8814 01ca 1D       		.uleb128 0x1d
 8815 01cb 2E       		.uleb128 0x2e
 8816 01cc 01       		.byte	0x1
 8817 01cd 3F       		.uleb128 0x3f
 8818 01ce 0C       		.uleb128 0xc
 8819 01cf 03       		.uleb128 0x3
 8820 01d0 0E       		.uleb128 0xe
 8821 01d1 3A       		.uleb128 0x3a
 8822 01d2 0B       		.uleb128 0xb
 8823 01d3 3B       		.uleb128 0x3b
 8824 01d4 0B       		.uleb128 0xb
 8825 01d5 27       		.uleb128 0x27
 8826 01d6 0C       		.uleb128 0xc
 8827 01d7 3C       		.uleb128 0x3c
 8828 01d8 0C       		.uleb128 0xc
 8829 01d9 00       		.byte	0
 8830 01da 00       		.byte	0
 8831 01db 00       		.byte	0
 8832              		.section	.debug_loc,"",%progbits
 8833              	.Ldebug_loc0:
 8834              	.LLST0:
 8835 0000 00000000 		.4byte	.LFB33
 8836 0004 02000000 		.4byte	.LCFI0
 8837 0008 0200     		.2byte	0x2
 8838 000a 7D       		.byte	0x7d
 8839 000b 00       		.sleb128 0
 8840 000c 02000000 		.4byte	.LCFI0
 8841 0010 88000000 		.4byte	.LFE33
 8842 0014 0200     		.2byte	0x2
 8843 0016 7D       		.byte	0x7d
 8844 0017 10       		.sleb128 16
ARM GAS  C:\Users\ZHANGM~1\AppData\Local\Temp\cccEtK9g.s 			page 195


 8845 0018 00000000 		.4byte	0
 8846 001c 00000000 		.4byte	0
 8847              	.LLST1:
 8848 0020 00000000 		.4byte	.LFB34
 8849 0024 02000000 		.4byte	.LCFI1
 8850 0028 0200     		.2byte	0x2
 8851 002a 7D       		.byte	0x7d
 8852 002b 00       		.sleb128 0
 8853 002c 02000000 		.4byte	.LCFI1
 8854 0030 D4040000 		.4byte	.LFE34
 8855 0034 0200     		.2byte	0x2
 8856 0036 7D       		.byte	0x7d
 8857 0037 18       		.sleb128 24
 8858 0038 00000000 		.4byte	0
 8859 003c 00000000 		.4byte	0
 8860              	.LLST2:
 8861 0040 00000000 		.4byte	.LFB35
 8862 0044 02000000 		.4byte	.LCFI2
 8863 0048 0200     		.2byte	0x2
 8864 004a 7D       		.byte	0x7d
 8865 004b 00       		.sleb128 0
 8866 004c 02000000 		.4byte	.LCFI2
 8867 0050 28010000 		.4byte	.LFE35
 8868 0054 0200     		.2byte	0x2
 8869 0056 7D       		.byte	0x7d
 8870 0057 08       		.sleb128 8
 8871 0058 00000000 		.4byte	0
 8872 005c 00000000 		.4byte	0
 8873              	.LLST3:
 8874 0060 00000000 		.4byte	.LFB37
 8875 0064 02000000 		.4byte	.LCFI3
 8876 0068 0200     		.2byte	0x2
 8877 006a 7D       		.byte	0x7d
 8878 006b 00       		.sleb128 0
 8879 006c 02000000 		.4byte	.LCFI3
 8880 0070 E8030000 		.4byte	.LFE37
 8881 0074 0200     		.2byte	0x2
 8882 0076 7D       		.byte	0x7d
 8883 0077 18       		.sleb128 24
 8884 0078 00000000 		.4byte	0
 8885 007c 00000000 		.4byte	0
 8886              	.LLST4:
 8887 0080 00000000 		.4byte	.LFB36
 8888 0084 02000000 		.4byte	.LCFI4
 8889 0088 0200     		.2byte	0x2
 8890 008a 7D       		.byte	0x7d
 8891 008b 00       		.sleb128 0
 8892 008c 02000000 		.4byte	.LCFI4
 8893 0090 C8000000 		.4byte	.LFE36
 8894 0094 0200     		.2byte	0x2
 8895 0096 7D       		.byte	0x7d
 8896 0097 08       		.sleb128 8
 8897 0098 00000000 		.4byte	0
 8898 009c 00000000 		.4byte	0
 8899              	.LLST5:
 8900 00a0 00000000 		.4byte	.LFB38
 8901 00a4 02000000 		.4byte	.LCFI5
ARM GAS  C:\Users\ZHANGM~1\AppData\Local\Temp\cccEtK9g.s 			page 196


 8902 00a8 0200     		.2byte	0x2
 8903 00aa 7D       		.byte	0x7d
 8904 00ab 00       		.sleb128 0
 8905 00ac 02000000 		.4byte	.LCFI5
 8906 00b0 CC000000 		.4byte	.LFE38
 8907 00b4 0200     		.2byte	0x2
 8908 00b6 7D       		.byte	0x7d
 8909 00b7 10       		.sleb128 16
 8910 00b8 00000000 		.4byte	0
 8911 00bc 00000000 		.4byte	0
 8912              	.LLST6:
 8913 00c0 00000000 		.4byte	.LFB39
 8914 00c4 08000000 		.4byte	.LCFI6
 8915 00c8 0200     		.2byte	0x2
 8916 00ca 7D       		.byte	0x7d
 8917 00cb 00       		.sleb128 0
 8918 00cc 08000000 		.4byte	.LCFI6
 8919 00d0 CC010000 		.4byte	.LFE39
 8920 00d4 0200     		.2byte	0x2
 8921 00d6 7D       		.byte	0x7d
 8922 00d7 08       		.sleb128 8
 8923 00d8 00000000 		.4byte	0
 8924 00dc 00000000 		.4byte	0
 8925              	.LLST7:
 8926 00e0 00000000 		.4byte	.LFB40
 8927 00e4 02000000 		.4byte	.LCFI7
 8928 00e8 0200     		.2byte	0x2
 8929 00ea 7D       		.byte	0x7d
 8930 00eb 00       		.sleb128 0
 8931 00ec 02000000 		.4byte	.LCFI7
 8932 00f0 40000000 		.4byte	.LFE40
 8933 00f4 0200     		.2byte	0x2
 8934 00f6 7D       		.byte	0x7d
 8935 00f7 04       		.sleb128 4
 8936 00f8 00000000 		.4byte	0
 8937 00fc 00000000 		.4byte	0
 8938              	.LLST8:
 8939 0100 00000000 		.4byte	.LFB41
 8940 0104 02000000 		.4byte	.LCFI8
 8941 0108 0200     		.2byte	0x2
 8942 010a 7D       		.byte	0x7d
 8943 010b 00       		.sleb128 0
 8944 010c 02000000 		.4byte	.LCFI8
 8945 0110 B4000000 		.4byte	.LFE41
 8946 0114 0200     		.2byte	0x2
 8947 0116 7D       		.byte	0x7d
 8948 0117 04       		.sleb128 4
 8949 0118 00000000 		.4byte	0
 8950 011c 00000000 		.4byte	0
 8951              	.LLST9:
 8952 0120 00000000 		.4byte	.LFB42
 8953 0124 02000000 		.4byte	.LCFI9
 8954 0128 0200     		.2byte	0x2
 8955 012a 7D       		.byte	0x7d
 8956 012b 00       		.sleb128 0
 8957 012c 02000000 		.4byte	.LCFI9
 8958 0130 24060000 		.4byte	.LFE42
ARM GAS  C:\Users\ZHANGM~1\AppData\Local\Temp\cccEtK9g.s 			page 197


 8959 0134 0200     		.2byte	0x2
 8960 0136 7D       		.byte	0x7d
 8961 0137 18       		.sleb128 24
 8962 0138 00000000 		.4byte	0
 8963 013c 00000000 		.4byte	0
 8964              	.LLST10:
 8965 0140 00000000 		.4byte	.LFB43
 8966 0144 02000000 		.4byte	.LCFI10
 8967 0148 0200     		.2byte	0x2
 8968 014a 7D       		.byte	0x7d
 8969 014b 00       		.sleb128 0
 8970 014c 02000000 		.4byte	.LCFI10
 8971 0150 5C000000 		.4byte	.LFE43
 8972 0154 0200     		.2byte	0x2
 8973 0156 7D       		.byte	0x7d
 8974 0157 10       		.sleb128 16
 8975 0158 00000000 		.4byte	0
 8976 015c 00000000 		.4byte	0
 8977              	.LLST11:
 8978 0160 00000000 		.4byte	.LFB44
 8979 0164 02000000 		.4byte	.LCFI11
 8980 0168 0200     		.2byte	0x2
 8981 016a 7D       		.byte	0x7d
 8982 016b 00       		.sleb128 0
 8983 016c 02000000 		.4byte	.LCFI11
 8984 0170 5C000000 		.4byte	.LFE44
 8985 0174 0200     		.2byte	0x2
 8986 0176 7D       		.byte	0x7d
 8987 0177 08       		.sleb128 8
 8988 0178 00000000 		.4byte	0
 8989 017c 00000000 		.4byte	0
 8990              	.LLST12:
 8991 0180 00000000 		.4byte	.LFB45
 8992 0184 02000000 		.4byte	.LCFI12
 8993 0188 0200     		.2byte	0x2
 8994 018a 7D       		.byte	0x7d
 8995 018b 00       		.sleb128 0
 8996 018c 02000000 		.4byte	.LCFI12
 8997 0190 04000000 		.4byte	.LCFI13
 8998 0194 0200     		.2byte	0x2
 8999 0196 7D       		.byte	0x7d
 9000 0197 14       		.sleb128 20
 9001 0198 04000000 		.4byte	.LCFI13
 9002 019c D4050000 		.4byte	.LFE45
 9003 01a0 0200     		.2byte	0x2
 9004 01a2 7D       		.byte	0x7d
 9005 01a3 28       		.sleb128 40
 9006 01a4 00000000 		.4byte	0
 9007 01a8 00000000 		.4byte	0
 9008              		.section	.debug_aranges,"",%progbits
 9009 0000 7C000000 		.4byte	0x7c
 9010 0004 0200     		.2byte	0x2
 9011 0006 00000000 		.4byte	.Ldebug_info0
 9012 000a 04       		.byte	0x4
 9013 000b 00       		.byte	0
 9014 000c 0000     		.2byte	0
 9015 000e 0000     		.2byte	0
ARM GAS  C:\Users\ZHANGM~1\AppData\Local\Temp\cccEtK9g.s 			page 198


 9016 0010 00000000 		.4byte	.LFB33
 9017 0014 88000000 		.4byte	.LFE33-.LFB33
 9018 0018 00000000 		.4byte	.LFB34
 9019 001c D4040000 		.4byte	.LFE34-.LFB34
 9020 0020 00000000 		.4byte	.LFB35
 9021 0024 28010000 		.4byte	.LFE35-.LFB35
 9022 0028 00000000 		.4byte	.LFB37
 9023 002c E8030000 		.4byte	.LFE37-.LFB37
 9024 0030 00000000 		.4byte	.LFB36
 9025 0034 C8000000 		.4byte	.LFE36-.LFB36
 9026 0038 00000000 		.4byte	.LFB38
 9027 003c CC000000 		.4byte	.LFE38-.LFB38
 9028 0040 00000000 		.4byte	.LFB39
 9029 0044 CC010000 		.4byte	.LFE39-.LFB39
 9030 0048 00000000 		.4byte	.LFB40
 9031 004c 40000000 		.4byte	.LFE40-.LFB40
 9032 0050 00000000 		.4byte	.LFB41
 9033 0054 B4000000 		.4byte	.LFE41-.LFB41
 9034 0058 00000000 		.4byte	.LFB42
 9035 005c 24060000 		.4byte	.LFE42-.LFB42
 9036 0060 00000000 		.4byte	.LFB43
 9037 0064 5C000000 		.4byte	.LFE43-.LFB43
 9038 0068 00000000 		.4byte	.LFB44
 9039 006c 5C000000 		.4byte	.LFE44-.LFB44
 9040 0070 00000000 		.4byte	.LFB45
 9041 0074 D4050000 		.4byte	.LFE45-.LFB45
 9042 0078 00000000 		.4byte	0
 9043 007c 00000000 		.4byte	0
 9044              		.section	.debug_ranges,"",%progbits
 9045              	.Ldebug_ranges0:
 9046 0000 00000000 		.4byte	.LFB33
 9047 0004 88000000 		.4byte	.LFE33
 9048 0008 00000000 		.4byte	.LFB34
 9049 000c D4040000 		.4byte	.LFE34
 9050 0010 00000000 		.4byte	.LFB35
 9051 0014 28010000 		.4byte	.LFE35
 9052 0018 00000000 		.4byte	.LFB37
 9053 001c E8030000 		.4byte	.LFE37
 9054 0020 00000000 		.4byte	.LFB36
 9055 0024 C8000000 		.4byte	.LFE36
 9056 0028 00000000 		.4byte	.LFB38
 9057 002c CC000000 		.4byte	.LFE38
 9058 0030 00000000 		.4byte	.LFB39
 9059 0034 CC010000 		.4byte	.LFE39
 9060 0038 00000000 		.4byte	.LFB40
 9061 003c 40000000 		.4byte	.LFE40
 9062 0040 00000000 		.4byte	.LFB41
 9063 0044 B4000000 		.4byte	.LFE41
 9064 0048 00000000 		.4byte	.LFB42
 9065 004c 24060000 		.4byte	.LFE42
 9066 0050 00000000 		.4byte	.LFB43
 9067 0054 5C000000 		.4byte	.LFE43
 9068 0058 00000000 		.4byte	.LFB44
 9069 005c 5C000000 		.4byte	.LFE44
 9070 0060 00000000 		.4byte	.LFB45
 9071 0064 D4050000 		.4byte	.LFE45
 9072 0068 00000000 		.4byte	0
ARM GAS  C:\Users\ZHANGM~1\AppData\Local\Temp\cccEtK9g.s 			page 199


 9073 006c 00000000 		.4byte	0
 9074              		.section	.debug_line,"",%progbits
 9075              	.Ldebug_line0:
 9076 0000 91070000 		.section	.debug_str,"MS",%progbits,1
 9076      0200C500 
 9076      00000201 
 9076      FB0E0D00 
 9076      01010101 
 9077              	.LASF236:
 9078 0000 4D506572 		.ascii	"MPercent\000"
 9078      63656E74 
 9078      00
 9079              	.LASF76:
 9080 0009 4572726F 		.ascii	"Error_08_flag\000"
 9080      725F3038 
 9080      5F666C61 
 9080      6700
 9081              	.LASF86:
 9082 0017 73666C61 		.ascii	"sflash\000"
 9082      736800
 9083              	.LASF164:
 9084 001e 47596669 		.ascii	"GYfig\000"
 9084      6700
 9085              	.LASF184:
 9086 0024 4572726F 		.ascii	"Error_Data\000"
 9086      725F4461 
 9086      746100
 9087              	.LASF202:
 9088 002f 79616E73 		.ascii	"yanshidisfig\000"
 9088      68696469 
 9088      73666967 
 9088      00
 9089              	.LASF41:
 9090 003c 77696669 		.ascii	"wifilinksta\000"
 9090      6C696E6B 
 9090      73746100 
 9091              	.LASF50:
 9092 0048 73646279 		.ascii	"sdby\000"
 9092      00
 9093              	.LASF71:
 9094 004d 4572726F 		.ascii	"Error_03_flag\000"
 9094      725F3033 
 9094      5F666C61 
 9094      6700
 9095              	.LASF65:
 9096 005b 776F726B 		.ascii	"working\000"
 9096      696E6700 
 9097              	.LASF125:
 9098 0063 42555A66 		.ascii	"BUZfkgtemp\000"
 9098      6B677465 
 9098      6D7000
 9099              	.LASF95:
 9100 006e 776F726B 		.ascii	"workingsignflash\000"
 9100      696E6773 
 9100      69676E66 
 9100      6C617368 
 9100      00
ARM GAS  C:\Users\ZHANGM~1\AppData\Local\Temp\cccEtK9g.s 			page 200


 9101              	.LASF18:
 9102 007f 4572726F 		.ascii	"Error_00\000"
 9102      725F3030 
 9102      00
 9103              	.LASF19:
 9104 0088 4572726F 		.ascii	"Error_01\000"
 9104      725F3031 
 9104      00
 9105              	.LASF20:
 9106 0091 4572726F 		.ascii	"Error_02\000"
 9106      725F3032 
 9106      00
 9107              	.LASF21:
 9108 009a 4572726F 		.ascii	"Error_03\000"
 9108      725F3033 
 9108      00
 9109              	.LASF22:
 9110 00a3 4572726F 		.ascii	"Error_04\000"
 9110      725F3034 
 9110      00
 9111              	.LASF23:
 9112 00ac 4572726F 		.ascii	"Error_05\000"
 9112      725F3035 
 9112      00
 9113              	.LASF24:
 9114 00b5 4572726F 		.ascii	"Error_06\000"
 9114      725F3036 
 9114      00
 9115              	.LASF25:
 9116 00be 4572726F 		.ascii	"Error_07\000"
 9116      725F3037 
 9116      00
 9117              	.LASF26:
 9118 00c7 4572726F 		.ascii	"Error_08\000"
 9118      725F3038 
 9118      00
 9119              	.LASF143:
 9120 00d0 4C58585A 		.ascii	"LXXZOUT_fig\000"
 9120      4F55545F 
 9120      66696700 
 9121              	.LASF239:
 9122 00dc 53746146 		.ascii	"StaFlashCnt\000"
 9122      6C617368 
 9122      436E7400 
 9123              	.LASF177:
 9124 00e8 6C767869 		.ascii	"lvxindaoqifig\000"
 9124      6E64616F 
 9124      71696669 
 9124      6700
 9125              	.LASF246:
 9126 00f6 41636B5F 		.ascii	"Ack_Timer\000"
 9126      54696D65 
 9126      7200
 9127              	.LASF145:
 9128 0100 587A5072 		.ascii	"XzPressCnt\000"
 9128      65737343 
 9128      6E7400
ARM GAS  C:\Users\ZHANGM~1\AppData\Local\Temp\cccEtK9g.s 			page 201


 9129              	.LASF8:
 9130 010b 756E7369 		.ascii	"unsigned int\000"
 9130      676E6564 
 9130      20696E74 
 9130      00
 9131              	.LASF260:
 9132 0118 4C6F6164 		.ascii	"Load_Command\000"
 9132      5F436F6D 
 9132      6D616E64 
 9132      00
 9133              	.LASF200:
 9134 0125 66617374 		.ascii	"fastcnt\000"
 9134      636E7400 
 9135              	.LASF34:
 9136 012d 71757975 		.ascii	"quyuxzsta\000"
 9136      787A7374 
 9136      6100
 9137              	.LASF83:
 9138 0137 636C6561 		.ascii	"cleaningsign\000"
 9138      6E696E67 
 9138      7369676E 
 9138      00
 9139              	.LASF64:
 9140 0144 64697961 		.ascii	"diya_flag\000"
 9140      5F666C61 
 9140      6700
 9141              	.LASF89:
 9142 014e 6B666C61 		.ascii	"kflash\000"
 9142      736800
 9143              	.LASF79:
 9144 0155 6F75746F 		.ascii	"outofwatersign\000"
 9144      66776174 
 9144      65727369 
 9144      676E00
 9145              	.LASF121:
 9146 0164 42757A7A 		.ascii	"BuzzerDly\000"
 9146      6572446C 
 9146      7900
 9147              	.LASF253:
 9148 016e 47595744 		.ascii	"GYWD_Read\000"
 9148      5F526561 
 9148      6400
 9149              	.LASF135:
 9150 0178 44595744 		.ascii	"DYWDfig1\000"
 9150      66696731 
 9150      00
 9151              	.LASF97:
 9152 0181 636C6561 		.ascii	"cleaningsignflash\000"
 9152      6E696E67 
 9152      7369676E 
 9152      666C6173 
 9152      6800
 9153              	.LASF94:
 9154 0193 77696669 		.ascii	"wifilinkingsignflash\000"
 9154      6C696E6B 
 9154      696E6773 
 9154      69676E66 
ARM GAS  C:\Users\ZHANGM~1\AppData\Local\Temp\cccEtK9g.s 			page 202


 9154      6C617368 
 9155              	.LASF33:
 9156 01a8 6A697368 		.ascii	"jishi\000"
 9156      6900
 9157              	.LASF30:
 9158 01ae 6572726F 		.ascii	"error\000"
 9158      7200
 9159              	.LASF201:
 9160 01b4 66617374 		.ascii	"fastjishifig\000"
 9160      6A697368 
 9160      69666967 
 9160      00
 9161              	.LASF103:
 9162 01c1 6C6C7678 		.ascii	"llvxinflash\000"
 9162      696E666C 
 9162      61736800 
 9163              	.LASF191:
 9164 01cd 48505F4E 		.ascii	"HP_N\000"
 9164      00
 9165              	.LASF28:
 9166 01d2 636C6F73 		.ascii	"close_value_sendingcmp\000"
 9166      655F7661 
 9166      6C75655F 
 9166      73656E64 
 9166      696E6763 
 9167              	.LASF250:
 9168 01e9 50574D5F 		.ascii	"PWM_Start\000"
 9168      53746172 
 9168      7400
 9169              	.LASF57:
 9170 01f3 67796675 		.ascii	"gyfull\000"
 9170      6C6C00
 9171              	.LASF223:
 9172 01fa 46696C74 		.ascii	"Filter_Manage_Num\000"
 9172      65725F4D 
 9172      616E6167 
 9172      655F4E75 
 9172      6D00
 9173              	.LASF165:
 9174 020c 4759636E 		.ascii	"GYcnt\000"
 9174      7400
 9175              	.LASF116:
 9176 0212 57696669 		.ascii	"Wifi_Fun\000"
 9176      5F46756E 
 9176      00
 9177              	.LASF218:
 9178 021b 56616C75 		.ascii	"Value_Tds1\000"
 9178      655F5464 
 9178      733100
 9179              	.LASF130:
 9180 0226 6C697563 		.ascii	"liucheng2\000"
 9180      68656E67 
 9180      3200
 9181              	.LASF40:
 9182 0230 74647331 		.ascii	"tds1sta\000"
 9182      73746100 
 9183              	.LASF213:
ARM GAS  C:\Users\ZHANGM~1\AppData\Local\Temp\cccEtK9g.s 			page 203


 9184 0238 706F7765 		.ascii	"poweroverfig\000"
 9184      726F7665 
 9184      72666967 
 9184      00
 9185              	.LASF215:
 9186 0245 6A736572 		.ascii	"jserrorcntfig\000"
 9186      726F7263 
 9186      6E746669 
 9186      6700
 9187              	.LASF109:
 9188 0253 4C585065 		.ascii	"LXPercent\000"
 9188      7263656E 
 9188      7400
 9189              	.LASF188:
 9190 025d 4C767869 		.ascii	"LvxinJishi\000"
 9190      6E4A6973 
 9190      686900
 9191              	.LASF73:
 9192 0268 4572726F 		.ascii	"Error_05_flag\000"
 9192      725F3035 
 9192      5F666C61 
 9192      6700
 9193              	.LASF80:
 9194 0276 736F7574 		.ascii	"south\000"
 9194      6800
 9195              	.LASF127:
 9196 027c 7374616E 		.ascii	"standflashfig\000"
 9196      64666C61 
 9196      73686669 
 9196      6700
 9197              	.LASF68:
 9198 028a 4572726F 		.ascii	"Error_00_flag\000"
 9198      725F3030 
 9198      5F666C61 
 9198      6700
 9199              	.LASF12:
 9200 0298 666C6F61 		.ascii	"float\000"
 9200      7400
 9201              	.LASF31:
 9202 029e 6E6F7761 		.ascii	"nowater\000"
 9202      74657200 
 9203              	.LASF197:
 9204 02a6 66617374 		.ascii	"faststa\000"
 9204      73746100 
 9205              	.LASF77:
 9206 02ae 776F726B 		.ascii	"workingsign\000"
 9206      696E6773 
 9206      69676E00 
 9207              	.LASF37:
 9208 02ba 73686F75 		.ascii	"shoudongbystabak\000"
 9208      646F6E67 
 9208      62797374 
 9208      6162616B 
 9208      00
 9209              	.LASF222:
 9210 02cb 4572726F 		.ascii	"Error_Counter\000"
 9210      725F436F 
ARM GAS  C:\Users\ZHANGM~1\AppData\Local\Temp\cccEtK9g.s 			page 204


 9210      756E7465 
 9210      7200
 9211              	.LASF137:
 9212 02d9 44595744 		.ascii	"DYWDcnt1\000"
 9212      636E7431 
 9212      00
 9213              	.LASF262:
 9214 02e2 55617274 		.ascii	"Uart_Exception_Handl\000"
 9214      5F457863 
 9214      65707469 
 9214      6F6E5F48 
 9214      616E646C 
 9215              	.LASF151:
 9216 02f7 4C58585A 		.ascii	"LXXZstandcnt\000"
 9216      7374616E 
 9216      64636E74 
 9216      00
 9217              	.LASF35:
 9218 0304 6C767869 		.ascii	"lvxingxzsta\000"
 9218      6E67787A 
 9218      73746100 
 9219              	.LASF7:
 9220 0310 6C6F6E67 		.ascii	"long long unsigned int\000"
 9220      206C6F6E 
 9220      6720756E 
 9220      7369676E 
 9220      65642069 
 9221              	.LASF234:
 9222 0327 4B506572 		.ascii	"KPercent\000"
 9222      63656E74 
 9222      00
 9223              	.LASF230:
 9224 0330 74656D70 		.ascii	"templvxin\000"
 9224      6C767869 
 9224      6E00
 9225              	.LASF185:
 9226 033a 6A696E67 		.ascii	"jingshuiliang\000"
 9226      73687569 
 9226      6C69616E 
 9226      6700
 9227              	.LASF224:
 9228 0348 46696C74 		.ascii	"Filter_Full_Data_Buf\000"
 9228      65725F46 
 9228      756C6C5F 
 9228      44617461 
 9228      5F427566 
 9229              	.LASF32:
 9230 035d 73746F70 		.ascii	"stopzs\000"
 9230      7A7300
 9231              	.LASF56:
 9232 0364 7A686973 		.ascii	"zhishui\000"
 9232      68756900 
 9233              	.LASF55:
 9234 036c 7A69646F 		.ascii	"zidongbysta\000"
 9234      6E676279 
 9234      73746100 
 9235              	.LASF49:
ARM GAS  C:\Users\ZHANGM~1\AppData\Local\Temp\cccEtK9g.s 			page 205


 9236 0378 6C786677 		.ascii	"lxfw\000"
 9236      00
 9237              	.LASF61:
 9238 037d 7464735F 		.ascii	"tds_01_disp\000"
 9238      30315F64 
 9238      69737000 
 9239              	.LASF229:
 9240 0389 4C656450 		.ascii	"LedPannelBuf\000"
 9240      616E6E65 
 9240      6C427566 
 9240      00
 9241              	.LASF170:
 9242 0396 4B666967 		.ascii	"Kfig\000"
 9242      00
 9243              	.LASF203:
 9244 039b 66617374 		.ascii	"fastjishicnt\000"
 9244      6A697368 
 9244      69636E74 
 9244      00
 9245              	.LASF113:
 9246 03a8 6A697869 		.ascii	"jixing\000"
 9246      6E6700
 9247              	.LASF84:
 9248 03af 6572726F 		.ascii	"errorsign\000"
 9248      72736967 
 9248      6E00
 9249              	.LASF140:
 9250 03b9 4E426669 		.ascii	"NBfig\000"
 9250      6700
 9251              	.LASF123:
 9252 03bf 42555A66 		.ascii	"BUZfkg\000"
 9252      6B6700
 9253              	.LASF192:
 9254 03c6 4A505F4E 		.ascii	"JP_N\000"
 9254      00
 9255              	.LASF216:
 9256 03cb 73687569 		.ascii	"shuibumanfig\000"
 9256      62756D61 
 9256      6E666967 
 9256      00
 9257              	.LASF176:
 9258 03d8 6C767869 		.ascii	"lvxinbaojingcnt\000"
 9258      6E62616F 
 9258      6A696E67 
 9258      636E7400 
 9259              	.LASF180:
 9260 03e8 576F726B 		.ascii	"WorkFlag\000"
 9260      466C6167 
 9260      00
 9261              	.LASF59:
 9262 03f1 75617274 		.ascii	"uart_1_tx\000"
 9262      5F315F74 
 9262      7800
 9263              	.LASF256:
 9264 03fb 4B325F52 		.ascii	"K2_Read\000"
 9264      65616400 
 9265              	.LASF47:
ARM GAS  C:\Users\ZHANGM~1\AppData\Local\Temp\cccEtK9g.s 			page 206


 9266 0403 66617374 		.ascii	"fastfig\000"
 9266      66696700 
 9267              	.LASF195:
 9268 040b 4D505F4E 		.ascii	"MP_N\000"
 9268      00
 9269              	.LASF142:
 9270 0410 4E425072 		.ascii	"NBPressStart\000"
 9270      65737353 
 9270      74617274 
 9270      00
 9271              	.LASF172:
 9272 041d 4D666967 		.ascii	"Mfig\000"
 9272      00
 9273              	.LASF156:
 9274 0422 7374616E 		.ascii	"standflashcnt\000"
 9274      64666C61 
 9274      7368636E 
 9274      7400
 9275              	.LASF204:
 9276 0430 576F726B 		.ascii	"WorkFlag01_Dispcnt\000"
 9276      466C6167 
 9276      30315F44 
 9276      69737063 
 9276      6E7400
 9277              	.LASF75:
 9278 0443 4572726F 		.ascii	"Error_07_flag\000"
 9278      725F3037 
 9278      5F666C61 
 9278      6700
 9279              	.LASF82:
 9280 0451 636C6561 		.ascii	"cleaning\000"
 9280      6E696E67 
 9280      00
 9281              	.LASF241:
 9282 045a 74656D70 		.ascii	"temph\000"
 9282      6800
 9283              	.LASF88:
 9284 0460 6A666C61 		.ascii	"jflash\000"
 9284      736800
 9285              	.LASF243:
 9286 0467 74656D70 		.ascii	"tempk\000"
 9286      6B00
 9287              	.LASF244:
 9288 046d 74656D70 		.ascii	"templ\000"
 9288      6C00
 9289              	.LASF245:
 9290 0473 74656D70 		.ascii	"tempm\000"
 9290      6D00
 9291              	.LASF225:
 9292 0479 46696C74 		.ascii	"Filter_Changed_Num\000"
 9292      65725F43 
 9292      68616E67 
 9292      65645F4E 
 9292      756D00
 9293              	.LASF228:
 9294 048c 5431306D 		.ascii	"T10msSign\000"
 9294      73536967 
ARM GAS  C:\Users\ZHANGM~1\AppData\Local\Temp\cccEtK9g.s 			page 207


 9294      6E00
 9295              	.LASF240:
 9296 0496 74656D70 		.ascii	"temps\000"
 9296      7300
 9297              	.LASF70:
 9298 049c 4572726F 		.ascii	"Error_02_flag\000"
 9298      725F3032 
 9298      5F666C61 
 9298      6700
 9299              	.LASF91:
 9300 04aa 6D666C61 		.ascii	"mflash\000"
 9300      736800
 9301              	.LASF102:
 9302 04b1 6B6C7678 		.ascii	"klvxinflash\000"
 9302      696E666C 
 9302      61736800 
 9303              	.LASF62:
 9304 04bd 77617465 		.ascii	"water_consumption_02_disp\000"
 9304      725F636F 
 9304      6E73756D 
 9304      7074696F 
 9304      6E5F3032 
 9305              	.LASF158:
 9306 04d7 7A696A69 		.ascii	"zijianstacnt\000"
 9306      616E7374 
 9306      61636E74 
 9306      00
 9307              	.LASF186:
 9308 04e4 45456A69 		.ascii	"EEjingshuiliang\000"
 9308      6E677368 
 9308      75696C69 
 9308      616E6700 
 9309              	.LASF14:
 9310 04f4 63686172 		.ascii	"char\000"
 9310      00
 9311              	.LASF198:
 9312 04f9 79616E73 		.ascii	"yanshicnt\000"
 9312      6869636E 
 9312      7400
 9313              	.LASF112:
 9314 0503 71756573 		.ascii	"queshui_alm\000"
 9314      6875695F 
 9314      616C6D00 
 9315              	.LASF159:
 9316 050f 6A697869 		.ascii	"jixingnumber\000"
 9316      6E676E75 
 9316      6D626572 
 9316      00
 9317              	.LASF226:
 9318 051c 42746E44 		.ascii	"BtnData1\000"
 9318      61746131 
 9318      00
 9319              	.LASF227:
 9320 0525 42746E44 		.ascii	"BtnData2\000"
 9320      61746132 
 9320      00
 9321              	.LASF10:
ARM GAS  C:\Users\ZHANGM~1\AppData\Local\Temp\cccEtK9g.s 			page 208


 9322 052e 75696E74 		.ascii	"uint16\000"
 9322      313600
 9323              	.LASF194:
 9324 0535 4C505F4E 		.ascii	"LP_N\000"
 9324      00
 9325              	.LASF45:
 9326 053a 706F7765 		.ascii	"poweroff\000"
 9326      726F6666 
 9326      00
 9327              	.LASF48:
 9328 0543 6C78787A 		.ascii	"lxxz\000"
 9328      00
 9329              	.LASF87:
 9330 0548 68666C61 		.ascii	"hflash\000"
 9330      736800
 9331              	.LASF122:
 9332 054f 65656669 		.ascii	"eefig\000"
 9332      6700
 9333              	.LASF108:
 9334 0555 7374616E 		.ascii	"stand\000"
 9334      6400
 9335              	.LASF166:
 9336 055b 67796675 		.ascii	"gyfullcnt\000"
 9336      6C6C636E 
 9336      7400
 9337              	.LASF248:
 9338 0565 53656E64 		.ascii	"Send_Interval_Counter\000"
 9338      5F496E74 
 9338      65727661 
 9338      6C5F436F 
 9338      756E7465 
 9339              	.LASF6:
 9340 057b 6C6F6E67 		.ascii	"long long int\000"
 9340      206C6F6E 
 9340      6720696E 
 9340      7400
 9341              	.LASF268:
 9342 0589 2E5C6675 		.ascii	".\\fun.c\000"
 9342      6E2E6300 
 9343              	.LASF144:
 9344 0591 6C58585A 		.ascii	"lXXZcnt_fig\000"
 9344      636E745F 
 9344      66696700 
 9345              	.LASF266:
 9346 059d 4B315F57 		.ascii	"K1_Write\000"
 9346      72697465 
 9346      00
 9347              	.LASF249:
 9348 05a6 436F756E 		.ascii	"Counter_Key\000"
 9348      7465725F 
 9348      4B657900 
 9349              	.LASF44:
 9350 05b2 706F7765 		.ascii	"poweron\000"
 9350      726F6E00 
 9351              	.LASF124:
 9352 05ba 71757368 		.ascii	"qushui_BUZcnt\000"
 9352      75695F42 
ARM GAS  C:\Users\ZHANGM~1\AppData\Local\Temp\cccEtK9g.s 			page 209


 9352      555A636E 
 9352      7400
 9353              	.LASF101:
 9354 05c8 6A6C7678 		.ascii	"jlvxinflash\000"
 9354      696E666C 
 9354      61736800 
 9355              	.LASF85:
 9356 05d4 6A736C6C 		.ascii	"jsll\000"
 9356      00
 9357              	.LASF232:
 9358 05d9 48506572 		.ascii	"HPercent\000"
 9358      63656E74 
 9358      00
 9359              	.LASF181:
 9360 05e2 576F726B 		.ascii	"WorkFlag01\000"
 9360      466C6167 
 9360      303100
 9361              	.LASF179:
 9362 05ed 576F726B 		.ascii	"WorkFlag02\000"
 9362      466C6167 
 9362      303200
 9363              	.LASF133:
 9364 05f8 7374616E 		.ascii	"standstar_fig\000"
 9364      64737461 
 9364      725F6669 
 9364      6700
 9365              	.LASF72:
 9366 0606 4572726F 		.ascii	"Error_04_flag\000"
 9366      725F3034 
 9366      5F666C61 
 9366      6700
 9367              	.LASF168:
 9368 0614 48666967 		.ascii	"Hfig\000"
 9368      00
 9369              	.LASF221:
 9370 0619 56616C75 		.ascii	"Value_Flow\000"
 9370      655F466C 
 9370      6F7700
 9371              	.LASF220:
 9372 0624 56616C75 		.ascii	"Value_T\000"
 9372      655F5400 
 9373              	.LASF11:
 9374 062c 75696E74 		.ascii	"uint32\000"
 9374      333200
 9375              	.LASF51:
 9376 0633 6C78787A 		.ascii	"lxxzwf\000"
 9376      776600
 9377              	.LASF58:
 9378 063a 75617274 		.ascii	"uart_0_tx\000"
 9378      5F305F74 
 9378      7800
 9379              	.LASF210:
 9380 0644 506F7765 		.ascii	"PowerOnCnt00\000"
 9380      724F6E43 
 9380      6E743030 
 9380      00
 9381              	.LASF211:
ARM GAS  C:\Users\ZHANGM~1\AppData\Local\Temp\cccEtK9g.s 			page 210


 9382 0651 506F7765 		.ascii	"PowerOnCnt01\000"
 9382      724F6E43 
 9382      6E743031 
 9382      00
 9383              	.LASF160:
 9384 065e 6F6E6568 		.ascii	"onehourcnt\000"
 9384      6F757263 
 9384      6E7400
 9385              	.LASF81:
 9386 0669 6E6F7274 		.ascii	"north\000"
 9386      6800
 9387              	.LASF207:
 9388 066f 4C765869 		.ascii	"LvXinNum1\000"
 9388      6E4E756D 
 9388      3100
 9389              	.LASF182:
 9390 0679 53776974 		.ascii	"Switch_Data\000"
 9390      63685F44 
 9390      61746100 
 9391              	.LASF259:
 9392 0685 43794465 		.ascii	"CyDelayUs\000"
 9392      6C617955 
 9392      7300
 9393              	.LASF38:
 9394 068f 79616E73 		.ascii	"yanshista\000"
 9394      68697374 
 9394      6100
 9395              	.LASF238:
 9396 0699 44697346 		.ascii	"DisFlag\000"
 9396      6C616700 
 9397              	.LASF39:
 9398 06a1 74647330 		.ascii	"tds0sta\000"
 9398      73746100 
 9399              	.LASF27:
 9400 06a9 6F70656E 		.ascii	"open_value_sendingcmp\000"
 9400      5F76616C 
 9400      75655F73 
 9400      656E6469 
 9400      6E67636D 
 9401              	.LASF152:
 9402 06bf 6F6E656D 		.ascii	"onemincnt\000"
 9402      696E636E 
 9402      7400
 9403              	.LASF139:
 9404 06c9 4E625072 		.ascii	"NbPressCnt\000"
 9404      65737343 
 9404      6E7400
 9405              	.LASF136:
 9406 06d4 44595744 		.ascii	"DYWDcnt\000"
 9406      636E7400 
 9407              	.LASF106:
 9408 06dc 42757A7A 		.ascii	"Buzzer_Fun\000"
 9408      65725F46 
 9408      756E00
 9409              	.LASF54:
 9410 06e7 73686F75 		.ascii	"shoucibysta\000"
 9410      63696279 
ARM GAS  C:\Users\ZHANGM~1\AppData\Local\Temp\cccEtK9g.s 			page 211


 9410      73746100 
 9411              	.LASF235:
 9412 06f3 4C506572 		.ascii	"LPercent\000"
 9412      63656E74 
 9412      00
 9413              	.LASF141:
 9414 06fc 4E425072 		.ascii	"NBPressCnt\000"
 9414      65737343 
 9414      6E7400
 9415              	.LASF138:
 9416 0707 506F7765 		.ascii	"PowerOnOneHourCnt\000"
 9416      724F6E4F 
 9416      6E65486F 
 9416      7572436E 
 9416      7400
 9417              	.LASF155:
 9418 0719 65726F6F 		.ascii	"eroorcnt\000"
 9418      72636E74 
 9418      00
 9419              	.LASF153:
 9420 0722 4E426D69 		.ascii	"NBmint\000"
 9420      6E7400
 9421              	.LASF60:
 9422 0729 7464735F 		.ascii	"tds_00_disp\000"
 9422      30305F64 
 9422      69737000 
 9423              	.LASF119:
 9424 0735 42757A7A 		.ascii	"BuzzerNum\000"
 9424      65724E75 
 9424      6D00
 9425              	.LASF134:
 9426 073f 44595744 		.ascii	"DYWDfig\000"
 9426      66696700 
 9427              	.LASF217:
 9428 0747 56616C75 		.ascii	"Value_Tds0\000"
 9428      655F5464 
 9428      733000
 9429              	.LASF105:
 9430 0752 666C6173 		.ascii	"flashsta\000"
 9430      68737461 
 9430      00
 9431              	.LASF98:
 9432 075b 6572726F 		.ascii	"errorsignflash\000"
 9432      72736967 
 9432      6E666C61 
 9432      736800
 9433              	.LASF209:
 9434 076a 5374616E 		.ascii	"StandByCnt\000"
 9434      64427943 
 9434      6E7400
 9435              	.LASF237:
 9436 0775 466C6173 		.ascii	"FlashCnt\000"
 9436      68436E74 
 9436      00
 9437              	.LASF43:
 9438 077e 6B756169 		.ascii	"kuaijiansta\000"
 9438      6A69616E 
ARM GAS  C:\Users\ZHANGM~1\AppData\Local\Temp\cccEtK9g.s 			page 212


 9438      73746100 
 9439              	.LASF2:
 9440 078a 73686F72 		.ascii	"short int\000"
 9440      7420696E 
 9440      7400
 9441              	.LASF231:
 9442 0794 53506572 		.ascii	"SPercent\000"
 9442      63656E74 
 9442      00
 9443              	.LASF257:
 9444 079d 4A535F52 		.ascii	"JS_Read\000"
 9444      65616400 
 9445              	.LASF196:
 9446 07a5 5464735F 		.ascii	"Tds_Ack_Timer\000"
 9446      41636B5F 
 9446      54696D65 
 9446      7200
 9447              	.LASF4:
 9448 07b3 6C6F6E67 		.ascii	"long int\000"
 9448      20696E74 
 9448      00
 9449              	.LASF66:
 9450 07bc 6D61696E 		.ascii	"maintain\000"
 9450      7461696E 
 9450      00
 9451              	.LASF254:
 9452 07c5 4B315F52 		.ascii	"K1_Read\000"
 9452      65616400 
 9453              	.LASF169:
 9454 07cd 4A666967 		.ascii	"Jfig\000"
 9454      00
 9455              	.LASF199:
 9456 07d2 79616E73 		.ascii	"yanshifig\000"
 9456      68696669 
 9456      6700
 9457              	.LASF269:
 9458 07dc 453A5C63 		.ascii	"E:\\code\\wifi\\1.6\\UartBootloader\\UART_Bootloade"
 9458      6F64655C 
 9458      77696669 
 9458      5C312E36 
 9458      5C556172 
 9459 080a 725C5541 		.ascii	"r\\UART_Bootloadable.cydsn\000"
 9459      52545F42 
 9459      6F6F746C 
 9459      6F616461 
 9459      626C652E 
 9460              	.LASF110:
 9461 0824 6C767869 		.ascii	"lvxin_panduan\000"
 9461      6E5F7061 
 9461      6E647561 
 9461      6E00
 9462              	.LASF29:
 9463 0832 706F6C6C 		.ascii	"poll_24H_value_sendingcmp\000"
 9463      5F323448 
 9463      5F76616C 
 9463      75655F73 
 9463      656E6469 
ARM GAS  C:\Users\ZHANGM~1\AppData\Local\Temp\cccEtK9g.s 			page 213


 9464              	.LASF128:
 9465 084c 7374616E 		.ascii	"standkeyfig\000"
 9465      646B6579 
 9465      66696700 
 9466              	.LASF146:
 9467 0858 57696669 		.ascii	"WifiPressCnt\000"
 9467      50726573 
 9467      73436E74 
 9467      00
 9468              	.LASF212:
 9469 0865 56323463 		.ascii	"V24cnt\000"
 9469      6E7400
 9470              	.LASF190:
 9471 086c 53505F4E 		.ascii	"SP_N\000"
 9471      00
 9472              	.LASF115:
 9473 0871 576F726B 		.ascii	"Work_Init_Fun\000"
 9473      5F496E69 
 9473      745F4675 
 9473      6E00
 9474              	.LASF69:
 9475 087f 4572726F 		.ascii	"Error_01_flag\000"
 9475      725F3031 
 9475      5F666C61 
 9475      6700
 9476              	.LASF90:
 9477 088d 6C666C61 		.ascii	"lflash\000"
 9477      736800
 9478              	.LASF205:
 9479 0894 45456779 		.ascii	"EEgyfullcnt\000"
 9479      66756C6C 
 9479      636E7400 
 9480              	.LASF17:
 9481 08a0 787A7072 		.ascii	"xzpressstart\000"
 9481      65737373 
 9481      74617274 
 9481      00
 9482              	.LASF16:
 9483 08ad 73746172 		.ascii	"start\000"
 9483      7400
 9484              	.LASF53:
 9485 08b3 7A696A69 		.ascii	"zijiansta\000"
 9485      616E7374 
 9485      6100
 9486              	.LASF147:
 9487 08bd 63686F6E 		.ascii	"chongxifig\000"
 9487      67786966 
 9487      696700
 9488              	.LASF252:
 9489 08c8 44595744 		.ascii	"DYWD_Read\000"
 9489      5F526561 
 9489      6400
 9490              	.LASF114:
 9491 08d2 696E6974 		.ascii	"init\000"
 9491      00
 9492              	.LASF15:
 9493 08d7 73697A65 		.ascii	"sizetype\000"
ARM GAS  C:\Users\ZHANGM~1\AppData\Local\Temp\cccEtK9g.s 			page 214


 9493      74797065 
 9493      00
 9494              	.LASF206:
 9495 08e0 4C765869 		.ascii	"LvXinNum\000"
 9495      6E4E756D 
 9495      00
 9496              	.LASF5:
 9497 08e9 6C6F6E67 		.ascii	"long unsigned int\000"
 9497      20756E73 
 9497      69676E65 
 9497      6420696E 
 9497      7400
 9498              	.LASF175:
 9499 08fb 77617465 		.ascii	"waterfullfig\000"
 9499      7266756C 
 9499      6C666967 
 9499      00
 9500              	.LASF251:
 9501 0908 50574D5F 		.ascii	"PWM_Stop\000"
 9501      53746F70 
 9501      00
 9502              	.LASF174:
 9503 0911 47596669 		.ascii	"GYfig1\000"
 9503      673100
 9504              	.LASF150:
 9505 0918 4E427374 		.ascii	"NBstandcnt\000"
 9505      616E6463 
 9505      6E7400
 9506              	.LASF126:
 9507 0923 42555A71 		.ascii	"BUZqueshuifkg\000"
 9507      75657368 
 9507      7569666B 
 9507      6700
 9508              	.LASF265:
 9509 0931 50726F63 		.ascii	"Process_From_Tdsboard_Data\000"
 9509      6573735F 
 9509      46726F6D 
 9509      5F546473 
 9509      626F6172 
 9510              	.LASF154:
 9511 094c 6A696E67 		.ascii	"jingshuicnt\000"
 9511      73687569 
 9511      636E7400 
 9512              	.LASF255:
 9513 0958 43585F52 		.ascii	"CX_Read\000"
 9513      65616400 
 9514              	.LASF129:
 9515 0960 6C697563 		.ascii	"liucheng1\000"
 9515      68656E67 
 9515      3100
 9516              	.LASF52:
 9517 096a 77696669 		.ascii	"wifiset\000"
 9517      73657400 
 9518              	.LASF131:
 9519 0972 6C697563 		.ascii	"liucheng3\000"
 9519      68656E67 
 9519      3300
ARM GAS  C:\Users\ZHANGM~1\AppData\Local\Temp\cccEtK9g.s 			page 215


 9520              	.LASF132:
 9521 097c 6C697563 		.ascii	"liucheng4\000"
 9521      68656E67 
 9521      3400
 9522              	.LASF214:
 9523 0986 6A736572 		.ascii	"jserrorcnt\000"
 9523      726F7263 
 9523      6E7400
 9524              	.LASF1:
 9525 0991 756E7369 		.ascii	"unsigned char\000"
 9525      676E6564 
 9525      20636861 
 9525      7200
 9526              	.LASF74:
 9527 099f 4572726F 		.ascii	"Error_06_flag\000"
 9527      725F3036 
 9527      5F666C61 
 9527      6700
 9528              	.LASF162:
 9529 09ad 7A696A69 		.ascii	"zijiandisplayfig\000"
 9529      616E6469 
 9529      73706C61 
 9529      79666967 
 9529      00
 9530              	.LASF67:
 9531 09be 77616974 		.ascii	"waiting\000"
 9531      696E6700 
 9532              	.LASF120:
 9533 09c6 42757A7A 		.ascii	"BuzzerCnt\000"
 9533      6572436E 
 9533      7400
 9534              	.LASF219:
 9535 09d0 56616C75 		.ascii	"Value_Loushui_Ad\000"
 9535      655F4C6F 
 9535      75736875 
 9535      695F4164 
 9535      00
 9536              	.LASF208:
 9537 09e1 636C6561 		.ascii	"cleareepromArrayflag\000"
 9537      72656570 
 9537      726F6D41 
 9537      72726179 
 9537      666C6167 
 9538              	.LASF161:
 9539 09f6 6A697368 		.ascii	"jishihour\000"
 9539      69686F75 
 9539      7200
 9540              	.LASF171:
 9541 0a00 4C666967 		.ascii	"Lfig\000"
 9541      00
 9542              	.LASF261:
 9543 0a05 636C6561 		.ascii	"clean_ram\000"
 9543      6E5F7261 
 9543      6D00
 9544              	.LASF148:
 9545 0a0f 50726573 		.ascii	"PressFlag\000"
 9545      73466C61 
ARM GAS  C:\Users\ZHANGM~1\AppData\Local\Temp\cccEtK9g.s 			page 216


 9545      6700
 9546              	.LASF36:
 9547 0a19 73686F75 		.ascii	"shoudongbysta\000"
 9547      646F6E67 
 9547      62797374 
 9547      6100
 9548              	.LASF78:
 9549 0a27 6F75746F 		.ascii	"outofwater\000"
 9549      66776174 
 9549      657200
 9550              	.LASF233:
 9551 0a32 4A506572 		.ascii	"JPercent\000"
 9551      63656E74 
 9551      00
 9552              	.LASF258:
 9553 0a3b 4C6F6164 		.ascii	"Load_Error\000"
 9553      5F457272 
 9553      6F7200
 9554              	.LASF193:
 9555 0a46 4B505F4E 		.ascii	"KP_N\000"
 9555      00
 9556              	.LASF46:
 9557 0a4b 7374616E 		.ascii	"standbysta\000"
 9557      64627973 
 9557      746100
 9558              	.LASF157:
 9559 0a56 7374616E 		.ascii	"standkeycnt\000"
 9559      646B6579 
 9559      636E7400 
 9560              	.LASF96:
 9561 0a62 6F75746F 		.ascii	"outofwatersignflash\000"
 9561      66776174 
 9561      65727369 
 9561      676E666C 
 9561      61736800 
 9562              	.LASF187:
 9563 0a76 4C69616E 		.ascii	"LianXuJiShi\000"
 9563      58754A69 
 9563      53686900 
 9564              	.LASF173:
 9565 0a82 4759636E 		.ascii	"GYcnt1\000"
 9565      743100
 9566              	.LASF163:
 9567 0a89 776F726B 		.ascii	"workstartfig\000"
 9567      73746172 
 9567      74666967 
 9567      00
 9568              	.LASF167:
 9569 0a96 53666967 		.ascii	"Sfig\000"
 9569      00
 9570              	.LASF0:
 9571 0a9b 7369676E 		.ascii	"signed char\000"
 9571      65642063 
 9571      68617200 
 9572              	.LASF111:
 9573 0aa7 6572726F 		.ascii	"error_alm\000"
 9573      725F616C 
ARM GAS  C:\Users\ZHANGM~1\AppData\Local\Temp\cccEtK9g.s 			page 217


 9573      6D00
 9574              	.LASF100:
 9575 0ab1 686C7678 		.ascii	"hlvxinflash\000"
 9575      696E666C 
 9575      61736800 
 9576              	.LASF3:
 9577 0abd 73686F72 		.ascii	"short unsigned int\000"
 9577      7420756E 
 9577      7369676E 
 9577      65642069 
 9577      6E7400
 9578              	.LASF93:
 9579 0ad0 77696669 		.ascii	"wifilinkingsign\000"
 9579      6C696E6B 
 9579      696E6773 
 9579      69676E00 
 9580              	.LASF149:
 9581 0ae0 63686F6E 		.ascii	"chongxicnt\000"
 9581      67786963 
 9581      6E7400
 9582              	.LASF267:
 9583 0aeb 474E5520 		.ascii	"GNU C 4.7.3 20130312 (release) [ARM/embedded-4_7-br"
 9583      4320342E 
 9583      372E3320 
 9583      32303133 
 9583      30333132 
 9584 0b1e 616E6368 		.ascii	"anch revision 196615]\000"
 9584      20726576 
 9584      6973696F 
 9584      6E203139 
 9584      36363135 
 9585              	.LASF107:
 9586 0b34 54696D65 		.ascii	"Timer_Isr_Fun\000"
 9586      725F4973 
 9586      725F4675 
 9586      6E00
 9587              	.LASF264:
 9588 0b42 50726F63 		.ascii	"Process_From_Wifi_Data\000"
 9588      6573735F 
 9588      46726F6D 
 9588      5F576966 
 9588      695F4461 
 9589              	.LASF183:
 9590 0b59 576F726B 		.ascii	"Work_State\000"
 9590      5F537461 
 9590      746500
 9591              	.LASF99:
 9592 0b64 736C7678 		.ascii	"slvxinflash\000"
 9592      696E666C 
 9592      61736800 
 9593              	.LASF9:
 9594 0b70 75696E74 		.ascii	"uint8\000"
 9594      3800
 9595              	.LASF13:
 9596 0b76 646F7562 		.ascii	"double\000"
 9596      6C6500
 9597              	.LASF178:
ARM GAS  C:\Users\ZHANGM~1\AppData\Local\Temp\cccEtK9g.s 			page 218


 9598 0b7d 4572726F 		.ascii	"ErrorFlag\000"
 9598      72466C61 
 9598      6700
 9599              	.LASF270:
 9600 0b87 4B325F57 		.ascii	"K2_Write\000"
 9600      72697465 
 9600      00
 9601              	.LASF118:
 9602 0b90 42757A7A 		.ascii	"BuzzerFlag\000"
 9602      6572466C 
 9602      616700
 9603              	.LASF92:
 9604 0b9b 77696669 		.ascii	"wifierror\000"
 9604      6572726F 
 9604      7200
 9605              	.LASF263:
 9606 0ba5 53656E64 		.ascii	"Send_To_WifiUart\000"
 9606      5F546F5F 
 9606      57696669 
 9606      55617274 
 9606      00
 9607              	.LASF189:
 9608 0bb6 5464735F 		.ascii	"Tds_Dispcnt\000"
 9608      44697370 
 9608      636E7400 
 9609              	.LASF247:
 9610 0bc2 536D6172 		.ascii	"SmarkLink_State\000"
 9610      6B4C696E 
 9610      6B5F5374 
 9610      61746500 
 9611              	.LASF242:
 9612 0bd2 74656D70 		.ascii	"tempj\000"
 9612      6A00
 9613              	.LASF42:
 9614 0bd8 616C6C77 		.ascii	"allwatersta\000"
 9614      61746572 
 9614      73746100 
 9615              	.LASF117:
 9616 0be4 576F726B 		.ascii	"Work_Fun\000"
 9616      5F46756E 
 9616      00
 9617              	.LASF63:
 9618 0bed 67616F79 		.ascii	"gaoya_flag\000"
 9618      615F666C 
 9618      616700
 9619              	.LASF104:
 9620 0bf8 6D6C7678 		.ascii	"mlvxinflash\000"
 9620      696E666C 
 9620      61736800 
 9621              		.ident	"GCC: (GNU Tools for ARM Embedded Processors) 4.7.3 20130312 (release) [ARM/embedded-4_7-br
