ARM GAS  C:\Users\ZHANGM~1\AppData\Local\Temp\ccrd4w1B.s 			page 1


   1              		.cpu cortex-m0
   2              		.fpu softvfp
   3              		.eabi_attribute 20, 1
   4              		.eabi_attribute 21, 1
   5              		.eabi_attribute 23, 3
   6              		.eabi_attribute 24, 1
   7              		.eabi_attribute 25, 1
   8              		.eabi_attribute 26, 1
   9              		.eabi_attribute 30, 4
  10              		.eabi_attribute 34, 0
  11              		.eabi_attribute 18, 4
  12              		.code	16
  13              		.file	"main.c"
  14              		.text
  15              	.Ltext0:
  16              		.cfi_sections	.debug_frame
  17              		.section	.text.UART_ISR_1_FUN,"ax",%progbits
  18              		.align	1
  19              		.global	UART_ISR_1_FUN
  20              		.code	16
  21              		.thumb_func
  22              		.type	UART_ISR_1_FUN, %function
  23              	UART_ISR_1_FUN:
  24              	.LFB48:
  25              		.file 1 ".\\main.c"
   1:.\main.c      **** /* ========================================
   2:.\main.c      ****  *
   3:.\main.c      ****  * Copyright YOUR COMPANY, THE YEAR
   4:.\main.c      ****  * All Rights Reserved
   5:.\main.c      ****  * UNPUBLISHED, LICENSED SOFTWARE.
   6:.\main.c      ****  *
   7:.\main.c      ****  * CONFIDENTIAL AND PROPRIETARY INFORMATION
   8:.\main.c      ****  * WHICH IS THE PROPERTY OF your company.
   9:.\main.c      ****  *
  10:.\main.c      ****  * ========================================
  11:.\main.c      **** */
  12:.\main.c      **** 
  13:.\main.c      **** #define _MAIN_
  14:.\main.c      **** #include <project.h>
  15:.\main.c      **** #include "uart_0.c"
  16:.\main.c      **** #include "uart_1.c"
  17:.\main.c      **** #include "config.h"
  18:.\main.c      **** 
  19:.\main.c      **** uint8 UartRx,BootloaderSign;
  20:.\main.c      **** uint32 Dly,Dly1;
  21:.\main.c      **** uint8 NbPressCnt,NBfig,NBPressCnt,NBPressStart,LXXZOUT_fig,lXXZcnt_fig;//ÂçóÂåóËÆ°Êï∞,Áº∫Ê∞¥Ê†áÂøó,
  22:.\main.c      **** uint16 LvxinJishi[12];
  23:.\main.c      **** uint8 BUZfkg,qushui_BUZcnt,BUZfkgtemp,BUZqueshuifkg,standflashfig,standkeyfig;
  24:.\main.c      **** uint8 dismode,V24fig,V24dengdai;
  25:.\main.c      **** uint8 V24Vcnt;
  26:.\main.c      **** uint8 Ack_Timer;              //Â∫îÁ≠îÊó∂Èó¥ËÆæÁΩÆ
  27:.\main.c      **** uint8 cleareepromArrayflag;
  28:.\main.c      ****  uint8 rxx;
  29:.\main.c      **** 
  30:.\main.c      **** 
  31:.\main.c      **** uint8 ch;
  32:.\main.c      **** CY_ISR(UART_ISR_0_FUN)
ARM GAS  C:\Users\ZHANGM~1\AppData\Local\Temp\ccrd4w1B.s 			page 2


  33:.\main.c      **** {
  34:.\main.c      ****     uint32 resource = UART_0_GetRxInterruptSource();
  35:.\main.c      ****     //UART_1_DisableInt();
  36:.\main.c      ****      if(resource & UART_0_INTR_RX_NOT_EMPTY)
  37:.\main.c      ****     {
  38:.\main.c      ****         WorkFlag.uart_0_tx=0;     
  39:.\main.c      **** 	    LoadUARTData((uint8)(UART_0_UartGetByte()& 0xFF));	
  40:.\main.c      **** 
  41:.\main.c      ****         WorkFlag.uart_0_tx=1;       
  42:.\main.c      ****       	UART_0_ClearRxInterruptSource(UART_0_INTR_RX_NOT_EMPTY);//Ê∏Ö‰∏≠Êñ≠Ê∫ê 
  43:.\main.c      ****         //DisFlag.sflash = 1;
  44:.\main.c      ****     }
  45:.\main.c      ****     // UART_1_EnableInt();
  46:.\main.c      ****     
  47:.\main.c      **** }
  48:.\main.c      **** /*******************************************************************************
  49:.\main.c      **** * Define Interrupt service routine and allocate an vector to the Interrupt
  50:.\main.c      **** ********************************************************************************/
  51:.\main.c      **** CY_ISR(UART_ISR_1_FUN)
  52:.\main.c      **** {
  26              		.loc 1 52 0
  27              		.cfi_startproc
  28 0000 F8B5     		push	{r3, r4, r5, r6, r7, lr}
  29              	.LCFI0:
  30              		.cfi_def_cfa_offset 24
  31              		.cfi_offset 3, -24
  32              		.cfi_offset 4, -20
  33              		.cfi_offset 5, -16
  34              		.cfi_offset 6, -12
  35              		.cfi_offset 7, -8
  36              		.cfi_offset 14, -4
  53:.\main.c      ****     uint32 resource = UART_1_GetRxInterruptSource();
  37              		.loc 1 53 0
  38 0002 0C4D     		ldr	r5, .L7
  54:.\main.c      ****   // UART_0_DisableInt();
  55:.\main.c      ****     if(resource & UART_1_INTR_RX_NOT_EMPTY)
  39              		.loc 1 55 0
  40 0004 0426     		mov	r6, #4
  53:.\main.c      ****     uint32 resource = UART_1_GetRxInterruptSource();
  41              		.loc 1 53 0
  42 0006 2B68     		ldr	r3, [r5]
  43              	.LVL0:
  44              		.loc 1 55 0
  45 0008 3342     		tst	r3, r6
  46 000a 11D0     		beq	.L1
  47              	.LBB20:
  48              	.LBB21:
  56:.\main.c      ****     {
  57:.\main.c      ****         WorkFlag.uart_1_tx=0;     
  49              		.loc 1 57 0
  50 000c 0A4C     		ldr	r4, .L7+4
  51 000e 4027     		mov	r7, #64
  52 0010 E078     		ldrb	r0, [r4, #3]
  53 0012 B843     		bic	r0, r7
  54 0014 E070     		strb	r0, [r4, #3]
  58:.\main.c      **** 	    LoadTDSBoardData((uint8)(UART_1_UartGetByte()& 0xFF));
  55              		.loc 1 58 0
ARM GAS  C:\Users\ZHANGM~1\AppData\Local\Temp\ccrd4w1B.s 			page 3


  56 0016 FFF7FEFF 		bl	UART_1_UartGetByte
  57              	.LVL1:
  58 001a C0B2     		uxtb	r0, r0
  59 001c FFF7FEFF 		bl	LoadTDSBoardData
  60              	.LVL2:
  59:.\main.c      ****         rxx=(uint8)(UART_1_UartGetByte()& 0xFF);
  61              		.loc 1 59 0
  62 0020 FFF7FEFF 		bl	UART_1_UartGetByte
  63              	.LVL3:
  64 0024 0549     		ldr	r1, .L7+8
  65 0026 0870     		strb	r0, [r1]
  60:.\main.c      **** 
  61:.\main.c      ****         WorkFlag.uart_1_tx=1;       
  66              		.loc 1 61 0
  67 0028 E278     		ldrb	r2, [r4, #3]
  68 002a 1743     		orr	r7, r2
  69 002c E770     		strb	r7, [r4, #3]
  62:.\main.c      ****       	UART_1_ClearRxInterruptSource(UART_1_INTR_RX_NOT_EMPTY);//Ê∏Ö‰∏≠Êñ≠Ê∫ê 
  70              		.loc 1 62 0
  71 002e 2E60     		str	r6, [r5]
  72              	.L1:
  73              	.LBE21:
  74              	.LBE20:
  63:.\main.c      ****                // DisFlag.hflash = 1;
  64:.\main.c      ****     }
  65:.\main.c      ****    //UART_0_EnableInt();
  66:.\main.c      **** }
  75              		.loc 1 66 0
  76              		@ sp needed for prologue
  77 0030 F8BD     		pop	{r3, r4, r5, r6, r7, pc}
  78              	.L8:
  79 0032 C046     		.align	2
  80              	.L7:
  81 0034 C00F0640 		.word	1074139072
  82 0038 00000000 		.word	WorkFlag
  83 003c 00000000 		.word	rxx
  84              		.cfi_endproc
  85              	.LFE48:
  86              		.size	UART_ISR_1_FUN, .-UART_ISR_1_FUN
  87              		.section	.text.UART_ISR_0_FUN,"ax",%progbits
  88              		.align	1
  89              		.global	UART_ISR_0_FUN
  90              		.code	16
  91              		.thumb_func
  92              		.type	UART_ISR_0_FUN, %function
  93              	UART_ISR_0_FUN:
  94              	.LFB47:
  33:.\main.c      **** {
  95              		.loc 1 33 0
  96              		.cfi_startproc
  97 0000 F8B5     		push	{r3, r4, r5, r6, r7, lr}
  98              	.LCFI1:
  99              		.cfi_def_cfa_offset 24
 100              		.cfi_offset 3, -24
 101              		.cfi_offset 4, -20
 102              		.cfi_offset 5, -16
 103              		.cfi_offset 6, -12
ARM GAS  C:\Users\ZHANGM~1\AppData\Local\Temp\ccrd4w1B.s 			page 4


 104              		.cfi_offset 7, -8
 105              		.cfi_offset 14, -4
  34:.\main.c      ****     uint32 resource = UART_0_GetRxInterruptSource();
 106              		.loc 1 34 0
 107 0002 0A4D     		ldr	r5, .L14
  36:.\main.c      ****      if(resource & UART_0_INTR_RX_NOT_EMPTY)
 108              		.loc 1 36 0
 109 0004 0426     		mov	r6, #4
  34:.\main.c      ****     uint32 resource = UART_0_GetRxInterruptSource();
 110              		.loc 1 34 0
 111 0006 2B68     		ldr	r3, [r5]
 112              	.LVL4:
  36:.\main.c      ****      if(resource & UART_0_INTR_RX_NOT_EMPTY)
 113              		.loc 1 36 0
 114 0008 3342     		tst	r3, r6
 115 000a 0DD0     		beq	.L9
 116              	.LBB24:
 117              	.LBB25:
  38:.\main.c      ****         WorkFlag.uart_0_tx=0;     
 118              		.loc 1 38 0
 119 000c 084C     		ldr	r4, .L14+4
 120 000e 2027     		mov	r7, #32
 121 0010 E078     		ldrb	r0, [r4, #3]
 122 0012 B843     		bic	r0, r7
 123 0014 E070     		strb	r0, [r4, #3]
  39:.\main.c      **** 	    LoadUARTData((uint8)(UART_0_UartGetByte()& 0xFF));	
 124              		.loc 1 39 0
 125 0016 FFF7FEFF 		bl	UART_0_UartGetByte
 126              	.LVL5:
 127 001a C0B2     		uxtb	r0, r0
 128 001c FFF7FEFF 		bl	LoadUARTData
 129              	.LVL6:
  41:.\main.c      ****         WorkFlag.uart_0_tx=1;       
 130              		.loc 1 41 0
 131 0020 E178     		ldrb	r1, [r4, #3]
 132 0022 0F43     		orr	r7, r1
 133 0024 E770     		strb	r7, [r4, #3]
  42:.\main.c      ****       	UART_0_ClearRxInterruptSource(UART_0_INTR_RX_NOT_EMPTY);//Ê∏Ö‰∏≠Êñ≠Ê∫ê 
 134              		.loc 1 42 0
 135 0026 2E60     		str	r6, [r5]
 136              	.L9:
 137              	.LBE25:
 138              	.LBE24:
  47:.\main.c      **** }
 139              		.loc 1 47 0
 140              		@ sp needed for prologue
 141 0028 F8BD     		pop	{r3, r4, r5, r6, r7, pc}
 142              	.L15:
 143 002a C046     		.align	2
 144              	.L14:
 145 002c C00F0740 		.word	1074204608
 146 0030 00000000 		.word	WorkFlag
 147              		.cfi_endproc
 148              	.LFE47:
 149              		.size	UART_ISR_0_FUN, .-UART_ISR_0_FUN
 150              		.section	.text.UART_0_Init,"ax",%progbits
 151              		.align	1
ARM GAS  C:\Users\ZHANGM~1\AppData\Local\Temp\ccrd4w1B.s 			page 5


 152              		.global	UART_0_Init
 153              		.code	16
 154              		.thumb_func
 155              		.type	UART_0_Init, %function
 156              	UART_0_Init:
 157              	.LFB33:
 158              		.file 2 "./Generated_Source/PSoC4/uart_0.c"
   1:./Generated_Source/PSoC4/uart_0.c **** /*******************************************************************************
   2:./Generated_Source/PSoC4/uart_0.c **** * File Name: UART_0.c
   3:./Generated_Source/PSoC4/uart_0.c **** * Version 1.20
   4:./Generated_Source/PSoC4/uart_0.c **** *
   5:./Generated_Source/PSoC4/uart_0.c **** * Description:
   6:./Generated_Source/PSoC4/uart_0.c **** *  This file provides the source code to the API for the SCB Component.
   7:./Generated_Source/PSoC4/uart_0.c **** *
   8:./Generated_Source/PSoC4/uart_0.c **** * Note:
   9:./Generated_Source/PSoC4/uart_0.c **** *
  10:./Generated_Source/PSoC4/uart_0.c **** *******************************************************************************
  11:./Generated_Source/PSoC4/uart_0.c **** * Copyright 2013-2014, Cypress Semiconductor Corporation.  All rights reserved.
  12:./Generated_Source/PSoC4/uart_0.c **** * You may use this file only in accordance with the license, terms, conditions,
  13:./Generated_Source/PSoC4/uart_0.c **** * disclaimers, and limitations in the end user license agreement accompanying
  14:./Generated_Source/PSoC4/uart_0.c **** * the software package with which this file was provided.
  15:./Generated_Source/PSoC4/uart_0.c **** *******************************************************************************/
  16:./Generated_Source/PSoC4/uart_0.c **** 
  17:./Generated_Source/PSoC4/uart_0.c **** #include "UART_0_PVT.h"
  18:./Generated_Source/PSoC4/uart_0.c **** 
  19:./Generated_Source/PSoC4/uart_0.c **** #if(UART_0_SCB_MODE_I2C_INC)
  20:./Generated_Source/PSoC4/uart_0.c ****     #include "UART_0_I2C_PVT.h"
  21:./Generated_Source/PSoC4/uart_0.c **** #endif /* (UART_0_SCB_MODE_I2C_INC) */
  22:./Generated_Source/PSoC4/uart_0.c **** 
  23:./Generated_Source/PSoC4/uart_0.c **** #if(UART_0_SCB_MODE_EZI2C_INC)
  24:./Generated_Source/PSoC4/uart_0.c ****     #include "UART_0_EZI2C_PVT.h"
  25:./Generated_Source/PSoC4/uart_0.c **** #endif /* (UART_0_SCB_MODE_EZI2C_INC) */
  26:./Generated_Source/PSoC4/uart_0.c **** 
  27:./Generated_Source/PSoC4/uart_0.c **** #if(UART_0_SCB_MODE_SPI_INC || UART_0_SCB_MODE_UART_INC)
  28:./Generated_Source/PSoC4/uart_0.c ****     #include "UART_0_SPI_UART_PVT.h"
  29:./Generated_Source/PSoC4/uart_0.c **** #endif /* (UART_0_SCB_MODE_SPI_INC || UART_0_SCB_MODE_UART_INC) */
  30:./Generated_Source/PSoC4/uart_0.c **** 
  31:./Generated_Source/PSoC4/uart_0.c **** 
  32:./Generated_Source/PSoC4/uart_0.c **** /***************************************
  33:./Generated_Source/PSoC4/uart_0.c **** *    Run Time Configuration Vars
  34:./Generated_Source/PSoC4/uart_0.c **** ***************************************/
  35:./Generated_Source/PSoC4/uart_0.c **** 
  36:./Generated_Source/PSoC4/uart_0.c **** /* Stores internal component configuration for unconfigured mode */
  37:./Generated_Source/PSoC4/uart_0.c **** #if(UART_0_SCB_MODE_UNCONFIG_CONST_CFG)
  38:./Generated_Source/PSoC4/uart_0.c ****     /* Common config vars */
  39:./Generated_Source/PSoC4/uart_0.c ****     uint8 UART_0_scbMode = UART_0_SCB_MODE_UNCONFIG;
  40:./Generated_Source/PSoC4/uart_0.c ****     uint8 UART_0_scbEnableWake;
  41:./Generated_Source/PSoC4/uart_0.c ****     uint8 UART_0_scbEnableIntr;
  42:./Generated_Source/PSoC4/uart_0.c **** 
  43:./Generated_Source/PSoC4/uart_0.c ****     /* I2C config vars */
  44:./Generated_Source/PSoC4/uart_0.c ****     uint8 UART_0_mode;
  45:./Generated_Source/PSoC4/uart_0.c ****     uint8 UART_0_acceptAddr;
  46:./Generated_Source/PSoC4/uart_0.c **** 
  47:./Generated_Source/PSoC4/uart_0.c ****     /* SPI/UART config vars */
  48:./Generated_Source/PSoC4/uart_0.c ****     volatile uint8 * UART_0_rxBuffer;
  49:./Generated_Source/PSoC4/uart_0.c ****     uint8  UART_0_rxDataBits;
  50:./Generated_Source/PSoC4/uart_0.c ****     uint32 UART_0_rxBufferSize;
ARM GAS  C:\Users\ZHANGM~1\AppData\Local\Temp\ccrd4w1B.s 			page 6


  51:./Generated_Source/PSoC4/uart_0.c **** 
  52:./Generated_Source/PSoC4/uart_0.c ****     volatile uint8 * UART_0_txBuffer;
  53:./Generated_Source/PSoC4/uart_0.c ****     uint8  UART_0_txDataBits;
  54:./Generated_Source/PSoC4/uart_0.c ****     uint32 UART_0_txBufferSize;
  55:./Generated_Source/PSoC4/uart_0.c **** 
  56:./Generated_Source/PSoC4/uart_0.c ****     /* EZI2C config vars */
  57:./Generated_Source/PSoC4/uart_0.c ****     uint8 UART_0_numberOfAddr;
  58:./Generated_Source/PSoC4/uart_0.c ****     uint8 UART_0_subAddrSize;
  59:./Generated_Source/PSoC4/uart_0.c **** #endif /* (UART_0_SCB_MODE_UNCONFIG_CONST_CFG) */
  60:./Generated_Source/PSoC4/uart_0.c **** 
  61:./Generated_Source/PSoC4/uart_0.c **** 
  62:./Generated_Source/PSoC4/uart_0.c **** /***************************************
  63:./Generated_Source/PSoC4/uart_0.c **** *     Common SCB Vars
  64:./Generated_Source/PSoC4/uart_0.c **** ***************************************/
  65:./Generated_Source/PSoC4/uart_0.c **** 
  66:./Generated_Source/PSoC4/uart_0.c **** uint8 UART_0_initVar = 0u;
  67:./Generated_Source/PSoC4/uart_0.c **** 
  68:./Generated_Source/PSoC4/uart_0.c **** #if !defined (CY_REMOVE_UART_0_CUSTOM_INTR_HANDLER)
  69:./Generated_Source/PSoC4/uart_0.c ****     cyisraddress UART_0_customIntrHandler = NULL;
  70:./Generated_Source/PSoC4/uart_0.c **** #endif /* !defined (CY_REMOVE_UART_0_CUSTOM_INTR_HANDLER) */
  71:./Generated_Source/PSoC4/uart_0.c **** 
  72:./Generated_Source/PSoC4/uart_0.c **** 
  73:./Generated_Source/PSoC4/uart_0.c **** /***************************************
  74:./Generated_Source/PSoC4/uart_0.c **** *    Private Function Prototypes
  75:./Generated_Source/PSoC4/uart_0.c **** ***************************************/
  76:./Generated_Source/PSoC4/uart_0.c **** 
  77:./Generated_Source/PSoC4/uart_0.c **** static void UART_0_ScbEnableIntr(void);
  78:./Generated_Source/PSoC4/uart_0.c **** static void UART_0_ScbModeStop(void);
  79:./Generated_Source/PSoC4/uart_0.c **** 
  80:./Generated_Source/PSoC4/uart_0.c **** 
  81:./Generated_Source/PSoC4/uart_0.c **** /*******************************************************************************
  82:./Generated_Source/PSoC4/uart_0.c **** * Function Name: UART_0_Init
  83:./Generated_Source/PSoC4/uart_0.c **** ********************************************************************************
  84:./Generated_Source/PSoC4/uart_0.c **** *
  85:./Generated_Source/PSoC4/uart_0.c **** * Summary:
  86:./Generated_Source/PSoC4/uart_0.c **** *  Initializes the SCB component to operate in one of the selected configurations:
  87:./Generated_Source/PSoC4/uart_0.c **** *  I2C, SPI, UART or EZ I2C.
  88:./Generated_Source/PSoC4/uart_0.c **** *  When the configuration is set to °∞Unconfigured SCB°±, this function does
  89:./Generated_Source/PSoC4/uart_0.c **** *  not do any initialization. Use mode-specific initialization APIs instead:
  90:./Generated_Source/PSoC4/uart_0.c **** *  SCB_I2CInit, SCB_SpiInit, SCB_UartInit or SCB_EzI2CInit.
  91:./Generated_Source/PSoC4/uart_0.c **** *
  92:./Generated_Source/PSoC4/uart_0.c **** * Parameters:
  93:./Generated_Source/PSoC4/uart_0.c **** *  None
  94:./Generated_Source/PSoC4/uart_0.c **** *
  95:./Generated_Source/PSoC4/uart_0.c **** * Return:
  96:./Generated_Source/PSoC4/uart_0.c **** *  None
  97:./Generated_Source/PSoC4/uart_0.c **** *
  98:./Generated_Source/PSoC4/uart_0.c **** *******************************************************************************/
  99:./Generated_Source/PSoC4/uart_0.c **** void UART_0_Init(void)
 100:./Generated_Source/PSoC4/uart_0.c **** {
 159              		.loc 2 100 0
 160              		.cfi_startproc
 161 0000 08B5     		push	{r3, lr}
 162              	.LCFI2:
 163              		.cfi_def_cfa_offset 8
 164              		.cfi_offset 3, -8
 165              		.cfi_offset 14, -4
ARM GAS  C:\Users\ZHANGM~1\AppData\Local\Temp\ccrd4w1B.s 			page 7


 101:./Generated_Source/PSoC4/uart_0.c **** #if(UART_0_SCB_MODE_UNCONFIG_CONST_CFG)
 102:./Generated_Source/PSoC4/uart_0.c ****     if(UART_0_SCB_MODE_UNCONFIG_RUNTM_CFG)
 103:./Generated_Source/PSoC4/uart_0.c ****     {
 104:./Generated_Source/PSoC4/uart_0.c ****         UART_0_initVar = 0u; /* Clear init var */
 105:./Generated_Source/PSoC4/uart_0.c ****     }
 106:./Generated_Source/PSoC4/uart_0.c ****     else
 107:./Generated_Source/PSoC4/uart_0.c ****     {
 108:./Generated_Source/PSoC4/uart_0.c ****         /* Initialization was done before call */
 109:./Generated_Source/PSoC4/uart_0.c ****     }
 110:./Generated_Source/PSoC4/uart_0.c **** 
 111:./Generated_Source/PSoC4/uart_0.c **** #elif(UART_0_SCB_MODE_I2C_CONST_CFG)
 112:./Generated_Source/PSoC4/uart_0.c ****     UART_0_I2CInit();
 113:./Generated_Source/PSoC4/uart_0.c **** 
 114:./Generated_Source/PSoC4/uart_0.c **** #elif(UART_0_SCB_MODE_SPI_CONST_CFG)
 115:./Generated_Source/PSoC4/uart_0.c ****     UART_0_SpiInit();
 116:./Generated_Source/PSoC4/uart_0.c **** 
 117:./Generated_Source/PSoC4/uart_0.c **** #elif(UART_0_SCB_MODE_UART_CONST_CFG)
 118:./Generated_Source/PSoC4/uart_0.c ****     UART_0_UartInit();
 166              		.loc 2 118 0
 167 0002 FFF7FEFF 		bl	UART_0_UartInit
 168              	.LVL7:
 119:./Generated_Source/PSoC4/uart_0.c **** 
 120:./Generated_Source/PSoC4/uart_0.c **** #elif(UART_0_SCB_MODE_EZI2C_CONST_CFG)
 121:./Generated_Source/PSoC4/uart_0.c ****     UART_0_EzI2CInit();
 122:./Generated_Source/PSoC4/uart_0.c **** 
 123:./Generated_Source/PSoC4/uart_0.c **** #endif /* (UART_0_SCB_MODE_UNCONFIG_CONST_CFG) */
 124:./Generated_Source/PSoC4/uart_0.c **** }
 169              		.loc 2 124 0
 170              		@ sp needed for prologue
 171 0006 08BD     		pop	{r3, pc}
 172              		.cfi_endproc
 173              	.LFE33:
 174              		.size	UART_0_Init, .-UART_0_Init
 175              		.section	.text.UART_0_Enable,"ax",%progbits
 176              		.align	1
 177              		.global	UART_0_Enable
 178              		.code	16
 179              		.thumb_func
 180              		.type	UART_0_Enable, %function
 181              	UART_0_Enable:
 182              	.LFB34:
 125:./Generated_Source/PSoC4/uart_0.c **** 
 126:./Generated_Source/PSoC4/uart_0.c **** 
 127:./Generated_Source/PSoC4/uart_0.c **** /*******************************************************************************
 128:./Generated_Source/PSoC4/uart_0.c **** * Function Name: UART_0_Enable
 129:./Generated_Source/PSoC4/uart_0.c **** ********************************************************************************
 130:./Generated_Source/PSoC4/uart_0.c **** *
 131:./Generated_Source/PSoC4/uart_0.c **** * Summary:
 132:./Generated_Source/PSoC4/uart_0.c **** *  Enables the SCB component operation.
 133:./Generated_Source/PSoC4/uart_0.c **** *  The SCB configuration should be not changed when the component is enabled.
 134:./Generated_Source/PSoC4/uart_0.c **** *  Any configuration changes should be made after disabling the component.
 135:./Generated_Source/PSoC4/uart_0.c **** *
 136:./Generated_Source/PSoC4/uart_0.c **** * Parameters:
 137:./Generated_Source/PSoC4/uart_0.c **** *  None
 138:./Generated_Source/PSoC4/uart_0.c **** *
 139:./Generated_Source/PSoC4/uart_0.c **** * Return:
 140:./Generated_Source/PSoC4/uart_0.c **** *  None
ARM GAS  C:\Users\ZHANGM~1\AppData\Local\Temp\ccrd4w1B.s 			page 8


 141:./Generated_Source/PSoC4/uart_0.c **** *
 142:./Generated_Source/PSoC4/uart_0.c **** *******************************************************************************/
 143:./Generated_Source/PSoC4/uart_0.c **** void UART_0_Enable(void)
 144:./Generated_Source/PSoC4/uart_0.c **** {
 183              		.loc 2 144 0
 184              		.cfi_startproc
 185 0000 08B5     		push	{r3, lr}
 186              	.LCFI3:
 187              		.cfi_def_cfa_offset 8
 188              		.cfi_offset 3, -8
 189              		.cfi_offset 14, -4
 145:./Generated_Source/PSoC4/uart_0.c **** #if(UART_0_SCB_MODE_UNCONFIG_CONST_CFG)
 146:./Generated_Source/PSoC4/uart_0.c ****     /* Enable SCB block, only if it is already configured */
 147:./Generated_Source/PSoC4/uart_0.c ****     if(!UART_0_SCB_MODE_UNCONFIG_RUNTM_CFG)
 148:./Generated_Source/PSoC4/uart_0.c ****     {
 149:./Generated_Source/PSoC4/uart_0.c ****         UART_0_CTRL_REG |= UART_0_CTRL_ENABLED;
 150:./Generated_Source/PSoC4/uart_0.c **** 
 151:./Generated_Source/PSoC4/uart_0.c ****         UART_0_ScbEnableIntr();
 152:./Generated_Source/PSoC4/uart_0.c ****     }
 153:./Generated_Source/PSoC4/uart_0.c **** #else
 154:./Generated_Source/PSoC4/uart_0.c ****     UART_0_CTRL_REG |= UART_0_CTRL_ENABLED;
 190              		.loc 2 154 0
 191 0002 054B     		ldr	r3, .L18
 192 0004 8022     		mov	r2, #128
 193 0006 1968     		ldr	r1, [r3]
 194 0008 1006     		lsl	r0, r2, #24
 195 000a 0843     		orr	r0, r1
 196 000c 1860     		str	r0, [r3]
 197              	.LBB28:
 198              	.LBB29:
 155:./Generated_Source/PSoC4/uart_0.c **** 
 156:./Generated_Source/PSoC4/uart_0.c ****     UART_0_ScbEnableIntr();
 157:./Generated_Source/PSoC4/uart_0.c **** #endif /* (UART_0_SCB_MODE_UNCONFIG_CONST_CFG) */
 158:./Generated_Source/PSoC4/uart_0.c **** }
 159:./Generated_Source/PSoC4/uart_0.c **** 
 160:./Generated_Source/PSoC4/uart_0.c **** 
 161:./Generated_Source/PSoC4/uart_0.c **** /*******************************************************************************
 162:./Generated_Source/PSoC4/uart_0.c **** * Function Name: UART_0_Start
 163:./Generated_Source/PSoC4/uart_0.c **** ********************************************************************************
 164:./Generated_Source/PSoC4/uart_0.c **** *
 165:./Generated_Source/PSoC4/uart_0.c **** * Summary:
 166:./Generated_Source/PSoC4/uart_0.c **** *  Invokes SCB_Init() and SCB_Enable().
 167:./Generated_Source/PSoC4/uart_0.c **** *  After this function call, the component is enabled and ready for operation.
 168:./Generated_Source/PSoC4/uart_0.c **** *  When configuration is set to °∞Unconfigured SCB°±, the component must first be
 169:./Generated_Source/PSoC4/uart_0.c **** *  initialized to operate in one of the following configurations: I2C, SPI, UART
 170:./Generated_Source/PSoC4/uart_0.c **** *  or EZ I2C. Otherwise this function does not enable the component.
 171:./Generated_Source/PSoC4/uart_0.c **** *
 172:./Generated_Source/PSoC4/uart_0.c **** * Parameters:
 173:./Generated_Source/PSoC4/uart_0.c **** *  None
 174:./Generated_Source/PSoC4/uart_0.c **** *
 175:./Generated_Source/PSoC4/uart_0.c **** * Return:
 176:./Generated_Source/PSoC4/uart_0.c **** *  None
 177:./Generated_Source/PSoC4/uart_0.c **** *
 178:./Generated_Source/PSoC4/uart_0.c **** * Global variables:
 179:./Generated_Source/PSoC4/uart_0.c **** *  UART_0_initVar - used to check initial configuration, modified
 180:./Generated_Source/PSoC4/uart_0.c **** *  on first function call.
 181:./Generated_Source/PSoC4/uart_0.c **** *
ARM GAS  C:\Users\ZHANGM~1\AppData\Local\Temp\ccrd4w1B.s 			page 9


 182:./Generated_Source/PSoC4/uart_0.c **** *******************************************************************************/
 183:./Generated_Source/PSoC4/uart_0.c **** void UART_0_Start(void)
 184:./Generated_Source/PSoC4/uart_0.c **** {
 185:./Generated_Source/PSoC4/uart_0.c ****     if(0u == UART_0_initVar)
 186:./Generated_Source/PSoC4/uart_0.c ****     {
 187:./Generated_Source/PSoC4/uart_0.c ****         UART_0_Init();
 188:./Generated_Source/PSoC4/uart_0.c ****         UART_0_initVar = 1u; /* Component was initialized */
 189:./Generated_Source/PSoC4/uart_0.c ****     }
 190:./Generated_Source/PSoC4/uart_0.c **** 
 191:./Generated_Source/PSoC4/uart_0.c ****     UART_0_Enable();
 192:./Generated_Source/PSoC4/uart_0.c **** }
 193:./Generated_Source/PSoC4/uart_0.c **** 
 194:./Generated_Source/PSoC4/uart_0.c **** 
 195:./Generated_Source/PSoC4/uart_0.c **** /*******************************************************************************
 196:./Generated_Source/PSoC4/uart_0.c **** * Function Name: UART_0_Stop
 197:./Generated_Source/PSoC4/uart_0.c **** ********************************************************************************
 198:./Generated_Source/PSoC4/uart_0.c **** *
 199:./Generated_Source/PSoC4/uart_0.c **** * Summary:
 200:./Generated_Source/PSoC4/uart_0.c **** *  Disables the SCB component and its interrupt.
 201:./Generated_Source/PSoC4/uart_0.c **** *
 202:./Generated_Source/PSoC4/uart_0.c **** * Parameters:
 203:./Generated_Source/PSoC4/uart_0.c **** *  None
 204:./Generated_Source/PSoC4/uart_0.c **** *
 205:./Generated_Source/PSoC4/uart_0.c **** * Return:
 206:./Generated_Source/PSoC4/uart_0.c **** *  None
 207:./Generated_Source/PSoC4/uart_0.c **** *
 208:./Generated_Source/PSoC4/uart_0.c **** *******************************************************************************/
 209:./Generated_Source/PSoC4/uart_0.c **** void UART_0_Stop(void)
 210:./Generated_Source/PSoC4/uart_0.c **** {
 211:./Generated_Source/PSoC4/uart_0.c **** #if(UART_0_SCB_IRQ_INTERNAL)
 212:./Generated_Source/PSoC4/uart_0.c ****     UART_0_DisableInt();
 213:./Generated_Source/PSoC4/uart_0.c **** #endif /* (UART_0_SCB_IRQ_INTERNAL) */
 214:./Generated_Source/PSoC4/uart_0.c **** 
 215:./Generated_Source/PSoC4/uart_0.c ****     UART_0_CTRL_REG &= (uint32) ~UART_0_CTRL_ENABLED;  /* Disable SCB block */
 216:./Generated_Source/PSoC4/uart_0.c **** 
 217:./Generated_Source/PSoC4/uart_0.c **** #if(UART_0_SCB_IRQ_INTERNAL)
 218:./Generated_Source/PSoC4/uart_0.c ****     UART_0_ClearPendingInt();
 219:./Generated_Source/PSoC4/uart_0.c **** #endif /* (UART_0_SCB_IRQ_INTERNAL) */
 220:./Generated_Source/PSoC4/uart_0.c **** 
 221:./Generated_Source/PSoC4/uart_0.c ****     UART_0_ScbModeStop(); /* Calls scbMode specific Stop function */
 222:./Generated_Source/PSoC4/uart_0.c **** }
 223:./Generated_Source/PSoC4/uart_0.c **** 
 224:./Generated_Source/PSoC4/uart_0.c **** 
 225:./Generated_Source/PSoC4/uart_0.c **** /*******************************************************************************
 226:./Generated_Source/PSoC4/uart_0.c **** * Function Name: UART_0_SetCustomInterruptHandler
 227:./Generated_Source/PSoC4/uart_0.c **** ********************************************************************************
 228:./Generated_Source/PSoC4/uart_0.c **** *
 229:./Generated_Source/PSoC4/uart_0.c **** * Summary:
 230:./Generated_Source/PSoC4/uart_0.c **** *  Registers a function to be called by the internal interrupt handler.
 231:./Generated_Source/PSoC4/uart_0.c **** *  First the function that is registered is called, then the internal interrupt
 232:./Generated_Source/PSoC4/uart_0.c **** *  handler performs any operations such as software buffer management functions
 233:./Generated_Source/PSoC4/uart_0.c **** *  before the interrupt returns.  It is the user's responsibility not to break the
 234:./Generated_Source/PSoC4/uart_0.c **** *  software buffer operations. Only one custom handler is supported, which is
 235:./Generated_Source/PSoC4/uart_0.c **** *  the function provided by the most recent call.
 236:./Generated_Source/PSoC4/uart_0.c **** *  At initialization time no custom handler is registered.
 237:./Generated_Source/PSoC4/uart_0.c **** *
 238:./Generated_Source/PSoC4/uart_0.c **** * Parameters:
ARM GAS  C:\Users\ZHANGM~1\AppData\Local\Temp\ccrd4w1B.s 			page 10


 239:./Generated_Source/PSoC4/uart_0.c **** *  func: Pointer to the function to register.
 240:./Generated_Source/PSoC4/uart_0.c **** *        The value NULL indicates to remove the current custom interrupt
 241:./Generated_Source/PSoC4/uart_0.c **** *        handler.
 242:./Generated_Source/PSoC4/uart_0.c **** *
 243:./Generated_Source/PSoC4/uart_0.c **** * Return:
 244:./Generated_Source/PSoC4/uart_0.c **** *  None
 245:./Generated_Source/PSoC4/uart_0.c **** *
 246:./Generated_Source/PSoC4/uart_0.c **** *******************************************************************************/
 247:./Generated_Source/PSoC4/uart_0.c **** void UART_0_SetCustomInterruptHandler(cyisraddress func)
 248:./Generated_Source/PSoC4/uart_0.c **** {
 249:./Generated_Source/PSoC4/uart_0.c **** #if !defined (CY_REMOVE_UART_0_CUSTOM_INTR_HANDLER)
 250:./Generated_Source/PSoC4/uart_0.c ****     UART_0_customIntrHandler = func; /* Register interrupt handler */
 251:./Generated_Source/PSoC4/uart_0.c **** #else
 252:./Generated_Source/PSoC4/uart_0.c ****     if(NULL != func)
 253:./Generated_Source/PSoC4/uart_0.c ****     {
 254:./Generated_Source/PSoC4/uart_0.c ****         /* Suppress compiler warning */
 255:./Generated_Source/PSoC4/uart_0.c ****     }
 256:./Generated_Source/PSoC4/uart_0.c **** #endif /* !defined (CY_REMOVE_UART_0_CUSTOM_INTR_HANDLER) */
 257:./Generated_Source/PSoC4/uart_0.c **** }
 258:./Generated_Source/PSoC4/uart_0.c **** 
 259:./Generated_Source/PSoC4/uart_0.c **** 
 260:./Generated_Source/PSoC4/uart_0.c **** /*******************************************************************************
 261:./Generated_Source/PSoC4/uart_0.c **** * Function Name: UART_0_ScbModeEnableIntr
 262:./Generated_Source/PSoC4/uart_0.c **** ********************************************************************************
 263:./Generated_Source/PSoC4/uart_0.c **** *
 264:./Generated_Source/PSoC4/uart_0.c **** * Summary:
 265:./Generated_Source/PSoC4/uart_0.c **** *  Enables an interrupt for a specific mode.
 266:./Generated_Source/PSoC4/uart_0.c **** *
 267:./Generated_Source/PSoC4/uart_0.c **** * Parameters:
 268:./Generated_Source/PSoC4/uart_0.c **** *  None
 269:./Generated_Source/PSoC4/uart_0.c **** *
 270:./Generated_Source/PSoC4/uart_0.c **** * Return:
 271:./Generated_Source/PSoC4/uart_0.c **** *  None
 272:./Generated_Source/PSoC4/uart_0.c **** *
 273:./Generated_Source/PSoC4/uart_0.c **** *******************************************************************************/
 274:./Generated_Source/PSoC4/uart_0.c **** static void UART_0_ScbEnableIntr(void)
 275:./Generated_Source/PSoC4/uart_0.c **** {
 276:./Generated_Source/PSoC4/uart_0.c **** #if(UART_0_SCB_IRQ_INTERNAL)
 277:./Generated_Source/PSoC4/uart_0.c ****     #if(UART_0_SCB_MODE_UNCONFIG_CONST_CFG)
 278:./Generated_Source/PSoC4/uart_0.c ****         /* Enable interrupt in the NVIC */
 279:./Generated_Source/PSoC4/uart_0.c ****         if(0u != UART_0_scbEnableIntr)
 280:./Generated_Source/PSoC4/uart_0.c ****         {
 281:./Generated_Source/PSoC4/uart_0.c ****             UART_0_EnableInt();
 282:./Generated_Source/PSoC4/uart_0.c ****         }
 283:./Generated_Source/PSoC4/uart_0.c ****     #else
 284:./Generated_Source/PSoC4/uart_0.c ****         UART_0_EnableInt();
 199              		.loc 2 284 0
 200 000e 0B20     		mov	r0, #11
 201 0010 FFF7FEFF 		bl	CyIntEnable
 202              	.LVL8:
 203              	.LBE29:
 204              	.LBE28:
 158:./Generated_Source/PSoC4/uart_0.c **** }
 205              		.loc 2 158 0
 206              		@ sp needed for prologue
 207 0014 08BD     		pop	{r3, pc}
 208              	.L19:
ARM GAS  C:\Users\ZHANGM~1\AppData\Local\Temp\ccrd4w1B.s 			page 11


 209 0016 C046     		.align	2
 210              	.L18:
 211 0018 00000740 		.word	1074200576
 212              		.cfi_endproc
 213              	.LFE34:
 214              		.size	UART_0_Enable, .-UART_0_Enable
 215              		.section	.text.UART_0_Start,"ax",%progbits
 216              		.align	1
 217              		.global	UART_0_Start
 218              		.code	16
 219              		.thumb_func
 220              		.type	UART_0_Start, %function
 221              	UART_0_Start:
 222              	.LFB35:
 184:./Generated_Source/PSoC4/uart_0.c **** {
 223              		.loc 2 184 0
 224              		.cfi_startproc
 225 0000 10B5     		push	{r4, lr}
 226              	.LCFI4:
 227              		.cfi_def_cfa_offset 8
 228              		.cfi_offset 4, -8
 229              		.cfi_offset 14, -4
 185:./Generated_Source/PSoC4/uart_0.c ****     if(0u == UART_0_initVar)
 230              		.loc 2 185 0
 231 0002 054C     		ldr	r4, .L22
 232 0004 2378     		ldrb	r3, [r4]
 233 0006 002B     		cmp	r3, #0
 234 0008 03D1     		bne	.L21
 235              	.LBB30:
 236              	.LBB31:
 118:./Generated_Source/PSoC4/uart_0.c ****     UART_0_UartInit();
 237              		.loc 2 118 0
 238 000a FFF7FEFF 		bl	UART_0_UartInit
 239              	.LVL9:
 240              	.LBE31:
 241              	.LBE30:
 188:./Generated_Source/PSoC4/uart_0.c ****         UART_0_initVar = 1u; /* Component was initialized */
 242              		.loc 2 188 0
 243 000e 0120     		mov	r0, #1
 244 0010 2070     		strb	r0, [r4]
 245              	.L21:
 191:./Generated_Source/PSoC4/uart_0.c ****     UART_0_Enable();
 246              		.loc 2 191 0
 247 0012 FFF7FEFF 		bl	UART_0_Enable
 248              	.LVL10:
 192:./Generated_Source/PSoC4/uart_0.c **** }
 249              		.loc 2 192 0
 250              		@ sp needed for prologue
 251 0016 10BD     		pop	{r4, pc}
 252              	.L23:
 253              		.align	2
 254              	.L22:
 255 0018 00000000 		.word	.LANCHOR0
 256              		.cfi_endproc
 257              	.LFE35:
 258              		.size	UART_0_Start, .-UART_0_Start
 259              		.section	.text.UART_0_Stop,"ax",%progbits
ARM GAS  C:\Users\ZHANGM~1\AppData\Local\Temp\ccrd4w1B.s 			page 12


 260              		.align	1
 261              		.global	UART_0_Stop
 262              		.code	16
 263              		.thumb_func
 264              		.type	UART_0_Stop, %function
 265              	UART_0_Stop:
 266              	.LFB36:
 210:./Generated_Source/PSoC4/uart_0.c **** {
 267              		.loc 2 210 0
 268              		.cfi_startproc
 269 0000 08B5     		push	{r3, lr}
 270              	.LCFI5:
 271              		.cfi_def_cfa_offset 8
 272              		.cfi_offset 3, -8
 273              		.cfi_offset 14, -4
 212:./Generated_Source/PSoC4/uart_0.c ****     UART_0_DisableInt();
 274              		.loc 2 212 0
 275 0002 0B20     		mov	r0, #11
 276 0004 FFF7FEFF 		bl	CyIntDisable
 277              	.LVL11:
 215:./Generated_Source/PSoC4/uart_0.c ****     UART_0_CTRL_REG &= (uint32) ~UART_0_CTRL_ENABLED;  /* Disable SCB block */
 278              		.loc 2 215 0
 279 0008 044B     		ldr	r3, .L25
 222:./Generated_Source/PSoC4/uart_0.c **** }
 280              		.loc 2 222 0
 281              		@ sp needed for prologue
 215:./Generated_Source/PSoC4/uart_0.c ****     UART_0_CTRL_REG &= (uint32) ~UART_0_CTRL_ENABLED;  /* Disable SCB block */
 282              		.loc 2 215 0
 283 000a 1A68     		ldr	r2, [r3]
 284 000c 5000     		lsl	r0, r2, #1
 285 000e 4108     		lsr	r1, r0, #1
 286 0010 1960     		str	r1, [r3]
 218:./Generated_Source/PSoC4/uart_0.c ****     UART_0_ClearPendingInt();
 287              		.loc 2 218 0
 288 0012 0B20     		mov	r0, #11
 289 0014 FFF7FEFF 		bl	CyIntClearPending
 290              	.LVL12:
 222:./Generated_Source/PSoC4/uart_0.c **** }
 291              		.loc 2 222 0
 292 0018 08BD     		pop	{r3, pc}
 293              	.L26:
 294 001a C046     		.align	2
 295              	.L25:
 296 001c 00000740 		.word	1074200576
 297              		.cfi_endproc
 298              	.LFE36:
 299              		.size	UART_0_Stop, .-UART_0_Stop
 300              		.section	.text.UART_0_SetCustomInterruptHandler,"ax",%progbits
 301              		.align	1
 302              		.global	UART_0_SetCustomInterruptHandler
 303              		.code	16
 304              		.thumb_func
 305              		.type	UART_0_SetCustomInterruptHandler, %function
 306              	UART_0_SetCustomInterruptHandler:
 307              	.LFB37:
 248:./Generated_Source/PSoC4/uart_0.c **** {
 308              		.loc 2 248 0
ARM GAS  C:\Users\ZHANGM~1\AppData\Local\Temp\ccrd4w1B.s 			page 13


 309              		.cfi_startproc
 310              	.LVL13:
 250:./Generated_Source/PSoC4/uart_0.c ****     UART_0_customIntrHandler = func; /* Register interrupt handler */
 311              		.loc 2 250 0
 312 0000 014B     		ldr	r3, .L28
 257:./Generated_Source/PSoC4/uart_0.c **** }
 313              		.loc 2 257 0
 314              		@ sp needed for prologue
 250:./Generated_Source/PSoC4/uart_0.c ****     UART_0_customIntrHandler = func; /* Register interrupt handler */
 315              		.loc 2 250 0
 316 0002 5860     		str	r0, [r3, #4]
 257:./Generated_Source/PSoC4/uart_0.c **** }
 317              		.loc 2 257 0
 318 0004 7047     		bx	lr
 319              	.L29:
 320 0006 C046     		.align	2
 321              	.L28:
 322 0008 00000000 		.word	.LANCHOR0
 323              		.cfi_endproc
 324              	.LFE37:
 325              		.size	UART_0_SetCustomInterruptHandler, .-UART_0_SetCustomInterruptHandler
 326              		.section	.text.UART_1_Init,"ax",%progbits
 327              		.align	1
 328              		.global	UART_1_Init
 329              		.code	16
 330              		.thumb_func
 331              		.type	UART_1_Init, %function
 332              	UART_1_Init:
 333              	.LFB40:
 334              		.file 3 "./Generated_Source/PSoC4/uart_1.c"
   1:./Generated_Source/PSoC4/uart_1.c **** /*******************************************************************************
   2:./Generated_Source/PSoC4/uart_1.c **** * File Name: UART_1.c
   3:./Generated_Source/PSoC4/uart_1.c **** * Version 1.20
   4:./Generated_Source/PSoC4/uart_1.c **** *
   5:./Generated_Source/PSoC4/uart_1.c **** * Description:
   6:./Generated_Source/PSoC4/uart_1.c **** *  This file provides the source code to the API for the SCB Component.
   7:./Generated_Source/PSoC4/uart_1.c **** *
   8:./Generated_Source/PSoC4/uart_1.c **** * Note:
   9:./Generated_Source/PSoC4/uart_1.c **** *
  10:./Generated_Source/PSoC4/uart_1.c **** *******************************************************************************
  11:./Generated_Source/PSoC4/uart_1.c **** * Copyright 2013-2014, Cypress Semiconductor Corporation.  All rights reserved.
  12:./Generated_Source/PSoC4/uart_1.c **** * You may use this file only in accordance with the license, terms, conditions,
  13:./Generated_Source/PSoC4/uart_1.c **** * disclaimers, and limitations in the end user license agreement accompanying
  14:./Generated_Source/PSoC4/uart_1.c **** * the software package with which this file was provided.
  15:./Generated_Source/PSoC4/uart_1.c **** *******************************************************************************/
  16:./Generated_Source/PSoC4/uart_1.c **** 
  17:./Generated_Source/PSoC4/uart_1.c **** #include "UART_1_PVT.h"
  18:./Generated_Source/PSoC4/uart_1.c **** 
  19:./Generated_Source/PSoC4/uart_1.c **** #if(UART_1_SCB_MODE_I2C_INC)
  20:./Generated_Source/PSoC4/uart_1.c ****     #include "UART_1_I2C_PVT.h"
  21:./Generated_Source/PSoC4/uart_1.c **** #endif /* (UART_1_SCB_MODE_I2C_INC) */
  22:./Generated_Source/PSoC4/uart_1.c **** 
  23:./Generated_Source/PSoC4/uart_1.c **** #if(UART_1_SCB_MODE_EZI2C_INC)
  24:./Generated_Source/PSoC4/uart_1.c ****     #include "UART_1_EZI2C_PVT.h"
  25:./Generated_Source/PSoC4/uart_1.c **** #endif /* (UART_1_SCB_MODE_EZI2C_INC) */
  26:./Generated_Source/PSoC4/uart_1.c **** 
  27:./Generated_Source/PSoC4/uart_1.c **** #if(UART_1_SCB_MODE_SPI_INC || UART_1_SCB_MODE_UART_INC)
ARM GAS  C:\Users\ZHANGM~1\AppData\Local\Temp\ccrd4w1B.s 			page 14


  28:./Generated_Source/PSoC4/uart_1.c ****     #include "UART_1_SPI_UART_PVT.h"
  29:./Generated_Source/PSoC4/uart_1.c **** #endif /* (UART_1_SCB_MODE_SPI_INC || UART_1_SCB_MODE_UART_INC) */
  30:./Generated_Source/PSoC4/uart_1.c **** 
  31:./Generated_Source/PSoC4/uart_1.c **** 
  32:./Generated_Source/PSoC4/uart_1.c **** /***************************************
  33:./Generated_Source/PSoC4/uart_1.c **** *    Run Time Configuration Vars
  34:./Generated_Source/PSoC4/uart_1.c **** ***************************************/
  35:./Generated_Source/PSoC4/uart_1.c **** 
  36:./Generated_Source/PSoC4/uart_1.c **** /* Stores internal component configuration for unconfigured mode */
  37:./Generated_Source/PSoC4/uart_1.c **** #if(UART_1_SCB_MODE_UNCONFIG_CONST_CFG)
  38:./Generated_Source/PSoC4/uart_1.c ****     /* Common config vars */
  39:./Generated_Source/PSoC4/uart_1.c ****     uint8 UART_1_scbMode = UART_1_SCB_MODE_UNCONFIG;
  40:./Generated_Source/PSoC4/uart_1.c ****     uint8 UART_1_scbEnableWake;
  41:./Generated_Source/PSoC4/uart_1.c ****     uint8 UART_1_scbEnableIntr;
  42:./Generated_Source/PSoC4/uart_1.c **** 
  43:./Generated_Source/PSoC4/uart_1.c ****     /* I2C config vars */
  44:./Generated_Source/PSoC4/uart_1.c ****     uint8 UART_1_mode;
  45:./Generated_Source/PSoC4/uart_1.c ****     uint8 UART_1_acceptAddr;
  46:./Generated_Source/PSoC4/uart_1.c **** 
  47:./Generated_Source/PSoC4/uart_1.c ****     /* SPI/UART config vars */
  48:./Generated_Source/PSoC4/uart_1.c ****     volatile uint8 * UART_1_rxBuffer;
  49:./Generated_Source/PSoC4/uart_1.c ****     uint8  UART_1_rxDataBits;
  50:./Generated_Source/PSoC4/uart_1.c ****     uint32 UART_1_rxBufferSize;
  51:./Generated_Source/PSoC4/uart_1.c **** 
  52:./Generated_Source/PSoC4/uart_1.c ****     volatile uint8 * UART_1_txBuffer;
  53:./Generated_Source/PSoC4/uart_1.c ****     uint8  UART_1_txDataBits;
  54:./Generated_Source/PSoC4/uart_1.c ****     uint32 UART_1_txBufferSize;
  55:./Generated_Source/PSoC4/uart_1.c **** 
  56:./Generated_Source/PSoC4/uart_1.c ****     /* EZI2C config vars */
  57:./Generated_Source/PSoC4/uart_1.c ****     uint8 UART_1_numberOfAddr;
  58:./Generated_Source/PSoC4/uart_1.c ****     uint8 UART_1_subAddrSize;
  59:./Generated_Source/PSoC4/uart_1.c **** #endif /* (UART_1_SCB_MODE_UNCONFIG_CONST_CFG) */
  60:./Generated_Source/PSoC4/uart_1.c **** 
  61:./Generated_Source/PSoC4/uart_1.c **** 
  62:./Generated_Source/PSoC4/uart_1.c **** /***************************************
  63:./Generated_Source/PSoC4/uart_1.c **** *     Common SCB Vars
  64:./Generated_Source/PSoC4/uart_1.c **** ***************************************/
  65:./Generated_Source/PSoC4/uart_1.c **** 
  66:./Generated_Source/PSoC4/uart_1.c **** uint8 UART_1_initVar = 0u;
  67:./Generated_Source/PSoC4/uart_1.c **** 
  68:./Generated_Source/PSoC4/uart_1.c **** #if !defined (CY_REMOVE_UART_1_CUSTOM_INTR_HANDLER)
  69:./Generated_Source/PSoC4/uart_1.c ****     cyisraddress UART_1_customIntrHandler = NULL;
  70:./Generated_Source/PSoC4/uart_1.c **** #endif /* !defined (CY_REMOVE_UART_1_CUSTOM_INTR_HANDLER) */
  71:./Generated_Source/PSoC4/uart_1.c **** 
  72:./Generated_Source/PSoC4/uart_1.c **** 
  73:./Generated_Source/PSoC4/uart_1.c **** /***************************************
  74:./Generated_Source/PSoC4/uart_1.c **** *    Private Function Prototypes
  75:./Generated_Source/PSoC4/uart_1.c **** ***************************************/
  76:./Generated_Source/PSoC4/uart_1.c **** 
  77:./Generated_Source/PSoC4/uart_1.c **** static void UART_1_ScbEnableIntr(void);
  78:./Generated_Source/PSoC4/uart_1.c **** static void UART_1_ScbModeStop(void);
  79:./Generated_Source/PSoC4/uart_1.c **** 
  80:./Generated_Source/PSoC4/uart_1.c **** 
  81:./Generated_Source/PSoC4/uart_1.c **** /*******************************************************************************
  82:./Generated_Source/PSoC4/uart_1.c **** * Function Name: UART_1_Init
  83:./Generated_Source/PSoC4/uart_1.c **** ********************************************************************************
  84:./Generated_Source/PSoC4/uart_1.c **** *
ARM GAS  C:\Users\ZHANGM~1\AppData\Local\Temp\ccrd4w1B.s 			page 15


  85:./Generated_Source/PSoC4/uart_1.c **** * Summary:
  86:./Generated_Source/PSoC4/uart_1.c **** *  Initializes the SCB component to operate in one of the selected configurations:
  87:./Generated_Source/PSoC4/uart_1.c **** *  I2C, SPI, UART or EZ I2C.
  88:./Generated_Source/PSoC4/uart_1.c **** *  When the configuration is set to °∞Unconfigured SCB°±, this function does
  89:./Generated_Source/PSoC4/uart_1.c **** *  not do any initialization. Use mode-specific initialization APIs instead:
  90:./Generated_Source/PSoC4/uart_1.c **** *  SCB_I2CInit, SCB_SpiInit, SCB_UartInit or SCB_EzI2CInit.
  91:./Generated_Source/PSoC4/uart_1.c **** *
  92:./Generated_Source/PSoC4/uart_1.c **** * Parameters:
  93:./Generated_Source/PSoC4/uart_1.c **** *  None
  94:./Generated_Source/PSoC4/uart_1.c **** *
  95:./Generated_Source/PSoC4/uart_1.c **** * Return:
  96:./Generated_Source/PSoC4/uart_1.c **** *  None
  97:./Generated_Source/PSoC4/uart_1.c **** *
  98:./Generated_Source/PSoC4/uart_1.c **** *******************************************************************************/
  99:./Generated_Source/PSoC4/uart_1.c **** void UART_1_Init(void)
 100:./Generated_Source/PSoC4/uart_1.c **** {
 335              		.loc 3 100 0
 336              		.cfi_startproc
 337 0000 08B5     		push	{r3, lr}
 338              	.LCFI6:
 339              		.cfi_def_cfa_offset 8
 340              		.cfi_offset 3, -8
 341              		.cfi_offset 14, -4
 101:./Generated_Source/PSoC4/uart_1.c **** #if(UART_1_SCB_MODE_UNCONFIG_CONST_CFG)
 102:./Generated_Source/PSoC4/uart_1.c ****     if(UART_1_SCB_MODE_UNCONFIG_RUNTM_CFG)
 103:./Generated_Source/PSoC4/uart_1.c ****     {
 104:./Generated_Source/PSoC4/uart_1.c ****         UART_1_initVar = 0u; /* Clear init var */
 105:./Generated_Source/PSoC4/uart_1.c ****     }
 106:./Generated_Source/PSoC4/uart_1.c ****     else
 107:./Generated_Source/PSoC4/uart_1.c ****     {
 108:./Generated_Source/PSoC4/uart_1.c ****         /* Initialization was done before call */
 109:./Generated_Source/PSoC4/uart_1.c ****     }
 110:./Generated_Source/PSoC4/uart_1.c **** 
 111:./Generated_Source/PSoC4/uart_1.c **** #elif(UART_1_SCB_MODE_I2C_CONST_CFG)
 112:./Generated_Source/PSoC4/uart_1.c ****     UART_1_I2CInit();
 113:./Generated_Source/PSoC4/uart_1.c **** 
 114:./Generated_Source/PSoC4/uart_1.c **** #elif(UART_1_SCB_MODE_SPI_CONST_CFG)
 115:./Generated_Source/PSoC4/uart_1.c ****     UART_1_SpiInit();
 116:./Generated_Source/PSoC4/uart_1.c **** 
 117:./Generated_Source/PSoC4/uart_1.c **** #elif(UART_1_SCB_MODE_UART_CONST_CFG)
 118:./Generated_Source/PSoC4/uart_1.c ****     UART_1_UartInit();
 342              		.loc 3 118 0
 343 0002 FFF7FEFF 		bl	UART_1_UartInit
 344              	.LVL14:
 119:./Generated_Source/PSoC4/uart_1.c **** 
 120:./Generated_Source/PSoC4/uart_1.c **** #elif(UART_1_SCB_MODE_EZI2C_CONST_CFG)
 121:./Generated_Source/PSoC4/uart_1.c ****     UART_1_EzI2CInit();
 122:./Generated_Source/PSoC4/uart_1.c **** 
 123:./Generated_Source/PSoC4/uart_1.c **** #endif /* (UART_1_SCB_MODE_UNCONFIG_CONST_CFG) */
 124:./Generated_Source/PSoC4/uart_1.c **** }
 345              		.loc 3 124 0
 346              		@ sp needed for prologue
 347 0006 08BD     		pop	{r3, pc}
 348              		.cfi_endproc
 349              	.LFE40:
 350              		.size	UART_1_Init, .-UART_1_Init
 351              		.section	.text.UART_1_Enable,"ax",%progbits
ARM GAS  C:\Users\ZHANGM~1\AppData\Local\Temp\ccrd4w1B.s 			page 16


 352              		.align	1
 353              		.global	UART_1_Enable
 354              		.code	16
 355              		.thumb_func
 356              		.type	UART_1_Enable, %function
 357              	UART_1_Enable:
 358              	.LFB41:
 125:./Generated_Source/PSoC4/uart_1.c **** 
 126:./Generated_Source/PSoC4/uart_1.c **** 
 127:./Generated_Source/PSoC4/uart_1.c **** /*******************************************************************************
 128:./Generated_Source/PSoC4/uart_1.c **** * Function Name: UART_1_Enable
 129:./Generated_Source/PSoC4/uart_1.c **** ********************************************************************************
 130:./Generated_Source/PSoC4/uart_1.c **** *
 131:./Generated_Source/PSoC4/uart_1.c **** * Summary:
 132:./Generated_Source/PSoC4/uart_1.c **** *  Enables the SCB component operation.
 133:./Generated_Source/PSoC4/uart_1.c **** *  The SCB configuration should be not changed when the component is enabled.
 134:./Generated_Source/PSoC4/uart_1.c **** *  Any configuration changes should be made after disabling the component.
 135:./Generated_Source/PSoC4/uart_1.c **** *
 136:./Generated_Source/PSoC4/uart_1.c **** * Parameters:
 137:./Generated_Source/PSoC4/uart_1.c **** *  None
 138:./Generated_Source/PSoC4/uart_1.c **** *
 139:./Generated_Source/PSoC4/uart_1.c **** * Return:
 140:./Generated_Source/PSoC4/uart_1.c **** *  None
 141:./Generated_Source/PSoC4/uart_1.c **** *
 142:./Generated_Source/PSoC4/uart_1.c **** *******************************************************************************/
 143:./Generated_Source/PSoC4/uart_1.c **** void UART_1_Enable(void)
 144:./Generated_Source/PSoC4/uart_1.c **** {
 359              		.loc 3 144 0
 360              		.cfi_startproc
 361 0000 08B5     		push	{r3, lr}
 362              	.LCFI7:
 363              		.cfi_def_cfa_offset 8
 364              		.cfi_offset 3, -8
 365              		.cfi_offset 14, -4
 145:./Generated_Source/PSoC4/uart_1.c **** #if(UART_1_SCB_MODE_UNCONFIG_CONST_CFG)
 146:./Generated_Source/PSoC4/uart_1.c ****     /* Enable SCB block, only if it is already configured */
 147:./Generated_Source/PSoC4/uart_1.c ****     if(!UART_1_SCB_MODE_UNCONFIG_RUNTM_CFG)
 148:./Generated_Source/PSoC4/uart_1.c ****     {
 149:./Generated_Source/PSoC4/uart_1.c ****         UART_1_CTRL_REG |= UART_1_CTRL_ENABLED;
 150:./Generated_Source/PSoC4/uart_1.c **** 
 151:./Generated_Source/PSoC4/uart_1.c ****         UART_1_ScbEnableIntr();
 152:./Generated_Source/PSoC4/uart_1.c ****     }
 153:./Generated_Source/PSoC4/uart_1.c **** #else
 154:./Generated_Source/PSoC4/uart_1.c ****     UART_1_CTRL_REG |= UART_1_CTRL_ENABLED;
 366              		.loc 3 154 0
 367 0002 054B     		ldr	r3, .L32
 368 0004 8022     		mov	r2, #128
 369 0006 1968     		ldr	r1, [r3]
 370 0008 1006     		lsl	r0, r2, #24
 371 000a 0843     		orr	r0, r1
 372 000c 1860     		str	r0, [r3]
 373              	.LBB34:
 374              	.LBB35:
 155:./Generated_Source/PSoC4/uart_1.c **** 
 156:./Generated_Source/PSoC4/uart_1.c ****     UART_1_ScbEnableIntr();
 157:./Generated_Source/PSoC4/uart_1.c **** #endif /* (UART_1_SCB_MODE_UNCONFIG_CONST_CFG) */
 158:./Generated_Source/PSoC4/uart_1.c **** }
ARM GAS  C:\Users\ZHANGM~1\AppData\Local\Temp\ccrd4w1B.s 			page 17


 159:./Generated_Source/PSoC4/uart_1.c **** 
 160:./Generated_Source/PSoC4/uart_1.c **** 
 161:./Generated_Source/PSoC4/uart_1.c **** /*******************************************************************************
 162:./Generated_Source/PSoC4/uart_1.c **** * Function Name: UART_1_Start
 163:./Generated_Source/PSoC4/uart_1.c **** ********************************************************************************
 164:./Generated_Source/PSoC4/uart_1.c **** *
 165:./Generated_Source/PSoC4/uart_1.c **** * Summary:
 166:./Generated_Source/PSoC4/uart_1.c **** *  Invokes SCB_Init() and SCB_Enable().
 167:./Generated_Source/PSoC4/uart_1.c **** *  After this function call, the component is enabled and ready for operation.
 168:./Generated_Source/PSoC4/uart_1.c **** *  When configuration is set to °∞Unconfigured SCB°±, the component must first be
 169:./Generated_Source/PSoC4/uart_1.c **** *  initialized to operate in one of the following configurations: I2C, SPI, UART
 170:./Generated_Source/PSoC4/uart_1.c **** *  or EZ I2C. Otherwise this function does not enable the component.
 171:./Generated_Source/PSoC4/uart_1.c **** *
 172:./Generated_Source/PSoC4/uart_1.c **** * Parameters:
 173:./Generated_Source/PSoC4/uart_1.c **** *  None
 174:./Generated_Source/PSoC4/uart_1.c **** *
 175:./Generated_Source/PSoC4/uart_1.c **** * Return:
 176:./Generated_Source/PSoC4/uart_1.c **** *  None
 177:./Generated_Source/PSoC4/uart_1.c **** *
 178:./Generated_Source/PSoC4/uart_1.c **** * Global variables:
 179:./Generated_Source/PSoC4/uart_1.c **** *  UART_1_initVar - used to check initial configuration, modified
 180:./Generated_Source/PSoC4/uart_1.c **** *  on first function call.
 181:./Generated_Source/PSoC4/uart_1.c **** *
 182:./Generated_Source/PSoC4/uart_1.c **** *******************************************************************************/
 183:./Generated_Source/PSoC4/uart_1.c **** void UART_1_Start(void)
 184:./Generated_Source/PSoC4/uart_1.c **** {
 185:./Generated_Source/PSoC4/uart_1.c ****     if(0u == UART_1_initVar)
 186:./Generated_Source/PSoC4/uart_1.c ****     {
 187:./Generated_Source/PSoC4/uart_1.c ****         UART_1_Init();
 188:./Generated_Source/PSoC4/uart_1.c ****         UART_1_initVar = 1u; /* Component was initialized */
 189:./Generated_Source/PSoC4/uart_1.c ****     }
 190:./Generated_Source/PSoC4/uart_1.c **** 
 191:./Generated_Source/PSoC4/uart_1.c ****     UART_1_Enable();
 192:./Generated_Source/PSoC4/uart_1.c **** }
 193:./Generated_Source/PSoC4/uart_1.c **** 
 194:./Generated_Source/PSoC4/uart_1.c **** 
 195:./Generated_Source/PSoC4/uart_1.c **** /*******************************************************************************
 196:./Generated_Source/PSoC4/uart_1.c **** * Function Name: UART_1_Stop
 197:./Generated_Source/PSoC4/uart_1.c **** ********************************************************************************
 198:./Generated_Source/PSoC4/uart_1.c **** *
 199:./Generated_Source/PSoC4/uart_1.c **** * Summary:
 200:./Generated_Source/PSoC4/uart_1.c **** *  Disables the SCB component and its interrupt.
 201:./Generated_Source/PSoC4/uart_1.c **** *
 202:./Generated_Source/PSoC4/uart_1.c **** * Parameters:
 203:./Generated_Source/PSoC4/uart_1.c **** *  None
 204:./Generated_Source/PSoC4/uart_1.c **** *
 205:./Generated_Source/PSoC4/uart_1.c **** * Return:
 206:./Generated_Source/PSoC4/uart_1.c **** *  None
 207:./Generated_Source/PSoC4/uart_1.c **** *
 208:./Generated_Source/PSoC4/uart_1.c **** *******************************************************************************/
 209:./Generated_Source/PSoC4/uart_1.c **** void UART_1_Stop(void)
 210:./Generated_Source/PSoC4/uart_1.c **** {
 211:./Generated_Source/PSoC4/uart_1.c **** #if(UART_1_SCB_IRQ_INTERNAL)
 212:./Generated_Source/PSoC4/uart_1.c ****     UART_1_DisableInt();
 213:./Generated_Source/PSoC4/uart_1.c **** #endif /* (UART_1_SCB_IRQ_INTERNAL) */
 214:./Generated_Source/PSoC4/uart_1.c **** 
 215:./Generated_Source/PSoC4/uart_1.c ****     UART_1_CTRL_REG &= (uint32) ~UART_1_CTRL_ENABLED;  /* Disable SCB block */
ARM GAS  C:\Users\ZHANGM~1\AppData\Local\Temp\ccrd4w1B.s 			page 18


 216:./Generated_Source/PSoC4/uart_1.c **** 
 217:./Generated_Source/PSoC4/uart_1.c **** #if(UART_1_SCB_IRQ_INTERNAL)
 218:./Generated_Source/PSoC4/uart_1.c ****     UART_1_ClearPendingInt();
 219:./Generated_Source/PSoC4/uart_1.c **** #endif /* (UART_1_SCB_IRQ_INTERNAL) */
 220:./Generated_Source/PSoC4/uart_1.c **** 
 221:./Generated_Source/PSoC4/uart_1.c ****     UART_1_ScbModeStop(); /* Calls scbMode specific Stop function */
 222:./Generated_Source/PSoC4/uart_1.c **** }
 223:./Generated_Source/PSoC4/uart_1.c **** 
 224:./Generated_Source/PSoC4/uart_1.c **** 
 225:./Generated_Source/PSoC4/uart_1.c **** /*******************************************************************************
 226:./Generated_Source/PSoC4/uart_1.c **** * Function Name: UART_1_SetCustomInterruptHandler
 227:./Generated_Source/PSoC4/uart_1.c **** ********************************************************************************
 228:./Generated_Source/PSoC4/uart_1.c **** *
 229:./Generated_Source/PSoC4/uart_1.c **** * Summary:
 230:./Generated_Source/PSoC4/uart_1.c **** *  Registers a function to be called by the internal interrupt handler.
 231:./Generated_Source/PSoC4/uart_1.c **** *  First the function that is registered is called, then the internal interrupt
 232:./Generated_Source/PSoC4/uart_1.c **** *  handler performs any operations such as software buffer management functions
 233:./Generated_Source/PSoC4/uart_1.c **** *  before the interrupt returns.  It is the user's responsibility not to break the
 234:./Generated_Source/PSoC4/uart_1.c **** *  software buffer operations. Only one custom handler is supported, which is
 235:./Generated_Source/PSoC4/uart_1.c **** *  the function provided by the most recent call.
 236:./Generated_Source/PSoC4/uart_1.c **** *  At initialization time no custom handler is registered.
 237:./Generated_Source/PSoC4/uart_1.c **** *
 238:./Generated_Source/PSoC4/uart_1.c **** * Parameters:
 239:./Generated_Source/PSoC4/uart_1.c **** *  func: Pointer to the function to register.
 240:./Generated_Source/PSoC4/uart_1.c **** *        The value NULL indicates to remove the current custom interrupt
 241:./Generated_Source/PSoC4/uart_1.c **** *        handler.
 242:./Generated_Source/PSoC4/uart_1.c **** *
 243:./Generated_Source/PSoC4/uart_1.c **** * Return:
 244:./Generated_Source/PSoC4/uart_1.c **** *  None
 245:./Generated_Source/PSoC4/uart_1.c **** *
 246:./Generated_Source/PSoC4/uart_1.c **** *******************************************************************************/
 247:./Generated_Source/PSoC4/uart_1.c **** void UART_1_SetCustomInterruptHandler(cyisraddress func)
 248:./Generated_Source/PSoC4/uart_1.c **** {
 249:./Generated_Source/PSoC4/uart_1.c **** #if !defined (CY_REMOVE_UART_1_CUSTOM_INTR_HANDLER)
 250:./Generated_Source/PSoC4/uart_1.c ****     UART_1_customIntrHandler = func; /* Register interrupt handler */
 251:./Generated_Source/PSoC4/uart_1.c **** #else
 252:./Generated_Source/PSoC4/uart_1.c ****     if(NULL != func)
 253:./Generated_Source/PSoC4/uart_1.c ****     {
 254:./Generated_Source/PSoC4/uart_1.c ****         /* Suppress compiler warning */
 255:./Generated_Source/PSoC4/uart_1.c ****     }
 256:./Generated_Source/PSoC4/uart_1.c **** #endif /* !defined (CY_REMOVE_UART_1_CUSTOM_INTR_HANDLER) */
 257:./Generated_Source/PSoC4/uart_1.c **** }
 258:./Generated_Source/PSoC4/uart_1.c **** 
 259:./Generated_Source/PSoC4/uart_1.c **** 
 260:./Generated_Source/PSoC4/uart_1.c **** /*******************************************************************************
 261:./Generated_Source/PSoC4/uart_1.c **** * Function Name: UART_1_ScbModeEnableIntr
 262:./Generated_Source/PSoC4/uart_1.c **** ********************************************************************************
 263:./Generated_Source/PSoC4/uart_1.c **** *
 264:./Generated_Source/PSoC4/uart_1.c **** * Summary:
 265:./Generated_Source/PSoC4/uart_1.c **** *  Enables an interrupt for a specific mode.
 266:./Generated_Source/PSoC4/uart_1.c **** *
 267:./Generated_Source/PSoC4/uart_1.c **** * Parameters:
 268:./Generated_Source/PSoC4/uart_1.c **** *  None
 269:./Generated_Source/PSoC4/uart_1.c **** *
 270:./Generated_Source/PSoC4/uart_1.c **** * Return:
 271:./Generated_Source/PSoC4/uart_1.c **** *  None
 272:./Generated_Source/PSoC4/uart_1.c **** *
ARM GAS  C:\Users\ZHANGM~1\AppData\Local\Temp\ccrd4w1B.s 			page 19


 273:./Generated_Source/PSoC4/uart_1.c **** *******************************************************************************/
 274:./Generated_Source/PSoC4/uart_1.c **** static void UART_1_ScbEnableIntr(void)
 275:./Generated_Source/PSoC4/uart_1.c **** {
 276:./Generated_Source/PSoC4/uart_1.c **** #if(UART_1_SCB_IRQ_INTERNAL)
 277:./Generated_Source/PSoC4/uart_1.c ****     #if(UART_1_SCB_MODE_UNCONFIG_CONST_CFG)
 278:./Generated_Source/PSoC4/uart_1.c ****         /* Enable interrupt in the NVIC */
 279:./Generated_Source/PSoC4/uart_1.c ****         if(0u != UART_1_scbEnableIntr)
 280:./Generated_Source/PSoC4/uart_1.c ****         {
 281:./Generated_Source/PSoC4/uart_1.c ****             UART_1_EnableInt();
 282:./Generated_Source/PSoC4/uart_1.c ****         }
 283:./Generated_Source/PSoC4/uart_1.c ****     #else
 284:./Generated_Source/PSoC4/uart_1.c ****         UART_1_EnableInt();
 375              		.loc 3 284 0
 376 000e 0A20     		mov	r0, #10
 377 0010 FFF7FEFF 		bl	CyIntEnable
 378              	.LVL15:
 379              	.LBE35:
 380              	.LBE34:
 158:./Generated_Source/PSoC4/uart_1.c **** }
 381              		.loc 3 158 0
 382              		@ sp needed for prologue
 383 0014 08BD     		pop	{r3, pc}
 384              	.L33:
 385 0016 C046     		.align	2
 386              	.L32:
 387 0018 00000640 		.word	1074135040
 388              		.cfi_endproc
 389              	.LFE41:
 390              		.size	UART_1_Enable, .-UART_1_Enable
 391              		.section	.text.UART_1_Start,"ax",%progbits
 392              		.align	1
 393              		.global	UART_1_Start
 394              		.code	16
 395              		.thumb_func
 396              		.type	UART_1_Start, %function
 397              	UART_1_Start:
 398              	.LFB42:
 184:./Generated_Source/PSoC4/uart_1.c **** {
 399              		.loc 3 184 0
 400              		.cfi_startproc
 401 0000 10B5     		push	{r4, lr}
 402              	.LCFI8:
 403              		.cfi_def_cfa_offset 8
 404              		.cfi_offset 4, -8
 405              		.cfi_offset 14, -4
 185:./Generated_Source/PSoC4/uart_1.c ****     if(0u == UART_1_initVar)
 406              		.loc 3 185 0
 407 0002 054C     		ldr	r4, .L36
 408 0004 237A     		ldrb	r3, [r4, #8]
 409 0006 002B     		cmp	r3, #0
 410 0008 03D1     		bne	.L35
 411              	.LBB36:
 412              	.LBB37:
 118:./Generated_Source/PSoC4/uart_1.c ****     UART_1_UartInit();
 413              		.loc 3 118 0
 414 000a FFF7FEFF 		bl	UART_1_UartInit
 415              	.LVL16:
ARM GAS  C:\Users\ZHANGM~1\AppData\Local\Temp\ccrd4w1B.s 			page 20


 416              	.LBE37:
 417              	.LBE36:
 188:./Generated_Source/PSoC4/uart_1.c ****         UART_1_initVar = 1u; /* Component was initialized */
 418              		.loc 3 188 0
 419 000e 0120     		mov	r0, #1
 420 0010 2072     		strb	r0, [r4, #8]
 421              	.L35:
 191:./Generated_Source/PSoC4/uart_1.c ****     UART_1_Enable();
 422              		.loc 3 191 0
 423 0012 FFF7FEFF 		bl	UART_1_Enable
 424              	.LVL17:
 192:./Generated_Source/PSoC4/uart_1.c **** }
 425              		.loc 3 192 0
 426              		@ sp needed for prologue
 427 0016 10BD     		pop	{r4, pc}
 428              	.L37:
 429              		.align	2
 430              	.L36:
 431 0018 00000000 		.word	.LANCHOR0
 432              		.cfi_endproc
 433              	.LFE42:
 434              		.size	UART_1_Start, .-UART_1_Start
 435              		.section	.text.UART_1_Stop,"ax",%progbits
 436              		.align	1
 437              		.global	UART_1_Stop
 438              		.code	16
 439              		.thumb_func
 440              		.type	UART_1_Stop, %function
 441              	UART_1_Stop:
 442              	.LFB43:
 210:./Generated_Source/PSoC4/uart_1.c **** {
 443              		.loc 3 210 0
 444              		.cfi_startproc
 445 0000 08B5     		push	{r3, lr}
 446              	.LCFI9:
 447              		.cfi_def_cfa_offset 8
 448              		.cfi_offset 3, -8
 449              		.cfi_offset 14, -4
 212:./Generated_Source/PSoC4/uart_1.c ****     UART_1_DisableInt();
 450              		.loc 3 212 0
 451 0002 0A20     		mov	r0, #10
 452 0004 FFF7FEFF 		bl	CyIntDisable
 453              	.LVL18:
 215:./Generated_Source/PSoC4/uart_1.c ****     UART_1_CTRL_REG &= (uint32) ~UART_1_CTRL_ENABLED;  /* Disable SCB block */
 454              		.loc 3 215 0
 455 0008 044B     		ldr	r3, .L39
 222:./Generated_Source/PSoC4/uart_1.c **** }
 456              		.loc 3 222 0
 457              		@ sp needed for prologue
 215:./Generated_Source/PSoC4/uart_1.c ****     UART_1_CTRL_REG &= (uint32) ~UART_1_CTRL_ENABLED;  /* Disable SCB block */
 458              		.loc 3 215 0
 459 000a 1A68     		ldr	r2, [r3]
 460 000c 5000     		lsl	r0, r2, #1
 461 000e 4108     		lsr	r1, r0, #1
 462 0010 1960     		str	r1, [r3]
 218:./Generated_Source/PSoC4/uart_1.c ****     UART_1_ClearPendingInt();
 463              		.loc 3 218 0
ARM GAS  C:\Users\ZHANGM~1\AppData\Local\Temp\ccrd4w1B.s 			page 21


 464 0012 0A20     		mov	r0, #10
 465 0014 FFF7FEFF 		bl	CyIntClearPending
 466              	.LVL19:
 222:./Generated_Source/PSoC4/uart_1.c **** }
 467              		.loc 3 222 0
 468 0018 08BD     		pop	{r3, pc}
 469              	.L40:
 470 001a C046     		.align	2
 471              	.L39:
 472 001c 00000640 		.word	1074135040
 473              		.cfi_endproc
 474              	.LFE43:
 475              		.size	UART_1_Stop, .-UART_1_Stop
 476              		.section	.text.UART_1_SetCustomInterruptHandler,"ax",%progbits
 477              		.align	1
 478              		.global	UART_1_SetCustomInterruptHandler
 479              		.code	16
 480              		.thumb_func
 481              		.type	UART_1_SetCustomInterruptHandler, %function
 482              	UART_1_SetCustomInterruptHandler:
 483              	.LFB44:
 248:./Generated_Source/PSoC4/uart_1.c **** {
 484              		.loc 3 248 0
 485              		.cfi_startproc
 486              	.LVL20:
 250:./Generated_Source/PSoC4/uart_1.c ****     UART_1_customIntrHandler = func; /* Register interrupt handler */
 487              		.loc 3 250 0
 488 0000 014B     		ldr	r3, .L42
 257:./Generated_Source/PSoC4/uart_1.c **** }
 489              		.loc 3 257 0
 490              		@ sp needed for prologue
 250:./Generated_Source/PSoC4/uart_1.c ****     UART_1_customIntrHandler = func; /* Register interrupt handler */
 491              		.loc 3 250 0
 492 0002 D860     		str	r0, [r3, #12]
 257:./Generated_Source/PSoC4/uart_1.c **** }
 493              		.loc 3 257 0
 494 0004 7047     		bx	lr
 495              	.L43:
 496 0006 C046     		.align	2
 497              	.L42:
 498 0008 00000000 		.word	.LANCHOR0
 499              		.cfi_endproc
 500              	.LFE44:
 501              		.size	UART_1_SetCustomInterruptHandler, .-UART_1_SetCustomInterruptHandler
 502              		.section	.text.isr_wdt,"ax",%progbits
 503              		.align	1
 504              		.global	isr_wdt
 505              		.code	16
 506              		.thumb_func
 507              		.type	isr_wdt, %function
 508              	isr_wdt:
 509              	.LFB49:
  67:.\main.c      **** 
  68:.\main.c      **** 
  69:.\main.c      **** CY_ISR(isr_wdt)
  70:.\main.c      **** {
 510              		.loc 1 70 0
ARM GAS  C:\Users\ZHANGM~1\AppData\Local\Temp\ccrd4w1B.s 			page 22


 511              		.cfi_startproc
 512 0000 08B5     		push	{r3, lr}
 513              	.LCFI10:
 514              		.cfi_def_cfa_offset 8
 515              		.cfi_offset 3, -8
 516              		.cfi_offset 14, -4
  71:.\main.c      ****     /* Clear interrupts state */
  72:.\main.c      ****     CySysWdtClearInterrupt(CY_SYS_WDT_COUNTER0_INT);
 517              		.loc 1 72 0
 518 0002 0420     		mov	r0, #4
 519 0004 FFF7FEFF 		bl	CySysWdtClearInterrupt
 520              	.LVL21:
  73:.\main.c      ****     CyIntClearPending(9);
 521              		.loc 1 73 0
 522 0008 0920     		mov	r0, #9
 523 000a FFF7FEFF 		bl	CyIntClearPending
 524              	.LVL22:
  74:.\main.c      ****     CySoftwareReset();
  75:.\main.c      ****     
  76:.\main.c      ****     //REDLED_Write(!REDLED_Read());
  77:.\main.c      **** }
 525              		.loc 1 77 0
 526              		@ sp needed for prologue
  74:.\main.c      ****     CySoftwareReset();
 527              		.loc 1 74 0
 528 000e FFF7FEFF 		bl	CySoftwareReset
 529              	.LVL23:
 530              		.loc 1 77 0
 531 0012 08BD     		pop	{r3, pc}
 532              		.cfi_endproc
 533              	.LFE49:
 534              		.size	isr_wdt, .-isr_wdt
 535              		.section	.text.isr_lowpower_Interrupt,"ax",%progbits
 536              		.align	1
 537              		.global	isr_lowpower_Interrupt
 538              		.code	16
 539              		.thumb_func
 540              		.type	isr_lowpower_Interrupt, %function
 541              	isr_lowpower_Interrupt:
 542              	.LFB50:
  78:.\main.c      **** 
  79:.\main.c      **** CY_ISR(isr_lowpower_Interrupt)
  80:.\main.c      **** {
 543              		.loc 1 80 0
 544              		.cfi_startproc
 545 0000 08B5     		push	{r3, lr}
 546              	.LCFI11:
 547              		.cfi_def_cfa_offset 8
 548              		.cfi_offset 3, -8
 549              		.cfi_offset 14, -4
  81:.\main.c      ****         CySoftwareReset(); 
 550              		.loc 1 81 0
 551 0002 FFF7FEFF 		bl	CySoftwareReset
 552              	.LVL24:
  82:.\main.c      **** }
 553              		.loc 1 82 0
 554              		@ sp needed for prologue
ARM GAS  C:\Users\ZHANGM~1\AppData\Local\Temp\ccrd4w1B.s 			page 23


 555 0006 08BD     		pop	{r3, pc}
 556              		.cfi_endproc
 557              	.LFE50:
 558              		.size	isr_lowpower_Interrupt, .-isr_lowpower_Interrupt
 559              		.section	.text.Open_UART_WIFI_ISR,"ax",%progbits
 560              		.align	1
 561              		.global	Open_UART_WIFI_ISR
 562              		.code	16
 563              		.thumb_func
 564              		.type	Open_UART_WIFI_ISR, %function
 565              	Open_UART_WIFI_ISR:
 566              	.LFB51:
  83:.\main.c      **** /*CY_ISR(V24ISR)
  84:.\main.c      **** {
  85:.\main.c      ****     
  86:.\main.c      ****    // CyGlobalIntDisable;//ÂÖ≥ÂÖ®Â±Ä‰∏≠Êñ≠
  87:.\main.c      ****     V24_IN_ISR_Disable();
  88:.\main.c      ****     while(V24dengdai==0)
  89:.\main.c      ****     {
  90:.\main.c      ****         if(V24V_Read()==1)
  91:.\main.c      ****         {
  92:.\main.c      ****            
  93:.\main.c      ****             V24Vcnt++;
  94:.\main.c      ****             if(V24Vcnt>100)
  95:.\main.c      ****             {  
  96:.\main.c      ****                 V24dengdai=1; 
  97:.\main.c      ****                 V24Vcnt=0;
  98:.\main.c      ****             }    
  99:.\main.c      ****         }    
 100:.\main.c      **** 
 101:.\main.c      ****         else
 102:.\main.c      ****         {
 103:.\main.c      ****             V24Vcnt=0;
 104:.\main.c      ****              V24dengdai=0; 
 105:.\main.c      ****               V24_IN_ISR_Enable();
 106:.\main.c      ****               return;
 107:.\main.c      ****             
 108:.\main.c      ****         } 
 109:.\main.c      ****     }
 110:.\main.c      ****      V24dengdai=0;
 111:.\main.c      ****     
 112:.\main.c      ****     Stop_All_Module();
 113:.\main.c      ****     COMN_Write(0);
 114:.\main.c      ****     S164_Trans_abyte(0xffffffff);
 115:.\main.c      ****    // HCLK_Write(0);
 116:.\main.c      ****     //HSDA_Write(0); 
 117:.\main.c      ****     JS_SetDriveMode(JS_DM_STRONG); //Âèò‰∏∫ËæìÂá∫Ê®°Âºè
 118:.\main.c      ****     JS_Write(0);
 119:.\main.c      ****     CX_SetDriveMode(CX_DM_STRONG);//Âèò‰∏∫ËæìÂá∫Ê®°Âºè
 120:.\main.c      ****     CX_Write(0);
 121:.\main.c      ****     K2_Write(0);
 122:.\main.c      ****     K1_Write(0);
 123:.\main.c      ****     FMQ_Write(0);
 124:.\main.c      ****     if(cleareepromArrayflag==1)
 125:.\main.c      ****     	{
 126:.\main.c      ****     		cleareepromArrayflag=0;
 127:.\main.c      ****     		cleareepromArray();  
ARM GAS  C:\Users\ZHANGM~1\AppData\Local\Temp\ccrd4w1B.s 			page 24


 128:.\main.c      ****     	}
 129:.\main.c      ****     else   
 130:.\main.c      ****     	write1();
 131:.\main.c      ****     
 132:.\main.c      ****     clearwdt();    
 133:.\main.c      ****     CyDelayUs(1000);
 134:.\main.c      ****     
 135:.\main.c      ****     
 136:.\main.c      ****     
 137:.\main.c      ****    while(V24fig==0)
 138:.\main.c      ****    {
 139:.\main.c      ****        if(V24V_Read()==1)
 140:.\main.c      ****             V24fig=0;
 141:.\main.c      ****        else
 142:.\main.c      ****             V24fig=1; 
 143:.\main.c      ****     
 144:.\main.c      **** 
 145:.\main.c      ****    }
 146:.\main.c      **** 
 147:.\main.c      ****     V24fig=0; 
 148:.\main.c      ****  CySoftwareReset();
 149:.\main.c      ****     
 150:.\main.c      ****    
 151:.\main.c      ****     
 152:.\main.c      ****     
 153:.\main.c      **** 
 154:.\main.c      **** }*/
 155:.\main.c      **** /*******************************************************************************
 156:.\main.c      **** *                       POWEROVER
 157:.\main.c      **** ********************************************************************************/
 158:.\main.c      **** void Open_UART_WIFI_ISR(void)
 159:.\main.c      **** {   
 567              		.loc 1 159 0
 568              		.cfi_startproc
 569 0000 08B5     		push	{r3, lr}
 570              	.LCFI12:
 571              		.cfi_def_cfa_offset 8
 572              		.cfi_offset 3, -8
 573              		.cfi_offset 14, -4
 574              	.LBB38:
 575              	.LBB39:
 118:./Generated_Source/PSoC4/uart_0.c ****     UART_0_UartInit();
 576              		.loc 2 118 0
 577 0002 FFF7FEFF 		bl	UART_0_UartInit
 578              	.LVL25:
 579              	.LBE39:
 580              	.LBE38:
 160:.\main.c      ****   UART_0_Init();
 161:.\main.c      ****   UART_0_Enable();
 581              		.loc 1 161 0
 582 0006 FFF7FEFF 		bl	UART_0_Enable
 583              	.LVL26:
 162:.\main.c      ****   UART_0_Start();
 584              		.loc 1 162 0
 585 000a FFF7FEFF 		bl	UART_0_Start
 586              	.LVL27:
 587              	.LBB40:
ARM GAS  C:\Users\ZHANGM~1\AppData\Local\Temp\ccrd4w1B.s 			page 25


 588              	.LBB41:
 250:./Generated_Source/PSoC4/uart_0.c ****     UART_0_customIntrHandler = func; /* Register interrupt handler */
 589              		.loc 2 250 0
 590 000e 024A     		ldr	r2, .L47
 591 0010 024B     		ldr	r3, .L47+4
 592              	.LBE41:
 593              	.LBE40:
 163:.\main.c      ****   UART_0_SetCustomInterruptHandler(UART_ISR_0_FUN);
 164:.\main.c      ****   //UART_0_SpiUartClearRxBuffer();   
 165:.\main.c      **** }
 594              		.loc 1 165 0
 595              		@ sp needed for prologue
 596              	.LBB43:
 597              	.LBB42:
 250:./Generated_Source/PSoC4/uart_0.c ****     UART_0_customIntrHandler = func; /* Register interrupt handler */
 598              		.loc 2 250 0
 599 0012 5A60     		str	r2, [r3, #4]
 600              	.LBE42:
 601              	.LBE43:
 602              		.loc 1 165 0
 603 0014 08BD     		pop	{r3, pc}
 604              	.L48:
 605 0016 C046     		.align	2
 606              	.L47:
 607 0018 00000000 		.word	UART_ISR_0_FUN
 608 001c 00000000 		.word	.LANCHOR0
 609              		.cfi_endproc
 610              	.LFE51:
 611              		.size	Open_UART_WIFI_ISR, .-Open_UART_WIFI_ISR
 612              		.section	.text.Open_UART_TDS_ISR,"ax",%progbits
 613              		.align	1
 614              		.global	Open_UART_TDS_ISR
 615              		.code	16
 616              		.thumb_func
 617              		.type	Open_UART_TDS_ISR, %function
 618              	Open_UART_TDS_ISR:
 619              	.LFB52:
 166:.\main.c      **** /*******************************************************************************
 167:.\main.c      **** *                       POWEROVER
 168:.\main.c      **** ********************************************************************************/
 169:.\main.c      **** void Open_UART_TDS_ISR(void)
 170:.\main.c      **** {   
 620              		.loc 1 170 0
 621              		.cfi_startproc
 622 0000 08B5     		push	{r3, lr}
 623              	.LCFI13:
 624              		.cfi_def_cfa_offset 8
 625              		.cfi_offset 3, -8
 626              		.cfi_offset 14, -4
 627              	.LBB44:
 628              	.LBB45:
 118:./Generated_Source/PSoC4/uart_1.c ****     UART_1_UartInit();
 629              		.loc 3 118 0
 630 0002 FFF7FEFF 		bl	UART_1_UartInit
 631              	.LVL28:
 632              	.LBE45:
 633              	.LBE44:
ARM GAS  C:\Users\ZHANGM~1\AppData\Local\Temp\ccrd4w1B.s 			page 26


 171:.\main.c      ****   UART_1_Init();
 172:.\main.c      ****   UART_1_Enable();
 634              		.loc 1 172 0
 635 0006 FFF7FEFF 		bl	UART_1_Enable
 636              	.LVL29:
 173:.\main.c      ****   UART_1_Start();
 637              		.loc 1 173 0
 638 000a FFF7FEFF 		bl	UART_1_Start
 639              	.LVL30:
 640              	.LBB46:
 641              	.LBB47:
 250:./Generated_Source/PSoC4/uart_1.c ****     UART_1_customIntrHandler = func; /* Register interrupt handler */
 642              		.loc 3 250 0
 643 000e 024A     		ldr	r2, .L50
 644 0010 024B     		ldr	r3, .L50+4
 645              	.LBE47:
 646              	.LBE46:
 174:.\main.c      ****   UART_1_SetCustomInterruptHandler(UART_ISR_1_FUN);
 175:.\main.c      ****  // UART_1_SpiUartClearRxBuffer();
 176:.\main.c      **** }
 647              		.loc 1 176 0
 648              		@ sp needed for prologue
 649              	.LBB49:
 650              	.LBB48:
 250:./Generated_Source/PSoC4/uart_1.c ****     UART_1_customIntrHandler = func; /* Register interrupt handler */
 651              		.loc 3 250 0
 652 0012 DA60     		str	r2, [r3, #12]
 653              	.LBE48:
 654              	.LBE49:
 655              		.loc 1 176 0
 656 0014 08BD     		pop	{r3, pc}
 657              	.L51:
 658 0016 C046     		.align	2
 659              	.L50:
 660 0018 00000000 		.word	UART_ISR_1_FUN
 661 001c 00000000 		.word	.LANCHOR0
 662              		.cfi_endproc
 663              	.LFE52:
 664              		.size	Open_UART_TDS_ISR, .-Open_UART_TDS_ISR
 665              		.section	.text.startup.main,"ax",%progbits
 666              		.align	1
 667              		.global	main
 668              		.code	16
 669              		.thumb_func
 670              		.type	main, %function
 671              	main:
 672              	.LFB53:
 177:.\main.c      **** /*******************************************************************************
 178:.\main.c      **** *                       POWEROVER
 179:.\main.c      **** ********************************************************************************/
 180:.\main.c      **** //void Open_V24_IN_ISR(void)
 181:.\main.c      **** //{
 182:.\main.c      **** //    V24_IN_ISR_Disable();
 183:.\main.c      **** //
 184:.\main.c      **** //    /* Set the ISR to point to the V24_IN_ISR Interrupt. */
 185:.\main.c      **** //    V24_IN_ISR_SetVector(V24ISR);
 186:.\main.c      **** //
ARM GAS  C:\Users\ZHANGM~1\AppData\Local\Temp\ccrd4w1B.s 			page 27


 187:.\main.c      **** //    /* Set the priority. */
 188:.\main.c      **** //    V24_IN_ISR_SetPriority(1);
 189:.\main.c      **** //
 190:.\main.c      **** //    /* Enable it. */
 191:.\main.c      **** //    V24_IN_ISR_Enable();
 192:.\main.c      **** //
 193:.\main.c      **** //}
 194:.\main.c      **** /*******************************************************************************
 195:.\main.c      **** *                       POWER brownout
 196:.\main.c      **** ********************************************************************************/
 197:.\main.c      **** //void Open_POWERLOW_ISR(void)
 198:.\main.c      **** //{
 199:.\main.c      **** //        /* For all we know the interrupt is active. */
 200:.\main.c      **** //    isr_lowpower_1_Disable();
 201:.\main.c      **** //
 202:.\main.c      **** //    /* Set the ISR to point to the isr_lowpower Interrupt. */
 203:.\main.c      **** //   isr_lowpower_1_SetVector(isr_lowpower_Interrupt);
 204:.\main.c      **** //
 205:.\main.c      **** //    /* Set the priority. */
 206:.\main.c      **** //    isr_lowpower_1_SetPriority(0);
 207:.\main.c      **** //
 208:.\main.c      **** //    /* Enable it. */
 209:.\main.c      **** //    isr_lowpower_1_Enable();
 210:.\main.c      **** //
 211:.\main.c      **** //}
 212:.\main.c      **** int main()
 213:.\main.c      **** {
 673              		.loc 1 213 0
 674              		.cfi_startproc
 214:.\main.c      **** 	
 215:.\main.c      ****     uint8 ij;
 216:.\main.c      ****     #if (CapSense_TUNER_API_GENERATE)
 217:.\main.c      ****         /* Enable global interrupts */
 218:.\main.c      ****         CyGlobalIntEnable;
 219:.\main.c      ****         
 220:.\main.c      **** 
 221:.\main.c      ****         /* Initialize CapSense CSD and EzI2C Start the sensor scanning loop */
 222:.\main.c      ****         CapSense_TunerStart();
 223:.\main.c      ****         
 224:.\main.c      ****         while(1u)
 225:.\main.c      ****         {
 226:.\main.c      ****             /* Process scanning results and communicates with Tuner GUI */
 227:.\main.c      ****             CapSense_TunerComm();
 228:.\main.c      **** 
 229:.\main.c      ****         }
 230:.\main.c      ****     #else
 231:.\main.c      ****         /* Place your initialization/startup code here (e.g. MyInst_Start()) */
 232:.\main.c      ****         
 233:.\main.c      ****       //  ADC_Initial();
 234:.\main.c      ****       
 235:.\main.c      ****         CyDelay(1000);
 675              		.loc 1 235 0
 676 0000 FA20     		mov	r0, #250
 213:.\main.c      **** {
 677              		.loc 1 213 0
 678 0002 38B5     		push	{r3, r4, r5, lr}
 679              	.LCFI14:
ARM GAS  C:\Users\ZHANGM~1\AppData\Local\Temp\ccrd4w1B.s 			page 28


 680              		.cfi_def_cfa_offset 16
 681              		.cfi_offset 3, -16
 682              		.cfi_offset 4, -12
 683              		.cfi_offset 5, -8
 684              		.cfi_offset 14, -4
 685              		.loc 1 235 0
 686 0004 8000     		lsl	r0, r0, #2
 687 0006 FFF7FEFF 		bl	CyDelay
 688              	.LVL31:
 236:.\main.c      ****         //Eme2prom_Initial();
 237:.\main.c      ****         read();
 689              		.loc 1 237 0
 690 000a FFF7FEFF 		bl	read
 691              	.LVL32:
 238:.\main.c      ****     CyGlobalIntEnable; /* Uncomment this line to enable global interrupts. */     
 692              		.loc 1 238 0
 693              	@ 238 ".\main.c" 1
 694 000e 62B6     		CPSIE   i
 695              	@ 0 "" 2
 239:.\main.c      ****       // V24_IN_ISR_Stop();        
 240:.\main.c      ****         Caps_Initial();
 696              		.loc 1 240 0
 697              		.code	16
 698 0010 FFF7FEFF 		bl	Caps_Initial
 699              	.LVL33:
 241:.\main.c      ****         Timer_Initial();      
 700              		.loc 1 241 0
 701 0014 FFF7FEFF 		bl	Timer_Initial
 702              	.LVL34:
 242:.\main.c      ****         Pwm_Initial();
 703              		.loc 1 242 0
 704 0018 FFF7FEFF 		bl	Pwm_Initial
 705              	.LVL35:
 243:.\main.c      ****         Led_Pannel_Initial();        
 706              		.loc 1 243 0
 707 001c FFF7FEFF 		bl	Led_Pannel_Initial
 708              	.LVL36:
 244:.\main.c      ****         //Judge_Type();       //Âà§Êñ≠Êú∫Âûã
 245:.\main.c      **** 
 246:.\main.c      ****        // Read_E2prom();      //ËØªÂèñÂÜÖÈÉ®E2prom
 247:.\main.c      ****         //BUZfkg=1;
 248:.\main.c      ****       //  Work_Init_Fun();
 249:.\main.c      ****         init();
 709              		.loc 1 249 0
 710 0020 FFF7FEFF 		bl	init
 711              	.LVL37:
 250:.\main.c      ****         V24fig=0; 
 712              		.loc 1 250 0
 713 0024 294B     		ldr	r3, .L60
 714 0026 0022     		mov	r2, #0
 715 0028 1A70     		strb	r2, [r3]
 251:.\main.c      ****         /* Start WDT */
 252:.\main.c      ****     /* Configure WDT counter 0's interrupt */
 253:.\main.c      ****     //CyIntSetVector(9, isr_wdt);
 254:.\main.c      ****     //CyIntEnable(9);
 255:.\main.c      ****     /* Configure WDT counter 0 */
 256:.\main.c      **** //    CySysWdtUnlock(); /* Unlock WDT counter 0 for configuration */
ARM GAS  C:\Users\ZHANGM~1\AppData\Local\Temp\ccrd4w1B.s 			page 29


 257:.\main.c      **** //    CySysWdtWriteMode(CY_SYS_WDT_COUNTER0, CY_SYS_WDT_MODE_INT); /* Generate interrupts on TC */
 258:.\main.c      **** //    //CySysWdtWriteMatch(CY_SYS_WDT_COUNTER0, 32768 / 8); /* 8 interrupts per second ÁúãÈó®ÁãóÊó∂
 259:.\main.c      **** //    CySysWdtWriteMatch(CY_SYS_WDT_COUNTER0, 65535 );
 260:.\main.c      **** //    CySysWdtWriteClearOnMatch(CY_SYS_WDT_COUNTER0, 1); /* Enable WDT clear on match */
 261:.\main.c      **** //    CySysWdtEnable(CY_SYS_WDT_COUNTER0_MASK); /* Enable WDT counter 0 */
 262:.\main.c      **** //    CySysWdtLock(); /* Lock WDT counter 0's configuration */
 263:.\main.c      ****      lvxin_panduan(); 
 716              		.loc 1 263 0
 717 002a FFF7FEFF 		bl	lvxin_panduan
 718              	.LVL38:
 264:.\main.c      ****     //Open_POWERLOW_ISR();
 265:.\main.c      ****     	//clearwdt();
 266:.\main.c      ****      	for(ij=31;ij<128;ij++)
 719              		.loc 1 266 0
 720 002e 1F24     		mov	r4, #31
 721              	.LVL39:
 722              	.L53:
 267:.\main.c      ****         {    
 268:.\main.c      ****             array[ij]=0;               
 723              		.loc 1 268 0 discriminator 2
 724 0030 2749     		ldr	r1, .L60+4
 725 0032 0025     		mov	r5, #0
 726 0034 0D55     		strb	r5, [r1, r4]
 266:.\main.c      ****      	for(ij=31;ij<128;ij++)
 727              		.loc 1 266 0 discriminator 2
 728 0036 0134     		add	r4, r4, #1
 729 0038 E4B2     		uxtb	r4, r4
 730              	.LVL40:
 731 003a 802C     		cmp	r4, #128
 732 003c F8D1     		bne	.L53
 269:.\main.c      ****         }          
 270:.\main.c      ****       // CySysLvdEnable(CY_LVD_THRESHOLD_2_10_V); 
 271:.\main.c      ****       Open_UART_WIFI_ISR();       
 733              		.loc 1 271 0
 734 003e FFF7FEFF 		bl	Open_UART_WIFI_ISR
 735              	.LVL41:
 272:.\main.c      ****        Open_UART_TDS_ISR();
 736              		.loc 1 272 0
 737 0042 FFF7FEFF 		bl	Open_UART_TDS_ISR
 738              	.LVL42:
 273:.\main.c      ****        WorkFlag.uart_0_tx=1;
 739              		.loc 1 273 0
 740 0046 234C     		ldr	r4, .L60+8
 741              	.LVL43:
 742 0048 2022     		mov	r2, #32
 743 004a E078     		ldrb	r0, [r4, #3]
 744 004c 1043     		orr	r0, r2
 745 004e E070     		strb	r0, [r4, #3]
 274:.\main.c      ****        Load_Command(MCU_HANDSHAKE_DATA);
 746              		.loc 1 274 0
 747 0050 2148     		ldr	r0, .L60+12
 748 0052 FFF7FEFF 		bl	Load_Command
 749              	.LVL44:
 275:.\main.c      **** 				WorkFlag01.all=0x01;//ÊòæÁ§∫ÂàùÂßãÂåñ
 750              		.loc 1 275 0
 751 0056 214B     		ldr	r3, .L60+16
 276:.\main.c      **** 				WorkFlag01_Dispcnt=0;//ÊòæÁ§∫ÂàùÂßãÂåñ
ARM GAS  C:\Users\ZHANGM~1\AppData\Local\Temp\ccrd4w1B.s 			page 30


 752              		.loc 1 276 0
 753 0058 2148     		ldr	r0, .L60+20
 275:.\main.c      **** 				WorkFlag01.all=0x01;//ÊòæÁ§∫ÂàùÂßãÂåñ
 754              		.loc 1 275 0
 755 005a 0121     		mov	r1, #1
 277:.\main.c      ****       	Tds_Ack_Timer=30;
 756              		.loc 1 277 0
 757 005c 214A     		ldr	r2, .L60+24
 275:.\main.c      **** 				WorkFlag01.all=0x01;//ÊòæÁ§∫ÂàùÂßãÂåñ
 758              		.loc 1 275 0
 759 005e 1980     		strh	r1, [r3]
 276:.\main.c      **** 				WorkFlag01_Dispcnt=0;//ÊòæÁ§∫ÂàùÂßãÂåñ
 760              		.loc 1 276 0
 761 0060 0570     		strb	r5, [r0]
 278:.\main.c      ****       	Work_State.bit.waiting=1;
 762              		.loc 1 278 0
 763 0062 214B     		ldr	r3, .L60+28
 277:.\main.c      ****       	Tds_Ack_Timer=30;
 764              		.loc 1 277 0
 765 0064 1E25     		mov	r5, #30
 766 0066 1570     		strb	r5, [r2]
 767              		.loc 1 278 0
 768 0068 1878     		ldrb	r0, [r3]
 769 006a 0821     		mov	r1, #8
 770 006c 0843     		orr	r0, r1
 771 006e 1870     		strb	r0, [r3]
 279:.\main.c      ****       	WorkFlag.poweroff=0;
 772              		.loc 1 279 0
 773 0070 6578     		ldrb	r5, [r4, #1]
 280:.\main.c      ****       	WorkFlag.poweron=0;
 774              		.loc 1 280 0
 775 0072 3F22     		mov	r2, #63
 776 0074 2A40     		and	r2, r5
 777 0076 6270     		strb	r2, [r4, #1]
 778              	.L58:
 281:.\main.c      ****        
 282:.\main.c      ****        
 283:.\main.c      ****        //UART_Start();                      //ÂêØÂä®UART
 284:.\main.c      ****     
 285:.\main.c      ****     /* CyGlobalIntEnable; */ /* Uncomment this line to enable global interrupts. */
 286:.\main.c      ****     for(;;)
 287:.\main.c      ****     {
 288:.\main.c      ****         /* Get received character or zero if nothing has been received yet */
 289:.\main.c      ****         if(ch==0xaa)
 779              		.loc 1 289 0
 780 0078 1C4C     		ldr	r4, .L60+32
 781 007a 1D4B     		ldr	r3, .L60+36
 782 007c 2078     		ldrb	r0, [r4]
 783 007e AA28     		cmp	r0, #170
 784 0080 01D1     		bne	.L54
 290:.\main.c      ****         {
 291:.\main.c      ****             BootloaderSign = 1;
 785              		.loc 1 291 0
 786 0082 0121     		mov	r1, #1
 787 0084 1970     		strb	r1, [r3]
 788              	.L54:
 292:.\main.c      ****             
ARM GAS  C:\Users\ZHANGM~1\AppData\Local\Temp\ccrd4w1B.s 			page 31


 293:.\main.c      ****         }
 294:.\main.c      ****         if(BootloaderSign)
 789              		.loc 1 294 0
 790 0086 1D78     		ldrb	r5, [r3]
 791 0088 002D     		cmp	r5, #0
 792 008a 04D0     		beq	.L55
 295:.\main.c      ****         {
 296:.\main.c      ****             BootloaderSign = 0;
 793              		.loc 1 296 0
 794 008c 0025     		mov	r5, #0
 795 008e 1D70     		strb	r5, [r3]
 796              	.L56:
 297:.\main.c      ****             while(1)
 298:.\main.c      ****                 Bootloadable_Load();
 797              		.loc 1 298 0 discriminator 1
 798 0090 FFF7FEFF 		bl	Bootloadable_Load
 799              	.LVL45:
 800 0094 FCE7     		b	.L56
 801              	.L55:
 299:.\main.c      ****         }     
 300:.\main.c      ****         //LED1_Write(!LED1_Read());
 301:.\main.c      ****         // for(Dly=0;Dly<80000;Dly++);
 302:.\main.c      **** 
 303:.\main.c      ****         Caps_Scan();          
 802              		.loc 1 303 0
 803 0096 FFF7FEFF 		bl	Caps_Scan
 804              	.LVL46:
 304:.\main.c      ****         //clearwdt();           
 305:.\main.c      ****         if((PowerOnCnt00>60)&&(poweroverfig==0)) 
 805              		.loc 1 305 0
 806 009a 164A     		ldr	r2, .L60+40
 807 009c 1488     		ldrh	r4, [r2]
 808 009e 3C2C     		cmp	r4, #60
 809 00a0 05D9     		bls	.L57
 810              		.loc 1 305 0 is_stmt 0 discriminator 1
 811 00a2 1548     		ldr	r0, .L60+44
 812 00a4 0378     		ldrb	r3, [r0]
 813 00a6 002B     		cmp	r3, #0
 814 00a8 01D1     		bne	.L57
 306:.\main.c      ****           {                  
 307:.\main.c      ****             poweroverfig=1;  
 815              		.loc 1 307 0 is_stmt 1
 816 00aa 0121     		mov	r1, #1
 817 00ac 0170     		strb	r1, [r0]
 818              	.L57:
 308:.\main.c      ****             //Open_V24_IN_ISR();
 309:.\main.c      ****           }       
 310:.\main.c      ****         Led_Pannel_Display();            
 819              		.loc 1 310 0
 820 00ae FFF7FEFF 		bl	Led_Pannel_Display
 821              	.LVL47:
 311:.\main.c      ****         //clearwdt();
 312:.\main.c      ****         Timer_Isr_Fun();                   
 822              		.loc 1 312 0
 823 00b2 FFF7FEFF 		bl	Timer_Isr_Fun
 824              	.LVL48:
 313:.\main.c      ****         Work_Fun();               
ARM GAS  C:\Users\ZHANGM~1\AppData\Local\Temp\ccrd4w1B.s 			page 32


 825              		.loc 1 313 0
 826 00b6 FFF7FEFF 		bl	Work_Fun
 827              	.LVL49:
 314:.\main.c      ****         Buzzer_Fun();      
 828              		.loc 1 314 0
 829 00ba FFF7FEFF 		bl	Buzzer_Fun
 830              	.LVL50:
 315:.\main.c      ****         //clearwdt();
 316:.\main.c      ****         //Comm_Uart_1_PrintHex8(rxx);
 317:.\main.c      ****         Uart_0_Putchar();  
 831              		.loc 1 317 0
 832 00be FFF7FEFF 		bl	Uart_0_Putchar
 833              	.LVL51:
 318:.\main.c      ****         //Uart_1_Putchar();                            
 319:.\main.c      ****         CyDelayUs(100);
 834              		.loc 1 319 0
 835 00c2 6420     		mov	r0, #100
 836 00c4 FFF7FEFF 		bl	CyDelayUs
 837              	.LVL52:
 320:.\main.c      ****         
 321:.\main.c      ****         
 322:.\main.c      ****             
 323:.\main.c      ****     }
 838              		.loc 1 323 0
 839 00c8 D6E7     		b	.L58
 840              	.L61:
 841 00ca C046     		.align	2
 842              	.L60:
 843 00cc 00000000 		.word	V24fig
 844 00d0 00000000 		.word	array
 845 00d4 00000000 		.word	WorkFlag
 846 00d8 C0CC0000 		.word	52416
 847 00dc 00000000 		.word	WorkFlag01
 848 00e0 00000000 		.word	WorkFlag01_Dispcnt
 849 00e4 00000000 		.word	Tds_Ack_Timer
 850 00e8 00000000 		.word	Work_State
 851 00ec 00000000 		.word	ch
 852 00f0 00000000 		.word	BootloaderSign
 853 00f4 00000000 		.word	PowerOnCnt00
 854 00f8 00000000 		.word	poweroverfig
 855              		.cfi_endproc
 856              	.LFE53:
 857              		.size	main, .-main
 858              		.comm	ch,1,1
 859              		.comm	rxx,1,1
 860              		.comm	cleareepromArrayflag,1,1
 861              		.comm	Ack_Timer,1,1
 862              		.comm	V24Vcnt,1,1
 863              		.comm	V24dengdai,1,1
 864              		.comm	V24fig,1,1
 865              		.comm	dismode,1,1
 866              		.comm	standkeyfig,1,1
 867              		.comm	standflashfig,1,1
 868              		.comm	BUZqueshuifkg,1,1
 869              		.comm	BUZfkgtemp,1,1
 870              		.comm	qushui_BUZcnt,1,1
 871              		.comm	BUZfkg,1,1
ARM GAS  C:\Users\ZHANGM~1\AppData\Local\Temp\ccrd4w1B.s 			page 33


 872              		.comm	LvxinJishi,24,2
 873              		.comm	lXXZcnt_fig,1,1
 874              		.comm	LXXZOUT_fig,1,1
 875              		.comm	NBPressStart,1,1
 876              		.comm	NBPressCnt,1,1
 877              		.comm	NBfig,1,1
 878              		.comm	NbPressCnt,1,1
 879              		.comm	Dly1,4,4
 880              		.comm	Dly,4,4
 881              		.comm	BootloaderSign,1,1
 882              		.comm	UartRx,1,1
 883              		.global	UART_1_customIntrHandler
 884              		.global	UART_1_initVar
 885              		.global	UART_0_customIntrHandler
 886              		.global	UART_0_initVar
 887              		.bss
 888              		.align	2
 889              		.set	.LANCHOR0,. + 0
 890              		.type	UART_0_initVar, %object
 891              		.size	UART_0_initVar, 1
 892              	UART_0_initVar:
 893 0000 00       		.space	1
 894 0001 000000   		.space	3
 895              		.type	UART_0_customIntrHandler, %object
 896              		.size	UART_0_customIntrHandler, 4
 897              	UART_0_customIntrHandler:
 898 0004 00000000 		.space	4
 899              		.type	UART_1_initVar, %object
 900              		.size	UART_1_initVar, 1
 901              	UART_1_initVar:
 902 0008 00       		.space	1
 903 0009 000000   		.space	3
 904              		.type	UART_1_customIntrHandler, %object
 905              		.size	UART_1_customIntrHandler, 4
 906              	UART_1_customIntrHandler:
 907 000c 00000000 		.space	4
 908              		.text
 909              	.Letext0:
 910              		.file 4 "./Generated_Source/PSoC4/cytypes.h"
 911              		.file 5 ".\\fun.h"
 912              		.file 6 ".\\module.h"
 913              		.file 7 ".\\uart_wifi.h"
 914              		.file 8 "./Generated_Source/PSoC4/UART_1_SPI_UART.h"
 915              		.file 9 "./Generated_Source/PSoC4/UART_0_SPI_UART.h"
 916              		.file 10 "./Generated_Source/PSoC4/UART_0_SPI_UART_PVT.h"
 917              		.file 11 "./Generated_Source/PSoC4/CyLib.h"
 918              		.file 12 "./Generated_Source/PSoC4/UART_1_SPI_UART_PVT.h"
 919              		.file 13 ".\\display.h"
 920              		.file 14 "./Generated_Source/PSoC4/Bootloadable.h"