ARM GAS  C:\Users\ZHANGM~1\AppData\Local\Temp\ccv7ygO1.s 			page 1


   1              		.cpu cortex-m0
   2              		.fpu softvfp
   3              		.eabi_attribute 20, 1
   4              		.eabi_attribute 21, 1
   5              		.eabi_attribute 23, 3
   6              		.eabi_attribute 24, 1
   7              		.eabi_attribute 25, 1
   8              		.eabi_attribute 26, 1
   9              		.eabi_attribute 30, 4
  10              		.eabi_attribute 34, 0
  11              		.eabi_attribute 18, 4
  12              		.code	16
  13              		.file	"module.c"
  14              		.text
  15              	.Ltext0:
  16              		.cfi_sections	.debug_frame
  17              		.section	.text.InterruptHandler,"ax",%progbits
  18              		.align	1
  19              		.global	InterruptHandler
  20              		.code	16
  21              		.thumb_func
  22              		.type	InterruptHandler, %function
  23              	InterruptHandler:
  24              	.LFB35:
  25              		.file 1 ".\\module.c"
   1:.\module.c    **** /* ========================================
   2:.\module.c    ****  *
   3:.\module.c    ****  * Copyright YOUR COMPANY, THE YEAR
   4:.\module.c    ****  * All Rights Reserved
   5:.\module.c    ****  * UNPUBLISHED, LICENSED SOFTWARE.
   6:.\module.c    ****  *
   7:.\module.c    ****  * CONFIDENTIAL AND PROPRIETARY INFORMATION
   8:.\module.c    ****  * WHICH IS THE PROPERTY OF your company.
   9:.\module.c    ****  *
  10:.\module.c    ****  * ========================================
  11:.\module.c    **** */
  12:.\module.c    **** #define _MODULE_
  13:.\module.c    **** #include "module.h"
  14:.\module.c    **** #include "config.h"
  15:.\module.c    **** #include "flash_wr_rd.h"
  16:.\module.c    **** 
  17:.\module.c    **** /*****************************************************************\
  18:.\module.c    ****     Capsense
  19:.\module.c    **** \*****************************************************************/
  20:.\module.c    **** void Caps_Initial(void)
  21:.\module.c    **** {
  22:.\module.c    ****     CapSense_Start();	
  23:.\module.c    **** 
  24:.\module.c    ****     /* Initialize baselines */ 
  25:.\module.c    ****     CapSense_InitializeAllBaselines();
  26:.\module.c    ****         
  27:.\module.c    **** }
  28:.\module.c    ****     
  29:.\module.c    **** 
  30:.\module.c    **** void Caps_Scan(void)
  31:.\module.c    **** {
  32:.\module.c    ****     unsigned char kcnt;
ARM GAS  C:\Users\ZHANGM~1\AppData\Local\Temp\ccv7ygO1.s 			page 2


  33:.\module.c    **** 
  34:.\module.c    ****     
  35:.\module.c    ****     /* Update all baselines */
  36:.\module.c    ****     CapSense_UpdateEnabledBaselines();
  37:.\module.c    ****     
  38:.\module.c    **** 	/* Start scanning all enabled sensors */
  39:.\module.c    **** 	CapSense_ScanEnabledWidgets();
  40:.\module.c    ****     
  41:.\module.c    **** //    CapSense_ScanSensor(BtnCnt);
  42:.\module.c    **** //    CapSense_UpdateSensorBaseline(BtnCnt);
  43:.\module.c    ****        
  44:.\module.c    ****     /* Wait for scanning to complete */
  45:.\module.c    ****     while(CapSense_IsBusy() != 0)
  46:.\module.c    ****     {
  47:.\module.c    **** 
  48:.\module.c    ****     }
  49:.\module.c    ****     
  50:.\module.c    **** 		    kcnt = 0;
  51:.\module.c    **** 		    BtnData2 = BtnData1;
  52:.\module.c    **** 		    if(CapSense_CheckIsWidgetActive(BTN_SDBY))  //判断手动保养键
  53:.\module.c    **** 		    {
  54:.\module.c    **** 		        kcnt++;
  55:.\module.c    **** 		        BtnData1 |= (0x01 << BTN_SDBY);
  56:.\module.c    **** 		    }else
  57:.\module.c    **** 		    {
  58:.\module.c    **** 		        BtnData1 &= ~(0x01 << BTN_SDBY);
  59:.\module.c    **** 		    }
  60:.\module.c    **** 		    if(CapSense_CheckIsWidgetActive(BTN_FW))    //判断复位键
  61:.\module.c    **** 		    {
  62:.\module.c    **** 		        kcnt++;
  63:.\module.c    **** 		        BtnData1 |= (0x01 << BTN_FW);
  64:.\module.c    **** 		    }else
  65:.\module.c    **** 		    {
  66:.\module.c    **** 		        BtnData1 &= ~(0x01 << BTN_FW);
  67:.\module.c    **** 		    }
  68:.\module.c    **** 		    if(CapSense_CheckIsWidgetActive(BTN_XZ))    //判断选择键
  69:.\module.c    **** 		    {
  70:.\module.c    **** 		        kcnt++;
  71:.\module.c    **** 		        BtnData1 |= (0x01 << BTN_XZ);
  72:.\module.c    **** 		    }else
  73:.\module.c    **** 		    {
  74:.\module.c    **** 		        BtnData1 &= ~(0x01 << BTN_XZ);
  75:.\module.c    **** 		    }
  76:.\module.c    **** 		    if(CapSense_CheckIsWidgetActive(BTN_NB))    //判断南北键
  77:.\module.c    **** 		    {
  78:.\module.c    **** 		        kcnt++;
  79:.\module.c    **** 		        BtnData1 |= (0x01 << BTN_NB);
  80:.\module.c    **** 		    }else
  81:.\module.c    **** 		    {
  82:.\module.c    **** 		        BtnData1 &= ~(0x01 << BTN_NB);
  83:.\module.c    **** 		    }
  84:.\module.c    ****   		
  85:.\module.c    ****  //  if(CapSense_CheckIsWidgetActive(BtnCnt))   
  86:.\module.c    ****    // {
  87:.\module.c    **** //        kcnt++;
  88:.\module.c    **** //        BtnData1 |= (0x01 << BtnCnt);
  89:.\module.c    **** //    }else
ARM GAS  C:\Users\ZHANGM~1\AppData\Local\Temp\ccv7ygO1.s 			page 3


  90:.\module.c    **** //    {
  91:.\module.c    **** //        BtnData1 &= ~(0x01 << BtnCnt);
  92:.\module.c    **** //    }
  93:.\module.c    **** //    
  94:.\module.c    **** //    BtnCnt++;
  95:.\module.c    **** //    if(BtnCnt >= BTN_N)
  96:.\module.c    **** //    {
  97:.\module.c    **** //        BtnCnt = 0;
  98:.\module.c    **** //    }
  99:.\module.c    ****     //if((BtnData1&(0x01<<BTN_XZ)) && 
 100:.\module.c    ****    //    (!(BtnData2&(0x01<<BTN_XZ))))
 101:.\module.c    ****     //{
 102:.\module.c    ****    //     DigitalBuf += 100;
 103:.\module.c    ****    // }
 104:.\module.c    ****    
 105:.\module.c    **** }
 106:.\module.c    **** 
 107:.\module.c    **** /*
 108:.\module.c    ****     EZI2C
 109:.\module.c    **** */
 110:.\module.c    **** #if EZI2C_EN
 111:.\module.c    **** void Ezi2c_Initial(void)
 112:.\module.c    **** {
 113:.\module.c    ****     /* Start EZI2C slave (SCB mode) */
 114:.\module.c    ****     EZI2C_EzI2CSetBuffer1(EZI2C_SIZE, 0, ezI2CBuffer);
 115:.\module.c    ****     EZI2C_Start();
 116:.\module.c    **** }
 117:.\module.c    **** #endif
 118:.\module.c    **** 
 119:.\module.c    **** 
 120:.\module.c    **** 
 121:.\module.c    **** 
 122:.\module.c    **** /*******************************************************************************
 123:.\module.c    **** *                       Timer
 124:.\module.c    **** ********************************************************************************/
 125:.\module.c    **** CY_ISR(InterruptHandler)
 126:.\module.c    **** {
  26              		.loc 1 126 0
  27              		.cfi_startproc
  28 0000 08B5     		push	{r3, lr}
  29              	.LCFI0:
  30              		.cfi_def_cfa_offset 8
  31              		.cfi_offset 3, -8
  32              		.cfi_offset 14, -4
 127:.\module.c    **** 	/* Clear Inerrupt */
 128:.\module.c    ****    	Timer_ClearInterrupt(Timer_INTR_MASK_TC );
  33              		.loc 1 128 0
  34 0002 0120     		mov	r0, #1
  35 0004 FFF7FEFF 		bl	Timer_ClearInterrupt
  36              	.LVL0:
 129:.\module.c    ****     
 130:.\module.c    **** 	/*100mS */
 131:.\module.c    ****     //TestPort_Write(~TestPort_ReadDataReg());
 132:.\module.c    ****     T10msSign = 1;
  37              		.loc 1 132 0
  38 0008 014B     		ldr	r3, .L2
  39 000a 0122     		mov	r2, #1
ARM GAS  C:\Users\ZHANGM~1\AppData\Local\Temp\ccv7ygO1.s 			page 4


  40 000c 1A70     		strb	r2, [r3]
 133:.\module.c    ****     
 134:.\module.c    ****     
 135:.\module.c    **** }
  41              		.loc 1 135 0
  42              		@ sp needed for prologue
  43 000e 08BD     		pop	{r3, pc}
  44              	.L3:
  45              		.align	2
  46              	.L2:
  47 0010 00000000 		.word	T10msSign
  48              		.cfi_endproc
  49              	.LFE35:
  50              		.size	InterruptHandler, .-InterruptHandler
  51              		.section	.text.Caps_Initial,"ax",%progbits
  52              		.align	1
  53              		.global	Caps_Initial
  54              		.code	16
  55              		.thumb_func
  56              		.type	Caps_Initial, %function
  57              	Caps_Initial:
  58              	.LFB33:
  21:.\module.c    **** {
  59              		.loc 1 21 0
  60              		.cfi_startproc
  61 0000 08B5     		push	{r3, lr}
  62              	.LCFI1:
  63              		.cfi_def_cfa_offset 8
  64              		.cfi_offset 3, -8
  65              		.cfi_offset 14, -4
  22:.\module.c    ****     CapSense_Start();	
  66              		.loc 1 22 0
  67 0002 FFF7FEFF 		bl	CapSense_Start
  68              	.LVL1:
  27:.\module.c    **** }
  69              		.loc 1 27 0
  70              		@ sp needed for prologue
  25:.\module.c    ****     CapSense_InitializeAllBaselines();
  71              		.loc 1 25 0
  72 0006 FFF7FEFF 		bl	CapSense_InitializeAllBaselines
  73              	.LVL2:
  27:.\module.c    **** }
  74              		.loc 1 27 0
  75 000a 08BD     		pop	{r3, pc}
  76              		.cfi_endproc
  77              	.LFE33:
  78              		.size	Caps_Initial, .-Caps_Initial
  79              		.section	.text.Caps_Scan,"ax",%progbits
  80              		.align	1
  81              		.global	Caps_Scan
  82              		.code	16
  83              		.thumb_func
  84              		.type	Caps_Scan, %function
  85              	Caps_Scan:
  86              	.LFB34:
  31:.\module.c    **** {
  87              		.loc 1 31 0
ARM GAS  C:\Users\ZHANGM~1\AppData\Local\Temp\ccv7ygO1.s 			page 5


  88              		.cfi_startproc
  89 0000 10B5     		push	{r4, lr}
  90              	.LCFI2:
  91              		.cfi_def_cfa_offset 8
  92              		.cfi_offset 4, -8
  93              		.cfi_offset 14, -4
  36:.\module.c    ****     CapSense_UpdateEnabledBaselines();
  94              		.loc 1 36 0
  95 0002 FFF7FEFF 		bl	CapSense_UpdateEnabledBaselines
  96              	.LVL3:
  39:.\module.c    **** 	CapSense_ScanEnabledWidgets();
  97              		.loc 1 39 0
  98 0006 FFF7FEFF 		bl	CapSense_ScanEnabledWidgets
  99              	.LVL4:
 100              	.L6:
  45:.\module.c    ****     while(CapSense_IsBusy() != 0)
 101              		.loc 1 45 0 discriminator 1
 102 000a FFF7FEFF 		bl	CapSense_IsBusy
 103              	.LVL5:
 104 000e 0028     		cmp	r0, #0
 105 0010 FBD1     		bne	.L6
 106              	.LVL6:
  51:.\module.c    **** 		    BtnData2 = BtnData1;
 107              		.loc 1 51 0
 108 0012 194C     		ldr	r4, .L21
 109 0014 194B     		ldr	r3, .L21+4
 110 0016 2278     		ldrb	r2, [r4]
 111 0018 1A70     		strb	r2, [r3]
  52:.\module.c    **** 		    if(CapSense_CheckIsWidgetActive(BTN_SDBY))  //判断手动保养键
 112              		.loc 1 52 0
 113 001a FFF7FEFF 		bl	CapSense_CheckIsWidgetActive
 114              	.LVL7:
 115 001e 2178     		ldrb	r1, [r4]
 116 0020 0122     		mov	r2, #1
 117 0022 0028     		cmp	r0, #0
 118 0024 01D0     		beq	.L7
 119              	.LVL8:
  55:.\module.c    **** 		        BtnData1 |= (0x01 << BTN_SDBY);
 120              		.loc 1 55 0
 121 0026 1143     		orr	r1, r2
 122 0028 00E0     		b	.L16
 123              	.LVL9:
 124              	.L7:
  58:.\module.c    **** 		        BtnData1 &= ~(0x01 << BTN_SDBY);
 125              		.loc 1 58 0
 126 002a 9143     		bic	r1, r2
 127              	.LVL10:
 128              	.L16:
  60:.\module.c    **** 		    if(CapSense_CheckIsWidgetActive(BTN_FW))    //判断复位键
 129              		.loc 1 60 0
 130 002c 0120     		mov	r0, #1
  58:.\module.c    **** 		        BtnData1 &= ~(0x01 << BTN_SDBY);
 131              		.loc 1 58 0
 132 002e 2170     		strb	r1, [r4]
  60:.\module.c    **** 		    if(CapSense_CheckIsWidgetActive(BTN_FW))    //判断复位键
 133              		.loc 1 60 0
 134 0030 FFF7FEFF 		bl	CapSense_CheckIsWidgetActive
ARM GAS  C:\Users\ZHANGM~1\AppData\Local\Temp\ccv7ygO1.s 			page 6


 135              	.LVL11:
 136 0034 0223     		mov	r3, #2
  63:.\module.c    **** 		        BtnData1 |= (0x01 << BTN_FW);
 137              		.loc 1 63 0
 138 0036 2178     		ldrb	r1, [r4]
  60:.\module.c    **** 		    if(CapSense_CheckIsWidgetActive(BTN_FW))    //判断复位键
 139              		.loc 1 60 0
 140 0038 0028     		cmp	r0, #0
 141 003a 01D0     		beq	.L9
  63:.\module.c    **** 		        BtnData1 |= (0x01 << BTN_FW);
 142              		.loc 1 63 0
 143 003c 0B43     		orr	r3, r1
 144 003e 01E0     		b	.L17
 145              	.L9:
  66:.\module.c    **** 		        BtnData1 &= ~(0x01 << BTN_FW);
 146              		.loc 1 66 0
 147 0040 9943     		bic	r1, r3
 148 0042 0B1C     		mov	r3, r1
 149              	.L17:
  68:.\module.c    **** 		    if(CapSense_CheckIsWidgetActive(BTN_XZ))    //判断选择键
 150              		.loc 1 68 0
 151 0044 0220     		mov	r0, #2
  66:.\module.c    **** 		        BtnData1 &= ~(0x01 << BTN_FW);
 152              		.loc 1 66 0
 153 0046 2370     		strb	r3, [r4]
  68:.\module.c    **** 		    if(CapSense_CheckIsWidgetActive(BTN_XZ))    //判断选择键
 154              		.loc 1 68 0
 155 0048 FFF7FEFF 		bl	CapSense_CheckIsWidgetActive
 156              	.LVL12:
 157 004c 0421     		mov	r1, #4
  71:.\module.c    **** 		        BtnData1 |= (0x01 << BTN_XZ);
 158              		.loc 1 71 0
 159 004e 2278     		ldrb	r2, [r4]
  68:.\module.c    **** 		    if(CapSense_CheckIsWidgetActive(BTN_XZ))    //判断选择键
 160              		.loc 1 68 0
 161 0050 0028     		cmp	r0, #0
 162 0052 01D0     		beq	.L11
  71:.\module.c    **** 		        BtnData1 |= (0x01 << BTN_XZ);
 163              		.loc 1 71 0
 164 0054 1143     		orr	r1, r2
 165 0056 01E0     		b	.L18
 166              	.L11:
  74:.\module.c    **** 		        BtnData1 &= ~(0x01 << BTN_XZ);
 167              		.loc 1 74 0
 168 0058 8A43     		bic	r2, r1
 169 005a 111C     		mov	r1, r2
 170              	.L18:
  76:.\module.c    **** 		    if(CapSense_CheckIsWidgetActive(BTN_NB))    //判断南北键
 171              		.loc 1 76 0
 172 005c 0320     		mov	r0, #3
  74:.\module.c    **** 		        BtnData1 &= ~(0x01 << BTN_XZ);
 173              		.loc 1 74 0
 174 005e 2170     		strb	r1, [r4]
  76:.\module.c    **** 		    if(CapSense_CheckIsWidgetActive(BTN_NB))    //判断南北键
 175              		.loc 1 76 0
 176 0060 FFF7FEFF 		bl	CapSense_CheckIsWidgetActive
 177              	.LVL13:
ARM GAS  C:\Users\ZHANGM~1\AppData\Local\Temp\ccv7ygO1.s 			page 7


 178 0064 0823     		mov	r3, #8
  79:.\module.c    **** 		        BtnData1 |= (0x01 << BTN_NB);
 179              		.loc 1 79 0
 180 0066 2278     		ldrb	r2, [r4]
  76:.\module.c    **** 		    if(CapSense_CheckIsWidgetActive(BTN_NB))    //判断南北键
 181              		.loc 1 76 0
 182 0068 0028     		cmp	r0, #0
 183 006a 01D0     		beq	.L13
  79:.\module.c    **** 		        BtnData1 |= (0x01 << BTN_NB);
 184              		.loc 1 79 0
 185 006c 1343     		orr	r3, r2
 186 006e 01E0     		b	.L19
 187              	.L13:
  82:.\module.c    **** 		        BtnData1 &= ~(0x01 << BTN_NB);
 188              		.loc 1 82 0
 189 0070 9A43     		bic	r2, r3
 190 0072 131C     		mov	r3, r2
 191              	.L19:
 192 0074 2370     		strb	r3, [r4]
 105:.\module.c    **** }
 193              		.loc 1 105 0
 194              		@ sp needed for prologue
 195 0076 10BD     		pop	{r4, pc}
 196              	.L22:
 197              		.align	2
 198              	.L21:
 199 0078 00000000 		.word	BtnData1
 200 007c 00000000 		.word	BtnData2
 201              		.cfi_endproc
 202              	.LFE34:
 203              		.size	Caps_Scan, .-Caps_Scan
 204              		.section	.text.Timer_Initial,"ax",%progbits
 205              		.align	1
 206              		.global	Timer_Initial
 207              		.code	16
 208              		.thumb_func
 209              		.type	Timer_Initial, %function
 210              	Timer_Initial:
 211              	.LFB36:
 136:.\module.c    **** 
 137:.\module.c    **** void Timer_Initial(void)
 138:.\module.c    **** {
 212              		.loc 1 138 0
 213              		.cfi_startproc
 214 0000 08B5     		push	{r3, lr}
 215              	.LCFI3:
 216              		.cfi_def_cfa_offset 8
 217              		.cfi_offset 3, -8
 218              		.cfi_offset 14, -4
 139:.\module.c    ****     /* Enable the Interrupt component connected to interrupt */
 140:.\module.c    ****     CC_ISR_StartEx(InterruptHandler);
 219              		.loc 1 140 0
 220 0002 0348     		ldr	r0, .L24
 221 0004 FFF7FEFF 		bl	CC_ISR_StartEx
 222              	.LVL14:
 141:.\module.c    **** 
 142:.\module.c    **** 	/* Start the components */
ARM GAS  C:\Users\ZHANGM~1\AppData\Local\Temp\ccv7ygO1.s 			page 8


 143:.\module.c    ****     Timer_Start();
 144:.\module.c    **** }
 223              		.loc 1 144 0
 224              		@ sp needed for prologue
 143:.\module.c    ****     Timer_Start();
 225              		.loc 1 143 0
 226 0008 FFF7FEFF 		bl	Timer_Start
 227              	.LVL15:
 228              		.loc 1 144 0
 229 000c 08BD     		pop	{r3, pc}
 230              	.L25:
 231 000e C046     		.align	2
 232              	.L24:
 233 0010 00000000 		.word	InterruptHandler
 234              		.cfi_endproc
 235              	.LFE36:
 236              		.size	Timer_Initial, .-Timer_Initial
 237              		.section	.text.Pwm_Initial,"ax",%progbits
 238              		.align	1
 239              		.global	Pwm_Initial
 240              		.code	16
 241              		.thumb_func
 242              		.type	Pwm_Initial, %function
 243              	Pwm_Initial:
 244              	.LFB37:
 145:.\module.c    **** 
 146:.\module.c    **** 
 147:.\module.c    **** 
 148:.\module.c    **** 
 149:.\module.c    **** 
 150:.\module.c    **** 
 151:.\module.c    **** 
 152:.\module.c    **** /*******************************************************************************
 153:.\module.c    **** *                       PWM
 154:.\module.c    **** ********************************************************************************/
 155:.\module.c    **** void Pwm_Initial(void)
 156:.\module.c    **** {
 245              		.loc 1 156 0
 246              		.cfi_startproc
 157:.\module.c    ****     //* Start the components */
 158:.\module.c    ****     //PWM_Start();
 159:.\module.c    ****     
 160:.\module.c    **** //    PWM_WriteCompareBuf(0x0u);
 161:.\module.c    **** }
 247              		.loc 1 161 0
 248              		@ sp needed for prologue
 249 0000 7047     		bx	lr
 250              		.cfi_endproc
 251              	.LFE37:
 252              		.size	Pwm_Initial, .-Pwm_Initial
 253              		.section	.text.read,"ax",%progbits
 254              		.align	1
 255              		.global	read
 256              		.code	16
 257              		.thumb_func
 258              		.type	read, %function
 259              	read:
ARM GAS  C:\Users\ZHANGM~1\AppData\Local\Temp\ccv7ygO1.s 			page 9


 260              	.LFB38:
 162:.\module.c    **** 
 163:.\module.c    **** 
 164:.\module.c    **** /*******************************************************************************
 165:.\module.c    **** *                       EM_E2PROM
 166:.\module.c    **** ********************************************************************************/
 167:.\module.c    **** //void Eme2prom_Initial(void)
 168:.\module.c    **** //{
 169:.\module.c    **** //    EEPROM_Start();   
 170:.\module.c    **** //}
 171:.\module.c    **** 
 172:.\module.c    **** 
 173:.\module.c    **** void read(void)
 174:.\module.c    **** {
 261              		.loc 1 174 0
 262              		.cfi_startproc
 263 0000 F8B5     		push	{r3, r4, r5, r6, r7, lr}
 264              	.LCFI4:
 265              		.cfi_def_cfa_offset 24
 266              		.cfi_offset 3, -24
 267              		.cfi_offset 4, -20
 268              		.cfi_offset 5, -16
 269              		.cfi_offset 6, -12
 270              		.cfi_offset 7, -8
 271              		.cfi_offset 14, -4
 175:.\module.c    ****     
 176:.\module.c    ****     u_char  i,j,k;
 177:.\module.c    **** 	  memset(array,0x00,31);           
 272              		.loc 1 177 0
 273 0002 2A4C     		ldr	r4, .L40
 274 0004 0021     		mov	r1, #0
 275 0006 201C     		mov	r0, r4
 276 0008 1F22     		mov	r2, #31
 277 000a FFF7FEFF 		bl	memset
 278              	.LVL16:
 279 000e 0025     		mov	r5, #0
 280              	.LVL17:
 281              	.L28:
 178:.\module.c    ****     for(i=0;i<44;i++)
 179:.\module.c    ****     {   
 180:.\module.c    ****         array[i]=Flagh_Read_aByte(i);
 282              		.loc 1 180 0 discriminator 2
 283 0010 E8B2     		uxtb	r0, r5
 284 0012 FFF7FEFF 		bl	Flagh_Read_aByte
 285              	.LVL18:
 286 0016 6055     		strb	r0, [r4, r5]
 287              	.LVL19:
 288 0018 0135     		add	r5, r5, #1
 289              	.LVL20:
 178:.\module.c    ****     for(i=0;i<44;i++)
 290              		.loc 1 178 0 discriminator 2
 291 001a 2C2D     		cmp	r5, #44
 292 001c F8D1     		bne	.L28
 178:.\module.c    ****     for(i=0;i<44;i++)
 293              		.loc 1 178 0 is_stmt 0
 294 001e 0023     		mov	r3, #0
 295              	.LVL21:
ARM GAS  C:\Users\ZHANGM~1\AppData\Local\Temp\ccv7ygO1.s 			page 10


 296              	.L29:
 181:.\module.c    ****     }
 182:.\module.c    ****     
 183:.\module.c    ****     for(i=4,j=0;i<28;(i=i+2))
 184:.\module.c    ****     {
 185:.\module.c    ****         LvxinJishi[j]|=array[i+1];
 186:.\module.c    ****         LvxinJishi[j]=(LvxinJishi[j]<<8);
 187:.\module.c    ****         LvxinJishi[j]|=array[i];
 297              		.loc 1 187 0 is_stmt 1 discriminator 2
 298 0020 234A     		ldr	r2, .L40+4
 173:.\module.c    **** void read(void)
 299              		.loc 1 173 0 discriminator 2
 300 0022 E018     		add	r0, r4, r3
 301              		.loc 1 187 0 discriminator 2
 302 0024 9918     		add	r1, r3, r2
 185:.\module.c    ****         LvxinJishi[j]|=array[i+1];
 303              		.loc 1 185 0 discriminator 2
 304 0026 4679     		ldrb	r6, [r0, #5]
 305 0028 0F88     		ldrh	r7, [r1]
 306              		.loc 1 187 0 discriminator 2
 307 002a 0579     		ldrb	r5, [r0, #4]
 185:.\module.c    ****         LvxinJishi[j]|=array[i+1];
 308              		.loc 1 185 0 discriminator 2
 309 002c 3E43     		orr	r6, r7
 186:.\module.c    ****         LvxinJishi[j]=(LvxinJishi[j]<<8);
 310              		.loc 1 186 0 discriminator 2
 311 002e 3202     		lsl	r2, r6, #8
 312              		.loc 1 187 0 discriminator 2
 313 0030 101C     		mov	r0, r2
 314 0032 2843     		orr	r0, r5
 315 0034 0233     		add	r3, r3, #2
 316 0036 0880     		strh	r0, [r1]
 317              	.LVL22:
 183:.\module.c    ****     for(i=4,j=0;i<28;(i=i+2))
 318              		.loc 1 183 0 discriminator 2
 319 0038 182B     		cmp	r3, #24
 320 003a F1D1     		bne	.L29
 188:.\module.c    ****         j++;
 189:.\module.c    ****     }
 190:.\module.c    ****     jingshuiliang|=array[3];
 321              		.loc 1 190 0
 322 003c 1D4E     		ldr	r6, .L40+8
 323 003e E178     		ldrb	r1, [r4, #3]
 324 0040 3388     		ldrh	r3, [r6]
 191:.\module.c    ****     jingshuiliang=(jingshuiliang<<8);
 192:.\module.c    ****     jingshuiliang|=array[2];
 325              		.loc 1 192 0
 326 0042 A278     		ldrb	r2, [r4, #2]
 190:.\module.c    ****     jingshuiliang|=array[3];
 327              		.loc 1 190 0
 328 0044 1943     		orr	r1, r3
 191:.\module.c    ****     jingshuiliang=(jingshuiliang<<8);
 329              		.loc 1 191 0
 330 0046 0F02     		lsl	r7, r1, #8
 331              		.loc 1 192 0
 332 0048 1743     		orr	r7, r2
 333 004a BAB2     		uxth	r2, r7
ARM GAS  C:\Users\ZHANGM~1\AppData\Local\Temp\ccv7ygO1.s 			page 11


 334              	.LVL23:
 193:.\module.c    ****     
 194:.\module.c    ****     EEjingshuiliang|=array[29];
 335              		.loc 1 194 0
 336 004c 1A4D     		ldr	r5, .L40+12
 337              	.LVL24:
 192:.\module.c    ****     jingshuiliang|=array[2];
 338              		.loc 1 192 0
 339 004e 3280     		strh	r2, [r6]
 340              		.loc 1 194 0
 341 0050 607F     		ldrb	r0, [r4, #29]
 342 0052 2988     		ldrh	r1, [r5]
 195:.\module.c    ****     EEjingshuiliang=(EEjingshuiliang<<8);
 196:.\module.c    ****     EEjingshuiliang|=array[28];
 343              		.loc 1 196 0
 344 0054 277F     		ldrb	r7, [r4, #28]
 194:.\module.c    ****     EEjingshuiliang|=array[29];
 345              		.loc 1 194 0
 346 0056 0143     		orr	r1, r0
 195:.\module.c    ****     EEjingshuiliang=(EEjingshuiliang<<8);
 347              		.loc 1 195 0
 348 0058 0B02     		lsl	r3, r1, #8
 349              		.loc 1 196 0
 350 005a 3B43     		orr	r3, r7
 351 005c 9BB2     		uxth	r3, r3
 352              	.LVL25:
 353 005e 2B80     		strh	r3, [r5]
 197:.\module.c    ****     
 198:.\module.c    ****     NBfig=array[0];
 354              		.loc 1 198 0
 355 0060 2078     		ldrb	r0, [r4]
 356 0062 1649     		ldr	r1, .L40+16
 199:.\module.c    ****     
 200:.\module.c    ****     gyfullcnt=array[1];
 357              		.loc 1 200 0
 358 0064 164F     		ldr	r7, .L40+20
 198:.\module.c    ****     NBfig=array[0];
 359              		.loc 1 198 0
 360 0066 0870     		strb	r0, [r1]
 361              		.loc 1 200 0
 362 0068 6078     		ldrb	r0, [r4, #1]
 363              	.LVL26:
 364 006a 3870     		strb	r0, [r7]
 201:.\module.c    ****     EEgyfullcnt=array[30];
 365              		.loc 1 201 0
 366 006c A17F     		ldrb	r1, [r4, #30]
 367              	.LVL27:
 368 006e 154F     		ldr	r7, .L40+24
 369              	.LVL28:
 370 0070 3970     		strb	r1, [r7]
 202:.\module.c    ****     
 203:.\module.c    ****     if(gyfullcnt>=EEgyfullcnt)
 371              		.loc 1 203 0
 372 0072 8842     		cmp	r0, r1
 373 0074 01D3     		bcc	.L30
 204:.\module.c    ****         EEgyfullcnt=gyfullcnt;
 374              		.loc 1 204 0
ARM GAS  C:\Users\ZHANGM~1\AppData\Local\Temp\ccv7ygO1.s 			page 12


 375 0076 3870     		strb	r0, [r7]
 376 0078 01E0     		b	.L31
 377              	.L30:
 205:.\module.c    ****     else
 206:.\module.c    ****         gyfullcnt=EEgyfullcnt;
 378              		.loc 1 206 0
 379 007a 1148     		ldr	r0, .L40+20
 380              	.LVL29:
 381 007c 0170     		strb	r1, [r0]
 382              	.LVL30:
 383              	.L31:
 207:.\module.c    ****     
 208:.\module.c    ****     if(jingshuiliang>=EEjingshuiliang)
 384              		.loc 1 208 0
 385 007e 9A42     		cmp	r2, r3
 386 0080 01D3     		bcc	.L32
 209:.\module.c    ****         EEjingshuiliang=jingshuiliang;
 387              		.loc 1 209 0
 388 0082 2A80     		strh	r2, [r5]
 389 0084 00E0     		b	.L33
 390              	.L32:
 210:.\module.c    ****     else
 211:.\module.c    ****         jingshuiliang=EEjingshuiliang;
 391              		.loc 1 211 0
 392 0086 3380     		strh	r3, [r6]
 393              	.L33:
 394              	.LVL31:
 178:.\module.c    ****     for(i=0;i<44;i++)
 395              		.loc 1 178 0 discriminator 1
 396 0088 0026     		mov	r6, #0
 397              	.LVL32:
 398              	.L36:
 212:.\module.c    ****     for(k=0;k<6;k++)
 213:.\module.c    ****     {
 214:.\module.c    ****         if(LvxinJishi[k]>=LvxinJishi[k+6])
 399              		.loc 1 214 0
 400 008a 094A     		ldr	r2, .L40+4
 401              	.LVL33:
 402 008c 9519     		add	r5, r2, r6
 403 008e 2B88     		ldrh	r3, [r5]
 404              	.LVL34:
 405 0090 A989     		ldrh	r1, [r5, #12]
 406              	.LVL35:
 407 0092 8B42     		cmp	r3, r1
 408 0094 01D3     		bcc	.L34
 215:.\module.c    ****             LvxinJishi[k+6]=LvxinJishi[k];
 409              		.loc 1 215 0
 410 0096 AB81     		strh	r3, [r5, #12]
 411 0098 00E0     		b	.L35
 412              	.L34:
 216:.\module.c    ****         else
 217:.\module.c    ****             LvxinJishi[k]=LvxinJishi[k+6];
 413              		.loc 1 217 0
 414 009a 2980     		strh	r1, [r5]
 415              	.L35:
 416 009c 0236     		add	r6, r6, #2
 212:.\module.c    ****     for(k=0;k<6;k++)
ARM GAS  C:\Users\ZHANGM~1\AppData\Local\Temp\ccv7ygO1.s 			page 13


 417              		.loc 1 212 0
 418 009e 0C2E     		cmp	r6, #12
 419 00a0 F3D1     		bne	.L36
 218:.\module.c    ****         
 219:.\module.c    ****      
 220:.\module.c    ****     }
 221:.\module.c    ****    
 222:.\module.c    ****     jixingnumber=array[43];
 420              		.loc 1 222 0
 421 00a2 2B34     		add	r4, r4, #43
 422 00a4 084F     		ldr	r7, .L40+28
 423 00a6 2478     		ldrb	r4, [r4]
 223:.\module.c    **** }
 424              		.loc 1 223 0
 425              		@ sp needed for prologue
 222:.\module.c    ****     jixingnumber=array[43];
 426              		.loc 1 222 0
 427 00a8 3C70     		strb	r4, [r7]
 428              		.loc 1 223 0
 429 00aa F8BD     		pop	{r3, r4, r5, r6, r7, pc}
 430              	.L41:
 431              		.align	2
 432              	.L40:
 433 00ac 00000000 		.word	array
 434 00b0 00000000 		.word	LvxinJishi
 435 00b4 00000000 		.word	jingshuiliang
 436 00b8 00000000 		.word	EEjingshuiliang
 437 00bc 00000000 		.word	NBfig
 438 00c0 00000000 		.word	gyfullcnt
 439 00c4 00000000 		.word	EEgyfullcnt
 440 00c8 00000000 		.word	jixingnumber
 441              		.cfi_endproc
 442              	.LFE38:
 443              		.size	read, .-read
 444              		.section	.text.write1,"ax",%progbits
 445              		.align	1
 446              		.global	write1
 447              		.code	16
 448              		.thumb_func
 449              		.type	write1, %function
 450              	write1:
 451              	.LFB39:
 224:.\module.c    **** void write1(void)
 225:.\module.c    **** {
 452              		.loc 1 225 0
 453              		.cfi_startproc
 454 0000 10B5     		push	{r4, lr}
 455              	.LCFI5:
 456              		.cfi_def_cfa_offset 8
 457              		.cfi_offset 4, -8
 458              		.cfi_offset 14, -4
 226:.\module.c    ****     u_char m,n;
 227:.\module.c    **** 	  memset(array,0x00,31);        
 459              		.loc 1 227 0
 460 0002 1C4C     		ldr	r4, .L45
 461 0004 0021     		mov	r1, #0
 462 0006 201C     		mov	r0, r4
ARM GAS  C:\Users\ZHANGM~1\AppData\Local\Temp\ccv7ygO1.s 			page 14


 463 0008 1F22     		mov	r2, #31
 464 000a FFF7FEFF 		bl	memset
 465              	.LVL36:
 466 000e 0023     		mov	r3, #0
 467              	.LVL37:
 468              	.L43:
 228:.\module.c    ****     for(m=4,n=0;m<28;(m=m+2))
 229:.\module.c    ****     {
 230:.\module.c    ****         array[m]=LvxinJishi[n];//取出n号滤芯计时的低八位
 469              		.loc 1 230 0 discriminator 2
 470 0010 194A     		ldr	r2, .L45+4
 224:.\module.c    **** void write1(void)
 471              		.loc 1 224 0 discriminator 2
 472 0012 E018     		add	r0, r4, r3
 473              		.loc 1 230 0 discriminator 2
 474 0014 D15A     		ldrh	r1, [r2, r3]
 475 0016 0233     		add	r3, r3, #2
 231:.\module.c    ****     
 232:.\module.c    ****         array[m+1]=(LvxinJishi[n]>>8);//取出n号滤芯计时的高八位
 476              		.loc 1 232 0 discriminator 2
 477 0018 0A0A     		lsr	r2, r1, #8
 230:.\module.c    ****         array[m]=LvxinJishi[n];//取出n号滤芯计时的低八位
 478              		.loc 1 230 0 discriminator 2
 479 001a 0171     		strb	r1, [r0, #4]
 480              		.loc 1 232 0 discriminator 2
 481 001c 4271     		strb	r2, [r0, #5]
 228:.\module.c    ****     for(m=4,n=0;m<28;(m=m+2))
 482              		.loc 1 228 0 discriminator 2
 483 001e 182B     		cmp	r3, #24
 484 0020 F6D1     		bne	.L43
 233:.\module.c    ****         
 234:.\module.c    ****         n++;
 235:.\module.c    ****     
 236:.\module.c    ****     }
 237:.\module.c    ****     
 238:.\module.c    ****   
 239:.\module.c    ****     array[2]=jingshuiliang;
 485              		.loc 1 239 0
 486 0022 164B     		ldr	r3, .L45+8
 240:.\module.c    ****     array[3]=(jingshuiliang>>8);
 241:.\module.c    ****     array[28]=EEjingshuiliang;
 487              		.loc 1 241 0
 488 0024 164A     		ldr	r2, .L45+12
 239:.\module.c    ****     array[2]=jingshuiliang;
 489              		.loc 1 239 0
 490 0026 1988     		ldrh	r1, [r3]
 491              		.loc 1 241 0
 492 0028 1388     		ldrh	r3, [r2]
 240:.\module.c    ****     array[3]=(jingshuiliang>>8);
 493              		.loc 1 240 0
 494 002a 080A     		lsr	r0, r1, #8
 495 002c E070     		strb	r0, [r4, #3]
 242:.\module.c    ****     array[29]=(EEjingshuiliang>>8);
 243:.\module.c    ****     
 244:.\module.c    ****     array[0]=NBfig;
 496              		.loc 1 244 0
 497 002e 1548     		ldr	r0, .L45+16
ARM GAS  C:\Users\ZHANGM~1\AppData\Local\Temp\ccv7ygO1.s 			page 15


 239:.\module.c    ****     array[2]=jingshuiliang;
 498              		.loc 1 239 0
 499 0030 A170     		strb	r1, [r4, #2]
 500              		.loc 1 244 0
 501 0032 0278     		ldrb	r2, [r0]
 241:.\module.c    ****     array[28]=EEjingshuiliang;
 502              		.loc 1 241 0
 503 0034 2377     		strb	r3, [r4, #28]
 242:.\module.c    ****     array[29]=(EEjingshuiliang>>8);
 504              		.loc 1 242 0
 505 0036 190A     		lsr	r1, r3, #8
 245:.\module.c    ****     array[1]=gyfullcnt;
 246:.\module.c    ****     array[30]=EEgyfullcnt;
 506              		.loc 1 246 0
 507 0038 1348     		ldr	r0, .L45+20
 245:.\module.c    ****     array[1]=gyfullcnt;
 508              		.loc 1 245 0
 509 003a 144B     		ldr	r3, .L45+24
 242:.\module.c    ****     array[29]=(EEjingshuiliang>>8);
 510              		.loc 1 242 0
 511 003c 6177     		strb	r1, [r4, #29]
 244:.\module.c    ****     array[0]=NBfig;
 512              		.loc 1 244 0
 513 003e 2270     		strb	r2, [r4]
 245:.\module.c    ****     array[1]=gyfullcnt;
 514              		.loc 1 245 0
 515 0040 1978     		ldrb	r1, [r3]
 516              		.loc 1 246 0
 517 0042 0278     		ldrb	r2, [r0]
 247:.\module.c    ****     
 248:.\module.c    ****     memcpy(&array[31],Filter_Full_Data_Buf,6);
 518              		.loc 1 248 0
 519 0044 201C     		mov	r0, r4
 245:.\module.c    ****     array[1]=gyfullcnt;
 520              		.loc 1 245 0
 521 0046 6170     		strb	r1, [r4, #1]
 246:.\module.c    ****     array[30]=EEgyfullcnt;
 522              		.loc 1 246 0
 523 0048 A277     		strb	r2, [r4, #30]
 524              		.loc 1 248 0
 525 004a 1149     		ldr	r1, .L45+28
 526 004c 0622     		mov	r2, #6
 527 004e 1F30     		add	r0, r0, #31
 528 0050 FFF7FEFF 		bl	memcpy
 529              	.LVL38:
 249:.\module.c    ****     memcpy(&array[37],Filter_Changed_Num,6);
 530              		.loc 1 249 0
 531 0054 201C     		mov	r0, r4
 532 0056 0622     		mov	r2, #6
 533 0058 0E49     		ldr	r1, .L45+32
 534 005a 2530     		add	r0, r0, #37
 535 005c FFF7FEFF 		bl	memcpy
 536              	.LVL39:
 250:.\module.c    ****     array[43]=jixingnumber;
 537              		.loc 1 250 0
 538 0060 0D49     		ldr	r1, .L45+36
 539 0062 231C     		mov	r3, r4
ARM GAS  C:\Users\ZHANGM~1\AppData\Local\Temp\ccv7ygO1.s 			page 16


 540 0064 0878     		ldrb	r0, [r1]
 541 0066 2B33     		add	r3, r3, #43
 542 0068 1870     		strb	r0, [r3]
 251:.\module.c    ****     Flash_Write_aRow_Data(array);
 543              		.loc 1 251 0
 544 006a 201C     		mov	r0, r4
 545 006c FFF7FEFF 		bl	Flash_Write_aRow_Data
 546              	.LVL40:
 252:.\module.c    ****     //EEPROM_Write(array,eepromArray,31);
 253:.\module.c    **** 
 254:.\module.c    **** 
 255:.\module.c    **** 
 256:.\module.c    **** }
 547              		.loc 1 256 0
 548              		@ sp needed for prologue
 549 0070 10BD     		pop	{r4, pc}
 550              	.L46:
 551 0072 C046     		.align	2
 552              	.L45:
 553 0074 00000000 		.word	array
 554 0078 00000000 		.word	LvxinJishi
 555 007c 00000000 		.word	jingshuiliang
 556 0080 00000000 		.word	EEjingshuiliang
 557 0084 00000000 		.word	NBfig
 558 0088 00000000 		.word	EEgyfullcnt
 559 008c 00000000 		.word	gyfullcnt
 560 0090 00000000 		.word	Filter_Full_Data_Buf
 561 0094 00000000 		.word	Filter_Changed_Num
 562 0098 00000000 		.word	jixingnumber
 563              		.cfi_endproc
 564              	.LFE39:
 565              		.size	write1, .-write1
 566              		.section	.text.clean_ram,"ax",%progbits
 567              		.align	1
 568              		.global	clean_ram
 569              		.code	16
 570              		.thumb_func
 571              		.type	clean_ram, %function
 572              	clean_ram:
 573              	.LFB40:
 257:.\module.c    **** void clean_ram(void)
 258:.\module.c    **** {
 574              		.loc 1 258 0
 575              		.cfi_startproc
 576              	.LVL41:
 577 0000 00B5     		push	{lr}
 578              	.LCFI6:
 579              		.cfi_def_cfa_offset 4
 580              		.cfi_offset 14, -4
 581              		.loc 1 258 0
 582 0002 0023     		mov	r3, #0
 583              	.LVL42:
 584              	.L48:
 259:.\module.c    ****     u_char n;      
 260:.\module.c    ****     for(n=0;n<31;n++)
 261:.\module.c    ****     {
 262:.\module.c    ****         array[n]=0;
ARM GAS  C:\Users\ZHANGM~1\AppData\Local\Temp\ccv7ygO1.s 			page 17


 585              		.loc 1 262 0 discriminator 2
 586 0004 1649     		ldr	r1, .L52
 587 0006 0022     		mov	r2, #0
 588 0008 5818     		add	r0, r3, r1
 589 000a 0133     		add	r3, r3, #1
 590 000c 0270     		strb	r2, [r0]
 260:.\module.c    ****     for(n=0;n<31;n++)
 591              		.loc 1 260 0 discriminator 2
 592 000e 1F2B     		cmp	r3, #31
 593 0010 F8D1     		bne	.L48
 594              	.L49:
 263:.\module.c    ****     }     
 264:.\module.c    ****     for(n=0;n<12;n++)
 265:.\module.c    ****     {
 266:.\module.c    ****        LvxinJishi[n]=0;   
 595              		.loc 1 266 0 discriminator 2
 596 0012 144B     		ldr	r3, .L52+4
 597 0014 D018     		add	r0, r2, r3
 598 0016 0023     		mov	r3, #0
 599 0018 0232     		add	r2, r2, #2
 600 001a 0380     		strh	r3, [r0]
 264:.\module.c    ****     for(n=0;n<12;n++)
 601              		.loc 1 264 0 discriminator 2
 602 001c 182A     		cmp	r2, #24
 603 001e F8D1     		bne	.L49
 267:.\module.c    ****     }     
 268:.\module.c    ****     gyfullcnt=0;
 604              		.loc 1 268 0
 605 0020 114A     		ldr	r2, .L52+8
 269:.\module.c    ****     NBfig=1;
 606              		.loc 1 269 0
 607 0022 0120     		mov	r0, #1
 268:.\module.c    ****     gyfullcnt=0;
 608              		.loc 1 268 0
 609 0024 1370     		strb	r3, [r2]
 610              		.loc 1 269 0
 611 0026 114A     		ldr	r2, .L52+12
 270:.\module.c    ****     jingshuiliang=0;
 271:.\module.c    ****   	EEgyfullcnt=0;
 272:.\module.c    ****   	EEjingshuiliang=0;
 612              		.loc 1 272 0
 613 0028 1149     		ldr	r1, .L52+16
 269:.\module.c    ****     NBfig=1;
 614              		.loc 1 269 0
 615 002a 1070     		strb	r0, [r2]
 270:.\module.c    ****     jingshuiliang=0;
 616              		.loc 1 270 0
 617 002c 114A     		ldr	r2, .L52+20
 618              		.loc 1 272 0
 619 002e 0B80     		strh	r3, [r1]
 270:.\module.c    ****     jingshuiliang=0;
 620              		.loc 1 270 0
 621 0030 1380     		strh	r3, [r2]
 271:.\module.c    ****   	EEgyfullcnt=0;
 622              		.loc 1 271 0
 623 0032 114A     		ldr	r2, .L52+24
 273:.\module.c    ****   	SP=240;
ARM GAS  C:\Users\ZHANGM~1\AppData\Local\Temp\ccv7ygO1.s 			page 18


 274:.\module.c    ****     HP=320;
 624              		.loc 1 274 0
 625 0034 A021     		mov	r1, #160
 271:.\module.c    ****   	EEgyfullcnt=0;
 626              		.loc 1 271 0
 627 0036 1370     		strb	r3, [r2]
 273:.\module.c    ****   	SP=240;
 628              		.loc 1 273 0
 629 0038 104B     		ldr	r3, .L52+28
 630              		.loc 1 274 0
 631 003a 8140     		lsl	r1, r1, r0
 273:.\module.c    ****   	SP=240;
 632              		.loc 1 273 0
 633 003c F022     		mov	r2, #240
 634              		.loc 1 274 0
 635 003e 1048     		ldr	r0, .L52+32
 273:.\module.c    ****   	SP=240;
 636              		.loc 1 273 0
 637 0040 1A80     		strh	r2, [r3]
 275:.\module.c    ****     JP=2160;
 638              		.loc 1 275 0
 639 0042 8722     		mov	r2, #135
 274:.\module.c    ****     HP=320;
 640              		.loc 1 274 0
 641 0044 0180     		strh	r1, [r0]
 642              		.loc 1 275 0
 643 0046 1301     		lsl	r3, r2, #4
 644 0048 0E49     		ldr	r1, .L52+36
 276:.\module.c    ****     KP=2160;
 645              		.loc 1 276 0
 646 004a 0F48     		ldr	r0, .L52+40
 277:.\module.c    ****     LP=2160;
 647              		.loc 1 277 0
 648 004c 0F4A     		ldr	r2, .L52+44
 276:.\module.c    ****     KP=2160;
 649              		.loc 1 276 0
 650 004e 0380     		strh	r3, [r0]
 275:.\module.c    ****     JP=2160;
 651              		.loc 1 275 0
 652 0050 0B80     		strh	r3, [r1]
 653              		.loc 1 277 0
 654 0052 1380     		strh	r3, [r2]
 278:.\module.c    ****     MP=540;
 655              		.loc 1 278 0
 656 0054 0E48     		ldr	r0, .L52+48
 657 0056 8723     		mov	r3, #135
 658 0058 9900     		lsl	r1, r3, #2
 659 005a 0180     		strh	r1, [r0]
 279:.\module.c    **** }
 660              		.loc 1 279 0
 661              		@ sp needed for prologue
 662 005c 00BD     		pop	{pc}
 663              	.L53:
 664 005e C046     		.align	2
 665              	.L52:
 666 0060 00000000 		.word	array
 667 0064 00000000 		.word	LvxinJishi
ARM GAS  C:\Users\ZHANGM~1\AppData\Local\Temp\ccv7ygO1.s 			page 19


 668 0068 00000000 		.word	gyfullcnt
 669 006c 00000000 		.word	NBfig
 670 0070 00000000 		.word	EEjingshuiliang
 671 0074 00000000 		.word	jingshuiliang
 672 0078 00000000 		.word	EEgyfullcnt
 673 007c 00000000 		.word	SP
 674 0080 00000000 		.word	HP
 675 0084 00000000 		.word	JP
 676 0088 00000000 		.word	KP
 677 008c 00000000 		.word	LP
 678 0090 00000000 		.word	MP
 679              		.cfi_endproc
 680              	.LFE40:
 681              		.size	clean_ram, .-clean_ram
 682              		.section	.text.Stop_All_Module,"ax",%progbits
 683              		.align	1
 684              		.global	Stop_All_Module
 685              		.code	16
 686              		.thumb_func
 687              		.type	Stop_All_Module, %function
 688              	Stop_All_Module:
 689              	.LFB41:
 280:.\module.c    **** 
 281:.\module.c    **** 
 282:.\module.c    **** void Stop_All_Module(void)
 283:.\module.c    **** {
 690              		.loc 1 283 0
 691              		.cfi_startproc
 692 0000 08B5     		push	{r3, lr}
 693              	.LCFI7:
 694              		.cfi_def_cfa_offset 8
 695              		.cfi_offset 3, -8
 696              		.cfi_offset 14, -4
 284:.\module.c    ****     CapSense_Stop();
 697              		.loc 1 284 0
 698 0002 FFF7FEFF 		bl	CapSense_Stop
 699              	.LVL43:
 285:.\module.c    ****     Timer_Stop();
 286:.\module.c    ****     PWM_Stop();
 287:.\module.c    **** //    EEPROM_Stop();
 288:.\module.c    **** }
 700              		.loc 1 288 0
 701              		@ sp needed for prologue
 285:.\module.c    ****     Timer_Stop();
 702              		.loc 1 285 0
 703 0006 FFF7FEFF 		bl	Timer_Stop
 704              	.LVL44:
 286:.\module.c    ****     PWM_Stop();
 705              		.loc 1 286 0
 706 000a FFF7FEFF 		bl	PWM_Stop
 707              	.LVL45:
 708              		.loc 1 288 0
 709 000e 08BD     		pop	{r3, pc}
 710              		.cfi_endproc
 711              	.LFE41:
 712              		.size	Stop_All_Module, .-Stop_All_Module
 713              		.section	.text.cleareepromArray,"ax",%progbits
ARM GAS  C:\Users\ZHANGM~1\AppData\Local\Temp\ccv7ygO1.s 			page 20


 714              		.align	1
 715              		.global	cleareepromArray
 716              		.code	16
 717              		.thumb_func
 718              		.type	cleareepromArray, %function
 719              	cleareepromArray:
 720              	.LFB42:
 289:.\module.c    **** 
 290:.\module.c    **** void cleareepromArray(void)
 291:.\module.c    **** {
 721              		.loc 1 291 0
 722              		.cfi_startproc
 723 0000 38B5     		push	{r3, r4, r5, lr}
 724              	.LCFI8:
 725              		.cfi_def_cfa_offset 16
 726              		.cfi_offset 3, -16
 727              		.cfi_offset 4, -12
 728              		.cfi_offset 5, -8
 729              		.cfi_offset 14, -4
 292:.\module.c    ****     
 293:.\module.c    ****     for(n=0;n<31;n++)
 730              		.loc 1 293 0
 731 0002 0022     		mov	r2, #0
 732              	.L56:
 294:.\module.c    ****     {
 295:.\module.c    ****         array[n]=0;
 733              		.loc 1 295 0 discriminator 2
 734 0004 0D48     		ldr	r0, .L60
 735 0006 0023     		mov	r3, #0
 736 0008 8354     		strb	r3, [r0, r2]
 293:.\module.c    ****     for(n=0;n<31;n++)
 737              		.loc 1 293 0 discriminator 2
 738 000a 0132     		add	r2, r2, #1
 739 000c D2B2     		uxtb	r2, r2
 740 000e 1E2A     		cmp	r2, #30
 741 0010 F8D9     		bls	.L56
 742              	.L57:
 296:.\module.c    ****     }
 297:.\module.c    ****      
 298:.\module.c    ****     
 299:.\module.c    ****     for(n=0;n<12;n++)
 300:.\module.c    ****     {
 301:.\module.c    ****        LvxinJishi[n]=0;
 743              		.loc 1 301 0 discriminator 2
 744 0012 5D00     		lsl	r5, r3, #1
 745 0014 0A4C     		ldr	r4, .L60+4
 299:.\module.c    ****     for(n=0;n<12;n++)
 746              		.loc 1 299 0 discriminator 2
 747 0016 0133     		add	r3, r3, #1
 748              		.loc 1 301 0 discriminator 2
 749 0018 0022     		mov	r2, #0
 299:.\module.c    ****     for(n=0;n<12;n++)
 750              		.loc 1 299 0 discriminator 2
 751 001a DBB2     		uxtb	r3, r3
 752              		.loc 1 301 0 discriminator 2
 753 001c 2A53     		strh	r2, [r5, r4]
 299:.\module.c    ****     for(n=0;n<12;n++)
ARM GAS  C:\Users\ZHANGM~1\AppData\Local\Temp\ccv7ygO1.s 			page 21


 754              		.loc 1 299 0 discriminator 2
 755 001e 0B2B     		cmp	r3, #11
 756 0020 F7D9     		bls	.L57
 757 0022 084D     		ldr	r5, .L60+8
 302:.\module.c    ****     
 303:.\module.c    ****     
 304:.\module.c    ****     }
 305:.\module.c    ****     
 306:.\module.c    ****     gyfullcnt=0;
 758              		.loc 1 306 0
 759 0024 084C     		ldr	r4, .L60+12
 760 0026 2B70     		strb	r3, [r5]
 307:.\module.c    ****     NBfig=1;
 761              		.loc 1 307 0
 762 0028 0849     		ldr	r1, .L60+16
 308:.\module.c    ****     jingshuiliang=0;
 763              		.loc 1 308 0
 764 002a 094D     		ldr	r5, .L60+20
 307:.\module.c    ****     NBfig=1;
 765              		.loc 1 307 0
 766 002c 0123     		mov	r3, #1
 767              		.loc 1 308 0
 768 002e 2A80     		strh	r2, [r5]
 306:.\module.c    ****     gyfullcnt=0;
 769              		.loc 1 306 0
 770 0030 2270     		strb	r2, [r4]
 307:.\module.c    ****     NBfig=1;
 771              		.loc 1 307 0
 772 0032 0B70     		strb	r3, [r1]
 309:.\module.c    ****     array[0]=NBfig;
 773              		.loc 1 309 0
 774 0034 0370     		strb	r3, [r0]
 310:.\module.c    ****     
 311:.\module.c    ****     
 312:.\module.c    ****     
 313:.\module.c    ****     
 314:.\module.c    ****     
 315:.\module.c    ****    Flash_Write_aRow_Data(array);      
 316:.\module.c    ****    //EEPROM_Write(array,eepromArray,31);
 317:.\module.c    **** 
 318:.\module.c    **** }
 775              		.loc 1 318 0
 776              		@ sp needed for prologue
 315:.\module.c    ****    Flash_Write_aRow_Data(array);      
 777              		.loc 1 315 0
 778 0036 FFF7FEFF 		bl	Flash_Write_aRow_Data
 779              	.LVL46:
 780              		.loc 1 318 0
 781 003a 38BD     		pop	{r3, r4, r5, pc}
 782              	.L61:
 783              		.align	2
 784              	.L60:
 785 003c 00000000 		.word	array
 786 0040 00000000 		.word	LvxinJishi
 787 0044 00000000 		.word	n
 788 0048 00000000 		.word	gyfullcnt
 789 004c 00000000 		.word	NBfig
ARM GAS  C:\Users\ZHANGM~1\AppData\Local\Temp\ccv7ygO1.s 			page 22


 790 0050 00000000 		.word	jingshuiliang
 791              		.cfi_endproc
 792              	.LFE42:
 793              		.size	cleareepromArray, .-cleareepromArray
 794              		.section	.text.clearwdt,"ax",%progbits
 795              		.align	1
 796              		.global	clearwdt
 797              		.code	16
 798              		.thumb_func
 799              		.type	clearwdt, %function
 800              	clearwdt:
 801              	.LFB43:
 319:.\module.c    **** /*******************************************************************************
 320:.\module.c    ****                      WDT
 321:.\module.c    **** ********************************************************************************/
 322:.\module.c    **** void clearwdt(void)
 323:.\module.c    **** {
 802              		.loc 1 323 0
 803              		.cfi_startproc
 804 0000 08B5     		push	{r3, lr}
 805              	.LCFI9:
 806              		.cfi_def_cfa_offset 8
 807              		.cfi_offset 3, -8
 808              		.cfi_offset 14, -4
 324:.\module.c    ****       CySysWdtUnlock();        
 809              		.loc 1 324 0
 810 0002 FFF7FEFF 		bl	CySysWdtUnlock
 811              	.LVL47:
 325:.\module.c    ****       CySysWdtResetCounters(CY_SYS_WDT_COUNTER0_RESET);
 812              		.loc 1 325 0
 813 0006 0820     		mov	r0, #8
 814 0008 FFF7FEFF 		bl	CySysWdtResetCounters
 815              	.LVL48:
 326:.\module.c    ****       CySysWdtLock();
 327:.\module.c    **** 
 328:.\module.c    **** 
 329:.\module.c    **** }
 816              		.loc 1 329 0
 817              		@ sp needed for prologue
 326:.\module.c    ****       CySysWdtLock();
 818              		.loc 1 326 0
 819 000c FFF7FEFF 		bl	CySysWdtLock
 820              	.LVL49:
 821              		.loc 1 329 0
 822 0010 08BD     		pop	{r3, pc}
 823              		.cfi_endproc
 824              	.LFE43:
 825              		.size	clearwdt, .-clearwdt
 826              		.comm	FlashDataBuf,128,1
 827              		.comm	array,128,1
 828              		.comm	AdcTemp,8,4
 829              		.comm	AdcBuf,4,2
 830              		.comm	AdcData,4,2
 831              		.comm	AdcReady,4,4
 832              		.comm	T10msSign,1,1
 833              		.comm	BtnFlag,4,4
 834              		.comm	eepfig,1,1
ARM GAS  C:\Users\ZHANGM~1\AppData\Local\Temp\ccv7ygO1.s 			page 23


 835              		.comm	BtnCnt,1,1
 836              		.comm	BtnData,1,1
 837              		.comm	BtnData2,1,1
 838              		.comm	BtnData1,1,1
 839              		.text
 840              	.Letext0:
 841              		.file 2 "./Generated_Source/PSoC4/cytypes.h"
 842              		.file 3 ".\\module.h"
 843              		.file 4 "c:\\program files\\cypress\\psoc creator\\3.0\\psoc creator\\import\\gnu_cs\\arm\\4.7.3\\
 844              		.file 5 ".\\fun.h"
 845              		.file 6 ".\\flash_wr_rd.h"
 846              		.file 7 "./Generated_Source/PSoC4/CapSense.h"
 847              		.file 8 "./Generated_Source/PSoC4/CapSense_CSHL.h"
 848              		.file 9 "./Generated_Source/PSoC4/Timer.h"
 849              		.file 10 "./Generated_Source/PSoC4/CC_ISR.h"
 850              		.file 11 "./Generated_Source/PSoC4/PWM.h"
 851              		.file 12 "./Generated_Source/PSoC4/CyLib.h"