ARM GAS  C:\Users\ZHANGM~1\AppData\Local\Temp\cc4Bw5rH.s 			page 1


   1              		.cpu cortex-m0
   2              		.fpu softvfp
   3              		.eabi_attribute 20, 1
   4              		.eabi_attribute 21, 1
   5              		.eabi_attribute 23, 3
   6              		.eabi_attribute 24, 1
   7              		.eabi_attribute 25, 1
   8              		.eabi_attribute 26, 1
   9              		.eabi_attribute 30, 4
  10              		.eabi_attribute 34, 0
  11              		.eabi_attribute 18, 4
  12              		.code	16
  13              		.file	"UART_0_UART.c"
  14              		.text
  15              	.Ltext0:
  16              		.cfi_sections	.debug_frame
  17              		.section	.text.UART_0_UartInit,"ax",%progbits
  18              		.align	1
  19              		.global	UART_0_UartInit
  20              		.code	16
  21              		.thumb_func
  22              		.type	UART_0_UartInit, %function
  23              	UART_0_UartInit:
  24              	.LFB0:
  25              		.file 1 ".\\Generated_Source\\PSoC4\\UART_0_UART.c"
   1:.\Generated_Source\PSoC4/UART_0_UART.c **** /*******************************************************************************
   2:.\Generated_Source\PSoC4/UART_0_UART.c **** * File Name: UART_0_UART.c
   3:.\Generated_Source\PSoC4/UART_0_UART.c **** * Version 1.20
   4:.\Generated_Source\PSoC4/UART_0_UART.c **** *
   5:.\Generated_Source\PSoC4/UART_0_UART.c **** * Description:
   6:.\Generated_Source\PSoC4/UART_0_UART.c **** *  This file provides the source code to the API for the SCB Component in
   7:.\Generated_Source\PSoC4/UART_0_UART.c **** *  UART mode.
   8:.\Generated_Source\PSoC4/UART_0_UART.c **** *
   9:.\Generated_Source\PSoC4/UART_0_UART.c **** * Note:
  10:.\Generated_Source\PSoC4/UART_0_UART.c **** *
  11:.\Generated_Source\PSoC4/UART_0_UART.c **** *******************************************************************************
  12:.\Generated_Source\PSoC4/UART_0_UART.c **** * Copyright 2013-2014, Cypress Semiconductor Corporation.  All rights reserved.
  13:.\Generated_Source\PSoC4/UART_0_UART.c **** * You may use this file only in accordance with the license, terms, conditions,
  14:.\Generated_Source\PSoC4/UART_0_UART.c **** * disclaimers, and limitations in the end user license agreement accompanying
  15:.\Generated_Source\PSoC4/UART_0_UART.c **** * the software package with which this file was provided.
  16:.\Generated_Source\PSoC4/UART_0_UART.c **** *******************************************************************************/
  17:.\Generated_Source\PSoC4/UART_0_UART.c **** 
  18:.\Generated_Source\PSoC4/UART_0_UART.c **** #include "UART_0_PVT.h"
  19:.\Generated_Source\PSoC4/UART_0_UART.c **** #include "UART_0_SPI_UART_PVT.h"
  20:.\Generated_Source\PSoC4/UART_0_UART.c **** 
  21:.\Generated_Source\PSoC4/UART_0_UART.c **** 
  22:.\Generated_Source\PSoC4/UART_0_UART.c **** #if(UART_0_SCB_MODE_UNCONFIG_CONST_CFG)
  23:.\Generated_Source\PSoC4/UART_0_UART.c **** 
  24:.\Generated_Source\PSoC4/UART_0_UART.c ****     /***************************************
  25:.\Generated_Source\PSoC4/UART_0_UART.c ****     *  Config Structure Initialization
  26:.\Generated_Source\PSoC4/UART_0_UART.c ****     ***************************************/
  27:.\Generated_Source\PSoC4/UART_0_UART.c **** 
  28:.\Generated_Source\PSoC4/UART_0_UART.c ****     const UART_0_UART_INIT_STRUCT UART_0_configUart =
  29:.\Generated_Source\PSoC4/UART_0_UART.c ****     {
  30:.\Generated_Source\PSoC4/UART_0_UART.c ****         UART_0_UART_SUB_MODE,
  31:.\Generated_Source\PSoC4/UART_0_UART.c ****         UART_0_UART_DIRECTION,
  32:.\Generated_Source\PSoC4/UART_0_UART.c ****         UART_0_UART_DATA_BITS_NUM,
ARM GAS  C:\Users\ZHANGM~1\AppData\Local\Temp\cc4Bw5rH.s 			page 2


  33:.\Generated_Source\PSoC4/UART_0_UART.c ****         UART_0_UART_PARITY_TYPE,
  34:.\Generated_Source\PSoC4/UART_0_UART.c ****         UART_0_UART_STOP_BITS_NUM,
  35:.\Generated_Source\PSoC4/UART_0_UART.c ****         UART_0_UART_OVS_FACTOR,
  36:.\Generated_Source\PSoC4/UART_0_UART.c ****         UART_0_UART_IRDA_LOW_POWER,
  37:.\Generated_Source\PSoC4/UART_0_UART.c ****         UART_0_UART_MEDIAN_FILTER_ENABLE,
  38:.\Generated_Source\PSoC4/UART_0_UART.c ****         UART_0_UART_RETRY_ON_NACK,
  39:.\Generated_Source\PSoC4/UART_0_UART.c ****         UART_0_UART_IRDA_POLARITY,
  40:.\Generated_Source\PSoC4/UART_0_UART.c ****         UART_0_UART_DROP_ON_PARITY_ERR,
  41:.\Generated_Source\PSoC4/UART_0_UART.c ****         UART_0_UART_DROP_ON_FRAME_ERR,
  42:.\Generated_Source\PSoC4/UART_0_UART.c ****         UART_0_UART_WAKE_ENABLE,
  43:.\Generated_Source\PSoC4/UART_0_UART.c ****         0u,
  44:.\Generated_Source\PSoC4/UART_0_UART.c ****         NULL,
  45:.\Generated_Source\PSoC4/UART_0_UART.c ****         0u,
  46:.\Generated_Source\PSoC4/UART_0_UART.c ****         NULL,
  47:.\Generated_Source\PSoC4/UART_0_UART.c ****         UART_0_UART_MP_MODE_ENABLE,
  48:.\Generated_Source\PSoC4/UART_0_UART.c ****         UART_0_UART_MP_ACCEPT_ADDRESS,
  49:.\Generated_Source\PSoC4/UART_0_UART.c ****         UART_0_UART_MP_RX_ADDRESS,
  50:.\Generated_Source\PSoC4/UART_0_UART.c ****         UART_0_UART_MP_RX_ADDRESS_MASK,
  51:.\Generated_Source\PSoC4/UART_0_UART.c ****         (uint32) UART_0_SCB_IRQ_INTERNAL,
  52:.\Generated_Source\PSoC4/UART_0_UART.c ****         UART_0_UART_INTR_RX_MASK,
  53:.\Generated_Source\PSoC4/UART_0_UART.c ****         UART_0_UART_RX_TRIGGER_LEVEL,
  54:.\Generated_Source\PSoC4/UART_0_UART.c ****         UART_0_UART_INTR_TX_MASK,
  55:.\Generated_Source\PSoC4/UART_0_UART.c ****         UART_0_UART_TX_TRIGGER_LEVEL
  56:.\Generated_Source\PSoC4/UART_0_UART.c ****     };
  57:.\Generated_Source\PSoC4/UART_0_UART.c **** 
  58:.\Generated_Source\PSoC4/UART_0_UART.c **** 
  59:.\Generated_Source\PSoC4/UART_0_UART.c ****     /*******************************************************************************
  60:.\Generated_Source\PSoC4/UART_0_UART.c ****     * Function Name: UART_0_UartInit
  61:.\Generated_Source\PSoC4/UART_0_UART.c ****     ********************************************************************************
  62:.\Generated_Source\PSoC4/UART_0_UART.c ****     *
  63:.\Generated_Source\PSoC4/UART_0_UART.c ****     * Summary:
  64:.\Generated_Source\PSoC4/UART_0_UART.c ****     *  Configures the SCB for the UART operation.
  65:.\Generated_Source\PSoC4/UART_0_UART.c ****     *
  66:.\Generated_Source\PSoC4/UART_0_UART.c ****     * Parameters:
  67:.\Generated_Source\PSoC4/UART_0_UART.c ****     *  config:  Pointer to a structure that contains the following ordered list of
  68:.\Generated_Source\PSoC4/UART_0_UART.c ****     *           fields. These fields match the selections available in the
  69:.\Generated_Source\PSoC4/UART_0_UART.c ****     *           customizer.
  70:.\Generated_Source\PSoC4/UART_0_UART.c ****     *
  71:.\Generated_Source\PSoC4/UART_0_UART.c ****     * Return:
  72:.\Generated_Source\PSoC4/UART_0_UART.c ****     *  None
  73:.\Generated_Source\PSoC4/UART_0_UART.c ****     *
  74:.\Generated_Source\PSoC4/UART_0_UART.c ****     *******************************************************************************/
  75:.\Generated_Source\PSoC4/UART_0_UART.c ****     void UART_0_UartInit(const UART_0_UART_INIT_STRUCT *config)
  76:.\Generated_Source\PSoC4/UART_0_UART.c ****     {
  77:.\Generated_Source\PSoC4/UART_0_UART.c ****         if(NULL == config)
  78:.\Generated_Source\PSoC4/UART_0_UART.c ****         {
  79:.\Generated_Source\PSoC4/UART_0_UART.c ****             CYASSERT(0u != 0u); /* Halt execution due bad function parameter */
  80:.\Generated_Source\PSoC4/UART_0_UART.c ****         }
  81:.\Generated_Source\PSoC4/UART_0_UART.c ****         else
  82:.\Generated_Source\PSoC4/UART_0_UART.c ****         {
  83:.\Generated_Source\PSoC4/UART_0_UART.c ****             /* Configure pins */
  84:.\Generated_Source\PSoC4/UART_0_UART.c ****             UART_0_SetPins(UART_0_SCB_MODE_UART, config->mode, config->direction);
  85:.\Generated_Source\PSoC4/UART_0_UART.c **** 
  86:.\Generated_Source\PSoC4/UART_0_UART.c ****             /* Store internal configuration */
  87:.\Generated_Source\PSoC4/UART_0_UART.c ****             UART_0_scbMode       = (uint8) UART_0_SCB_MODE_UART;
  88:.\Generated_Source\PSoC4/UART_0_UART.c ****             UART_0_scbEnableWake = (uint8) config->enableWake;
  89:.\Generated_Source\PSoC4/UART_0_UART.c ****             UART_0_scbEnableIntr = (uint8) config->enableInterrupt;
ARM GAS  C:\Users\ZHANGM~1\AppData\Local\Temp\cc4Bw5rH.s 			page 3


  90:.\Generated_Source\PSoC4/UART_0_UART.c **** 
  91:.\Generated_Source\PSoC4/UART_0_UART.c ****             /* Set RX direction internal variables */
  92:.\Generated_Source\PSoC4/UART_0_UART.c ****             UART_0_rxBuffer      =         config->rxBuffer;
  93:.\Generated_Source\PSoC4/UART_0_UART.c ****             UART_0_rxDataBits    = (uint8) config->dataBits;
  94:.\Generated_Source\PSoC4/UART_0_UART.c ****             UART_0_rxBufferSize  = (uint8) config->rxBufferSize;
  95:.\Generated_Source\PSoC4/UART_0_UART.c **** 
  96:.\Generated_Source\PSoC4/UART_0_UART.c ****             /* Set TX direction internal variables */
  97:.\Generated_Source\PSoC4/UART_0_UART.c ****             UART_0_txBuffer      =         config->txBuffer;
  98:.\Generated_Source\PSoC4/UART_0_UART.c ****             UART_0_txDataBits    = (uint8) config->dataBits;
  99:.\Generated_Source\PSoC4/UART_0_UART.c ****             UART_0_txBufferSize  = (uint8) config->txBufferSize;
 100:.\Generated_Source\PSoC4/UART_0_UART.c **** 
 101:.\Generated_Source\PSoC4/UART_0_UART.c ****             /* Configure UART interface */
 102:.\Generated_Source\PSoC4/UART_0_UART.c ****             if(UART_0_UART_MODE_IRDA == config->mode)
 103:.\Generated_Source\PSoC4/UART_0_UART.c ****             {
 104:.\Generated_Source\PSoC4/UART_0_UART.c ****                 /* OVS settings: IrDA */
 105:.\Generated_Source\PSoC4/UART_0_UART.c ****                 UART_0_CTRL_REG  = ((0u != config->enableIrdaLowPower) ?
 106:.\Generated_Source\PSoC4/UART_0_UART.c ****                                                 (UART_0_UART_GET_CTRL_OVS_IRDA_LP(config->oversampl
 107:.\Generated_Source\PSoC4/UART_0_UART.c ****                                                 (UART_0_CTRL_OVS_IRDA_OVS16));
 108:.\Generated_Source\PSoC4/UART_0_UART.c ****             }
 109:.\Generated_Source\PSoC4/UART_0_UART.c ****             else
 110:.\Generated_Source\PSoC4/UART_0_UART.c ****             {
 111:.\Generated_Source\PSoC4/UART_0_UART.c ****                 /* OVS settings: UART and SmartCard */
 112:.\Generated_Source\PSoC4/UART_0_UART.c ****                 UART_0_CTRL_REG  = UART_0_GET_CTRL_OVS(config->oversample);
 113:.\Generated_Source\PSoC4/UART_0_UART.c ****             }
 114:.\Generated_Source\PSoC4/UART_0_UART.c **** 
 115:.\Generated_Source\PSoC4/UART_0_UART.c ****             UART_0_CTRL_REG     |= UART_0_GET_CTRL_ADDR_ACCEPT(config->multiprocAcceptAddr) |
 116:.\Generated_Source\PSoC4/UART_0_UART.c ****                                              UART_0_CTRL_UART;
 117:.\Generated_Source\PSoC4/UART_0_UART.c **** 
 118:.\Generated_Source\PSoC4/UART_0_UART.c ****             /* Configure sub-mode: UART, SmartCard or IrDA */
 119:.\Generated_Source\PSoC4/UART_0_UART.c ****             UART_0_UART_CTRL_REG = UART_0_GET_UART_CTRL_MODE(config->mode);
 120:.\Generated_Source\PSoC4/UART_0_UART.c **** 
 121:.\Generated_Source\PSoC4/UART_0_UART.c ****             /* Configure RX direction */
 122:.\Generated_Source\PSoC4/UART_0_UART.c ****             UART_0_UART_RX_CTRL_REG = UART_0_GET_UART_RX_CTRL_MODE(config->stopBits)              |
 123:.\Generated_Source\PSoC4/UART_0_UART.c ****                                         UART_0_GET_UART_RX_CTRL_POLARITY(config->enableInvertedRx) 
 124:.\Generated_Source\PSoC4/UART_0_UART.c ****                                         UART_0_GET_UART_RX_CTRL_MP_MODE(config->enableMultiproc)   
 125:.\Generated_Source\PSoC4/UART_0_UART.c ****                                         UART_0_GET_UART_RX_CTRL_DROP_ON_PARITY_ERR(config->dropOnPa
 126:.\Generated_Source\PSoC4/UART_0_UART.c ****                                         UART_0_GET_UART_RX_CTRL_DROP_ON_FRAME_ERR(config->dropOnFra
 127:.\Generated_Source\PSoC4/UART_0_UART.c **** 
 128:.\Generated_Source\PSoC4/UART_0_UART.c ****             if(UART_0_UART_PARITY_NONE != config->parity)
 129:.\Generated_Source\PSoC4/UART_0_UART.c ****             {
 130:.\Generated_Source\PSoC4/UART_0_UART.c ****                UART_0_UART_RX_CTRL_REG |= UART_0_GET_UART_RX_CTRL_PARITY(config->parity) |
 131:.\Generated_Source\PSoC4/UART_0_UART.c ****                                                     UART_0_UART_RX_CTRL_PARITY_ENABLED;
 132:.\Generated_Source\PSoC4/UART_0_UART.c ****             }
 133:.\Generated_Source\PSoC4/UART_0_UART.c **** 
 134:.\Generated_Source\PSoC4/UART_0_UART.c ****             UART_0_RX_CTRL_REG      = UART_0_GET_RX_CTRL_DATA_WIDTH(config->dataBits)       |
 135:.\Generated_Source\PSoC4/UART_0_UART.c ****                                                 UART_0_GET_RX_CTRL_MEDIAN(config->enableMedianFilte
 136:.\Generated_Source\PSoC4/UART_0_UART.c ****                                                 UART_0_GET_UART_RX_CTRL_ENABLED(config->direction);
 137:.\Generated_Source\PSoC4/UART_0_UART.c **** 
 138:.\Generated_Source\PSoC4/UART_0_UART.c ****             UART_0_RX_FIFO_CTRL_REG = UART_0_GET_RX_FIFO_CTRL_TRIGGER_LEVEL(config->rxTriggerLevel)
 139:.\Generated_Source\PSoC4/UART_0_UART.c **** 
 140:.\Generated_Source\PSoC4/UART_0_UART.c ****             /* Configure MP address */
 141:.\Generated_Source\PSoC4/UART_0_UART.c ****             UART_0_RX_MATCH_REG     = UART_0_GET_RX_MATCH_ADDR(config->multiprocAddr) |
 142:.\Generated_Source\PSoC4/UART_0_UART.c ****                                                 UART_0_GET_RX_MATCH_MASK(config->multiprocAddrMask)
 143:.\Generated_Source\PSoC4/UART_0_UART.c **** 
 144:.\Generated_Source\PSoC4/UART_0_UART.c ****             /* Configure RX direction */
 145:.\Generated_Source\PSoC4/UART_0_UART.c ****             UART_0_UART_TX_CTRL_REG = UART_0_GET_UART_TX_CTRL_MODE(config->stopBits) |
 146:.\Generated_Source\PSoC4/UART_0_UART.c ****                                                 UART_0_GET_UART_TX_CTRL_RETRY_NACK(config->enableRe
ARM GAS  C:\Users\ZHANGM~1\AppData\Local\Temp\cc4Bw5rH.s 			page 4


 147:.\Generated_Source\PSoC4/UART_0_UART.c **** 
 148:.\Generated_Source\PSoC4/UART_0_UART.c ****             if(UART_0_UART_PARITY_NONE != config->parity)
 149:.\Generated_Source\PSoC4/UART_0_UART.c ****             {
 150:.\Generated_Source\PSoC4/UART_0_UART.c ****                UART_0_UART_TX_CTRL_REG |= UART_0_GET_UART_TX_CTRL_PARITY(config->parity) |
 151:.\Generated_Source\PSoC4/UART_0_UART.c ****                                                     UART_0_UART_TX_CTRL_PARITY_ENABLED;
 152:.\Generated_Source\PSoC4/UART_0_UART.c ****             }
 153:.\Generated_Source\PSoC4/UART_0_UART.c **** 
 154:.\Generated_Source\PSoC4/UART_0_UART.c ****             UART_0_TX_CTRL_REG      = UART_0_GET_TX_CTRL_DATA_WIDTH(config->dataBits)    |
 155:.\Generated_Source\PSoC4/UART_0_UART.c ****                                                 UART_0_GET_UART_TX_CTRL_ENABLED(config->direction);
 156:.\Generated_Source\PSoC4/UART_0_UART.c **** 
 157:.\Generated_Source\PSoC4/UART_0_UART.c ****             UART_0_TX_FIFO_CTRL_REG = UART_0_GET_TX_FIFO_CTRL_TRIGGER_LEVEL(config->txTriggerLevel)
 158:.\Generated_Source\PSoC4/UART_0_UART.c **** 
 159:.\Generated_Source\PSoC4/UART_0_UART.c **** 
 160:.\Generated_Source\PSoC4/UART_0_UART.c **** 
 161:.\Generated_Source\PSoC4/UART_0_UART.c ****             /* Configure interrupt with UART handler but do not enable it */
 162:.\Generated_Source\PSoC4/UART_0_UART.c ****             CyIntDisable    (UART_0_ISR_NUMBER);
 163:.\Generated_Source\PSoC4/UART_0_UART.c ****             CyIntSetPriority(UART_0_ISR_NUMBER, UART_0_ISR_PRIORITY);
 164:.\Generated_Source\PSoC4/UART_0_UART.c ****             (void) CyIntSetVector(UART_0_ISR_NUMBER, &UART_0_SPI_UART_ISR);
 165:.\Generated_Source\PSoC4/UART_0_UART.c **** 
 166:.\Generated_Source\PSoC4/UART_0_UART.c ****             /* Configure WAKE interrupt */
 167:.\Generated_Source\PSoC4/UART_0_UART.c ****         #if(UART_0_UART_RX_WAKEUP_IRQ)
 168:.\Generated_Source\PSoC4/UART_0_UART.c ****             CyIntDisable    (UART_0_RX_WAKE_ISR_NUMBER);
 169:.\Generated_Source\PSoC4/UART_0_UART.c ****             CyIntSetPriority(UART_0_RX_WAKE_ISR_NUMBER, UART_0_RX_WAKE_ISR_PRIORITY);
 170:.\Generated_Source\PSoC4/UART_0_UART.c ****             (void) CyIntSetVector(UART_0_RX_WAKE_ISR_NUMBER, &UART_0_UART_WAKEUP_ISR);
 171:.\Generated_Source\PSoC4/UART_0_UART.c ****         #endif /* (UART_0_UART_RX_WAKEUP_IRQ) */
 172:.\Generated_Source\PSoC4/UART_0_UART.c **** 
 173:.\Generated_Source\PSoC4/UART_0_UART.c ****             /* Configure interrupt sources */
 174:.\Generated_Source\PSoC4/UART_0_UART.c ****             UART_0_INTR_I2C_EC_MASK_REG = UART_0_NO_INTR_SOURCES;
 175:.\Generated_Source\PSoC4/UART_0_UART.c ****             UART_0_INTR_SPI_EC_MASK_REG = UART_0_NO_INTR_SOURCES;
 176:.\Generated_Source\PSoC4/UART_0_UART.c ****             UART_0_INTR_SLAVE_MASK_REG  = UART_0_NO_INTR_SOURCES;
 177:.\Generated_Source\PSoC4/UART_0_UART.c ****             UART_0_INTR_MASTER_MASK_REG = UART_0_NO_INTR_SOURCES;
 178:.\Generated_Source\PSoC4/UART_0_UART.c ****             UART_0_INTR_RX_MASK_REG     = config->rxInterruptMask;
 179:.\Generated_Source\PSoC4/UART_0_UART.c ****             UART_0_INTR_TX_MASK_REG     = config->txInterruptMask;
 180:.\Generated_Source\PSoC4/UART_0_UART.c **** 
 181:.\Generated_Source\PSoC4/UART_0_UART.c ****             /* Clear RX buffer indexes */
 182:.\Generated_Source\PSoC4/UART_0_UART.c ****             UART_0_rxBufferHead     = 0u;
 183:.\Generated_Source\PSoC4/UART_0_UART.c ****             UART_0_rxBufferTail     = 0u;
 184:.\Generated_Source\PSoC4/UART_0_UART.c ****             UART_0_rxBufferOverflow = 0u;
 185:.\Generated_Source\PSoC4/UART_0_UART.c **** 
 186:.\Generated_Source\PSoC4/UART_0_UART.c ****             /* Clrea TX buffer indexes */
 187:.\Generated_Source\PSoC4/UART_0_UART.c ****             UART_0_txBufferHead = 0u;
 188:.\Generated_Source\PSoC4/UART_0_UART.c ****             UART_0_txBufferTail = 0u;
 189:.\Generated_Source\PSoC4/UART_0_UART.c ****         }
 190:.\Generated_Source\PSoC4/UART_0_UART.c ****     }
 191:.\Generated_Source\PSoC4/UART_0_UART.c **** 
 192:.\Generated_Source\PSoC4/UART_0_UART.c **** #else
 193:.\Generated_Source\PSoC4/UART_0_UART.c **** 
 194:.\Generated_Source\PSoC4/UART_0_UART.c ****     /*******************************************************************************
 195:.\Generated_Source\PSoC4/UART_0_UART.c ****     * Function Name: UART_0_UartInit
 196:.\Generated_Source\PSoC4/UART_0_UART.c ****     ********************************************************************************
 197:.\Generated_Source\PSoC4/UART_0_UART.c ****     *
 198:.\Generated_Source\PSoC4/UART_0_UART.c ****     * Summary:
 199:.\Generated_Source\PSoC4/UART_0_UART.c ****     *  Configures the SCB for the UART operation.
 200:.\Generated_Source\PSoC4/UART_0_UART.c ****     *
 201:.\Generated_Source\PSoC4/UART_0_UART.c ****     * Parameters:
 202:.\Generated_Source\PSoC4/UART_0_UART.c ****     *  None
 203:.\Generated_Source\PSoC4/UART_0_UART.c ****     *
ARM GAS  C:\Users\ZHANGM~1\AppData\Local\Temp\cc4Bw5rH.s 			page 5


 204:.\Generated_Source\PSoC4/UART_0_UART.c ****     * Return:
 205:.\Generated_Source\PSoC4/UART_0_UART.c ****     *  None
 206:.\Generated_Source\PSoC4/UART_0_UART.c ****     *
 207:.\Generated_Source\PSoC4/UART_0_UART.c ****     *******************************************************************************/
 208:.\Generated_Source\PSoC4/UART_0_UART.c ****     void UART_0_UartInit(void)
 209:.\Generated_Source\PSoC4/UART_0_UART.c ****     {
  26              		.loc 1 209 0
  27              		.cfi_startproc
 210:.\Generated_Source\PSoC4/UART_0_UART.c ****         /* Configure UART interface */
 211:.\Generated_Source\PSoC4/UART_0_UART.c ****         UART_0_CTRL_REG = UART_0_UART_DEFAULT_CTRL;
  28              		.loc 1 211 0
  29 0000 184A     		ldr	r2, .L2
  30 0002 194B     		ldr	r3, .L2+4
 212:.\Generated_Source\PSoC4/UART_0_UART.c **** 
 213:.\Generated_Source\PSoC4/UART_0_UART.c ****         /* Configure sub-mode: UART, SmartCard or IrDA */
 214:.\Generated_Source\PSoC4/UART_0_UART.c ****         UART_0_UART_CTRL_REG = UART_0_UART_DEFAULT_UART_CTRL;
  31              		.loc 1 214 0
  32 0004 1948     		ldr	r0, .L2+8
 209:.\Generated_Source\PSoC4/UART_0_UART.c ****     {
  33              		.loc 1 209 0
  34 0006 10B5     		push	{r4, lr}
  35              	.LCFI0:
  36              		.cfi_def_cfa_offset 8
  37              		.cfi_offset 4, -8
  38              		.cfi_offset 14, -4
 215:.\Generated_Source\PSoC4/UART_0_UART.c **** 
 216:.\Generated_Source\PSoC4/UART_0_UART.c ****         /* Configure RX direction */
 217:.\Generated_Source\PSoC4/UART_0_UART.c ****         UART_0_UART_RX_CTRL_REG = UART_0_UART_DEFAULT_UART_RX_CTRL;
  39              		.loc 1 217 0
  40 0008 1949     		ldr	r1, .L2+12
 214:.\Generated_Source\PSoC4/UART_0_UART.c ****         UART_0_UART_CTRL_REG = UART_0_UART_DEFAULT_UART_CTRL;
  41              		.loc 1 214 0
  42 000a 0024     		mov	r4, #0
 211:.\Generated_Source\PSoC4/UART_0_UART.c ****         UART_0_CTRL_REG = UART_0_UART_DEFAULT_CTRL;
  43              		.loc 1 211 0
  44 000c 1A60     		str	r2, [r3]
 214:.\Generated_Source\PSoC4/UART_0_UART.c ****         UART_0_UART_CTRL_REG = UART_0_UART_DEFAULT_UART_CTRL;
  45              		.loc 1 214 0
  46 000e 0460     		str	r4, [r0]
  47              		.loc 1 217 0
  48 0010 0122     		mov	r2, #1
 218:.\Generated_Source\PSoC4/UART_0_UART.c ****         UART_0_RX_CTRL_REG      = UART_0_UART_DEFAULT_RX_CTRL;
  49              		.loc 1 218 0
  50 0012 184B     		ldr	r3, .L2+16
  51 0014 1848     		ldr	r0, .L2+20
 217:.\Generated_Source\PSoC4/UART_0_UART.c ****         UART_0_UART_RX_CTRL_REG = UART_0_UART_DEFAULT_UART_RX_CTRL;
  52              		.loc 1 217 0
  53 0016 0A60     		str	r2, [r1]
 219:.\Generated_Source\PSoC4/UART_0_UART.c ****         UART_0_RX_FIFO_CTRL_REG = UART_0_UART_DEFAULT_RX_FIFO_CTRL;
  54              		.loc 1 219 0
  55 0018 1849     		ldr	r1, .L2+24
 218:.\Generated_Source\PSoC4/UART_0_UART.c ****         UART_0_RX_CTRL_REG      = UART_0_UART_DEFAULT_RX_CTRL;
  56              		.loc 1 218 0
  57 001a 0360     		str	r3, [r0]
  58              		.loc 1 219 0
  59 001c 0720     		mov	r0, #7
  60 001e 0860     		str	r0, [r1]
ARM GAS  C:\Users\ZHANGM~1\AppData\Local\Temp\cc4Bw5rH.s 			page 6


 220:.\Generated_Source\PSoC4/UART_0_UART.c ****         UART_0_RX_MATCH_REG     = UART_0_UART_DEFAULT_RX_MATCH_REG;
 221:.\Generated_Source\PSoC4/UART_0_UART.c **** 
 222:.\Generated_Source\PSoC4/UART_0_UART.c ****         /* Configure TX direction */
 223:.\Generated_Source\PSoC4/UART_0_UART.c ****         UART_0_UART_TX_CTRL_REG = UART_0_UART_DEFAULT_UART_TX_CTRL;
  61              		.loc 1 223 0
  62 0020 1749     		ldr	r1, .L2+28
 220:.\Generated_Source\PSoC4/UART_0_UART.c ****         UART_0_RX_MATCH_REG     = UART_0_UART_DEFAULT_RX_MATCH_REG;
  63              		.loc 1 220 0
  64 0022 1848     		ldr	r0, .L2+32
 224:.\Generated_Source\PSoC4/UART_0_UART.c ****         UART_0_TX_CTRL_REG      = UART_0_UART_DEFAULT_TX_CTRL;
 225:.\Generated_Source\PSoC4/UART_0_UART.c ****         UART_0_TX_FIFO_CTRL_REG = UART_0_UART_DEFAULT_TX_FIFO_CTRL;
 226:.\Generated_Source\PSoC4/UART_0_UART.c **** 
 227:.\Generated_Source\PSoC4/UART_0_UART.c ****         /* Configure interrupt with UART handler but do not enable it */
 228:.\Generated_Source\PSoC4/UART_0_UART.c ****     #if(UART_0_SCB_IRQ_INTERNAL)
 229:.\Generated_Source\PSoC4/UART_0_UART.c ****         CyIntDisable    (UART_0_ISR_NUMBER);
 230:.\Generated_Source\PSoC4/UART_0_UART.c ****         CyIntSetPriority(UART_0_ISR_NUMBER, UART_0_ISR_PRIORITY);
 231:.\Generated_Source\PSoC4/UART_0_UART.c ****         (void) CyIntSetVector(UART_0_ISR_NUMBER, &UART_0_SPI_UART_ISR);
 232:.\Generated_Source\PSoC4/UART_0_UART.c ****     #endif /* (UART_0_SCB_IRQ_INTERNAL) */
 233:.\Generated_Source\PSoC4/UART_0_UART.c **** 
 234:.\Generated_Source\PSoC4/UART_0_UART.c ****         /* Configure WAKE interrupt */
 235:.\Generated_Source\PSoC4/UART_0_UART.c ****     #if(UART_0_UART_RX_WAKEUP_IRQ)
 236:.\Generated_Source\PSoC4/UART_0_UART.c ****         CyIntDisable    (UART_0_RX_WAKE_ISR_NUMBER);
 237:.\Generated_Source\PSoC4/UART_0_UART.c ****         CyIntSetPriority(UART_0_RX_WAKE_ISR_NUMBER, UART_0_RX_WAKE_ISR_PRIORITY);
 238:.\Generated_Source\PSoC4/UART_0_UART.c ****         (void) CyIntSetVector(UART_0_RX_WAKE_ISR_NUMBER, &UART_0_UART_WAKEUP_ISR);
 239:.\Generated_Source\PSoC4/UART_0_UART.c ****     #endif /* (UART_0_UART_RX_WAKEUP_IRQ) */
 240:.\Generated_Source\PSoC4/UART_0_UART.c **** 
 241:.\Generated_Source\PSoC4/UART_0_UART.c ****         /* Configure interrupt sources */
 242:.\Generated_Source\PSoC4/UART_0_UART.c ****         UART_0_INTR_I2C_EC_MASK_REG = UART_0_UART_DEFAULT_INTR_I2C_EC_MASK;
 243:.\Generated_Source\PSoC4/UART_0_UART.c ****         UART_0_INTR_SPI_EC_MASK_REG = UART_0_UART_DEFAULT_INTR_SPI_EC_MASK;
 244:.\Generated_Source\PSoC4/UART_0_UART.c ****         UART_0_INTR_SLAVE_MASK_REG  = UART_0_UART_DEFAULT_INTR_SLAVE_MASK;
 245:.\Generated_Source\PSoC4/UART_0_UART.c ****         UART_0_INTR_MASTER_MASK_REG = UART_0_UART_DEFAULT_INTR_MASTER_MASK;
 246:.\Generated_Source\PSoC4/UART_0_UART.c ****         UART_0_INTR_RX_MASK_REG     = UART_0_UART_DEFAULT_INTR_RX_MASK;
 247:.\Generated_Source\PSoC4/UART_0_UART.c ****         UART_0_INTR_TX_MASK_REG     = UART_0_UART_DEFAULT_INTR_TX_MASK;
 248:.\Generated_Source\PSoC4/UART_0_UART.c **** 
 249:.\Generated_Source\PSoC4/UART_0_UART.c ****     #if(UART_0_INTERNAL_RX_SW_BUFFER_CONST)
 250:.\Generated_Source\PSoC4/UART_0_UART.c ****         UART_0_rxBufferHead     = 0u;
 251:.\Generated_Source\PSoC4/UART_0_UART.c ****         UART_0_rxBufferTail     = 0u;
 252:.\Generated_Source\PSoC4/UART_0_UART.c ****         UART_0_rxBufferOverflow = 0u;
 253:.\Generated_Source\PSoC4/UART_0_UART.c ****     #endif /* (UART_0_INTERNAL_RX_SW_BUFFER_CONST) */
 254:.\Generated_Source\PSoC4/UART_0_UART.c **** 
 255:.\Generated_Source\PSoC4/UART_0_UART.c ****     #if(UART_0_INTERNAL_TX_SW_BUFFER_CONST)
 256:.\Generated_Source\PSoC4/UART_0_UART.c ****         UART_0_txBufferHead = 0u;
 257:.\Generated_Source\PSoC4/UART_0_UART.c ****         UART_0_txBufferTail = 0u;
 258:.\Generated_Source\PSoC4/UART_0_UART.c ****     #endif /* (UART_0_INTERNAL_TX_SW_BUFFER_CONST) */
 259:.\Generated_Source\PSoC4/UART_0_UART.c ****     }
  65              		.loc 1 259 0
  66              		@ sp needed for prologue
 220:.\Generated_Source\PSoC4/UART_0_UART.c ****         UART_0_RX_MATCH_REG     = UART_0_UART_DEFAULT_RX_MATCH_REG;
  67              		.loc 1 220 0
  68 0024 0460     		str	r4, [r0]
 223:.\Generated_Source\PSoC4/UART_0_UART.c ****         UART_0_UART_TX_CTRL_REG = UART_0_UART_DEFAULT_UART_TX_CTRL;
  69              		.loc 1 223 0
  70 0026 0A60     		str	r2, [r1]
 224:.\Generated_Source\PSoC4/UART_0_UART.c ****         UART_0_TX_CTRL_REG      = UART_0_UART_DEFAULT_TX_CTRL;
  71              		.loc 1 224 0
  72 0028 174A     		ldr	r2, .L2+36
 229:.\Generated_Source\PSoC4/UART_0_UART.c ****         CyIntDisable    (UART_0_ISR_NUMBER);
ARM GAS  C:\Users\ZHANGM~1\AppData\Local\Temp\cc4Bw5rH.s 			page 7


  73              		.loc 1 229 0
  74 002a 0B20     		mov	r0, #11
 224:.\Generated_Source\PSoC4/UART_0_UART.c ****         UART_0_TX_CTRL_REG      = UART_0_UART_DEFAULT_TX_CTRL;
  75              		.loc 1 224 0
  76 002c 1360     		str	r3, [r2]
 225:.\Generated_Source\PSoC4/UART_0_UART.c ****         UART_0_TX_FIFO_CTRL_REG = UART_0_UART_DEFAULT_TX_FIFO_CTRL;
  77              		.loc 1 225 0
  78 002e 174B     		ldr	r3, .L2+40
  79 0030 1C60     		str	r4, [r3]
 229:.\Generated_Source\PSoC4/UART_0_UART.c ****         CyIntDisable    (UART_0_ISR_NUMBER);
  80              		.loc 1 229 0
  81 0032 FFF7FEFF 		bl	CyIntDisable
  82              	.LVL0:
 230:.\Generated_Source\PSoC4/UART_0_UART.c ****         CyIntSetPriority(UART_0_ISR_NUMBER, UART_0_ISR_PRIORITY);
  83              		.loc 1 230 0
  84 0036 0B20     		mov	r0, #11
  85 0038 0321     		mov	r1, #3
  86 003a FFF7FEFF 		bl	CyIntSetPriority
  87              	.LVL1:
 231:.\Generated_Source\PSoC4/UART_0_UART.c ****         (void) CyIntSetVector(UART_0_ISR_NUMBER, &UART_0_SPI_UART_ISR);
  88              		.loc 1 231 0
  89 003e 1449     		ldr	r1, .L2+44
  90 0040 0B20     		mov	r0, #11
  91 0042 FFF7FEFF 		bl	CyIntSetVector
  92              	.LVL2:
 242:.\Generated_Source\PSoC4/UART_0_UART.c ****         UART_0_INTR_I2C_EC_MASK_REG = UART_0_UART_DEFAULT_INTR_I2C_EC_MASK;
  93              		.loc 1 242 0
  94 0046 1348     		ldr	r0, .L2+48
 243:.\Generated_Source\PSoC4/UART_0_UART.c ****         UART_0_INTR_SPI_EC_MASK_REG = UART_0_UART_DEFAULT_INTR_SPI_EC_MASK;
  95              		.loc 1 243 0
  96 0048 1349     		ldr	r1, .L2+52
 244:.\Generated_Source\PSoC4/UART_0_UART.c ****         UART_0_INTR_SLAVE_MASK_REG  = UART_0_UART_DEFAULT_INTR_SLAVE_MASK;
  97              		.loc 1 244 0
  98 004a 144A     		ldr	r2, .L2+56
 242:.\Generated_Source\PSoC4/UART_0_UART.c ****         UART_0_INTR_I2C_EC_MASK_REG = UART_0_UART_DEFAULT_INTR_I2C_EC_MASK;
  99              		.loc 1 242 0
 100 004c 0460     		str	r4, [r0]
 245:.\Generated_Source\PSoC4/UART_0_UART.c ****         UART_0_INTR_MASTER_MASK_REG = UART_0_UART_DEFAULT_INTR_MASTER_MASK;
 101              		.loc 1 245 0
 102 004e 144B     		ldr	r3, .L2+60
 243:.\Generated_Source\PSoC4/UART_0_UART.c ****         UART_0_INTR_SPI_EC_MASK_REG = UART_0_UART_DEFAULT_INTR_SPI_EC_MASK;
 103              		.loc 1 243 0
 104 0050 0C60     		str	r4, [r1]
 244:.\Generated_Source\PSoC4/UART_0_UART.c ****         UART_0_INTR_SLAVE_MASK_REG  = UART_0_UART_DEFAULT_INTR_SLAVE_MASK;
 105              		.loc 1 244 0
 106 0052 1460     		str	r4, [r2]
 246:.\Generated_Source\PSoC4/UART_0_UART.c ****         UART_0_INTR_RX_MASK_REG     = UART_0_UART_DEFAULT_INTR_RX_MASK;
 107              		.loc 1 246 0
 108 0054 1349     		ldr	r1, .L2+64
 247:.\Generated_Source\PSoC4/UART_0_UART.c ****         UART_0_INTR_TX_MASK_REG     = UART_0_UART_DEFAULT_INTR_TX_MASK;
 109              		.loc 1 247 0
 110 0056 144A     		ldr	r2, .L2+68
 246:.\Generated_Source\PSoC4/UART_0_UART.c ****         UART_0_INTR_RX_MASK_REG     = UART_0_UART_DEFAULT_INTR_RX_MASK;
 111              		.loc 1 246 0
 112 0058 0420     		mov	r0, #4
 245:.\Generated_Source\PSoC4/UART_0_UART.c ****         UART_0_INTR_MASTER_MASK_REG = UART_0_UART_DEFAULT_INTR_MASTER_MASK;
 113              		.loc 1 245 0
ARM GAS  C:\Users\ZHANGM~1\AppData\Local\Temp\cc4Bw5rH.s 			page 8


 114 005a 1C60     		str	r4, [r3]
 246:.\Generated_Source\PSoC4/UART_0_UART.c ****         UART_0_INTR_RX_MASK_REG     = UART_0_UART_DEFAULT_INTR_RX_MASK;
 115              		.loc 1 246 0
 116 005c 0860     		str	r0, [r1]
 247:.\Generated_Source\PSoC4/UART_0_UART.c ****         UART_0_INTR_TX_MASK_REG     = UART_0_UART_DEFAULT_INTR_TX_MASK;
 117              		.loc 1 247 0
 118 005e 1460     		str	r4, [r2]
 119              		.loc 1 259 0
 120 0060 10BD     		pop	{r4, pc}
 121              	.L3:
 122 0062 C046     		.align	2
 123              	.L2:
 124 0064 0B000002 		.word	33554443
 125 0068 00000740 		.word	1074200576
 126 006c 40000740 		.word	1074200640
 127 0070 48000740 		.word	1074200648
 128 0074 07000080 		.word	-2147483641
 129 0078 00030740 		.word	1074201344
 130 007c 04030740 		.word	1074201348
 131 0080 44000740 		.word	1074200644
 132 0084 10030740 		.word	1074201360
 133 0088 00020740 		.word	1074201088
 134 008c 04020740 		.word	1074201092
 135 0090 00000000 		.word	UART_0_SPI_UART_ISR
 136 0094 880E0740 		.word	1074204296
 137 0098 C80E0740 		.word	1074204360
 138 009c 480F0740 		.word	1074204488
 139 00a0 080F0740 		.word	1074204424
 140 00a4 C80F0740 		.word	1074204616
 141 00a8 880F0740 		.word	1074204552
 142              		.cfi_endproc
 143              	.LFE0:
 144              		.size	UART_0_UartInit, .-UART_0_UartInit
 145              		.section	.text.UART_0_UartSetRxAddress,"ax",%progbits
 146              		.align	1
 147              		.global	UART_0_UartSetRxAddress
 148              		.code	16
 149              		.thumb_func
 150              		.type	UART_0_UartSetRxAddress, %function
 151              	UART_0_UartSetRxAddress:
 152              	.LFB1:
 260:.\Generated_Source\PSoC4/UART_0_UART.c **** #endif /* (UART_0_SCB_MODE_UNCONFIG_CONST_CFG) */
 261:.\Generated_Source\PSoC4/UART_0_UART.c **** 
 262:.\Generated_Source\PSoC4/UART_0_UART.c **** 
 263:.\Generated_Source\PSoC4/UART_0_UART.c **** /*******************************************************************************
 264:.\Generated_Source\PSoC4/UART_0_UART.c **** * Function Name: UART_0_UartSetRxAddress
 265:.\Generated_Source\PSoC4/UART_0_UART.c **** ********************************************************************************
 266:.\Generated_Source\PSoC4/UART_0_UART.c **** *
 267:.\Generated_Source\PSoC4/UART_0_UART.c **** * Summary:
 268:.\Generated_Source\PSoC4/UART_0_UART.c **** *  Sets the hardware detectable receiver address for the UART in the Multiprocessor
 269:.\Generated_Source\PSoC4/UART_0_UART.c **** *  mode.
 270:.\Generated_Source\PSoC4/UART_0_UART.c **** *
 271:.\Generated_Source\PSoC4/UART_0_UART.c **** * Parameters:
 272:.\Generated_Source\PSoC4/UART_0_UART.c **** *  address: Address for hardware address detection.
 273:.\Generated_Source\PSoC4/UART_0_UART.c **** *
 274:.\Generated_Source\PSoC4/UART_0_UART.c **** * Return:
 275:.\Generated_Source\PSoC4/UART_0_UART.c **** *  None
ARM GAS  C:\Users\ZHANGM~1\AppData\Local\Temp\cc4Bw5rH.s 			page 9


 276:.\Generated_Source\PSoC4/UART_0_UART.c **** *
 277:.\Generated_Source\PSoC4/UART_0_UART.c **** *******************************************************************************/
 278:.\Generated_Source\PSoC4/UART_0_UART.c **** void UART_0_UartSetRxAddress(uint32 address)
 279:.\Generated_Source\PSoC4/UART_0_UART.c **** {
 153              		.loc 1 279 0
 154              		.cfi_startproc
 155              	.LVL3:
 280:.\Generated_Source\PSoC4/UART_0_UART.c ****      uint32 matchReg;
 281:.\Generated_Source\PSoC4/UART_0_UART.c **** 
 282:.\Generated_Source\PSoC4/UART_0_UART.c ****     matchReg = UART_0_RX_MATCH_REG;
 156              		.loc 1 282 0
 157 0000 034B     		ldr	r3, .L5
 283:.\Generated_Source\PSoC4/UART_0_UART.c **** 
 284:.\Generated_Source\PSoC4/UART_0_UART.c ****     matchReg &= ((uint32) ~UART_0_RX_MATCH_ADDR_MASK); /* Clear address bits */
 158              		.loc 1 284 0
 159 0002 FF22     		mov	r2, #255
 282:.\Generated_Source\PSoC4/UART_0_UART.c ****     matchReg = UART_0_RX_MATCH_REG;
 160              		.loc 1 282 0
 161 0004 1968     		ldr	r1, [r3]
 162              	.LVL4:
 285:.\Generated_Source\PSoC4/UART_0_UART.c ****     matchReg |= ((uint32)  (address & UART_0_RX_MATCH_ADDR_MASK)); /* Set address  */
 286:.\Generated_Source\PSoC4/UART_0_UART.c **** 
 287:.\Generated_Source\PSoC4/UART_0_UART.c ****     UART_0_RX_MATCH_REG = matchReg;
 288:.\Generated_Source\PSoC4/UART_0_UART.c **** }
 163              		.loc 1 288 0
 164              		@ sp needed for prologue
 284:.\Generated_Source\PSoC4/UART_0_UART.c ****     matchReg &= ((uint32) ~UART_0_RX_MATCH_ADDR_MASK); /* Clear address bits */
 165              		.loc 1 284 0
 166 0006 9143     		bic	r1, r2
 167              	.LVL5:
 285:.\Generated_Source\PSoC4/UART_0_UART.c ****     matchReg |= ((uint32)  (address & UART_0_RX_MATCH_ADDR_MASK)); /* Set address  */
 168              		.loc 1 285 0
 169 0008 0240     		and	r2, r0
 170 000a 0A43     		orr	r2, r1
 171              	.LVL6:
 287:.\Generated_Source\PSoC4/UART_0_UART.c ****     UART_0_RX_MATCH_REG = matchReg;
 172              		.loc 1 287 0
 173 000c 1A60     		str	r2, [r3]
 174              		.loc 1 288 0
 175 000e 7047     		bx	lr
 176              	.L6:
 177              		.align	2
 178              	.L5:
 179 0010 10030740 		.word	1074201360
 180              		.cfi_endproc
 181              	.LFE1:
 182              		.size	UART_0_UartSetRxAddress, .-UART_0_UartSetRxAddress
 183              		.section	.text.UART_0_UartSetRxAddressMask,"ax",%progbits
 184              		.align	1
 185              		.global	UART_0_UartSetRxAddressMask
 186              		.code	16
 187              		.thumb_func
 188              		.type	UART_0_UartSetRxAddressMask, %function
 189              	UART_0_UartSetRxAddressMask:
 190              	.LFB2:
 289:.\Generated_Source\PSoC4/UART_0_UART.c **** 
 290:.\Generated_Source\PSoC4/UART_0_UART.c **** 
ARM GAS  C:\Users\ZHANGM~1\AppData\Local\Temp\cc4Bw5rH.s 			page 10


 291:.\Generated_Source\PSoC4/UART_0_UART.c **** /*******************************************************************************
 292:.\Generated_Source\PSoC4/UART_0_UART.c **** * Function Name: UART_0_UartSetRxAddressMask
 293:.\Generated_Source\PSoC4/UART_0_UART.c **** ********************************************************************************
 294:.\Generated_Source\PSoC4/UART_0_UART.c **** *
 295:.\Generated_Source\PSoC4/UART_0_UART.c **** * Summary:
 296:.\Generated_Source\PSoC4/UART_0_UART.c **** *  Sets the hardware address mask for the UART in the Multiprocessor mode.
 297:.\Generated_Source\PSoC4/UART_0_UART.c **** *
 298:.\Generated_Source\PSoC4/UART_0_UART.c **** * Parameters:
 299:.\Generated_Source\PSoC4/UART_0_UART.c **** *  addressMask: Address mask.
 300:.\Generated_Source\PSoC4/UART_0_UART.c **** *   0 - address bit does not care while comparison.
 301:.\Generated_Source\PSoC4/UART_0_UART.c **** *   1 - address bit is significant while comparison.
 302:.\Generated_Source\PSoC4/UART_0_UART.c **** *
 303:.\Generated_Source\PSoC4/UART_0_UART.c **** * Return:
 304:.\Generated_Source\PSoC4/UART_0_UART.c **** *  None
 305:.\Generated_Source\PSoC4/UART_0_UART.c **** *
 306:.\Generated_Source\PSoC4/UART_0_UART.c **** *******************************************************************************/
 307:.\Generated_Source\PSoC4/UART_0_UART.c **** void UART_0_UartSetRxAddressMask(uint32 addressMask)
 308:.\Generated_Source\PSoC4/UART_0_UART.c **** {
 191              		.loc 1 308 0
 192              		.cfi_startproc
 193              	.LVL7:
 309:.\Generated_Source\PSoC4/UART_0_UART.c ****     uint32 matchReg;
 310:.\Generated_Source\PSoC4/UART_0_UART.c **** 
 311:.\Generated_Source\PSoC4/UART_0_UART.c ****     matchReg = UART_0_RX_MATCH_REG;
 194              		.loc 1 311 0
 195 0000 034B     		ldr	r3, .L8
 312:.\Generated_Source\PSoC4/UART_0_UART.c **** 
 313:.\Generated_Source\PSoC4/UART_0_UART.c ****     matchReg &= ((uint32) ~UART_0_RX_MATCH_MASK_MASK); /* Clear address mask bits */
 196              		.loc 1 313 0
 197 0002 044A     		ldr	r2, .L8+4
 311:.\Generated_Source\PSoC4/UART_0_UART.c ****     matchReg = UART_0_RX_MATCH_REG;
 198              		.loc 1 311 0
 199 0004 1968     		ldr	r1, [r3]
 200              	.LVL8:
 314:.\Generated_Source\PSoC4/UART_0_UART.c ****     matchReg |= ((uint32) (addressMask << UART_0_RX_MATCH_MASK_POS));
 201              		.loc 1 314 0
 202 0006 0004     		lsl	r0, r0, #16
 203              	.LVL9:
 313:.\Generated_Source\PSoC4/UART_0_UART.c ****     matchReg &= ((uint32) ~UART_0_RX_MATCH_MASK_MASK); /* Clear address mask bits */
 204              		.loc 1 313 0
 205 0008 0A40     		and	r2, r1
 206              	.LVL10:
 207              		.loc 1 314 0
 208 000a 1043     		orr	r0, r2
 209              	.LVL11:
 315:.\Generated_Source\PSoC4/UART_0_UART.c **** 
 316:.\Generated_Source\PSoC4/UART_0_UART.c ****     UART_0_RX_MATCH_REG = matchReg;
 210              		.loc 1 316 0
 211 000c 1860     		str	r0, [r3]
 317:.\Generated_Source\PSoC4/UART_0_UART.c **** }
 212              		.loc 1 317 0
 213              		@ sp needed for prologue
 214 000e 7047     		bx	lr
 215              	.L9:
 216              		.align	2
 217              	.L8:
 218 0010 10030740 		.word	1074201360
ARM GAS  C:\Users\ZHANGM~1\AppData\Local\Temp\cc4Bw5rH.s 			page 11


 219 0014 FFFF00FF 		.word	-16711681
 220              		.cfi_endproc
 221              	.LFE2:
 222              		.size	UART_0_UartSetRxAddressMask, .-UART_0_UartSetRxAddressMask
 223              		.section	.text.UART_0_UartGetChar,"ax",%progbits
 224              		.align	1
 225              		.global	UART_0_UartGetChar
 226              		.code	16
 227              		.thumb_func
 228              		.type	UART_0_UartGetChar, %function
 229              	UART_0_UartGetChar:
 230              	.LFB3:
 318:.\Generated_Source\PSoC4/UART_0_UART.c **** 
 319:.\Generated_Source\PSoC4/UART_0_UART.c **** 
 320:.\Generated_Source\PSoC4/UART_0_UART.c **** #if(UART_0_UART_RX_DIRECTION)
 321:.\Generated_Source\PSoC4/UART_0_UART.c ****     /*******************************************************************************
 322:.\Generated_Source\PSoC4/UART_0_UART.c ****     * Function Name: UART_0_UartGetChar
 323:.\Generated_Source\PSoC4/UART_0_UART.c ****     ********************************************************************************
 324:.\Generated_Source\PSoC4/UART_0_UART.c ****     *
 325:.\Generated_Source\PSoC4/UART_0_UART.c ****     * Summary:
 326:.\Generated_Source\PSoC4/UART_0_UART.c ****     *  Retrieves the next data element from the receive buffer.
 327:.\Generated_Source\PSoC4/UART_0_UART.c ****     *  This function is designed for ASCII characters and returns a char
 328:.\Generated_Source\PSoC4/UART_0_UART.c ****     *  where 1 to 255 are valid characters and 0 indicates an error occurred or
 329:.\Generated_Source\PSoC4/UART_0_UART.c ****     *  no data present.
 330:.\Generated_Source\PSoC4/UART_0_UART.c ****     *  - The RX software buffer is disabled: returns the data element retrieved from the RX FIFO.
 331:.\Generated_Source\PSoC4/UART_0_UART.c ****     *    Undefined data will be returned if the RX FIFO is empty.
 332:.\Generated_Source\PSoC4/UART_0_UART.c ****     *  - The RX software buffer is enabled: returns the data element from the software receive
 333:.\Generated_Source\PSoC4/UART_0_UART.c ****     *    buffer.
 334:.\Generated_Source\PSoC4/UART_0_UART.c ****     *
 335:.\Generated_Source\PSoC4/UART_0_UART.c ****     * Parameters:
 336:.\Generated_Source\PSoC4/UART_0_UART.c ****     *  None
 337:.\Generated_Source\PSoC4/UART_0_UART.c ****     *
 338:.\Generated_Source\PSoC4/UART_0_UART.c ****     * Return:
 339:.\Generated_Source\PSoC4/UART_0_UART.c ****     *  The next data element from the receive buffer.
 340:.\Generated_Source\PSoC4/UART_0_UART.c ****     *  ASCII character values from 1 to 255 are valid.
 341:.\Generated_Source\PSoC4/UART_0_UART.c ****     *  A returned zero signifies an error condition or no data available.
 342:.\Generated_Source\PSoC4/UART_0_UART.c ****     *
 343:.\Generated_Source\PSoC4/UART_0_UART.c ****     *******************************************************************************/
 344:.\Generated_Source\PSoC4/UART_0_UART.c ****     uint32 UART_0_UartGetChar(void)
 345:.\Generated_Source\PSoC4/UART_0_UART.c ****     {
 231              		.loc 1 345 0
 232              		.cfi_startproc
 233              	.LVL12:
 234 0000 08B5     		push	{r3, lr}
 235              	.LCFI1:
 236              		.cfi_def_cfa_offset 8
 237              		.cfi_offset 3, -8
 238              		.cfi_offset 14, -4
 346:.\Generated_Source\PSoC4/UART_0_UART.c ****         uint32 rxData = 0u;
 347:.\Generated_Source\PSoC4/UART_0_UART.c **** 
 348:.\Generated_Source\PSoC4/UART_0_UART.c ****         /* Read data only if there is data to read */
 349:.\Generated_Source\PSoC4/UART_0_UART.c ****         if(0u != UART_0_SpiUartGetRxBufferSize())
 239              		.loc 1 349 0
 240 0002 FFF7FEFF 		bl	UART_0_SpiUartGetRxBufferSize
 241              	.LVL13:
 242 0006 031C     		mov	r3, r0
 346:.\Generated_Source\PSoC4/UART_0_UART.c ****         uint32 rxData = 0u;
ARM GAS  C:\Users\ZHANGM~1\AppData\Local\Temp\cc4Bw5rH.s 			page 12


 243              		.loc 1 346 0
 244 0008 0020     		mov	r0, #0
 245              		.loc 1 349 0
 246 000a 8342     		cmp	r3, r0
 247 000c 01D0     		beq	.L11
 350:.\Generated_Source\PSoC4/UART_0_UART.c ****         {
 351:.\Generated_Source\PSoC4/UART_0_UART.c ****             rxData = UART_0_SpiUartReadRxData();
 248              		.loc 1 351 0
 249 000e FFF7FEFF 		bl	UART_0_SpiUartReadRxData
 250              	.LVL14:
 251              	.L11:
 352:.\Generated_Source\PSoC4/UART_0_UART.c ****         }
 353:.\Generated_Source\PSoC4/UART_0_UART.c **** 
 354:.\Generated_Source\PSoC4/UART_0_UART.c ****         if(UART_0_CHECK_INTR_RX(UART_0_INTR_RX_ERR))
 252              		.loc 1 354 0
 253 0012 044B     		ldr	r3, .L19
 254 0014 D822     		mov	r2, #216
 255 0016 1968     		ldr	r1, [r3]
 256 0018 9200     		lsl	r2, r2, #2
 257 001a 1142     		tst	r1, r2
 258 001c 01D0     		beq	.L12
 259              	.LVL15:
 355:.\Generated_Source\PSoC4/UART_0_UART.c ****         {
 356:.\Generated_Source\PSoC4/UART_0_UART.c ****             rxData = 0u; /* Error occurred: return zero */
 357:.\Generated_Source\PSoC4/UART_0_UART.c ****             UART_0_ClearRxInterruptSource(UART_0_INTR_RX_ERR);
 260              		.loc 1 357 0
 261 001e 1A60     		str	r2, [r3]
 356:.\Generated_Source\PSoC4/UART_0_UART.c ****             rxData = 0u; /* Error occurred: return zero */
 262              		.loc 1 356 0
 263 0020 0020     		mov	r0, #0
 264              	.LVL16:
 265              	.L12:
 358:.\Generated_Source\PSoC4/UART_0_UART.c ****         }
 359:.\Generated_Source\PSoC4/UART_0_UART.c **** 
 360:.\Generated_Source\PSoC4/UART_0_UART.c ****         return(rxData);
 361:.\Generated_Source\PSoC4/UART_0_UART.c ****     }
 266              		.loc 1 361 0
 267              		@ sp needed for prologue
 268 0022 08BD     		pop	{r3, pc}
 269              	.L20:
 270              		.align	2
 271              	.L19:
 272 0024 C00F0740 		.word	1074204608
 273              		.cfi_endproc
 274              	.LFE3:
 275              		.size	UART_0_UartGetChar, .-UART_0_UartGetChar
 276              		.section	.text.UART_0_UartGetByte,"ax",%progbits
 277              		.align	1
 278              		.global	UART_0_UartGetByte
 279              		.code	16
 280              		.thumb_func
 281              		.type	UART_0_UartGetByte, %function
 282              	UART_0_UartGetByte:
 283              	.LFB4:
 362:.\Generated_Source\PSoC4/UART_0_UART.c **** 
 363:.\Generated_Source\PSoC4/UART_0_UART.c **** 
 364:.\Generated_Source\PSoC4/UART_0_UART.c ****     /*******************************************************************************
ARM GAS  C:\Users\ZHANGM~1\AppData\Local\Temp\cc4Bw5rH.s 			page 13


 365:.\Generated_Source\PSoC4/UART_0_UART.c ****     * Function Name: UART_0_UartGetByte
 366:.\Generated_Source\PSoC4/UART_0_UART.c ****     ********************************************************************************
 367:.\Generated_Source\PSoC4/UART_0_UART.c ****     *
 368:.\Generated_Source\PSoC4/UART_0_UART.c ****     * Summary:
 369:.\Generated_Source\PSoC4/UART_0_UART.c ****     *  Retrieves the next data element from the receive buffer, returns the received byte
 370:.\Generated_Source\PSoC4/UART_0_UART.c ****     *  and error condition.
 371:.\Generated_Source\PSoC4/UART_0_UART.c ****     *   - The RX software buffer is disabled: returns the data element retrieved from the RX FIFO.
 372:.\Generated_Source\PSoC4/UART_0_UART.c ****     *     Undefined data will be returned if the RX FIFO is empty.
 373:.\Generated_Source\PSoC4/UART_0_UART.c ****     *   - The RX software buffer is enabled: returns data element from the software receive
 374:.\Generated_Source\PSoC4/UART_0_UART.c ****     *     buffer.
 375:.\Generated_Source\PSoC4/UART_0_UART.c ****     *
 376:.\Generated_Source\PSoC4/UART_0_UART.c ****     * Parameters:
 377:.\Generated_Source\PSoC4/UART_0_UART.c ****     *  None
 378:.\Generated_Source\PSoC4/UART_0_UART.c ****     *
 379:.\Generated_Source\PSoC4/UART_0_UART.c ****     * Return:
 380:.\Generated_Source\PSoC4/UART_0_UART.c ****     *  Bits 15-8 contains status and bits 7-0 contains the next data element from
 381:.\Generated_Source\PSoC4/UART_0_UART.c ****     *  receive buffer. If the bits 15-8 are non-zero, an error has occurred.
 382:.\Generated_Source\PSoC4/UART_0_UART.c ****     *
 383:.\Generated_Source\PSoC4/UART_0_UART.c ****     *******************************************************************************/
 384:.\Generated_Source\PSoC4/UART_0_UART.c ****     uint32 UART_0_UartGetByte(void)
 385:.\Generated_Source\PSoC4/UART_0_UART.c ****     {
 284              		.loc 1 385 0
 285              		.cfi_startproc
 286 0000 10B5     		push	{r4, lr}
 287              	.LCFI2:
 288              		.cfi_def_cfa_offset 8
 289              		.cfi_offset 4, -8
 290              		.cfi_offset 14, -4
 386:.\Generated_Source\PSoC4/UART_0_UART.c ****         uint32 rxData;
 387:.\Generated_Source\PSoC4/UART_0_UART.c ****         uint32 tmpStatus;
 388:.\Generated_Source\PSoC4/UART_0_UART.c ****         uint32 intSourceMask;
 389:.\Generated_Source\PSoC4/UART_0_UART.c **** 
 390:.\Generated_Source\PSoC4/UART_0_UART.c ****         intSourceMask = UART_0_SpiUartDisableIntRx();
 291              		.loc 1 390 0
 292 0002 FFF7FEFF 		bl	UART_0_SpiUartDisableIntRx
 293              	.LVL17:
 294 0006 041C     		mov	r4, r0
 295              	.LVL18:
 391:.\Generated_Source\PSoC4/UART_0_UART.c **** 
 392:.\Generated_Source\PSoC4/UART_0_UART.c ****         if(0u != UART_0_SpiUartGetRxBufferSize())
 296              		.loc 1 392 0
 297 0008 FFF7FEFF 		bl	UART_0_SpiUartGetRxBufferSize
 298              	.LVL19:
 299 000c 094B     		ldr	r3, .L24
 300 000e 0028     		cmp	r0, #0
 301 0010 03D0     		beq	.L22
 393:.\Generated_Source\PSoC4/UART_0_UART.c ****         {
 394:.\Generated_Source\PSoC4/UART_0_UART.c ****              /*
 395:.\Generated_Source\PSoC4/UART_0_UART.c ****              * Enable interrupt to receive more bytes: at least one byte is in
 396:.\Generated_Source\PSoC4/UART_0_UART.c ****              * buffer.
 397:.\Generated_Source\PSoC4/UART_0_UART.c ****              */
 398:.\Generated_Source\PSoC4/UART_0_UART.c ****             UART_0_SpiUartEnableIntRx(intSourceMask);
 302              		.loc 1 398 0
 303 0012 1C60     		str	r4, [r3]
 399:.\Generated_Source\PSoC4/UART_0_UART.c **** 
 400:.\Generated_Source\PSoC4/UART_0_UART.c ****             /* Get received byte */
 401:.\Generated_Source\PSoC4/UART_0_UART.c ****             rxData = UART_0_SpiUartReadRxData();
ARM GAS  C:\Users\ZHANGM~1\AppData\Local\Temp\cc4Bw5rH.s 			page 14


 304              		.loc 1 401 0
 305 0014 FFF7FEFF 		bl	UART_0_SpiUartReadRxData
 306              	.LVL20:
 307 0018 02E0     		b	.L23
 308              	.LVL21:
 309              	.L22:
 402:.\Generated_Source\PSoC4/UART_0_UART.c ****         }
 403:.\Generated_Source\PSoC4/UART_0_UART.c ****         else
 404:.\Generated_Source\PSoC4/UART_0_UART.c ****         {
 405:.\Generated_Source\PSoC4/UART_0_UART.c ****             /*
 406:.\Generated_Source\PSoC4/UART_0_UART.c ****             * Read byte directly from RX FIFO: the underflow is raised in case
 407:.\Generated_Source\PSoC4/UART_0_UART.c ****             * of empty. In other case the first received byte will be read.
 408:.\Generated_Source\PSoC4/UART_0_UART.c ****             */
 409:.\Generated_Source\PSoC4/UART_0_UART.c ****             rxData = UART_0_RX_FIFO_RD_REG;
 310              		.loc 1 409 0
 311 001a 074A     		ldr	r2, .L24+4
 312 001c 1068     		ldr	r0, [r2]
 313              	.LVL22:
 410:.\Generated_Source\PSoC4/UART_0_UART.c **** 
 411:.\Generated_Source\PSoC4/UART_0_UART.c ****             /*
 412:.\Generated_Source\PSoC4/UART_0_UART.c ****             * Enable interrupt to receive more bytes.
 413:.\Generated_Source\PSoC4/UART_0_UART.c ****             * The RX_NOT_EMPTY interrupt is cleared by the interrupt routine in case
 414:.\Generated_Source\PSoC4/UART_0_UART.c ****             * the byte was received and read above.
 415:.\Generated_Source\PSoC4/UART_0_UART.c ****             */
 416:.\Generated_Source\PSoC4/UART_0_UART.c ****             UART_0_SpiUartEnableIntRx(intSourceMask);
 314              		.loc 1 416 0
 315 001e 1C60     		str	r4, [r3]
 316              	.L23:
 417:.\Generated_Source\PSoC4/UART_0_UART.c ****         }
 418:.\Generated_Source\PSoC4/UART_0_UART.c **** 
 419:.\Generated_Source\PSoC4/UART_0_UART.c ****         /* Get and clear RX error mask */
 420:.\Generated_Source\PSoC4/UART_0_UART.c ****         tmpStatus = (UART_0_GetRxInterruptSource() & UART_0_INTR_RX_ERR);
 317              		.loc 1 420 0
 318 0020 064C     		ldr	r4, .L24+8
 319              	.LVL23:
 421:.\Generated_Source\PSoC4/UART_0_UART.c ****         UART_0_ClearRxInterruptSource(UART_0_INTR_RX_ERR);
 320              		.loc 1 421 0
 321 0022 D823     		mov	r3, #216
 420:.\Generated_Source\PSoC4/UART_0_UART.c ****         tmpStatus = (UART_0_GetRxInterruptSource() & UART_0_INTR_RX_ERR);
 322              		.loc 1 420 0
 323 0024 2168     		ldr	r1, [r4]
 324              	.LVL24:
 325              		.loc 1 421 0
 326 0026 9A00     		lsl	r2, r3, #2
 327 0028 2260     		str	r2, [r4]
 328              	.LVL25:
 420:.\Generated_Source\PSoC4/UART_0_UART.c ****         tmpStatus = (UART_0_GetRxInterruptSource() & UART_0_INTR_RX_ERR);
 329              		.loc 1 420 0
 330 002a 0A40     		and	r2, r1
 422:.\Generated_Source\PSoC4/UART_0_UART.c **** 
 423:.\Generated_Source\PSoC4/UART_0_UART.c ****         /*
 424:.\Generated_Source\PSoC4/UART_0_UART.c ****         * Put together data and error status:
 425:.\Generated_Source\PSoC4/UART_0_UART.c ****         * MP mode and accept address: the 9th bit is set to notify mark.
 426:.\Generated_Source\PSoC4/UART_0_UART.c ****         */
 427:.\Generated_Source\PSoC4/UART_0_UART.c ****         rxData |= ((uint32) (tmpStatus << 8u));
 331              		.loc 1 427 0
 332 002c 1402     		lsl	r4, r2, #8
ARM GAS  C:\Users\ZHANGM~1\AppData\Local\Temp\cc4Bw5rH.s 			page 15


 333 002e 2043     		orr	r0, r4
 334              	.LVL26:
 428:.\Generated_Source\PSoC4/UART_0_UART.c **** 
 429:.\Generated_Source\PSoC4/UART_0_UART.c ****         return(rxData);
 430:.\Generated_Source\PSoC4/UART_0_UART.c ****     }
 335              		.loc 1 430 0
 336              		@ sp needed for prologue
 337 0030 10BD     		pop	{r4, pc}
 338              	.L25:
 339 0032 C046     		.align	2
 340              	.L24:
 341 0034 C80F0740 		.word	1074204616
 342 0038 40030740 		.word	1074201408
 343 003c C00F0740 		.word	1074204608
 344              		.cfi_endproc
 345              	.LFE4:
 346              		.size	UART_0_UartGetByte, .-UART_0_UartGetByte
 347              		.section	.text.UART_0_UartPutString,"ax",%progbits
 348              		.align	1
 349              		.global	UART_0_UartPutString
 350              		.code	16
 351              		.thumb_func
 352              		.type	UART_0_UartPutString, %function
 353              	UART_0_UartPutString:
 354              	.LFB5:
 431:.\Generated_Source\PSoC4/UART_0_UART.c **** 
 432:.\Generated_Source\PSoC4/UART_0_UART.c **** #endif /* (UART_0_UART_RX_DIRECTION) */
 433:.\Generated_Source\PSoC4/UART_0_UART.c **** 
 434:.\Generated_Source\PSoC4/UART_0_UART.c **** 
 435:.\Generated_Source\PSoC4/UART_0_UART.c **** #if(UART_0_UART_TX_DIRECTION)
 436:.\Generated_Source\PSoC4/UART_0_UART.c ****     /*******************************************************************************
 437:.\Generated_Source\PSoC4/UART_0_UART.c ****     * Function Name: UART_0_UartPutString
 438:.\Generated_Source\PSoC4/UART_0_UART.c ****     ********************************************************************************
 439:.\Generated_Source\PSoC4/UART_0_UART.c ****     *
 440:.\Generated_Source\PSoC4/UART_0_UART.c ****     * Summary:
 441:.\Generated_Source\PSoC4/UART_0_UART.c ****     *  Places a NULL terminated string in the transmit buffer to be sent at the
 442:.\Generated_Source\PSoC4/UART_0_UART.c ****     *  next available bus time.
 443:.\Generated_Source\PSoC4/UART_0_UART.c ****     *  This function is blocking and waits until there is space available to put
 444:.\Generated_Source\PSoC4/UART_0_UART.c ****     *  all the requested data into the  transmit buffer.
 445:.\Generated_Source\PSoC4/UART_0_UART.c ****     *
 446:.\Generated_Source\PSoC4/UART_0_UART.c ****     * Parameters:
 447:.\Generated_Source\PSoC4/UART_0_UART.c ****     *  string: pointer to the null terminated string array to be placed in the
 448:.\Generated_Source\PSoC4/UART_0_UART.c ****     *          transmit buffer.
 449:.\Generated_Source\PSoC4/UART_0_UART.c ****     *
 450:.\Generated_Source\PSoC4/UART_0_UART.c ****     * Return:
 451:.\Generated_Source\PSoC4/UART_0_UART.c ****     *  None
 452:.\Generated_Source\PSoC4/UART_0_UART.c ****     *
 453:.\Generated_Source\PSoC4/UART_0_UART.c ****     *******************************************************************************/
 454:.\Generated_Source\PSoC4/UART_0_UART.c ****     void UART_0_UartPutString(const char8 string[])
 455:.\Generated_Source\PSoC4/UART_0_UART.c ****     {
 355              		.loc 1 455 0
 356              		.cfi_startproc
 357              	.LVL27:
 358 0000 10B5     		push	{r4, lr}
 359              	.LCFI3:
 360              		.cfi_def_cfa_offset 8
 361              		.cfi_offset 4, -8
ARM GAS  C:\Users\ZHANGM~1\AppData\Local\Temp\cc4Bw5rH.s 			page 16


 362              		.cfi_offset 14, -4
 363 0002 041C     		mov	r4, r0
 364              	.LVL28:
 365              	.L27:
 366 0004 0134     		add	r4, r4, #1
 454:.\Generated_Source\PSoC4/UART_0_UART.c ****     void UART_0_UartPutString(const char8 string[])
 367              		.loc 1 454 0 discriminator 1
 368 0006 631E     		sub	r3, r4, #1
 456:.\Generated_Source\PSoC4/UART_0_UART.c ****         uint32 bufIndex;
 457:.\Generated_Source\PSoC4/UART_0_UART.c **** 
 458:.\Generated_Source\PSoC4/UART_0_UART.c ****         bufIndex = 0u;
 459:.\Generated_Source\PSoC4/UART_0_UART.c **** 
 460:.\Generated_Source\PSoC4/UART_0_UART.c ****         /* Block the control flow until all data has been sent */
 461:.\Generated_Source\PSoC4/UART_0_UART.c ****         while(string[bufIndex] != ((char8) 0))
 369              		.loc 1 461 0 discriminator 1
 370 0008 1878     		ldrb	r0, [r3]
 371 000a 0028     		cmp	r0, #0
 372 000c 02D0     		beq	.L29
 373              	.L28:
 462:.\Generated_Source\PSoC4/UART_0_UART.c ****         {
 463:.\Generated_Source\PSoC4/UART_0_UART.c ****             UART_0_UartPutChar((uint32) string[bufIndex]);
 374              		.loc 1 463 0
 375 000e FFF7FEFF 		bl	UART_0_SpiUartWriteTxData
 376              	.LVL29:
 377 0012 F7E7     		b	.L27
 378              	.L29:
 464:.\Generated_Source\PSoC4/UART_0_UART.c ****             bufIndex++;
 465:.\Generated_Source\PSoC4/UART_0_UART.c ****         }
 466:.\Generated_Source\PSoC4/UART_0_UART.c ****     }
 379              		.loc 1 466 0
 380              		@ sp needed for prologue
 381 0014 10BD     		pop	{r4, pc}
 382              		.cfi_endproc
 383              	.LFE5:
 384              		.size	UART_0_UartPutString, .-UART_0_UartPutString
 385              		.section	.text.UART_0_UartPutCRLF,"ax",%progbits
 386              		.align	1
 387              		.global	UART_0_UartPutCRLF
 388              		.code	16
 389              		.thumb_func
 390              		.type	UART_0_UartPutCRLF, %function
 391              	UART_0_UartPutCRLF:
 392              	.LFB6:
 467:.\Generated_Source\PSoC4/UART_0_UART.c **** 
 468:.\Generated_Source\PSoC4/UART_0_UART.c **** 
 469:.\Generated_Source\PSoC4/UART_0_UART.c ****     /*******************************************************************************
 470:.\Generated_Source\PSoC4/UART_0_UART.c ****     * Function Name: UART_0_UartPutCRLF
 471:.\Generated_Source\PSoC4/UART_0_UART.c ****     ********************************************************************************
 472:.\Generated_Source\PSoC4/UART_0_UART.c ****     *
 473:.\Generated_Source\PSoC4/UART_0_UART.c ****     * Summary:
 474:.\Generated_Source\PSoC4/UART_0_UART.c ****     *  Places a byte of data followed by a carriage return (0x0D) and line feed (0x0A)
 475:.\Generated_Source\PSoC4/UART_0_UART.c ****     *  into the transmit buffer.
 476:.\Generated_Source\PSoC4/UART_0_UART.c ****     *  This function is blocking and waits until there is space available to put
 477:.\Generated_Source\PSoC4/UART_0_UART.c ****     *  all the requested data into the  transmit buffer.
 478:.\Generated_Source\PSoC4/UART_0_UART.c ****     *
 479:.\Generated_Source\PSoC4/UART_0_UART.c ****     * Parameters:
 480:.\Generated_Source\PSoC4/UART_0_UART.c ****     *  txDataByte : the data to be transmitted.
ARM GAS  C:\Users\ZHANGM~1\AppData\Local\Temp\cc4Bw5rH.s 			page 17


 481:.\Generated_Source\PSoC4/UART_0_UART.c ****     *
 482:.\Generated_Source\PSoC4/UART_0_UART.c ****     * Return:
 483:.\Generated_Source\PSoC4/UART_0_UART.c ****     *  None
 484:.\Generated_Source\PSoC4/UART_0_UART.c ****     *
 485:.\Generated_Source\PSoC4/UART_0_UART.c ****     *******************************************************************************/
 486:.\Generated_Source\PSoC4/UART_0_UART.c ****     void UART_0_UartPutCRLF(uint32 txDataByte)
 487:.\Generated_Source\PSoC4/UART_0_UART.c ****     {
 393              		.loc 1 487 0
 394              		.cfi_startproc
 395              	.LVL30:
 396 0000 08B5     		push	{r3, lr}
 397              	.LCFI4:
 398              		.cfi_def_cfa_offset 8
 399              		.cfi_offset 3, -8
 400              		.cfi_offset 14, -4
 488:.\Generated_Source\PSoC4/UART_0_UART.c ****         UART_0_UartPutChar(txDataByte);  /* Blocks control flow until all data has been sent */
 401              		.loc 1 488 0
 402 0002 FFF7FEFF 		bl	UART_0_SpiUartWriteTxData
 403              	.LVL31:
 489:.\Generated_Source\PSoC4/UART_0_UART.c ****         UART_0_UartPutChar(0x0Du);       /* Blocks control flow until all data has been sent */
 404              		.loc 1 489 0
 405 0006 0D20     		mov	r0, #13
 406 0008 FFF7FEFF 		bl	UART_0_SpiUartWriteTxData
 407              	.LVL32:
 490:.\Generated_Source\PSoC4/UART_0_UART.c ****         UART_0_UartPutChar(0x0Au);       /* Blocks control flow until all data has been sent */
 408              		.loc 1 490 0
 409 000c 0A20     		mov	r0, #10
 410 000e FFF7FEFF 		bl	UART_0_SpiUartWriteTxData
 411              	.LVL33:
 491:.\Generated_Source\PSoC4/UART_0_UART.c ****     }
 412              		.loc 1 491 0
 413              		@ sp needed for prologue
 414 0012 08BD     		pop	{r3, pc}
 415              		.cfi_endproc
 416              	.LFE6:
 417              		.size	UART_0_UartPutCRLF, .-UART_0_UartPutCRLF
 418              		.text
 419              	.Letext0:
 420              		.file 2 "./Generated_Source/PSoC4/cytypes.h"
 421              		.file 3 "./Generated_Source/PSoC4/CyLib.h"
 422              		.file 4 ".\\Generated_Source\\PSoC4\\UART_0_SPI_UART.h"
 423              		.file 5 ".\\Generated_Source\\PSoC4\\UART_0_SPI_UART_PVT.h"