ARM GAS  C:\Users\ZHANGM~1\AppData\Local\Temp\ccBCEiox.s 			page 1


   1              		.cpu cortex-m0
   2              		.fpu softvfp
   3              		.eabi_attribute 20, 1
   4              		.eabi_attribute 21, 1
   5              		.eabi_attribute 23, 3
   6              		.eabi_attribute 24, 1
   7              		.eabi_attribute 25, 1
   8              		.eabi_attribute 26, 1
   9              		.eabi_attribute 30, 4
  10              		.eabi_attribute 34, 0
  11              		.eabi_attribute 18, 4
  12              		.code	16
  13              		.file	"uart_wifi.c"
  14              		.text
  15              	.Ltext0:
  16              		.cfi_sections	.debug_frame
  17              		.section	.text.Sum_Verify,"ax",%progbits
  18              		.align	1
  19              		.global	Sum_Verify
  20              		.code	16
  21              		.thumb_func
  22              		.type	Sum_Verify, %function
  23              	Sum_Verify:
  24              	.LFB33:
  25              		.file 1 ".\\uart_wifi.c"
   1:.\uart_wifi.c **** /* ========================================
   2:.\uart_wifi.c ****  *
   3:.\uart_wifi.c ****  * Copyright YOUR COMPANY, THE YEAR
   4:.\uart_wifi.c ****  * All Rights Reserved
   5:.\uart_wifi.c ****  * UNPUBLISHED, LICENSED SOFTWARE.
   6:.\uart_wifi.c ****  *
   7:.\uart_wifi.c ****  * CONFIDENTIAL AND PROPRIETARY INFORMATION
   8:.\uart_wifi.c ****  * WHICH IS THE PROPERTY OF your company.
   9:.\uart_wifi.c ****  *
  10:.\uart_wifi.c ****  * ========================================
  11:.\uart_wifi.c **** */
  12:.\uart_wifi.c **** #define _UART_WIFI_
  13:.\uart_wifi.c **** #include "config.h"
  14:.\uart_wifi.c **** 
  15:.\uart_wifi.c **** 
  16:.\uart_wifi.c **** typedef struct Buffer0
  17:.\uart_wifi.c **** {
  18:.\uart_wifi.c **** 	uint8  	gcATReceData[WIFIBUFLEN];  // wifi 模块一次传输1440字节，这里有51芯片只有1
  19:.\uart_wifi.c **** 	uint16 	gcATReceCount;
  20:.\uart_wifi.c **** } Buffer2;
  21:.\uart_wifi.c **** struct Buffer0    ATReceBuffer[1];
  22:.\uart_wifi.c **** typedef struct Buffer1
  23:.\uart_wifi.c **** {
  24:.\uart_wifi.c **** 	uint8  	gcATReceTdsboardData[TDSBUFLEN];  // wifi 模块一次传输1440字节，这里有51芯片
  25:.\uart_wifi.c ****   uint16  gcATReceTdsboardCount;
  26:.\uart_wifi.c **** } Buffer1;
  27:.\uart_wifi.c **** struct Buffer1    ATTdsReceBuffer[1];
  28:.\uart_wifi.c **** struct{
  29:.\uart_wifi.c **** 		unsigned handshake_ok:1;           //握手成功标志
  30:.\uart_wifi.c **** 		unsigned gcReceComm2OK:1;
  31:.\uart_wifi.c **** 		unsigned gcReceComm1OK:1;
  32:.\uart_wifi.c **** 		unsigned u8E0Set:1;
ARM GAS  C:\Users\ZHANGM~1\AppData\Local\Temp\ccBCEiox.s 			page 2


  33:.\uart_wifi.c **** 		unsigned u8E1Set:1;
  34:.\uart_wifi.c **** 		unsigned u8E2Set:1;
  35:.\uart_wifi.c **** 		unsigned u8E3Set:1;
  36:.\uart_wifi.c **** }WifiWorkFlag;
  37:.\uart_wifi.c **** struct{
  38:.\uart_wifi.c ****     unsigned send_data_load:1;            //启动发送标志
  39:.\uart_wifi.c ****     unsigned flag_rev_end:1;              //接收完毕标志
  40:.\uart_wifi.c ****     unsigned uart_ack:1;              //应答标志位
  41:.\uart_wifi.c ****     unsigned flag_Uart_Work:1;         //Uart_Work标志位
  42:.\uart_wifi.c **** }WifidatagramWorkFlag;
  43:.\uart_wifi.c **** uint8	Work_State_Num_H,Work_State_Num_L;
  44:.\uart_wifi.c **** uint8	Cmd_Function_Num;
  45:.\uart_wifi.c **** uint16 Cmd_Function,Cmd_Function_Buf[8];     //设置8组缓冲区
  46:.\uart_wifi.c **** uint16 Filter_Full_Data_Buf[6],Filter_Changed_Num[12];
  47:.\uart_wifi.c **** uint16 Error_Data_Buf[9];
  48:.\uart_wifi.c **** uint8 SmarkLink_State;
  49:.\uart_wifi.c **** uint8	gcWifiCommunState;   	// 通讯接收状态
  50:.\uart_wifi.c **** uint8	gctdsboardCommunState;   	// 通讯接收状态
  51:.\uart_wifi.c **** uint8 Frame_Num;//总帧数量
  52:.\uart_wifi.c **** uint16 giWIFICommand;//wifi控制命令
  53:.\uart_wifi.c **** uint16 giWIFIDATALength;//wifi数据长度
  54:.\uart_wifi.c **** uint8 gcWIFICTL;//wifi控制字
  55:.\uart_wifi.c **** uint16 giTDSBOARDCommand;//wifi控制命令
  56:.\uart_wifi.c **** uint16 giTDSBOARDDATALength;//wifi数据长度
  57:.\uart_wifi.c **** uint8 gcTDSBOARDCTL;//wifi控制字
  58:.\uart_wifi.c **** uint16		iUartSendLen;
  59:.\uart_wifi.c **** uint16		iSendCounter;
  60:.\uart_wifi.c **** uint16 iSendCounter,iUartSendLen;
  61:.\uart_wifi.c **** uint8 *cpSendBufPtr;
  62:.\uart_wifi.c **** uint8	Send_Interval_Counter;//发送时间间隔20ms 
  63:.\uart_wifi.c **** 
  64:.\uart_wifi.c **** /******************************************************************************
  65:.\uart_wifi.c **** * 函 数 名: uint8 Sum_Verify (uint8 *PBuf, uint16 Len)
  66:.\uart_wifi.c **** * 函数功能: 串口接收程序
  67:.\uart_wifi.c **** * 入口参数: 无
  68:.\uart_wifi.c **** * 返    回: 
  69:.\uart_wifi.c **** *******************************************************************************/
  70:.\uart_wifi.c **** CYBIT Sum_Verify (uint8 *PBuf, uint16 Len)
  71:.\uart_wifi.c **** {
  26              		.loc 1 71 0
  27              		.cfi_startproc
  28              	.LVL0:
  29 0000 00B5     		push	{lr}
  30              	.LCFI0:
  31              		.cfi_def_cfa_offset 4
  32              		.cfi_offset 14, -4
  72:.\uart_wifi.c ****     uint8 Verify = 0;
  33              		.loc 1 72 0
  34 0002 0023     		mov	r3, #0
  35              	.LVL1:
  36              	.L2:
  73:.\uart_wifi.c ****     while (Len--)
  37              		.loc 1 73 0 discriminator 1
  38 0004 0139     		sub	r1, r1, #1
  39              	.LVL2:
  40 0006 064A     		ldr	r2, .L6
  41 0008 89B2     		uxth	r1, r1
ARM GAS  C:\Users\ZHANGM~1\AppData\Local\Temp\ccBCEiox.s 			page 3


  42              	.LVL3:
  43 000a 9142     		cmp	r1, r2
  44 000c 04D0     		beq	.L5
  45              	.L3:
  74:.\uart_wifi.c ****     {
  75:.\uart_wifi.c ****         Verify = Verify + (*PBuf);
  46              		.loc 1 75 0
  47 000e 0278     		ldrb	r2, [r0]
  76:.\uart_wifi.c ****         PBuf ++;
  48              		.loc 1 76 0
  49 0010 0130     		add	r0, r0, #1
  50              	.LVL4:
  75:.\uart_wifi.c ****         Verify = Verify + (*PBuf);
  51              		.loc 1 75 0
  52 0012 9B18     		add	r3, r3, r2
  53              	.LVL5:
  54 0014 DBB2     		uxtb	r3, r3
  55              	.LVL6:
  56 0016 F5E7     		b	.L2
  57              	.L5:
  77:.\uart_wifi.c ****     }
  78:.\uart_wifi.c ****     return (Verify == 0);                                //如果verify为0 返回1 否则返回0
  58              		.loc 1 78 0
  59 0018 5842     		neg	r0, r3
  60 001a 5841     		adc	r0, r0, r3
  61              	.LVL7:
  79:.\uart_wifi.c **** }
  62              		.loc 1 79 0
  63              		@ sp needed for prologue
  64 001c 00BD     		pop	{pc}
  65              	.L7:
  66 001e C046     		.align	2
  67              	.L6:
  68 0020 FFFF0000 		.word	65535
  69              		.cfi_endproc
  70              	.LFE33:
  71              		.size	Sum_Verify, .-Sum_Verify
  72              		.section	.text.Sum_Make_Verify,"ax",%progbits
  73              		.align	1
  74              		.global	Sum_Make_Verify
  75              		.code	16
  76              		.thumb_func
  77              		.type	Sum_Make_Verify, %function
  78              	Sum_Make_Verify:
  79              	.LFB34:
  80:.\uart_wifi.c **** /******************************************************************************
  81:.\uart_wifi.c **** * 函 数 名: Sum_Make_Verify (uint8 *pBuf, uint len)
  82:.\uart_wifi.c **** * 函数功能: 串口接收程序
  83:.\uart_wifi.c **** * 入口参数: 无
  84:.\uart_wifi.c **** * 返    回: 
  85:.\uart_wifi.c **** *******************************************************************************/
  86:.\uart_wifi.c **** uint8 Sum_Make_Verify (uint8 *PBuf, uint16 Len)
  87:.\uart_wifi.c **** {
  80              		.loc 1 87 0
  81              		.cfi_startproc
  82              	.LVL8:
  83 0000 00B5     		push	{lr}
ARM GAS  C:\Users\ZHANGM~1\AppData\Local\Temp\ccBCEiox.s 			page 4


  84              	.LCFI1:
  85              		.cfi_def_cfa_offset 4
  86              		.cfi_offset 14, -4
  88:.\uart_wifi.c ****     uint8 Verify = 0;
  87              		.loc 1 88 0
  88 0002 0023     		mov	r3, #0
  89              	.LVL9:
  90              	.L9:
  89:.\uart_wifi.c ****     while (Len--)
  91              		.loc 1 89 0 discriminator 1
  92 0004 0139     		sub	r1, r1, #1
  93              	.LVL10:
  94 0006 064A     		ldr	r2, .L12
  95 0008 89B2     		uxth	r1, r1
  96              	.LVL11:
  97 000a 9142     		cmp	r1, r2
  98 000c 04D0     		beq	.L11
  99              	.L10:
  90:.\uart_wifi.c ****     {
  91:.\uart_wifi.c ****         Verify = Verify + (*PBuf);
 100              		.loc 1 91 0
 101 000e 0278     		ldrb	r2, [r0]
  92:.\uart_wifi.c ****         ++ PBuf;
 102              		.loc 1 92 0
 103 0010 0130     		add	r0, r0, #1
 104              	.LVL12:
  91:.\uart_wifi.c ****         Verify = Verify + (*PBuf);
 105              		.loc 1 91 0
 106 0012 9B18     		add	r3, r3, r2
 107              	.LVL13:
 108 0014 DBB2     		uxtb	r3, r3
 109              	.LVL14:
 110 0016 F5E7     		b	.L9
 111              	.L11:
  93:.\uart_wifi.c ****     }
  94:.\uart_wifi.c ****     return (~Verify + 1);
 112              		.loc 1 94 0
 113 0018 5B42     		neg	r3, r3
 114              	.LVL15:
 115 001a D8B2     		uxtb	r0, r3
 116              	.LVL16:
  95:.\uart_wifi.c **** }
 117              		.loc 1 95 0
 118              		@ sp needed for prologue
 119 001c 00BD     		pop	{pc}
 120              	.L13:
 121 001e C046     		.align	2
 122              	.L12:
 123 0020 FFFF0000 		.word	65535
 124              		.cfi_endproc
 125              	.LFE34:
 126              		.size	Sum_Make_Verify, .-Sum_Make_Verify
 127              		.section	.text.LoadUARTData,"ax",%progbits
 128              		.align	1
 129              		.global	LoadUARTData
 130              		.code	16
 131              		.thumb_func
ARM GAS  C:\Users\ZHANGM~1\AppData\Local\Temp\ccBCEiox.s 			page 5


 132              		.type	LoadUARTData, %function
 133              	LoadUARTData:
 134              	.LFB35:
  96:.\uart_wifi.c **** /*
  97:.\uart_wifi.c **** 	========================================================================
  98:.\uart_wifi.c **** * 函 数 名: LodaUARTData(   IN unsigned char  UartData)
  99:.\uart_wifi.c **** * 函数功能: 串口发送程序
 100:.\uart_wifi.c **** * 入口参数: UartData
 101:.\uart_wifi.c **** * 返    回: 
 102:.\uart_wifi.c **** 	========================================================================
 103:.\uart_wifi.c **** */
 104:.\uart_wifi.c **** void LoadUARTData(uint8  UartData)
 105:.\uart_wifi.c **** {
 135              		.loc 1 105 0
 136              		.cfi_startproc
 137              	.LVL17:
 138 0000 30B5     		push	{r4, r5, lr}
 139              	.LCFI2:
 140              		.cfi_def_cfa_offset 12
 141              		.cfi_offset 4, -12
 142              		.cfi_offset 5, -8
 143              		.cfi_offset 14, -4
 106:.\uart_wifi.c **** 	switch (gcWifiCommunState)
 144              		.loc 1 106 0
 145 0002 3B4A     		ldr	r2, .L40
 105:.\uart_wifi.c **** {
 146              		.loc 1 105 0
 147 0004 031C     		mov	r3, r0
 148              		.loc 1 106 0
 149 0006 1078     		ldrb	r0, [r2]
 150              	.LVL18:
 151 0008 111C     		mov	r1, r2
 152 000a 0B28     		cmp	r0, #11
 153 000c 6CD8     		bhi	.L15
 154 000e 394A     		ldr	r2, .L40+4
 155 0010 FFF7FEFF 		bl	__gnu_thumb1_case_uqi
 156              	.L28:
 157 0014 06       		.byte	(.L16-.L28)/2
 158 0015 0B       		.byte	(.L17-.L28)/2
 159 0016 11       		.byte	(.L18-.L28)/2
 160 0017 17       		.byte	(.L19-.L28)/2
 161 0018 1B       		.byte	(.L20-.L28)/2
 162 0019 1F       		.byte	(.L21-.L28)/2
 163 001a 25       		.byte	(.L22-.L28)/2
 164 001b 2B       		.byte	(.L23-.L28)/2
 165 001c 34       		.byte	(.L24-.L28)/2
 166 001d 3A       		.byte	(.L25-.L28)/2
 167 001e 48       		.byte	(.L26-.L28)/2
 168 001f 58       		.byte	(.L27-.L28)/2
 169              		.align	1
 170              	.L16:
 107:.\uart_wifi.c **** 		{
 108:.\uart_wifi.c **** 			 case WIFI_WAIT_SYN_0:		                 // 1数据包头FA
 109:.\uart_wifi.c **** 			   		if(UartData==WIFI_SYN_0)
 171              		.loc 1 109 0
 172 0020 FA2B     		cmp	r3, #250
 173 0022 62D1     		bne	.L39
ARM GAS  C:\Users\ZHANGM~1\AppData\Local\Temp\ccBCEiox.s 			page 6


 110:.\uart_wifi.c ****   			   		gcWifiCommunState = WIFI_WAIT_SYN_1;
 174              		.loc 1 110 0
 175 0024 0125     		mov	r5, #1
 176 0026 0D70     		strb	r5, [r1]
 177 0028 5FE0     		b	.L39
 178              	.L17:
 111:.\uart_wifi.c ****   			  	    ATReceBuffer[0].gcATReceData[0]= UartData;
 112:.\uart_wifi.c **** 			  		break;
 113:.\uart_wifi.c **** 			 case WIFI_WAIT_SYN_1:		                // 2数据包头FB
 114:.\uart_wifi.c **** 			   		if(UartData==WIFI_SYN_1)
 179              		.loc 1 114 0
 180 002a FB2B     		cmp	r3, #251
 181 002c 01D1     		bne	.L31
 115:.\uart_wifi.c ****   			   		gcWifiCommunState = WIFI_PROTOCOL_JUDGE;
 182              		.loc 1 115 0
 183 002e 0220     		mov	r0, #2
 184 0030 0870     		strb	r0, [r1]
 185              	.L31:
 116:.\uart_wifi.c ****   			  	    ATReceBuffer[0].gcATReceData[1]= UartData;
 186              		.loc 1 116 0
 187 0032 5370     		strb	r3, [r2, #1]
 117:.\uart_wifi.c **** 			  		break;
 188              		.loc 1 117 0
 189 0034 5AE0     		b	.L14
 190              	.L18:
 118:.\uart_wifi.c **** 			 case WIFI_PROTOCOL_JUDGE:                //3协议版本
 119:.\uart_wifi.c **** 			 			if(UartData==WIFI_PROTOCOL_VERSION)
 191              		.loc 1 119 0
 192 0036 002B     		cmp	r3, #0
 193 0038 01D1     		bne	.L32
 120:.\uart_wifi.c ****   			   		gcWifiCommunState = WIFI_TOTAL_FRAME_NUM;
 194              		.loc 1 120 0
 195 003a 0324     		mov	r4, #3
 196 003c 0C70     		strb	r4, [r1]
 197              	.L32:
 121:.\uart_wifi.c ****   			  	ATReceBuffer[0].gcATReceData[2]= UartData;
 198              		.loc 1 121 0
 199 003e 9370     		strb	r3, [r2, #2]
 122:.\uart_wifi.c **** 			  		break;
 200              		.loc 1 122 0
 201 0040 54E0     		b	.L14
 202              	.L19:
 123:.\uart_wifi.c **** 			 case WIFI_TOTAL_FRAME_NUM:               //4总帧数量
 124:.\uart_wifi.c **** 			 			gcWifiCommunState = WIFI_FRAME_NUM;
 203              		.loc 1 124 0
 204 0042 0425     		mov	r5, #4
 205 0044 0D70     		strb	r5, [r1]
 125:.\uart_wifi.c ****   			  	ATReceBuffer[0].gcATReceData[3]= UartData;
 206              		.loc 1 125 0
 207 0046 D370     		strb	r3, [r2, #3]
 126:.\uart_wifi.c **** 			  		break;		
 208              		.loc 1 126 0
 209 0048 50E0     		b	.L14
 210              	.L20:
 127:.\uart_wifi.c **** 			 case WIFI_FRAME_NUM:                    //5帧序号
 128:.\uart_wifi.c **** 			 			gcWifiCommunState = WIFI_WAIT_CTL;
 211              		.loc 1 128 0
ARM GAS  C:\Users\ZHANGM~1\AppData\Local\Temp\ccBCEiox.s 			page 7


 212 004a 0520     		mov	r0, #5
 213 004c 0870     		strb	r0, [r1]
 129:.\uart_wifi.c ****   			  	ATReceBuffer[0].gcATReceData[4]= UartData;
 214              		.loc 1 129 0
 215 004e 1371     		strb	r3, [r2, #4]
 130:.\uart_wifi.c **** 			  		break;		
 216              		.loc 1 130 0
 217 0050 4CE0     		b	.L14
 218              	.L21:
 131:.\uart_wifi.c **** 			 case WIFI_WAIT_CTL:	               // 6控制字
 132:.\uart_wifi.c **** 			    	gcWIFICTL = UartData;
 219              		.loc 1 132 0
 220 0052 294D     		ldr	r5, .L40+8
 133:.\uart_wifi.c **** 						gcWifiCommunState = WIFI_COMMAND_1;
 221              		.loc 1 133 0
 222 0054 0624     		mov	r4, #6
 132:.\uart_wifi.c **** 			    	gcWIFICTL = UartData;
 223              		.loc 1 132 0
 224 0056 2B70     		strb	r3, [r5]
 225              		.loc 1 133 0
 226 0058 0C70     		strb	r4, [r1]
 134:.\uart_wifi.c ****   			  	ATReceBuffer[0].gcATReceData[5]= UartData;
 227              		.loc 1 134 0
 228 005a 5371     		strb	r3, [r2, #5]
 135:.\uart_wifi.c **** 			 			break;		 
 229              		.loc 1 135 0
 230 005c 46E0     		b	.L14
 231              	.L22:
 136:.\uart_wifi.c **** 			 case WIFI_COMMAND_1:	           // 7指令1
 137:.\uart_wifi.c **** 			    	giWIFICommand = UartData;
 232              		.loc 1 137 0
 233 005e 274C     		ldr	r4, .L40+12
 138:.\uart_wifi.c **** 						gcWifiCommunState = WIFI_COMMAND_2;
 234              		.loc 1 138 0
 235 0060 0720     		mov	r0, #7
 137:.\uart_wifi.c **** 			    	giWIFICommand = UartData;
 236              		.loc 1 137 0
 237 0062 2380     		strh	r3, [r4]
 238              		.loc 1 138 0
 239 0064 0870     		strb	r0, [r1]
 139:.\uart_wifi.c ****   			  	ATReceBuffer[0].gcATReceData[6]= UartData;
 240              		.loc 1 139 0
 241 0066 9371     		strb	r3, [r2, #6]
 140:.\uart_wifi.c **** 			 			break;
 242              		.loc 1 140 0
 243 0068 40E0     		b	.L14
 244              	.L23:
 141:.\uart_wifi.c **** 			 case WIFI_COMMAND_2:			  // 8指令2
 142:.\uart_wifi.c **** 			    	giWIFICommand = (giWIFICommand<<8)+UartData;
 245              		.loc 1 142 0
 246 006a 244D     		ldr	r5, .L40+12
 143:.\uart_wifi.c ****       				  gcWifiCommunState = WIFI_LENGTH1;     
 144:.\uart_wifi.c ****   			  	ATReceBuffer[0].gcATReceData[7]= UartData;
 247              		.loc 1 144 0
 248 006c D371     		strb	r3, [r2, #7]
 142:.\uart_wifi.c **** 			    	giWIFICommand = (giWIFICommand<<8)+UartData;
 249              		.loc 1 142 0
ARM GAS  C:\Users\ZHANGM~1\AppData\Local\Temp\ccBCEiox.s 			page 8


 250 006e 2888     		ldrh	r0, [r5]
 251 0070 0402     		lsl	r4, r0, #8
 252 0072 1819     		add	r0, r3, r4
 253 0074 2880     		strh	r0, [r5]
 143:.\uart_wifi.c ****       				  gcWifiCommunState = WIFI_LENGTH1;     
 254              		.loc 1 143 0
 255 0076 0825     		mov	r5, #8
 256 0078 0D70     		strb	r5, [r1]
 145:.\uart_wifi.c **** 			 			break;			 					  		
 257              		.loc 1 145 0
 258 007a 37E0     		b	.L14
 259              	.L24:
 146:.\uart_wifi.c **** 			 case WIFI_LENGTH1:	           // 9数据长度1
 147:.\uart_wifi.c **** 			    	giWIFIDATALength = UartData;
 260              		.loc 1 147 0
 261 007c 2048     		ldr	r0, .L40+16
 148:.\uart_wifi.c **** 						gcWifiCommunState = WIFI_LENGTH2;
 262              		.loc 1 148 0
 263 007e 0924     		mov	r4, #9
 147:.\uart_wifi.c **** 			    	giWIFIDATALength = UartData;
 264              		.loc 1 147 0
 265 0080 0380     		strh	r3, [r0]
 266              		.loc 1 148 0
 267 0082 0C70     		strb	r4, [r1]
 149:.\uart_wifi.c ****   			  	ATReceBuffer[0].gcATReceData[8]= UartData;
 268              		.loc 1 149 0
 269 0084 1372     		strb	r3, [r2, #8]
 150:.\uart_wifi.c **** 			 			break;
 270              		.loc 1 150 0
 271 0086 31E0     		b	.L14
 272              	.L25:
 151:.\uart_wifi.c **** 			 case WIFI_LENGTH2:			  // 10数据长度2
 152:.\uart_wifi.c **** 			    	giWIFIDATALength = (giWIFIDATALength<<8)+UartData;
 273              		.loc 1 152 0
 274 0088 1D4D     		ldr	r5, .L40+16
 275 008a 2888     		ldrh	r0, [r5]
 276 008c 0402     		lsl	r4, r0, #8
 277 008e 1819     		add	r0, r3, r4
 278 0090 84B2     		uxth	r4, r0
 279 0092 2C80     		strh	r4, [r5]
 153:.\uart_wifi.c ****     				if(giWIFIDATALength>0)   // 
 280              		.loc 1 153 0
 281 0094 002C     		cmp	r4, #0
 282 0096 01D0     		beq	.L33
 154:.\uart_wifi.c ****       				{
 155:.\uart_wifi.c ****       				  gcWifiCommunState = WIFI_RECEDATA;
 283              		.loc 1 155 0
 284 0098 0B25     		mov	r5, #11
 285 009a 00E0     		b	.L38
 286              	.L33:
 156:.\uart_wifi.c ****       				} 
 157:.\uart_wifi.c ****     				else
 158:.\uart_wifi.c ****       				{
 159:.\uart_wifi.c ****       				   gcWifiCommunState = WIFI_CHCK; 
 287              		.loc 1 159 0
 288 009c 0A25     		mov	r5, #10
 289              	.L38:
ARM GAS  C:\Users\ZHANGM~1\AppData\Local\Temp\ccBCEiox.s 			page 9


 290 009e 0D70     		strb	r5, [r1]
 160:.\uart_wifi.c ****       				}
 161:.\uart_wifi.c ****   			  	ATReceBuffer[0].gcATReceData[9]= UartData;
 291              		.loc 1 161 0
 292 00a0 5372     		strb	r3, [r2, #9]
 162:.\uart_wifi.c **** 			 			break;
 293              		.loc 1 162 0
 294 00a2 23E0     		b	.L14
 295              	.L26:
 163:.\uart_wifi.c ****     	case WIFI_CHCK:	  // 11校验 
 164:.\uart_wifi.c ****     				if (ATReceBuffer[0].gcATReceCount<=(WIFIBUFLEN-10-1)) 
 296              		.loc 1 164 0
 297 00a4 101C     		mov	r0, r2
 298 00a6 6430     		add	r0, r0, #100
 299 00a8 0488     		ldrh	r4, [r0]
 300 00aa 592C     		cmp	r4, #89
 301 00ac 1ED8     		bhi	.L14
 165:.\uart_wifi.c ****     					{
 166:.\uart_wifi.c ****   			    		ATReceBuffer[0].gcATReceData[10+ATReceBuffer[0].gcATReceCount]= UartData; 
 302              		.loc 1 166 0
 303 00ae 1519     		add	r5, r2, r4
 304 00b0 AB72     		strb	r3, [r5, #10]
 167:.\uart_wifi.c ****   			    		ATReceBuffer[0].gcATReceCount = 0;
 305              		.loc 1 167 0
 306 00b2 0023     		mov	r3, #0
 307 00b4 0380     		strh	r3, [r0]
 168:.\uart_wifi.c **** 	      				gcWifiCommunState = WIFI_WAIT_SYN_0;
 169:.\uart_wifi.c **** 	      				WifiWorkFlag.gcReceComm1OK = 1;  // 数据成功接收完毕   						
 308              		.loc 1 169 0
 309 00b6 1348     		ldr	r0, .L40+20
 168:.\uart_wifi.c **** 	      				gcWifiCommunState = WIFI_WAIT_SYN_0;
 310              		.loc 1 168 0
 311 00b8 0B70     		strb	r3, [r1]
 312              		.loc 1 169 0
 313 00ba 0478     		ldrb	r4, [r0]
 314 00bc 0421     		mov	r1, #4
 315 00be 0C43     		orr	r4, r1
 316 00c0 0470     		strb	r4, [r0]
 317 00c2 13E0     		b	.L14
 318              	.L27:
 170:.\uart_wifi.c ****     					}         						
 171:.\uart_wifi.c **** 
 172:.\uart_wifi.c **** 
 173:.\uart_wifi.c **** 
 174:.\uart_wifi.c **** 			 			break;
 175:.\uart_wifi.c **** 		case WIFI_RECEDATA:  // 12数据内容
 176:.\uart_wifi.c ****     				if (ATReceBuffer[0].gcATReceCount<(WIFIBUFLEN-10-1)) 
 319              		.loc 1 176 0
 320 00c4 141C     		mov	r4, r2
 321 00c6 6434     		add	r4, r4, #100
 322 00c8 2088     		ldrh	r0, [r4]
 323 00ca 5828     		cmp	r0, #88
 324 00cc 03D8     		bhi	.L36
 177:.\uart_wifi.c ****     					{
 178:.\uart_wifi.c ****   			    		ATReceBuffer[0].gcATReceData[10+ATReceBuffer[0].gcATReceCount]= UartData;
 325              		.loc 1 178 0
 326 00ce 1518     		add	r5, r2, r0
ARM GAS  C:\Users\ZHANGM~1\AppData\Local\Temp\ccBCEiox.s 			page 10


 179:.\uart_wifi.c ****   			    		ATReceBuffer[0].gcATReceCount++;    						
 327              		.loc 1 179 0
 328 00d0 0130     		add	r0, r0, #1
 178:.\uart_wifi.c ****   			    		ATReceBuffer[0].gcATReceData[10+ATReceBuffer[0].gcATReceCount]= UartData;
 329              		.loc 1 178 0
 330 00d2 AB72     		strb	r3, [r5, #10]
 331              		.loc 1 179 0
 332 00d4 2080     		strh	r0, [r4]
 333              	.L36:
 180:.\uart_wifi.c ****     					}
 181:.\uart_wifi.c **** 
 182:.\uart_wifi.c ****     				if(ATReceBuffer[0].gcATReceCount == giWIFIDATALength)
 334              		.loc 1 182 0
 335 00d6 0A4B     		ldr	r3, .L40+16
 336 00d8 6432     		add	r2, r2, #100
 337 00da 1288     		ldrh	r2, [r2]
 338 00dc 1C88     		ldrh	r4, [r3]
 339 00de A242     		cmp	r2, r4
 340 00e0 04D1     		bne	.L14
 183:.\uart_wifi.c ****     				{
 184:.\uart_wifi.c ****     				  	gcWifiCommunState = WIFI_CHCK;
 341              		.loc 1 184 0
 342 00e2 0A20     		mov	r0, #10
 343 00e4 0870     		strb	r0, [r1]
 344 00e6 01E0     		b	.L14
 345              	.L15:
 185:.\uart_wifi.c ****     				}
 186:.\uart_wifi.c ****     			 	break;
 187:.\uart_wifi.c **** 		default:
 188:.\uart_wifi.c **** 			 	gcWifiCommunState = WIFI_WAIT_SYN_0;	
 346              		.loc 1 188 0
 347 00e8 0023     		mov	r3, #0
 348              	.L39:
 349 00ea 1370     		strb	r3, [r2]
 350              	.L14:
 189:.\uart_wifi.c **** 		}
 190:.\uart_wifi.c **** }
 351              		.loc 1 190 0
 352              		@ sp needed for prologue
 353 00ec 30BD     		pop	{r4, r5, pc}
 354              	.L41:
 355 00ee C046     		.align	2
 356              	.L40:
 357 00f0 00000000 		.word	gcWifiCommunState
 358 00f4 00000000 		.word	ATReceBuffer
 359 00f8 00000000 		.word	gcWIFICTL
 360 00fc 00000000 		.word	giWIFICommand
 361 0100 00000000 		.word	giWIFIDATALength
 362 0104 00000000 		.word	WifiWorkFlag
 363              		.cfi_endproc
 364              	.LFE35:
 365              		.size	LoadUARTData, .-LoadUARTData
 366              		.section	.text.LoadTDSBoardData,"ax",%progbits
 367              		.align	1
 368              		.global	LoadTDSBoardData
 369              		.code	16
 370              		.thumb_func
ARM GAS  C:\Users\ZHANGM~1\AppData\Local\Temp\ccBCEiox.s 			page 11


 371              		.type	LoadTDSBoardData, %function
 372              	LoadTDSBoardData:
 373              	.LFB36:
 191:.\uart_wifi.c **** /*
 192:.\uart_wifi.c **** 	========================================================================
 193:.\uart_wifi.c **** * 函 数 名: LodaUARTData(   IN unsigned char  UartData)
 194:.\uart_wifi.c **** * 函数功能: 串口发送程序
 195:.\uart_wifi.c **** * 入口参数: UartData
 196:.\uart_wifi.c **** * 返    回: 
 197:.\uart_wifi.c **** 	========================================================================
 198:.\uart_wifi.c **** */
 199:.\uart_wifi.c **** void LoadTDSBoardData(uint8  UartData)
 200:.\uart_wifi.c **** {
 374              		.loc 1 200 0
 375              		.cfi_startproc
 376              	.LVL19:
 377 0000 10B5     		push	{r4, lr}
 378              	.LCFI3:
 379              		.cfi_def_cfa_offset 8
 380              		.cfi_offset 4, -8
 381              		.cfi_offset 14, -4
 201:.\uart_wifi.c **** 	switch (gctdsboardCommunState)
 382              		.loc 1 201 0
 383 0002 4049     		ldr	r1, .L67
 200:.\uart_wifi.c **** {
 384              		.loc 1 200 0
 385 0004 031C     		mov	r3, r0
 386              		.loc 1 201 0
 387 0006 0878     		ldrb	r0, [r1]
 388              	.LVL20:
 389 0008 0A1C     		mov	r2, r1
 390 000a 0B28     		cmp	r0, #11
 391 000c 76D8     		bhi	.L43
 392 000e FFF7FEFF 		bl	__gnu_thumb1_case_uqi
 393              	.L56:
 394 0012 06       		.byte	(.L44-.L56)/2
 395 0013 0C       		.byte	(.L45-.L56)/2
 396 0014 13       		.byte	(.L46-.L56)/2
 397 0015 1A       		.byte	(.L47-.L56)/2
 398 0016 1F       		.byte	(.L48-.L56)/2
 399 0017 24       		.byte	(.L49-.L56)/2
 400 0018 2B       		.byte	(.L50-.L56)/2
 401 0019 32       		.byte	(.L51-.L56)/2
 402 001a 3C       		.byte	(.L52-.L56)/2
 403 001b 43       		.byte	(.L53-.L56)/2
 404 001c 52       		.byte	(.L54-.L56)/2
 405 001d 63       		.byte	(.L55-.L56)/2
 406              		.align	1
 407              	.L44:
 202:.\uart_wifi.c **** 		{
 203:.\uart_wifi.c **** 			 case TDSBOARD_WAIT_SYN_0:		                 // 1数据包头FA
 204:.\uart_wifi.c **** 			   		if(UartData==TDSBOARD_SYN_0)
 408              		.loc 1 204 0
 409 001e FA2B     		cmp	r3, #250
 410 0020 69D1     		bne	.L64
 205:.\uart_wifi.c ****                     {
 206:.\uart_wifi.c ****   			   		    gctdsboardCommunState = TDSBOARD_WAIT_SYN_1;
ARM GAS  C:\Users\ZHANGM~1\AppData\Local\Temp\ccBCEiox.s 			page 12


 411              		.loc 1 206 0
 412 0022 0121     		mov	r1, #1
 413 0024 1170     		strb	r1, [r2]
 207:.\uart_wifi.c ****                         ATTdsReceBuffer[0].gcATReceTdsboardData[0]= UartData;
 414              		.loc 1 207 0
 415 0026 384A     		ldr	r2, .L67+4
 416 0028 66E0     		b	.L66
 417              	.L45:
 208:.\uart_wifi.c ****                     }
 209:.\uart_wifi.c ****                     else
 210:.\uart_wifi.c ****                         gctdsboardCommunState = TDSBOARD_WAIT_SYN_0;
 211:.\uart_wifi.c **** 			  		break;
 212:.\uart_wifi.c **** 			 case TDSBOARD_WAIT_SYN_1:		                // 2数据包头FB
 213:.\uart_wifi.c **** 			   		if(UartData==TDSBOARD_SYN_1)
 418              		.loc 1 213 0
 419 002a FC2B     		cmp	r3, #252
 420 002c 63D1     		bne	.L64
 214:.\uart_wifi.c ****                     {
 215:.\uart_wifi.c ****   			   		gctdsboardCommunState = TDSBOARD_PROTOCOL_JUDGE;
 216:.\uart_wifi.c ****   			  	    ATTdsReceBuffer[0].gcATReceTdsboardData[1]= UartData;
 421              		.loc 1 216 0
 422 002e 364A     		ldr	r2, .L67+4
 215:.\uart_wifi.c ****   			   		gctdsboardCommunState = TDSBOARD_PROTOCOL_JUDGE;
 423              		.loc 1 215 0
 424 0030 0220     		mov	r0, #2
 425 0032 0870     		strb	r0, [r1]
 426              		.loc 1 216 0
 427 0034 5370     		strb	r3, [r2, #1]
 428 0036 63E0     		b	.L42
 429              	.L46:
 217:.\uart_wifi.c ****                     }
 218:.\uart_wifi.c ****                     else
 219:.\uart_wifi.c ****                         gctdsboardCommunState = TDSBOARD_WAIT_SYN_0;
 220:.\uart_wifi.c **** 			  		break;
 221:.\uart_wifi.c **** 			 case TDSBOARD_PROTOCOL_JUDGE:                //3协议版本
 222:.\uart_wifi.c **** 			 			if(UartData==TDSBOARD_PROTOCOL_VERSION)
 430              		.loc 1 222 0
 431 0038 002B     		cmp	r3, #0
 432 003a 01D1     		bne	.L60
 223:.\uart_wifi.c ****   			   		gctdsboardCommunState = TDSBOARD_TOTAL_FRAME_NUM;
 433              		.loc 1 223 0
 434 003c 0321     		mov	r1, #3
 435 003e 1170     		strb	r1, [r2]
 436              	.L60:
 224:.\uart_wifi.c ****   			  	ATTdsReceBuffer[0].gcATReceTdsboardData[2]= UartData;
 437              		.loc 1 224 0
 438 0040 314C     		ldr	r4, .L67+4
 439 0042 A370     		strb	r3, [r4, #2]
 225:.\uart_wifi.c **** 			  		break;
 440              		.loc 1 225 0
 441 0044 5CE0     		b	.L42
 442              	.L47:
 226:.\uart_wifi.c **** 			 case TDSBOARD_TOTAL_FRAME_NUM:               //4总帧数量
 227:.\uart_wifi.c **** 			 			gctdsboardCommunState = TDSBOARD_FRAME_NUM;
 228:.\uart_wifi.c ****   			  	ATTdsReceBuffer[0].gcATReceTdsboardData[3]= UartData;
 443              		.loc 1 228 0
 444 0046 304A     		ldr	r2, .L67+4
ARM GAS  C:\Users\ZHANGM~1\AppData\Local\Temp\ccBCEiox.s 			page 13


 227:.\uart_wifi.c **** 			 			gctdsboardCommunState = TDSBOARD_FRAME_NUM;
 445              		.loc 1 227 0
 446 0048 0420     		mov	r0, #4
 447 004a 0870     		strb	r0, [r1]
 448              		.loc 1 228 0
 449 004c D370     		strb	r3, [r2, #3]
 229:.\uart_wifi.c **** 			  		break;		
 450              		.loc 1 229 0
 451 004e 57E0     		b	.L42
 452              	.L48:
 230:.\uart_wifi.c **** 			 case TDSBOARD_FRAME_NUM:                    //5帧序号
 231:.\uart_wifi.c **** 			 			gctdsboardCommunState = TDSBOARD_WAIT_CTL;
 232:.\uart_wifi.c ****   			  	ATTdsReceBuffer[0].gcATReceTdsboardData[4]= UartData;
 453              		.loc 1 232 0
 454 0050 2D4C     		ldr	r4, .L67+4
 231:.\uart_wifi.c **** 			 			gctdsboardCommunState = TDSBOARD_WAIT_CTL;
 455              		.loc 1 231 0
 456 0052 0521     		mov	r1, #5
 457 0054 1170     		strb	r1, [r2]
 458              		.loc 1 232 0
 459 0056 2371     		strb	r3, [r4, #4]
 233:.\uart_wifi.c **** 			  		break;		
 460              		.loc 1 233 0
 461 0058 52E0     		b	.L42
 462              	.L49:
 234:.\uart_wifi.c **** 			 case TDSBOARD_WAIT_CTL:	               // 6控制字
 235:.\uart_wifi.c **** 			    	gcTDSBOARDCTL = UartData;
 463              		.loc 1 235 0
 464 005a 2C4C     		ldr	r4, .L67+8
 236:.\uart_wifi.c **** 						gctdsboardCommunState = TDSBOARD_COMMAND_1;
 237:.\uart_wifi.c ****   			  	ATTdsReceBuffer[0].gcATReceTdsboardData[5]= UartData;
 465              		.loc 1 237 0
 466 005c 2A4A     		ldr	r2, .L67+4
 236:.\uart_wifi.c **** 						gctdsboardCommunState = TDSBOARD_COMMAND_1;
 467              		.loc 1 236 0
 468 005e 0620     		mov	r0, #6
 235:.\uart_wifi.c **** 			    	gcTDSBOARDCTL = UartData;
 469              		.loc 1 235 0
 470 0060 2370     		strb	r3, [r4]
 236:.\uart_wifi.c **** 						gctdsboardCommunState = TDSBOARD_COMMAND_1;
 471              		.loc 1 236 0
 472 0062 0870     		strb	r0, [r1]
 473              		.loc 1 237 0
 474 0064 5371     		strb	r3, [r2, #5]
 238:.\uart_wifi.c **** 			 			break;		 
 475              		.loc 1 238 0
 476 0066 4BE0     		b	.L42
 477              	.L50:
 239:.\uart_wifi.c **** 			 case TDSBOARD_COMMAND_1:	           // 7指令1
 240:.\uart_wifi.c **** 			    	giTDSBOARDCommand = UartData;
 241:.\uart_wifi.c **** 						gctdsboardCommunState = TDSBOARD_COMMAND_2;
 478              		.loc 1 241 0
 479 0068 0720     		mov	r0, #7
 240:.\uart_wifi.c **** 			    	giTDSBOARDCommand = UartData;
 480              		.loc 1 240 0
 481 006a 294C     		ldr	r4, .L67+12
 482              		.loc 1 241 0
ARM GAS  C:\Users\ZHANGM~1\AppData\Local\Temp\ccBCEiox.s 			page 14


 483 006c 0870     		strb	r0, [r1]
 242:.\uart_wifi.c ****   			  	ATTdsReceBuffer[0].gcATReceTdsboardData[6]= UartData;
 484              		.loc 1 242 0
 485 006e 2649     		ldr	r1, .L67+4
 240:.\uart_wifi.c **** 			    	giTDSBOARDCommand = UartData;
 486              		.loc 1 240 0
 487 0070 2380     		strh	r3, [r4]
 488              		.loc 1 242 0
 489 0072 8B71     		strb	r3, [r1, #6]
 243:.\uart_wifi.c **** 			 			break;
 490              		.loc 1 243 0
 491 0074 44E0     		b	.L42
 492              	.L51:
 244:.\uart_wifi.c **** 			 case TDSBOARD_COMMAND_2:			  // 8指令2
 245:.\uart_wifi.c **** 			    	giTDSBOARDCommand = (giTDSBOARDCommand<<8)+UartData;
 493              		.loc 1 245 0
 494 0076 2649     		ldr	r1, .L67+12
 495 0078 0888     		ldrh	r0, [r1]
 496 007a 0402     		lsl	r4, r0, #8
 497 007c 1819     		add	r0, r3, r4
 498 007e 0880     		strh	r0, [r1]
 246:.\uart_wifi.c ****       				  gctdsboardCommunState = TDSBOARD_LENGTH1;     
 499              		.loc 1 246 0
 500 0080 0821     		mov	r1, #8
 501 0082 1170     		strb	r1, [r2]
 247:.\uart_wifi.c ****   			  	ATTdsReceBuffer[0].gcATReceTdsboardData[7]= UartData;
 502              		.loc 1 247 0
 503 0084 204A     		ldr	r2, .L67+4
 504 0086 D371     		strb	r3, [r2, #7]
 248:.\uart_wifi.c **** 			 			break;			 					  		
 505              		.loc 1 248 0
 506 0088 3AE0     		b	.L42
 507              	.L52:
 249:.\uart_wifi.c **** 			 case TDSBOARD_LENGTH1:	           // 9数据长度1
 250:.\uart_wifi.c **** 			    	giTDSBOARDDATALength = UartData;
 508              		.loc 1 250 0
 509 008a 2248     		ldr	r0, .L67+16
 251:.\uart_wifi.c **** 						gctdsboardCommunState = TDSBOARD_LENGTH2;
 252:.\uart_wifi.c ****   			  	ATTdsReceBuffer[0].gcATReceTdsboardData[8]= UartData;
 510              		.loc 1 252 0
 511 008c 1E4C     		ldr	r4, .L67+4
 251:.\uart_wifi.c **** 						gctdsboardCommunState = TDSBOARD_LENGTH2;
 512              		.loc 1 251 0
 513 008e 0921     		mov	r1, #9
 250:.\uart_wifi.c **** 			    	giTDSBOARDDATALength = UartData;
 514              		.loc 1 250 0
 515 0090 0380     		strh	r3, [r0]
 251:.\uart_wifi.c **** 						gctdsboardCommunState = TDSBOARD_LENGTH2;
 516              		.loc 1 251 0
 517 0092 1170     		strb	r1, [r2]
 518              		.loc 1 252 0
 519 0094 2372     		strb	r3, [r4, #8]
 253:.\uart_wifi.c **** 			 			break;
 520              		.loc 1 253 0
 521 0096 33E0     		b	.L42
 522              	.L53:
 254:.\uart_wifi.c **** 			 case TDSBOARD_LENGTH2:			  // 10数据长度2
ARM GAS  C:\Users\ZHANGM~1\AppData\Local\Temp\ccBCEiox.s 			page 15


 255:.\uart_wifi.c **** 			    	giTDSBOARDDATALength = (giTDSBOARDDATALength<<8)+UartData;
 523              		.loc 1 255 0
 524 0098 1E4C     		ldr	r4, .L67+16
 525 009a 2088     		ldrh	r0, [r4]
 526 009c 0102     		lsl	r1, r0, #8
 527 009e 5818     		add	r0, r3, r1
 528 00a0 81B2     		uxth	r1, r0
 529 00a2 2180     		strh	r1, [r4]
 256:.\uart_wifi.c ****     				if(giTDSBOARDDATALength>0)   // 
 530              		.loc 1 256 0
 531 00a4 0029     		cmp	r1, #0
 532 00a6 01D0     		beq	.L61
 257:.\uart_wifi.c ****       				{
 258:.\uart_wifi.c ****       				  gctdsboardCommunState = TDSBOARD_RECEDATA;
 533              		.loc 1 258 0
 534 00a8 0B24     		mov	r4, #11
 535 00aa 00E0     		b	.L65
 536              	.L61:
 259:.\uart_wifi.c ****       				} 
 260:.\uart_wifi.c ****     				else
 261:.\uart_wifi.c ****       				{
 262:.\uart_wifi.c ****       				   gctdsboardCommunState = TDSBOARD_CHCK; 
 537              		.loc 1 262 0
 538 00ac 0A24     		mov	r4, #10
 539              	.L65:
 540 00ae 1470     		strb	r4, [r2]
 263:.\uart_wifi.c ****       				}
 264:.\uart_wifi.c ****   			  	ATTdsReceBuffer[0].gcATReceTdsboardData[9]= UartData;
 541              		.loc 1 264 0
 542 00b0 154A     		ldr	r2, .L67+4
 543 00b2 5372     		strb	r3, [r2, #9]
 265:.\uart_wifi.c **** 			 			break;
 544              		.loc 1 265 0
 545 00b4 24E0     		b	.L42
 546              	.L54:
 266:.\uart_wifi.c ****     	case TDSBOARD_CHCK:	  // 11校验 
 267:.\uart_wifi.c **** 		    		if (ATTdsReceBuffer[0].gcATReceTdsboardCount<=TDSBUFLEN-10-1) 
 547              		.loc 1 267 0
 548 00b6 1448     		ldr	r0, .L67+4
 549 00b8 0021     		mov	r1, #0
 550 00ba C48B     		ldrh	r4, [r0, #30]
 551 00bc 132C     		cmp	r4, #19
 552 00be 09D8     		bhi	.L63
 268:.\uart_wifi.c **** 		    			{
 269:.\uart_wifi.c **** 		   			    ATTdsReceBuffer[0].gcATReceTdsboardData[10+ATTdsReceBuffer[0].gcATReceTdsboardCount]= U
 553              		.loc 1 269 0
 554 00c0 0419     		add	r4, r0, r4
 270:.\uart_wifi.c **** 		      			ATTdsReceBuffer[0].gcATReceTdsboardCount = 0;
 555              		.loc 1 270 0
 556 00c2 C183     		strh	r1, [r0, #30]
 271:.\uart_wifi.c **** 		      			gctdsboardCommunState = TDSBOARD_WAIT_SYN_0;
 272:.\uart_wifi.c **** 		      			WifiWorkFlag.gcReceComm2OK = 1;  // 数据成功接收完毕   				
 557              		.loc 1 272 0
 558 00c4 1448     		ldr	r0, .L67+20
 271:.\uart_wifi.c **** 		      			gctdsboardCommunState = TDSBOARD_WAIT_SYN_0;
 559              		.loc 1 271 0
 560 00c6 1170     		strb	r1, [r2]
ARM GAS  C:\Users\ZHANGM~1\AppData\Local\Temp\ccBCEiox.s 			page 16


 269:.\uart_wifi.c **** 		   			    ATTdsReceBuffer[0].gcATReceTdsboardData[10+ATTdsReceBuffer[0].gcATReceTdsboardCount]= U
 561              		.loc 1 269 0
 562 00c8 A372     		strb	r3, [r4, #10]
 563              		.loc 1 272 0
 564 00ca 0278     		ldrb	r2, [r0]
 565 00cc 0221     		mov	r1, #2
 566 00ce 0A43     		orr	r2, r1
 567 00d0 0270     		strb	r2, [r0]
 568 00d2 15E0     		b	.L42
 569              	.L63:
 273:.\uart_wifi.c **** 		    			} 
 274:.\uart_wifi.c ****                      else
 275:.\uart_wifi.c ****                         {
 276:.\uart_wifi.c ****                            gctdsboardCommunState = TDSBOARD_WAIT_SYN_0; 
 570              		.loc 1 276 0
 571 00d4 1170     		strb	r1, [r2]
 572 00d6 13E0     		b	.L42
 573              	.L55:
 277:.\uart_wifi.c ****                         }
 278:.\uart_wifi.c **** 			 			break;
 279:.\uart_wifi.c **** 		case TDSBOARD_RECEDATA:  // 12数据内容
 280:.\uart_wifi.c **** 					  if (ATTdsReceBuffer[0].gcATReceTdsboardCount<TDSBUFLEN-10-1) 
 574              		.loc 1 280 0
 575 00d8 0B49     		ldr	r1, .L67+4
 576 00da C88B     		ldrh	r0, [r1, #30]
 577 00dc 1228     		cmp	r0, #18
 578 00de 0AD8     		bhi	.L64
 281:.\uart_wifi.c **** 		    			{
 282:.\uart_wifi.c ****     			 			ATTdsReceBuffer[0].gcATReceTdsboardData[10+ATTdsReceBuffer[0].gcATReceTdsboardCount]= Ua
 579              		.loc 1 282 0
 580 00e0 0C18     		add	r4, r1, r0
 283:.\uart_wifi.c ****     			    	ATTdsReceBuffer[0].gcATReceTdsboardCount++;
 581              		.loc 1 283 0
 582 00e2 0130     		add	r0, r0, #1
 583 00e4 80B2     		uxth	r0, r0
 584 00e6 C883     		strh	r0, [r1, #30]
 284:.\uart_wifi.c ****                          if(ATTdsReceBuffer[0].gcATReceTdsboardCount == giTDSBOARDDATALength)
 585              		.loc 1 284 0
 586 00e8 0A49     		ldr	r1, .L67+16
 282:.\uart_wifi.c ****     			 			ATTdsReceBuffer[0].gcATReceTdsboardData[10+ATTdsReceBuffer[0].gcATReceTdsboardCount]= Ua
 587              		.loc 1 282 0
 588 00ea A372     		strb	r3, [r4, #10]
 589              		.loc 1 284 0
 590 00ec 0B88     		ldrh	r3, [r1]
 591 00ee 8342     		cmp	r3, r0
 592 00f0 06D1     		bne	.L42
 285:.\uart_wifi.c ****     				        {
 286:.\uart_wifi.c ****     				  	        gctdsboardCommunState = TDSBOARD_CHCK;
 593              		.loc 1 286 0
 594 00f2 0A23     		mov	r3, #10
 595 00f4 00E0     		b	.L66
 596              	.L64:
 287:.\uart_wifi.c ****     				        }
 288:.\uart_wifi.c ****     			  	    }
 289:.\uart_wifi.c ****                         else
 290:.\uart_wifi.c ****                         {
 291:.\uart_wifi.c ****                            gctdsboardCommunState = TDSBOARD_WAIT_SYN_0; 
ARM GAS  C:\Users\ZHANGM~1\AppData\Local\Temp\ccBCEiox.s 			page 17


 597              		.loc 1 291 0
 598 00f6 0023     		mov	r3, #0
 599              	.L66:
 600 00f8 1370     		strb	r3, [r2]
 601 00fa 01E0     		b	.L42
 602              	.L43:
 292:.\uart_wifi.c ****                         }
 293:.\uart_wifi.c ****     			 	break;
 294:.\uart_wifi.c **** 		default:
 295:.\uart_wifi.c **** 			 	gctdsboardCommunState = TDSBOARD_WAIT_SYN_0;	
 603              		.loc 1 295 0
 604 00fc 0022     		mov	r2, #0
 605 00fe 0A70     		strb	r2, [r1]
 606              	.L42:
 296:.\uart_wifi.c **** 		}
 297:.\uart_wifi.c **** }
 607              		.loc 1 297 0
 608              		@ sp needed for prologue
 609 0100 10BD     		pop	{r4, pc}
 610              	.L68:
 611 0102 C046     		.align	2
 612              	.L67:
 613 0104 00000000 		.word	gctdsboardCommunState
 614 0108 00000000 		.word	ATTdsReceBuffer
 615 010c 00000000 		.word	gcTDSBOARDCTL
 616 0110 00000000 		.word	giTDSBOARDCommand
 617 0114 00000000 		.word	giTDSBOARDDATALength
 618 0118 00000000 		.word	WifiWorkFlag
 619              		.cfi_endproc
 620              	.LFE36:
 621              		.size	LoadTDSBoardData, .-LoadTDSBoardData
 622              		.section	.text.UART_SendData,"ax",%progbits
 623              		.align	1
 624              		.global	UART_SendData
 625              		.code	16
 626              		.thumb_func
 627              		.type	UART_SendData, %function
 628              	UART_SendData:
 629              	.LFB37:
 298:.\uart_wifi.c **** /**************************************************************************************************
 299:.\uart_wifi.c **** ** 函数名称: void UART_SendData(unsigned char	 *data_buf,unsigned char	 count)
 300:.\uart_wifi.c **** ** 功能描述: 从串口发送数据
 301:.\uart_wifi.c **** ** 入口参数: data_buf:发送数据缓冲区首地址
 302:.\uart_wifi.c **** **			 count	:发送字节数
 303:.\uart_wifi.c **** ** 出口参数:	无
 304:.\uart_wifi.c **** ***************************************************************************************************
 305:.\uart_wifi.c **** void UART_SendData(uint8	 *data_buf,uint16 iCount)
 306:.\uart_wifi.c **** {
 630              		.loc 1 306 0
 631              		.cfi_startproc
 632              	.LVL21:
 633 0000 10B5     		push	{r4, lr}
 634              	.LCFI4:
 635              		.cfi_def_cfa_offset 8
 636              		.cfi_offset 4, -8
 637              		.cfi_offset 14, -4
 307:.\uart_wifi.c **** 	WifidatagramWorkFlag.flag_Uart_Work = 1;                 //置正在通信标志
ARM GAS  C:\Users\ZHANGM~1\AppData\Local\Temp\ccBCEiox.s 			page 18


 638              		.loc 1 307 0
 639 0002 074B     		ldr	r3, .L70
 640 0004 0824     		mov	r4, #8
 641 0006 1A78     		ldrb	r2, [r3]
 308:.\uart_wifi.c **** 
 309:.\uart_wifi.c **** 	iUartSendLen = iCount-1;
 642              		.loc 1 309 0
 643 0008 0139     		sub	r1, r1, #1
 644              	.LVL22:
 307:.\uart_wifi.c **** 	WifidatagramWorkFlag.flag_Uart_Work = 1;                 //置正在通信标志
 645              		.loc 1 307 0
 646 000a 2243     		orr	r2, r4
 647 000c 1A70     		strb	r2, [r3]
 648              		.loc 1 309 0
 649 000e 054B     		ldr	r3, .L70+4
 310:.\uart_wifi.c **** 	iSendCounter = 0;
 650              		.loc 1 310 0
 651 0010 054A     		ldr	r2, .L70+8
 311:.\uart_wifi.c **** //  UART_UartPutChar(data_buf[0]);
 312:.\uart_wifi.c **** 	cpSendBufPtr = &data_buf[0];
 652              		.loc 1 312 0
 653 0012 064C     		ldr	r4, .L70+12
 309:.\uart_wifi.c **** 	iUartSendLen = iCount-1;
 654              		.loc 1 309 0
 655 0014 1980     		strh	r1, [r3]
 310:.\uart_wifi.c **** 	iSendCounter = 0;
 656              		.loc 1 310 0
 657 0016 0021     		mov	r1, #0
 658 0018 1180     		strh	r1, [r2]
 659              		.loc 1 312 0
 660 001a 2060     		str	r0, [r4]
 313:.\uart_wifi.c **** }
 661              		.loc 1 313 0
 662              		@ sp needed for prologue
 663 001c 10BD     		pop	{r4, pc}
 664              	.L71:
 665 001e C046     		.align	2
 666              	.L70:
 667 0020 00000000 		.word	WifidatagramWorkFlag
 668 0024 00000000 		.word	iUartSendLen
 669 0028 00000000 		.word	iSendCounter
 670 002c 00000000 		.word	cpSendBufPtr
 671              		.cfi_endproc
 672              	.LFE37:
 673              		.size	UART_SendData, .-UART_SendData
 674              		.section	.text.Comm_Uart_0_PrintHex8,"ax",%progbits
 675              		.align	1
 676              		.global	Comm_Uart_0_PrintHex8
 677              		.code	16
 678              		.thumb_func
 679              		.type	Comm_Uart_0_PrintHex8, %function
 680              	Comm_Uart_0_PrintHex8:
 681              	.LFB38:
 314:.\uart_wifi.c **** /**************************************************************************************************
 315:.\uart_wifi.c **** ** 函数名称: void Comm_Uart_0_PrintHex8(uint8 value)
 316:.\uart_wifi.c **** ** 功能描述: 从串口发送数据
 317:.\uart_wifi.c **** ** 入口参数:	无
ARM GAS  C:\Users\ZHANGM~1\AppData\Local\Temp\ccBCEiox.s 			page 19


 318:.\uart_wifi.c **** ** 出口参数:	无
 319:.\uart_wifi.c **** ***************************************************************************************************
 320:.\uart_wifi.c **** void Comm_Uart_0_PrintHex8(uint8 value)
 321:.\uart_wifi.c **** {
 682              		.loc 1 321 0
 683              		.cfi_startproc
 684              	.LVL23:
 685 0000 00B5     		push	{lr}
 686              	.LCFI5:
 687              		.cfi_def_cfa_offset 4
 688              		.cfi_offset 14, -4
 689              	.L73:
 322:.\uart_wifi.c ****     while(UART_0_FIFO_SIZE == UART_0_GET_TX_FIFO_ENTRIES);
 690              		.loc 1 322 0 discriminator 1
 691 0002 044B     		ldr	r3, .L78
 692 0004 0F21     		mov	r1, #15
 693 0006 1A68     		ldr	r2, [r3]
 694 0008 1140     		and	r1, r2
 695 000a 0829     		cmp	r1, #8
 696 000c F9D0     		beq	.L73
 323:.\uart_wifi.c ****     UART_0_TX_FIFO_WR_REG = (uint8)(value);
 697              		.loc 1 323 0
 698 000e 024B     		ldr	r3, .L78+4
 324:.\uart_wifi.c **** }
 699              		.loc 1 324 0
 700              		@ sp needed for prologue
 323:.\uart_wifi.c ****     UART_0_TX_FIFO_WR_REG = (uint8)(value);
 701              		.loc 1 323 0
 702 0010 1860     		str	r0, [r3]
 703              		.loc 1 324 0
 704 0012 00BD     		pop	{pc}
 705              	.L79:
 706              		.align	2
 707              	.L78:
 708 0014 08020740 		.word	1074201096
 709 0018 40020740 		.word	1074201152
 710              		.cfi_endproc
 711              	.LFE38:
 712              		.size	Comm_Uart_0_PrintHex8, .-Comm_Uart_0_PrintHex8
 713              		.section	.text.Comm_Uart_1_PrintHex8,"ax",%progbits
 714              		.align	1
 715              		.global	Comm_Uart_1_PrintHex8
 716              		.code	16
 717              		.thumb_func
 718              		.type	Comm_Uart_1_PrintHex8, %function
 719              	Comm_Uart_1_PrintHex8:
 720              	.LFB39:
 325:.\uart_wifi.c **** /**************************************************************************************************
 326:.\uart_wifi.c **** ** 函数名称: void Comm_Uart_1_PrintHex8(uint8 value)
 327:.\uart_wifi.c **** ** 功能描述: 从串口发送数据
 328:.\uart_wifi.c **** ** 入口参数:	无
 329:.\uart_wifi.c **** ** 出口参数:	无
 330:.\uart_wifi.c **** ***************************************************************************************************
 331:.\uart_wifi.c **** void Comm_Uart_1_PrintHex8(uint8 value)
 332:.\uart_wifi.c **** {
 721              		.loc 1 332 0
 722              		.cfi_startproc
ARM GAS  C:\Users\ZHANGM~1\AppData\Local\Temp\ccBCEiox.s 			page 20


 723              	.LVL24:
 724 0000 00B5     		push	{lr}
 725              	.LCFI6:
 726              		.cfi_def_cfa_offset 4
 727              		.cfi_offset 14, -4
 728              	.L81:
 333:.\uart_wifi.c ****     while(UART_1_FIFO_SIZE == UART_1_GET_TX_FIFO_ENTRIES);
 729              		.loc 1 333 0 discriminator 1
 730 0002 044B     		ldr	r3, .L86
 731 0004 0F21     		mov	r1, #15
 732 0006 1A68     		ldr	r2, [r3]
 733 0008 1140     		and	r1, r2
 734 000a 0829     		cmp	r1, #8
 735 000c F9D0     		beq	.L81
 334:.\uart_wifi.c ****     UART_1_TX_FIFO_WR_REG = (uint8)(value);
 736              		.loc 1 334 0
 737 000e 024B     		ldr	r3, .L86+4
 335:.\uart_wifi.c **** }
 738              		.loc 1 335 0
 739              		@ sp needed for prologue
 334:.\uart_wifi.c ****     UART_1_TX_FIFO_WR_REG = (uint8)(value);
 740              		.loc 1 334 0
 741 0010 1860     		str	r0, [r3]
 742              		.loc 1 335 0
 743 0012 00BD     		pop	{pc}
 744              	.L87:
 745              		.align	2
 746              	.L86:
 747 0014 08020640 		.word	1074135560
 748 0018 40020640 		.word	1074135616
 749              		.cfi_endproc
 750              	.LFE39:
 751              		.size	Comm_Uart_1_PrintHex8, .-Comm_Uart_1_PrintHex8
 752              		.section	.text.Uart_0_Putchar,"ax",%progbits
 753              		.align	1
 754              		.global	Uart_0_Putchar
 755              		.code	16
 756              		.thumb_func
 757              		.type	Uart_0_Putchar, %function
 758              	Uart_0_Putchar:
 759              	.LFB40:
 336:.\uart_wifi.c **** /**************************************************************************************************
 337:.\uart_wifi.c **** ** 函数名称: void UART_putchar(void)
 338:.\uart_wifi.c **** ** 功能描述: 从串口发送数据
 339:.\uart_wifi.c **** ** 入口参数:	无
 340:.\uart_wifi.c **** ** 出口参数:	无
 341:.\uart_wifi.c **** ***************************************************************************************************
 342:.\uart_wifi.c **** void Uart_0_Putchar(void)
 343:.\uart_wifi.c **** {
 760              		.loc 1 343 0
 761              		.cfi_startproc
 762 0000 08B5     		push	{r3, lr}
 763              	.LCFI7:
 764              		.cfi_def_cfa_offset 8
 765              		.cfi_offset 3, -8
 766              		.cfi_offset 14, -4
 344:.\uart_wifi.c **** 	if(WorkFlag.uart_0_tx!=0)
ARM GAS  C:\Users\ZHANGM~1\AppData\Local\Temp\ccBCEiox.s 			page 21


 767              		.loc 1 344 0
 768 0002 0C4B     		ldr	r3, .L94
 769 0004 D878     		ldrb	r0, [r3, #3]
 770 0006 8206     		lsl	r2, r0, #26
 771 0008 12D5     		bpl	.L88
 345:.\uart_wifi.c **** 		{
 346:.\uart_wifi.c **** 			if(iSendCounter!=(iUartSendLen+1))
 772              		.loc 1 346 0
 773 000a 0B49     		ldr	r1, .L94+4
 774 000c 0B4A     		ldr	r2, .L94+8
 775 000e 0888     		ldrh	r0, [r1]
 776 0010 1388     		ldrh	r3, [r2]
 777 0012 0130     		add	r0, r0, #1
 778 0014 8342     		cmp	r3, r0
 779 0016 06D0     		beq	.L90
 347:.\uart_wifi.c **** 			{
 348:.\uart_wifi.c ****           Comm_Uart_0_PrintHex8(cpSendBufPtr[iSendCounter++]);
 780              		.loc 1 348 0
 781 0018 0949     		ldr	r1, .L94+12
 782 001a 0868     		ldr	r0, [r1]
 783 001c C05C     		ldrb	r0, [r0, r3]
 784 001e 0133     		add	r3, r3, #1
 785 0020 1380     		strh	r3, [r2]
 786 0022 FFF7FEFF 		bl	Comm_Uart_0_PrintHex8
 787              	.LVL25:
 788              	.L90:
 349:.\uart_wifi.c **** 	    }
 350:.\uart_wifi.c **** 	    WifidatagramWorkFlag.flag_Uart_Work = 0;                 //置正在通信标志
 789              		.loc 1 350 0
 790 0026 074B     		ldr	r3, .L94+16
 791 0028 0821     		mov	r1, #8
 792 002a 1A78     		ldrb	r2, [r3]
 793 002c 8A43     		bic	r2, r1
 794 002e 1A70     		strb	r2, [r3]
 795              	.L88:
 351:.\uart_wifi.c **** 	  }
 352:.\uart_wifi.c ****  
 353:.\uart_wifi.c **** }
 796              		.loc 1 353 0
 797              		@ sp needed for prologue
 798 0030 08BD     		pop	{r3, pc}
 799              	.L95:
 800 0032 C046     		.align	2
 801              	.L94:
 802 0034 00000000 		.word	WorkFlag
 803 0038 00000000 		.word	iUartSendLen
 804 003c 00000000 		.word	iSendCounter
 805 0040 00000000 		.word	cpSendBufPtr
 806 0044 00000000 		.word	WifidatagramWorkFlag
 807              		.cfi_endproc
 808              	.LFE40:
 809              		.size	Uart_0_Putchar, .-Uart_0_Putchar
 810              		.section	.text.Uart_1_Putchar,"ax",%progbits
 811              		.align	1
 812              		.global	Uart_1_Putchar
 813              		.code	16
 814              		.thumb_func
ARM GAS  C:\Users\ZHANGM~1\AppData\Local\Temp\ccBCEiox.s 			page 22


 815              		.type	Uart_1_Putchar, %function
 816              	Uart_1_Putchar:
 817              	.LFB41:
 354:.\uart_wifi.c **** /**************************************************************************************************
 355:.\uart_wifi.c **** ** 函数名称: void UART_putchar(void)
 356:.\uart_wifi.c **** ** 功能描述: 从串口发送数据
 357:.\uart_wifi.c **** ** 入口参数:	无
 358:.\uart_wifi.c **** ** 出口参数:	无
 359:.\uart_wifi.c **** ***************************************************************************************************
 360:.\uart_wifi.c **** void Uart_1_Putchar(void)
 361:.\uart_wifi.c **** {
 818              		.loc 1 361 0
 819              		.cfi_startproc
 362:.\uart_wifi.c ****     if(WorkFlag.uart_1_tx!=0)  //接收非空
 363:.\uart_wifi.c ****         {
 364:.\uart_wifi.c **** //        	while(iSendCounter!=(iUartSendLen+1))
 365:.\uart_wifi.c **** //						{
 366:.\uart_wifi.c **** // 							Comm_Uart_1_PrintHex8(cpSendBufPtr[iSendCounter++]);
 367:.\uart_wifi.c **** //        		}
 368:.\uart_wifi.c ****         }
 369:.\uart_wifi.c **** }
 820              		.loc 1 369 0
 821              		@ sp needed for prologue
 822 0000 7047     		bx	lr
 823              		.cfi_endproc
 824              	.LFE41:
 825              		.size	Uart_1_Putchar, .-Uart_1_Putchar
 826              		.section	.text.SendDataToWifi,"ax",%progbits
 827              		.align	1
 828              		.global	SendDataToWifi
 829              		.code	16
 830              		.thumb_func
 831              		.type	SendDataToWifi, %function
 832              	SendDataToWifi:
 833              	.LFB42:
 370:.\uart_wifi.c **** /*
 371:.\uart_wifi.c **** ***************************************************************************************************
 372:.\uart_wifi.c **** ** 函数名称 ：SendDataToWifi()
 373:.\uart_wifi.c **** ** 函数功能 ：发送数据到WIFI模块                          
 374:.\uart_wifi.c **** ** 入口参数 ：cCtl：控制字类型 
 375:.\uart_wifi.c ****   							0x00(主动发送指令要求对方回复) 
 376:.\uart_wifi.c ****   							0x80(返回指令) 
 377:.\uart_wifi.c ****   							0x40(主动发送无需对方回复)
 378:.\uart_wifi.c ****               unsigned char  *DataBuf  数据缓存区            
 379:.\uart_wifi.c ****               unsigned int   iLength   数据长度          
 380:.\uart_wifi.c **** ** 出口参数 ：无
 381:.\uart_wifi.c **** ***************************************************************************************************
 382:.\uart_wifi.c **** */
 383:.\uart_wifi.c **** void  SendDataToWifi(uint8 cCtl,
 384:.\uart_wifi.c ****                       uint16 cCommand,
 385:.\uart_wifi.c ****                      uint8 *DataBuf,
 386:.\uart_wifi.c **** 		     							uint16 iLength)
 387:.\uart_wifi.c **** {
 834              		.loc 1 387 0
 835              		.cfi_startproc
 836              	.LVL26:
 837 0000 F7B5     		push	{r0, r1, r2, r4, r5, r6, r7, lr}
ARM GAS  C:\Users\ZHANGM~1\AppData\Local\Temp\ccBCEiox.s 			page 23


 838              	.LCFI8:
 839              		.cfi_def_cfa_offset 32
 840              		.cfi_offset 0, -32
 841              		.cfi_offset 1, -28
 842              		.cfi_offset 2, -24
 843              		.cfi_offset 4, -20
 844              		.cfi_offset 5, -16
 845              		.cfi_offset 6, -12
 846              		.cfi_offset 7, -8
 847              		.cfi_offset 14, -4
 388:.\uart_wifi.c **** 	//uint32 xxxxx;
 389:.\uart_wifi.c ****    static uint8 cBuf[WIFIBUFLEN]; ////51 has only 256 data in soc
 390:.\uart_wifi.c **** 
 391:.\uart_wifi.c **** 
 392:.\uart_wifi.c **** 	  memset(cBuf,0x00,WIFIBUFLEN);
 848              		.loc 1 392 0
 849 0002 214C     		ldr	r4, .L103
 387:.\uart_wifi.c **** {
 850              		.loc 1 387 0
 851 0004 1D1C     		mov	r5, r3
 852 0006 0F1C     		mov	r7, r1
 853 0008 061C     		mov	r6, r0
 854 000a 0192     		str	r2, [sp, #4]
 855              		.loc 1 392 0
 856 000c 0021     		mov	r1, #0
 857              	.LVL27:
 858 000e 6422     		mov	r2, #100
 859              	.LVL28:
 860 0010 201C     		mov	r0, r4
 861              	.LVL29:
 862 0012 FFF7FEFF 		bl	memset
 863              	.LVL30:
 393:.\uart_wifi.c **** 	  cBuf[0] = WIFI_SYN_0;        	     // SYNC0
 864              		.loc 1 393 0
 865 0016 FA23     		mov	r3, #250
 394:.\uart_wifi.c ****     cBuf[1] = WIFI_SYN_1;        	     // SYNC1
 866              		.loc 1 394 0
 867 0018 FB20     		mov	r0, #251
 395:.\uart_wifi.c ****     cBuf[2] = WIFI_PROTOCOL_VERSION;   //MCU_PROTOCOL_VERSION       
 396:.\uart_wifi.c ****     cBuf[3] = DATA_FRAME_EQUE_0;   //FRAME_EQUE_0       
 397:.\uart_wifi.c ****     cBuf[4]= DATA_FRAME_NUM_EQUE_0;//帧需要
 398:.\uart_wifi.c **** 	  cBuf[5] = cCtl;   	 // Wctrl
 399:.\uart_wifi.c **** 	  cBuf[6]=(cCommand)>>8;//长度0
 868              		.loc 1 399 0
 869 001a 390A     		lsr	r1, r7, #8
 400:.\uart_wifi.c **** 	  cBuf[7]=(cCommand)&0x00ff;//长度1	  cBuf[8]=(iLength)>>8;//长度0
 401:.\uart_wifi.c **** 	  cBuf[8]=(iLength)>>8;//长度0
 870              		.loc 1 401 0
 871 001c 2A0A     		lsr	r2, r5, #8
 393:.\uart_wifi.c **** 	  cBuf[0] = WIFI_SYN_0;        	     // SYNC0
 872              		.loc 1 393 0
 873 001e 2370     		strb	r3, [r4]
 394:.\uart_wifi.c ****     cBuf[1] = WIFI_SYN_1;        	     // SYNC1
 874              		.loc 1 394 0
 875 0020 6070     		strb	r0, [r4, #1]
 398:.\uart_wifi.c **** 	  cBuf[5] = cCtl;   	 // Wctrl
 876              		.loc 1 398 0
ARM GAS  C:\Users\ZHANGM~1\AppData\Local\Temp\ccBCEiox.s 			page 24


 877 0022 6671     		strb	r6, [r4, #5]
 399:.\uart_wifi.c **** 	  cBuf[6]=(cCommand)>>8;//长度0
 878              		.loc 1 399 0
 879 0024 A171     		strb	r1, [r4, #6]
 400:.\uart_wifi.c **** 	  cBuf[7]=(cCommand)&0x00ff;//长度1	  cBuf[8]=(iLength)>>8;//长度0
 880              		.loc 1 400 0
 881 0026 E771     		strb	r7, [r4, #7]
 882              		.loc 1 401 0
 883 0028 2272     		strb	r2, [r4, #8]
 402:.\uart_wifi.c **** 	  cBuf[9]=(iLength)&0x00ff;//长度1
 884              		.loc 1 402 0
 885 002a 6572     		strb	r5, [r4, #9]
 403:.\uart_wifi.c **** 	  //cBuf[iLength+10]=0x44;
 404:.\uart_wifi.c **** 	  if(cCtl==0x00)
 886              		.loc 1 404 0
 887 002c 002E     		cmp	r6, #0
 888 002e 04D1     		bne	.L98
 405:.\uart_wifi.c **** 	  	{
 406:.\uart_wifi.c **** 	  		WifidatagramWorkFlag.uart_ack=1;
 889              		.loc 1 406 0
 890 0030 164E     		ldr	r6, .L103+4
 891 0032 0420     		mov	r0, #4
 892 0034 3778     		ldrb	r7, [r6]
 893 0036 0743     		orr	r7, r0
 894 0038 05E0     		b	.L102
 895              	.L98:
 407:.\uart_wifi.c **** 	  	}
 408:.\uart_wifi.c **** 	  if(cCtl==0x80)
 896              		.loc 1 408 0
 897 003a 802E     		cmp	r6, #128
 898 003c 04D1     		bne	.L99
 409:.\uart_wifi.c **** 	  	{
 410:.\uart_wifi.c **** 	  		WifidatagramWorkFlag.uart_ack=0;
 899              		.loc 1 410 0
 900 003e 134E     		ldr	r6, .L103+4
 901 0040 0423     		mov	r3, #4
 902 0042 3778     		ldrb	r7, [r6]
 903 0044 9F43     		bic	r7, r3
 904              	.L102:
 905 0046 3770     		strb	r7, [r6]
 906              	.L99:
 411:.\uart_wifi.c **** 	  	}
 412:.\uart_wifi.c **** 	 if(iLength!=0)
 413:.\uart_wifi.c ****         {
 414:.\uart_wifi.c **** 	  	    memcpy(&cBuf[10],DataBuf,iLength);
 907              		.loc 1 414 0
 908 0048 201C     		mov	r0, r4
 412:.\uart_wifi.c **** 	 if(iLength!=0)
 909              		.loc 1 412 0
 910 004a 002D     		cmp	r5, #0
 911 004c 0DD0     		beq	.L100
 912              		.loc 1 414 0
 913 004e 2A1C     		mov	r2, r5
 914 0050 0199     		ldr	r1, [sp, #4]
 915 0052 0A30     		add	r0, r0, #10
 916 0054 FFF7FEFF 		bl	memcpy
 917              	.LVL31:
ARM GAS  C:\Users\ZHANGM~1\AppData\Local\Temp\ccBCEiox.s 			page 25


 415:.\uart_wifi.c ****             cBuf[iLength+10] = Sum_Make_Verify(&cBuf[0],10+iLength);
 918              		.loc 1 415 0
 919 0058 291C     		mov	r1, r5
 920 005a 0A31     		add	r1, r1, #10
 921 005c 89B2     		uxth	r1, r1
 922 005e 201C     		mov	r0, r4
 923 0060 FFF7FEFF 		bl	Sum_Make_Verify
 924              	.LVL32:
 925 0064 6219     		add	r2, r4, r5
 926 0066 9072     		strb	r0, [r2, #10]
 927 0068 03E0     		b	.L101
 928              	.L100:
 416:.\uart_wifi.c ****             //cBuf[iLength+10]=0x88;
 417:.\uart_wifi.c ****         }
 418:.\uart_wifi.c ****       else
 419:.\uart_wifi.c ****         {
 420:.\uart_wifi.c **** 	        cBuf[iLength+10] = Sum_Make_Verify(&cBuf[0],10);	
 929              		.loc 1 420 0
 930 006a 0A21     		mov	r1, #10
 931 006c FFF7FEFF 		bl	Sum_Make_Verify
 932              	.LVL33:
 933 0070 A072     		strb	r0, [r4, #10]
 934              	.L101:
 421:.\uart_wifi.c ****             
 422:.\uart_wifi.c ****         }
 423:.\uart_wifi.c ****        // xxxxx=cBuf[iLength+10];
 424:.\uart_wifi.c ****    // cBuf[iLength+10]=0x44;
 425:.\uart_wifi.c ****     //cBuf[iLength+10] = Sum_Make_Verify(&cBuf[0],10+iLength);    
 426:.\uart_wifi.c ****     Ack_Timer = 5;    
 935              		.loc 1 426 0
 936 0072 074F     		ldr	r7, .L103+8
 937 0074 0526     		mov	r6, #5
 938 0076 3E70     		strb	r6, [r7]
 427:.\uart_wifi.c ****     CyGlobalIntDisable;                  //应答时间设置
 939              		.loc 1 427 0
 940              	@ 427 ".\uart_wifi.c" 1
 941 0078 72B6     		CPSID   i
 942              	@ 0 "" 2
 428:.\uart_wifi.c **** 	  UART_SendData(cBuf,iLength+11);   ///The Last six 0x00 is PADDING
 943              		.loc 1 428 0
 944              		.code	16
 945 007a 0B35     		add	r5, r5, #11
 946 007c A9B2     		uxth	r1, r5
 947 007e 201C     		mov	r0, r4
 948 0080 FFF7FEFF 		bl	UART_SendData
 949              	.LVL34:
 429:.\uart_wifi.c **** 	  CyGlobalIntEnable;
 950              		.loc 1 429 0
 951              	@ 429 ".\uart_wifi.c" 1
 952 0084 62B6     		CPSIE   i
 953              	@ 0 "" 2
 430:.\uart_wifi.c **** }
 954              		.loc 1 430 0
 955              		.code	16
 956              		@ sp needed for prologue
 957 0086 F7BD     		pop	{r0, r1, r2, r4, r5, r6, r7, pc}
 958              	.L104:
ARM GAS  C:\Users\ZHANGM~1\AppData\Local\Temp\ccBCEiox.s 			page 26


 959              		.align	2
 960              	.L103:
 961 0088 00000000 		.word	.LANCHOR0
 962 008c 00000000 		.word	WifidatagramWorkFlag
 963 0090 00000000 		.word	Ack_Timer
 964              		.cfi_endproc
 965              	.LFE42:
 966              		.size	SendDataToWifi, .-SendDataToWifi
 967              		.section	.text.WifiSendAck,"ax",%progbits
 968              		.align	1
 969              		.global	WifiSendAck
 970              		.code	16
 971              		.thumb_func
 972              		.type	WifiSendAck, %function
 973              	WifiSendAck:
 974              	.LFB43:
 431:.\uart_wifi.c **** 
 432:.\uart_wifi.c **** void WifiSendAck(void)
 433:.\uart_wifi.c **** {
 975              		.loc 1 433 0
 976              		.cfi_startproc
 977 0000 08B5     		push	{r3, lr}
 978              	.LCFI9:
 979              		.cfi_def_cfa_offset 8
 980              		.cfi_offset 3, -8
 981              		.cfi_offset 14, -4
 434:.\uart_wifi.c **** 	SendDataToWifi(ACK_DATA,0x00,0,0);
 982              		.loc 1 434 0
 983 0002 0021     		mov	r1, #0
 984 0004 8020     		mov	r0, #128
 985 0006 0A1C     		mov	r2, r1
 986 0008 0B1C     		mov	r3, r1
 987 000a FFF7FEFF 		bl	SendDataToWifi
 988              	.LVL35:
 435:.\uart_wifi.c **** 
 436:.\uart_wifi.c **** }
 989              		.loc 1 436 0
 990              		@ sp needed for prologue
 991 000e 08BD     		pop	{r3, pc}
 992              		.cfi_endproc
 993              	.LFE43:
 994              		.size	WifiSendAck, .-WifiSendAck
 995              		.section	.text.Mcu_Handshake_Data,"ax",%progbits
 996              		.align	1
 997              		.global	Mcu_Handshake_Data
 998              		.code	16
 999              		.thumb_func
 1000              		.type	Mcu_Handshake_Data, %function
 1001              	Mcu_Handshake_Data:
 1002              	.LFB44:
 437:.\uart_wifi.c **** /*
 438:.\uart_wifi.c **** 	========================================================================
 439:.\uart_wifi.c **** ** 函数名称 ：JoinWIFI()
 440:.\uart_wifi.c **** ** 函数功能 ：连接WIFI模块                          
 441:.\uart_wifi.c **** ** 入口参数 ：
 442:.\uart_wifi.c **** 		    cIdx: The group Number
 443:.\uart_wifi.c **** 		    AckFlag:  1 Need wifi model send ack, 0 is not         
ARM GAS  C:\Users\ZHANGM~1\AppData\Local\Temp\ccBCEiox.s 			page 27


 444:.\uart_wifi.c **** ** 出口参数 ：无
 445:.\uart_wifi.c **** 	========================================================================
 446:.\uart_wifi.c **** */
 447:.\uart_wifi.c **** void Mcu_Handshake_Data(void)
 448:.\uart_wifi.c **** {
 1003              		.loc 1 448 0
 1004              		.cfi_startproc
 1005 0000 07B5     		push	{r0, r1, r2, lr}
 1006              	.LCFI10:
 1007              		.cfi_def_cfa_offset 16
 1008              		.cfi_offset 0, -16
 1009              		.cfi_offset 1, -12
 1010              		.cfi_offset 2, -8
 1011              		.cfi_offset 14, -4
 449:.\uart_wifi.c ****    uint8 cBuf[6];
 450:.\uart_wifi.c ****    cBuf[0]=0x20;  ////Command
 1012              		.loc 1 450 0
 1013 0002 2023     		mov	r3, #32
 1014 0004 6A46     		mov	r2, sp
 451:.\uart_wifi.c ****    cBuf[1]=0x00;
 452:.\uart_wifi.c ****    cBuf[2]=0x00;  ////Command
 453:.\uart_wifi.c ****    cBuf[3]=0x00;
 454:.\uart_wifi.c ****    cBuf[4]=0x00;  ////Command
 455:.\uart_wifi.c ****    cBuf[5]=0x14;   
 1015              		.loc 1 455 0
 1016 0006 1421     		mov	r1, #20
 451:.\uart_wifi.c ****    cBuf[1]=0x00;
 1017              		.loc 1 451 0
 1018 0008 0020     		mov	r0, #0
 450:.\uart_wifi.c ****    cBuf[0]=0x20;  ////Command
 1019              		.loc 1 450 0
 1020 000a 1370     		strb	r3, [r2]
 1021              		.loc 1 455 0
 1022 000c 5171     		strb	r1, [r2, #5]
 456:.\uart_wifi.c ****    SendDataToWifi(CTL_ACK_DATA,MCU_HANDSHAKE_DATA,cBuf,6);
 1023              		.loc 1 456 0
 1024 000e 0623     		mov	r3, #6
 1025 0010 0349     		ldr	r1, .L107
 451:.\uart_wifi.c ****    cBuf[1]=0x00;
 1026              		.loc 1 451 0
 1027 0012 5070     		strb	r0, [r2, #1]
 452:.\uart_wifi.c ****    cBuf[2]=0x00;  ////Command
 1028              		.loc 1 452 0
 1029 0014 9070     		strb	r0, [r2, #2]
 453:.\uart_wifi.c ****    cBuf[3]=0x00;
 1030              		.loc 1 453 0
 1031 0016 D070     		strb	r0, [r2, #3]
 454:.\uart_wifi.c ****    cBuf[4]=0x00;  ////Command
 1032              		.loc 1 454 0
 1033 0018 1071     		strb	r0, [r2, #4]
 457:.\uart_wifi.c **** }
 1034              		.loc 1 457 0
 1035              		@ sp needed for prologue
 456:.\uart_wifi.c ****    SendDataToWifi(CTL_ACK_DATA,MCU_HANDSHAKE_DATA,cBuf,6);
 1036              		.loc 1 456 0
 1037 001a FFF7FEFF 		bl	SendDataToWifi
 1038              	.LVL36:
ARM GAS  C:\Users\ZHANGM~1\AppData\Local\Temp\ccBCEiox.s 			page 28


 1039              		.loc 1 457 0
 1040 001e 07BD     		pop	{r0, r1, r2, pc}
 1041              	.L108:
 1042              		.align	2
 1043              	.L107:
 1044 0020 C0CC0000 		.word	52416
 1045              		.cfi_endproc
 1046              	.LFE44:
 1047              		.size	Mcu_Handshake_Data, .-Mcu_Handshake_Data
 1048              		.section	.text.App_Host_State,"ax",%progbits
 1049              		.align	1
 1050              		.global	App_Host_State
 1051              		.code	16
 1052              		.thumb_func
 1053              		.type	App_Host_State, %function
 1054              	App_Host_State:
 1055              	.LFB45:
 458:.\uart_wifi.c **** /*
 459:.\uart_wifi.c **** 	========================================================================
 460:.\uart_wifi.c **** ** 函数名称 APP_HOST_STATE()
 461:.\uart_wifi.c **** ** 函数功能 ：连接WIFI模块                          
 462:.\uart_wifi.c **** ** 入口参数 ：         
 463:.\uart_wifi.c **** ** 出口参数 ：无
 464:.\uart_wifi.c **** 	========================================================================
 465:.\uart_wifi.c **** */
 466:.\uart_wifi.c **** //void App_Host_State(void)
 467:.\uart_wifi.c **** //{
 468:.\uart_wifi.c **** //uint8 cBuf[16];
 469:.\uart_wifi.c **** //cBuf[0]=0x00;  
 470:.\uart_wifi.c **** //cBuf[1]=0x00;//ok
 471:.\uart_wifi.c **** //cBuf[2]=Work_State.all; //01待机 02制水中 03制水完成 04 冲洗
 472:.\uart_wifi.c **** //cBuf[3]=0x06; 	//滤芯级数	1	U8 (总级数)
 473:.\uart_wifi.c **** //cBuf[4]=Error_Counter;   
 474:.\uart_wifi.c **** //cBuf[5]=LianXuJiShi/600;  //工作状态	1	U8 见注2
 475:.\uart_wifi.c **** //cBuf[6]=jingshuiliang; //总净水量	2	U16(现在总净水量)
 476:.\uart_wifi.c **** //cBuf[7]=(jingshuiliang>>8); 
 477:.\uart_wifi.c **** //cBuf[8]=Value_Tds0; //TDS(原水)	2	U16(实际TDS值)
 478:.\uart_wifi.c **** //cBuf[9]=(Value_Tds0>>8);
 479:.\uart_wifi.c **** //cBuf[10]=Value_Tds1; //TDS(净水)	2	U16(实际TDS值)
 480:.\uart_wifi.c **** //cBuf[11]=(Value_Tds1>>8); 
 481:.\uart_wifi.c **** //cBuf[12]=Value_T; //温度	1	U8(实际温度值 
 482:.\uart_wifi.c **** //cBuf[13]=Value_Loushui_Ad; //漏水	2	U16(实际AD值)
 483:.\uart_wifi.c **** //cBuf[14]=(Value_Loushui_Ad>>8); 
 484:.\uart_wifi.c **** //cBuf[15]=Switch_Data.all; //高、低压开关状态	1	U8 见注    
 485:.\uart_wifi.c **** //SendDataToWifi(ACK_DATA,APP_HOST_STATE,cBuf,16);
 486:.\uart_wifi.c **** //}
 487:.\uart_wifi.c **** void App_Host_State(void)//debug
 488:.\uart_wifi.c **** {
 1056              		.loc 1 488 0
 1057              		.cfi_startproc
 1058 0000 1FB5     		push	{r0, r1, r2, r3, r4, lr}
 1059              	.LCFI11:
 1060              		.cfi_def_cfa_offset 24
 1061              		.cfi_offset 0, -24
 1062              		.cfi_offset 1, -20
 1063              		.cfi_offset 2, -16
 1064              		.cfi_offset 3, -12
ARM GAS  C:\Users\ZHANGM~1\AppData\Local\Temp\ccBCEiox.s 			page 29


 1065              		.cfi_offset 4, -8
 1066              		.cfi_offset 14, -4
 489:.\uart_wifi.c **** uint8 cBuf[16];
 490:.\uart_wifi.c **** cBuf[0]=0x00;  
 1067              		.loc 1 490 0
 1068 0002 0023     		mov	r3, #0
 1069 0004 6846     		mov	r0, sp
 491:.\uart_wifi.c **** cBuf[1]=0x00;//ok
 492:.\uart_wifi.c **** cBuf[2]=Work_State.all; //01待机 02制水中 03制水完成 04 冲洗
 1070              		.loc 1 492 0
 1071 0006 134A     		ldr	r2, .L110
 490:.\uart_wifi.c **** cBuf[0]=0x00;  
 1072              		.loc 1 490 0
 1073 0008 0370     		strb	r3, [r0]
 491:.\uart_wifi.c **** cBuf[1]=0x00;//ok
 1074              		.loc 1 491 0
 1075 000a 4370     		strb	r3, [r0, #1]
 1076              		.loc 1 492 0
 1077 000c 1188     		ldrh	r1, [r2]
 493:.\uart_wifi.c **** cBuf[3]=0x06; 	//滤芯级数	1	U8 (总级数)
 1078              		.loc 1 493 0
 1079 000e 0622     		mov	r2, #6
 492:.\uart_wifi.c **** cBuf[2]=Work_State.all; //01待机 02制水中 03制水完成 04 冲洗
 1080              		.loc 1 492 0
 1081 0010 8170     		strb	r1, [r0, #2]
 494:.\uart_wifi.c **** cBuf[4]=Error_Counter;   
 1082              		.loc 1 494 0
 1083 0012 1149     		ldr	r1, .L110+4
 493:.\uart_wifi.c **** cBuf[3]=0x06; 	//滤芯级数	1	U8 (总级数)
 1084              		.loc 1 493 0
 1085 0014 C270     		strb	r2, [r0, #3]
 1086              		.loc 1 494 0
 1087 0016 0A78     		ldrb	r2, [r1]
 495:.\uart_wifi.c **** cBuf[5]=60;  //工作状态	1	U8 见注2
 1088              		.loc 1 495 0
 1089 0018 3C21     		mov	r1, #60
 494:.\uart_wifi.c **** cBuf[4]=Error_Counter;   
 1090              		.loc 1 494 0
 1091 001a 0271     		strb	r2, [r0, #4]
 1092              		.loc 1 495 0
 1093 001c 4171     		strb	r1, [r0, #5]
 496:.\uart_wifi.c **** cBuf[6]=500; //总净水量	2	U16(现在总净水量)
 1094              		.loc 1 496 0
 1095 001e F422     		mov	r2, #244
 497:.\uart_wifi.c **** cBuf[7]=(500>>8); 
 1096              		.loc 1 497 0
 1097 0020 0121     		mov	r1, #1
 496:.\uart_wifi.c **** cBuf[6]=500; //总净水量	2	U16(现在总净水量)
 1098              		.loc 1 496 0
 1099 0022 8271     		strb	r2, [r0, #6]
 1100              		.loc 1 497 0
 1101 0024 C171     		strb	r1, [r0, #7]
 498:.\uart_wifi.c **** cBuf[8]=1000; //TDS(原水)	1000
 1102              		.loc 1 498 0
 1103 0026 E822     		mov	r2, #232
 499:.\uart_wifi.c **** cBuf[9]=(1000>>8);
 1104              		.loc 1 499 0
ARM GAS  C:\Users\ZHANGM~1\AppData\Local\Temp\ccBCEiox.s 			page 30


 1105 0028 0321     		mov	r1, #3
 498:.\uart_wifi.c **** cBuf[8]=1000; //TDS(原水)	1000
 1106              		.loc 1 498 0
 1107 002a 0272     		strb	r2, [r0, #8]
 1108              		.loc 1 499 0
 1109 002c 4172     		strb	r1, [r0, #9]
 500:.\uart_wifi.c **** cBuf[10]=100; //TDS(净水)	2	U16(实际TDS值)
 501:.\uart_wifi.c **** cBuf[11]=(100>>8); 
 1110              		.loc 1 501 0
 1111 002e C372     		strb	r3, [r0, #11]
 502:.\uart_wifi.c **** cBuf[12]=25; //温度	1	U8(实际温度值 
 503:.\uart_wifi.c **** cBuf[13]=100; //漏水	2	U16(实际AD值)
 504:.\uart_wifi.c **** cBuf[14]=(100>>8); 
 1112              		.loc 1 504 0
 1113 0030 8373     		strb	r3, [r0, #14]
 500:.\uart_wifi.c **** cBuf[10]=100; //TDS(净水)	2	U16(实际TDS值)
 1114              		.loc 1 500 0
 1115 0032 6422     		mov	r2, #100
 505:.\uart_wifi.c **** cBuf[15]=Switch_Data.all; //高、低压开关状态	1	U8 见注    
 1116              		.loc 1 505 0
 1117 0034 094B     		ldr	r3, .L110+8
 502:.\uart_wifi.c **** cBuf[12]=25; //温度	1	U8(实际温度值 
 1118              		.loc 1 502 0
 1119 0036 1921     		mov	r1, #25
 1120 0038 0173     		strb	r1, [r0, #12]
 500:.\uart_wifi.c **** cBuf[10]=100; //TDS(净水)	2	U16(实际TDS值)
 1121              		.loc 1 500 0
 1122 003a 8272     		strb	r2, [r0, #10]
 503:.\uart_wifi.c **** cBuf[13]=100; //漏水	2	U16(实际AD值)
 1123              		.loc 1 503 0
 1124 003c 4273     		strb	r2, [r0, #13]
 1125              		.loc 1 505 0
 1126 003e 1A88     		ldrh	r2, [r3]
 506:.\uart_wifi.c **** SendDataToWifi(ACK_DATA,APP_HOST_STATE,cBuf,16);
 1127              		.loc 1 506 0
 1128 0040 B221     		mov	r1, #178
 505:.\uart_wifi.c **** cBuf[15]=Switch_Data.all; //高、低压开关状态	1	U8 见注    
 1129              		.loc 1 505 0
 1130 0042 C273     		strb	r2, [r0, #15]
 1131              		.loc 1 506 0
 1132 0044 1023     		mov	r3, #16
 1133 0046 8020     		mov	r0, #128
 1134 0048 6A46     		mov	r2, sp
 1135 004a FFF7FEFF 		bl	SendDataToWifi
 1136              	.LVL37:
 507:.\uart_wifi.c **** }
 1137              		.loc 1 507 0
 1138 004e 05B0     		add	sp, sp, #20
 1139              		@ sp needed for prologue
 1140 0050 00BD     		pop	{pc}
 1141              	.L111:
 1142 0052 C046     		.align	2
 1143              	.L110:
 1144 0054 00000000 		.word	Work_State
 1145 0058 00000000 		.word	Error_Counter
 1146 005c 00000000 		.word	Switch_Data
 1147              		.cfi_endproc
ARM GAS  C:\Users\ZHANGM~1\AppData\Local\Temp\ccBCEiox.s 			page 31


 1148              	.LFE45:
 1149              		.size	App_Host_State, .-App_Host_State
 1150              		.section	.text.App_Filter_Changed_Data,"ax",%progbits
 1151              		.align	1
 1152              		.global	App_Filter_Changed_Data
 1153              		.code	16
 1154              		.thumb_func
 1155              		.type	App_Filter_Changed_Data, %function
 1156              	App_Filter_Changed_Data:
 1157              	.LFB46:
 508:.\uart_wifi.c **** //void App_Filter_Changed_Data(void)
 509:.\uart_wifi.c **** //{
 510:.\uart_wifi.c **** //	uint8 cBuf[8];
 511:.\uart_wifi.c **** //	cBuf[0]=0x00;  
 512:.\uart_wifi.c **** //	cBuf[1]=0x00;//ok
 513:.\uart_wifi.c **** //	cBuf[2]=Filter_Changed_Num[0]; 
 514:.\uart_wifi.c **** //	cBuf[3]=Filter_Changed_Num[1]; 	
 515:.\uart_wifi.c **** //	cBuf[4]=Filter_Changed_Num[2];   
 516:.\uart_wifi.c **** //	cBuf[5]=Filter_Changed_Num[3];  
 517:.\uart_wifi.c **** //	cBuf[6]=Filter_Changed_Num[4]; 
 518:.\uart_wifi.c **** //	cBuf[7]=Filter_Changed_Num[5]; 
 519:.\uart_wifi.c **** //	SendDataToWifi(ACK_DATA,APP_FILTER_CHANGED_DATA,cBuf,8);
 520:.\uart_wifi.c **** //}
 521:.\uart_wifi.c **** void App_Filter_Changed_Data(void)//debug
 522:.\uart_wifi.c **** {
 1158              		.loc 1 522 0
 1159              		.cfi_startproc
 1160 0000 07B5     		push	{r0, r1, r2, lr}
 1161              	.LCFI12:
 1162              		.cfi_def_cfa_offset 16
 1163              		.cfi_offset 0, -16
 1164              		.cfi_offset 1, -12
 1165              		.cfi_offset 2, -8
 1166              		.cfi_offset 14, -4
 523:.\uart_wifi.c **** 	uint8 cBuf[8];
 524:.\uart_wifi.c **** 	cBuf[0]=0x00;  
 1167              		.loc 1 524 0
 1168 0002 0023     		mov	r3, #0
 1169 0004 6A46     		mov	r2, sp
 1170 0006 1370     		strb	r3, [r2]
 525:.\uart_wifi.c **** 	cBuf[1]=0x00;//ok
 1171              		.loc 1 525 0
 1172 0008 5370     		strb	r3, [r2, #1]
 526:.\uart_wifi.c **** 	cBuf[2]=1; 
 1173              		.loc 1 526 0
 1174 000a 0120     		mov	r0, #1
 527:.\uart_wifi.c **** 	cBuf[3]=2; 	
 1175              		.loc 1 527 0
 1176 000c 0221     		mov	r1, #2
 528:.\uart_wifi.c **** 	cBuf[4]=3;   
 1177              		.loc 1 528 0
 1178 000e 0323     		mov	r3, #3
 526:.\uart_wifi.c **** 	cBuf[2]=1; 
 1179              		.loc 1 526 0
 1180 0010 9070     		strb	r0, [r2, #2]
 527:.\uart_wifi.c **** 	cBuf[3]=2; 	
 1181              		.loc 1 527 0
ARM GAS  C:\Users\ZHANGM~1\AppData\Local\Temp\ccBCEiox.s 			page 32


 1182 0012 D170     		strb	r1, [r2, #3]
 1183              		.loc 1 528 0
 1184 0014 1371     		strb	r3, [r2, #4]
 529:.\uart_wifi.c **** 	cBuf[5]=4;  
 1185              		.loc 1 529 0
 1186 0016 0420     		mov	r0, #4
 530:.\uart_wifi.c **** 	cBuf[6]=5; 
 1187              		.loc 1 530 0
 1188 0018 0521     		mov	r1, #5
 531:.\uart_wifi.c **** 	cBuf[7]=6; 
 1189              		.loc 1 531 0
 1190 001a 0623     		mov	r3, #6
 529:.\uart_wifi.c **** 	cBuf[5]=4;  
 1191              		.loc 1 529 0
 1192 001c 5071     		strb	r0, [r2, #5]
 530:.\uart_wifi.c **** 	cBuf[6]=5; 
 1193              		.loc 1 530 0
 1194 001e 9171     		strb	r1, [r2, #6]
 1195              		.loc 1 531 0
 1196 0020 D371     		strb	r3, [r2, #7]
 532:.\uart_wifi.c **** 	SendDataToWifi(ACK_DATA,APP_FILTER_CHANGED_DATA,cBuf,8);
 1197              		.loc 1 532 0
 1198 0022 8020     		mov	r0, #128
 1199 0024 B521     		mov	r1, #181
 1200 0026 0823     		mov	r3, #8
 1201 0028 FFF7FEFF 		bl	SendDataToWifi
 1202              	.LVL38:
 533:.\uart_wifi.c **** }
 1203              		.loc 1 533 0
 1204              		@ sp needed for prologue
 1205 002c 07BD     		pop	{r0, r1, r2, pc}
 1206              		.cfi_endproc
 1207              	.LFE46:
 1208              		.size	App_Filter_Changed_Data, .-App_Filter_Changed_Data
 1209              		.section	.text.App_Error_Data,"ax",%progbits
 1210              		.align	1
 1211              		.global	App_Error_Data
 1212              		.code	16
 1213              		.thumb_func
 1214              		.type	App_Error_Data, %function
 1215              	App_Error_Data:
 1216              	.LFB47:
 534:.\uart_wifi.c **** void App_Error_Data(void)
 535:.\uart_wifi.c **** {
 1217              		.loc 1 535 0
 1218              		.cfi_startproc
 1219 0000 10B5     		push	{r4, lr}
 1220              	.LCFI13:
 1221              		.cfi_def_cfa_offset 8
 1222              		.cfi_offset 4, -8
 1223              		.cfi_offset 14, -4
 536:.\uart_wifi.c **** 	uint8 cBuf[21];
 537:.\uart_wifi.c **** 	cBuf[0]=0x00;  
 538:.\uart_wifi.c **** 	cBuf[1]=0x00;//ok
 539:.\uart_wifi.c **** 	cBuf[2]=Error_Counter;
 1224              		.loc 1 539 0
 1225 0002 0B48     		ldr	r0, .L114
ARM GAS  C:\Users\ZHANGM~1\AppData\Local\Temp\ccBCEiox.s 			page 33


 535:.\uart_wifi.c **** {
 1226              		.loc 1 535 0
 1227 0004 86B0     		sub	sp, sp, #24
 1228              	.LCFI14:
 1229              		.cfi_def_cfa_offset 32
 1230              		.loc 1 539 0
 1231 0006 0478     		ldrb	r4, [r0]
 537:.\uart_wifi.c **** 	cBuf[0]=0x00;  
 1232              		.loc 1 537 0
 1233 0008 6A46     		mov	r2, sp
 1234 000a 0023     		mov	r3, #0
 1235              		.loc 1 539 0
 1236 000c 9470     		strb	r4, [r2, #2]
 540:.\uart_wifi.c **** 	memcpy(&cBuf[3],Error_Data_Buf,Error_Counter*2);	
 1237              		.loc 1 540 0
 1238 000e 6846     		mov	r0, sp
 1239 0010 6400     		lsl	r4, r4, #1
 537:.\uart_wifi.c **** 	cBuf[0]=0x00;  
 1240              		.loc 1 537 0
 1241 0012 1370     		strb	r3, [r2]
 538:.\uart_wifi.c **** 	cBuf[1]=0x00;//ok
 1242              		.loc 1 538 0
 1243 0014 5370     		strb	r3, [r2, #1]
 1244              		.loc 1 540 0
 1245 0016 0749     		ldr	r1, .L114+4
 1246 0018 221C     		mov	r2, r4
 1247 001a 0330     		add	r0, r0, #3
 1248 001c FFF7FEFF 		bl	memcpy
 1249              	.LVL39:
 541:.\uart_wifi.c **** 	SendDataToWifi(ACK_DATA,APP_ERROR_DATA,cBuf,Error_Counter*2+3);
 1250              		.loc 1 541 0
 1251 0020 E31C     		add	r3, r4, #3
 1252 0022 8020     		mov	r0, #128
 1253 0024 B421     		mov	r1, #180
 1254 0026 6A46     		mov	r2, sp
 1255 0028 FFF7FEFF 		bl	SendDataToWifi
 1256              	.LVL40:
 542:.\uart_wifi.c **** }
 1257              		.loc 1 542 0
 1258 002c 06B0     		add	sp, sp, #24
 1259              		@ sp needed for prologue
 1260 002e 10BD     		pop	{r4, pc}
 1261              	.L115:
 1262              		.align	2
 1263              	.L114:
 1264 0030 00000000 		.word	Error_Counter
 1265 0034 00000000 		.word	Error_Data_Buf
 1266              		.cfi_endproc
 1267              	.LFE47:
 1268              		.size	App_Error_Data, .-App_Error_Data
 1269              		.section	.text.App_Filter_Used_Time_Data,"ax",%progbits
 1270              		.align	1
 1271              		.global	App_Filter_Used_Time_Data
 1272              		.code	16
 1273              		.thumb_func
 1274              		.type	App_Filter_Used_Time_Data, %function
 1275              	App_Filter_Used_Time_Data:
ARM GAS  C:\Users\ZHANGM~1\AppData\Local\Temp\ccBCEiox.s 			page 34


 1276              	.LFB48:
 543:.\uart_wifi.c **** //void App_Filter_Used_Time_Data(void)
 544:.\uart_wifi.c **** //{
 545:.\uart_wifi.c **** //	uint8 cBuf[15];
 546:.\uart_wifi.c **** //	cBuf[0]=0x00;  
 547:.\uart_wifi.c **** //	cBuf[1]=0x00;//ok
 548:.\uart_wifi.c **** //	cBuf[2]=0x06;  	//滤芯级数
 549:.\uart_wifi.c **** //	cBuf[3]=LvxinJishi[0];  	//滤芯数据0	2	U16(实际滤芯使用时间值)
 550:.\uart_wifi.c **** //	cBuf[4]=(LvxinJishi[0]>>8);
 551:.\uart_wifi.c **** //	cBuf[5]=LvxinJishi[1];  	//滤芯数据0	2	U16(实际滤芯使用时间值)
 552:.\uart_wifi.c **** //	cBuf[6]=(LvxinJishi[1]>>8);
 553:.\uart_wifi.c **** //	cBuf[7]=LvxinJishi[2];  	//滤芯数据0	2	U16(实际滤芯使用时间值)
 554:.\uart_wifi.c **** //	cBuf[8]=(LvxinJishi[2]>>8);
 555:.\uart_wifi.c **** //	cBuf[9]=LvxinJishi[3];  	//滤芯数据0	2	U16(实际滤芯使用时间值)
 556:.\uart_wifi.c **** //	cBuf[10]=(LvxinJishi[3]>>8); 
 557:.\uart_wifi.c **** //	cBuf[11]=LvxinJishi[4];  	//滤芯数据0	2	U16(实际滤芯使用时间值)
 558:.\uart_wifi.c **** //	cBuf[12]=(LvxinJishi[4]>>8); 
 559:.\uart_wifi.c **** //	cBuf[13]=LvxinJishi[5];  	//滤芯数据0	2	U16(实际滤芯使用时间值)
 560:.\uart_wifi.c **** //	cBuf[14]=(LvxinJishi[5]>>8); 
 561:.\uart_wifi.c **** //	SendDataToWifi(ACK_DATA,APP_FILTER_CHANGED_DATA,cBuf,15);
 562:.\uart_wifi.c **** //}
 563:.\uart_wifi.c **** void App_Filter_Used_Time_Data(void)
 564:.\uart_wifi.c **** {
 1277              		.loc 1 564 0
 1278              		.cfi_startproc
 1279 0000 1FB5     		push	{r0, r1, r2, r3, r4, lr}
 1280              	.LCFI15:
 1281              		.cfi_def_cfa_offset 24
 1282              		.cfi_offset 0, -24
 1283              		.cfi_offset 1, -20
 1284              		.cfi_offset 2, -16
 1285              		.cfi_offset 3, -12
 1286              		.cfi_offset 4, -8
 1287              		.cfi_offset 14, -4
 565:.\uart_wifi.c **** 	uint8 cBuf[15];
 566:.\uart_wifi.c **** 	cBuf[0]=0x00;  
 1288              		.loc 1 566 0
 1289 0002 0023     		mov	r3, #0
 1290 0004 6946     		mov	r1, sp
 567:.\uart_wifi.c **** 	cBuf[1]=0x00;//ok
 568:.\uart_wifi.c **** 	cBuf[2]=0x06;  	//滤芯级数
 569:.\uart_wifi.c **** 	cBuf[3]=500;  	//滤芯数据0	2	U16(实际滤芯使用时间值)
 1291              		.loc 1 569 0
 1292 0006 F422     		mov	r2, #244
 566:.\uart_wifi.c **** 	cBuf[0]=0x00;  
 1293              		.loc 1 566 0
 1294 0008 0B70     		strb	r3, [r1]
 567:.\uart_wifi.c **** 	cBuf[1]=0x00;//ok
 1295              		.loc 1 567 0
 1296 000a 4B70     		strb	r3, [r1, #1]
 568:.\uart_wifi.c **** 	cBuf[2]=0x06;  	//滤芯级数
 1297              		.loc 1 568 0
 1298 000c 0620     		mov	r0, #6
 570:.\uart_wifi.c **** 	cBuf[4]=(500>>8);
 1299              		.loc 1 570 0
 1300 000e 0123     		mov	r3, #1
 568:.\uart_wifi.c **** 	cBuf[2]=0x06;  	//滤芯级数
ARM GAS  C:\Users\ZHANGM~1\AppData\Local\Temp\ccBCEiox.s 			page 35


 1301              		.loc 1 568 0
 1302 0010 8870     		strb	r0, [r1, #2]
 569:.\uart_wifi.c **** 	cBuf[3]=500;  	//滤芯数据0	2	U16(实际滤芯使用时间值)
 1303              		.loc 1 569 0
 1304 0012 CA70     		strb	r2, [r1, #3]
 1305              		.loc 1 570 0
 1306 0014 0B71     		strb	r3, [r1, #4]
 571:.\uart_wifi.c **** 	cBuf[5]=500;  	//滤芯数据0	2	U16(实际滤芯使用时间值)
 1307              		.loc 1 571 0
 1308 0016 4A71     		strb	r2, [r1, #5]
 572:.\uart_wifi.c **** 	cBuf[6]=(500>>8);
 1309              		.loc 1 572 0
 1310 0018 8B71     		strb	r3, [r1, #6]
 573:.\uart_wifi.c **** 	cBuf[7]=500;  	//滤芯数据0	2	U16(实际滤芯使用时间值)
 1311              		.loc 1 573 0
 1312 001a CA71     		strb	r2, [r1, #7]
 574:.\uart_wifi.c **** 	cBuf[8]=(500>>8);
 1313              		.loc 1 574 0
 1314 001c 0B72     		strb	r3, [r1, #8]
 575:.\uart_wifi.c **** 	cBuf[9]=500;  	//滤芯数据0	2	U16(实际滤芯使用时间值)
 1315              		.loc 1 575 0
 1316 001e 4A72     		strb	r2, [r1, #9]
 576:.\uart_wifi.c **** 	cBuf[10]=(500>>8); 
 1317              		.loc 1 576 0
 1318 0020 8B72     		strb	r3, [r1, #10]
 577:.\uart_wifi.c **** 	cBuf[11]=500;  	//滤芯数据0	2	U16(实际滤芯使用时间值)
 1319              		.loc 1 577 0
 1320 0022 CA72     		strb	r2, [r1, #11]
 578:.\uart_wifi.c **** 	cBuf[12]=(500>>8); 
 1321              		.loc 1 578 0
 1322 0024 0B73     		strb	r3, [r1, #12]
 579:.\uart_wifi.c **** 	cBuf[13]=500;  	//滤芯数据0	2	U16(实际滤芯使用时间值)
 1323              		.loc 1 579 0
 1324 0026 4A73     		strb	r2, [r1, #13]
 580:.\uart_wifi.c **** 	cBuf[14]=(500>>8); 
 1325              		.loc 1 580 0
 1326 0028 8B73     		strb	r3, [r1, #14]
 581:.\uart_wifi.c **** 	SendDataToWifi(ACK_DATA,APP_FILTER_CHANGED_DATA,cBuf,15);
 1327              		.loc 1 581 0
 1328 002a 8020     		mov	r0, #128
 1329 002c B521     		mov	r1, #181
 1330 002e 6A46     		mov	r2, sp
 1331 0030 0F23     		mov	r3, #15
 1332 0032 FFF7FEFF 		bl	SendDataToWifi
 1333              	.LVL41:
 582:.\uart_wifi.c **** }
 1334              		.loc 1 582 0
 1335 0036 05B0     		add	sp, sp, #20
 1336              		@ sp needed for prologue
 1337 0038 00BD     		pop	{pc}
 1338              		.cfi_endproc
 1339              	.LFE48:
 1340              		.size	App_Filter_Used_Time_Data, .-App_Filter_Used_Time_Data
 1341              		.section	.text.Wifi_Senddingstate_Data,"ax",%progbits
 1342              		.align	1
 1343              		.global	Wifi_Senddingstate_Data
 1344              		.code	16
ARM GAS  C:\Users\ZHANGM~1\AppData\Local\Temp\ccBCEiox.s 			page 36


 1345              		.thumb_func
 1346              		.type	Wifi_Senddingstate_Data, %function
 1347              	Wifi_Senddingstate_Data:
 1348              	.LFB49:
 583:.\uart_wifi.c **** void Wifi_Senddingstate_Data(void)
 584:.\uart_wifi.c **** {
 1349              		.loc 1 584 0
 1350              		.cfi_startproc
 1351 0000 07B5     		push	{r0, r1, r2, lr}
 1352              	.LCFI16:
 1353              		.cfi_def_cfa_offset 16
 1354              		.cfi_offset 0, -16
 1355              		.cfi_offset 1, -12
 1356              		.cfi_offset 2, -8
 1357              		.cfi_offset 14, -4
 585:.\uart_wifi.c **** 	uint8 cBuf[2];
 586:.\uart_wifi.c **** 	cBuf[0]=0x00;
 1358              		.loc 1 586 0
 1359 0002 0023     		mov	r3, #0
 1360 0004 01AA     		add	r2, sp, #4
 1361 0006 1370     		strb	r3, [r2]
 587:.\uart_wifi.c **** 	cBuf[1]=0x00;
 1362              		.loc 1 587 0
 1363 0008 5370     		strb	r3, [r2, #1]
 588:.\uart_wifi.c **** 	SendDataToWifi(ACK_DATA,WIFI_SENDDINGSTATE_DATA,cBuf,2);
 1364              		.loc 1 588 0
 1365 000a 8020     		mov	r0, #128
 1366 000c 0249     		ldr	r1, .L118
 1367 000e 0223     		mov	r3, #2
 1368 0010 FFF7FEFF 		bl	SendDataToWifi
 1369              	.LVL42:
 589:.\uart_wifi.c **** }
 1370              		.loc 1 589 0
 1371              		@ sp needed for prologue
 1372 0014 07BD     		pop	{r0, r1, r2, pc}
 1373              	.L119:
 1374 0016 C046     		.align	2
 1375              	.L118:
 1376 0018 D0CC0000 		.word	52432
 1377              		.cfi_endproc
 1378              	.LFE49:
 1379              		.size	Wifi_Senddingstate_Data, .-Wifi_Senddingstate_Data
 1380              		.section	.text.App_Search_Filter_Manage_Num,"ax",%progbits
 1381              		.align	1
 1382              		.global	App_Search_Filter_Manage_Num
 1383              		.code	16
 1384              		.thumb_func
 1385              		.type	App_Search_Filter_Manage_Num, %function
 1386              	App_Search_Filter_Manage_Num:
 1387              	.LFB50:
 590:.\uart_wifi.c **** /*
 591:.\uart_wifi.c **** 	========================================================================
 592:.\uart_wifi.c **** ** 函数名称 APP_HOST_STATE()
 593:.\uart_wifi.c **** ** 函数功能 ：连接WIFI模块                          
 594:.\uart_wifi.c **** ** 入口参数 ：         
 595:.\uart_wifi.c **** ** 出口参数 ：无
 596:.\uart_wifi.c **** 	========================================================================
ARM GAS  C:\Users\ZHANGM~1\AppData\Local\Temp\ccBCEiox.s 			page 37


 597:.\uart_wifi.c **** */
 598:.\uart_wifi.c **** void App_Search_Filter_Manage_Num(void)
 599:.\uart_wifi.c **** {
 1388              		.loc 1 599 0
 1389              		.cfi_startproc
 1390 0000 07B5     		push	{r0, r1, r2, lr}
 1391              	.LCFI17:
 1392              		.cfi_def_cfa_offset 16
 1393              		.cfi_offset 0, -16
 1394              		.cfi_offset 1, -12
 1395              		.cfi_offset 2, -8
 1396              		.cfi_offset 14, -4
 600:.\uart_wifi.c **** 	uint8 cBuf[3];
 601:.\uart_wifi.c **** 	cBuf[0]=0x00;  
 602:.\uart_wifi.c **** 	cBuf[1]=0x00;//ok
 603:.\uart_wifi.c **** 	cBuf[2]=NBfig;
 1397              		.loc 1 603 0
 1398 0002 0648     		ldr	r0, .L121
 601:.\uart_wifi.c **** 	cBuf[0]=0x00;  
 1399              		.loc 1 601 0
 1400 0004 01AA     		add	r2, sp, #4
 1401              		.loc 1 603 0
 1402 0006 0178     		ldrb	r1, [r0]
 601:.\uart_wifi.c **** 	cBuf[0]=0x00;  
 1403              		.loc 1 601 0
 1404 0008 0023     		mov	r3, #0
 1405 000a 1370     		strb	r3, [r2]
 602:.\uart_wifi.c **** 	cBuf[1]=0x00;//ok
 1406              		.loc 1 602 0
 1407 000c 5370     		strb	r3, [r2, #1]
 1408              		.loc 1 603 0
 1409 000e 9170     		strb	r1, [r2, #2]
 604:.\uart_wifi.c **** 	SendDataToWifi(ACK_DATA,APP_SEARCH_FILTER_MANAGE_NUM,cBuf,3);
 1410              		.loc 1 604 0
 1411 0010 8020     		mov	r0, #128
 1412 0012 B121     		mov	r1, #177
 1413 0014 0323     		mov	r3, #3
 1414 0016 FFF7FEFF 		bl	SendDataToWifi
 1415              	.LVL43:
 605:.\uart_wifi.c **** }
 1416              		.loc 1 605 0
 1417              		@ sp needed for prologue
 1418 001a 07BD     		pop	{r0, r1, r2, pc}
 1419              	.L122:
 1420              		.align	2
 1421              	.L121:
 1422 001c 00000000 		.word	NBfig
 1423              		.cfi_endproc
 1424              	.LFE50:
 1425              		.size	App_Search_Filter_Manage_Num, .-App_Search_Filter_Manage_Num
 1426              		.section	.text.App_Download_Filter_Manage_Num,"ax",%progbits
 1427              		.align	1
 1428              		.global	App_Download_Filter_Manage_Num
 1429              		.code	16
 1430              		.thumb_func
 1431              		.type	App_Download_Filter_Manage_Num, %function
 1432              	App_Download_Filter_Manage_Num:
ARM GAS  C:\Users\ZHANGM~1\AppData\Local\Temp\ccBCEiox.s 			page 38


 1433              	.LFB51:
 606:.\uart_wifi.c **** /*
 607:.\uart_wifi.c **** 	========================================================================
 608:.\uart_wifi.c **** ** 函数名称 App_Download_Filter_Manage_Num()
 609:.\uart_wifi.c **** ** 函数功能 ：连接WIFI模块                          
 610:.\uart_wifi.c **** ** 入口参数 ：         
 611:.\uart_wifi.c **** ** 出口参数 ：无
 612:.\uart_wifi.c **** 	========================================================================
 613:.\uart_wifi.c **** */
 614:.\uart_wifi.c **** void App_Download_Filter_Manage_Num(void)
 615:.\uart_wifi.c **** {
 1434              		.loc 1 615 0
 1435              		.cfi_startproc
 1436 0000 07B5     		push	{r0, r1, r2, lr}
 1437              	.LCFI18:
 1438              		.cfi_def_cfa_offset 16
 1439              		.cfi_offset 0, -16
 1440              		.cfi_offset 1, -12
 1441              		.cfi_offset 2, -8
 1442              		.cfi_offset 14, -4
 616:.\uart_wifi.c **** 	uint8 cBuf[2];
 617:.\uart_wifi.c **** 	cBuf[0]=0x00;
 1443              		.loc 1 617 0
 1444 0002 0023     		mov	r3, #0
 1445 0004 01AA     		add	r2, sp, #4
 1446 0006 1370     		strb	r3, [r2]
 618:.\uart_wifi.c **** 	cBuf[1]=0x00;
 1447              		.loc 1 618 0
 1448 0008 5370     		strb	r3, [r2, #1]
 619:.\uart_wifi.c **** 	SendDataToWifi(ACK_DATA,APP_DOWNLOAD_FILTER_MANAGE_NUM,cBuf,2);
 1449              		.loc 1 619 0
 1450 000a 8020     		mov	r0, #128
 1451 000c A221     		mov	r1, #162
 1452 000e 0223     		mov	r3, #2
 1453 0010 FFF7FEFF 		bl	SendDataToWifi
 1454              	.LVL44:
 620:.\uart_wifi.c **** }
 1455              		.loc 1 620 0
 1456              		@ sp needed for prologue
 1457 0014 07BD     		pop	{r0, r1, r2, pc}
 1458              		.cfi_endproc
 1459              	.LFE51:
 1460              		.size	App_Download_Filter_Manage_Num, .-App_Download_Filter_Manage_Num
 1461              		.section	.text.App_Poweron,"ax",%progbits
 1462              		.align	1
 1463              		.global	App_Poweron
 1464              		.code	16
 1465              		.thumb_func
 1466              		.type	App_Poweron, %function
 1467              	App_Poweron:
 1468              	.LFB52:
 621:.\uart_wifi.c **** /*
 622:.\uart_wifi.c **** 	========================================================================
 623:.\uart_wifi.c **** ** 函数名称 App_Poweron()
 624:.\uart_wifi.c **** ** 函数功能 ：连接WIFI模块                          
 625:.\uart_wifi.c **** ** 入口参数 ：         
 626:.\uart_wifi.c **** ** 出口参数 ：无
ARM GAS  C:\Users\ZHANGM~1\AppData\Local\Temp\ccBCEiox.s 			page 39


 627:.\uart_wifi.c **** 	========================================================================
 628:.\uart_wifi.c **** */
 629:.\uart_wifi.c **** void App_Poweron(void)
 630:.\uart_wifi.c **** {
 1469              		.loc 1 630 0
 1470              		.cfi_startproc
 1471 0000 07B5     		push	{r0, r1, r2, lr}
 1472              	.LCFI19:
 1473              		.cfi_def_cfa_offset 16
 1474              		.cfi_offset 0, -16
 1475              		.cfi_offset 1, -12
 1476              		.cfi_offset 2, -8
 1477              		.cfi_offset 14, -4
 631:.\uart_wifi.c **** 		uint8 cBuf[2];
 632:.\uart_wifi.c **** 		cBuf[0]=0x00;
 1478              		.loc 1 632 0
 1479 0002 0023     		mov	r3, #0
 1480 0004 01AA     		add	r2, sp, #4
 1481 0006 1370     		strb	r3, [r2]
 633:.\uart_wifi.c **** 		cBuf[1]=0x00;
 1482              		.loc 1 633 0
 1483 0008 5370     		strb	r3, [r2, #1]
 634:.\uart_wifi.c **** 		SendDataToWifi(ACK_DATA,APP_POWERON,cBuf,2);
 1484              		.loc 1 634 0
 1485 000a 8020     		mov	r0, #128
 1486 000c A021     		mov	r1, #160
 1487 000e 0223     		mov	r3, #2
 1488 0010 FFF7FEFF 		bl	SendDataToWifi
 1489              	.LVL45:
 635:.\uart_wifi.c **** }
 1490              		.loc 1 635 0
 1491              		@ sp needed for prologue
 1492 0014 07BD     		pop	{r0, r1, r2, pc}
 1493              		.cfi_endproc
 1494              	.LFE52:
 1495              		.size	App_Poweron, .-App_Poweron
 1496              		.section	.text.App_Poweroff,"ax",%progbits
 1497              		.align	1
 1498              		.global	App_Poweroff
 1499              		.code	16
 1500              		.thumb_func
 1501              		.type	App_Poweroff, %function
 1502              	App_Poweroff:
 1503              	.LFB53:
 636:.\uart_wifi.c **** /*
 637:.\uart_wifi.c **** 	========================================================================
 638:.\uart_wifi.c **** ** 函数名称 App_Poweroff()
 639:.\uart_wifi.c **** ** 函数功能 ：连接WIFI模块                          
 640:.\uart_wifi.c **** ** 入口参数 ：         
 641:.\uart_wifi.c **** ** 出口参数 ：无
 642:.\uart_wifi.c **** 	========================================================================
 643:.\uart_wifi.c **** */
 644:.\uart_wifi.c **** void App_Poweroff(void)
 645:.\uart_wifi.c **** {
 1504              		.loc 1 645 0
 1505              		.cfi_startproc
 1506 0000 07B5     		push	{r0, r1, r2, lr}
ARM GAS  C:\Users\ZHANGM~1\AppData\Local\Temp\ccBCEiox.s 			page 40


 1507              	.LCFI20:
 1508              		.cfi_def_cfa_offset 16
 1509              		.cfi_offset 0, -16
 1510              		.cfi_offset 1, -12
 1511              		.cfi_offset 2, -8
 1512              		.cfi_offset 14, -4
 646:.\uart_wifi.c **** 		uint8 cBuf[2];
 647:.\uart_wifi.c **** 		cBuf[0]=0x00;
 1513              		.loc 1 647 0
 1514 0002 0023     		mov	r3, #0
 1515 0004 01AA     		add	r2, sp, #4
 1516 0006 1370     		strb	r3, [r2]
 648:.\uart_wifi.c **** 		cBuf[1]=0x00;
 1517              		.loc 1 648 0
 1518 0008 5370     		strb	r3, [r2, #1]
 649:.\uart_wifi.c **** 		SendDataToWifi(ACK_DATA,APP_POWEROFF,cBuf,2);
 1519              		.loc 1 649 0
 1520 000a 8020     		mov	r0, #128
 1521 000c A121     		mov	r1, #161
 1522 000e 0223     		mov	r3, #2
 1523 0010 FFF7FEFF 		bl	SendDataToWifi
 1524              	.LVL46:
 650:.\uart_wifi.c **** }
 1525              		.loc 1 650 0
 1526              		@ sp needed for prologue
 1527 0014 07BD     		pop	{r0, r1, r2, pc}
 1528              		.cfi_endproc
 1529              	.LFE53:
 1530              		.size	App_Poweroff, .-App_Poweroff
 1531              		.section	.text.Mcu_Poweronsmartlink_Data,"ax",%progbits
 1532              		.align	1
 1533              		.global	Mcu_Poweronsmartlink_Data
 1534              		.code	16
 1535              		.thumb_func
 1536              		.type	Mcu_Poweronsmartlink_Data, %function
 1537              	Mcu_Poweronsmartlink_Data:
 1538              	.LFB54:
 651:.\uart_wifi.c **** /*
 652:.\uart_wifi.c **** 	========================================================================
 653:.\uart_wifi.c **** ** 函数名称 ：Mcu_Poweronsmartlink_Data()
 654:.\uart_wifi.c **** ** 函数功能 ：Mcu_Poweronsmartlink_Data                          
 655:.\uart_wifi.c **** ** 入口参数 ：
 656:.\uart_wifi.c ****         
 657:.\uart_wifi.c **** ** 出口参数 ：无
 658:.\uart_wifi.c **** 	========================================================================
 659:.\uart_wifi.c **** */
 660:.\uart_wifi.c **** void Mcu_Poweronsmartlink_Data(void)
 661:.\uart_wifi.c **** {
 1539              		.loc 1 661 0
 1540              		.cfi_startproc
 1541 0000 08B5     		push	{r3, lr}
 1542              	.LCFI21:
 1543              		.cfi_def_cfa_offset 8
 1544              		.cfi_offset 3, -8
 1545              		.cfi_offset 14, -4
 662:.\uart_wifi.c ****    SendDataToWifi(CTL_ACK_DATA,MCU_POWERONSMARTLINK_DATA,0,0);
 1546              		.loc 1 662 0
ARM GAS  C:\Users\ZHANGM~1\AppData\Local\Temp\ccBCEiox.s 			page 41


 1547 0002 0020     		mov	r0, #0
 1548 0004 0249     		ldr	r1, .L127
 1549 0006 021C     		mov	r2, r0
 1550 0008 031C     		mov	r3, r0
 1551 000a FFF7FEFF 		bl	SendDataToWifi
 1552              	.LVL47:
 663:.\uart_wifi.c **** }
 1553              		.loc 1 663 0
 1554              		@ sp needed for prologue
 1555 000e 08BD     		pop	{r3, pc}
 1556              	.L128:
 1557              		.align	2
 1558              	.L127:
 1559 0010 C2CC0000 		.word	52418
 1560              		.cfi_endproc
 1561              	.LFE54:
 1562              		.size	Mcu_Poweronsmartlink_Data, .-Mcu_Poweronsmartlink_Data
 1563              		.section	.text.Mcu_Firmware_Update,"ax",%progbits
 1564              		.align	1
 1565              		.global	Mcu_Firmware_Update
 1566              		.code	16
 1567              		.thumb_func
 1568              		.type	Mcu_Firmware_Update, %function
 1569              	Mcu_Firmware_Update:
 1570              	.LFB55:
 664:.\uart_wifi.c **** /*
 665:.\uart_wifi.c **** 	========================================================================
 666:.\uart_wifi.c **** ** 函数名称 Clean_All_User_Bound()
 667:.\uart_wifi.c **** ** 函数功能 ：连接WIFI模块                          
 668:.\uart_wifi.c **** ** 入口参数 ：        
 669:.\uart_wifi.c **** ** 出口参数 ：无
 670:.\uart_wifi.c **** 	========================================================================
 671:.\uart_wifi.c **** */
 672:.\uart_wifi.c **** //void Clean_All_User_Bound(void)
 673:.\uart_wifi.c **** //{
 674:.\uart_wifi.c **** //   SendDataToWifi(CTL_ACK_DATA,MCU_CLEARALLUSERBOUND_DATA,0,0);
 675:.\uart_wifi.c **** //}
 676:.\uart_wifi.c **** void Mcu_Firmware_Update(void)
 677:.\uart_wifi.c **** {
 1571              		.loc 1 677 0
 1572              		.cfi_startproc
 1573 0000 07B5     		push	{r0, r1, r2, lr}
 1574              	.LCFI22:
 1575              		.cfi_def_cfa_offset 16
 1576              		.cfi_offset 0, -16
 1577              		.cfi_offset 1, -12
 1578              		.cfi_offset 2, -8
 1579              		.cfi_offset 14, -4
 678:.\uart_wifi.c **** 	  uint8 cBuf[2];
 679:.\uart_wifi.c ****   	cBuf[0] = 0x00;				 //
 680:.\uart_wifi.c ****   	cBuf[1] = 0xff;				 //固件升级长度
 1580              		.loc 1 680 0
 1581 0002 FF23     		mov	r3, #255
 679:.\uart_wifi.c ****   	cBuf[0] = 0x00;				 //
 1582              		.loc 1 679 0
 1583 0004 01AA     		add	r2, sp, #4
 1584 0006 0020     		mov	r0, #0
ARM GAS  C:\Users\ZHANGM~1\AppData\Local\Temp\ccBCEiox.s 			page 42


 1585              		.loc 1 680 0
 1586 0008 5370     		strb	r3, [r2, #1]
 681:.\uart_wifi.c ****   	SendDataToWifi(CTL_ACK_DATA,MCU_FIRMWARE_UPDATE,cBuf,2);	
 1587              		.loc 1 681 0
 1588 000a 0349     		ldr	r1, .L130
 1589 000c 0223     		mov	r3, #2
 679:.\uart_wifi.c ****   	cBuf[0] = 0x00;				 //
 1590              		.loc 1 679 0
 1591 000e 1070     		strb	r0, [r2]
 682:.\uart_wifi.c **** }
 1592              		.loc 1 682 0
 1593              		@ sp needed for prologue
 681:.\uart_wifi.c ****   	SendDataToWifi(CTL_ACK_DATA,MCU_FIRMWARE_UPDATE,cBuf,2);	
 1594              		.loc 1 681 0
 1595 0010 FFF7FEFF 		bl	SendDataToWifi
 1596              	.LVL48:
 1597              		.loc 1 682 0
 1598 0014 07BD     		pop	{r0, r1, r2, pc}
 1599              	.L131:
 1600 0016 C046     		.align	2
 1601              	.L130:
 1602 0018 C5CC0000 		.word	52421
 1603              		.cfi_endproc
 1604              	.LFE55:
 1605              		.size	Mcu_Firmware_Update, .-Mcu_Firmware_Update
 1606              		.section	.text.Host_State_Data,"ax",%progbits
 1607              		.align	1
 1608              		.global	Host_State_Data
 1609              		.code	16
 1610              		.thumb_func
 1611              		.type	Host_State_Data, %function
 1612              	Host_State_Data:
 1613              	.LFB56:
 683:.\uart_wifi.c **** 
 684:.\uart_wifi.c **** //void Host_State_Data(void)
 685:.\uart_wifi.c **** //{
 686:.\uart_wifi.c **** //		uint8 cBuf[14];
 687:.\uart_wifi.c **** //		cBuf[0]=Work_State.all; //01待机 02制水中 03制水完成 04 冲洗
 688:.\uart_wifi.c **** //		cBuf[1]=0x06; 	//滤芯级数	1	U8 (总级数)
 689:.\uart_wifi.c **** //		cBuf[2]=Error_Counter;   
 690:.\uart_wifi.c **** //		cBuf[3]=LianXuJiShi/600;  //工作状态	1	U8 见注2
 691:.\uart_wifi.c **** //		cBuf[4]=jingshuiliang; //总净水量	2	U16(现在总净水量)
 692:.\uart_wifi.c **** //		cBuf[5]=(jingshuiliang>>8); 
 693:.\uart_wifi.c **** //		cBuf[6]=Value_Tds0; //TDS(原水)	2	U16(实际TDS值)
 694:.\uart_wifi.c **** //		cBuf[7]=(Value_Tds0>>8);
 695:.\uart_wifi.c **** //		cBuf[8]=Value_Tds1; //TDS(净水)	2	U16(实际TDS值)
 696:.\uart_wifi.c **** //		cBuf[9]=(Value_Tds1>>8); 
 697:.\uart_wifi.c **** //		cBuf[10]=Value_T; //温度	1	U8(实际温度值 
 698:.\uart_wifi.c **** //		cBuf[11]=Value_Loushui_Ad; //漏水	2	U16(实际AD值)
 699:.\uart_wifi.c **** //		cBuf[12]=(Value_Loushui_Ad>>8); 
 700:.\uart_wifi.c **** //		cBuf[13]=Switch_Data.all; //高、低压开关状态	1	U8 见注    
 701:.\uart_wifi.c **** //		SendDataToWifi(CTL_ACK_DATA,HOST_STATE_DATA,cBuf,14);
 702:.\uart_wifi.c **** //}
 703:.\uart_wifi.c **** void Host_State_Data(void)//debug
 704:.\uart_wifi.c **** {
 1614              		.loc 1 704 0
 1615              		.cfi_startproc
ARM GAS  C:\Users\ZHANGM~1\AppData\Local\Temp\ccBCEiox.s 			page 43


 1616 0000 1FB5     		push	{r0, r1, r2, r3, r4, lr}
 1617              	.LCFI23:
 1618              		.cfi_def_cfa_offset 24
 1619              		.cfi_offset 0, -24
 1620              		.cfi_offset 1, -20
 1621              		.cfi_offset 2, -16
 1622              		.cfi_offset 3, -12
 1623              		.cfi_offset 4, -8
 1624              		.cfi_offset 14, -4
 705:.\uart_wifi.c **** 		uint8 cBuf[14];
 706:.\uart_wifi.c **** 		cBuf[0]=Work_State.all; //01待机 02制水中 03制水完成 04 冲洗
 1625              		.loc 1 706 0
 1626 0002 134B     		ldr	r3, .L133
 1627 0004 6946     		mov	r1, sp
 1628 0006 1888     		ldrh	r0, [r3]
 707:.\uart_wifi.c **** 		cBuf[1]=0x06; 	//滤芯级数	1	U8 (总级数)
 708:.\uart_wifi.c **** 		cBuf[2]=Error_Counter;   
 1629              		.loc 1 708 0
 1630 0008 124B     		ldr	r3, .L133+4
 706:.\uart_wifi.c **** 		cBuf[0]=Work_State.all; //01待机 02制水中 03制水完成 04 冲洗
 1631              		.loc 1 706 0
 1632 000a 0870     		strb	r0, [r1]
 707:.\uart_wifi.c **** 		cBuf[1]=0x06; 	//滤芯级数	1	U8 (总级数)
 1633              		.loc 1 707 0
 1634 000c 0622     		mov	r2, #6
 1635              		.loc 1 708 0
 1636 000e 1878     		ldrb	r0, [r3]
 709:.\uart_wifi.c **** 		cBuf[3]=60;  //工作状态	1	U8 见注2
 710:.\uart_wifi.c **** 		cBuf[4]=500; //总净水量	2	U16(现在总净水量)
 1637              		.loc 1 710 0
 1638 0010 F423     		mov	r3, #244
 707:.\uart_wifi.c **** 		cBuf[1]=0x06; 	//滤芯级数	1	U8 (总级数)
 1639              		.loc 1 707 0
 1640 0012 4A70     		strb	r2, [r1, #1]
 1641              		.loc 1 710 0
 1642 0014 0B71     		strb	r3, [r1, #4]
 709:.\uart_wifi.c **** 		cBuf[3]=60;  //工作状态	1	U8 见注2
 1643              		.loc 1 709 0
 1644 0016 3C22     		mov	r2, #60
 711:.\uart_wifi.c **** 		cBuf[5]=(500>>8); 
 712:.\uart_wifi.c **** 		cBuf[6]=1000; //TDS(原水)	2	U16(实际TDS值)
 713:.\uart_wifi.c **** 		cBuf[7]=(1000>>8);
 1645              		.loc 1 713 0
 1646 0018 0323     		mov	r3, #3
 708:.\uart_wifi.c **** 		cBuf[2]=Error_Counter;   
 1647              		.loc 1 708 0
 1648 001a 8870     		strb	r0, [r1, #2]
 709:.\uart_wifi.c **** 		cBuf[3]=60;  //工作状态	1	U8 见注2
 1649              		.loc 1 709 0
 1650 001c CA70     		strb	r2, [r1, #3]
 1651              		.loc 1 713 0
 1652 001e CB71     		strb	r3, [r1, #7]
 711:.\uart_wifi.c **** 		cBuf[5]=(500>>8); 
 1653              		.loc 1 711 0
 1654 0020 0120     		mov	r0, #1
 714:.\uart_wifi.c **** 		cBuf[8]=100; //TDS(净水)	2	U16(实际TDS值)
 1655              		.loc 1 714 0
ARM GAS  C:\Users\ZHANGM~1\AppData\Local\Temp\ccBCEiox.s 			page 44


 1656 0022 6423     		mov	r3, #100
 712:.\uart_wifi.c **** 		cBuf[6]=1000; //TDS(原水)	2	U16(实际TDS值)
 1657              		.loc 1 712 0
 1658 0024 E822     		mov	r2, #232
 711:.\uart_wifi.c **** 		cBuf[5]=(500>>8); 
 1659              		.loc 1 711 0
 1660 0026 4871     		strb	r0, [r1, #5]
 712:.\uart_wifi.c **** 		cBuf[6]=1000; //TDS(原水)	2	U16(实际TDS值)
 1661              		.loc 1 712 0
 1662 0028 8A71     		strb	r2, [r1, #6]
 1663              		.loc 1 714 0
 1664 002a 0B72     		strb	r3, [r1, #8]
 715:.\uart_wifi.c **** 		cBuf[9]=(100>>8); 
 1665              		.loc 1 715 0
 1666 002c 0020     		mov	r0, #0
 716:.\uart_wifi.c **** 		cBuf[10]=25; //温度	1	U8(实际温度值 
 717:.\uart_wifi.c **** 		cBuf[11]=100; //漏水	2	U16(实际AD值)
 1667              		.loc 1 717 0
 1668 002e CB72     		strb	r3, [r1, #11]
 716:.\uart_wifi.c **** 		cBuf[10]=25; //温度	1	U8(实际温度值 
 1669              		.loc 1 716 0
 1670 0030 1922     		mov	r2, #25
 718:.\uart_wifi.c **** 		cBuf[12]=(100>>8); 
 719:.\uart_wifi.c **** 		cBuf[13]=Switch_Data.all; //高、低压开关状态	1	U8 见注    
 1671              		.loc 1 719 0
 1672 0032 094B     		ldr	r3, .L133+8
 715:.\uart_wifi.c **** 		cBuf[9]=(100>>8); 
 1673              		.loc 1 715 0
 1674 0034 4872     		strb	r0, [r1, #9]
 718:.\uart_wifi.c **** 		cBuf[12]=(100>>8); 
 1675              		.loc 1 718 0
 1676 0036 0873     		strb	r0, [r1, #12]
 716:.\uart_wifi.c **** 		cBuf[10]=25; //温度	1	U8(实际温度值 
 1677              		.loc 1 716 0
 1678 0038 8A72     		strb	r2, [r1, #10]
 1679              		.loc 1 719 0
 1680 003a 1A88     		ldrh	r2, [r3]
 720:.\uart_wifi.c **** 		SendDataToWifi(CTL_ACK_DATA,HOST_STATE_DATA,cBuf,14);
 1681              		.loc 1 720 0
 1682 003c 0E23     		mov	r3, #14
 719:.\uart_wifi.c **** 		cBuf[13]=Switch_Data.all; //高、低压开关状态	1	U8 见注    
 1683              		.loc 1 719 0
 1684 003e 4A73     		strb	r2, [r1, #13]
 1685              		.loc 1 720 0
 1686 0040 9021     		mov	r1, #144
 1687 0042 0902     		lsl	r1, r1, #8
 1688 0044 6A46     		mov	r2, sp
 1689 0046 FFF7FEFF 		bl	SendDataToWifi
 1690              	.LVL49:
 721:.\uart_wifi.c **** }
 1691              		.loc 1 721 0
 1692 004a 05B0     		add	sp, sp, #20
 1693              		@ sp needed for prologue
 1694 004c 00BD     		pop	{pc}
 1695              	.L134:
 1696 004e C046     		.align	2
 1697              	.L133:
ARM GAS  C:\Users\ZHANGM~1\AppData\Local\Temp\ccBCEiox.s 			page 45


 1698 0050 00000000 		.word	Work_State
 1699 0054 00000000 		.word	Error_Counter
 1700 0058 00000000 		.word	Switch_Data
 1701              		.cfi_endproc
 1702              	.LFE56:
 1703              		.size	Host_State_Data, .-Host_State_Data
 1704              		.section	.text.Host_Filter_Changed_Data,"ax",%progbits
 1705              		.align	1
 1706              		.global	Host_Filter_Changed_Data
 1707              		.code	16
 1708              		.thumb_func
 1709              		.type	Host_Filter_Changed_Data, %function
 1710              	Host_Filter_Changed_Data:
 1711              	.LFB57:
 722:.\uart_wifi.c **** void Host_Filter_Changed_Data(void)
 723:.\uart_wifi.c **** {
 1712              		.loc 1 723 0
 1713              		.cfi_startproc
 1714 0000 07B5     		push	{r0, r1, r2, lr}
 1715              	.LCFI24:
 1716              		.cfi_def_cfa_offset 16
 1717              		.cfi_offset 0, -16
 1718              		.cfi_offset 1, -12
 1719              		.cfi_offset 2, -8
 1720              		.cfi_offset 14, -4
 724:.\uart_wifi.c **** 	uint8 cBuf[7];
 725:.\uart_wifi.c **** 	cBuf[0]=0x06;  	//滤芯级数
 726:.\uart_wifi.c **** 	cBuf[1]=1; 
 1721              		.loc 1 726 0
 1722 0002 0122     		mov	r2, #1
 725:.\uart_wifi.c **** 	cBuf[0]=0x06;  	//滤芯级数
 1723              		.loc 1 725 0
 1724 0004 6946     		mov	r1, sp
 1725              		.loc 1 726 0
 1726 0006 4A70     		strb	r2, [r1, #1]
 727:.\uart_wifi.c **** 	cBuf[2]=2; 	
 1727              		.loc 1 727 0
 1728 0008 0220     		mov	r0, #2
 728:.\uart_wifi.c **** 	cBuf[3]=3;   
 1729              		.loc 1 728 0
 1730 000a 0322     		mov	r2, #3
 725:.\uart_wifi.c **** 	cBuf[0]=0x06;  	//滤芯级数
 1731              		.loc 1 725 0
 1732 000c 0623     		mov	r3, #6
 727:.\uart_wifi.c **** 	cBuf[2]=2; 	
 1733              		.loc 1 727 0
 1734 000e 8870     		strb	r0, [r1, #2]
 1735              		.loc 1 728 0
 1736 0010 CA70     		strb	r2, [r1, #3]
 729:.\uart_wifi.c **** 	cBuf[4]=4;  
 1737              		.loc 1 729 0
 1738 0012 0420     		mov	r0, #4
 730:.\uart_wifi.c **** 	cBuf[5]=5; 
 1739              		.loc 1 730 0
 1740 0014 0522     		mov	r2, #5
 725:.\uart_wifi.c **** 	cBuf[0]=0x06;  	//滤芯级数
 1741              		.loc 1 725 0
ARM GAS  C:\Users\ZHANGM~1\AppData\Local\Temp\ccBCEiox.s 			page 46


 1742 0016 0B70     		strb	r3, [r1]
 729:.\uart_wifi.c **** 	cBuf[4]=4;  
 1743              		.loc 1 729 0
 1744 0018 0871     		strb	r0, [r1, #4]
 1745              		.loc 1 730 0
 1746 001a 4A71     		strb	r2, [r1, #5]
 731:.\uart_wifi.c **** 	cBuf[6]=6; 
 1747              		.loc 1 731 0
 1748 001c 8B71     		strb	r3, [r1, #6]
 732:.\uart_wifi.c **** 	SendDataToWifi(CTL_ACK_DATA,HOST_FILTER_CHANGED_DATA,cBuf,7);
 1749              		.loc 1 732 0
 1750 001e 0020     		mov	r0, #0
 1751 0020 0249     		ldr	r1, .L136
 1752 0022 6A46     		mov	r2, sp
 1753 0024 0723     		mov	r3, #7
 1754 0026 FFF7FEFF 		bl	SendDataToWifi
 1755              	.LVL50:
 733:.\uart_wifi.c **** }
 1756              		.loc 1 733 0
 1757              		@ sp needed for prologue
 1758 002a 07BD     		pop	{r0, r1, r2, pc}
 1759              	.L137:
 1760              		.align	2
 1761              	.L136:
 1762 002c 01900000 		.word	36865
 1763              		.cfi_endproc
 1764              	.LFE57:
 1765              		.size	Host_Filter_Changed_Data, .-Host_Filter_Changed_Data
 1766              		.section	.text.Host_Filter_Used_Time_Data,"ax",%progbits
 1767              		.align	1
 1768              		.global	Host_Filter_Used_Time_Data
 1769              		.code	16
 1770              		.thumb_func
 1771              		.type	Host_Filter_Used_Time_Data, %function
 1772              	Host_Filter_Used_Time_Data:
 1773              	.LFB58:
 734:.\uart_wifi.c **** //void Host_Filter_Used_Time_Data(void)
 735:.\uart_wifi.c **** //{
 736:.\uart_wifi.c **** //	uint8 cBuf[14];
 737:.\uart_wifi.c **** //	cBuf[0]=0x06;  	//滤芯级数
 738:.\uart_wifi.c **** //	cBuf[1]=LvxinJishi[0];  	//滤芯数据0	2	U16(实际滤芯使用时间值)
 739:.\uart_wifi.c **** //	cBuf[2]=(LvxinJishi[0]>>8);
 740:.\uart_wifi.c **** //	cBuf[3]=LvxinJishi[1];  	//滤芯数据0	2	U16(实际滤芯使用时间值)
 741:.\uart_wifi.c **** //	cBuf[4]=(LvxinJishi[1]>>8);
 742:.\uart_wifi.c **** //	cBuf[5]=LvxinJishi[2];  	//滤芯数据0	2	U16(实际滤芯使用时间值)
 743:.\uart_wifi.c **** //	cBuf[6]=(LvxinJishi[2]>>8);
 744:.\uart_wifi.c **** //	cBuf[7]=LvxinJishi[3];  	//滤芯数据0	2	U16(实际滤芯使用时间值)
 745:.\uart_wifi.c **** //	cBuf[8]=(LvxinJishi[3]>>8); 
 746:.\uart_wifi.c **** //	cBuf[9]=LvxinJishi[4];  	//滤芯数据0	2	U16(实际滤芯使用时间值)
 747:.\uart_wifi.c **** //	cBuf[10]=(LvxinJishi[4]>>8); 
 748:.\uart_wifi.c **** //	cBuf[11]=LvxinJishi[5];  	//滤芯数据0	2	U16(实际滤芯使用时间值)
 749:.\uart_wifi.c **** //	cBuf[12]=(LvxinJishi[5]>>8); 
 750:.\uart_wifi.c **** //	SendDataToWifi(CTL_ACK_DATA,HOST_FILTER_USED_TIME_DATA,cBuf,13);
 751:.\uart_wifi.c **** //}
 752:.\uart_wifi.c **** void Host_Filter_Used_Time_Data(void)
 753:.\uart_wifi.c **** {
 1774              		.loc 1 753 0
ARM GAS  C:\Users\ZHANGM~1\AppData\Local\Temp\ccBCEiox.s 			page 47


 1775              		.cfi_startproc
 1776 0000 1FB5     		push	{r0, r1, r2, r3, r4, lr}
 1777              	.LCFI25:
 1778              		.cfi_def_cfa_offset 24
 1779              		.cfi_offset 0, -24
 1780              		.cfi_offset 1, -20
 1781              		.cfi_offset 2, -16
 1782              		.cfi_offset 3, -12
 1783              		.cfi_offset 4, -8
 1784              		.cfi_offset 14, -4
 754:.\uart_wifi.c **** 	uint8 cBuf[14];
 755:.\uart_wifi.c **** 	cBuf[0]=0x06;  	//滤芯级数
 756:.\uart_wifi.c **** 	cBuf[1]=500;  	//滤芯数据0	2	U16(实际滤芯使用时间值)
 1785              		.loc 1 756 0
 1786 0002 F422     		mov	r2, #244
 755:.\uart_wifi.c **** 	cBuf[0]=0x06;  	//滤芯级数
 1787              		.loc 1 755 0
 1788 0004 6946     		mov	r1, sp
 757:.\uart_wifi.c **** 	cBuf[2]=(500>>8);
 1789              		.loc 1 757 0
 1790 0006 0120     		mov	r0, #1
 755:.\uart_wifi.c **** 	cBuf[0]=0x06;  	//滤芯级数
 1791              		.loc 1 755 0
 1792 0008 0623     		mov	r3, #6
 1793 000a 0B70     		strb	r3, [r1]
 756:.\uart_wifi.c **** 	cBuf[1]=500;  	//滤芯数据0	2	U16(实际滤芯使用时间值)
 1794              		.loc 1 756 0
 1795 000c 4A70     		strb	r2, [r1, #1]
 1796              		.loc 1 757 0
 1797 000e 8870     		strb	r0, [r1, #2]
 758:.\uart_wifi.c **** 	cBuf[3]=500;  	//滤芯数据0	2	U16(实际滤芯使用时间值)
 1798              		.loc 1 758 0
 1799 0010 CA70     		strb	r2, [r1, #3]
 759:.\uart_wifi.c **** 	cBuf[4]=(500>>8);
 1800              		.loc 1 759 0
 1801 0012 0871     		strb	r0, [r1, #4]
 760:.\uart_wifi.c **** 	cBuf[5]=500;  	//滤芯数据0	2	U16(实际滤芯使用时间值)
 1802              		.loc 1 760 0
 1803 0014 4A71     		strb	r2, [r1, #5]
 761:.\uart_wifi.c **** 	cBuf[6]=(500>>8);
 1804              		.loc 1 761 0
 1805 0016 8871     		strb	r0, [r1, #6]
 762:.\uart_wifi.c **** 	cBuf[7]=500;  	//滤芯数据0	2	U16(实际滤芯使用时间值)
 1806              		.loc 1 762 0
 1807 0018 CA71     		strb	r2, [r1, #7]
 763:.\uart_wifi.c **** 	cBuf[8]=(500>>8); 
 1808              		.loc 1 763 0
 1809 001a 0872     		strb	r0, [r1, #8]
 764:.\uart_wifi.c **** 	cBuf[9]=500;  	//滤芯数据0	2	U16(实际滤芯使用时间值)
 1810              		.loc 1 764 0
 1811 001c 4A72     		strb	r2, [r1, #9]
 765:.\uart_wifi.c **** 	cBuf[10]=(500>>8); 
 1812              		.loc 1 765 0
 1813 001e 8872     		strb	r0, [r1, #10]
 766:.\uart_wifi.c **** 	cBuf[11]=500;  	//滤芯数据0	2	U16(实际滤芯使用时间值)
 1814              		.loc 1 766 0
 1815 0020 CA72     		strb	r2, [r1, #11]
ARM GAS  C:\Users\ZHANGM~1\AppData\Local\Temp\ccBCEiox.s 			page 48


 767:.\uart_wifi.c **** 	cBuf[12]=(500>>8); 
 1816              		.loc 1 767 0
 1817 0022 0873     		strb	r0, [r1, #12]
 768:.\uart_wifi.c **** 	SendDataToWifi(CTL_ACK_DATA,HOST_FILTER_USED_TIME_DATA,cBuf,13);
 1818              		.loc 1 768 0
 1819 0024 6A46     		mov	r2, sp
 1820 0026 0020     		mov	r0, #0
 1821 0028 0249     		ldr	r1, .L139
 1822 002a 0D23     		mov	r3, #13
 1823 002c FFF7FEFF 		bl	SendDataToWifi
 1824              	.LVL51:
 769:.\uart_wifi.c **** }
 1825              		.loc 1 769 0
 1826 0030 05B0     		add	sp, sp, #20
 1827              		@ sp needed for prologue
 1828 0032 00BD     		pop	{pc}
 1829              	.L140:
 1830              		.align	2
 1831              	.L139:
 1832 0034 02900000 		.word	36866
 1833              		.cfi_endproc
 1834              	.LFE58:
 1835              		.size	Host_Filter_Used_Time_Data, .-Host_Filter_Used_Time_Data
 1836              		.section	.text.Host_E0_Data,"ax",%progbits
 1837              		.align	1
 1838              		.global	Host_E0_Data
 1839              		.code	16
 1840              		.thumb_func
 1841              		.type	Host_E0_Data, %function
 1842              	Host_E0_Data:
 1843              	.LFB59:
 770:.\uart_wifi.c **** void Host_E0_Data(void)
 771:.\uart_wifi.c **** {
 1844              		.loc 1 771 0
 1845              		.cfi_startproc
 1846 0000 08B5     		push	{r3, lr}
 1847              	.LCFI26:
 1848              		.cfi_def_cfa_offset 8
 1849              		.cfi_offset 3, -8
 1850              		.cfi_offset 14, -4
 772:.\uart_wifi.c **** 	 SendDataToWifi(CTL_ACK_DATA,HOST_E0_DATA,0,0);		
 1851              		.loc 1 772 0
 1852 0002 0020     		mov	r0, #0
 1853 0004 0249     		ldr	r1, .L142
 1854 0006 021C     		mov	r2, r0
 1855 0008 031C     		mov	r3, r0
 1856 000a FFF7FEFF 		bl	SendDataToWifi
 1857              	.LVL52:
 773:.\uart_wifi.c **** }
 1858              		.loc 1 773 0
 1859              		@ sp needed for prologue
 1860 000e 08BD     		pop	{r3, pc}
 1861              	.L143:
 1862              		.align	2
 1863              	.L142:
 1864 0010 F0900000 		.word	37104
 1865              		.cfi_endproc
ARM GAS  C:\Users\ZHANGM~1\AppData\Local\Temp\ccBCEiox.s 			page 49


 1866              	.LFE59:
 1867              		.size	Host_E0_Data, .-Host_E0_Data
 1868              		.section	.text.Host_E1_Data,"ax",%progbits
 1869              		.align	1
 1870              		.global	Host_E1_Data
 1871              		.code	16
 1872              		.thumb_func
 1873              		.type	Host_E1_Data, %function
 1874              	Host_E1_Data:
 1875              	.LFB60:
 774:.\uart_wifi.c **** void Host_E1_Data(void)
 775:.\uart_wifi.c **** {
 1876              		.loc 1 775 0
 1877              		.cfi_startproc
 1878 0000 08B5     		push	{r3, lr}
 1879              	.LCFI27:
 1880              		.cfi_def_cfa_offset 8
 1881              		.cfi_offset 3, -8
 1882              		.cfi_offset 14, -4
 776:.\uart_wifi.c **** 	 SendDataToWifi(CTL_ACK_DATA,HOST_E1_DATA,0,0);		
 1883              		.loc 1 776 0
 1884 0002 0020     		mov	r0, #0
 1885 0004 0249     		ldr	r1, .L145
 1886 0006 021C     		mov	r2, r0
 1887 0008 031C     		mov	r3, r0
 1888 000a FFF7FEFF 		bl	SendDataToWifi
 1889              	.LVL53:
 777:.\uart_wifi.c **** }
 1890              		.loc 1 777 0
 1891              		@ sp needed for prologue
 1892 000e 08BD     		pop	{r3, pc}
 1893              	.L146:
 1894              		.align	2
 1895              	.L145:
 1896 0010 F1900000 		.word	37105
 1897              		.cfi_endproc
 1898              	.LFE60:
 1899              		.size	Host_E1_Data, .-Host_E1_Data
 1900              		.section	.text.Host_E2_Data,"ax",%progbits
 1901              		.align	1
 1902              		.global	Host_E2_Data
 1903              		.code	16
 1904              		.thumb_func
 1905              		.type	Host_E2_Data, %function
 1906              	Host_E2_Data:
 1907              	.LFB61:
 778:.\uart_wifi.c **** void Host_E2_Data (void)
 779:.\uart_wifi.c **** {
 1908              		.loc 1 779 0
 1909              		.cfi_startproc
 1910 0000 08B5     		push	{r3, lr}
 1911              	.LCFI28:
 1912              		.cfi_def_cfa_offset 8
 1913              		.cfi_offset 3, -8
 1914              		.cfi_offset 14, -4
 780:.\uart_wifi.c **** 	 SendDataToWifi(CTL_ACK_DATA,HOST_E2_DATA,0,0);		
 1915              		.loc 1 780 0
ARM GAS  C:\Users\ZHANGM~1\AppData\Local\Temp\ccBCEiox.s 			page 50


 1916 0002 0020     		mov	r0, #0
 1917 0004 0249     		ldr	r1, .L148
 1918 0006 021C     		mov	r2, r0
 1919 0008 031C     		mov	r3, r0
 1920 000a FFF7FEFF 		bl	SendDataToWifi
 1921              	.LVL54:
 781:.\uart_wifi.c **** }
 1922              		.loc 1 781 0
 1923              		@ sp needed for prologue
 1924 000e 08BD     		pop	{r3, pc}
 1925              	.L149:
 1926              		.align	2
 1927              	.L148:
 1928 0010 F2900000 		.word	37106
 1929              		.cfi_endproc
 1930              	.LFE61:
 1931              		.size	Host_E2_Data, .-Host_E2_Data
 1932              		.section	.text.Host_E3_Data,"ax",%progbits
 1933              		.align	1
 1934              		.global	Host_E3_Data
 1935              		.code	16
 1936              		.thumb_func
 1937              		.type	Host_E3_Data, %function
 1938              	Host_E3_Data:
 1939              	.LFB62:
 782:.\uart_wifi.c **** void Host_E3_Data(void)
 783:.\uart_wifi.c **** {
 1940              		.loc 1 783 0
 1941              		.cfi_startproc
 1942 0000 08B5     		push	{r3, lr}
 1943              	.LCFI29:
 1944              		.cfi_def_cfa_offset 8
 1945              		.cfi_offset 3, -8
 1946              		.cfi_offset 14, -4
 784:.\uart_wifi.c **** 	 SendDataToWifi(CTL_ACK_DATA,HOST_E3_DATA,0,0);		
 1947              		.loc 1 784 0
 1948 0002 0020     		mov	r0, #0
 1949 0004 0249     		ldr	r1, .L151
 1950 0006 021C     		mov	r2, r0
 1951 0008 031C     		mov	r3, r0
 1952 000a FFF7FEFF 		bl	SendDataToWifi
 1953              	.LVL55:
 785:.\uart_wifi.c **** }
 1954              		.loc 1 785 0
 1955              		@ sp needed for prologue
 1956 000e 08BD     		pop	{r3, pc}
 1957              	.L152:
 1958              		.align	2
 1959              	.L151:
 1960 0010 F3900000 		.word	37107
 1961              		.cfi_endproc
 1962              	.LFE62:
 1963              		.size	Host_E3_Data, .-Host_E3_Data
 1964              		.section	.text.Host_E4_Data,"ax",%progbits
 1965              		.align	1
 1966              		.global	Host_E4_Data
 1967              		.code	16
ARM GAS  C:\Users\ZHANGM~1\AppData\Local\Temp\ccBCEiox.s 			page 51


 1968              		.thumb_func
 1969              		.type	Host_E4_Data, %function
 1970              	Host_E4_Data:
 1971              	.LFB63:
 786:.\uart_wifi.c **** void Host_E4_Data(void)
 787:.\uart_wifi.c **** {
 1972              		.loc 1 787 0
 1973              		.cfi_startproc
 1974 0000 08B5     		push	{r3, lr}
 1975              	.LCFI30:
 1976              		.cfi_def_cfa_offset 8
 1977              		.cfi_offset 3, -8
 1978              		.cfi_offset 14, -4
 788:.\uart_wifi.c **** 	 SendDataToWifi(CTL_ACK_DATA,HOST_E4_DATA,0,0);		
 1979              		.loc 1 788 0
 1980 0002 0020     		mov	r0, #0
 1981 0004 0249     		ldr	r1, .L154
 1982 0006 021C     		mov	r2, r0
 1983 0008 031C     		mov	r3, r0
 1984 000a FFF7FEFF 		bl	SendDataToWifi
 1985              	.LVL56:
 789:.\uart_wifi.c **** }
 1986              		.loc 1 789 0
 1987              		@ sp needed for prologue
 1988 000e 08BD     		pop	{r3, pc}
 1989              	.L155:
 1990              		.align	2
 1991              	.L154:
 1992 0010 F4900000 		.word	37108
 1993              		.cfi_endproc
 1994              	.LFE63:
 1995              		.size	Host_E4_Data, .-Host_E4_Data
 1996              		.section	.text.Host_E5_Data,"ax",%progbits
 1997              		.align	1
 1998              		.global	Host_E5_Data
 1999              		.code	16
 2000              		.thumb_func
 2001              		.type	Host_E5_Data, %function
 2002              	Host_E5_Data:
 2003              	.LFB64:
 790:.\uart_wifi.c **** void Host_E5_Data(void)
 791:.\uart_wifi.c **** {
 2004              		.loc 1 791 0
 2005              		.cfi_startproc
 2006 0000 08B5     		push	{r3, lr}
 2007              	.LCFI31:
 2008              		.cfi_def_cfa_offset 8
 2009              		.cfi_offset 3, -8
 2010              		.cfi_offset 14, -4
 792:.\uart_wifi.c **** 	 SendDataToWifi(CTL_ACK_DATA,HOST_E5_DATA,0,0);		
 2011              		.loc 1 792 0
 2012 0002 0020     		mov	r0, #0
 2013 0004 0249     		ldr	r1, .L157
 2014 0006 021C     		mov	r2, r0
 2015 0008 031C     		mov	r3, r0
 2016 000a FFF7FEFF 		bl	SendDataToWifi
 2017              	.LVL57:
ARM GAS  C:\Users\ZHANGM~1\AppData\Local\Temp\ccBCEiox.s 			page 52


 793:.\uart_wifi.c **** }
 2018              		.loc 1 793 0
 2019              		@ sp needed for prologue
 2020 000e 08BD     		pop	{r3, pc}
 2021              	.L158:
 2022              		.align	2
 2023              	.L157:
 2024 0010 F5900000 		.word	37109
 2025              		.cfi_endproc
 2026              	.LFE64:
 2027              		.size	Host_E5_Data, .-Host_E5_Data
 2028              		.section	.text.Host_E6_Data,"ax",%progbits
 2029              		.align	1
 2030              		.global	Host_E6_Data
 2031              		.code	16
 2032              		.thumb_func
 2033              		.type	Host_E6_Data, %function
 2034              	Host_E6_Data:
 2035              	.LFB65:
 794:.\uart_wifi.c **** void Host_E6_Data(void)
 795:.\uart_wifi.c **** {
 2036              		.loc 1 795 0
 2037              		.cfi_startproc
 2038 0000 08B5     		push	{r3, lr}
 2039              	.LCFI32:
 2040              		.cfi_def_cfa_offset 8
 2041              		.cfi_offset 3, -8
 2042              		.cfi_offset 14, -4
 796:.\uart_wifi.c **** 	 SendDataToWifi(CTL_ACK_DATA,HOST_E6_DATA,0,0);		
 2043              		.loc 1 796 0
 2044 0002 0020     		mov	r0, #0
 2045 0004 0249     		ldr	r1, .L160
 2046 0006 021C     		mov	r2, r0
 2047 0008 031C     		mov	r3, r0
 2048 000a FFF7FEFF 		bl	SendDataToWifi
 2049              	.LVL58:
 797:.\uart_wifi.c **** }
 2050              		.loc 1 797 0
 2051              		@ sp needed for prologue
 2052 000e 08BD     		pop	{r3, pc}
 2053              	.L161:
 2054              		.align	2
 2055              	.L160:
 2056 0010 F6900000 		.word	37110
 2057              		.cfi_endproc
 2058              	.LFE65:
 2059              		.size	Host_E6_Data, .-Host_E6_Data
 2060              		.section	.text.Host_E7_Data,"ax",%progbits
 2061              		.align	1
 2062              		.global	Host_E7_Data
 2063              		.code	16
 2064              		.thumb_func
 2065              		.type	Host_E7_Data, %function
 2066              	Host_E7_Data:
 2067              	.LFB66:
 798:.\uart_wifi.c **** void Host_E7_Data(void)
 799:.\uart_wifi.c **** {
ARM GAS  C:\Users\ZHANGM~1\AppData\Local\Temp\ccBCEiox.s 			page 53


 2068              		.loc 1 799 0
 2069              		.cfi_startproc
 2070 0000 08B5     		push	{r3, lr}
 2071              	.LCFI33:
 2072              		.cfi_def_cfa_offset 8
 2073              		.cfi_offset 3, -8
 2074              		.cfi_offset 14, -4
 800:.\uart_wifi.c **** 	 SendDataToWifi(CTL_ACK_DATA,HOST_E7_DATA,0,0);		
 2075              		.loc 1 800 0
 2076 0002 0020     		mov	r0, #0
 2077 0004 0249     		ldr	r1, .L163
 2078 0006 021C     		mov	r2, r0
 2079 0008 031C     		mov	r3, r0
 2080 000a FFF7FEFF 		bl	SendDataToWifi
 2081              	.LVL59:
 801:.\uart_wifi.c **** }
 2082              		.loc 1 801 0
 2083              		@ sp needed for prologue
 2084 000e 08BD     		pop	{r3, pc}
 2085              	.L164:
 2086              		.align	2
 2087              	.L163:
 2088 0010 F7900000 		.word	37111
 2089              		.cfi_endproc
 2090              	.LFE66:
 2091              		.size	Host_E7_Data, .-Host_E7_Data
 2092              		.section	.text.Host_E8_Data,"ax",%progbits
 2093              		.align	1
 2094              		.global	Host_E8_Data
 2095              		.code	16
 2096              		.thumb_func
 2097              		.type	Host_E8_Data, %function
 2098              	Host_E8_Data:
 2099              	.LFB67:
 802:.\uart_wifi.c **** void Host_E8_Data(void)
 803:.\uart_wifi.c **** {
 2100              		.loc 1 803 0
 2101              		.cfi_startproc
 2102 0000 08B5     		push	{r3, lr}
 2103              	.LCFI34:
 2104              		.cfi_def_cfa_offset 8
 2105              		.cfi_offset 3, -8
 2106              		.cfi_offset 14, -4
 804:.\uart_wifi.c **** 	 SendDataToWifi(CTL_ACK_DATA,HOST_E8_DATA,0,0);		
 2107              		.loc 1 804 0
 2108 0002 0020     		mov	r0, #0
 2109 0004 0249     		ldr	r1, .L166
 2110 0006 021C     		mov	r2, r0
 2111 0008 031C     		mov	r3, r0
 2112 000a FFF7FEFF 		bl	SendDataToWifi
 2113              	.LVL60:
 805:.\uart_wifi.c **** }
 2114              		.loc 1 805 0
 2115              		@ sp needed for prologue
 2116 000e 08BD     		pop	{r3, pc}
 2117              	.L167:
 2118              		.align	2
ARM GAS  C:\Users\ZHANGM~1\AppData\Local\Temp\ccBCEiox.s 			page 54


 2119              	.L166:
 2120 0010 F8900000 		.word	37112
 2121              		.cfi_endproc
 2122              	.LFE67:
 2123              		.size	Host_E8_Data, .-Host_E8_Data
 2124              		.section	.text.Load_Command,"ax",%progbits
 2125              		.align	1
 2126              		.global	Load_Command
 2127              		.code	16
 2128              		.thumb_func
 2129              		.type	Load_Command, %function
 2130              	Load_Command:
 2131              	.LFB68:
 806:.\uart_wifi.c **** void Load_Command(uint16 icommand)
 807:.\uart_wifi.c **** { 
 2132              		.loc 1 807 0
 2133              		.cfi_startproc
 2134              	.LVL61:
 2135 0000 10B5     		push	{r4, lr}
 2136              	.LCFI35:
 2137              		.cfi_def_cfa_offset 8
 2138              		.cfi_offset 4, -8
 2139              		.cfi_offset 14, -4
 808:.\uart_wifi.c **** 	if(Cmd_Function_Num<5) 
 2140              		.loc 1 808 0
 2141 0002 054A     		ldr	r2, .L170
 2142 0004 1378     		ldrb	r3, [r2]
 2143 0006 042B     		cmp	r3, #4
 2144 0008 04D8     		bhi	.L168
 809:.\uart_wifi.c **** 	{
 810:.\uart_wifi.c **** 		Cmd_Function_Buf[Cmd_Function_Num] = icommand;	
 2145              		.loc 1 810 0
 2146 000a 0449     		ldr	r1, .L170+4
 2147 000c 5C00     		lsl	r4, r3, #1
 811:.\uart_wifi.c **** 		Cmd_Function_Num++;
 2148              		.loc 1 811 0
 2149 000e 0133     		add	r3, r3, #1
 810:.\uart_wifi.c **** 		Cmd_Function_Buf[Cmd_Function_Num] = icommand;	
 2150              		.loc 1 810 0
 2151 0010 6052     		strh	r0, [r4, r1]
 2152              		.loc 1 811 0
 2153 0012 1370     		strb	r3, [r2]
 2154              	.L168:
 812:.\uart_wifi.c **** 	}
 813:.\uart_wifi.c **** 
 814:.\uart_wifi.c **** }
 2155              		.loc 1 814 0
 2156              		@ sp needed for prologue
 2157 0014 10BD     		pop	{r4, pc}
 2158              	.L171:
 2159 0016 C046     		.align	2
 2160              	.L170:
 2161 0018 00000000 		.word	Cmd_Function_Num
 2162 001c 00000000 		.word	Cmd_Function_Buf
 2163              		.cfi_endproc
 2164              	.LFE68:
 2165              		.size	Load_Command, .-Load_Command
ARM GAS  C:\Users\ZHANGM~1\AppData\Local\Temp\ccBCEiox.s 			page 55


 2166              		.section	.text.Load_Error,"ax",%progbits
 2167              		.align	1
 2168              		.global	Load_Error
 2169              		.code	16
 2170              		.thumb_func
 2171              		.type	Load_Error, %function
 2172              	Load_Error:
 2173              	.LFB69:
 815:.\uart_wifi.c **** void Load_Error(uint16 icommand)
 816:.\uart_wifi.c **** { 
 2174              		.loc 1 816 0
 2175              		.cfi_startproc
 2176              	.LVL62:
 2177 0000 10B5     		push	{r4, lr}
 2178              	.LCFI36:
 2179              		.cfi_def_cfa_offset 8
 2180              		.cfi_offset 4, -8
 2181              		.cfi_offset 14, -4
 817:.\uart_wifi.c **** 	if(Error_Counter<8) 
 2182              		.loc 1 817 0
 2183 0002 054A     		ldr	r2, .L174
 2184 0004 1378     		ldrb	r3, [r2]
 2185 0006 072B     		cmp	r3, #7
 2186 0008 04D8     		bhi	.L172
 818:.\uart_wifi.c **** 	{
 819:.\uart_wifi.c **** 		Error_Data_Buf[Error_Counter] = icommand;	
 2187              		.loc 1 819 0
 2188 000a 0449     		ldr	r1, .L174+4
 2189 000c 5C00     		lsl	r4, r3, #1
 820:.\uart_wifi.c **** 		Error_Counter++;
 2190              		.loc 1 820 0
 2191 000e 0133     		add	r3, r3, #1
 819:.\uart_wifi.c **** 		Error_Data_Buf[Error_Counter] = icommand;	
 2192              		.loc 1 819 0
 2193 0010 6052     		strh	r0, [r4, r1]
 2194              		.loc 1 820 0
 2195 0012 1370     		strb	r3, [r2]
 2196              	.L172:
 821:.\uart_wifi.c **** 	}
 822:.\uart_wifi.c **** }
 2197              		.loc 1 822 0
 2198              		@ sp needed for prologue
 2199 0014 10BD     		pop	{r4, pc}
 2200              	.L175:
 2201 0016 C046     		.align	2
 2202              	.L174:
 2203 0018 00000000 		.word	Error_Counter
 2204 001c 00000000 		.word	Error_Data_Buf
 2205              		.cfi_endproc
 2206              	.LFE69:
 2207              		.size	Load_Error, .-Load_Error
 2208              		.section	.text.Uart_Exception_Handl,"ax",%progbits
 2209              		.align	1
 2210              		.global	Uart_Exception_Handl
 2211              		.code	16
 2212              		.thumb_func
 2213              		.type	Uart_Exception_Handl, %function
ARM GAS  C:\Users\ZHANGM~1\AppData\Local\Temp\ccBCEiox.s 			page 56


 2214              	Uart_Exception_Handl:
 2215              	.LFB70:
 823:.\uart_wifi.c **** /******************************************************************************
 824:.\uart_wifi.c **** * 函 数 名: Uart_Exception_Handl(void)
 825:.\uart_wifi.c **** * 函数功能: 完成超时重发等异常处理
 826:.\uart_wifi.c **** * 入口参数: 无
 827:.\uart_wifi.c **** * 返    回: 
 828:.\uart_wifi.c **** *******************************************************************************/
 829:.\uart_wifi.c **** void Uart_Exception_Handl(void)
 830:.\uart_wifi.c **** {
 2216              		.loc 1 830 0
 2217              		.cfi_startproc
 2218 0000 00B5     		push	{lr}
 2219              	.LCFI37:
 2220              		.cfi_def_cfa_offset 4
 2221              		.cfi_offset 14, -4
 831:.\uart_wifi.c **** 	if(WifidatagramWorkFlag.uart_ack)
 2222              		.loc 1 831 0
 2223 0002 064B     		ldr	r3, .L181
 2224 0004 1A78     		ldrb	r2, [r3]
 2225 0006 5107     		lsl	r1, r2, #29
 2226 0008 06D5     		bpl	.L176
 832:.\uart_wifi.c **** 		{
 833:.\uart_wifi.c **** 		  if(Ack_Timer==0)
 2227              		.loc 1 833 0
 2228 000a 0549     		ldr	r1, .L181+4
 2229 000c 0878     		ldrb	r0, [r1]
 2230 000e 0028     		cmp	r0, #0
 2231 0010 02D1     		bne	.L176
 834:.\uart_wifi.c **** 				{
 835:.\uart_wifi.c **** 				 	WifidatagramWorkFlag.send_data_load= 1;
 2232              		.loc 1 835 0
 2233 0012 0121     		mov	r1, #1
 2234 0014 0A43     		orr	r2, r1
 2235 0016 1A70     		strb	r2, [r3]
 2236              	.L176:
 836:.\uart_wifi.c **** 				}
 837:.\uart_wifi.c **** 		} 
 838:.\uart_wifi.c **** }
 2237              		.loc 1 838 0
 2238              		@ sp needed for prologue
 2239 0018 00BD     		pop	{pc}
 2240              	.L182:
 2241 001a C046     		.align	2
 2242              	.L181:
 2243 001c 00000000 		.word	WifidatagramWorkFlag
 2244 0020 00000000 		.word	Ack_Timer
 2245              		.cfi_endproc
 2246              	.LFE70:
 2247              		.size	Uart_Exception_Handl, .-Uart_Exception_Handl
 2248              		.section	.text.Send_To_WifiUart,"ax",%progbits
 2249              		.align	1
 2250              		.global	Send_To_WifiUart
 2251              		.code	16
 2252              		.thumb_func
 2253              		.type	Send_To_WifiUart, %function
 2254              	Send_To_WifiUart:
ARM GAS  C:\Users\ZHANGM~1\AppData\Local\Temp\ccBCEiox.s 			page 57


 2255              	.LFB71:
 839:.\uart_wifi.c **** /******************************************************************************
 840:.\uart_wifi.c **** * 函 数 名: Send_Uart(void)
 841:.\uart_wifi.c **** * 函数功能: 串口发送程序
 842:.\uart_wifi.c **** * 入口参数: 无
 843:.\uart_wifi.c **** * 返    回: 
 844:.\uart_wifi.c **** *******************************************************************************/
 845:.\uart_wifi.c **** void Send_To_WifiUart(void)
 846:.\uart_wifi.c **** {
 2256              		.loc 1 846 0
 2257              		.cfi_startproc
 2258 0000 70B5     		push	{r4, r5, r6, lr}
 2259              	.LCFI38:
 2260              		.cfi_def_cfa_offset 16
 2261              		.cfi_offset 4, -16
 2262              		.cfi_offset 5, -12
 2263              		.cfi_offset 6, -8
 2264              		.cfi_offset 14, -4
 847:.\uart_wifi.c ****   uint8 i; 
 848:.\uart_wifi.c **** 	if((!WifidatagramWorkFlag.uart_ack)&&(!WifidatagramWorkFlag.flag_Uart_Work)&&(Send_Interval_Counte
 2265              		.loc 1 848 0
 2266 0002 684C     		ldr	r4, .L230
 2267 0004 0C23     		mov	r3, #12
 2268 0006 2278     		ldrb	r2, [r4]
 2269 0008 1A42     		tst	r2, r3
 2270 000a 2FD1     		bne	.L185
 2271              		.loc 1 848 0 is_stmt 0 discriminator 1
 2272 000c 664D     		ldr	r5, .L230+4
 2273 000e 2878     		ldrb	r0, [r5]
 2274 0010 0028     		cmp	r0, #0
 2275 0012 2BD1     		bne	.L185
 2276 0014 FFF7FEFF 		bl	UART_0_SpiUartGetTxBufferSize
 2277              	.LVL63:
 2278 0018 0028     		cmp	r0, #0
 2279 001a 27D1     		bne	.L185
 849:.\uart_wifi.c **** 	{
 850:.\uart_wifi.c **** 		Send_Interval_Counter=5;
 851:.\uart_wifi.c **** 		 if(Cmd_Function_Num>0)
 2280              		.loc 1 851 0 is_stmt 1
 2281 001c 634A     		ldr	r2, .L230+8
 850:.\uart_wifi.c **** 		Send_Interval_Counter=5;
 2282              		.loc 1 850 0
 2283 001e 0521     		mov	r1, #5
 2284              		.loc 1 851 0
 2285 0020 1378     		ldrb	r3, [r2]
 850:.\uart_wifi.c **** 		Send_Interval_Counter=5;
 2286              		.loc 1 850 0
 2287 0022 2970     		strb	r1, [r5]
 2288              		.loc 1 851 0
 2289 0024 002B     		cmp	r3, #0
 2290 0026 16D0     		beq	.L187
 852:.\uart_wifi.c ****   		 { 
 853:.\uart_wifi.c ****   		   Cmd_Function = Cmd_Function_Buf[0];
 2291              		.loc 1 853 0
 2292 0028 614D     		ldr	r5, .L230+12
 2293 002a 6249     		ldr	r1, .L230+16
 2294 002c 2E88     		ldrh	r6, [r5]
ARM GAS  C:\Users\ZHANGM~1\AppData\Local\Temp\ccBCEiox.s 			page 58


 2295 002e 0E80     		strh	r6, [r1]
 854:.\uart_wifi.c ****   			 Cmd_Function_Num--;
 2296              		.loc 1 854 0
 2297 0030 5E1E     		sub	r6, r3, #1
 2298 0032 F1B2     		uxtb	r1, r6
 2299 0034 1170     		strb	r1, [r2]
 855:.\uart_wifi.c ****   			 if(Cmd_Function_Num>0)
 2300              		.loc 1 855 0
 2301 0036 0029     		cmp	r1, #0
 2302 0038 04D1     		bne	.L188
 2303              	.L189:
 856:.\uart_wifi.c ****   			 {
 857:.\uart_wifi.c ****   				 for(i=0;i<=Cmd_Function_Num;i++)
 858:.\uart_wifi.c ****   				 {
 859:.\uart_wifi.c ****   				     Cmd_Function_Buf[i] = Cmd_Function_Buf[i+1];	
 860:.\uart_wifi.c ****   				 }
 861:.\uart_wifi.c ****   			 }
 862:.\uart_wifi.c ****   			 WifidatagramWorkFlag.send_data_load = 1;		 	     
 2304              		.loc 1 862 0
 2305 003a 2378     		ldrb	r3, [r4]
 2306 003c 0125     		mov	r5, #1
 2307 003e 2B43     		orr	r3, r5
 2308 0040 2370     		strb	r3, [r4]
 2309 0042 08E0     		b	.L187
 2310              	.L188:
 859:.\uart_wifi.c ****   				     Cmd_Function_Buf[i] = Cmd_Function_Buf[i+1];	
 2311              		.loc 1 859 0 discriminator 2
 2312 0044 411C     		add	r1, r0, #1
 2313 0046 4E00     		lsl	r6, r1, #1
 2314 0048 AE5B     		ldrh	r6, [r5, r6]
 2315 004a 4000     		lsl	r0, r0, #1
 2316 004c 2E52     		strh	r6, [r5, r0]
 857:.\uart_wifi.c ****   				 for(i=0;i<=Cmd_Function_Num;i++)
 2317              		.loc 1 857 0 discriminator 2
 2318 004e C8B2     		uxtb	r0, r1
 2319              	.LVL64:
 2320 0050 9842     		cmp	r0, r3
 2321 0052 F7D1     		bne	.L188
 2322 0054 F1E7     		b	.L189
 2323              	.LVL65:
 2324              	.L187:
 863:.\uart_wifi.c ****   		 }
 864:.\uart_wifi.c ****         if(Cmd_Function_Num==0)
 2325              		.loc 1 864 0
 2326 0056 1178     		ldrb	r1, [r2]
 2327 0058 0029     		cmp	r1, #0
 2328 005a 07D1     		bne	.L185
 2329              	.LVL66:
 865:.\uart_wifi.c ****         {
 866:.\uart_wifi.c ****             for(i=0;i<7;i++)
 867:.\uart_wifi.c ****   			    {
 868:.\uart_wifi.c ****   				  Cmd_Function_Buf[i] = 0;	
 2330              		.loc 1 868 0 discriminator 1
 2331 005c 544A     		ldr	r2, .L230+12
 2332 005e 1180     		strh	r1, [r2]
 2333              	.LVL67:
 2334 0060 5180     		strh	r1, [r2, #2]
ARM GAS  C:\Users\ZHANGM~1\AppData\Local\Temp\ccBCEiox.s 			page 59


 2335              	.LVL68:
 2336 0062 9180     		strh	r1, [r2, #4]
 2337              	.LVL69:
 2338 0064 D180     		strh	r1, [r2, #6]
 2339              	.LVL70:
 2340 0066 1181     		strh	r1, [r2, #8]
 2341              	.LVL71:
 2342 0068 5181     		strh	r1, [r2, #10]
 2343              	.LVL72:
 2344 006a 9181     		strh	r1, [r2, #12]
 2345              	.LVL73:
 2346              	.L185:
 869:.\uart_wifi.c ****   				}
 870:.\uart_wifi.c ****             
 871:.\uart_wifi.c ****         }
 872:.\uart_wifi.c **** 	}
 873:.\uart_wifi.c ****  	if(WifidatagramWorkFlag.send_data_load)
 2347              		.loc 1 873 0
 2348 006c 2678     		ldrb	r6, [r4]
 2349 006e 0120     		mov	r0, #1
 2350 0070 0642     		tst	r6, r0
 2351 0072 00D1     		bne	.LCB1867
 2352 0074 94E0     		b	.L183	@long jump
 2353              	.LCB1867:
 874:.\uart_wifi.c ****   	 {
 875:.\uart_wifi.c ****   	   WifidatagramWorkFlag.send_data_load = 0;
 2354              		.loc 1 875 0
 2355 0076 8643     		bic	r6, r0
 2356 0078 2670     		strb	r6, [r4]
 876:.\uart_wifi.c ****   		 switch(Cmd_Function)
 2357              		.loc 1 876 0
 2358 007a 4E4C     		ldr	r4, .L230+16
 2359 007c 4E4D     		ldr	r5, .L230+20
 2360 007e 2388     		ldrh	r3, [r4]
 2361 0080 AB42     		cmp	r3, r5
 2362 0082 00D1     		bne	.LCB1874
 2363 0084 7BE0     		b	.L202	@long jump
 2364              	.LCB1874:
 2365 0086 29D8     		bhi	.L215
 2366 0088 B32B     		cmp	r3, #179
 2367 008a 66D0     		beq	.L196
 2368 008c 11D8     		bhi	.L216
 2369 008e A22B     		cmp	r3, #162
 2370 0090 69D0     		beq	.L193
 2371 0092 07D8     		bhi	.L217
 2372 0094 A02B     		cmp	r3, #160
 2373 0096 69D0     		beq	.L191
 2374 0098 A12B     		cmp	r3, #161
 2375 009a 00D0     		beq	.LCB1888
 2376 009c 80E0     		b	.L183	@long jump
 2377              	.LCB1888:
 877:.\uart_wifi.c ****   		 {
 878:.\uart_wifi.c **** //发送握手信号
 879:.\uart_wifi.c **** 				case    MCU_HANDSHAKE_DATA:
 880:.\uart_wifi.c **** 					    Mcu_Handshake_Data();
 881:.\uart_wifi.c **** 					    break;
 882:.\uart_wifi.c **** 				//启动Smarklink
ARM GAS  C:\Users\ZHANGM~1\AppData\Local\Temp\ccBCEiox.s 			page 60


 883:.\uart_wifi.c **** 				case    MCU_POWERONSMARTLINK_DATA:	 				     
 884:.\uart_wifi.c **** 					    Mcu_Poweronsmartlink_Data();	     
 885:.\uart_wifi.c **** 				 	    break;
 886:.\uart_wifi.c **** 				case    MCU_FIRMWARE_UPDATE:  //设备要求固件升级
 887:.\uart_wifi.c **** 						Mcu_Firmware_Update();
 888:.\uart_wifi.c **** 				 		break;
 889:.\uart_wifi.c **** 				case    WIFI_SENDDINGSTATE_DATA:
 890:.\uart_wifi.c **** 						Wifi_Senddingstate_Data();
 891:.\uart_wifi.c **** 					 	break;
 892:.\uart_wifi.c **** 				case    APP_HOST_STATE://APP查询设备工作状态指令	APP查询设备工作状态指令
 893:.\uart_wifi.c **** 						App_Host_State();		 		
 894:.\uart_wifi.c **** 				 		break;
 895:.\uart_wifi.c **** 				case    APP_FILTER_CHANGED_DATA: 						//0x00B2 //查询本机滤芯使用次数（n级）
 896:.\uart_wifi.c **** 						App_Filter_Changed_Data(); 
 897:.\uart_wifi.c **** 				 		break;
 898:.\uart_wifi.c **** 				case    APP_ERROR_DATA: 										//0x00B4 //查询本机故障信息
 899:.\uart_wifi.c **** 						App_Error_Data();
 900:.\uart_wifi.c **** 				 		break;
 901:.\uart_wifi.c **** 				case    APP_FILTER_USED_TIME_DATA: 					//0x00B3 //查询本机滤芯使用时间（n级）		 	
 902:.\uart_wifi.c **** 						App_Filter_Used_Time_Data();
 903:.\uart_wifi.c **** 				 		break;		 		
 904:.\uart_wifi.c **** 				case    APP_SEARCH_FILTER_MANAGE_NUM:	//查询本机滤芯管理方案号
 905:.\uart_wifi.c **** 						App_Search_Filter_Manage_Num();		 		
 906:.\uart_wifi.c **** 				 		break;
 907:.\uart_wifi.c **** 				case    APP_DOWNLOAD_FILTER_MANAGE_NUM:	//下载本机滤芯管理方案号
 908:.\uart_wifi.c **** 						App_Download_Filter_Manage_Num();			 		
 909:.\uart_wifi.c **** 				 		break;		 		 
 910:.\uart_wifi.c **** 				case    APP_POWERON:	//远程开机功能
 911:.\uart_wifi.c **** 						App_Poweron();
 912:.\uart_wifi.c **** 				 		break;
 913:.\uart_wifi.c **** 				case    APP_POWEROFF:	//远程关机功能	
 914:.\uart_wifi.c **** 						App_Poweroff();		 		
 2378              		.loc 1 914 0
 2379 009e FFF7FEFF 		bl	App_Poweroff
 2380              	.LVL74:
 915:.\uart_wifi.c **** 				 		break;	 	
 2381              		.loc 1 915 0
 2382 00a2 7DE0     		b	.L183
 2383              	.L217:
 876:.\uart_wifi.c ****   		 switch(Cmd_Function)
 2384              		.loc 1 876 0
 2385 00a4 B12B     		cmp	r3, #177
 2386 00a6 5BD0     		beq	.L194
 2387 00a8 B22B     		cmp	r3, #178
 2388 00aa 79D1     		bne	.L183
 893:.\uart_wifi.c **** 						App_Host_State();		 		
 2389              		.loc 1 893 0
 2390 00ac FFF7FEFF 		bl	App_Host_State
 2391              	.LVL75:
 894:.\uart_wifi.c **** 				 		break;
 2392              		.loc 1 894 0
 2393 00b0 76E0     		b	.L183
 2394              	.L216:
 876:.\uart_wifi.c ****   		 switch(Cmd_Function)
 2395              		.loc 1 876 0
 2396 00b2 9021     		mov	r1, #144
 2397 00b4 0A02     		lsl	r2, r1, #8
ARM GAS  C:\Users\ZHANGM~1\AppData\Local\Temp\ccBCEiox.s 			page 61


 2398 00b6 9342     		cmp	r3, r2
 2399 00b8 5BD0     		beq	.L199
 2400 00ba 06D8     		bhi	.L218
 2401 00bc B42B     		cmp	r3, #180
 2402 00be 49D0     		beq	.L197
 2403 00c0 B52B     		cmp	r3, #181
 2404 00c2 6DD1     		bne	.L183
 896:.\uart_wifi.c **** 						App_Filter_Changed_Data(); 
 2405              		.loc 1 896 0
 2406 00c4 FFF7FEFF 		bl	App_Filter_Changed_Data
 2407              	.LVL76:
 897:.\uart_wifi.c **** 				 		break;
 2408              		.loc 1 897 0
 2409 00c8 6AE0     		b	.L183
 2410              	.L218:
 876:.\uart_wifi.c ****   		 switch(Cmd_Function)
 2411              		.loc 1 876 0
 2412 00ca 3C4E     		ldr	r6, .L230+24
 2413 00cc B342     		cmp	r3, r6
 2414 00ce 53D0     		beq	.L200
 2415 00d0 3B48     		ldr	r0, .L230+28
 2416 00d2 8342     		cmp	r3, r0
 2417 00d4 64D1     		bne	.L183
 916:.\uart_wifi.c **** 				case	HOST_STATE_DATA:
 917:.\uart_wifi.c **** 						Host_State_Data();	
 918:.\uart_wifi.c **** 						break;		
 919:.\uart_wifi.c **** 				case	HOST_FILTER_CHANGED_DATA:
 920:.\uart_wifi.c **** 						Host_Filter_Changed_Data();	
 921:.\uart_wifi.c **** 						break;	
 922:.\uart_wifi.c **** 				case	HOST_FILTER_USED_TIME_DATA:
 923:.\uart_wifi.c **** 						Host_Filter_Used_Time_Data();	
 2418              		.loc 1 923 0
 2419 00d6 FFF7FEFF 		bl	Host_Filter_Used_Time_Data
 2420              	.LVL77:
 924:.\uart_wifi.c **** 						break;	
 2421              		.loc 1 924 0
 2422 00da 61E0     		b	.L183
 2423              	.L215:
 876:.\uart_wifi.c ****   		 switch(Cmd_Function)
 2424              		.loc 1 876 0
 2425 00dc 394C     		ldr	r4, .L230+32
 2426 00de A342     		cmp	r3, r4
 2427 00e0 59D0     		beq	.L208
 2428 00e2 15D8     		bhi	.L219
 2429 00e4 384D     		ldr	r5, .L230+36
 2430 00e6 AB42     		cmp	r3, r5
 2431 00e8 4FD0     		beq	.L205
 2432 00ea 08D8     		bhi	.L220
 2433 00ec 3749     		ldr	r1, .L230+40
 2434 00ee 8B42     		cmp	r3, r1
 2435 00f0 48D0     		beq	.L203
 2436 00f2 374A     		ldr	r2, .L230+44
 2437 00f4 9342     		cmp	r3, r2
 2438 00f6 53D1     		bne	.L183
 925:.\uart_wifi.c **** 				case HOST_E0_DATA:
 926:.\uart_wifi.c **** 				  	Host_E0_Data();			      
 927:.\uart_wifi.c **** 					  break;
ARM GAS  C:\Users\ZHANGM~1\AppData\Local\Temp\ccBCEiox.s 			page 62


 928:.\uart_wifi.c **** 				case HOST_E1_DATA:
 929:.\uart_wifi.c **** 				  	Host_E1_Data();			      
 930:.\uart_wifi.c **** 					  break;
 931:.\uart_wifi.c **** 				case HOST_E2_DATA:
 932:.\uart_wifi.c **** 				  	Host_E2_Data();			      
 2439              		.loc 1 932 0
 2440 00f8 FFF7FEFF 		bl	Host_E2_Data
 2441              	.LVL78:
 933:.\uart_wifi.c **** 					  break;
 2442              		.loc 1 933 0
 2443 00fc 50E0     		b	.L183
 2444              	.L220:
 876:.\uart_wifi.c ****   		 switch(Cmd_Function)
 2445              		.loc 1 876 0
 2446 00fe 354E     		ldr	r6, .L230+48
 2447 0100 B342     		cmp	r3, r6
 2448 0102 45D0     		beq	.L206
 2449 0104 3448     		ldr	r0, .L230+52
 2450 0106 8342     		cmp	r3, r0
 2451 0108 4AD1     		bne	.L183
 934:.\uart_wifi.c **** 				case HOST_E3_DATA:
 935:.\uart_wifi.c **** 				  	Host_E3_Data();			      
 936:.\uart_wifi.c **** 					  break;	
 937:.\uart_wifi.c **** 				case HOST_E4_DATA:
 938:.\uart_wifi.c **** 				  	Host_E4_Data();			      
 939:.\uart_wifi.c **** 					  break; 
 940:.\uart_wifi.c **** 				case HOST_E5_DATA:
 941:.\uart_wifi.c **** 				  	Host_E5_Data();			      
 2452              		.loc 1 941 0
 2453 010a FFF7FEFF 		bl	Host_E5_Data
 2454              	.LVL79:
 942:.\uart_wifi.c **** 					  break;
 2455              		.loc 1 942 0
 2456 010e 47E0     		b	.L183
 2457              	.L219:
 876:.\uart_wifi.c ****   		 switch(Cmd_Function)
 2458              		.loc 1 876 0
 2459 0110 324C     		ldr	r4, .L230+56
 2460 0112 A342     		cmp	r3, r4
 2461 0114 15D0     		beq	.L211
 2462 0116 08D8     		bhi	.L221
 2463 0118 314D     		ldr	r5, .L230+60
 2464 011a AB42     		cmp	r3, r5
 2465 011c 3ED0     		beq	.L209
 2466 011e 3149     		ldr	r1, .L230+64
 2467 0120 8B42     		cmp	r3, r1
 2468 0122 3DD1     		bne	.L183
 943:.\uart_wifi.c **** 				case HOST_E6_DATA:
 944:.\uart_wifi.c **** 				  	Host_E6_Data();			      
 945:.\uart_wifi.c **** 					  break;	
 946:.\uart_wifi.c **** 				case HOST_E7_DATA:
 947:.\uart_wifi.c **** 				  	Host_E7_Data();			      
 948:.\uart_wifi.c **** 					  break; 
 949:.\uart_wifi.c **** 				case HOST_E8_DATA:
 950:.\uart_wifi.c **** 				  	Host_E8_Data();			      
 2469              		.loc 1 950 0
 2470 0124 FFF7FEFF 		bl	Host_E8_Data
ARM GAS  C:\Users\ZHANGM~1\AppData\Local\Temp\ccBCEiox.s 			page 63


 2471              	.LVL80:
 951:.\uart_wifi.c **** 					  break;
 2472              		.loc 1 951 0
 2473 0128 3AE0     		b	.L183
 2474              	.L221:
 876:.\uart_wifi.c ****   		 switch(Cmd_Function)
 2475              		.loc 1 876 0
 2476 012a 2F4A     		ldr	r2, .L230+68
 2477 012c 9342     		cmp	r3, r2
 2478 012e 0BD0     		beq	.L213
 2479 0130 2E4E     		ldr	r6, .L230+72
 2480 0132 B342     		cmp	r3, r6
 2481 0134 0BD0     		beq	.L214
 2482 0136 2E48     		ldr	r0, .L230+76
 2483 0138 8342     		cmp	r3, r0
 2484 013a 31D1     		bne	.L183
 884:.\uart_wifi.c **** 					    Mcu_Poweronsmartlink_Data();	     
 2485              		.loc 1 884 0
 2486 013c FFF7FEFF 		bl	Mcu_Poweronsmartlink_Data
 2487              	.LVL81:
 885:.\uart_wifi.c **** 				 	    break;
 2488              		.loc 1 885 0
 2489 0140 2EE0     		b	.L183
 2490              	.L211:
 880:.\uart_wifi.c **** 					    Mcu_Handshake_Data();
 2491              		.loc 1 880 0
 2492 0142 FFF7FEFF 		bl	Mcu_Handshake_Data
 2493              	.LVL82:
 881:.\uart_wifi.c **** 					    break;
 2494              		.loc 1 881 0
 2495 0146 2BE0     		b	.L183
 2496              	.L213:
 887:.\uart_wifi.c **** 						Mcu_Firmware_Update();
 2497              		.loc 1 887 0
 2498 0148 FFF7FEFF 		bl	Mcu_Firmware_Update
 2499              	.LVL83:
 888:.\uart_wifi.c **** 				 		break;
 2500              		.loc 1 888 0
 2501 014c 28E0     		b	.L183
 2502              	.L214:
 890:.\uart_wifi.c **** 						Wifi_Senddingstate_Data();
 2503              		.loc 1 890 0
 2504 014e FFF7FEFF 		bl	Wifi_Senddingstate_Data
 2505              	.LVL84:
 891:.\uart_wifi.c **** 					 	break;
 2506              		.loc 1 891 0
 2507 0152 25E0     		b	.L183
 2508              	.L197:
 899:.\uart_wifi.c **** 						App_Error_Data();
 2509              		.loc 1 899 0
 2510 0154 FFF7FEFF 		bl	App_Error_Data
 2511              	.LVL85:
 900:.\uart_wifi.c **** 				 		break;
 2512              		.loc 1 900 0
 2513 0158 22E0     		b	.L183
 2514              	.L196:
 902:.\uart_wifi.c **** 						App_Filter_Used_Time_Data();
ARM GAS  C:\Users\ZHANGM~1\AppData\Local\Temp\ccBCEiox.s 			page 64


 2515              		.loc 1 902 0
 2516 015a FFF7FEFF 		bl	App_Filter_Used_Time_Data
 2517              	.LVL86:
 903:.\uart_wifi.c **** 				 		break;		 		
 2518              		.loc 1 903 0
 2519 015e 1FE0     		b	.L183
 2520              	.L194:
 905:.\uart_wifi.c **** 						App_Search_Filter_Manage_Num();		 		
 2521              		.loc 1 905 0
 2522 0160 FFF7FEFF 		bl	App_Search_Filter_Manage_Num
 2523              	.LVL87:
 906:.\uart_wifi.c **** 				 		break;
 2524              		.loc 1 906 0
 2525 0164 1CE0     		b	.L183
 2526              	.L193:
 908:.\uart_wifi.c **** 						App_Download_Filter_Manage_Num();			 		
 2527              		.loc 1 908 0
 2528 0166 FFF7FEFF 		bl	App_Download_Filter_Manage_Num
 2529              	.LVL88:
 909:.\uart_wifi.c **** 				 		break;		 		 
 2530              		.loc 1 909 0
 2531 016a 19E0     		b	.L183
 2532              	.L191:
 911:.\uart_wifi.c **** 						App_Poweron();
 2533              		.loc 1 911 0
 2534 016c FFF7FEFF 		bl	App_Poweron
 2535              	.LVL89:
 912:.\uart_wifi.c **** 				 		break;
 2536              		.loc 1 912 0
 2537 0170 16E0     		b	.L183
 2538              	.L199:
 917:.\uart_wifi.c **** 						Host_State_Data();	
 2539              		.loc 1 917 0
 2540 0172 FFF7FEFF 		bl	Host_State_Data
 2541              	.LVL90:
 918:.\uart_wifi.c **** 						break;		
 2542              		.loc 1 918 0
 2543 0176 13E0     		b	.L183
 2544              	.L200:
 920:.\uart_wifi.c **** 						Host_Filter_Changed_Data();	
 2545              		.loc 1 920 0
 2546 0178 FFF7FEFF 		bl	Host_Filter_Changed_Data
 2547              	.LVL91:
 921:.\uart_wifi.c **** 						break;	
 2548              		.loc 1 921 0
 2549 017c 10E0     		b	.L183
 2550              	.L202:
 926:.\uart_wifi.c **** 				  	Host_E0_Data();			      
 2551              		.loc 1 926 0
 2552 017e FFF7FEFF 		bl	Host_E0_Data
 2553              	.LVL92:
 927:.\uart_wifi.c **** 					  break;
 2554              		.loc 1 927 0
 2555 0182 0DE0     		b	.L183
 2556              	.L203:
 929:.\uart_wifi.c **** 				  	Host_E1_Data();			      
 2557              		.loc 1 929 0
ARM GAS  C:\Users\ZHANGM~1\AppData\Local\Temp\ccBCEiox.s 			page 65


 2558 0184 FFF7FEFF 		bl	Host_E1_Data
 2559              	.LVL93:
 930:.\uart_wifi.c **** 					  break;
 2560              		.loc 1 930 0
 2561 0188 0AE0     		b	.L183
 2562              	.L205:
 935:.\uart_wifi.c **** 				  	Host_E3_Data();			      
 2563              		.loc 1 935 0
 2564 018a FFF7FEFF 		bl	Host_E3_Data
 2565              	.LVL94:
 936:.\uart_wifi.c **** 					  break;	
 2566              		.loc 1 936 0
 2567 018e 07E0     		b	.L183
 2568              	.L206:
 938:.\uart_wifi.c **** 				  	Host_E4_Data();			      
 2569              		.loc 1 938 0
 2570 0190 FFF7FEFF 		bl	Host_E4_Data
 2571              	.LVL95:
 939:.\uart_wifi.c **** 					  break; 
 2572              		.loc 1 939 0
 2573 0194 04E0     		b	.L183
 2574              	.L208:
 944:.\uart_wifi.c **** 				  	Host_E6_Data();			      
 2575              		.loc 1 944 0
 2576 0196 FFF7FEFF 		bl	Host_E6_Data
 2577              	.LVL96:
 945:.\uart_wifi.c **** 					  break;	
 2578              		.loc 1 945 0
 2579 019a 01E0     		b	.L183
 2580              	.L209:
 947:.\uart_wifi.c **** 				  	Host_E7_Data();			      
 2581              		.loc 1 947 0
 2582 019c FFF7FEFF 		bl	Host_E7_Data
 2583              	.LVL97:
 2584              	.L183:
 952:.\uart_wifi.c **** 
 953:.\uart_wifi.c **** 				default:			 		 
 954:.\uart_wifi.c **** 					   break;
 955:.\uart_wifi.c ****   		 }		 		  
 956:.\uart_wifi.c ****   	 } 		 					
 957:.\uart_wifi.c **** }
 2585              		.loc 1 957 0
 2586              		@ sp needed for prologue
 2587 01a0 70BD     		pop	{r4, r5, r6, pc}
 2588              	.L231:
 2589 01a2 C046     		.align	2
 2590              	.L230:
 2591 01a4 00000000 		.word	WifidatagramWorkFlag
 2592 01a8 00000000 		.word	Send_Interval_Counter
 2593 01ac 00000000 		.word	Cmd_Function_Num
 2594 01b0 00000000 		.word	Cmd_Function_Buf
 2595 01b4 00000000 		.word	Cmd_Function
 2596 01b8 F0900000 		.word	37104
 2597 01bc 01900000 		.word	36865
 2598 01c0 02900000 		.word	36866
 2599 01c4 F6900000 		.word	37110
 2600 01c8 F3900000 		.word	37107
ARM GAS  C:\Users\ZHANGM~1\AppData\Local\Temp\ccBCEiox.s 			page 66


 2601 01cc F1900000 		.word	37105
 2602 01d0 F2900000 		.word	37106
 2603 01d4 F4900000 		.word	37108
 2604 01d8 F5900000 		.word	37109
 2605 01dc C0CC0000 		.word	52416
 2606 01e0 F7900000 		.word	37111
 2607 01e4 F8900000 		.word	37112
 2608 01e8 C5CC0000 		.word	52421
 2609 01ec D0CC0000 		.word	52432
 2610 01f0 C2CC0000 		.word	52418
 2611              		.cfi_endproc
 2612              	.LFE71:
 2613              		.size	Send_To_WifiUart, .-Send_To_WifiUart
 2614              		.section	.text.Load_Wifi_State,"ax",%progbits
 2615              		.align	1
 2616              		.global	Load_Wifi_State
 2617              		.code	16
 2618              		.thumb_func
 2619              		.type	Load_Wifi_State, %function
 2620              	Load_Wifi_State:
 2621              	.LFB72:
 958:.\uart_wifi.c **** 
 959:.\uart_wifi.c **** 
 960:.\uart_wifi.c **** 
 961:.\uart_wifi.c **** 
 962:.\uart_wifi.c **** /******************************************************************************
 963:.\uart_wifi.c **** * 函 数 名:  Load_Wifi_State (uint8 Sendding_Data )
 964:.\uart_wifi.c **** * 函数功能: wifi状态数据
 965:.\uart_wifi.c **** * 入口参数: 无
 966:.\uart_wifi.c **** * 返    回: 
 967:.\uart_wifi.c **** *******************************************************************************/
 968:.\uart_wifi.c **** 
 969:.\uart_wifi.c **** uint16 Load_Wifi_State (uint8 Sendding_Data )
 970:.\uart_wifi.c **** {
 2622              		.loc 1 970 0
 2623              		.cfi_startproc
 2624              	.LVL98:
 2625 0000 00B5     		push	{lr}
 2626              	.LCFI39:
 2627              		.cfi_def_cfa_offset 4
 2628              		.cfi_offset 14, -4
 2629 0002 0828     		cmp	r0, #8
 2630 0004 03D8     		bhi	.L234
 2631 0006 034B     		ldr	r3, .L235
 2632 0008 4000     		lsl	r0, r0, #1
 2633              	.LVL99:
 2634 000a C05A     		ldrh	r0, [r0, r3]
 2635 000c 00E0     		b	.L233
 2636              	.LVL100:
 2637              	.L234:
 2638              		.loc 1 970 0
 2639 000e 0248     		ldr	r0, .L235+4
 2640              	.LVL101:
 2641              	.L233:
 971:.\uart_wifi.c **** 	uint16 Value_Wifi_State;
 972:.\uart_wifi.c **** 	switch(Sendding_Data)
 973:.\uart_wifi.c **** 	{
ARM GAS  C:\Users\ZHANGM~1\AppData\Local\Temp\ccBCEiox.s 			page 67


 974:.\uart_wifi.c ****  		case WIFI_SENDDINGSTATE_DATA_NO_LINK_ROUTER://无法连接路由器				      
 975:.\uart_wifi.c **** 		  Value_Wifi_State =0100;   				  				  					  					  					  					  					  					  				  					  		
 976:.\uart_wifi.c **** 		  break;
 977:.\uart_wifi.c **** 		case WIFI_SENDDINGSTATE_DATA_NO_LINK_SERVER://无法连接服务器				      
 978:.\uart_wifi.c **** 		  Value_Wifi_State =1000;   				  				  					  					  					  					  					  					  				  					  		
 979:.\uart_wifi.c **** 		  break;
 980:.\uart_wifi.c **** 		case WIFI_SENDDINGSTATE_DATA_LINK_ROUTER:	//已经路由器（指示灯常亮）			      
 981:.\uart_wifi.c ****      	Value_Wifi_State =2000;			  				  					  					  					  					  					  					  				  					  				
 982:.\uart_wifi.c **** 		  break;
 983:.\uart_wifi.c **** 		case WIFI_SENDDINGSTATE_DATA_LINK_SERVER:		//已连接服务器（指示灯常亮）		      
 984:.\uart_wifi.c **** 		  Value_Wifi_State =3000;   				  				  					  					  					  					  					  					  				  					  		
 985:.\uart_wifi.c **** 		  break;
 986:.\uart_wifi.c **** 		case WIFI_SENDDINGSTATE_DATA_LINK_SMART_SETTING:		//已进入SmartLink等待App配置(指示灯
 987:.\uart_wifi.c **** 		  Value_Wifi_State =4000;  				     				  				  					  					  					  					  					  					  				  	
 988:.\uart_wifi.c **** 		  break;
 989:.\uart_wifi.c **** 		case WIFI_SENDDINGSTATE_DATA_LINK_SMART_SETTING_WAITTING:	//正在进SmartLink 配置中(指示
 990:.\uart_wifi.c **** 		  Value_Wifi_State =5000;   
 991:.\uart_wifi.c **** 		  break;
 992:.\uart_wifi.c **** 		case WIFI_SENDDINGSTATE_DATA_SMART_SETTING_FAIL:	//06：SmartLink 配置失败
 993:.\uart_wifi.c **** 			Value_Wifi_State =6000; 			      
 994:.\uart_wifi.c **** 		  break;
 995:.\uart_wifi.c **** 		case WIFI_SENDDINGSTATE_DATA_SMART_SETTING_OK:	//07：SmartLink配置成功（指示灯常亮同
 996:.\uart_wifi.c **** 			Value_Wifi_State =7000; 			      			     				  				  					  					  					  					  					  					  	
 997:.\uart_wifi.c **** 		  break;
 998:.\uart_wifi.c **** 		case WIFI_SENDDINGSTATE_DATA_SOFTAP:	//08：SoftAP状态			      
 999:.\uart_wifi.c **** 	    Value_Wifi_State =8000; 	 				  				  					  					  					  				 					  					  				  					  			
1000:.\uart_wifi.c **** 		  break;
1001:.\uart_wifi.c **** 	 	default:	
1002:.\uart_wifi.c **** 	 		Value_Wifi_State =8765; 	 				 				 				 
1003:.\uart_wifi.c **** 			break;
1004:.\uart_wifi.c **** 	}
1005:.\uart_wifi.c **** 	return Value_Wifi_State;	
1006:.\uart_wifi.c **** }
 2642              		.loc 1 1006 0
 2643              		@ sp needed for prologue
 2644 0010 00BD     		pop	{pc}
 2645              	.L236:
 2646 0012 C046     		.align	2
 2647              	.L235:
 2648 0014 00000000 		.word	.LANCHOR1
 2649 0018 3D220000 		.word	8765
 2650              		.cfi_endproc
 2651              	.LFE72:
 2652              		.size	Load_Wifi_State, .-Load_Wifi_State
 2653              		.section	.text.Process_From_Wifi_Ctl_Ack_Data,"ax",%progbits
 2654              		.align	1
 2655              		.global	Process_From_Wifi_Ctl_Ack_Data
 2656              		.code	16
 2657              		.thumb_func
 2658              		.type	Process_From_Wifi_Ctl_Ack_Data, %function
 2659              	Process_From_Wifi_Ctl_Ack_Data:
 2660              	.LFB73:
1007:.\uart_wifi.c **** 
1008:.\uart_wifi.c **** 
1009:.\uart_wifi.c **** /******************************************************************************
1010:.\uart_wifi.c **** * 函 数 名: void Process_From_Wifi_Ctl_Ack_Data(void)
1011:.\uart_wifi.c **** * 函数功能: app、服务器控制数据
ARM GAS  C:\Users\ZHANGM~1\AppData\Local\Temp\ccBCEiox.s 			page 68


1012:.\uart_wifi.c **** * 入口参数: 无
1013:.\uart_wifi.c **** * 返    回: 
1014:.\uart_wifi.c **** *******************************************************************************/
1015:.\uart_wifi.c **** void Process_From_Wifi_Ctl_Ack_Data(void)
1016:.\uart_wifi.c **** {
 2661              		.loc 1 1016 0
 2662              		.cfi_startproc
 2663 0000 38B5     		push	{r3, r4, r5, lr}
 2664              	.LCFI40:
 2665              		.cfi_def_cfa_offset 16
 2666              		.cfi_offset 3, -16
 2667              		.cfi_offset 4, -12
 2668              		.cfi_offset 5, -8
 2669              		.cfi_offset 14, -4
1017:.\uart_wifi.c **** 	 if((WifiWorkFlag.gcReceComm1OK)&&(giWIFIDATALength<=(WIFIBUFLEN-10-1))) 
 2670              		.loc 1 1017 0
 2671 0002 334B     		ldr	r3, .L257
 2672 0004 0421     		mov	r1, #4
 2673 0006 1A78     		ldrb	r2, [r3]
 2674 0008 0A42     		tst	r2, r1
 2675 000a 5FD0     		beq	.L237
 2676              		.loc 1 1017 0 is_stmt 0 discriminator 1
 2677 000c 3148     		ldr	r0, .L257+4
 2678 000e 0588     		ldrh	r5, [r0]
 2679 0010 592D     		cmp	r5, #89
 2680 0012 5BD8     		bhi	.L237
1018:.\uart_wifi.c **** 	 {
1019:.\uart_wifi.c **** 	   WifiWorkFlag.gcReceComm1OK =0;
 2681              		.loc 1 1019 0 is_stmt 1
 2682 0014 8A43     		bic	r2, r1
 2683 0016 1A70     		strb	r2, [r3]
1020:.\uart_wifi.c **** 		 if(ATReceBuffer[0].gcATReceData[10+giWIFIDATALength]==Sum_Make_Verify (&ATReceBuffer[0].gcATRece
 2684              		.loc 1 1020 0
 2685 0018 2F4C     		ldr	r4, .L257+8
 2686 001a 2B1C     		mov	r3, r5
 2687 001c 0A33     		add	r3, r3, #10
 2688 001e 99B2     		uxth	r1, r3
 2689 0020 201C     		mov	r0, r4
 2690 0022 FFF7FEFF 		bl	Sum_Make_Verify
 2691              	.LVL102:
 2692 0026 6219     		add	r2, r4, r5
 2693 0028 917A     		ldrb	r1, [r2, #10]
 2694 002a 8142     		cmp	r1, r0
 2695 002c 4ED1     		bne	.L237
1021:.\uart_wifi.c **** 		 {
1022:.\uart_wifi.c **** 			 switch(giWIFICommand)
 2696              		.loc 1 1022 0
 2697 002e 2B48     		ldr	r0, .L257+12
 2698 0030 0088     		ldrh	r0, [r0]
 2699 0032 B328     		cmp	r0, #179
 2700 0034 48D0     		beq	.L255
 2701 0036 13D8     		bhi	.L252
 2702 0038 A228     		cmp	r0, #162
 2703 003a 25D0     		beq	.L243
 2704 003c 0BD8     		bhi	.L253
 2705 003e A028     		cmp	r0, #160
 2706 0040 3BD0     		beq	.L241
ARM GAS  C:\Users\ZHANGM~1\AppData\Local\Temp\ccBCEiox.s 			page 69


 2707 0042 A128     		cmp	r0, #161
 2708 0044 42D1     		bne	.L237
1023:.\uart_wifi.c **** 			 {
1024:.\uart_wifi.c **** 			 	case WIFI_SENDDINGSTATE_DATA:			
1025:.\uart_wifi.c **** 			 				SmarkLink_State = ATReceBuffer[0].gcATReceData[10];         //获取当前状态	
1026:.\uart_wifi.c **** 			 				Load_Command(WIFI_SENDDINGSTATE_DATA);  				  					  					  					  					  					  					  			
1027:.\uart_wifi.c **** 					  	break;
1028:.\uart_wifi.c **** 				case WIFI_FIRMWARE_UPDATE_DATA:	
1029:.\uart_wifi.c **** 							Load_Command(WIFI_FIRMWARE_UPDATE_DATA); 							
1030:.\uart_wifi.c **** 							break;
1031:.\uart_wifi.c **** 				case WIFI_DECT_DATA:
1032:.\uart_wifi.c **** 							Load_Command(WIFI_DECT_DATA);  	
1033:.\uart_wifi.c **** 							break;											
1034:.\uart_wifi.c **** 			 	case  APP_HOST_STATE://APP查询设备工作状态指令	APP查询设备工作状态指令
1035:.\uart_wifi.c **** 			 				Load_Command(APP_HOST_STATE);  		
1036:.\uart_wifi.c **** 			 		 		break;	
1037:.\uart_wifi.c **** 				case  APP_FILTER_CHANGED_DATA: 						//0x00B2 //查询本机滤芯使用次数（n级）
1038:.\uart_wifi.c **** 							Load_Command(APP_FILTER_CHANGED_DATA); 
1039:.\uart_wifi.c **** 			 		 		break;
1040:.\uart_wifi.c **** 				case  APP_ERROR_DATA: 											//0x00B4 //查询本机故障信息
1041:.\uart_wifi.c **** 							Load_Command(APP_ERROR_DATA); 
1042:.\uart_wifi.c **** 			 		 		break;
1043:.\uart_wifi.c **** 				case  APP_FILTER_USED_TIME_DATA: 					//0x00B3 //查询本机滤芯使用时间（n级）		 		
1044:.\uart_wifi.c **** 			 				Load_Command(APP_FILTER_USED_TIME_DATA); 
1045:.\uart_wifi.c **** 			 		 		break;
1046:.\uart_wifi.c **** 			 	case  APP_SEARCH_FILTER_MANAGE_NUM:	//查询本机滤芯管理方案号
1047:.\uart_wifi.c **** 			 				Load_Command(APP_SEARCH_FILTER_MANAGE_NUM); 	
1048:.\uart_wifi.c **** 			 		 		break;
1049:.\uart_wifi.c **** 			 	case  APP_DOWNLOAD_FILTER_MANAGE_NUM:	//下载本机滤芯管理方案号
1050:.\uart_wifi.c **** 			 				Filter_Full_Data_Buf[0]= ATReceBuffer[0].gcATReceData[10]; 
1051:.\uart_wifi.c **** 			 				Filter_Full_Data_Buf[0]= (Filter_Full_Data_Buf[0]<<8)+ATReceBuffer[0].gcATReceData[11];
1052:.\uart_wifi.c **** 			 				Filter_Full_Data_Buf[1]= ATReceBuffer[0].gcATReceData[12]; 
1053:.\uart_wifi.c **** 			 				Filter_Full_Data_Buf[1]= (Filter_Full_Data_Buf[0]<<8)+ATReceBuffer[0].gcATReceData[13];
1054:.\uart_wifi.c **** 			 				Filter_Full_Data_Buf[2]= ATReceBuffer[0].gcATReceData[14]; 
1055:.\uart_wifi.c **** 			 				Filter_Full_Data_Buf[2]= (Filter_Full_Data_Buf[0]<<8)+ATReceBuffer[0].gcATReceData[15];
1056:.\uart_wifi.c **** 			 				Filter_Full_Data_Buf[3]= ATReceBuffer[0].gcATReceData[16]; 
1057:.\uart_wifi.c **** 			 				Filter_Full_Data_Buf[3]= (Filter_Full_Data_Buf[0]<<8)+ATReceBuffer[0].gcATReceData[17]; 
1058:.\uart_wifi.c **** 			 				Filter_Full_Data_Buf[4]= ATReceBuffer[0].gcATReceData[18]; 
1059:.\uart_wifi.c **** 			 				Filter_Full_Data_Buf[4]= (Filter_Full_Data_Buf[0]<<8)+ATReceBuffer[0].gcATReceData[19]; 
1060:.\uart_wifi.c **** 			 				Filter_Full_Data_Buf[5]= ATReceBuffer[0].gcATReceData[20]; 
1061:.\uart_wifi.c **** 			 				Filter_Full_Data_Buf[5]= (Filter_Full_Data_Buf[0]<<8)+ATReceBuffer[0].gcATReceData[21]; 
1062:.\uart_wifi.c **** 			 				Load_Command(APP_DOWNLOAD_FILTER_MANAGE_NUM); 		 		
1063:.\uart_wifi.c **** 			 		 		break;			 		 
1064:.\uart_wifi.c **** 			 	case  APP_POWERON:	//远程开机功能
1065:.\uart_wifi.c **** 			 				WorkFlag.poweroff=0;
1066:.\uart_wifi.c **** 			 				WorkFlag.poweron=1;
1067:.\uart_wifi.c **** 			 				Load_Command(APP_POWERON); 
1068:.\uart_wifi.c **** 			 		 		break;
1069:.\uart_wifi.c **** 			 	case  APP_POWEROFF:	//远程关机功能	
1070:.\uart_wifi.c **** 			 				WorkFlag.poweroff=1;
 2709              		.loc 1 1070 0
 2710 0046 264D     		ldr	r5, .L257+16
 2711 0048 8023     		mov	r3, #128
 2712 004a 6C78     		ldrb	r4, [r5, #1]
 2713 004c 5A42     		neg	r2, r3
 2714 004e 2243     		orr	r2, r4
1071:.\uart_wifi.c **** 			 				WorkFlag.poweron=0;
ARM GAS  C:\Users\ZHANGM~1\AppData\Local\Temp\ccBCEiox.s 			page 70


 2715              		.loc 1 1071 0
 2716 0050 BF21     		mov	r1, #191
 2717 0052 0A40     		and	r2, r1
 2718 0054 37E0     		b	.L256
 2719              	.L253:
1022:.\uart_wifi.c **** 			 switch(giWIFICommand)
 2720              		.loc 1 1022 0
 2721 0056 B128     		cmp	r0, #177
 2722 0058 36D0     		beq	.L255
 2723 005a B228     		cmp	r0, #178
 2724 005c 36D1     		bne	.L237
 2725 005e 33E0     		b	.L255
 2726              	.L252:
 2727 0060 204B     		ldr	r3, .L257+20
 2728 0062 9842     		cmp	r0, r3
 2729 0064 0CD0     		beq	.L249
 2730 0066 04D8     		bhi	.L254
 2731 0068 B428     		cmp	r0, #180
 2732 006a 2DD0     		beq	.L255
 2733 006c B528     		cmp	r0, #181
 2734 006e 2DD1     		bne	.L237
 2735 0070 2AE0     		b	.L255
 2736              	.L254:
 2737 0072 1D49     		ldr	r1, .L257+24
 2738 0074 8842     		cmp	r0, r1
 2739 0076 27D0     		beq	.L255
 2740 0078 1C4A     		ldr	r2, .L257+28
 2741 007a 9042     		cmp	r0, r2
 2742 007c 26D1     		bne	.L237
 2743 007e 23E0     		b	.L255
 2744              	.L249:
1025:.\uart_wifi.c **** 			 				SmarkLink_State = ATReceBuffer[0].gcATReceData[10];         //获取当前状态	
 2745              		.loc 1 1025 0
 2746 0080 A47A     		ldrb	r4, [r4, #10]
 2747 0082 1B4D     		ldr	r5, .L257+32
 2748 0084 2C70     		strb	r4, [r5]
 2749 0086 1FE0     		b	.L255
 2750              	.L243:
1050:.\uart_wifi.c **** 			 				Filter_Full_Data_Buf[0]= ATReceBuffer[0].gcATReceData[10]; 
 2751              		.loc 1 1050 0
 2752 0088 A57A     		ldrb	r5, [r4, #10]
1051:.\uart_wifi.c **** 			 				Filter_Full_Data_Buf[0]= (Filter_Full_Data_Buf[0]<<8)+ATReceBuffer[0].gcATReceData[11];
 2753              		.loc 1 1051 0
 2754 008a E17A     		ldrb	r1, [r4, #11]
 2755 008c 2A02     		lsl	r2, r5, #8
 2756 008e 5318     		add	r3, r2, r1
 2757 0090 9DB2     		uxth	r5, r3
 2758 0092 184B     		ldr	r3, .L257+36
1053:.\uart_wifi.c **** 			 				Filter_Full_Data_Buf[1]= (Filter_Full_Data_Buf[0]<<8)+ATReceBuffer[0].gcATReceData[13];
 2759              		.loc 1 1053 0
 2760 0094 2A02     		lsl	r2, r5, #8
1051:.\uart_wifi.c **** 			 				Filter_Full_Data_Buf[0]= (Filter_Full_Data_Buf[0]<<8)+ATReceBuffer[0].gcATReceData[11];
 2761              		.loc 1 1051 0
 2762 0096 1D80     		strh	r5, [r3]
1053:.\uart_wifi.c **** 			 				Filter_Full_Data_Buf[1]= (Filter_Full_Data_Buf[0]<<8)+ATReceBuffer[0].gcATReceData[13];
 2763              		.loc 1 1053 0
 2764 0098 617B     		ldrb	r1, [r4, #13]
ARM GAS  C:\Users\ZHANGM~1\AppData\Local\Temp\ccBCEiox.s 			page 71


 2765 009a 95B2     		uxth	r5, r2
 2766 009c 6A18     		add	r2, r5, r1
 2767 009e 5A80     		strh	r2, [r3, #2]
1055:.\uart_wifi.c **** 			 				Filter_Full_Data_Buf[2]= (Filter_Full_Data_Buf[0]<<8)+ATReceBuffer[0].gcATReceData[15];
 2768              		.loc 1 1055 0
 2769 00a0 E17B     		ldrb	r1, [r4, #15]
 2770 00a2 6A18     		add	r2, r5, r1
 2771 00a4 9A80     		strh	r2, [r3, #4]
1057:.\uart_wifi.c **** 			 				Filter_Full_Data_Buf[3]= (Filter_Full_Data_Buf[0]<<8)+ATReceBuffer[0].gcATReceData[17]; 
 2772              		.loc 1 1057 0
 2773 00a6 617C     		ldrb	r1, [r4, #17]
 2774 00a8 6A18     		add	r2, r5, r1
 2775 00aa DA80     		strh	r2, [r3, #6]
1059:.\uart_wifi.c **** 			 				Filter_Full_Data_Buf[4]= (Filter_Full_Data_Buf[0]<<8)+ATReceBuffer[0].gcATReceData[19]; 
 2776              		.loc 1 1059 0
 2777 00ac E17C     		ldrb	r1, [r4, #19]
 2778 00ae 6A18     		add	r2, r5, r1
 2779 00b0 1A81     		strh	r2, [r3, #8]
1061:.\uart_wifi.c **** 			 				Filter_Full_Data_Buf[5]= (Filter_Full_Data_Buf[0]<<8)+ATReceBuffer[0].gcATReceData[21]; 
 2780              		.loc 1 1061 0
 2781 00b2 647D     		ldrb	r4, [r4, #21]
 2782 00b4 2D19     		add	r5, r5, r4
 2783 00b6 5D81     		strh	r5, [r3, #10]
 2784 00b8 06E0     		b	.L255
 2785              	.L241:
1065:.\uart_wifi.c **** 			 				WorkFlag.poweroff=0;
 2786              		.loc 1 1065 0
 2787 00ba 094D     		ldr	r5, .L257+16
1066:.\uart_wifi.c **** 			 				WorkFlag.poweron=1;
 2788              		.loc 1 1066 0
 2789 00bc 7F22     		mov	r2, #127
1065:.\uart_wifi.c **** 			 				WorkFlag.poweroff=0;
 2790              		.loc 1 1065 0
 2791 00be 6C78     		ldrb	r4, [r5, #1]
1066:.\uart_wifi.c **** 			 				WorkFlag.poweron=1;
 2792              		.loc 1 1066 0
 2793 00c0 4023     		mov	r3, #64
 2794 00c2 2240     		and	r2, r4
 2795 00c4 1A43     		orr	r2, r3
 2796              	.L256:
 2797              		.loc 1 1071 0
 2798 00c6 6A70     		strb	r2, [r5, #1]
 2799              	.L255:
1072:.\uart_wifi.c **** 			 				Load_Command(APP_POWEROFF); 
 2800              		.loc 1 1072 0
 2801 00c8 FFF7FEFF 		bl	Load_Command
 2802              	.LVL103:
 2803              	.L237:
1073:.\uart_wifi.c **** 			 		 		break;
1074:.\uart_wifi.c **** 				 default:				 				 				 
1075:.\uart_wifi.c **** 					break;
1076:.\uart_wifi.c **** 				 
1077:.\uart_wifi.c **** 			 } 
1078:.\uart_wifi.c **** 		 }
1079:.\uart_wifi.c **** 		}		 					
1080:.\uart_wifi.c **** }
 2804              		.loc 1 1080 0
ARM GAS  C:\Users\ZHANGM~1\AppData\Local\Temp\ccBCEiox.s 			page 72


 2805              		@ sp needed for prologue
 2806 00cc 38BD     		pop	{r3, r4, r5, pc}
 2807              	.L258:
 2808 00ce C046     		.align	2
 2809              	.L257:
 2810 00d0 00000000 		.word	WifiWorkFlag
 2811 00d4 00000000 		.word	giWIFIDATALength
 2812 00d8 00000000 		.word	ATReceBuffer
 2813 00dc 00000000 		.word	giWIFICommand
 2814 00e0 00000000 		.word	WorkFlag
 2815 00e4 D0CC0000 		.word	52432
 2816 00e8 D2CC0000 		.word	52434
 2817 00ec D6CC0000 		.word	52438
 2818 00f0 00000000 		.word	SmarkLink_State
 2819 00f4 00000000 		.word	Filter_Full_Data_Buf
 2820              		.cfi_endproc
 2821              	.LFE73:
 2822              		.size	Process_From_Wifi_Ctl_Ack_Data, .-Process_From_Wifi_Ctl_Ack_Data
 2823              		.section	.text.Process_From_Wifi_Noa_Data,"ax",%progbits
 2824              		.align	1
 2825              		.global	Process_From_Wifi_Noa_Data
 2826              		.code	16
 2827              		.thumb_func
 2828              		.type	Process_From_Wifi_Noa_Data, %function
 2829              	Process_From_Wifi_Noa_Data:
 2830              	.LFB74:
1081:.\uart_wifi.c **** /******************************************************************************
1082:.\uart_wifi.c **** * 函 数 名: void Process_From_Wifi_Noa_Data(void)
1083:.\uart_wifi.c **** * 函数功能: app、服务器控制数据
1084:.\uart_wifi.c **** * 入口参数: 无
1085:.\uart_wifi.c **** * 返    回: 
1086:.\uart_wifi.c **** *******************************************************************************/
1087:.\uart_wifi.c **** void Process_From_Wifi_Noa_Data(void)
1088:.\uart_wifi.c **** {
 2831              		.loc 1 1088 0
 2832              		.cfi_startproc
 2833 0000 38B5     		push	{r3, r4, r5, lr}
 2834              	.LCFI41:
 2835              		.cfi_def_cfa_offset 16
 2836              		.cfi_offset 3, -16
 2837              		.cfi_offset 4, -12
 2838              		.cfi_offset 5, -8
 2839              		.cfi_offset 14, -4
1089:.\uart_wifi.c **** 	 if((WifiWorkFlag.gcReceComm1OK)&&(giWIFIDATALength<=(WIFIBUFLEN-10-1)))
 2840              		.loc 1 1089 0
 2841 0002 0F4B     		ldr	r3, .L264
 2842 0004 0421     		mov	r1, #4
 2843 0006 1A78     		ldrb	r2, [r3]
 2844 0008 0A42     		tst	r2, r1
 2845 000a 18D0     		beq	.L259
 2846              		.loc 1 1089 0 is_stmt 0 discriminator 1
 2847 000c 0D48     		ldr	r0, .L264+4
 2848 000e 0588     		ldrh	r5, [r0]
 2849 0010 592D     		cmp	r5, #89
 2850 0012 14D8     		bhi	.L259
1090:.\uart_wifi.c **** 	 {
1091:.\uart_wifi.c **** 	   WifiWorkFlag.gcReceComm1OK =0;
ARM GAS  C:\Users\ZHANGM~1\AppData\Local\Temp\ccBCEiox.s 			page 73


 2851              		.loc 1 1091 0 is_stmt 1
 2852 0014 8A43     		bic	r2, r1
 2853 0016 1A70     		strb	r2, [r3]
1092:.\uart_wifi.c **** 		 if(ATReceBuffer[0].gcATReceData[10+giWIFIDATALength]==Sum_Make_Verify (&ATReceBuffer[0].gcATRece
 2854              		.loc 1 1092 0
 2855 0018 0B4C     		ldr	r4, .L264+8
 2856 001a 2B1C     		mov	r3, r5
 2857 001c 0A33     		add	r3, r3, #10
 2858 001e 99B2     		uxth	r1, r3
 2859 0020 201C     		mov	r0, r4
 2860 0022 FFF7FEFF 		bl	Sum_Make_Verify
 2861              	.LVL104:
 2862 0026 6219     		add	r2, r4, r5
 2863 0028 917A     		ldrb	r1, [r2, #10]
 2864 002a 8142     		cmp	r1, r0
 2865 002c 07D1     		bne	.L259
1093:.\uart_wifi.c **** 		 {
1094:.\uart_wifi.c **** 			 switch(giWIFICommand)
 2866              		.loc 1 1094 0
 2867 002e 0748     		ldr	r0, .L264+12
 2868 0030 074B     		ldr	r3, .L264+16
 2869 0032 0588     		ldrh	r5, [r0]
 2870 0034 9D42     		cmp	r5, r3
 2871 0036 02D1     		bne	.L259
1095:.\uart_wifi.c **** 			 {
1096:.\uart_wifi.c **** 			 		case WIFI_SENDDINGSTATE_DATA:				      
1097:.\uart_wifi.c **** 					    	SmarkLink_State = ATReceBuffer[0].gcATReceData[10];         //获取当前状态		   				
 2872              		.loc 1 1097 0
 2873 0038 A47A     		ldrb	r4, [r4, #10]
 2874 003a 064A     		ldr	r2, .L264+20
 2875 003c 1470     		strb	r4, [r2]
 2876              	.L259:
1098:.\uart_wifi.c **** 					  break;
1099:.\uart_wifi.c **** 				 default:				 				 				 
1100:.\uart_wifi.c **** 					break;
1101:.\uart_wifi.c **** 				 
1102:.\uart_wifi.c **** 			 } 
1103:.\uart_wifi.c **** 		 }
1104:.\uart_wifi.c **** 	 }		 					
1105:.\uart_wifi.c **** }
 2877              		.loc 1 1105 0
 2878              		@ sp needed for prologue
 2879 003e 38BD     		pop	{r3, r4, r5, pc}
 2880              	.L265:
 2881              		.align	2
 2882              	.L264:
 2883 0040 00000000 		.word	WifiWorkFlag
 2884 0044 00000000 		.word	giWIFIDATALength
 2885 0048 00000000 		.word	ATReceBuffer
 2886 004c 00000000 		.word	giWIFICommand
 2887 0050 D0CC0000 		.word	52432
 2888 0054 00000000 		.word	SmarkLink_State
 2889              		.cfi_endproc
 2890              	.LFE74:
 2891              		.size	Process_From_Wifi_Noa_Data, .-Process_From_Wifi_Noa_Data
 2892              		.section	.text.Process_From_Wifi_Ack_Data,"ax",%progbits
 2893              		.align	1
ARM GAS  C:\Users\ZHANGM~1\AppData\Local\Temp\ccBCEiox.s 			page 74


 2894              		.global	Process_From_Wifi_Ack_Data
 2895              		.code	16
 2896              		.thumb_func
 2897              		.type	Process_From_Wifi_Ack_Data, %function
 2898              	Process_From_Wifi_Ack_Data:
 2899              	.LFB75:
1106:.\uart_wifi.c **** /******************************************************************************
1107:.\uart_wifi.c **** * 函 数 名: void Process_From_Wifi_Ack_Data(void)
1108:.\uart_wifi.c **** * 函数功能: wifi应答数据
1109:.\uart_wifi.c **** * 入口参数: 无
1110:.\uart_wifi.c **** * 返    回: 
1111:.\uart_wifi.c **** *******************************************************************************/
1112:.\uart_wifi.c **** void Process_From_Wifi_Ack_Data(void)
1113:.\uart_wifi.c **** {
 2900              		.loc 1 1113 0
 2901              		.cfi_startproc
 2902 0000 70B5     		push	{r4, r5, r6, lr}
 2903              	.LCFI42:
 2904              		.cfi_def_cfa_offset 16
 2905              		.cfi_offset 4, -16
 2906              		.cfi_offset 5, -12
 2907              		.cfi_offset 6, -8
 2908              		.cfi_offset 14, -4
1114:.\uart_wifi.c **** 	 if((WifiWorkFlag.gcReceComm1OK)&&(giWIFIDATALength<=(WIFIBUFLEN-10-1)))
 2909              		.loc 1 1114 0
 2910 0002 2E4B     		ldr	r3, .L312
 2911 0004 0425     		mov	r5, #4
 2912 0006 1A78     		ldrb	r2, [r3]
 2913 0008 2A42     		tst	r2, r5
 2914 000a 55D0     		beq	.L266
 2915              		.loc 1 1114 0 is_stmt 0 discriminator 1
 2916 000c 2C49     		ldr	r1, .L312+4
 2917 000e 0E88     		ldrh	r6, [r1]
 2918 0010 592E     		cmp	r6, #89
 2919 0012 51D8     		bhi	.L266
1115:.\uart_wifi.c **** 	 {
1116:.\uart_wifi.c **** 	   WifiWorkFlag.gcReceComm1OK =0;
1117:.\uart_wifi.c **** 		 if(ATReceBuffer[0].gcATReceData[10+giWIFIDATALength]==Sum_Make_Verify (&ATReceBuffer[0].gcATRece
 2920              		.loc 1 1117 0 is_stmt 1
 2921 0014 2B4C     		ldr	r4, .L312+8
 2922 0016 301C     		mov	r0, r6
1116:.\uart_wifi.c **** 	   WifiWorkFlag.gcReceComm1OK =0;
 2923              		.loc 1 1116 0
 2924 0018 AA43     		bic	r2, r5
 2925              		.loc 1 1117 0
 2926 001a 0A30     		add	r0, r0, #10
1116:.\uart_wifi.c **** 	   WifiWorkFlag.gcReceComm1OK =0;
 2927              		.loc 1 1116 0
 2928 001c 1A70     		strb	r2, [r3]
 2929              		.loc 1 1117 0
 2930 001e 81B2     		uxth	r1, r0
 2931 0020 201C     		mov	r0, r4
 2932 0022 FFF7FEFF 		bl	Sum_Make_Verify
 2933              	.LVL105:
 2934 0026 A319     		add	r3, r4, r6
 2935 0028 997A     		ldrb	r1, [r3, #10]
 2936 002a 221C     		mov	r2, r4
ARM GAS  C:\Users\ZHANGM~1\AppData\Local\Temp\ccBCEiox.s 			page 75


 2937 002c 8142     		cmp	r1, r0
 2938 002e 43D1     		bne	.L266
1118:.\uart_wifi.c **** 		 {
1119:.\uart_wifi.c **** 			 switch(giWIFICommand)
 2939              		.loc 1 1119 0
 2940 0030 254E     		ldr	r6, .L312+12
 2941 0032 264B     		ldr	r3, .L312+16
 2942 0034 3088     		ldrh	r0, [r6]
 2943 0036 9842     		cmp	r0, r3
 2944 0038 2FD0     		beq	.L281
 2945 003a 10D8     		bhi	.L286
 2946 003c 2449     		ldr	r1, .L312+20
 2947 003e 8842     		cmp	r0, r1
 2948 0040 2BD0     		beq	.L281
 2949 0042 06D8     		bhi	.L287
 2950 0044 9026     		mov	r6, #144
 2951 0046 3302     		lsl	r3, r6, #8
 2952 0048 9842     		cmp	r0, r3
 2953 004a 26D0     		beq	.L281
 2954 004c 1DD8     		bhi	.L276
 2955 004e 214E     		ldr	r6, .L312+24
 2956 0050 18E0     		b	.L308
 2957              	.L287:
 2958 0052 2149     		ldr	r1, .L312+28
 2959 0054 8842     		cmp	r0, r1
 2960 0056 20D0     		beq	.L281
 2961 0058 17D8     		bhi	.L276
 2962 005a 204E     		ldr	r6, .L312+32
 2963 005c 12E0     		b	.L308
 2964              	.L286:
 2965 005e 204E     		ldr	r6, .L312+36
 2966 0060 B042     		cmp	r0, r6
 2967 0062 1AD0     		beq	.L281
 2968 0064 04D8     		bhi	.L288
 2969 0066 1F4B     		ldr	r3, .L312+40
 2970 0068 6489     		ldrh	r4, [r4, #10]
 2971 006a 9842     		cmp	r0, r3
 2972 006c 12D1     		bne	.L311
 2973 006e 0EE0     		b	.L279
 2974              	.L288:
 2975 0070 1D49     		ldr	r1, .L312+44
 2976 0072 8842     		cmp	r0, r1
 2977 0074 11D0     		beq	.L281
 2978 0076 01D8     		bhi	.L289
 2979 0078 1C4E     		ldr	r6, .L312+48
 2980 007a 03E0     		b	.L308
 2981              	.L289:
 2982 007c 1C4D     		ldr	r5, .L312+52
 2983 007e A842     		cmp	r0, r5
 2984 0080 12D0     		beq	.L282
 2985 0082 1C4E     		ldr	r6, .L312+56
 2986              	.L308:
 2987 0084 B042     		cmp	r0, r6
 2988 0086 17D1     		bne	.L266
 2989 0088 0EE0     		b	.L282
 2990              	.L276:
1120:.\uart_wifi.c **** 			 {
ARM GAS  C:\Users\ZHANGM~1\AppData\Local\Temp\ccBCEiox.s 			page 76


1121:.\uart_wifi.c ****           case MCU_HANDSHAKE_DATA:		
1122:.\uart_wifi.c ****                 {
1123:.\uart_wifi.c **** 				 		if((ATReceBuffer[0].gcATReceData[10] == 0x00)  && (ATReceBuffer[0].gcATReceData[11] == LINKN
1124:.\uart_wifi.c **** 					  	{
1125:.\uart_wifi.c **** 						  	WifidatagramWorkFlag.uart_ack = 0;
1126:.\uart_wifi.c **** 						  	             //BUZfkg=1;
1127:.\uart_wifi.c **** 					  	}				      
1128:.\uart_wifi.c **** 					  break;
1129:.\uart_wifi.c ****                 }
1130:.\uart_wifi.c **** 			   case MCU_CLEARALLUSERBOUND_DATA:			 
1131:.\uart_wifi.c **** 				 		if((ATReceBuffer[0].gcATReceData[10] == 0x00)  && (ATReceBuffer[0].gcATReceData[11] == LINKN
1132:.\uart_wifi.c **** 	  					{
1133:.\uart_wifi.c **** 	  						WifidatagramWorkFlag.uart_ack = 0;
1134:.\uart_wifi.c **** 	  					}
1135:.\uart_wifi.c **** 					  break;				 
1136:.\uart_wifi.c **** 		 
1137:.\uart_wifi.c **** 				 case MCU_POWERONSMARTLINK_DATA:				 
1138:.\uart_wifi.c **** 				 		if((ATReceBuffer[0].gcATReceData[10] == 0x00)  && (ATReceBuffer[0].gcATReceData[11] == LINKN
1139:.\uart_wifi.c **** 					  {
1140:.\uart_wifi.c **** 						  WifidatagramWorkFlag.uart_ack = 0;
1141:.\uart_wifi.c **** 						  //WifidatagramWorkFlag.send_data_load=0;
1142:.\uart_wifi.c **** 						 // SmarkLink_State = ATReceBuffer[0].gcATReceData[12];
1143:.\uart_wifi.c **** 						 	
1144:.\uart_wifi.c **** 					  }			      
1145:.\uart_wifi.c **** 					  break;
1146:.\uart_wifi.c **** 				case	HOST_STATE_DATA: 
1147:.\uart_wifi.c **** 						if((ATReceBuffer[0].gcATReceData[10] == 0x00)  && (ATReceBuffer[0].gcATReceData[11] == LINKNE
1148:.\uart_wifi.c **** 					  {
1149:.\uart_wifi.c **** 						  WifidatagramWorkFlag.uart_ack = 0;
1150:.\uart_wifi.c **** 					  }				      
1151:.\uart_wifi.c **** 					  break;
1152:.\uart_wifi.c **** 				 case MCU_FIRMWARE_UPDATE:	 
1153:.\uart_wifi.c **** 				 		if((ATReceBuffer[0].gcATReceData[10] == 0x00)  && (ATReceBuffer[0].gcATReceData[11] == LINKN
1154:.\uart_wifi.c **** 					  {
1155:.\uart_wifi.c **** 						  WifidatagramWorkFlag.uart_ack = 0;
1156:.\uart_wifi.c **** 					  }				      
1157:.\uart_wifi.c **** 					  break;
1158:.\uart_wifi.c **** 				case	HOST_FILTER_CHANGED_DATA:
1159:.\uart_wifi.c **** 						if((ATReceBuffer[0].gcATReceData[10] == 0x00)  && (ATReceBuffer[0].gcATReceData[11] == E0_REP
1160:.\uart_wifi.c **** 					  {
1161:.\uart_wifi.c **** 						  WifidatagramWorkFlag.uart_ack = 0;
1162:.\uart_wifi.c **** 					  }				      
1163:.\uart_wifi.c **** 					  break;
1164:.\uart_wifi.c **** 				case	HOST_FILTER_USED_TIME_DATA:
1165:.\uart_wifi.c **** 						if((ATReceBuffer[0].gcATReceData[10] == 0x00)  && (ATReceBuffer[0].gcATReceData[11] == E0_REP
1166:.\uart_wifi.c **** 					  {
1167:.\uart_wifi.c **** 						  WifidatagramWorkFlag.uart_ack = 0;
1168:.\uart_wifi.c **** 					  }				      
1169:.\uart_wifi.c **** 					  break;
1170:.\uart_wifi.c **** 				 case HOST_E0_DATA:
1171:.\uart_wifi.c **** 				 
1172:.\uart_wifi.c **** 				 		if((ATReceBuffer[0].gcATReceData[10] == 0x00)  && (ATReceBuffer[0].gcATReceData[11] == E0_RE
1173:.\uart_wifi.c **** 					  {
1174:.\uart_wifi.c **** 						  WifidatagramWorkFlag.uart_ack = 0;
1175:.\uart_wifi.c **** 					  }				      
1176:.\uart_wifi.c **** 					  break;
1177:.\uart_wifi.c **** 				 
ARM GAS  C:\Users\ZHANGM~1\AppData\Local\Temp\ccBCEiox.s 			page 77


1178:.\uart_wifi.c **** 				 case HOST_E1_DATA:
1179:.\uart_wifi.c **** 				 
1180:.\uart_wifi.c **** 				 		if((ATReceBuffer[0].gcATReceData[10] == 0x00)  && (ATReceBuffer[0].gcATReceData[11] == E1_RE
1181:.\uart_wifi.c **** 					  {
1182:.\uart_wifi.c **** 						  WifidatagramWorkFlag.uart_ack = 0;
1183:.\uart_wifi.c **** 					  }				      
1184:.\uart_wifi.c **** 					  break;
1185:.\uart_wifi.c **** 				 
1186:.\uart_wifi.c **** 				 case HOST_E2_DATA:
1187:.\uart_wifi.c **** 				 
1188:.\uart_wifi.c **** 				 		if((ATReceBuffer[0].gcATReceData[10] == 0x00)  && (ATReceBuffer[0].gcATReceData[11] == E2_RE
 2991              		.loc 1 1188 0
 2992 008a 6289     		ldrh	r2, [r4, #10]
 2993 008c 0DE0     		b	.L297
 2994              	.L279:
1189:.\uart_wifi.c **** 					  {
1190:.\uart_wifi.c **** 						  WifidatagramWorkFlag.uart_ack = 0;
1191:.\uart_wifi.c **** 					  }				      
1192:.\uart_wifi.c **** 					  break;
1193:.\uart_wifi.c **** 				 
1194:.\uart_wifi.c **** 				 case HOST_E3_DATA:
1195:.\uart_wifi.c **** 				 
1196:.\uart_wifi.c **** 				 		if((ATReceBuffer[0].gcATReceData[10] == 0x00)  && (ATReceBuffer[0].gcATReceData[11] == E3_RE
1197:.\uart_wifi.c **** 					  {
1198:.\uart_wifi.c **** 						  WifidatagramWorkFlag.uart_ack = 0;
1199:.\uart_wifi.c **** 					  }				      
1200:.\uart_wifi.c **** 					  break;
1201:.\uart_wifi.c **** 				 
1202:.\uart_wifi.c **** 				 case HOST_E4_DATA:
1203:.\uart_wifi.c **** 				 
1204:.\uart_wifi.c **** 				 		if((ATReceBuffer[0].gcATReceData[10] == 0x00)  && (ATReceBuffer[0].gcATReceData[11] == E4_RE
1205:.\uart_wifi.c **** 					  {
1206:.\uart_wifi.c **** 						  WifidatagramWorkFlag.uart_ack = 0;
1207:.\uart_wifi.c **** 					  }				      
1208:.\uart_wifi.c **** 					  break;
1209:.\uart_wifi.c **** 				 
1210:.\uart_wifi.c **** 				 case HOST_E5_DATA:
1211:.\uart_wifi.c **** 				 
1212:.\uart_wifi.c **** 				 		if((ATReceBuffer[0].gcATReceData[10] == 0x00)  && (ATReceBuffer[0].gcATReceData[11] == E5_RE
 2995              		.loc 1 1212 0
 2996 008e 002C     		cmp	r4, #0
 2997 0090 12D1     		bne	.L266
 2998 0092 05E0     		b	.L301
 2999              	.L311:
1213:.\uart_wifi.c **** 					  {
1214:.\uart_wifi.c **** 						  WifidatagramWorkFlag.uart_ack = 0;
1215:.\uart_wifi.c **** 					  }				      
1216:.\uart_wifi.c **** 					  break;
1217:.\uart_wifi.c **** 				 
1218:.\uart_wifi.c **** 				 case HOST_E6_DATA:
1219:.\uart_wifi.c **** 				 
1220:.\uart_wifi.c **** 				 		if((ATReceBuffer[0].gcATReceData[10] == 0x00)  && (ATReceBuffer[0].gcATReceData[11] == E6_RE
 3000              		.loc 1 1220 0
 3001 0094 002C     		cmp	r4, #0
 3002 0096 0FD1     		bne	.L266
 3003 0098 09E0     		b	.L291
 3004              	.L281:
ARM GAS  C:\Users\ZHANGM~1\AppData\Local\Temp\ccBCEiox.s 			page 78


1221:.\uart_wifi.c **** 					  {
1222:.\uart_wifi.c **** 						  WifidatagramWorkFlag.uart_ack = 0;
1223:.\uart_wifi.c **** 					  }				      
1224:.\uart_wifi.c **** 					  break;
1225:.\uart_wifi.c **** 				 
1226:.\uart_wifi.c **** 				 case HOST_E7_DATA:
1227:.\uart_wifi.c **** 				 
1228:.\uart_wifi.c **** 				 		if((ATReceBuffer[0].gcATReceData[10] == 0x00)  && (ATReceBuffer[0].gcATReceData[11] == E7_RE
 3005              		.loc 1 1228 0
 3006 009a 6189     		ldrh	r1, [r4, #10]
 3007 009c 0029     		cmp	r1, #0
 3008 009e 0BD1     		bne	.L266
 3009              	.L301:
1229:.\uart_wifi.c **** 					  {
1230:.\uart_wifi.c **** 						  WifidatagramWorkFlag.uart_ack = 0;
 3010              		.loc 1 1230 0
 3011 00a0 1548     		ldr	r0, .L312+60
 3012 00a2 0378     		ldrb	r3, [r0]
 3013 00a4 AB43     		bic	r3, r5
 3014 00a6 06E0     		b	.L292
 3015              	.L282:
1231:.\uart_wifi.c **** 					  }				      
1232:.\uart_wifi.c **** 					  break;
1233:.\uart_wifi.c **** 				 
1234:.\uart_wifi.c **** 				case HOST_E8_DATA:
1235:.\uart_wifi.c **** 				 
1236:.\uart_wifi.c **** 				 		if((ATReceBuffer[0].gcATReceData[10] == 0x00)  && (ATReceBuffer[0].gcATReceData[11] == E8_RE
 3016              		.loc 1 1236 0
 3017 00a8 5289     		ldrh	r2, [r2, #10]
 3018              	.L297:
 3019 00aa 002A     		cmp	r2, #0
 3020 00ac 04D1     		bne	.L266
 3021              	.L291:
1237:.\uart_wifi.c **** 					  {
1238:.\uart_wifi.c **** 						  WifidatagramWorkFlag.uart_ack = 0;
 3022              		.loc 1 1238 0
 3023 00ae 1248     		ldr	r0, .L312+60
 3024 00b0 0424     		mov	r4, #4
 3025 00b2 0378     		ldrb	r3, [r0]
 3026 00b4 A343     		bic	r3, r4
 3027              	.L292:
 3028 00b6 0370     		strb	r3, [r0]
 3029              	.L266:
1239:.\uart_wifi.c **** 					  }				      
1240:.\uart_wifi.c **** 					  break;
1241:.\uart_wifi.c **** 				 default:
1242:.\uart_wifi.c **** 				 		break;
1243:.\uart_wifi.c **** 				 
1244:.\uart_wifi.c **** 			 } 
1245:.\uart_wifi.c **** 		 }
1246:.\uart_wifi.c **** 	 }		 					
1247:.\uart_wifi.c **** }
 3030              		.loc 1 1247 0
 3031              		@ sp needed for prologue
 3032 00b8 70BD     		pop	{r4, r5, r6, pc}
 3033              	.L313:
 3034 00ba C046     		.align	2
ARM GAS  C:\Users\ZHANGM~1\AppData\Local\Temp\ccBCEiox.s 			page 79


 3035              	.L312:
 3036 00bc 00000000 		.word	WifiWorkFlag
 3037 00c0 00000000 		.word	giWIFIDATALength
 3038 00c4 00000000 		.word	ATReceBuffer
 3039 00c8 00000000 		.word	giWIFICommand
 3040 00cc F3900000 		.word	37107
 3041 00d0 02900000 		.word	36866
 3042 00d4 01600000 		.word	24577
 3043 00d8 F1900000 		.word	37105
 3044 00dc F0900000 		.word	37104
 3045 00e0 F7900000 		.word	37111
 3046 00e4 F5900000 		.word	37109
 3047 00e8 C0CC0000 		.word	52416
 3048 00ec F8900000 		.word	37112
 3049 00f0 C2CC0000 		.word	52418
 3050 00f4 C5CC0000 		.word	52421
 3051 00f8 00000000 		.word	WifidatagramWorkFlag
 3052              		.cfi_endproc
 3053              	.LFE75:
 3054              		.size	Process_From_Wifi_Ack_Data, .-Process_From_Wifi_Ack_Data
 3055              		.section	.text.Process_From_Tdsboard_Data,"ax",%progbits
 3056              		.align	1
 3057              		.global	Process_From_Tdsboard_Data
 3058              		.code	16
 3059              		.thumb_func
 3060              		.type	Process_From_Tdsboard_Data, %function
 3061              	Process_From_Tdsboard_Data:
 3062              	.LFB76:
1248:.\uart_wifi.c **** 
1249:.\uart_wifi.c **** /******************************************************************************
1250:.\uart_wifi.c **** * 函 数 名: void ProcessUARTData(void)
1251:.\uart_wifi.c **** * 函数功能: 机器上报数据
1252:.\uart_wifi.c **** * 入口参数: 无
1253:.\uart_wifi.c **** * 返    回: 
1254:.\uart_wifi.c **** *******************************************************************************/
1255:.\uart_wifi.c **** void Process_From_Tdsboard_Data(void)
1256:.\uart_wifi.c **** {
 3063              		.loc 1 1256 0
 3064              		.cfi_startproc
 3065 0000 F8B5     		push	{r3, r4, r5, r6, r7, lr}
 3066              	.LCFI43:
 3067              		.cfi_def_cfa_offset 24
 3068              		.cfi_offset 3, -24
 3069              		.cfi_offset 4, -20
 3070              		.cfi_offset 5, -16
 3071              		.cfi_offset 6, -12
 3072              		.cfi_offset 7, -8
 3073              		.cfi_offset 14, -4
1257:.\uart_wifi.c **** 	 if((WifiWorkFlag.gcReceComm2OK)&&(giTDSBOARDDATALength<(TDSBUFLEN-10-1)))
 3074              		.loc 1 1257 0
 3075 0002 294D     		ldr	r5, .L320
 3076 0004 0222     		mov	r2, #2
 3077 0006 2B78     		ldrb	r3, [r5]
 3078 0008 284E     		ldr	r6, .L320+4
 3079 000a 1342     		tst	r3, r2
 3080 000c 33D0     		beq	.L316
 3081              		.loc 1 1257 0 is_stmt 0 discriminator 1
ARM GAS  C:\Users\ZHANGM~1\AppData\Local\Temp\ccBCEiox.s 			page 80


 3082 000e 2849     		ldr	r1, .L320+8
 3083 0010 0F88     		ldrh	r7, [r1]
 3084 0012 122F     		cmp	r7, #18
 3085 0014 2FD8     		bhi	.L316
1258:.\uart_wifi.c **** 	 {
1259:.\uart_wifi.c **** 	   WifiWorkFlag.gcReceComm2OK =0;
1260:.\uart_wifi.c ****        //
1261:.\uart_wifi.c **** 		 if(ATTdsReceBuffer[0].gcATReceTdsboardData[10+giTDSBOARDDATALength]==Sum_Make_Verify (&ATTdsRece
 3086              		.loc 1 1261 0 is_stmt 1
 3087 0016 274C     		ldr	r4, .L320+12
 3088 0018 381C     		mov	r0, r7
1259:.\uart_wifi.c **** 	   WifiWorkFlag.gcReceComm2OK =0;
 3089              		.loc 1 1259 0
 3090 001a 9343     		bic	r3, r2
 3091              		.loc 1 1261 0
 3092 001c 0A30     		add	r0, r0, #10
1259:.\uart_wifi.c **** 	   WifiWorkFlag.gcReceComm2OK =0;
 3093              		.loc 1 1259 0
 3094 001e 2B70     		strb	r3, [r5]
 3095              		.loc 1 1261 0
 3096 0020 81B2     		uxth	r1, r0
 3097 0022 201C     		mov	r0, r4
 3098 0024 FFF7FEFF 		bl	Sum_Make_Verify
 3099              	.LVL106:
 3100 0028 E319     		add	r3, r4, r7
 3101 002a 9A7A     		ldrb	r2, [r3, #10]
 3102 002c 8242     		cmp	r2, r0
 3103 002e 22D1     		bne	.L316
1262:.\uart_wifi.c **** 		 {
1263:.\uart_wifi.c ****                         Tds_Ack_Timer=30;
1264:.\uart_wifi.c **** 			 switch(giTDSBOARDCommand)
 3104              		.loc 1 1264 0
 3105 0030 214F     		ldr	r7, .L320+16
1263:.\uart_wifi.c ****                         Tds_Ack_Timer=30;
 3106              		.loc 1 1263 0
 3107 0032 1E21     		mov	r1, #30
 3108              		.loc 1 1264 0
 3109 0034 3888     		ldrh	r0, [r7]
 3110 0036 8023     		mov	r3, #128
1263:.\uart_wifi.c ****                         Tds_Ack_Timer=30;
 3111              		.loc 1 1263 0
 3112 0038 3170     		strb	r1, [r6]
 3113              		.loc 1 1264 0
 3114 003a 5A01     		lsl	r2, r3, #5
 3115 003c 9042     		cmp	r0, r2
 3116 003e 1AD1     		bne	.L316
1265:.\uart_wifi.c **** 			 {
1266:.\uart_wifi.c **** 				 case 0x1000:		      
1267:.\uart_wifi.c **** 				  	Value_Tds0=ATTdsReceBuffer[0].gcATReceTdsboardData[10];
 3117              		.loc 1 1267 0
 3118 0040 A17A     		ldrb	r1, [r4, #10]
1268:.\uart_wifi.c **** 				  	Value_Tds0=(Value_Tds0<<8)+ATTdsReceBuffer[0].gcATReceTdsboardData[11];
 3119              		.loc 1 1268 0
 3120 0042 E07A     		ldrb	r0, [r4, #11]
 3121 0044 0F02     		lsl	r7, r1, #8
 3122 0046 1D4B     		ldr	r3, .L320+20
 3123 0048 3A18     		add	r2, r7, r0
ARM GAS  C:\Users\ZHANGM~1\AppData\Local\Temp\ccBCEiox.s 			page 81


 3124 004a 1A80     		strh	r2, [r3]
1269:.\uart_wifi.c **** 				  	Value_Tds1=ATTdsReceBuffer[0].gcATReceTdsboardData[12];
 3125              		.loc 1 1269 0
 3126 004c 217B     		ldrb	r1, [r4, #12]
1270:.\uart_wifi.c **** 				  	Value_Tds1=(Value_Tds1<<8)+ATTdsReceBuffer[0].gcATReceTdsboardData[13];
 3127              		.loc 1 1270 0
 3128 004e 607B     		ldrb	r0, [r4, #13]
 3129 0050 0F02     		lsl	r7, r1, #8
 3130 0052 1B4B     		ldr	r3, .L320+24
 3131 0054 3A18     		add	r2, r7, r0
 3132 0056 1A80     		strh	r2, [r3]
1271:.\uart_wifi.c **** 				  	Value_Loushui_Ad=ATTdsReceBuffer[0].gcATReceTdsboardData[14];
 3133              		.loc 1 1271 0
 3134 0058 A17B     		ldrb	r1, [r4, #14]
1272:.\uart_wifi.c **** 				  	Value_Loushui_Ad=(Value_Loushui_Ad<<8)+ATTdsReceBuffer[0].gcATReceTdsboardData[15];
 3135              		.loc 1 1272 0
 3136 005a E07B     		ldrb	r0, [r4, #15]
 3137 005c 0F02     		lsl	r7, r1, #8
 3138 005e 194B     		ldr	r3, .L320+28
 3139 0060 3A18     		add	r2, r7, r0
 3140 0062 1A80     		strh	r2, [r3]
1273:.\uart_wifi.c **** 				  	Value_T=ATTdsReceBuffer[0].gcATReceTdsboardData[16];
 3141              		.loc 1 1273 0
 3142 0064 217C     		ldrb	r1, [r4, #16]
 3143 0066 184F     		ldr	r7, .L320+32
1274:.\uart_wifi.c **** 				  	Value_Flow=ATTdsReceBuffer[0].gcATReceTdsboardData[17];
1275:.\uart_wifi.c **** 				  	Value_Flow=(Value_Flow<<8)+ATTdsReceBuffer[0].gcATReceTdsboardData[18];		
 3144              		.loc 1 1275 0
 3145 0068 184B     		ldr	r3, .L320+36
1273:.\uart_wifi.c **** 				  	Value_T=ATTdsReceBuffer[0].gcATReceTdsboardData[16];
 3146              		.loc 1 1273 0
 3147 006a 3970     		strb	r1, [r7]
1274:.\uart_wifi.c **** 				  	Value_Flow=ATTdsReceBuffer[0].gcATReceTdsboardData[17];
 3148              		.loc 1 1274 0
 3149 006c 607C     		ldrb	r0, [r4, #17]
 3150              		.loc 1 1275 0
 3151 006e A47C     		ldrb	r4, [r4, #18]
 3152 0070 0202     		lsl	r2, r0, #8
 3153 0072 1119     		add	r1, r2, r4
 3154 0074 1980     		strh	r1, [r3]
 3155              	.L316:
1276:.\uart_wifi.c ****                     //Load_Command(APP_HOST_STATE); 
1277:.\uart_wifi.c **** 					  break;
1278:.\uart_wifi.c **** 				 default:				 					 
1279:.\uart_wifi.c **** 					break;
1280:.\uart_wifi.c **** 			 } 
1281:.\uart_wifi.c **** 		 }
1282:.\uart_wifi.c **** 	 }		
1283:.\uart_wifi.c ****         if(Tds_Ack_Timer==0)
 3156              		.loc 1 1283 0
 3157 0076 3778     		ldrb	r7, [r6]
 3158 0078 002F     		cmp	r7, #0
 3159 007a 13D1     		bne	.L314
1284:.\uart_wifi.c ****     {
1285:.\uart_wifi.c ****         Tds_Ack_Timer=30;
 3160              		.loc 1 1285 0
 3161 007c 1E22     		mov	r2, #30
ARM GAS  C:\Users\ZHANGM~1\AppData\Local\Temp\ccBCEiox.s 			page 82


 3162 007e 3270     		strb	r2, [r6]
1286:.\uart_wifi.c ****          memset(ATTdsReceBuffer[0].gcATReceTdsboardData,0x00,TDSBUFLEN);
 3163              		.loc 1 1286 0
 3164 0080 0C4E     		ldr	r6, .L320+12
 3165 0082 391C     		mov	r1, r7
 3166 0084 301C     		mov	r0, r6
 3167 0086 FFF7FEFF 		bl	memset
 3168              	.LVL107:
1287:.\uart_wifi.c ****         gctdsboardCommunState=0;
 3169              		.loc 1 1287 0
 3170 008a 1148     		ldr	r0, .L320+40
1288:.\uart_wifi.c ****         giTDSBOARDCommand=0;
 3171              		.loc 1 1288 0
 3172 008c 0A4A     		ldr	r2, .L320+16
1289:.\uart_wifi.c ****         giTDSBOARDDATALength=0;
 3173              		.loc 1 1289 0
 3174 008e 084C     		ldr	r4, .L320+8
1287:.\uart_wifi.c ****         gctdsboardCommunState=0;
 3175              		.loc 1 1287 0
 3176 0090 0770     		strb	r7, [r0]
1288:.\uart_wifi.c ****         giTDSBOARDCommand=0;
 3177              		.loc 1 1288 0
 3178 0092 1780     		strh	r7, [r2]
 3179              		.loc 1 1289 0
 3180 0094 2780     		strh	r7, [r4]
1290:.\uart_wifi.c ****         WifiWorkFlag.gcReceComm2OK=0;
 3181              		.loc 1 1290 0
 3182 0096 2978     		ldrb	r1, [r5]
 3183 0098 0223     		mov	r3, #2
 3184 009a 9943     		bic	r1, r3
 3185 009c 2970     		strb	r1, [r5]
1291:.\uart_wifi.c ****         ATTdsReceBuffer[0].gcATReceTdsboardCount=0; 
 3186              		.loc 1 1291 0
 3187 009e F783     		strh	r7, [r6, #30]
1292:.\uart_wifi.c ****         //BUZfkg=1;
1293:.\uart_wifi.c ****         Open_UART_TDS_ISR();
 3188              		.loc 1 1293 0
 3189 00a0 FFF7FEFF 		bl	Open_UART_TDS_ISR
 3190              	.LVL108:
 3191              	.L314:
1294:.\uart_wifi.c ****     }
1295:.\uart_wifi.c **** }
 3192              		.loc 1 1295 0
 3193              		@ sp needed for prologue
 3194 00a4 F8BD     		pop	{r3, r4, r5, r6, r7, pc}
 3195              	.L321:
 3196 00a6 C046     		.align	2
 3197              	.L320:
 3198 00a8 00000000 		.word	WifiWorkFlag
 3199 00ac 00000000 		.word	Tds_Ack_Timer
 3200 00b0 00000000 		.word	giTDSBOARDDATALength
 3201 00b4 00000000 		.word	ATTdsReceBuffer
 3202 00b8 00000000 		.word	giTDSBOARDCommand
 3203 00bc 00000000 		.word	Value_Tds0
 3204 00c0 00000000 		.word	Value_Tds1
 3205 00c4 00000000 		.word	Value_Loushui_Ad
 3206 00c8 00000000 		.word	Value_T
ARM GAS  C:\Users\ZHANGM~1\AppData\Local\Temp\ccBCEiox.s 			page 83


 3207 00cc 00000000 		.word	Value_Flow
 3208 00d0 00000000 		.word	gctdsboardCommunState
 3209              		.cfi_endproc
 3210              	.LFE76:
 3211              		.size	Process_From_Tdsboard_Data, .-Process_From_Tdsboard_Data
 3212              		.section	.text.Process_From_Wifi_Data,"ax",%progbits
 3213              		.align	1
 3214              		.global	Process_From_Wifi_Data
 3215              		.code	16
 3216              		.thumb_func
 3217              		.type	Process_From_Wifi_Data, %function
 3218              	Process_From_Wifi_Data:
 3219              	.LFB77:
1296:.\uart_wifi.c **** /*
1297:.\uart_wifi.c **** ***************************************************************************************************
1298:.\uart_wifi.c **** ** 函数名称 ：ProcessWIFIData()
1299:.\uart_wifi.c **** ** 函数功能 ：WIFI数据帧处理                        
1300:.\uart_wifi.c **** ** 入口参数 ：无
1301:.\uart_wifi.c **** ** 出口参数 ：无
1302:.\uart_wifi.c **** ***************************************************************************************************
1303:.\uart_wifi.c **** */
1304:.\uart_wifi.c **** void Process_From_Wifi_Data(void)
1305:.\uart_wifi.c **** {
 3220              		.loc 1 1305 0
 3221              		.cfi_startproc
 3222 0000 10B5     		push	{r4, lr}
 3223              	.LCFI44:
 3224              		.cfi_def_cfa_offset 8
 3225              		.cfi_offset 4, -8
 3226              		.cfi_offset 14, -4
1306:.\uart_wifi.c ****     //uint8 i;//数据缓冲区判断，主要判断哪些代码需要发送	
1307:.\uart_wifi.c ****   //Rev_Uart();		
1308:.\uart_wifi.c **** 	if((gcWIFICTL & ACK_DATA) == ACK_DATA) 				// 返回指令
 3227              		.loc 1 1308 0
 3228 0002 074B     		ldr	r3, .L328
 3229 0004 1A78     		ldrb	r2, [r3]
 3230 0006 1C1C     		mov	r4, r3
 3231 0008 7F2A     		cmp	r2, #127
 3232 000a 01D9     		bls	.L323
1309:.\uart_wifi.c **** 		{	
1310:.\uart_wifi.c **** 			Process_From_Wifi_Ack_Data();
 3233              		.loc 1 1310 0
 3234 000c FFF7FEFF 		bl	Process_From_Wifi_Ack_Data
 3235              	.LVL109:
 3236              	.L323:
1311:.\uart_wifi.c **** 		}
1312:.\uart_wifi.c **** 	if((gcWIFICTL & NOA_DATA) == NOA_DATA) // 主动发送无需对方回复
 3237              		.loc 1 1312 0
 3238 0010 2078     		ldrb	r0, [r4]
 3239 0012 4206     		lsl	r2, r0, #25
 3240 0014 01D5     		bpl	.L324
1313:.\uart_wifi.c **** 		{  	
1314:.\uart_wifi.c **** 			Process_From_Wifi_Noa_Data();
 3241              		.loc 1 1314 0
 3242 0016 FFF7FEFF 		bl	Process_From_Wifi_Noa_Data
 3243              	.LVL110:
 3244              	.L324:
ARM GAS  C:\Users\ZHANGM~1\AppData\Local\Temp\ccBCEiox.s 			page 84


1315:.\uart_wifi.c **** 		}
1316:.\uart_wifi.c **** 	if((gcWIFICTL & CTL_ACK_DATA) == CTL_ACK_DATA) // 主动发送需对方回复
1317:.\uart_wifi.c **** 		{  	
1318:.\uart_wifi.c **** 			Process_From_Wifi_Ctl_Ack_Data();
 3245              		.loc 1 1318 0
 3246 001a FFF7FEFF 		bl	Process_From_Wifi_Ctl_Ack_Data
 3247              	.LVL111:
1319:.\uart_wifi.c **** 		}
1320:.\uart_wifi.c **** }
 3248              		.loc 1 1320 0
 3249              		@ sp needed for prologue
 3250 001e 10BD     		pop	{r4, pc}
 3251              	.L329:
 3252              		.align	2
 3253              	.L328:
 3254 0020 00000000 		.word	gcWIFICTL
 3255              		.cfi_endproc
 3256              	.LFE77:
 3257              		.size	Process_From_Wifi_Data, .-Process_From_Wifi_Data
 3258              		.comm	iSendCounter,2,2
 3259              		.comm	iUartSendLen,2,2
 3260              		.comm	gcTDSBOARDCTL,1,1
 3261              		.comm	giTDSBOARDDATALength,2,2
 3262              		.comm	giTDSBOARDCommand,2,2
 3263              		.comm	gcWIFICTL,1,1
 3264              		.comm	giWIFIDATALength,2,2
 3265              		.comm	giWIFICommand,2,2
 3266              		.comm	Frame_Num,1,1
 3267              		.comm	gctdsboardCommunState,1,1
 3268              		.comm	gcWifiCommunState,1,1
 3269              		.comm	Error_Data_Buf,18,2
 3270              		.comm	Filter_Changed_Num,24,2
 3271              		.comm	Filter_Full_Data_Buf,12,2
 3272              		.comm	Cmd_Function_Buf,16,2
 3273              		.comm	Cmd_Function,2,2
 3274              		.comm	Cmd_Function_Num,1,1
 3275              		.comm	WifidatagramWorkFlag,4,4
 3276              		.comm	WifiWorkFlag,4,4
 3277              		.comm	ATTdsReceBuffer,32,2
 3278              		.comm	ATReceBuffer,102,2
 3279              		.comm	Send_Interval_Counter,1,1
 3280              		.comm	SmarkLink_State,1,1
 3281              		.comm	Value_Flow,2,2
 3282              		.comm	Value_T,1,1
 3283              		.comm	Value_Loushui_Ad,2,2
 3284              		.comm	Value_Tds1,2,2
 3285              		.comm	Value_Tds0,2,2
 3286              		.comm	cpSendBufPtr,4,4
 3287              		.comm	Work_State_Num_L,1,1
 3288              		.comm	Work_State_Num_H,1,1
 3289              		.comm	Ack_Timer,1,1
 3290              		.comm	u8SmartLinkState,1,1
 3291              		.comm	u8LinkState,1,1
 3292              		.section	.rodata
 3293              		.align	1
 3294              		.set	.LANCHOR1,. + 0
 3295              		.type	CSWTCH.98, %object
ARM GAS  C:\Users\ZHANGM~1\AppData\Local\Temp\ccBCEiox.s 			page 85


 3296              		.size	CSWTCH.98, 18
 3297              	CSWTCH.98:
 3298 0000 4000     		.short	64
 3299 0002 E803     		.short	1000
 3300 0004 D007     		.short	2000
 3301 0006 B80B     		.short	3000
 3302 0008 A00F     		.short	4000
 3303 000a 8813     		.short	5000
 3304 000c 7017     		.short	6000
 3305 000e 581B     		.short	7000
 3306 0010 401F     		.short	8000
 3307              		.bss
 3308              		.set	.LANCHOR0,. + 0
 3309              		.type	cBuf.7035, %object
 3310              		.size	cBuf.7035, 100
 3311              	cBuf.7035:
 3312 0000 00000000 		.space	100
 3312      00000000 
 3312      00000000 
 3312      00000000 
 3312      00000000 
 3313              		.text
 3314              	.Letext0:
 3315              		.file 2 "./Generated_Source/PSoC4/cytypes.h"
 3316              		.file 3 ".\\fun.h"
 3317              		.file 4 ".\\uart_wifi.h"
 3318              		.file 5 "./Generated_Source/PSoC4/UART_0_SPI_UART.h"
 3319              		.section	.debug_info,"",%progbits
 3320              	.Ldebug_info0:
 3321 0000 33150000 		.4byte	0x1533
 3322 0004 0200     		.2byte	0x2
 3323 0006 00000000 		.4byte	.Ldebug_abbrev0
 3324 000a 04       		.byte	0x4
 3325 000b 01       		.uleb128 0x1
 3326 000c 90080000 		.4byte	.LASF170
 3327 0010 01       		.byte	0x1
 3328 0011 41000000 		.4byte	.LASF171
 3329 0015 1F040000 		.4byte	.LASF172
 3330 0019 00000000 		.4byte	.Ldebug_ranges0+0
 3331 001d 00000000 		.4byte	0
 3332 0021 00000000 		.4byte	0
 3333 0025 00000000 		.4byte	.Ldebug_line0
 3334 0029 02       		.uleb128 0x2
 3335 002a 01       		.byte	0x1
 3336 002b 06       		.byte	0x6
 3337 002c 50080000 		.4byte	.LASF0
 3338 0030 02       		.uleb128 0x2
 3339 0031 01       		.byte	0x1
 3340 0032 08       		.byte	0x8
 3341 0033 D5070000 		.4byte	.LASF1
 3342 0037 02       		.uleb128 0x2
 3343 0038 02       		.byte	0x2
 3344 0039 05       		.byte	0x5
 3345 003a 36060000 		.4byte	.LASF2
 3346 003e 02       		.uleb128 0x2
 3347 003f 02       		.byte	0x2
 3348 0040 07       		.byte	0x7
ARM GAS  C:\Users\ZHANGM~1\AppData\Local\Temp\ccBCEiox.s 			page 86


 3349 0041 5C080000 		.4byte	.LASF3
 3350 0045 02       		.uleb128 0x2
 3351 0046 04       		.byte	0x4
 3352 0047 05       		.byte	0x5
 3353 0048 53060000 		.4byte	.LASF4
 3354 004c 02       		.uleb128 0x2
 3355 004d 04       		.byte	0x4
 3356 004e 07       		.byte	0x7
 3357 004f 2E070000 		.4byte	.LASF5
 3358 0053 02       		.uleb128 0x2
 3359 0054 08       		.byte	0x8
 3360 0055 05       		.byte	0x5
 3361 0056 A3040000 		.4byte	.LASF6
 3362 005a 02       		.uleb128 0x2
 3363 005b 08       		.byte	0x8
 3364 005c 07       		.byte	0x7
 3365 005d 53020000 		.4byte	.LASF7
 3366 0061 03       		.uleb128 0x3
 3367 0062 04       		.byte	0x4
 3368 0063 05       		.byte	0x5
 3369 0064 696E7400 		.ascii	"int\000"
 3370 0068 02       		.uleb128 0x2
 3371 0069 04       		.byte	0x4
 3372 006a 07       		.byte	0x7
 3373 006b AE000000 		.4byte	.LASF8
 3374 006f 04       		.uleb128 0x4
 3375 0070 FB080000 		.4byte	.LASF9
 3376 0074 02       		.byte	0x2
 3377 0075 5B       		.byte	0x5b
 3378 0076 30000000 		.4byte	0x30
 3379 007a 04       		.uleb128 0x4
 3380 007b FC030000 		.4byte	.LASF10
 3381 007f 02       		.byte	0x2
 3382 0080 5C       		.byte	0x5c
 3383 0081 3E000000 		.4byte	0x3e
 3384 0085 04       		.uleb128 0x4
 3385 0086 3A050000 		.4byte	.LASF11
 3386 008a 02       		.byte	0x2
 3387 008b 5D       		.byte	0x5d
 3388 008c 4C000000 		.4byte	0x4c
 3389 0090 02       		.uleb128 0x2
 3390 0091 04       		.byte	0x4
 3391 0092 04       		.byte	0x4
 3392 0093 05020000 		.4byte	.LASF12
 3393 0097 02       		.uleb128 0x2
 3394 0098 08       		.byte	0x8
 3395 0099 04       		.byte	0x4
 3396 009a 01090000 		.4byte	.LASF13
 3397 009e 02       		.uleb128 0x2
 3398 009f 01       		.byte	0x1
 3399 00a0 08       		.byte	0x8
 3400 00a1 E7030000 		.4byte	.LASF14
 3401 00a5 04       		.uleb128 0x4
 3402 00a6 F8050000 		.4byte	.LASF15
 3403 00aa 02       		.byte	0x2
 3404 00ab F2       		.byte	0xf2
 3405 00ac B0000000 		.4byte	0xb0
ARM GAS  C:\Users\ZHANGM~1\AppData\Local\Temp\ccBCEiox.s 			page 87


 3406 00b0 05       		.uleb128 0x5
 3407 00b1 85000000 		.4byte	0x85
 3408 00b5 02       		.uleb128 0x2
 3409 00b6 04       		.byte	0x4
 3410 00b7 07       		.byte	0x7
 3411 00b8 18070000 		.4byte	.LASF16
 3412 00bc 06       		.uleb128 0x6
 3413 00bd 04       		.byte	0x4
 3414 00be 07       		.uleb128 0x7
 3415 00bf 04       		.byte	0x4
 3416 00c0 6F000000 		.4byte	0x6f
 3417 00c4 08       		.uleb128 0x8
 3418 00c5 04       		.byte	0x4
 3419 00c6 03       		.byte	0x3
 3420 00c7 75       		.byte	0x75
 3421 00c8 CB020000 		.4byte	0x2cb
 3422 00cc 09       		.uleb128 0x9
 3423 00cd 23010000 		.4byte	.LASF17
 3424 00d1 03       		.byte	0x3
 3425 00d2 76       		.byte	0x76
 3426 00d3 68000000 		.4byte	0x68
 3427 00d7 04       		.byte	0x4
 3428 00d8 01       		.byte	0x1
 3429 00d9 1F       		.byte	0x1f
 3430 00da 02       		.byte	0x2
 3431 00db 23       		.byte	0x23
 3432 00dc 00       		.uleb128 0
 3433 00dd 09       		.uleb128 0x9
 3434 00de 0B020000 		.4byte	.LASF18
 3435 00e2 03       		.byte	0x3
 3436 00e3 77       		.byte	0x77
 3437 00e4 68000000 		.4byte	0x68
 3438 00e8 04       		.byte	0x4
 3439 00e9 01       		.byte	0x1
 3440 00ea 1E       		.byte	0x1e
 3441 00eb 02       		.byte	0x2
 3442 00ec 23       		.byte	0x23
 3443 00ed 00       		.uleb128 0
 3444 00ee 09       		.uleb128 0x9
 3445 00ef DB020000 		.4byte	.LASF19
 3446 00f3 03       		.byte	0x3
 3447 00f4 78       		.byte	0x78
 3448 00f5 68000000 		.4byte	0x68
 3449 00f9 04       		.byte	0x4
 3450 00fa 01       		.byte	0x1
 3451 00fb 1D       		.byte	0x1d
 3452 00fc 02       		.byte	0x2
 3453 00fd 23       		.byte	0x23
 3454 00fe 00       		.uleb128 0
 3455 00ff 09       		.uleb128 0x9
 3456 0100 1D010000 		.4byte	.LASF20
 3457 0104 03       		.byte	0x3
 3458 0105 79       		.byte	0x79
 3459 0106 68000000 		.4byte	0x68
 3460 010a 04       		.byte	0x4
 3461 010b 01       		.byte	0x1
 3462 010c 1C       		.byte	0x1c
ARM GAS  C:\Users\ZHANGM~1\AppData\Local\Temp\ccBCEiox.s 			page 88


 3463 010d 02       		.byte	0x2
 3464 010e 23       		.byte	0x23
 3465 010f 00       		.uleb128 0
 3466 0110 09       		.uleb128 0x9
 3467 0111 E9000000 		.4byte	.LASF21
 3468 0115 03       		.byte	0x3
 3469 0116 7A       		.byte	0x7a
 3470 0117 68000000 		.4byte	0x68
 3471 011b 04       		.byte	0x4
 3472 011c 01       		.byte	0x1
 3473 011d 1B       		.byte	0x1b
 3474 011e 02       		.byte	0x2
 3475 011f 23       		.byte	0x23
 3476 0120 00       		.uleb128 0
 3477 0121 09       		.uleb128 0x9
 3478 0122 47020000 		.4byte	.LASF22
 3479 0126 03       		.byte	0x3
 3480 0127 7B       		.byte	0x7b
 3481 0128 68000000 		.4byte	0x68
 3482 012c 04       		.byte	0x4
 3483 012d 01       		.byte	0x1
 3484 012e 1A       		.byte	0x1a
 3485 012f 02       		.byte	0x2
 3486 0130 23       		.byte	0x23
 3487 0131 00       		.uleb128 0
 3488 0132 09       		.uleb128 0x9
 3489 0133 22080000 		.4byte	.LASF23
 3490 0137 03       		.byte	0x3
 3491 0138 7C       		.byte	0x7c
 3492 0139 68000000 		.4byte	0x68
 3493 013d 04       		.byte	0x4
 3494 013e 01       		.byte	0x1
 3495 013f 19       		.byte	0x19
 3496 0140 02       		.byte	0x2
 3497 0141 23       		.byte	0x23
 3498 0142 00       		.uleb128 0
 3499 0143 09       		.uleb128 0x9
 3500 0144 13020000 		.4byte	.LASF24
 3501 0148 03       		.byte	0x3
 3502 0149 7D       		.byte	0x7d
 3503 014a 68000000 		.4byte	0x68
 3504 014e 04       		.byte	0x4
 3505 014f 01       		.byte	0x1
 3506 0150 18       		.byte	0x18
 3507 0151 02       		.byte	0x2
 3508 0152 23       		.byte	0x23
 3509 0153 00       		.uleb128 0
 3510 0154 09       		.uleb128 0x9
 3511 0155 8E050000 		.4byte	.LASF25
 3512 0159 03       		.byte	0x3
 3513 015a 7E       		.byte	0x7e
 3514 015b 68000000 		.4byte	0x68
 3515 015f 04       		.byte	0x4
 3516 0160 01       		.byte	0x1
 3517 0161 17       		.byte	0x17
 3518 0162 02       		.byte	0x2
 3519 0163 23       		.byte	0x23
ARM GAS  C:\Users\ZHANGM~1\AppData\Local\Temp\ccBCEiox.s 			page 89


 3520 0164 00       		.uleb128 0
 3521 0165 09       		.uleb128 0x9
 3522 0166 98050000 		.4byte	.LASF26
 3523 016a 03       		.byte	0x3
 3524 016b 7F       		.byte	0x7f
 3525 016c 68000000 		.4byte	0x68
 3526 0170 04       		.byte	0x4
 3527 0171 01       		.byte	0x1
 3528 0172 16       		.byte	0x16
 3529 0173 02       		.byte	0x2
 3530 0174 23       		.byte	0x23
 3531 0175 00       		.uleb128 0
 3532 0176 09       		.uleb128 0x9
 3533 0177 A4010000 		.4byte	.LASF27
 3534 017b 03       		.byte	0x3
 3535 017c 80       		.byte	0x80
 3536 017d 68000000 		.4byte	0x68
 3537 0181 04       		.byte	0x4
 3538 0182 01       		.byte	0x1
 3539 0183 15       		.byte	0x15
 3540 0184 02       		.byte	0x2
 3541 0185 23       		.byte	0x23
 3542 0186 00       		.uleb128 0
 3543 0187 09       		.uleb128 0x9
 3544 0188 28000000 		.4byte	.LASF28
 3545 018c 03       		.byte	0x3
 3546 018d 81       		.byte	0x81
 3547 018e 68000000 		.4byte	0x68
 3548 0192 04       		.byte	0x4
 3549 0193 01       		.byte	0x1
 3550 0194 14       		.byte	0x14
 3551 0195 02       		.byte	0x2
 3552 0196 23       		.byte	0x23
 3553 0197 00       		.uleb128 0
 3554 0198 09       		.uleb128 0x9
 3555 0199 51090000 		.4byte	.LASF29
 3556 019d 03       		.byte	0x3
 3557 019e 82       		.byte	0x82
 3558 019f 68000000 		.4byte	0x68
 3559 01a3 04       		.byte	0x4
 3560 01a4 01       		.byte	0x1
 3561 01a5 13       		.byte	0x13
 3562 01a6 02       		.byte	0x2
 3563 01a7 23       		.byte	0x23
 3564 01a8 00       		.uleb128 0
 3565 01a9 09       		.uleb128 0x9
 3566 01aa 21060000 		.4byte	.LASF30
 3567 01ae 03       		.byte	0x3
 3568 01af 83       		.byte	0x83
 3569 01b0 68000000 		.4byte	0x68
 3570 01b4 04       		.byte	0x4
 3571 01b5 01       		.byte	0x1
 3572 01b6 12       		.byte	0x12
 3573 01b7 02       		.byte	0x2
 3574 01b8 23       		.byte	0x23
 3575 01b9 00       		.uleb128 0
 3576 01ba 09       		.uleb128 0x9
ARM GAS  C:\Users\ZHANGM~1\AppData\Local\Temp\ccBCEiox.s 			page 90


 3577 01bb C6040000 		.4byte	.LASF31
 3578 01bf 03       		.byte	0x3
 3579 01c0 84       		.byte	0x84
 3580 01c1 68000000 		.4byte	0x68
 3581 01c5 04       		.byte	0x4
 3582 01c6 01       		.byte	0x1
 3583 01c7 11       		.byte	0x11
 3584 01c8 02       		.byte	0x2
 3585 01c9 23       		.byte	0x23
 3586 01ca 00       		.uleb128 0
 3587 01cb 09       		.uleb128 0x9
 3588 01cc 67040000 		.4byte	.LASF32
 3589 01d0 03       		.byte	0x3
 3590 01d1 85       		.byte	0x85
 3591 01d2 68000000 		.4byte	0x68
 3592 01d6 04       		.byte	0x4
 3593 01d7 01       		.byte	0x1
 3594 01d8 10       		.byte	0x10
 3595 01d9 02       		.byte	0x2
 3596 01da 23       		.byte	0x23
 3597 01db 00       		.uleb128 0
 3598 01dc 09       		.uleb128 0x9
 3599 01dd 30080000 		.4byte	.LASF33
 3600 01e1 03       		.byte	0x3
 3601 01e2 86       		.byte	0x86
 3602 01e3 68000000 		.4byte	0x68
 3603 01e7 04       		.byte	0x4
 3604 01e8 01       		.byte	0x1
 3605 01e9 0F       		.byte	0xf
 3606 01ea 02       		.byte	0x2
 3607 01eb 23       		.byte	0x23
 3608 01ec 00       		.uleb128 0
 3609 01ed 09       		.uleb128 0x9
 3610 01ee 67030000 		.4byte	.LASF34
 3611 01f2 03       		.byte	0x3
 3612 01f3 87       		.byte	0x87
 3613 01f4 68000000 		.4byte	0x68
 3614 01f8 04       		.byte	0x4
 3615 01f9 01       		.byte	0x1
 3616 01fa 0E       		.byte	0xe
 3617 01fb 02       		.byte	0x2
 3618 01fc 23       		.byte	0x23
 3619 01fd 00       		.uleb128 0
 3620 01fe 09       		.uleb128 0x9
 3621 01ff 70040000 		.4byte	.LASF35
 3622 0203 03       		.byte	0x3
 3623 0204 88       		.byte	0x88
 3624 0205 68000000 		.4byte	0x68
 3625 0209 04       		.byte	0x4
 3626 020a 01       		.byte	0x1
 3627 020b 0D       		.byte	0xd
 3628 020c 02       		.byte	0x2
 3629 020d 23       		.byte	0x23
 3630 020e 00       		.uleb128 0
 3631 020f 09       		.uleb128 0x9
 3632 0210 16030000 		.4byte	.LASF36
 3633 0214 03       		.byte	0x3
ARM GAS  C:\Users\ZHANGM~1\AppData\Local\Temp\ccBCEiox.s 			page 91


 3634 0215 89       		.byte	0x89
 3635 0216 68000000 		.4byte	0x68
 3636 021a 04       		.byte	0x4
 3637 021b 01       		.byte	0x1
 3638 021c 0C       		.byte	0xc
 3639 021d 02       		.byte	0x2
 3640 021e 23       		.byte	0x23
 3641 021f 00       		.uleb128 0
 3642 0220 09       		.uleb128 0x9
 3643 0221 34000000 		.4byte	.LASF37
 3644 0225 03       		.byte	0x3
 3645 0226 8A       		.byte	0x8a
 3646 0227 68000000 		.4byte	0x68
 3647 022b 04       		.byte	0x4
 3648 022c 01       		.byte	0x1
 3649 022d 0B       		.byte	0xb
 3650 022e 02       		.byte	0x2
 3651 022f 23       		.byte	0x23
 3652 0230 00       		.uleb128 0
 3653 0231 09       		.uleb128 0x9
 3654 0232 41050000 		.4byte	.LASF38
 3655 0236 03       		.byte	0x3
 3656 0237 8B       		.byte	0x8b
 3657 0238 68000000 		.4byte	0x68
 3658 023c 04       		.byte	0x4
 3659 023d 02       		.byte	0x2
 3660 023e 09       		.byte	0x9
 3661 023f 02       		.byte	0x2
 3662 0240 23       		.byte	0x23
 3663 0241 00       		.uleb128 0
 3664 0242 09       		.uleb128 0x9
 3665 0243 A5070000 		.4byte	.LASF39
 3666 0247 03       		.byte	0x3
 3667 0248 8C       		.byte	0x8c
 3668 0249 68000000 		.4byte	0x68
 3669 024d 04       		.byte	0x4
 3670 024e 01       		.byte	0x1
 3671 024f 08       		.byte	0x8
 3672 0250 02       		.byte	0x2
 3673 0251 23       		.byte	0x23
 3674 0252 00       		.uleb128 0
 3675 0253 09       		.uleb128 0x9
 3676 0254 F4060000 		.4byte	.LASF40
 3677 0258 03       		.byte	0x3
 3678 0259 8D       		.byte	0x8d
 3679 025a 68000000 		.4byte	0x68
 3680 025e 04       		.byte	0x4
 3681 025f 01       		.byte	0x1
 3682 0260 07       		.byte	0x7
 3683 0261 02       		.byte	0x2
 3684 0262 23       		.byte	0x23
 3685 0263 00       		.uleb128 0
 3686 0264 09       		.uleb128 0x9
 3687 0265 BF050000 		.4byte	.LASF41
 3688 0269 03       		.byte	0x3
 3689 026a 8E       		.byte	0x8e
 3690 026b 68000000 		.4byte	0x68
ARM GAS  C:\Users\ZHANGM~1\AppData\Local\Temp\ccBCEiox.s 			page 92


 3691 026f 04       		.byte	0x4
 3692 0270 01       		.byte	0x1
 3693 0271 06       		.byte	0x6
 3694 0272 02       		.byte	0x2
 3695 0273 23       		.byte	0x23
 3696 0274 00       		.uleb128 0
 3697 0275 09       		.uleb128 0x9
 3698 0276 0A030000 		.4byte	.LASF42
 3699 027a 03       		.byte	0x3
 3700 027b 8F       		.byte	0x8f
 3701 027c 68000000 		.4byte	0x68
 3702 0280 04       		.byte	0x4
 3703 0281 01       		.byte	0x1
 3704 0282 05       		.byte	0x5
 3705 0283 02       		.byte	0x2
 3706 0284 23       		.byte	0x23
 3707 0285 00       		.uleb128 0
 3708 0286 09       		.uleb128 0x9
 3709 0287 F3020000 		.4byte	.LASF43
 3710 028b 03       		.byte	0x3
 3711 028c 90       		.byte	0x90
 3712 028d 68000000 		.4byte	0x68
 3713 0291 04       		.byte	0x4
 3714 0292 01       		.byte	0x1
 3715 0293 04       		.byte	0x4
 3716 0294 02       		.byte	0x2
 3717 0295 23       		.byte	0x23
 3718 0296 00       		.uleb128 0
 3719 0297 09       		.uleb128 0x9
 3720 0298 5B010000 		.4byte	.LASF44
 3721 029c 03       		.byte	0x3
 3722 029d 91       		.byte	0x91
 3723 029e 68000000 		.4byte	0x68
 3724 02a2 04       		.byte	0x4
 3725 02a3 01       		.byte	0x1
 3726 02a4 03       		.byte	0x3
 3727 02a5 02       		.byte	0x2
 3728 02a6 23       		.byte	0x23
 3729 02a7 00       		.uleb128 0
 3730 02a8 09       		.uleb128 0x9
 3731 02a9 48050000 		.4byte	.LASF45
 3732 02ad 03       		.byte	0x3
 3733 02ae 92       		.byte	0x92
 3734 02af 68000000 		.4byte	0x68
 3735 02b3 04       		.byte	0x4
 3736 02b4 01       		.byte	0x1
 3737 02b5 02       		.byte	0x2
 3738 02b6 02       		.byte	0x2
 3739 02b7 23       		.byte	0x23
 3740 02b8 00       		.uleb128 0
 3741 02b9 09       		.uleb128 0x9
 3742 02ba 46010000 		.4byte	.LASF46
 3743 02be 03       		.byte	0x3
 3744 02bf 93       		.byte	0x93
 3745 02c0 68000000 		.4byte	0x68
 3746 02c4 04       		.byte	0x4
 3747 02c5 01       		.byte	0x1
ARM GAS  C:\Users\ZHANGM~1\AppData\Local\Temp\ccBCEiox.s 			page 93


 3748 02c6 01       		.byte	0x1
 3749 02c7 02       		.byte	0x2
 3750 02c8 23       		.byte	0x23
 3751 02c9 00       		.uleb128 0
 3752 02ca 00       		.byte	0
 3753 02cb 08       		.uleb128 0x8
 3754 02cc 04       		.byte	0x4
 3755 02cd 03       		.byte	0x3
 3756 02ce A2       		.byte	0xa2
 3757 02cf F6020000 		.4byte	0x2f6
 3758 02d3 09       		.uleb128 0x9
 3759 02d4 5D090000 		.4byte	.LASF47
 3760 02d8 03       		.byte	0x3
 3761 02d9 A4       		.byte	0xa4
 3762 02da 68000000 		.4byte	0x68
 3763 02de 04       		.byte	0x4
 3764 02df 01       		.byte	0x1
 3765 02e0 1F       		.byte	0x1f
 3766 02e1 02       		.byte	0x2
 3767 02e2 23       		.byte	0x23
 3768 02e3 00       		.uleb128 0
 3769 02e4 09       		.uleb128 0x9
 3770 02e5 F3000000 		.4byte	.LASF48
 3771 02e9 03       		.byte	0x3
 3772 02ea A5       		.byte	0xa5
 3773 02eb 68000000 		.4byte	0x68
 3774 02ef 04       		.byte	0x4
 3775 02f0 01       		.byte	0x1
 3776 02f1 1E       		.byte	0x1e
 3777 02f2 02       		.byte	0x2
 3778 02f3 23       		.byte	0x23
 3779 02f4 00       		.uleb128 0
 3780 02f5 00       		.byte	0
 3781 02f6 0A       		.uleb128 0xa
 3782 02f7 04       		.byte	0x4
 3783 02f8 03       		.byte	0x3
 3784 02f9 A0       		.byte	0xa0
 3785 02fa 15030000 		.4byte	0x315
 3786 02fe 0B       		.uleb128 0xb
 3787 02ff 616C6C00 		.ascii	"all\000"
 3788 0303 03       		.byte	0x3
 3789 0304 A1       		.byte	0xa1
 3790 0305 7A000000 		.4byte	0x7a
 3791 0309 0B       		.uleb128 0xb
 3792 030a 62697400 		.ascii	"bit\000"
 3793 030e 03       		.byte	0x3
 3794 030f A6       		.byte	0xa6
 3795 0310 CB020000 		.4byte	0x2cb
 3796 0314 00       		.byte	0
 3797 0315 08       		.uleb128 0x8
 3798 0316 04       		.byte	0x4
 3799 0317 03       		.byte	0x3
 3800 0318 AB       		.byte	0xab
 3801 0319 62030000 		.4byte	0x362
 3802 031d 09       		.uleb128 0x9
 3803 031e 39000000 		.4byte	.LASF49
 3804 0322 03       		.byte	0x3
ARM GAS  C:\Users\ZHANGM~1\AppData\Local\Temp\ccBCEiox.s 			page 94


 3805 0323 AD       		.byte	0xad
 3806 0324 68000000 		.4byte	0x68
 3807 0328 04       		.byte	0x4
 3808 0329 01       		.byte	0x1
 3809 032a 1F       		.byte	0x1f
 3810 032b 02       		.byte	0x2
 3811 032c 23       		.byte	0x23
 3812 032d 00       		.uleb128 0
 3813 032e 09       		.uleb128 0x9
 3814 032f 23010000 		.4byte	.LASF17
 3815 0333 03       		.byte	0x3
 3816 0334 AE       		.byte	0xae
 3817 0335 68000000 		.4byte	0x68
 3818 0339 04       		.byte	0x4
 3819 033a 01       		.byte	0x1
 3820 033b 1E       		.byte	0x1e
 3821 033c 02       		.byte	0x2
 3822 033d 23       		.byte	0x23
 3823 033e 00       		.uleb128 0
 3824 033f 09       		.uleb128 0x9
 3825 0340 65060000 		.4byte	.LASF50
 3826 0344 03       		.byte	0x3
 3827 0345 AF       		.byte	0xaf
 3828 0346 68000000 		.4byte	0x68
 3829 034a 04       		.byte	0x4
 3830 034b 01       		.byte	0x1
 3831 034c 1D       		.byte	0x1d
 3832 034d 02       		.byte	0x2
 3833 034e 23       		.byte	0x23
 3834 034f 00       		.uleb128 0
 3835 0350 09       		.uleb128 0x9
 3836 0351 E3070000 		.4byte	.LASF51
 3837 0355 03       		.byte	0x3
 3838 0356 B0       		.byte	0xb0
 3839 0357 68000000 		.4byte	0x68
 3840 035b 04       		.byte	0x4
 3841 035c 01       		.byte	0x1
 3842 035d 1C       		.byte	0x1c
 3843 035e 02       		.byte	0x2
 3844 035f 23       		.byte	0x23
 3845 0360 00       		.uleb128 0
 3846 0361 00       		.byte	0
 3847 0362 0A       		.uleb128 0xa
 3848 0363 04       		.byte	0x4
 3849 0364 03       		.byte	0x3
 3850 0365 A9       		.byte	0xa9
 3851 0366 81030000 		.4byte	0x381
 3852 036a 0B       		.uleb128 0xb
 3853 036b 616C6C00 		.ascii	"all\000"
 3854 036f 03       		.byte	0x3
 3855 0370 AA       		.byte	0xaa
 3856 0371 7A000000 		.4byte	0x7a
 3857 0375 0B       		.uleb128 0xb
 3858 0376 62697400 		.ascii	"bit\000"
 3859 037a 03       		.byte	0x3
 3860 037b B1       		.byte	0xb1
 3861 037c 15030000 		.4byte	0x315
ARM GAS  C:\Users\ZHANGM~1\AppData\Local\Temp\ccBCEiox.s 			page 95


 3862 0380 00       		.byte	0
 3863 0381 0C       		.uleb128 0xc
 3864 0382 41090000 		.4byte	.LASF54
 3865 0386 66       		.byte	0x66
 3866 0387 01       		.byte	0x1
 3867 0388 10       		.byte	0x10
 3868 0389 AA030000 		.4byte	0x3aa
 3869 038d 0D       		.uleb128 0xd
 3870 038e 21070000 		.4byte	.LASF52
 3871 0392 01       		.byte	0x1
 3872 0393 12       		.byte	0x12
 3873 0394 AA030000 		.4byte	0x3aa
 3874 0398 02       		.byte	0x2
 3875 0399 23       		.byte	0x23
 3876 039a 00       		.uleb128 0
 3877 039b 0D       		.uleb128 0xd
 3878 039c 96060000 		.4byte	.LASF53
 3879 03a0 01       		.byte	0x1
 3880 03a1 13       		.byte	0x13
 3881 03a2 7A000000 		.4byte	0x7a
 3882 03a6 02       		.byte	0x2
 3883 03a7 23       		.byte	0x23
 3884 03a8 64       		.uleb128 0x64
 3885 03a9 00       		.byte	0
 3886 03aa 0E       		.uleb128 0xe
 3887 03ab 6F000000 		.4byte	0x6f
 3888 03af BA030000 		.4byte	0x3ba
 3889 03b3 0F       		.uleb128 0xf
 3890 03b4 B5000000 		.4byte	0xb5
 3891 03b8 63       		.byte	0x63
 3892 03b9 00       		.byte	0
 3893 03ba 0C       		.uleb128 0xc
 3894 03bb 49090000 		.4byte	.LASF55
 3895 03bf 20       		.byte	0x20
 3896 03c0 01       		.byte	0x1
 3897 03c1 16       		.byte	0x16
 3898 03c2 E3030000 		.4byte	0x3e3
 3899 03c6 0D       		.uleb128 0xd
 3900 03c7 75070000 		.4byte	.LASF56
 3901 03cb 01       		.byte	0x1
 3902 03cc 18       		.byte	0x18
 3903 03cd E3030000 		.4byte	0x3e3
 3904 03d1 02       		.byte	0x2
 3905 03d2 23       		.byte	0x23
 3906 03d3 00       		.uleb128 0
 3907 03d4 0D       		.uleb128 0xd
 3908 03d5 C3030000 		.4byte	.LASF57
 3909 03d9 01       		.byte	0x1
 3910 03da 19       		.byte	0x19
 3911 03db 7A000000 		.4byte	0x7a
 3912 03df 02       		.byte	0x2
 3913 03e0 23       		.byte	0x23
 3914 03e1 1E       		.uleb128 0x1e
 3915 03e2 00       		.byte	0
 3916 03e3 0E       		.uleb128 0xe
 3917 03e4 6F000000 		.4byte	0x6f
 3918 03e8 F3030000 		.4byte	0x3f3
ARM GAS  C:\Users\ZHANGM~1\AppData\Local\Temp\ccBCEiox.s 			page 96


 3919 03ec 0F       		.uleb128 0xf
 3920 03ed B5000000 		.4byte	0xb5
 3921 03f1 1D       		.byte	0x1d
 3922 03f2 00       		.byte	0
 3923 03f3 08       		.uleb128 0x8
 3924 03f4 04       		.byte	0x4
 3925 03f5 01       		.byte	0x1
 3926 03f6 1C       		.byte	0x1c
 3927 03f7 73040000 		.4byte	0x473
 3928 03fb 09       		.uleb128 0x9
 3929 03fc BD010000 		.4byte	.LASF58
 3930 0400 01       		.byte	0x1
 3931 0401 1D       		.byte	0x1d
 3932 0402 68000000 		.4byte	0x68
 3933 0406 04       		.byte	0x4
 3934 0407 01       		.byte	0x1
 3935 0408 1F       		.byte	0x1f
 3936 0409 02       		.byte	0x2
 3937 040a 23       		.byte	0x23
 3938 040b 00       		.uleb128 0
 3939 040c 09       		.uleb128 0x9
 3940 040d D9030000 		.4byte	.LASF59
 3941 0411 01       		.byte	0x1
 3942 0412 1E       		.byte	0x1e
 3943 0413 68000000 		.4byte	0x68
 3944 0417 04       		.byte	0x4
 3945 0418 01       		.byte	0x1
 3946 0419 1E       		.byte	0x1e
 3947 041a 02       		.byte	0x2
 3948 041b 23       		.byte	0x23
 3949 041c 00       		.uleb128 0
 3950 041d 09       		.uleb128 0x9
 3951 041e 1A000000 		.4byte	.LASF60
 3952 0422 01       		.byte	0x1
 3953 0423 1F       		.byte	0x1f
 3954 0424 68000000 		.4byte	0x68
 3955 0428 04       		.byte	0x4
 3956 0429 01       		.byte	0x1
 3957 042a 1D       		.byte	0x1d
 3958 042b 02       		.byte	0x2
 3959 042c 23       		.byte	0x23
 3960 042d 00       		.uleb128 0
 3961 042e 09       		.uleb128 0x9
 3962 042f 81080000 		.4byte	.LASF61
 3963 0433 01       		.byte	0x1
 3964 0434 20       		.byte	0x20
 3965 0435 68000000 		.4byte	0x68
 3966 0439 04       		.byte	0x4
 3967 043a 01       		.byte	0x1
 3968 043b 1C       		.byte	0x1c
 3969 043c 02       		.byte	0x2
 3970 043d 23       		.byte	0x23
 3971 043e 00       		.uleb128 0
 3972 043f 09       		.uleb128 0x9
 3973 0440 B1040000 		.4byte	.LASF62
 3974 0444 01       		.byte	0x1
 3975 0445 21       		.byte	0x21
ARM GAS  C:\Users\ZHANGM~1\AppData\Local\Temp\ccBCEiox.s 			page 97


 3976 0446 68000000 		.4byte	0x68
 3977 044a 04       		.byte	0x4
 3978 044b 01       		.byte	0x1
 3979 044c 1B       		.byte	0x1b
 3980 044d 02       		.byte	0x2
 3981 044e 23       		.byte	0x23
 3982 044f 00       		.uleb128 0
 3983 0450 09       		.uleb128 0x9
 3984 0451 A6000000 		.4byte	.LASF63
 3985 0455 01       		.byte	0x1
 3986 0456 22       		.byte	0x22
 3987 0457 68000000 		.4byte	0x68
 3988 045b 04       		.byte	0x4
 3989 045c 01       		.byte	0x1
 3990 045d 1A       		.byte	0x1a
 3991 045e 02       		.byte	0x2
 3992 045f 23       		.byte	0x23
 3993 0460 00       		.uleb128 0
 3994 0461 09       		.uleb128 0x9
 3995 0462 03060000 		.4byte	.LASF64
 3996 0466 01       		.byte	0x1
 3997 0467 23       		.byte	0x23
 3998 0468 68000000 		.4byte	0x68
 3999 046c 04       		.byte	0x4
 4000 046d 01       		.byte	0x1
 4001 046e 19       		.byte	0x19
 4002 046f 02       		.byte	0x2
 4003 0470 23       		.byte	0x23
 4004 0471 00       		.uleb128 0
 4005 0472 00       		.byte	0
 4006 0473 08       		.uleb128 0x8
 4007 0474 04       		.byte	0x4
 4008 0475 01       		.byte	0x1
 4009 0476 25       		.byte	0x25
 4010 0477 C0040000 		.4byte	0x4c0
 4011 047b 09       		.uleb128 0x9
 4012 047c 7B010000 		.4byte	.LASF65
 4013 0480 01       		.byte	0x1
 4014 0481 26       		.byte	0x26
 4015 0482 68000000 		.4byte	0x68
 4016 0486 04       		.byte	0x4
 4017 0487 01       		.byte	0x1
 4018 0488 1F       		.byte	0x1f
 4019 0489 02       		.byte	0x2
 4020 048a 23       		.byte	0x23
 4021 048b 00       		.uleb128 0
 4022 048c 09       		.uleb128 0x9
 4023 048d 76000000 		.4byte	.LASF66
 4024 0491 01       		.byte	0x1
 4025 0492 27       		.byte	0x27
 4026 0493 68000000 		.4byte	0x68
 4027 0497 04       		.byte	0x4
 4028 0498 01       		.byte	0x1
 4029 0499 1E       		.byte	0x1e
 4030 049a 02       		.byte	0x2
 4031 049b 23       		.byte	0x23
 4032 049c 00       		.uleb128 0
ARM GAS  C:\Users\ZHANGM~1\AppData\Local\Temp\ccBCEiox.s 			page 98


 4033 049d 09       		.uleb128 0x9
 4034 049e ED040000 		.4byte	.LASF67
 4035 04a2 01       		.byte	0x1
 4036 04a3 28       		.byte	0x28
 4037 04a4 68000000 		.4byte	0x68
 4038 04a8 04       		.byte	0x4
 4039 04a9 01       		.byte	0x1
 4040 04aa 1D       		.byte	0x1d
 4041 04ab 02       		.byte	0x2
 4042 04ac 23       		.byte	0x23
 4043 04ad 00       		.uleb128 0
 4044 04ae 09       		.uleb128 0x9
 4045 04af 6E060000 		.4byte	.LASF68
 4046 04b3 01       		.byte	0x1
 4047 04b4 29       		.byte	0x29
 4048 04b5 68000000 		.4byte	0x68
 4049 04b9 04       		.byte	0x4
 4050 04ba 01       		.byte	0x1
 4051 04bb 1C       		.byte	0x1c
 4052 04bc 02       		.byte	0x2
 4053 04bd 23       		.byte	0x23
 4054 04be 00       		.uleb128 0
 4055 04bf 00       		.byte	0
 4056 04c0 10       		.uleb128 0x10
 4057 04c1 01       		.byte	0x1
 4058 04c2 50010000 		.4byte	.LASF70
 4059 04c6 01       		.byte	0x1
 4060 04c7 46       		.byte	0x46
 4061 04c8 01       		.byte	0x1
 4062 04c9 6F000000 		.4byte	0x6f
 4063 04cd 00000000 		.4byte	.LFB33
 4064 04d1 24000000 		.4byte	.LFE33
 4065 04d5 00000000 		.4byte	.LLST0
 4066 04d9 01       		.byte	0x1
 4067 04da 0C050000 		.4byte	0x50c
 4068 04de 11       		.uleb128 0x11
 4069 04df 40060000 		.4byte	.LASF69
 4070 04e3 01       		.byte	0x1
 4071 04e4 46       		.byte	0x46
 4072 04e5 BE000000 		.4byte	0xbe
 4073 04e9 20000000 		.4byte	.LLST1
 4074 04ed 12       		.uleb128 0x12
 4075 04ee 4C656E00 		.ascii	"Len\000"
 4076 04f2 01       		.byte	0x1
 4077 04f3 46       		.byte	0x46
 4078 04f4 7A000000 		.4byte	0x7a
 4079 04f8 4B000000 		.4byte	.LLST2
 4080 04fc 13       		.uleb128 0x13
 4081 04fd 7B050000 		.4byte	.LASF72
 4082 0501 01       		.byte	0x1
 4083 0502 48       		.byte	0x48
 4084 0503 6F000000 		.4byte	0x6f
 4085 0507 81000000 		.4byte	.LLST3
 4086 050b 00       		.byte	0
 4087 050c 10       		.uleb128 0x10
 4088 050d 01       		.byte	0x1
 4089 050e CB020000 		.4byte	.LASF71
ARM GAS  C:\Users\ZHANGM~1\AppData\Local\Temp\ccBCEiox.s 			page 99


 4090 0512 01       		.byte	0x1
 4091 0513 56       		.byte	0x56
 4092 0514 01       		.byte	0x1
 4093 0515 6F000000 		.4byte	0x6f
 4094 0519 00000000 		.4byte	.LFB34
 4095 051d 24000000 		.4byte	.LFE34
 4096 0521 AB000000 		.4byte	.LLST4
 4097 0525 01       		.byte	0x1
 4098 0526 58050000 		.4byte	0x558
 4099 052a 11       		.uleb128 0x11
 4100 052b 40060000 		.4byte	.LASF69
 4101 052f 01       		.byte	0x1
 4102 0530 56       		.byte	0x56
 4103 0531 BE000000 		.4byte	0xbe
 4104 0535 CB000000 		.4byte	.LLST5
 4105 0539 12       		.uleb128 0x12
 4106 053a 4C656E00 		.ascii	"Len\000"
 4107 053e 01       		.byte	0x1
 4108 053f 56       		.byte	0x56
 4109 0540 7A000000 		.4byte	0x7a
 4110 0544 F6000000 		.4byte	.LLST6
 4111 0548 13       		.uleb128 0x13
 4112 0549 7B050000 		.4byte	.LASF72
 4113 054d 01       		.byte	0x1
 4114 054e 58       		.byte	0x58
 4115 054f 6F000000 		.4byte	0x6f
 4116 0553 2C010000 		.4byte	.LLST7
 4117 0557 00       		.byte	0
 4118 0558 14       		.uleb128 0x14
 4119 0559 01       		.byte	0x1
 4120 055a D8010000 		.4byte	.LASF74
 4121 055e 01       		.byte	0x1
 4122 055f 68       		.byte	0x68
 4123 0560 01       		.byte	0x1
 4124 0561 00000000 		.4byte	.LFB35
 4125 0565 08010000 		.4byte	.LFE35
 4126 0569 64010000 		.4byte	.LLST8
 4127 056d 01       		.byte	0x1
 4128 056e 82050000 		.4byte	0x582
 4129 0572 11       		.uleb128 0x11
 4130 0573 8A010000 		.4byte	.LASF73
 4131 0577 01       		.byte	0x1
 4132 0578 68       		.byte	0x68
 4133 0579 6F000000 		.4byte	0x6f
 4134 057d 84010000 		.4byte	.LLST9
 4135 0581 00       		.byte	0
 4136 0582 14       		.uleb128 0x14
 4137 0583 01       		.byte	0x1
 4138 0584 7C040000 		.4byte	.LASF75
 4139 0588 01       		.byte	0x1
 4140 0589 C7       		.byte	0xc7
 4141 058a 01       		.byte	0x1
 4142 058b 00000000 		.4byte	.LFB36
 4143 058f 1C010000 		.4byte	.LFE36
 4144 0593 A5010000 		.4byte	.LLST10
 4145 0597 01       		.byte	0x1
 4146 0598 AC050000 		.4byte	0x5ac
ARM GAS  C:\Users\ZHANGM~1\AppData\Local\Temp\ccBCEiox.s 			page 100


 4147 059c 11       		.uleb128 0x11
 4148 059d 8A010000 		.4byte	.LASF73
 4149 05a1 01       		.byte	0x1
 4150 05a2 C7       		.byte	0xc7
 4151 05a3 6F000000 		.4byte	0x6f
 4152 05a7 C5010000 		.4byte	.LLST11
 4153 05ab 00       		.byte	0
 4154 05ac 15       		.uleb128 0x15
 4155 05ad 01       		.byte	0x1
 4156 05ae C7070000 		.4byte	.LASF76
 4157 05b2 01       		.byte	0x1
 4158 05b3 3101     		.2byte	0x131
 4159 05b5 01       		.byte	0x1
 4160 05b6 00000000 		.4byte	.LFB37
 4161 05ba 30000000 		.4byte	.LFE37
 4162 05be E6010000 		.4byte	.LLST12
 4163 05c2 01       		.byte	0x1
 4164 05c3 E6050000 		.4byte	0x5e6
 4165 05c7 16       		.uleb128 0x16
 4166 05c8 B1060000 		.4byte	.LASF77
 4167 05cc 01       		.byte	0x1
 4168 05cd 3101     		.2byte	0x131
 4169 05cf BE000000 		.4byte	0xbe
 4170 05d3 01       		.byte	0x1
 4171 05d4 50       		.byte	0x50
 4172 05d5 17       		.uleb128 0x17
 4173 05d6 75040000 		.4byte	.LASF78
 4174 05da 01       		.byte	0x1
 4175 05db 3101     		.2byte	0x131
 4176 05dd 7A000000 		.4byte	0x7a
 4177 05e1 06020000 		.4byte	.LLST13
 4178 05e5 00       		.byte	0
 4179 05e6 15       		.uleb128 0x15
 4180 05e7 01       		.byte	0x1
 4181 05e8 E5010000 		.4byte	.LASF79
 4182 05ec 01       		.byte	0x1
 4183 05ed 4001     		.2byte	0x140
 4184 05ef 01       		.byte	0x1
 4185 05f0 00000000 		.4byte	.LFB38
 4186 05f4 1C000000 		.4byte	.LFE38
 4187 05f8 27020000 		.4byte	.LLST14
 4188 05fc 01       		.byte	0x1
 4189 05fd 10060000 		.4byte	0x610
 4190 0601 16       		.uleb128 0x16
 4191 0602 1B030000 		.4byte	.LASF80
 4192 0606 01       		.byte	0x1
 4193 0607 4001     		.2byte	0x140
 4194 0609 6F000000 		.4byte	0x6f
 4195 060d 01       		.byte	0x1
 4196 060e 50       		.byte	0x50
 4197 060f 00       		.byte	0
 4198 0610 15       		.uleb128 0x15
 4199 0611 01       		.byte	0x1
 4200 0612 0A050000 		.4byte	.LASF81
 4201 0616 01       		.byte	0x1
 4202 0617 4B01     		.2byte	0x14b
 4203 0619 01       		.byte	0x1
ARM GAS  C:\Users\ZHANGM~1\AppData\Local\Temp\ccBCEiox.s 			page 101


 4204 061a 00000000 		.4byte	.LFB39
 4205 061e 1C000000 		.4byte	.LFE39
 4206 0622 47020000 		.4byte	.LLST15
 4207 0626 01       		.byte	0x1
 4208 0627 3A060000 		.4byte	0x63a
 4209 062b 16       		.uleb128 0x16
 4210 062c 1B030000 		.4byte	.LASF80
 4211 0630 01       		.byte	0x1
 4212 0631 4B01     		.2byte	0x14b
 4213 0633 6F000000 		.4byte	0x6f
 4214 0637 01       		.byte	0x1
 4215 0638 50       		.byte	0x50
 4216 0639 00       		.byte	0
 4217 063a 15       		.uleb128 0x15
 4218 063b 01       		.byte	0x1
 4219 063c FB020000 		.4byte	.LASF82
 4220 0640 01       		.byte	0x1
 4221 0641 5601     		.2byte	0x156
 4222 0643 01       		.byte	0x1
 4223 0644 00000000 		.4byte	.LFB40
 4224 0648 48000000 		.4byte	.LFE40
 4225 064c 67020000 		.4byte	.LLST16
 4226 0650 01       		.byte	0x1
 4227 0651 5F060000 		.4byte	0x65f
 4228 0655 18       		.uleb128 0x18
 4229 0656 26000000 		.4byte	.LVL25
 4230 065a E6050000 		.4byte	0x5e6
 4231 065e 00       		.byte	0
 4232 065f 19       		.uleb128 0x19
 4233 0660 01       		.byte	0x1
 4234 0661 20050000 		.4byte	.LASF117
 4235 0665 01       		.byte	0x1
 4236 0666 6801     		.2byte	0x168
 4237 0668 01       		.byte	0x1
 4238 0669 00000000 		.4byte	.LFB41
 4239 066d 02000000 		.4byte	.LFE41
 4240 0671 02       		.byte	0x2
 4241 0672 7D       		.byte	0x7d
 4242 0673 00       		.sleb128 0
 4243 0674 01       		.byte	0x1
 4244 0675 15       		.uleb128 0x15
 4245 0676 01       		.byte	0x1
 4246 0677 0B000000 		.4byte	.LASF83
 4247 067b 01       		.byte	0x1
 4248 067c 7F01     		.2byte	0x17f
 4249 067e 01       		.byte	0x1
 4250 067f 00000000 		.4byte	.LFB42
 4251 0683 94000000 		.4byte	.LFE42
 4252 0687 87020000 		.4byte	.LLST17
 4253 068b 01       		.byte	0x1
 4254 068c 66070000 		.4byte	0x766
 4255 0690 17       		.uleb128 0x17
 4256 0691 3C090000 		.4byte	.LASF84
 4257 0695 01       		.byte	0x1
 4258 0696 7F01     		.2byte	0x17f
 4259 0698 6F000000 		.4byte	0x6f
 4260 069c A7020000 		.4byte	.LLST18
ARM GAS  C:\Users\ZHANGM~1\AppData\Local\Temp\ccBCEiox.s 			page 102


 4261 06a0 17       		.uleb128 0x17
 4262 06a1 5C060000 		.4byte	.LASF85
 4263 06a5 01       		.byte	0x1
 4264 06a6 8001     		.2byte	0x180
 4265 06a8 7A000000 		.4byte	0x7a
 4266 06ac C8020000 		.4byte	.LLST19
 4267 06b0 17       		.uleb128 0x17
 4268 06b1 4F000000 		.4byte	.LASF86
 4269 06b5 01       		.byte	0x1
 4270 06b6 8101     		.2byte	0x181
 4271 06b8 BE000000 		.4byte	0xbe
 4272 06bc E9020000 		.4byte	.LLST20
 4273 06c0 17       		.uleb128 0x17
 4274 06c1 48080000 		.4byte	.LASF87
 4275 06c5 01       		.byte	0x1
 4276 06c6 8201     		.2byte	0x182
 4277 06c8 7A000000 		.4byte	0x7a
 4278 06cc 08030000 		.4byte	.LLST21
 4279 06d0 1A       		.uleb128 0x1a
 4280 06d1 FE050000 		.4byte	.LASF88
 4281 06d5 01       		.byte	0x1
 4282 06d6 8501     		.2byte	0x185
 4283 06d8 AA030000 		.4byte	0x3aa
 4284 06dc 05       		.byte	0x5
 4285 06dd 03       		.byte	0x3
 4286 06de 00000000 		.4byte	cBuf.7035
 4287 06e2 1B       		.uleb128 0x1b
 4288 06e3 16000000 		.4byte	.LVL30
 4289 06e7 D4140000 		.4byte	0x14d4
 4290 06eb 01070000 		.4byte	0x701
 4291 06ef 1C       		.uleb128 0x1c
 4292 06f0 01       		.byte	0x1
 4293 06f1 52       		.byte	0x52
 4294 06f2 02       		.byte	0x2
 4295 06f3 08       		.byte	0x8
 4296 06f4 64       		.byte	0x64
 4297 06f5 1C       		.uleb128 0x1c
 4298 06f6 01       		.byte	0x1
 4299 06f7 51       		.byte	0x51
 4300 06f8 01       		.byte	0x1
 4301 06f9 30       		.byte	0x30
 4302 06fa 1C       		.uleb128 0x1c
 4303 06fb 01       		.byte	0x1
 4304 06fc 50       		.byte	0x50
 4305 06fd 02       		.byte	0x2
 4306 06fe 74       		.byte	0x74
 4307 06ff 00       		.sleb128 0
 4308 0700 00       		.byte	0
 4309 0701 1B       		.uleb128 0x1b
 4310 0702 58000000 		.4byte	.LVL31
 4311 0706 F5140000 		.4byte	0x14f5
 4312 070a 22070000 		.4byte	0x722
 4313 070e 1C       		.uleb128 0x1c
 4314 070f 01       		.byte	0x1
 4315 0710 52       		.byte	0x52
 4316 0711 02       		.byte	0x2
 4317 0712 75       		.byte	0x75
ARM GAS  C:\Users\ZHANGM~1\AppData\Local\Temp\ccBCEiox.s 			page 103


 4318 0713 00       		.sleb128 0
 4319 0714 1C       		.uleb128 0x1c
 4320 0715 01       		.byte	0x1
 4321 0716 51       		.byte	0x51
 4322 0717 03       		.byte	0x3
 4323 0718 91       		.byte	0x91
 4324 0719 64       		.sleb128 -28
 4325 071a 06       		.byte	0x6
 4326 071b 1C       		.uleb128 0x1c
 4327 071c 01       		.byte	0x1
 4328 071d 50       		.byte	0x50
 4329 071e 02       		.byte	0x2
 4330 071f 74       		.byte	0x74
 4331 0720 0A       		.sleb128 10
 4332 0721 00       		.byte	0
 4333 0722 1B       		.uleb128 0x1b
 4334 0723 64000000 		.4byte	.LVL32
 4335 0727 0C050000 		.4byte	0x50c
 4336 072b 3C070000 		.4byte	0x73c
 4337 072f 1C       		.uleb128 0x1c
 4338 0730 01       		.byte	0x1
 4339 0731 51       		.byte	0x51
 4340 0732 02       		.byte	0x2
 4341 0733 75       		.byte	0x75
 4342 0734 0A       		.sleb128 10
 4343 0735 1C       		.uleb128 0x1c
 4344 0736 01       		.byte	0x1
 4345 0737 50       		.byte	0x50
 4346 0738 02       		.byte	0x2
 4347 0739 74       		.byte	0x74
 4348 073a 00       		.sleb128 0
 4349 073b 00       		.byte	0
 4350 073c 1B       		.uleb128 0x1b
 4351 073d 70000000 		.4byte	.LVL33
 4352 0741 0C050000 		.4byte	0x50c
 4353 0745 4F070000 		.4byte	0x74f
 4354 0749 1C       		.uleb128 0x1c
 4355 074a 01       		.byte	0x1
 4356 074b 51       		.byte	0x51
 4357 074c 01       		.byte	0x1
 4358 074d 3A       		.byte	0x3a
 4359 074e 00       		.byte	0
 4360 074f 1D       		.uleb128 0x1d
 4361 0750 84000000 		.4byte	.LVL34
 4362 0754 AC050000 		.4byte	0x5ac
 4363 0758 1C       		.uleb128 0x1c
 4364 0759 01       		.byte	0x1
 4365 075a 51       		.byte	0x51
 4366 075b 02       		.byte	0x2
 4367 075c 75       		.byte	0x75
 4368 075d 00       		.sleb128 0
 4369 075e 1C       		.uleb128 0x1c
 4370 075f 01       		.byte	0x1
 4371 0760 50       		.byte	0x50
 4372 0761 02       		.byte	0x2
 4373 0762 74       		.byte	0x74
 4374 0763 00       		.sleb128 0
ARM GAS  C:\Users\ZHANGM~1\AppData\Local\Temp\ccBCEiox.s 			page 104


 4375 0764 00       		.byte	0
 4376 0765 00       		.byte	0
 4377 0766 15       		.uleb128 0x15
 4378 0767 01       		.byte	0x1
 4379 0768 8A060000 		.4byte	.LASF89
 4380 076c 01       		.byte	0x1
 4381 076d B001     		.2byte	0x1b0
 4382 076f 01       		.byte	0x1
 4383 0770 00000000 		.4byte	.LFB43
 4384 0774 10000000 		.4byte	.LFE43
 4385 0778 29030000 		.4byte	.LLST22
 4386 077c 01       		.byte	0x1
 4387 077d A1070000 		.4byte	0x7a1
 4388 0781 1D       		.uleb128 0x1d
 4389 0782 0E000000 		.4byte	.LVL35
 4390 0786 75060000 		.4byte	0x675
 4391 078a 1C       		.uleb128 0x1c
 4392 078b 01       		.byte	0x1
 4393 078c 53       		.byte	0x53
 4394 078d 01       		.byte	0x1
 4395 078e 30       		.byte	0x30
 4396 078f 1C       		.uleb128 0x1c
 4397 0790 01       		.byte	0x1
 4398 0791 52       		.byte	0x52
 4399 0792 01       		.byte	0x1
 4400 0793 30       		.byte	0x30
 4401 0794 1C       		.uleb128 0x1c
 4402 0795 01       		.byte	0x1
 4403 0796 51       		.byte	0x51
 4404 0797 01       		.byte	0x1
 4405 0798 30       		.byte	0x30
 4406 0799 1C       		.uleb128 0x1c
 4407 079a 01       		.byte	0x1
 4408 079b 50       		.byte	0x50
 4409 079c 02       		.byte	0x2
 4410 079d 09       		.byte	0x9
 4411 079e 80       		.byte	0x80
 4412 079f 00       		.byte	0
 4413 07a0 00       		.byte	0
 4414 07a1 15       		.uleb128 0x15
 4415 07a2 01       		.byte	0x1
 4416 07a3 6A020000 		.4byte	.LASF90
 4417 07a7 01       		.byte	0x1
 4418 07a8 BF01     		.2byte	0x1bf
 4419 07aa 01       		.byte	0x1
 4420 07ab 00000000 		.4byte	.LFB44
 4421 07af 24000000 		.4byte	.LFE44
 4422 07b3 49030000 		.4byte	.LLST23
 4423 07b7 01       		.byte	0x1
 4424 07b8 ED070000 		.4byte	0x7ed
 4425 07bc 1A       		.uleb128 0x1a
 4426 07bd FE050000 		.4byte	.LASF88
 4427 07c1 01       		.byte	0x1
 4428 07c2 C101     		.2byte	0x1c1
 4429 07c4 ED070000 		.4byte	0x7ed
 4430 07c8 02       		.byte	0x2
 4431 07c9 91       		.byte	0x91
ARM GAS  C:\Users\ZHANGM~1\AppData\Local\Temp\ccBCEiox.s 			page 105


 4432 07ca 70       		.sleb128 -16
 4433 07cb 1D       		.uleb128 0x1d
 4434 07cc 1E000000 		.4byte	.LVL36
 4435 07d0 75060000 		.4byte	0x675
 4436 07d4 1C       		.uleb128 0x1c
 4437 07d5 01       		.byte	0x1
 4438 07d6 53       		.byte	0x53
 4439 07d7 01       		.byte	0x1
 4440 07d8 36       		.byte	0x36
 4441 07d9 1C       		.uleb128 0x1c
 4442 07da 01       		.byte	0x1
 4443 07db 52       		.byte	0x52
 4444 07dc 02       		.byte	0x2
 4445 07dd 91       		.byte	0x91
 4446 07de 70       		.sleb128 -16
 4447 07df 1C       		.uleb128 0x1c
 4448 07e0 01       		.byte	0x1
 4449 07e1 51       		.byte	0x51
 4450 07e2 03       		.byte	0x3
 4451 07e3 0B       		.byte	0xb
 4452 07e4 C0CC     		.2byte	0xccc0
 4453 07e6 1C       		.uleb128 0x1c
 4454 07e7 01       		.byte	0x1
 4455 07e8 50       		.byte	0x50
 4456 07e9 01       		.byte	0x1
 4457 07ea 30       		.byte	0x30
 4458 07eb 00       		.byte	0
 4459 07ec 00       		.byte	0
 4460 07ed 0E       		.uleb128 0xe
 4461 07ee 6F000000 		.4byte	0x6f
 4462 07f2 FD070000 		.4byte	0x7fd
 4463 07f6 0F       		.uleb128 0xf
 4464 07f7 B5000000 		.4byte	0xb5
 4465 07fb 05       		.byte	0x5
 4466 07fc 00       		.byte	0
 4467 07fd 15       		.uleb128 0x15
 4468 07fe 01       		.byte	0x1
 4469 07ff 58030000 		.4byte	.LASF91
 4470 0803 01       		.byte	0x1
 4471 0804 E701     		.2byte	0x1e7
 4472 0806 01       		.byte	0x1
 4473 0807 00000000 		.4byte	.LFB45
 4474 080b 60000000 		.4byte	.LFE45
 4475 080f 69030000 		.4byte	.LLST24
 4476 0813 01       		.byte	0x1
 4477 0814 49080000 		.4byte	0x849
 4478 0818 1A       		.uleb128 0x1a
 4479 0819 FE050000 		.4byte	.LASF88
 4480 081d 01       		.byte	0x1
 4481 081e E901     		.2byte	0x1e9
 4482 0820 49080000 		.4byte	0x849
 4483 0824 02       		.byte	0x2
 4484 0825 91       		.byte	0x91
 4485 0826 68       		.sleb128 -24
 4486 0827 1D       		.uleb128 0x1d
 4487 0828 4E000000 		.4byte	.LVL37
 4488 082c 75060000 		.4byte	0x675
ARM GAS  C:\Users\ZHANGM~1\AppData\Local\Temp\ccBCEiox.s 			page 106


 4489 0830 1C       		.uleb128 0x1c
 4490 0831 01       		.byte	0x1
 4491 0832 53       		.byte	0x53
 4492 0833 01       		.byte	0x1
 4493 0834 40       		.byte	0x40
 4494 0835 1C       		.uleb128 0x1c
 4495 0836 01       		.byte	0x1
 4496 0837 52       		.byte	0x52
 4497 0838 02       		.byte	0x2
 4498 0839 91       		.byte	0x91
 4499 083a 68       		.sleb128 -24
 4500 083b 1C       		.uleb128 0x1c
 4501 083c 01       		.byte	0x1
 4502 083d 51       		.byte	0x51
 4503 083e 02       		.byte	0x2
 4504 083f 08       		.byte	0x8
 4505 0840 B2       		.byte	0xb2
 4506 0841 1C       		.uleb128 0x1c
 4507 0842 01       		.byte	0x1
 4508 0843 50       		.byte	0x50
 4509 0844 02       		.byte	0x2
 4510 0845 09       		.byte	0x9
 4511 0846 80       		.byte	0x80
 4512 0847 00       		.byte	0
 4513 0848 00       		.byte	0
 4514 0849 0E       		.uleb128 0xe
 4515 084a 6F000000 		.4byte	0x6f
 4516 084e 59080000 		.4byte	0x859
 4517 0852 0F       		.uleb128 0xf
 4518 0853 B5000000 		.4byte	0xb5
 4519 0857 0F       		.byte	0xf
 4520 0858 00       		.byte	0
 4521 0859 15       		.uleb128 0x15
 4522 085a 01       		.byte	0x1
 4523 085b DC060000 		.4byte	.LASF92
 4524 085f 01       		.byte	0x1
 4525 0860 0902     		.2byte	0x209
 4526 0862 01       		.byte	0x1
 4527 0863 00000000 		.4byte	.LFB46
 4528 0867 2E000000 		.4byte	.LFE46
 4529 086b 89030000 		.4byte	.LLST25
 4530 086f 01       		.byte	0x1
 4531 0870 A5080000 		.4byte	0x8a5
 4532 0874 1A       		.uleb128 0x1a
 4533 0875 FE050000 		.4byte	.LASF88
 4534 0879 01       		.byte	0x1
 4535 087a 0B02     		.2byte	0x20b
 4536 087c A5080000 		.4byte	0x8a5
 4537 0880 02       		.byte	0x2
 4538 0881 91       		.byte	0x91
 4539 0882 70       		.sleb128 -16
 4540 0883 1D       		.uleb128 0x1d
 4541 0884 2C000000 		.4byte	.LVL38
 4542 0888 75060000 		.4byte	0x675
 4543 088c 1C       		.uleb128 0x1c
 4544 088d 01       		.byte	0x1
 4545 088e 53       		.byte	0x53
ARM GAS  C:\Users\ZHANGM~1\AppData\Local\Temp\ccBCEiox.s 			page 107


 4546 088f 01       		.byte	0x1
 4547 0890 38       		.byte	0x38
 4548 0891 1C       		.uleb128 0x1c
 4549 0892 01       		.byte	0x1
 4550 0893 52       		.byte	0x52
 4551 0894 02       		.byte	0x2
 4552 0895 91       		.byte	0x91
 4553 0896 70       		.sleb128 -16
 4554 0897 1C       		.uleb128 0x1c
 4555 0898 01       		.byte	0x1
 4556 0899 51       		.byte	0x51
 4557 089a 02       		.byte	0x2
 4558 089b 08       		.byte	0x8
 4559 089c B5       		.byte	0xb5
 4560 089d 1C       		.uleb128 0x1c
 4561 089e 01       		.byte	0x1
 4562 089f 50       		.byte	0x50
 4563 08a0 02       		.byte	0x2
 4564 08a1 09       		.byte	0x9
 4565 08a2 80       		.byte	0x80
 4566 08a3 00       		.byte	0
 4567 08a4 00       		.byte	0
 4568 08a5 0E       		.uleb128 0xe
 4569 08a6 6F000000 		.4byte	0x6f
 4570 08aa B5080000 		.4byte	0x8b5
 4571 08ae 0F       		.uleb128 0xf
 4572 08af B5000000 		.4byte	0xb5
 4573 08b3 07       		.byte	0x7
 4574 08b4 00       		.byte	0
 4575 08b5 15       		.uleb128 0x15
 4576 08b6 01       		.byte	0x1
 4577 08b7 67000000 		.4byte	.LASF93
 4578 08bb 01       		.byte	0x1
 4579 08bc 1602     		.2byte	0x216
 4580 08be 01       		.byte	0x1
 4581 08bf 00000000 		.4byte	.LFB47
 4582 08c3 38000000 		.4byte	.LFE47
 4583 08c7 A9030000 		.4byte	.LLST26
 4584 08cb 01       		.byte	0x1
 4585 08cc 25090000 		.4byte	0x925
 4586 08d0 1A       		.uleb128 0x1a
 4587 08d1 FE050000 		.4byte	.LASF88
 4588 08d5 01       		.byte	0x1
 4589 08d6 1802     		.2byte	0x218
 4590 08d8 25090000 		.4byte	0x925
 4591 08dc 02       		.byte	0x2
 4592 08dd 91       		.byte	0x91
 4593 08de 60       		.sleb128 -32
 4594 08df 1B       		.uleb128 0x1b
 4595 08e0 20000000 		.4byte	.LVL39
 4596 08e4 F5140000 		.4byte	0x14f5
 4597 08e8 02090000 		.4byte	0x902
 4598 08ec 1C       		.uleb128 0x1c
 4599 08ed 01       		.byte	0x1
 4600 08ee 52       		.byte	0x52
 4601 08ef 02       		.byte	0x2
 4602 08f0 74       		.byte	0x74
ARM GAS  C:\Users\ZHANGM~1\AppData\Local\Temp\ccBCEiox.s 			page 108


 4603 08f1 00       		.sleb128 0
 4604 08f2 1C       		.uleb128 0x1c
 4605 08f3 01       		.byte	0x1
 4606 08f4 51       		.byte	0x51
 4607 08f5 05       		.byte	0x5
 4608 08f6 03       		.byte	0x3
 4609 08f7 00000000 		.4byte	Error_Data_Buf
 4610 08fb 1C       		.uleb128 0x1c
 4611 08fc 01       		.byte	0x1
 4612 08fd 50       		.byte	0x50
 4613 08fe 02       		.byte	0x2
 4614 08ff 7D       		.byte	0x7d
 4615 0900 03       		.sleb128 3
 4616 0901 00       		.byte	0
 4617 0902 1D       		.uleb128 0x1d
 4618 0903 2C000000 		.4byte	.LVL40
 4619 0907 75060000 		.4byte	0x675
 4620 090b 1C       		.uleb128 0x1c
 4621 090c 01       		.byte	0x1
 4622 090d 53       		.byte	0x53
 4623 090e 02       		.byte	0x2
 4624 090f 74       		.byte	0x74
 4625 0910 03       		.sleb128 3
 4626 0911 1C       		.uleb128 0x1c
 4627 0912 01       		.byte	0x1
 4628 0913 52       		.byte	0x52
 4629 0914 02       		.byte	0x2
 4630 0915 7D       		.byte	0x7d
 4631 0916 00       		.sleb128 0
 4632 0917 1C       		.uleb128 0x1c
 4633 0918 01       		.byte	0x1
 4634 0919 51       		.byte	0x51
 4635 091a 02       		.byte	0x2
 4636 091b 08       		.byte	0x8
 4637 091c B4       		.byte	0xb4
 4638 091d 1C       		.uleb128 0x1c
 4639 091e 01       		.byte	0x1
 4640 091f 50       		.byte	0x50
 4641 0920 02       		.byte	0x2
 4642 0921 09       		.byte	0x9
 4643 0922 80       		.byte	0x80
 4644 0923 00       		.byte	0
 4645 0924 00       		.byte	0
 4646 0925 0E       		.uleb128 0xe
 4647 0926 6F000000 		.4byte	0x6f
 4648 092a 35090000 		.4byte	0x935
 4649 092e 0F       		.uleb128 0xf
 4650 092f B5000000 		.4byte	0xb5
 4651 0933 14       		.byte	0x14
 4652 0934 00       		.byte	0
 4653 0935 15       		.uleb128 0x15
 4654 0936 01       		.byte	0x1
 4655 0937 40070000 		.4byte	.LASF94
 4656 093b 01       		.byte	0x1
 4657 093c 3302     		.2byte	0x233
 4658 093e 01       		.byte	0x1
 4659 093f 00000000 		.4byte	.LFB48
ARM GAS  C:\Users\ZHANGM~1\AppData\Local\Temp\ccBCEiox.s 			page 109


 4660 0943 3A000000 		.4byte	.LFE48
 4661 0947 D5030000 		.4byte	.LLST27
 4662 094b 01       		.byte	0x1
 4663 094c 81090000 		.4byte	0x981
 4664 0950 1A       		.uleb128 0x1a
 4665 0951 FE050000 		.4byte	.LASF88
 4666 0955 01       		.byte	0x1
 4667 0956 3502     		.2byte	0x235
 4668 0958 81090000 		.4byte	0x981
 4669 095c 02       		.byte	0x2
 4670 095d 91       		.byte	0x91
 4671 095e 68       		.sleb128 -24
 4672 095f 1D       		.uleb128 0x1d
 4673 0960 36000000 		.4byte	.LVL41
 4674 0964 75060000 		.4byte	0x675
 4675 0968 1C       		.uleb128 0x1c
 4676 0969 01       		.byte	0x1
 4677 096a 53       		.byte	0x53
 4678 096b 01       		.byte	0x1
 4679 096c 3F       		.byte	0x3f
 4680 096d 1C       		.uleb128 0x1c
 4681 096e 01       		.byte	0x1
 4682 096f 52       		.byte	0x52
 4683 0970 02       		.byte	0x2
 4684 0971 91       		.byte	0x91
 4685 0972 68       		.sleb128 -24
 4686 0973 1C       		.uleb128 0x1c
 4687 0974 01       		.byte	0x1
 4688 0975 51       		.byte	0x51
 4689 0976 02       		.byte	0x2
 4690 0977 08       		.byte	0x8
 4691 0978 B5       		.byte	0xb5
 4692 0979 1C       		.uleb128 0x1c
 4693 097a 01       		.byte	0x1
 4694 097b 50       		.byte	0x50
 4695 097c 02       		.byte	0x2
 4696 097d 09       		.byte	0x9
 4697 097e 80       		.byte	0x80
 4698 097f 00       		.byte	0
 4699 0980 00       		.byte	0
 4700 0981 0E       		.uleb128 0xe
 4701 0982 6F000000 		.4byte	0x6f
 4702 0986 91090000 		.4byte	0x991
 4703 098a 0F       		.uleb128 0xf
 4704 098b B5000000 		.4byte	0xb5
 4705 098f 0E       		.byte	0xe
 4706 0990 00       		.byte	0
 4707 0991 15       		.uleb128 0x15
 4708 0992 01       		.byte	0x1
 4709 0993 63050000 		.4byte	.LASF95
 4710 0997 01       		.byte	0x1
 4711 0998 4702     		.2byte	0x247
 4712 099a 01       		.byte	0x1
 4713 099b 00000000 		.4byte	.LFB49
 4714 099f 1C000000 		.4byte	.LFE49
 4715 09a3 F5030000 		.4byte	.LLST28
 4716 09a7 01       		.byte	0x1
ARM GAS  C:\Users\ZHANGM~1\AppData\Local\Temp\ccBCEiox.s 			page 110


 4717 09a8 DE090000 		.4byte	0x9de
 4718 09ac 1A       		.uleb128 0x1a
 4719 09ad FE050000 		.4byte	.LASF88
 4720 09b1 01       		.byte	0x1
 4721 09b2 4902     		.2byte	0x249
 4722 09b4 DE090000 		.4byte	0x9de
 4723 09b8 02       		.byte	0x2
 4724 09b9 91       		.byte	0x91
 4725 09ba 74       		.sleb128 -12
 4726 09bb 1D       		.uleb128 0x1d
 4727 09bc 14000000 		.4byte	.LVL42
 4728 09c0 75060000 		.4byte	0x675
 4729 09c4 1C       		.uleb128 0x1c
 4730 09c5 01       		.byte	0x1
 4731 09c6 53       		.byte	0x53
 4732 09c7 01       		.byte	0x1
 4733 09c8 32       		.byte	0x32
 4734 09c9 1C       		.uleb128 0x1c
 4735 09ca 01       		.byte	0x1
 4736 09cb 52       		.byte	0x52
 4737 09cc 02       		.byte	0x2
 4738 09cd 91       		.byte	0x91
 4739 09ce 74       		.sleb128 -12
 4740 09cf 1C       		.uleb128 0x1c
 4741 09d0 01       		.byte	0x1
 4742 09d1 51       		.byte	0x51
 4743 09d2 03       		.byte	0x3
 4744 09d3 0B       		.byte	0xb
 4745 09d4 D0CC     		.2byte	0xccd0
 4746 09d6 1C       		.uleb128 0x1c
 4747 09d7 01       		.byte	0x1
 4748 09d8 50       		.byte	0x50
 4749 09d9 02       		.byte	0x2
 4750 09da 09       		.byte	0x9
 4751 09db 80       		.byte	0x80
 4752 09dc 00       		.byte	0
 4753 09dd 00       		.byte	0
 4754 09de 0E       		.uleb128 0xe
 4755 09df 6F000000 		.4byte	0x6f
 4756 09e3 EE090000 		.4byte	0x9ee
 4757 09e7 0F       		.uleb128 0xf
 4758 09e8 B5000000 		.4byte	0xb5
 4759 09ec 01       		.byte	0x1
 4760 09ed 00       		.byte	0
 4761 09ee 15       		.uleb128 0x15
 4762 09ef 01       		.byte	0x1
 4763 09f0 29010000 		.4byte	.LASF96
 4764 09f4 01       		.byte	0x1
 4765 09f5 5602     		.2byte	0x256
 4766 09f7 01       		.byte	0x1
 4767 09f8 00000000 		.4byte	.LFB50
 4768 09fc 20000000 		.4byte	.LFE50
 4769 0a00 15040000 		.4byte	.LLST29
 4770 0a04 01       		.byte	0x1
 4771 0a05 3A0A0000 		.4byte	0xa3a
 4772 0a09 1A       		.uleb128 0x1a
 4773 0a0a FE050000 		.4byte	.LASF88
ARM GAS  C:\Users\ZHANGM~1\AppData\Local\Temp\ccBCEiox.s 			page 111


 4774 0a0e 01       		.byte	0x1
 4775 0a0f 5802     		.2byte	0x258
 4776 0a11 3A0A0000 		.4byte	0xa3a
 4777 0a15 02       		.byte	0x2
 4778 0a16 91       		.byte	0x91
 4779 0a17 74       		.sleb128 -12
 4780 0a18 1D       		.uleb128 0x1d
 4781 0a19 1A000000 		.4byte	.LVL43
 4782 0a1d 75060000 		.4byte	0x675
 4783 0a21 1C       		.uleb128 0x1c
 4784 0a22 01       		.byte	0x1
 4785 0a23 53       		.byte	0x53
 4786 0a24 01       		.byte	0x1
 4787 0a25 33       		.byte	0x33
 4788 0a26 1C       		.uleb128 0x1c
 4789 0a27 01       		.byte	0x1
 4790 0a28 52       		.byte	0x52
 4791 0a29 02       		.byte	0x2
 4792 0a2a 91       		.byte	0x91
 4793 0a2b 74       		.sleb128 -12
 4794 0a2c 1C       		.uleb128 0x1c
 4795 0a2d 01       		.byte	0x1
 4796 0a2e 51       		.byte	0x51
 4797 0a2f 02       		.byte	0x2
 4798 0a30 08       		.byte	0x8
 4799 0a31 B1       		.byte	0xb1
 4800 0a32 1C       		.uleb128 0x1c
 4801 0a33 01       		.byte	0x1
 4802 0a34 50       		.byte	0x50
 4803 0a35 02       		.byte	0x2
 4804 0a36 09       		.byte	0x9
 4805 0a37 80       		.byte	0x80
 4806 0a38 00       		.byte	0
 4807 0a39 00       		.byte	0
 4808 0a3a 0E       		.uleb128 0xe
 4809 0a3b 6F000000 		.4byte	0x6f
 4810 0a3f 4A0A0000 		.4byte	0xa4a
 4811 0a43 0F       		.uleb128 0xf
 4812 0a44 B5000000 		.4byte	0xb5
 4813 0a48 02       		.byte	0x2
 4814 0a49 00       		.byte	0
 4815 0a4a 15       		.uleb128 0x15
 4816 0a4b 01       		.byte	0x1
 4817 0a4c CE040000 		.4byte	.LASF97
 4818 0a50 01       		.byte	0x1
 4819 0a51 6602     		.2byte	0x266
 4820 0a53 01       		.byte	0x1
 4821 0a54 00000000 		.4byte	.LFB51
 4822 0a58 16000000 		.4byte	.LFE51
 4823 0a5c 35040000 		.4byte	.LLST30
 4824 0a60 01       		.byte	0x1
 4825 0a61 960A0000 		.4byte	0xa96
 4826 0a65 1A       		.uleb128 0x1a
 4827 0a66 FE050000 		.4byte	.LASF88
 4828 0a6a 01       		.byte	0x1
 4829 0a6b 6802     		.2byte	0x268
 4830 0a6d DE090000 		.4byte	0x9de
ARM GAS  C:\Users\ZHANGM~1\AppData\Local\Temp\ccBCEiox.s 			page 112


 4831 0a71 02       		.byte	0x2
 4832 0a72 91       		.byte	0x91
 4833 0a73 74       		.sleb128 -12
 4834 0a74 1D       		.uleb128 0x1d
 4835 0a75 14000000 		.4byte	.LVL44
 4836 0a79 75060000 		.4byte	0x675
 4837 0a7d 1C       		.uleb128 0x1c
 4838 0a7e 01       		.byte	0x1
 4839 0a7f 53       		.byte	0x53
 4840 0a80 01       		.byte	0x1
 4841 0a81 32       		.byte	0x32
 4842 0a82 1C       		.uleb128 0x1c
 4843 0a83 01       		.byte	0x1
 4844 0a84 52       		.byte	0x52
 4845 0a85 02       		.byte	0x2
 4846 0a86 91       		.byte	0x91
 4847 0a87 74       		.sleb128 -12
 4848 0a88 1C       		.uleb128 0x1c
 4849 0a89 01       		.byte	0x1
 4850 0a8a 51       		.byte	0x51
 4851 0a8b 02       		.byte	0x2
 4852 0a8c 08       		.byte	0x8
 4853 0a8d A2       		.byte	0xa2
 4854 0a8e 1C       		.uleb128 0x1c
 4855 0a8f 01       		.byte	0x1
 4856 0a90 50       		.byte	0x50
 4857 0a91 02       		.byte	0x2
 4858 0a92 09       		.byte	0x9
 4859 0a93 80       		.byte	0x80
 4860 0a94 00       		.byte	0
 4861 0a95 00       		.byte	0
 4862 0a96 15       		.uleb128 0x15
 4863 0a97 01       		.byte	0x1
 4864 0a98 23090000 		.4byte	.LASF98
 4865 0a9c 01       		.byte	0x1
 4866 0a9d 7502     		.2byte	0x275
 4867 0a9f 01       		.byte	0x1
 4868 0aa0 00000000 		.4byte	.LFB52
 4869 0aa4 16000000 		.4byte	.LFE52
 4870 0aa8 55040000 		.4byte	.LLST31
 4871 0aac 01       		.byte	0x1
 4872 0aad E20A0000 		.4byte	0xae2
 4873 0ab1 1A       		.uleb128 0x1a
 4874 0ab2 FE050000 		.4byte	.LASF88
 4875 0ab6 01       		.byte	0x1
 4876 0ab7 7702     		.2byte	0x277
 4877 0ab9 DE090000 		.4byte	0x9de
 4878 0abd 02       		.byte	0x2
 4879 0abe 91       		.byte	0x91
 4880 0abf 74       		.sleb128 -12
 4881 0ac0 1D       		.uleb128 0x1d
 4882 0ac1 14000000 		.4byte	.LVL45
 4883 0ac5 75060000 		.4byte	0x675
 4884 0ac9 1C       		.uleb128 0x1c
 4885 0aca 01       		.byte	0x1
 4886 0acb 53       		.byte	0x53
 4887 0acc 01       		.byte	0x1
ARM GAS  C:\Users\ZHANGM~1\AppData\Local\Temp\ccBCEiox.s 			page 113


 4888 0acd 32       		.byte	0x32
 4889 0ace 1C       		.uleb128 0x1c
 4890 0acf 01       		.byte	0x1
 4891 0ad0 52       		.byte	0x52
 4892 0ad1 02       		.byte	0x2
 4893 0ad2 91       		.byte	0x91
 4894 0ad3 74       		.sleb128 -12
 4895 0ad4 1C       		.uleb128 0x1c
 4896 0ad5 01       		.byte	0x1
 4897 0ad6 51       		.byte	0x51
 4898 0ad7 02       		.byte	0x2
 4899 0ad8 08       		.byte	0x8
 4900 0ad9 A0       		.byte	0xa0
 4901 0ada 1C       		.uleb128 0x1c
 4902 0adb 01       		.byte	0x1
 4903 0adc 50       		.byte	0x50
 4904 0add 02       		.byte	0x2
 4905 0ade 09       		.byte	0x9
 4906 0adf 80       		.byte	0x80
 4907 0ae0 00       		.byte	0
 4908 0ae1 00       		.byte	0
 4909 0ae2 15       		.uleb128 0x15
 4910 0ae3 01       		.byte	0x1
 4911 0ae4 FE060000 		.4byte	.LASF99
 4912 0ae8 01       		.byte	0x1
 4913 0ae9 8402     		.2byte	0x284
 4914 0aeb 01       		.byte	0x1
 4915 0aec 00000000 		.4byte	.LFB53
 4916 0af0 16000000 		.4byte	.LFE53
 4917 0af4 75040000 		.4byte	.LLST32
 4918 0af8 01       		.byte	0x1
 4919 0af9 2E0B0000 		.4byte	0xb2e
 4920 0afd 1A       		.uleb128 0x1a
 4921 0afe FE050000 		.4byte	.LASF88
 4922 0b02 01       		.byte	0x1
 4923 0b03 8602     		.2byte	0x286
 4924 0b05 DE090000 		.4byte	0x9de
 4925 0b09 02       		.byte	0x2
 4926 0b0a 91       		.byte	0x91
 4927 0b0b 74       		.sleb128 -12
 4928 0b0c 1D       		.uleb128 0x1d
 4929 0b0d 14000000 		.4byte	.LVL46
 4930 0b11 75060000 		.4byte	0x675
 4931 0b15 1C       		.uleb128 0x1c
 4932 0b16 01       		.byte	0x1
 4933 0b17 53       		.byte	0x53
 4934 0b18 01       		.byte	0x1
 4935 0b19 32       		.byte	0x32
 4936 0b1a 1C       		.uleb128 0x1c
 4937 0b1b 01       		.byte	0x1
 4938 0b1c 52       		.byte	0x52
 4939 0b1d 02       		.byte	0x2
 4940 0b1e 91       		.byte	0x91
 4941 0b1f 74       		.sleb128 -12
 4942 0b20 1C       		.uleb128 0x1c
 4943 0b21 01       		.byte	0x1
 4944 0b22 51       		.byte	0x51
ARM GAS  C:\Users\ZHANGM~1\AppData\Local\Temp\ccBCEiox.s 			page 114


 4945 0b23 02       		.byte	0x2
 4946 0b24 08       		.byte	0x8
 4947 0b25 A1       		.byte	0xa1
 4948 0b26 1C       		.uleb128 0x1c
 4949 0b27 01       		.byte	0x1
 4950 0b28 50       		.byte	0x50
 4951 0b29 02       		.byte	0x2
 4952 0b2a 09       		.byte	0x9
 4953 0b2b 80       		.byte	0x80
 4954 0b2c 00       		.byte	0
 4955 0b2d 00       		.byte	0
 4956 0b2e 15       		.uleb128 0x15
 4957 0b2f 01       		.byte	0x1
 4958 0b30 AD070000 		.4byte	.LASF100
 4959 0b34 01       		.byte	0x1
 4960 0b35 9402     		.2byte	0x294
 4961 0b37 01       		.byte	0x1
 4962 0b38 00000000 		.4byte	.LFB54
 4963 0b3c 14000000 		.4byte	.LFE54
 4964 0b40 95040000 		.4byte	.LLST33
 4965 0b44 01       		.byte	0x1
 4966 0b45 6A0B0000 		.4byte	0xb6a
 4967 0b49 1D       		.uleb128 0x1d
 4968 0b4a 0E000000 		.4byte	.LVL47
 4969 0b4e 75060000 		.4byte	0x675
 4970 0b52 1C       		.uleb128 0x1c
 4971 0b53 01       		.byte	0x1
 4972 0b54 53       		.byte	0x53
 4973 0b55 01       		.byte	0x1
 4974 0b56 30       		.byte	0x30
 4975 0b57 1C       		.uleb128 0x1c
 4976 0b58 01       		.byte	0x1
 4977 0b59 52       		.byte	0x52
 4978 0b5a 01       		.byte	0x1
 4979 0b5b 30       		.byte	0x30
 4980 0b5c 1C       		.uleb128 0x1c
 4981 0b5d 01       		.byte	0x1
 4982 0b5e 51       		.byte	0x51
 4983 0b5f 03       		.byte	0x3
 4984 0b60 0B       		.byte	0xb
 4985 0b61 C2CC     		.2byte	0xccc2
 4986 0b63 1C       		.uleb128 0x1c
 4987 0b64 01       		.byte	0x1
 4988 0b65 50       		.byte	0x50
 4989 0b66 01       		.byte	0x1
 4990 0b67 30       		.byte	0x30
 4991 0b68 00       		.byte	0
 4992 0b69 00       		.byte	0
 4993 0b6a 15       		.uleb128 0x15
 4994 0b6b 01       		.byte	0x1
 4995 0b6c D5000000 		.4byte	.LASF101
 4996 0b70 01       		.byte	0x1
 4997 0b71 A402     		.2byte	0x2a4
 4998 0b73 01       		.byte	0x1
 4999 0b74 00000000 		.4byte	.LFB55
 5000 0b78 1C000000 		.4byte	.LFE55
 5001 0b7c B5040000 		.4byte	.LLST34
ARM GAS  C:\Users\ZHANGM~1\AppData\Local\Temp\ccBCEiox.s 			page 115


 5002 0b80 01       		.byte	0x1
 5003 0b81 B60B0000 		.4byte	0xbb6
 5004 0b85 1A       		.uleb128 0x1a
 5005 0b86 FE050000 		.4byte	.LASF88
 5006 0b8a 01       		.byte	0x1
 5007 0b8b A602     		.2byte	0x2a6
 5008 0b8d DE090000 		.4byte	0x9de
 5009 0b91 02       		.byte	0x2
 5010 0b92 91       		.byte	0x91
 5011 0b93 74       		.sleb128 -12
 5012 0b94 1D       		.uleb128 0x1d
 5013 0b95 14000000 		.4byte	.LVL48
 5014 0b99 75060000 		.4byte	0x675
 5015 0b9d 1C       		.uleb128 0x1c
 5016 0b9e 01       		.byte	0x1
 5017 0b9f 53       		.byte	0x53
 5018 0ba0 01       		.byte	0x1
 5019 0ba1 32       		.byte	0x32
 5020 0ba2 1C       		.uleb128 0x1c
 5021 0ba3 01       		.byte	0x1
 5022 0ba4 52       		.byte	0x52
 5023 0ba5 02       		.byte	0x2
 5024 0ba6 91       		.byte	0x91
 5025 0ba7 74       		.sleb128 -12
 5026 0ba8 1C       		.uleb128 0x1c
 5027 0ba9 01       		.byte	0x1
 5028 0baa 51       		.byte	0x51
 5029 0bab 03       		.byte	0x3
 5030 0bac 0B       		.byte	0xb
 5031 0bad C5CC     		.2byte	0xccc5
 5032 0baf 1C       		.uleb128 0x1c
 5033 0bb0 01       		.byte	0x1
 5034 0bb1 50       		.byte	0x50
 5035 0bb2 01       		.byte	0x1
 5036 0bb3 30       		.byte	0x30
 5037 0bb4 00       		.byte	0
 5038 0bb5 00       		.byte	0
 5039 0bb6 15       		.uleb128 0x15
 5040 0bb7 01       		.byte	0x1
 5041 0bb8 57000000 		.4byte	.LASF102
 5042 0bbc 01       		.byte	0x1
 5043 0bbd BF02     		.2byte	0x2bf
 5044 0bbf 01       		.byte	0x1
 5045 0bc0 00000000 		.4byte	.LFB56
 5046 0bc4 5C000000 		.4byte	.LFE56
 5047 0bc8 D5040000 		.4byte	.LLST35
 5048 0bcc 01       		.byte	0x1
 5049 0bcd 020C0000 		.4byte	0xc02
 5050 0bd1 1A       		.uleb128 0x1a
 5051 0bd2 FE050000 		.4byte	.LASF88
 5052 0bd6 01       		.byte	0x1
 5053 0bd7 C102     		.2byte	0x2c1
 5054 0bd9 020C0000 		.4byte	0xc02
 5055 0bdd 02       		.byte	0x2
 5056 0bde 91       		.byte	0x91
 5057 0bdf 68       		.sleb128 -24
 5058 0be0 1D       		.uleb128 0x1d
ARM GAS  C:\Users\ZHANGM~1\AppData\Local\Temp\ccBCEiox.s 			page 116


 5059 0be1 4A000000 		.4byte	.LVL49
 5060 0be5 75060000 		.4byte	0x675
 5061 0be9 1C       		.uleb128 0x1c
 5062 0bea 01       		.byte	0x1
 5063 0beb 53       		.byte	0x53
 5064 0bec 01       		.byte	0x1
 5065 0bed 3E       		.byte	0x3e
 5066 0bee 1C       		.uleb128 0x1c
 5067 0bef 01       		.byte	0x1
 5068 0bf0 52       		.byte	0x52
 5069 0bf1 02       		.byte	0x2
 5070 0bf2 91       		.byte	0x91
 5071 0bf3 68       		.sleb128 -24
 5072 0bf4 1C       		.uleb128 0x1c
 5073 0bf5 01       		.byte	0x1
 5074 0bf6 51       		.byte	0x51
 5075 0bf7 03       		.byte	0x3
 5076 0bf8 0B       		.byte	0xb
 5077 0bf9 0090     		.2byte	0x9000
 5078 0bfb 1C       		.uleb128 0x1c
 5079 0bfc 01       		.byte	0x1
 5080 0bfd 50       		.byte	0x50
 5081 0bfe 01       		.byte	0x1
 5082 0bff 30       		.byte	0x30
 5083 0c00 00       		.byte	0
 5084 0c01 00       		.byte	0
 5085 0c02 0E       		.uleb128 0xe
 5086 0c03 6F000000 		.4byte	0x6f
 5087 0c07 120C0000 		.4byte	0xc12
 5088 0c0b 0F       		.uleb128 0xf
 5089 0c0c B5000000 		.4byte	0xb5
 5090 0c10 0D       		.byte	0xd
 5091 0c11 00       		.byte	0
 5092 0c12 15       		.uleb128 0x15
 5093 0c13 01       		.byte	0x1
 5094 0c14 83000000 		.4byte	.LASF103
 5095 0c18 01       		.byte	0x1
 5096 0c19 D202     		.2byte	0x2d2
 5097 0c1b 01       		.byte	0x1
 5098 0c1c 00000000 		.4byte	.LFB57
 5099 0c20 30000000 		.4byte	.LFE57
 5100 0c24 F5040000 		.4byte	.LLST36
 5101 0c28 01       		.byte	0x1
 5102 0c29 5E0C0000 		.4byte	0xc5e
 5103 0c2d 1A       		.uleb128 0x1a
 5104 0c2e FE050000 		.4byte	.LASF88
 5105 0c32 01       		.byte	0x1
 5106 0c33 D402     		.2byte	0x2d4
 5107 0c35 5E0C0000 		.4byte	0xc5e
 5108 0c39 02       		.byte	0x2
 5109 0c3a 91       		.byte	0x91
 5110 0c3b 70       		.sleb128 -16
 5111 0c3c 1D       		.uleb128 0x1d
 5112 0c3d 2A000000 		.4byte	.LVL50
 5113 0c41 75060000 		.4byte	0x675
 5114 0c45 1C       		.uleb128 0x1c
 5115 0c46 01       		.byte	0x1
ARM GAS  C:\Users\ZHANGM~1\AppData\Local\Temp\ccBCEiox.s 			page 117


 5116 0c47 53       		.byte	0x53
 5117 0c48 01       		.byte	0x1
 5118 0c49 37       		.byte	0x37
 5119 0c4a 1C       		.uleb128 0x1c
 5120 0c4b 01       		.byte	0x1
 5121 0c4c 52       		.byte	0x52
 5122 0c4d 02       		.byte	0x2
 5123 0c4e 91       		.byte	0x91
 5124 0c4f 70       		.sleb128 -16
 5125 0c50 1C       		.uleb128 0x1c
 5126 0c51 01       		.byte	0x1
 5127 0c52 51       		.byte	0x51
 5128 0c53 03       		.byte	0x3
 5129 0c54 0B       		.byte	0xb
 5130 0c55 0190     		.2byte	0x9001
 5131 0c57 1C       		.uleb128 0x1c
 5132 0c58 01       		.byte	0x1
 5133 0c59 50       		.byte	0x50
 5134 0c5a 01       		.byte	0x1
 5135 0c5b 30       		.byte	0x30
 5136 0c5c 00       		.byte	0
 5137 0c5d 00       		.byte	0
 5138 0c5e 0E       		.uleb128 0xe
 5139 0c5f 6F000000 		.4byte	0x6f
 5140 0c63 6E0C0000 		.4byte	0xc6e
 5141 0c67 0F       		.uleb128 0xf
 5142 0c68 B5000000 		.4byte	0xb5
 5143 0c6c 06       		.byte	0x6
 5144 0c6d 00       		.byte	0
 5145 0c6e 15       		.uleb128 0x15
 5146 0c6f 01       		.byte	0x1
 5147 0c70 8A070000 		.4byte	.LASF104
 5148 0c74 01       		.byte	0x1
 5149 0c75 F002     		.2byte	0x2f0
 5150 0c77 01       		.byte	0x1
 5151 0c78 00000000 		.4byte	.LFB58
 5152 0c7c 38000000 		.4byte	.LFE58
 5153 0c80 15050000 		.4byte	.LLST37
 5154 0c84 01       		.byte	0x1
 5155 0c85 BA0C0000 		.4byte	0xcba
 5156 0c89 1A       		.uleb128 0x1a
 5157 0c8a FE050000 		.4byte	.LASF88
 5158 0c8e 01       		.byte	0x1
 5159 0c8f F202     		.2byte	0x2f2
 5160 0c91 020C0000 		.4byte	0xc02
 5161 0c95 02       		.byte	0x2
 5162 0c96 91       		.byte	0x91
 5163 0c97 68       		.sleb128 -24
 5164 0c98 1D       		.uleb128 0x1d
 5165 0c99 30000000 		.4byte	.LVL51
 5166 0c9d 75060000 		.4byte	0x675
 5167 0ca1 1C       		.uleb128 0x1c
 5168 0ca2 01       		.byte	0x1
 5169 0ca3 53       		.byte	0x53
 5170 0ca4 01       		.byte	0x1
 5171 0ca5 3D       		.byte	0x3d
 5172 0ca6 1C       		.uleb128 0x1c
ARM GAS  C:\Users\ZHANGM~1\AppData\Local\Temp\ccBCEiox.s 			page 118


 5173 0ca7 01       		.byte	0x1
 5174 0ca8 52       		.byte	0x52
 5175 0ca9 02       		.byte	0x2
 5176 0caa 91       		.byte	0x91
 5177 0cab 68       		.sleb128 -24
 5178 0cac 1C       		.uleb128 0x1c
 5179 0cad 01       		.byte	0x1
 5180 0cae 51       		.byte	0x51
 5181 0caf 03       		.byte	0x3
 5182 0cb0 0B       		.byte	0xb
 5183 0cb1 0290     		.2byte	0x9002
 5184 0cb3 1C       		.uleb128 0x1c
 5185 0cb4 01       		.byte	0x1
 5186 0cb5 50       		.byte	0x50
 5187 0cb6 01       		.byte	0x1
 5188 0cb7 30       		.byte	0x30
 5189 0cb8 00       		.byte	0
 5190 0cb9 00       		.byte	0
 5191 0cba 15       		.uleb128 0x15
 5192 0cbb 01       		.byte	0x1
 5193 0cbc BB000000 		.4byte	.LASF105
 5194 0cc0 01       		.byte	0x1
 5195 0cc1 0203     		.2byte	0x302
 5196 0cc3 01       		.byte	0x1
 5197 0cc4 00000000 		.4byte	.LFB59
 5198 0cc8 14000000 		.4byte	.LFE59
 5199 0ccc 35050000 		.4byte	.LLST38
 5200 0cd0 01       		.byte	0x1
 5201 0cd1 F60C0000 		.4byte	0xcf6
 5202 0cd5 1D       		.uleb128 0x1d
 5203 0cd6 0E000000 		.4byte	.LVL52
 5204 0cda 75060000 		.4byte	0x675
 5205 0cde 1C       		.uleb128 0x1c
 5206 0cdf 01       		.byte	0x1
 5207 0ce0 53       		.byte	0x53
 5208 0ce1 01       		.byte	0x1
 5209 0ce2 30       		.byte	0x30
 5210 0ce3 1C       		.uleb128 0x1c
 5211 0ce4 01       		.byte	0x1
 5212 0ce5 52       		.byte	0x52
 5213 0ce6 01       		.byte	0x1
 5214 0ce7 30       		.byte	0x30
 5215 0ce8 1C       		.uleb128 0x1c
 5216 0ce9 01       		.byte	0x1
 5217 0cea 51       		.byte	0x51
 5218 0ceb 03       		.byte	0x3
 5219 0cec 0B       		.byte	0xb
 5220 0ced F090     		.2byte	0x90f0
 5221 0cef 1C       		.uleb128 0x1c
 5222 0cf0 01       		.byte	0x1
 5223 0cf1 50       		.byte	0x50
 5224 0cf2 01       		.byte	0x1
 5225 0cf3 30       		.byte	0x30
 5226 0cf4 00       		.byte	0
 5227 0cf5 00       		.byte	0
 5228 0cf6 15       		.uleb128 0x15
 5229 0cf7 01       		.byte	0x1
ARM GAS  C:\Users\ZHANGM~1\AppData\Local\Temp\ccBCEiox.s 			page 119


 5230 0cf8 A4060000 		.4byte	.LASF106
 5231 0cfc 01       		.byte	0x1
 5232 0cfd 0603     		.2byte	0x306
 5233 0cff 01       		.byte	0x1
 5234 0d00 00000000 		.4byte	.LFB60
 5235 0d04 14000000 		.4byte	.LFE60
 5236 0d08 55050000 		.4byte	.LLST39
 5237 0d0c 01       		.byte	0x1
 5238 0d0d 320D0000 		.4byte	0xd32
 5239 0d11 1D       		.uleb128 0x1d
 5240 0d12 0E000000 		.4byte	.LVL53
 5241 0d16 75060000 		.4byte	0x675
 5242 0d1a 1C       		.uleb128 0x1c
 5243 0d1b 01       		.byte	0x1
 5244 0d1c 53       		.byte	0x53
 5245 0d1d 01       		.byte	0x1
 5246 0d1e 30       		.byte	0x30
 5247 0d1f 1C       		.uleb128 0x1c
 5248 0d20 01       		.byte	0x1
 5249 0d21 52       		.byte	0x52
 5250 0d22 01       		.byte	0x1
 5251 0d23 30       		.byte	0x30
 5252 0d24 1C       		.uleb128 0x1c
 5253 0d25 01       		.byte	0x1
 5254 0d26 51       		.byte	0x51
 5255 0d27 03       		.byte	0x3
 5256 0d28 0B       		.byte	0xb
 5257 0d29 F190     		.2byte	0x90f1
 5258 0d2b 1C       		.uleb128 0x1c
 5259 0d2c 01       		.byte	0x1
 5260 0d2d 50       		.byte	0x50
 5261 0d2e 01       		.byte	0x1
 5262 0d2f 30       		.byte	0x30
 5263 0d30 00       		.byte	0
 5264 0d31 00       		.byte	0
 5265 0d32 15       		.uleb128 0x15
 5266 0d33 01       		.byte	0x1
 5267 0d34 6F030000 		.4byte	.LASF107
 5268 0d38 01       		.byte	0x1
 5269 0d39 0A03     		.2byte	0x30a
 5270 0d3b 01       		.byte	0x1
 5271 0d3c 00000000 		.4byte	.LFB61
 5272 0d40 14000000 		.4byte	.LFE61
 5273 0d44 75050000 		.4byte	.LLST40
 5274 0d48 01       		.byte	0x1
 5275 0d49 6E0D0000 		.4byte	0xd6e
 5276 0d4d 1D       		.uleb128 0x1d
 5277 0d4e 0E000000 		.4byte	.LVL54
 5278 0d52 75060000 		.4byte	0x675
 5279 0d56 1C       		.uleb128 0x1c
 5280 0d57 01       		.byte	0x1
 5281 0d58 53       		.byte	0x53
 5282 0d59 01       		.byte	0x1
 5283 0d5a 30       		.byte	0x30
 5284 0d5b 1C       		.uleb128 0x1c
 5285 0d5c 01       		.byte	0x1
 5286 0d5d 52       		.byte	0x52
ARM GAS  C:\Users\ZHANGM~1\AppData\Local\Temp\ccBCEiox.s 			page 120


 5287 0d5e 01       		.byte	0x1
 5288 0d5f 30       		.byte	0x30
 5289 0d60 1C       		.uleb128 0x1c
 5290 0d61 01       		.byte	0x1
 5291 0d62 51       		.byte	0x51
 5292 0d63 03       		.byte	0x3
 5293 0d64 0B       		.byte	0xb
 5294 0d65 F290     		.2byte	0x90f2
 5295 0d67 1C       		.uleb128 0x1c
 5296 0d68 01       		.byte	0x1
 5297 0d69 50       		.byte	0x50
 5298 0d6a 01       		.byte	0x1
 5299 0d6b 30       		.byte	0x30
 5300 0d6c 00       		.byte	0
 5301 0d6d 00       		.byte	0
 5302 0d6e 15       		.uleb128 0x15
 5303 0d6f 01       		.byte	0x1
 5304 0d70 3B080000 		.4byte	.LASF108
 5305 0d74 01       		.byte	0x1
 5306 0d75 0E03     		.2byte	0x30e
 5307 0d77 01       		.byte	0x1
 5308 0d78 00000000 		.4byte	.LFB62
 5309 0d7c 14000000 		.4byte	.LFE62
 5310 0d80 95050000 		.4byte	.LLST41
 5311 0d84 01       		.byte	0x1
 5312 0d85 AA0D0000 		.4byte	0xdaa
 5313 0d89 1D       		.uleb128 0x1d
 5314 0d8a 0E000000 		.4byte	.LVL55
 5315 0d8e 75060000 		.4byte	0x675
 5316 0d92 1C       		.uleb128 0x1c
 5317 0d93 01       		.byte	0x1
 5318 0d94 53       		.byte	0x53
 5319 0d95 01       		.byte	0x1
 5320 0d96 30       		.byte	0x30
 5321 0d97 1C       		.uleb128 0x1c
 5322 0d98 01       		.byte	0x1
 5323 0d99 52       		.byte	0x52
 5324 0d9a 01       		.byte	0x1
 5325 0d9b 30       		.byte	0x30
 5326 0d9c 1C       		.uleb128 0x1c
 5327 0d9d 01       		.byte	0x1
 5328 0d9e 51       		.byte	0x51
 5329 0d9f 03       		.byte	0x3
 5330 0da0 0B       		.byte	0xb
 5331 0da1 F390     		.2byte	0x90f3
 5332 0da3 1C       		.uleb128 0x1c
 5333 0da4 01       		.byte	0x1
 5334 0da5 50       		.byte	0x50
 5335 0da6 01       		.byte	0x1
 5336 0da7 30       		.byte	0x30
 5337 0da8 00       		.byte	0
 5338 0da9 00       		.byte	0
 5339 0daa 15       		.uleb128 0x15
 5340 0dab 01       		.byte	0x1
 5341 0dac F6040000 		.4byte	.LASF109
 5342 0db0 01       		.byte	0x1
 5343 0db1 1203     		.2byte	0x312
ARM GAS  C:\Users\ZHANGM~1\AppData\Local\Temp\ccBCEiox.s 			page 121


 5344 0db3 01       		.byte	0x1
 5345 0db4 00000000 		.4byte	.LFB63
 5346 0db8 14000000 		.4byte	.LFE63
 5347 0dbc B5050000 		.4byte	.LLST42
 5348 0dc0 01       		.byte	0x1
 5349 0dc1 E60D0000 		.4byte	0xde6
 5350 0dc5 1D       		.uleb128 0x1d
 5351 0dc6 0E000000 		.4byte	.LVL56
 5352 0dca 75060000 		.4byte	0x675
 5353 0dce 1C       		.uleb128 0x1c
 5354 0dcf 01       		.byte	0x1
 5355 0dd0 53       		.byte	0x53
 5356 0dd1 01       		.byte	0x1
 5357 0dd2 30       		.byte	0x30
 5358 0dd3 1C       		.uleb128 0x1c
 5359 0dd4 01       		.byte	0x1
 5360 0dd5 52       		.byte	0x52
 5361 0dd6 01       		.byte	0x1
 5362 0dd7 30       		.byte	0x30
 5363 0dd8 1C       		.uleb128 0x1c
 5364 0dd9 01       		.byte	0x1
 5365 0dda 51       		.byte	0x51
 5366 0ddb 03       		.byte	0x3
 5367 0ddc 0B       		.byte	0xb
 5368 0ddd F490     		.2byte	0x90f4
 5369 0ddf 1C       		.uleb128 0x1c
 5370 0de0 01       		.byte	0x1
 5371 0de1 50       		.byte	0x50
 5372 0de2 01       		.byte	0x1
 5373 0de3 30       		.byte	0x30
 5374 0de4 00       		.byte	0
 5375 0de5 00       		.byte	0
 5376 0de6 15       		.uleb128 0x15
 5377 0de7 01       		.byte	0x1
 5378 0de8 6E010000 		.4byte	.LASF110
 5379 0dec 01       		.byte	0x1
 5380 0ded 1603     		.2byte	0x316
 5381 0def 01       		.byte	0x1
 5382 0df0 00000000 		.4byte	.LFB64
 5383 0df4 14000000 		.4byte	.LFE64
 5384 0df8 D5050000 		.4byte	.LLST43
 5385 0dfc 01       		.byte	0x1
 5386 0dfd 220E0000 		.4byte	0xe22
 5387 0e01 1D       		.uleb128 0x1d
 5388 0e02 0E000000 		.4byte	.LVL57
 5389 0e06 75060000 		.4byte	0x675
 5390 0e0a 1C       		.uleb128 0x1c
 5391 0e0b 01       		.byte	0x1
 5392 0e0c 53       		.byte	0x53
 5393 0e0d 01       		.byte	0x1
 5394 0e0e 30       		.byte	0x30
 5395 0e0f 1C       		.uleb128 0x1c
 5396 0e10 01       		.byte	0x1
 5397 0e11 52       		.byte	0x52
 5398 0e12 01       		.byte	0x1
 5399 0e13 30       		.byte	0x30
 5400 0e14 1C       		.uleb128 0x1c
ARM GAS  C:\Users\ZHANGM~1\AppData\Local\Temp\ccBCEiox.s 			page 122


 5401 0e15 01       		.byte	0x1
 5402 0e16 51       		.byte	0x51
 5403 0e17 03       		.byte	0x3
 5404 0e18 0B       		.byte	0xb
 5405 0e19 F590     		.2byte	0x90f5
 5406 0e1b 1C       		.uleb128 0x1c
 5407 0e1c 01       		.byte	0x1
 5408 0e1d 50       		.byte	0x50
 5409 0e1e 01       		.byte	0x1
 5410 0e1f 30       		.byte	0x30
 5411 0e20 00       		.byte	0
 5412 0e21 00       		.byte	0
 5413 0e22 15       		.uleb128 0x15
 5414 0e23 01       		.byte	0x1
 5415 0e24 7D060000 		.4byte	.LASF111
 5416 0e28 01       		.byte	0x1
 5417 0e29 1A03     		.2byte	0x31a
 5418 0e2b 01       		.byte	0x1
 5419 0e2c 00000000 		.4byte	.LFB65
 5420 0e30 14000000 		.4byte	.LFE65
 5421 0e34 F5050000 		.4byte	.LLST44
 5422 0e38 01       		.byte	0x1
 5423 0e39 5E0E0000 		.4byte	0xe5e
 5424 0e3d 1D       		.uleb128 0x1d
 5425 0e3e 0E000000 		.4byte	.LVL58
 5426 0e42 75060000 		.4byte	0x675
 5427 0e46 1C       		.uleb128 0x1c
 5428 0e47 01       		.byte	0x1
 5429 0e48 53       		.byte	0x53
 5430 0e49 01       		.byte	0x1
 5431 0e4a 30       		.byte	0x30
 5432 0e4b 1C       		.uleb128 0x1c
 5433 0e4c 01       		.byte	0x1
 5434 0e4d 52       		.byte	0x52
 5435 0e4e 01       		.byte	0x1
 5436 0e4f 30       		.byte	0x30
 5437 0e50 1C       		.uleb128 0x1c
 5438 0e51 01       		.byte	0x1
 5439 0e52 51       		.byte	0x51
 5440 0e53 03       		.byte	0x3
 5441 0e54 0B       		.byte	0xb
 5442 0e55 F690     		.2byte	0x90f6
 5443 0e57 1C       		.uleb128 0x1c
 5444 0e58 01       		.byte	0x1
 5445 0e59 50       		.byte	0x50
 5446 0e5a 01       		.byte	0x1
 5447 0e5b 30       		.byte	0x30
 5448 0e5c 00       		.byte	0
 5449 0e5d 00       		.byte	0
 5450 0e5e 15       		.uleb128 0x15
 5451 0e5f 01       		.byte	0x1
 5452 0e60 3D030000 		.4byte	.LASF112
 5453 0e64 01       		.byte	0x1
 5454 0e65 1E03     		.2byte	0x31e
 5455 0e67 01       		.byte	0x1
 5456 0e68 00000000 		.4byte	.LFB66
 5457 0e6c 14000000 		.4byte	.LFE66
ARM GAS  C:\Users\ZHANGM~1\AppData\Local\Temp\ccBCEiox.s 			page 123


 5458 0e70 15060000 		.4byte	.LLST45
 5459 0e74 01       		.byte	0x1
 5460 0e75 9A0E0000 		.4byte	0xe9a
 5461 0e79 1D       		.uleb128 0x1d
 5462 0e7a 0E000000 		.4byte	.LVL59
 5463 0e7e 75060000 		.4byte	0x675
 5464 0e82 1C       		.uleb128 0x1c
 5465 0e83 01       		.byte	0x1
 5466 0e84 53       		.byte	0x53
 5467 0e85 01       		.byte	0x1
 5468 0e86 30       		.byte	0x30
 5469 0e87 1C       		.uleb128 0x1c
 5470 0e88 01       		.byte	0x1
 5471 0e89 52       		.byte	0x52
 5472 0e8a 01       		.byte	0x1
 5473 0e8b 30       		.byte	0x30
 5474 0e8c 1C       		.uleb128 0x1c
 5475 0e8d 01       		.byte	0x1
 5476 0e8e 51       		.byte	0x51
 5477 0e8f 03       		.byte	0x3
 5478 0e90 0B       		.byte	0xb
 5479 0e91 F790     		.2byte	0x90f7
 5480 0e93 1C       		.uleb128 0x1c
 5481 0e94 01       		.byte	0x1
 5482 0e95 50       		.byte	0x50
 5483 0e96 01       		.byte	0x1
 5484 0e97 30       		.byte	0x30
 5485 0e98 00       		.byte	0
 5486 0e99 00       		.byte	0
 5487 0e9a 15       		.uleb128 0x15
 5488 0e9b 01       		.byte	0x1
 5489 0e9c 2F090000 		.4byte	.LASF113
 5490 0ea0 01       		.byte	0x1
 5491 0ea1 2203     		.2byte	0x322
 5492 0ea3 01       		.byte	0x1
 5493 0ea4 00000000 		.4byte	.LFB67
 5494 0ea8 14000000 		.4byte	.LFE67
 5495 0eac 35060000 		.4byte	.LLST46
 5496 0eb0 01       		.byte	0x1
 5497 0eb1 D60E0000 		.4byte	0xed6
 5498 0eb5 1D       		.uleb128 0x1d
 5499 0eb6 0E000000 		.4byte	.LVL60
 5500 0eba 75060000 		.4byte	0x675
 5501 0ebe 1C       		.uleb128 0x1c
 5502 0ebf 01       		.byte	0x1
 5503 0ec0 53       		.byte	0x53
 5504 0ec1 01       		.byte	0x1
 5505 0ec2 30       		.byte	0x30
 5506 0ec3 1C       		.uleb128 0x1c
 5507 0ec4 01       		.byte	0x1
 5508 0ec5 52       		.byte	0x52
 5509 0ec6 01       		.byte	0x1
 5510 0ec7 30       		.byte	0x30
 5511 0ec8 1C       		.uleb128 0x1c
 5512 0ec9 01       		.byte	0x1
 5513 0eca 51       		.byte	0x51
 5514 0ecb 03       		.byte	0x3
ARM GAS  C:\Users\ZHANGM~1\AppData\Local\Temp\ccBCEiox.s 			page 124


 5515 0ecc 0B       		.byte	0xb
 5516 0ecd F890     		.2byte	0x90f8
 5517 0ecf 1C       		.uleb128 0x1c
 5518 0ed0 01       		.byte	0x1
 5519 0ed1 50       		.byte	0x50
 5520 0ed2 01       		.byte	0x1
 5521 0ed3 30       		.byte	0x30
 5522 0ed4 00       		.byte	0
 5523 0ed5 00       		.byte	0
 5524 0ed6 15       		.uleb128 0x15
 5525 0ed7 01       		.byte	0x1
 5526 0ed8 C8000000 		.4byte	.LASF114
 5527 0edc 01       		.byte	0x1
 5528 0edd 2603     		.2byte	0x326
 5529 0edf 01       		.byte	0x1
 5530 0ee0 00000000 		.4byte	.LFB68
 5531 0ee4 20000000 		.4byte	.LFE68
 5532 0ee8 55060000 		.4byte	.LLST47
 5533 0eec 01       		.byte	0x1
 5534 0eed 000F0000 		.4byte	0xf00
 5535 0ef1 16       		.uleb128 0x16
 5536 0ef2 2D060000 		.4byte	.LASF115
 5537 0ef6 01       		.byte	0x1
 5538 0ef7 2603     		.2byte	0x326
 5539 0ef9 7A000000 		.4byte	0x7a
 5540 0efd 01       		.byte	0x1
 5541 0efe 50       		.byte	0x50
 5542 0eff 00       		.byte	0
 5543 0f00 15       		.uleb128 0x15
 5544 0f01 01       		.byte	0x1
 5545 0f02 00000000 		.4byte	.LASF116
 5546 0f06 01       		.byte	0x1
 5547 0f07 2F03     		.2byte	0x32f
 5548 0f09 01       		.byte	0x1
 5549 0f0a 00000000 		.4byte	.LFB69
 5550 0f0e 20000000 		.4byte	.LFE69
 5551 0f12 75060000 		.4byte	.LLST48
 5552 0f16 01       		.byte	0x1
 5553 0f17 2A0F0000 		.4byte	0xf2a
 5554 0f1b 16       		.uleb128 0x16
 5555 0f1c 2D060000 		.4byte	.LASF115
 5556 0f20 01       		.byte	0x1
 5557 0f21 2F03     		.2byte	0x32f
 5558 0f23 7A000000 		.4byte	0x7a
 5559 0f27 01       		.byte	0x1
 5560 0f28 50       		.byte	0x50
 5561 0f29 00       		.byte	0
 5562 0f2a 1E       		.uleb128 0x1e
 5563 0f2b 01       		.byte	0x1
 5564 0f2c 32020000 		.4byte	.LASF118
 5565 0f30 01       		.byte	0x1
 5566 0f31 3D03     		.2byte	0x33d
 5567 0f33 01       		.byte	0x1
 5568 0f34 00000000 		.4byte	.LFB70
 5569 0f38 24000000 		.4byte	.LFE70
 5570 0f3c 95060000 		.4byte	.LLST49
 5571 0f40 01       		.byte	0x1
ARM GAS  C:\Users\ZHANGM~1\AppData\Local\Temp\ccBCEiox.s 			page 125


 5572 0f41 15       		.uleb128 0x15
 5573 0f42 01       		.byte	0x1
 5574 0f43 12090000 		.4byte	.LASF119
 5575 0f47 01       		.byte	0x1
 5576 0f48 4D03     		.2byte	0x34d
 5577 0f4a 01       		.byte	0x1
 5578 0f4b 00000000 		.4byte	.LFB71
 5579 0f4f F4010000 		.4byte	.LFE71
 5580 0f53 B5060000 		.4byte	.LLST50
 5581 0f57 01       		.byte	0x1
 5582 0f58 4C100000 		.4byte	0x104c
 5583 0f5c 1F       		.uleb128 0x1f
 5584 0f5d 6900     		.ascii	"i\000"
 5585 0f5f 01       		.byte	0x1
 5586 0f60 4F03     		.2byte	0x34f
 5587 0f62 6F000000 		.4byte	0x6f
 5588 0f66 D5060000 		.4byte	.LLST51
 5589 0f6a 18       		.uleb128 0x18
 5590 0f6b 18000000 		.4byte	.LVL63
 5591 0f6f 1D150000 		.4byte	0x151d
 5592 0f73 18       		.uleb128 0x18
 5593 0f74 A2000000 		.4byte	.LVL74
 5594 0f78 E20A0000 		.4byte	0xae2
 5595 0f7c 18       		.uleb128 0x18
 5596 0f7d B0000000 		.4byte	.LVL75
 5597 0f81 FD070000 		.4byte	0x7fd
 5598 0f85 18       		.uleb128 0x18
 5599 0f86 C8000000 		.4byte	.LVL76
 5600 0f8a 59080000 		.4byte	0x859
 5601 0f8e 18       		.uleb128 0x18
 5602 0f8f DA000000 		.4byte	.LVL77
 5603 0f93 6E0C0000 		.4byte	0xc6e
 5604 0f97 18       		.uleb128 0x18
 5605 0f98 FC000000 		.4byte	.LVL78
 5606 0f9c 320D0000 		.4byte	0xd32
 5607 0fa0 18       		.uleb128 0x18
 5608 0fa1 0E010000 		.4byte	.LVL79
 5609 0fa5 E60D0000 		.4byte	0xde6
 5610 0fa9 18       		.uleb128 0x18
 5611 0faa 28010000 		.4byte	.LVL80
 5612 0fae 9A0E0000 		.4byte	0xe9a
 5613 0fb2 18       		.uleb128 0x18
 5614 0fb3 40010000 		.4byte	.LVL81
 5615 0fb7 2E0B0000 		.4byte	0xb2e
 5616 0fbb 18       		.uleb128 0x18
 5617 0fbc 46010000 		.4byte	.LVL82
 5618 0fc0 A1070000 		.4byte	0x7a1
 5619 0fc4 18       		.uleb128 0x18
 5620 0fc5 4C010000 		.4byte	.LVL83
 5621 0fc9 6A0B0000 		.4byte	0xb6a
 5622 0fcd 18       		.uleb128 0x18
 5623 0fce 52010000 		.4byte	.LVL84
 5624 0fd2 91090000 		.4byte	0x991
 5625 0fd6 18       		.uleb128 0x18
 5626 0fd7 58010000 		.4byte	.LVL85
 5627 0fdb B5080000 		.4byte	0x8b5
 5628 0fdf 18       		.uleb128 0x18
ARM GAS  C:\Users\ZHANGM~1\AppData\Local\Temp\ccBCEiox.s 			page 126


 5629 0fe0 5E010000 		.4byte	.LVL86
 5630 0fe4 35090000 		.4byte	0x935
 5631 0fe8 18       		.uleb128 0x18
 5632 0fe9 64010000 		.4byte	.LVL87
 5633 0fed EE090000 		.4byte	0x9ee
 5634 0ff1 18       		.uleb128 0x18
 5635 0ff2 6A010000 		.4byte	.LVL88
 5636 0ff6 4A0A0000 		.4byte	0xa4a
 5637 0ffa 18       		.uleb128 0x18
 5638 0ffb 70010000 		.4byte	.LVL89
 5639 0fff 960A0000 		.4byte	0xa96
 5640 1003 18       		.uleb128 0x18
 5641 1004 76010000 		.4byte	.LVL90
 5642 1008 B60B0000 		.4byte	0xbb6
 5643 100c 18       		.uleb128 0x18
 5644 100d 7C010000 		.4byte	.LVL91
 5645 1011 120C0000 		.4byte	0xc12
 5646 1015 18       		.uleb128 0x18
 5647 1016 82010000 		.4byte	.LVL92
 5648 101a BA0C0000 		.4byte	0xcba
 5649 101e 18       		.uleb128 0x18
 5650 101f 88010000 		.4byte	.LVL93
 5651 1023 F60C0000 		.4byte	0xcf6
 5652 1027 18       		.uleb128 0x18
 5653 1028 8E010000 		.4byte	.LVL94
 5654 102c 6E0D0000 		.4byte	0xd6e
 5655 1030 18       		.uleb128 0x18
 5656 1031 94010000 		.4byte	.LVL95
 5657 1035 AA0D0000 		.4byte	0xdaa
 5658 1039 18       		.uleb128 0x18
 5659 103a 9A010000 		.4byte	.LVL96
 5660 103e 220E0000 		.4byte	0xe22
 5661 1042 18       		.uleb128 0x18
 5662 1043 A0010000 		.4byte	.LVL97
 5663 1047 5E0E0000 		.4byte	0xe5e
 5664 104b 00       		.byte	0
 5665 104c 20       		.uleb128 0x20
 5666 104d 01       		.byte	0x1
 5667 104e FD000000 		.4byte	.LASF120
 5668 1052 01       		.byte	0x1
 5669 1053 C903     		.2byte	0x3c9
 5670 1055 01       		.byte	0x1
 5671 1056 7A000000 		.4byte	0x7a
 5672 105a 00000000 		.4byte	.LFB72
 5673 105e 1C000000 		.4byte	.LFE72
 5674 1062 3C070000 		.4byte	.LLST52
 5675 1066 01       		.byte	0x1
 5676 1067 8A100000 		.4byte	0x108a
 5677 106b 17       		.uleb128 0x17
 5678 106c 4A030000 		.4byte	.LASF121
 5679 1070 01       		.byte	0x1
 5680 1071 C903     		.2byte	0x3c9
 5681 1073 6F000000 		.4byte	0x6f
 5682 1077 5C070000 		.4byte	.LLST53
 5683 107b 1A       		.uleb128 0x1a
 5684 107c 52050000 		.4byte	.LASF122
 5685 1080 01       		.byte	0x1
ARM GAS  C:\Users\ZHANGM~1\AppData\Local\Temp\ccBCEiox.s 			page 127


 5686 1081 CB03     		.2byte	0x3cb
 5687 1083 7A000000 		.4byte	0x7a
 5688 1087 01       		.byte	0x1
 5689 1088 50       		.byte	0x50
 5690 1089 00       		.byte	0
 5691 108a 15       		.uleb128 0x15
 5692 108b 01       		.byte	0x1
 5693 108c 7C030000 		.4byte	.LASF123
 5694 1090 01       		.byte	0x1
 5695 1091 F703     		.2byte	0x3f7
 5696 1093 01       		.byte	0x1
 5697 1094 00000000 		.4byte	.LFB73
 5698 1098 F8000000 		.4byte	.LFE73
 5699 109c 96070000 		.4byte	.LLST54
 5700 10a0 01       		.byte	0x1
 5701 10a1 C9100000 		.4byte	0x10c9
 5702 10a5 1B       		.uleb128 0x1b
 5703 10a6 26000000 		.4byte	.LVL102
 5704 10aa 0C050000 		.4byte	0x50c
 5705 10ae BF100000 		.4byte	0x10bf
 5706 10b2 1C       		.uleb128 0x1c
 5707 10b3 01       		.byte	0x1
 5708 10b4 51       		.byte	0x51
 5709 10b5 02       		.byte	0x2
 5710 10b6 75       		.byte	0x75
 5711 10b7 0A       		.sleb128 10
 5712 10b8 1C       		.uleb128 0x1c
 5713 10b9 01       		.byte	0x1
 5714 10ba 50       		.byte	0x50
 5715 10bb 02       		.byte	0x2
 5716 10bc 74       		.byte	0x74
 5717 10bd 00       		.sleb128 0
 5718 10be 00       		.byte	0
 5719 10bf 18       		.uleb128 0x18
 5720 10c0 CC000000 		.4byte	.LVL103
 5721 10c4 D60E0000 		.4byte	0xed6
 5722 10c8 00       		.byte	0
 5723 10c9 15       		.uleb128 0x15
 5724 10ca 01       		.byte	0x1
 5725 10cb 68090000 		.4byte	.LASF124
 5726 10cf 01       		.byte	0x1
 5727 10d0 3F04     		.2byte	0x43f
 5728 10d2 01       		.byte	0x1
 5729 10d3 00000000 		.4byte	.LFB74
 5730 10d7 58000000 		.4byte	.LFE74
 5731 10db B6070000 		.4byte	.LLST55
 5732 10df 01       		.byte	0x1
 5733 10e0 FB100000 		.4byte	0x10fb
 5734 10e4 1D       		.uleb128 0x1d
 5735 10e5 26000000 		.4byte	.LVL104
 5736 10e9 0C050000 		.4byte	0x50c
 5737 10ed 1C       		.uleb128 0x1c
 5738 10ee 01       		.byte	0x1
 5739 10ef 51       		.byte	0x51
 5740 10f0 02       		.byte	0x2
 5741 10f1 75       		.byte	0x75
 5742 10f2 0A       		.sleb128 10
ARM GAS  C:\Users\ZHANGM~1\AppData\Local\Temp\ccBCEiox.s 			page 128


 5743 10f3 1C       		.uleb128 0x1c
 5744 10f4 01       		.byte	0x1
 5745 10f5 50       		.byte	0x50
 5746 10f6 02       		.byte	0x2
 5747 10f7 74       		.byte	0x74
 5748 10f8 00       		.sleb128 0
 5749 10f9 00       		.byte	0
 5750 10fa 00       		.byte	0
 5751 10fb 15       		.uleb128 0x15
 5752 10fc 01       		.byte	0x1
 5753 10fd CB050000 		.4byte	.LASF125
 5754 1101 01       		.byte	0x1
 5755 1102 5804     		.2byte	0x458
 5756 1104 01       		.byte	0x1
 5757 1105 00000000 		.4byte	.LFB75
 5758 1109 FC000000 		.4byte	.LFE75
 5759 110d D6070000 		.4byte	.LLST56
 5760 1111 01       		.byte	0x1
 5761 1112 2D110000 		.4byte	0x112d
 5762 1116 1D       		.uleb128 0x1d
 5763 1117 26000000 		.4byte	.LVL105
 5764 111b 0C050000 		.4byte	0x50c
 5765 111f 1C       		.uleb128 0x1c
 5766 1120 01       		.byte	0x1
 5767 1121 51       		.byte	0x51
 5768 1122 02       		.byte	0x2
 5769 1123 76       		.byte	0x76
 5770 1124 0A       		.sleb128 10
 5771 1125 1C       		.uleb128 0x1c
 5772 1126 01       		.byte	0x1
 5773 1127 50       		.byte	0x50
 5774 1128 02       		.byte	0x2
 5775 1129 74       		.byte	0x74
 5776 112a 00       		.sleb128 0
 5777 112b 00       		.byte	0
 5778 112c 00       		.byte	0
 5779 112d 15       		.uleb128 0x15
 5780 112e 01       		.byte	0x1
 5781 112f 5A070000 		.4byte	.LASF126
 5782 1133 01       		.byte	0x1
 5783 1134 E704     		.2byte	0x4e7
 5784 1136 01       		.byte	0x1
 5785 1137 00000000 		.4byte	.LFB76
 5786 113b D4000000 		.4byte	.LFE76
 5787 113f F6070000 		.4byte	.LLST57
 5788 1143 01       		.byte	0x1
 5789 1144 8B110000 		.4byte	0x118b
 5790 1148 1B       		.uleb128 0x1b
 5791 1149 28000000 		.4byte	.LVL106
 5792 114d 0C050000 		.4byte	0x50c
 5793 1151 62110000 		.4byte	0x1162
 5794 1155 1C       		.uleb128 0x1c
 5795 1156 01       		.byte	0x1
 5796 1157 51       		.byte	0x51
 5797 1158 02       		.byte	0x2
 5798 1159 77       		.byte	0x77
 5799 115a 0A       		.sleb128 10
ARM GAS  C:\Users\ZHANGM~1\AppData\Local\Temp\ccBCEiox.s 			page 129


 5800 115b 1C       		.uleb128 0x1c
 5801 115c 01       		.byte	0x1
 5802 115d 50       		.byte	0x50
 5803 115e 02       		.byte	0x2
 5804 115f 74       		.byte	0x74
 5805 1160 00       		.sleb128 0
 5806 1161 00       		.byte	0
 5807 1162 1B       		.uleb128 0x1b
 5808 1163 8A000000 		.4byte	.LVL107
 5809 1167 D4140000 		.4byte	0x14d4
 5810 116b 81110000 		.4byte	0x1181
 5811 116f 1C       		.uleb128 0x1c
 5812 1170 01       		.byte	0x1
 5813 1171 52       		.byte	0x52
 5814 1172 01       		.byte	0x1
 5815 1173 4E       		.byte	0x4e
 5816 1174 1C       		.uleb128 0x1c
 5817 1175 01       		.byte	0x1
 5818 1176 51       		.byte	0x51
 5819 1177 02       		.byte	0x2
 5820 1178 77       		.byte	0x77
 5821 1179 00       		.sleb128 0
 5822 117a 1C       		.uleb128 0x1c
 5823 117b 01       		.byte	0x1
 5824 117c 50       		.byte	0x50
 5825 117d 02       		.byte	0x2
 5826 117e 76       		.byte	0x76
 5827 117f 00       		.sleb128 0
 5828 1180 00       		.byte	0
 5829 1181 18       		.uleb128 0x18
 5830 1182 A4000000 		.4byte	.LVL108
 5831 1186 2C150000 		.4byte	0x152c
 5832 118a 00       		.byte	0
 5833 118b 15       		.uleb128 0x15
 5834 118c 01       		.byte	0x1
 5835 118d D9080000 		.4byte	.LASF127
 5836 1191 01       		.byte	0x1
 5837 1192 1805     		.2byte	0x518
 5838 1194 01       		.byte	0x1
 5839 1195 00000000 		.4byte	.LFB77
 5840 1199 24000000 		.4byte	.LFE77
 5841 119d 16080000 		.4byte	.LLST58
 5842 11a1 01       		.byte	0x1
 5843 11a2 C2110000 		.4byte	0x11c2
 5844 11a6 18       		.uleb128 0x18
 5845 11a7 10000000 		.4byte	.LVL109
 5846 11ab FB100000 		.4byte	0x10fb
 5847 11af 18       		.uleb128 0x18
 5848 11b0 1A000000 		.4byte	.LVL110
 5849 11b4 C9100000 		.4byte	0x10c9
 5850 11b8 18       		.uleb128 0x18
 5851 11b9 1E000000 		.4byte	.LVL111
 5852 11bd 8A100000 		.4byte	0x108a
 5853 11c1 00       		.byte	0
 5854 11c2 21       		.uleb128 0x21
 5855 11c3 21030000 		.4byte	.LASF128
 5856 11c7 03       		.byte	0x3
ARM GAS  C:\Users\ZHANGM~1\AppData\Local\Temp\ccBCEiox.s 			page 130


 5857 11c8 55       		.byte	0x55
 5858 11c9 6F000000 		.4byte	0x6f
 5859 11cd 01       		.byte	0x1
 5860 11ce 01       		.byte	0x1
 5861 11cf 21       		.uleb128 0x21
 5862 11d0 27030000 		.4byte	.LASF129
 5863 11d4 03       		.byte	0x3
 5864 11d5 94       		.byte	0x94
 5865 11d6 C4000000 		.4byte	0xc4
 5866 11da 01       		.byte	0x1
 5867 11db 01       		.byte	0x1
 5868 11dc 21       		.uleb128 0x21
 5869 11dd 82050000 		.4byte	.LASF130
 5870 11e1 03       		.byte	0x3
 5871 11e2 A7       		.byte	0xa7
 5872 11e3 F6020000 		.4byte	0x2f6
 5873 11e7 01       		.byte	0x1
 5874 11e8 01       		.byte	0x1
 5875 11e9 21       		.uleb128 0x21
 5876 11ea F0080000 		.4byte	.LASF131
 5877 11ee 03       		.byte	0x3
 5878 11ef B2       		.byte	0xb2
 5879 11f0 62030000 		.4byte	0x362
 5880 11f4 01       		.byte	0x1
 5881 11f5 01       		.byte	0x1
 5882 11f6 21       		.uleb128 0x21
 5883 11f7 45060000 		.4byte	.LASF132
 5884 11fb 03       		.byte	0x3
 5885 11fc CD       		.byte	0xcd
 5886 11fd 6F000000 		.4byte	0x6f
 5887 1201 01       		.byte	0x1
 5888 1202 01       		.byte	0x1
 5889 1203 22       		.uleb128 0x22
 5890 1204 0B060000 		.4byte	.LASF133
 5891 1208 04       		.byte	0x4
 5892 1209 B1       		.byte	0xb1
 5893 120a 7A000000 		.4byte	0x7a
 5894 120e 01       		.byte	0x1
 5895 120f 05       		.byte	0x5
 5896 1210 03       		.byte	0x3
 5897 1211 00000000 		.4byte	Value_Tds0
 5898 1215 22       		.uleb128 0x22
 5899 1216 16060000 		.4byte	.LASF134
 5900 121a 04       		.byte	0x4
 5901 121b B2       		.byte	0xb2
 5902 121c 7A000000 		.4byte	0x7a
 5903 1220 01       		.byte	0x1
 5904 1221 05       		.byte	0x5
 5905 1222 03       		.byte	0x3
 5906 1223 00000000 		.4byte	Value_Tds1
 5907 1227 22       		.uleb128 0x22
 5908 1228 EB070000 		.4byte	.LASF135
 5909 122c 04       		.byte	0x4
 5910 122d B3       		.byte	0xb3
 5911 122e 7A000000 		.4byte	0x7a
 5912 1232 01       		.byte	0x1
 5913 1233 05       		.byte	0x5
ARM GAS  C:\Users\ZHANGM~1\AppData\Local\Temp\ccBCEiox.s 			page 131


 5914 1234 03       		.byte	0x3
 5915 1235 00000000 		.4byte	Value_Loushui_Ad
 5916 1239 22       		.uleb128 0x22
 5917 123a A8030000 		.4byte	.LASF136
 5918 123e 04       		.byte	0x4
 5919 123f B4       		.byte	0xb4
 5920 1240 6F000000 		.4byte	0x6f
 5921 1244 01       		.byte	0x1
 5922 1245 05       		.byte	0x5
 5923 1246 03       		.byte	0x3
 5924 1247 00000000 		.4byte	Value_T
 5925 124b 22       		.uleb128 0x22
 5926 124c 2F050000 		.4byte	.LASF137
 5927 1250 04       		.byte	0x4
 5928 1251 B5       		.byte	0xb5
 5929 1252 7A000000 		.4byte	0x7a
 5930 1256 01       		.byte	0x1
 5931 1257 05       		.byte	0x5
 5932 1258 03       		.byte	0x3
 5933 1259 00000000 		.4byte	Value_Flow
 5934 125d 21       		.uleb128 0x21
 5935 125e 24020000 		.4byte	.LASF138
 5936 1262 03       		.byte	0x3
 5937 1263 E4       		.byte	0xe4
 5938 1264 6F000000 		.4byte	0x6f
 5939 1268 01       		.byte	0x1
 5940 1269 01       		.byte	0x1
 5941 126a 0E       		.uleb128 0xe
 5942 126b 7A000000 		.4byte	0x7a
 5943 126f 7A120000 		.4byte	0x127a
 5944 1273 0F       		.uleb128 0xf
 5945 1274 B5000000 		.4byte	0xb5
 5946 1278 05       		.byte	0x5
 5947 1279 00       		.byte	0
 5948 127a 22       		.uleb128 0x22
 5949 127b B6020000 		.4byte	.LASF139
 5950 127f 01       		.byte	0x1
 5951 1280 2E       		.byte	0x2e
 5952 1281 6A120000 		.4byte	0x126a
 5953 1285 01       		.byte	0x1
 5954 1286 05       		.byte	0x5
 5955 1287 03       		.byte	0x3
 5956 1288 00000000 		.4byte	Filter_Full_Data_Buf
 5957 128c 0E       		.uleb128 0xe
 5958 128d 7A000000 		.4byte	0x7a
 5959 1291 9C120000 		.4byte	0x129c
 5960 1295 0F       		.uleb128 0xf
 5961 1296 B5000000 		.4byte	0xb5
 5962 129a 0B       		.byte	0xb
 5963 129b 00       		.byte	0
 5964 129c 22       		.uleb128 0x22
 5965 129d B0030000 		.4byte	.LASF140
 5966 12a1 01       		.byte	0x1
 5967 12a2 2E       		.byte	0x2e
 5968 12a3 8C120000 		.4byte	0x128c
 5969 12a7 01       		.byte	0x1
 5970 12a8 05       		.byte	0x5
ARM GAS  C:\Users\ZHANGM~1\AppData\Local\Temp\ccBCEiox.s 			page 132


 5971 12a9 03       		.byte	0x3
 5972 12aa 00000000 		.4byte	Filter_Changed_Num
 5973 12ae 22       		.uleb128 0x22
 5974 12af 62010000 		.4byte	.LASF141
 5975 12b3 04       		.byte	0x4
 5976 12b4 AC       		.byte	0xac
 5977 12b5 6F000000 		.4byte	0x6f
 5978 12b9 01       		.byte	0x1
 5979 12ba 05       		.byte	0x5
 5980 12bb 03       		.byte	0x3
 5981 12bc 00000000 		.4byte	u8LinkState
 5982 12c0 22       		.uleb128 0x22
 5983 12c1 FC070000 		.4byte	.LASF142
 5984 12c5 04       		.byte	0x4
 5985 12c6 AC       		.byte	0xac
 5986 12c7 6F000000 		.4byte	0x6f
 5987 12cb 01       		.byte	0x1
 5988 12cc 05       		.byte	0x5
 5989 12cd 03       		.byte	0x3
 5990 12ce 00000000 		.4byte	u8SmartLinkState
 5991 12d2 22       		.uleb128 0x22
 5992 12d3 9C000000 		.4byte	.LASF143
 5993 12d7 04       		.byte	0x4
 5994 12d8 AD       		.byte	0xad
 5995 12d9 6F000000 		.4byte	0x6f
 5996 12dd 01       		.byte	0x1
 5997 12de 05       		.byte	0x5
 5998 12df 03       		.byte	0x3
 5999 12e0 00000000 		.4byte	Ack_Timer
 6000 12e4 22       		.uleb128 0x22
 6001 12e5 93010000 		.4byte	.LASF144
 6002 12e9 01       		.byte	0x1
 6003 12ea 2B       		.byte	0x2b
 6004 12eb 6F000000 		.4byte	0x6f
 6005 12ef 01       		.byte	0x1
 6006 12f0 05       		.byte	0x5
 6007 12f1 03       		.byte	0x3
 6008 12f2 00000000 		.4byte	Work_State_Num_H
 6009 12f6 22       		.uleb128 0x22
 6010 12f7 AC010000 		.4byte	.LASF145
 6011 12fb 01       		.byte	0x1
 6012 12fc 2B       		.byte	0x2b
 6013 12fd 6F000000 		.4byte	0x6f
 6014 1301 01       		.byte	0x1
 6015 1302 05       		.byte	0x5
 6016 1303 03       		.byte	0x3
 6017 1304 00000000 		.4byte	Work_State_Num_L
 6018 1308 22       		.uleb128 0x22
 6019 1309 30030000 		.4byte	.LASF146
 6020 130d 01       		.byte	0x1
 6021 130e 3D       		.byte	0x3d
 6022 130f BE000000 		.4byte	0xbe
 6023 1313 01       		.byte	0x1
 6024 1314 05       		.byte	0x5
 6025 1315 03       		.byte	0x3
 6026 1316 00000000 		.4byte	cpSendBufPtr
 6027 131a 22       		.uleb128 0x22
ARM GAS  C:\Users\ZHANGM~1\AppData\Local\Temp\ccBCEiox.s 			page 133


 6028 131b 0D010000 		.4byte	.LASF147
 6029 131f 01       		.byte	0x1
 6030 1320 30       		.byte	0x30
 6031 1321 6F000000 		.4byte	0x6f
 6032 1325 01       		.byte	0x1
 6033 1326 05       		.byte	0x5
 6034 1327 03       		.byte	0x3
 6035 1328 00000000 		.4byte	SmarkLink_State
 6036 132c 22       		.uleb128 0x22
 6037 132d 8D040000 		.4byte	.LASF148
 6038 1331 01       		.byte	0x1
 6039 1332 3E       		.byte	0x3e
 6040 1333 6F000000 		.4byte	0x6f
 6041 1337 01       		.byte	0x1
 6042 1338 05       		.byte	0x5
 6043 1339 03       		.byte	0x3
 6044 133a 00000000 		.4byte	Send_Interval_Counter
 6045 133e 0E       		.uleb128 0xe
 6046 133f 81030000 		.4byte	0x381
 6047 1343 4E130000 		.4byte	0x134e
 6048 1347 0F       		.uleb128 0xf
 6049 1348 B5000000 		.4byte	0xb5
 6050 134c 00       		.byte	0
 6051 134d 00       		.byte	0
 6052 134e 22       		.uleb128 0x22
 6053 134f 9B030000 		.4byte	.LASF149
 6054 1353 01       		.byte	0x1
 6055 1354 15       		.byte	0x15
 6056 1355 3E130000 		.4byte	0x133e
 6057 1359 01       		.byte	0x1
 6058 135a 05       		.byte	0x5
 6059 135b 03       		.byte	0x3
 6060 135c 00000000 		.4byte	ATReceBuffer
 6061 1360 0E       		.uleb128 0xe
 6062 1361 BA030000 		.4byte	0x3ba
 6063 1365 70130000 		.4byte	0x1370
 6064 1369 0F       		.uleb128 0xf
 6065 136a B5000000 		.4byte	0xb5
 6066 136e 00       		.byte	0
 6067 136f 00       		.byte	0
 6068 1370 22       		.uleb128 0x22
 6069 1371 EC030000 		.4byte	.LASF150
 6070 1375 01       		.byte	0x1
 6071 1376 1B       		.byte	0x1b
 6072 1377 60130000 		.4byte	0x1360
 6073 137b 01       		.byte	0x1
 6074 137c 05       		.byte	0x5
 6075 137d 03       		.byte	0x3
 6076 137e 00000000 		.4byte	ATTdsReceBuffer
 6077 1382 22       		.uleb128 0x22
 6078 1383 0B070000 		.4byte	.LASF151
 6079 1387 01       		.byte	0x1
 6080 1388 24       		.byte	0x24
 6081 1389 F3030000 		.4byte	0x3f3
 6082 138d 01       		.byte	0x1
 6083 138e 05       		.byte	0x5
 6084 138f 03       		.byte	0x3
ARM GAS  C:\Users\ZHANGM~1\AppData\Local\Temp\ccBCEiox.s 			page 134


 6085 1390 00000000 		.4byte	WifiWorkFlag
 6086 1394 22       		.uleb128 0x22
 6087 1395 BA060000 		.4byte	.LASF152
 6088 1399 01       		.byte	0x1
 6089 139a 2A       		.byte	0x2a
 6090 139b 73040000 		.4byte	0x473
 6091 139f 01       		.byte	0x1
 6092 13a0 05       		.byte	0x5
 6093 13a1 03       		.byte	0x3
 6094 13a2 00000000 		.4byte	WifidatagramWorkFlag
 6095 13a6 22       		.uleb128 0x22
 6096 13a7 E2020000 		.4byte	.LASF153
 6097 13ab 01       		.byte	0x1
 6098 13ac 2C       		.byte	0x2c
 6099 13ad 6F000000 		.4byte	0x6f
 6100 13b1 01       		.byte	0x1
 6101 13b2 05       		.byte	0x5
 6102 13b3 03       		.byte	0x3
 6103 13b4 00000000 		.4byte	Cmd_Function_Num
 6104 13b8 22       		.uleb128 0x22
 6105 13b9 B9040000 		.4byte	.LASF154
 6106 13bd 01       		.byte	0x1
 6107 13be 2D       		.byte	0x2d
 6108 13bf 7A000000 		.4byte	0x7a
 6109 13c3 01       		.byte	0x1
 6110 13c4 05       		.byte	0x5
 6111 13c5 03       		.byte	0x3
 6112 13c6 00000000 		.4byte	Cmd_Function
 6113 13ca 0E       		.uleb128 0xe
 6114 13cb 7A000000 		.4byte	0x7a
 6115 13cf DA130000 		.4byte	0x13da
 6116 13d3 0F       		.uleb128 0xf
 6117 13d4 B5000000 		.4byte	0xb5
 6118 13d8 07       		.byte	0x7
 6119 13d9 00       		.byte	0
 6120 13da 22       		.uleb128 0x22
 6121 13db A0050000 		.4byte	.LASF155
 6122 13df 01       		.byte	0x1
 6123 13e0 2D       		.byte	0x2d
 6124 13e1 CA130000 		.4byte	0x13ca
 6125 13e5 01       		.byte	0x1
 6126 13e6 05       		.byte	0x5
 6127 13e7 03       		.byte	0x3
 6128 13e8 00000000 		.4byte	Cmd_Function_Buf
 6129 13ec 0E       		.uleb128 0xe
 6130 13ed 7A000000 		.4byte	0x7a
 6131 13f1 FC130000 		.4byte	0x13fc
 6132 13f5 0F       		.uleb128 0xf
 6133 13f6 B5000000 		.4byte	0xb5
 6134 13fa 08       		.byte	0x8
 6135 13fb 00       		.byte	0
 6136 13fc 22       		.uleb128 0x22
 6137 13fd 03040000 		.4byte	.LASF156
 6138 1401 01       		.byte	0x1
 6139 1402 2F       		.byte	0x2f
 6140 1403 EC130000 		.4byte	0x13ec
 6141 1407 01       		.byte	0x1
ARM GAS  C:\Users\ZHANGM~1\AppData\Local\Temp\ccBCEiox.s 			page 135


 6142 1408 05       		.byte	0x5
 6143 1409 03       		.byte	0x3
 6144 140a 00000000 		.4byte	Error_Data_Buf
 6145 140e 22       		.uleb128 0x22
 6146 140f 6F080000 		.4byte	.LASF157
 6147 1413 01       		.byte	0x1
 6148 1414 31       		.byte	0x31
 6149 1415 6F000000 		.4byte	0x6f
 6150 1419 01       		.byte	0x1
 6151 141a 05       		.byte	0x5
 6152 141b 03       		.byte	0x3
 6153 141c 00000000 		.4byte	gcWifiCommunState
 6154 1420 22       		.uleb128 0x22
 6155 1421 8E020000 		.4byte	.LASF158
 6156 1425 01       		.byte	0x1
 6157 1426 32       		.byte	0x32
 6158 1427 6F000000 		.4byte	0x6f
 6159 142b 01       		.byte	0x1
 6160 142c 05       		.byte	0x5
 6161 142d 03       		.byte	0x3
 6162 142e 00000000 		.4byte	gctdsboardCommunState
 6163 1432 22       		.uleb128 0x22
 6164 1433 08090000 		.4byte	.LASF159
 6165 1437 01       		.byte	0x1
 6166 1438 33       		.byte	0x33
 6167 1439 6F000000 		.4byte	0x6f
 6168 143d 01       		.byte	0x1
 6169 143e 05       		.byte	0x5
 6170 143f 03       		.byte	0x3
 6171 1440 00000000 		.4byte	Frame_Num
 6172 1444 22       		.uleb128 0x22
 6173 1445 CA010000 		.4byte	.LASF160
 6174 1449 01       		.byte	0x1
 6175 144a 34       		.byte	0x34
 6176 144b 7A000000 		.4byte	0x7a
 6177 144f 01       		.byte	0x1
 6178 1450 05       		.byte	0x5
 6179 1451 03       		.byte	0x3
 6180 1452 00000000 		.4byte	giWIFICommand
 6181 1456 22       		.uleb128 0x22
 6182 1457 7D020000 		.4byte	.LASF161
 6183 145b 01       		.byte	0x1
 6184 145c 35       		.byte	0x35
 6185 145d 7A000000 		.4byte	0x7a
 6186 1461 01       		.byte	0x1
 6187 1462 05       		.byte	0x5
 6188 1463 03       		.byte	0x3
 6189 1464 00000000 		.4byte	giWIFIDATALength
 6190 1468 22       		.uleb128 0x22
 6191 1469 FB010000 		.4byte	.LASF162
 6192 146d 01       		.byte	0x1
 6193 146e 36       		.byte	0x36
 6194 146f 6F000000 		.4byte	0x6f
 6195 1473 01       		.byte	0x1
 6196 1474 05       		.byte	0x5
 6197 1475 03       		.byte	0x3
 6198 1476 00000000 		.4byte	gcWIFICTL
ARM GAS  C:\Users\ZHANGM~1\AppData\Local\Temp\ccBCEiox.s 			page 136


 6199 147a 22       		.uleb128 0x22
 6200 147b E6050000 		.4byte	.LASF163
 6201 147f 01       		.byte	0x1
 6202 1480 37       		.byte	0x37
 6203 1481 7A000000 		.4byte	0x7a
 6204 1485 01       		.byte	0x1
 6205 1486 05       		.byte	0x5
 6206 1487 03       		.byte	0x3
 6207 1488 00000000 		.4byte	giTDSBOARDCommand
 6208 148c 22       		.uleb128 0x22
 6209 148d 0D080000 		.4byte	.LASF164
 6210 1491 01       		.byte	0x1
 6211 1492 38       		.byte	0x38
 6212 1493 7A000000 		.4byte	0x7a
 6213 1497 01       		.byte	0x1
 6214 1498 05       		.byte	0x5
 6215 1499 03       		.byte	0x3
 6216 149a 00000000 		.4byte	giTDSBOARDDATALength
 6217 149e 22       		.uleb128 0x22
 6218 149f B1050000 		.4byte	.LASF165
 6219 14a3 01       		.byte	0x1
 6220 14a4 39       		.byte	0x39
 6221 14a5 6F000000 		.4byte	0x6f
 6222 14a9 01       		.byte	0x1
 6223 14aa 05       		.byte	0x5
 6224 14ab 03       		.byte	0x3
 6225 14ac 00000000 		.4byte	gcTDSBOARDCTL
 6226 14b0 22       		.uleb128 0x22
 6227 14b1 CF060000 		.4byte	.LASF166
 6228 14b5 01       		.byte	0x1
 6229 14b6 3C       		.byte	0x3c
 6230 14b7 7A000000 		.4byte	0x7a
 6231 14bb 01       		.byte	0x1
 6232 14bc 05       		.byte	0x5
 6233 14bd 03       		.byte	0x3
 6234 14be 00000000 		.4byte	iUartSendLen
 6235 14c2 22       		.uleb128 0x22
 6236 14c3 12040000 		.4byte	.LASF167
 6237 14c7 01       		.byte	0x1
 6238 14c8 3C       		.byte	0x3c
 6239 14c9 7A000000 		.4byte	0x7a
 6240 14cd 01       		.byte	0x1
 6241 14ce 05       		.byte	0x5
 6242 14cf 03       		.byte	0x3
 6243 14d0 00000000 		.4byte	iSendCounter
 6244 14d4 23       		.uleb128 0x23
 6245 14d5 01       		.byte	0x1
 6246 14d6 03050000 		.4byte	.LASF168
 6247 14da 01       		.byte	0x1
 6248 14db BC000000 		.4byte	0xbc
 6249 14df 01       		.byte	0x1
 6250 14e0 01       		.byte	0x1
 6251 14e1 F5140000 		.4byte	0x14f5
 6252 14e5 24       		.uleb128 0x24
 6253 14e6 BC000000 		.4byte	0xbc
 6254 14ea 24       		.uleb128 0x24
 6255 14eb 61000000 		.4byte	0x61
ARM GAS  C:\Users\ZHANGM~1\AppData\Local\Temp\ccBCEiox.s 			page 137


 6256 14ef 24       		.uleb128 0x24
 6257 14f0 B5000000 		.4byte	0xb5
 6258 14f4 00       		.byte	0
 6259 14f5 23       		.uleb128 0x23
 6260 14f6 01       		.byte	0x1
 6261 14f7 89080000 		.4byte	.LASF169
 6262 14fb 01       		.byte	0x1
 6263 14fc BC000000 		.4byte	0xbc
 6264 1500 01       		.byte	0x1
 6265 1501 01       		.byte	0x1
 6266 1502 16150000 		.4byte	0x1516
 6267 1506 24       		.uleb128 0x24
 6268 1507 BC000000 		.4byte	0xbc
 6269 150b 24       		.uleb128 0x24
 6270 150c 16150000 		.4byte	0x1516
 6271 1510 24       		.uleb128 0x24
 6272 1511 B5000000 		.4byte	0xb5
 6273 1515 00       		.byte	0
 6274 1516 07       		.uleb128 0x7
 6275 1517 04       		.byte	0x4
 6276 1518 1C150000 		.4byte	0x151c
 6277 151c 25       		.uleb128 0x25
 6278 151d 26       		.uleb128 0x26
 6279 151e 01       		.byte	0x1
 6280 151f 83090000 		.4byte	.LASF173
 6281 1523 05       		.byte	0x5
 6282 1524 3E01     		.2byte	0x13e
 6283 1526 01       		.byte	0x1
 6284 1527 85000000 		.4byte	0x85
 6285 152b 01       		.byte	0x1
 6286 152c 27       		.uleb128 0x27
 6287 152d 01       		.byte	0x1
 6288 152e A4020000 		.4byte	.LASF174
 6289 1532 03       		.byte	0x3
 6290 1533 F7       		.byte	0xf7
 6291 1534 01       		.byte	0x1
 6292 1535 01       		.byte	0x1
 6293 1536 00       		.byte	0
 6294              		.section	.debug_abbrev,"",%progbits
 6295              	.Ldebug_abbrev0:
 6296 0000 01       		.uleb128 0x1
 6297 0001 11       		.uleb128 0x11
 6298 0002 01       		.byte	0x1
 6299 0003 25       		.uleb128 0x25
 6300 0004 0E       		.uleb128 0xe
 6301 0005 13       		.uleb128 0x13
 6302 0006 0B       		.uleb128 0xb
 6303 0007 03       		.uleb128 0x3
 6304 0008 0E       		.uleb128 0xe
 6305 0009 1B       		.uleb128 0x1b
 6306 000a 0E       		.uleb128 0xe
 6307 000b 55       		.uleb128 0x55
 6308 000c 06       		.uleb128 0x6
 6309 000d 11       		.uleb128 0x11
 6310 000e 01       		.uleb128 0x1
 6311 000f 52       		.uleb128 0x52
 6312 0010 01       		.uleb128 0x1
ARM GAS  C:\Users\ZHANGM~1\AppData\Local\Temp\ccBCEiox.s 			page 138


 6313 0011 10       		.uleb128 0x10
 6314 0012 06       		.uleb128 0x6
 6315 0013 00       		.byte	0
 6316 0014 00       		.byte	0
 6317 0015 02       		.uleb128 0x2
 6318 0016 24       		.uleb128 0x24
 6319 0017 00       		.byte	0
 6320 0018 0B       		.uleb128 0xb
 6321 0019 0B       		.uleb128 0xb
 6322 001a 3E       		.uleb128 0x3e
 6323 001b 0B       		.uleb128 0xb
 6324 001c 03       		.uleb128 0x3
 6325 001d 0E       		.uleb128 0xe
 6326 001e 00       		.byte	0
 6327 001f 00       		.byte	0
 6328 0020 03       		.uleb128 0x3
 6329 0021 24       		.uleb128 0x24
 6330 0022 00       		.byte	0
 6331 0023 0B       		.uleb128 0xb
 6332 0024 0B       		.uleb128 0xb
 6333 0025 3E       		.uleb128 0x3e
 6334 0026 0B       		.uleb128 0xb
 6335 0027 03       		.uleb128 0x3
 6336 0028 08       		.uleb128 0x8
 6337 0029 00       		.byte	0
 6338 002a 00       		.byte	0
 6339 002b 04       		.uleb128 0x4
 6340 002c 16       		.uleb128 0x16
 6341 002d 00       		.byte	0
 6342 002e 03       		.uleb128 0x3
 6343 002f 0E       		.uleb128 0xe
 6344 0030 3A       		.uleb128 0x3a
 6345 0031 0B       		.uleb128 0xb
 6346 0032 3B       		.uleb128 0x3b
 6347 0033 0B       		.uleb128 0xb
 6348 0034 49       		.uleb128 0x49
 6349 0035 13       		.uleb128 0x13
 6350 0036 00       		.byte	0
 6351 0037 00       		.byte	0
 6352 0038 05       		.uleb128 0x5
 6353 0039 35       		.uleb128 0x35
 6354 003a 00       		.byte	0
 6355 003b 49       		.uleb128 0x49
 6356 003c 13       		.uleb128 0x13
 6357 003d 00       		.byte	0
 6358 003e 00       		.byte	0
 6359 003f 06       		.uleb128 0x6
 6360 0040 0F       		.uleb128 0xf
 6361 0041 00       		.byte	0
 6362 0042 0B       		.uleb128 0xb
 6363 0043 0B       		.uleb128 0xb
 6364 0044 00       		.byte	0
 6365 0045 00       		.byte	0
 6366 0046 07       		.uleb128 0x7
 6367 0047 0F       		.uleb128 0xf
 6368 0048 00       		.byte	0
 6369 0049 0B       		.uleb128 0xb
ARM GAS  C:\Users\ZHANGM~1\AppData\Local\Temp\ccBCEiox.s 			page 139


 6370 004a 0B       		.uleb128 0xb
 6371 004b 49       		.uleb128 0x49
 6372 004c 13       		.uleb128 0x13
 6373 004d 00       		.byte	0
 6374 004e 00       		.byte	0
 6375 004f 08       		.uleb128 0x8
 6376 0050 13       		.uleb128 0x13
 6377 0051 01       		.byte	0x1
 6378 0052 0B       		.uleb128 0xb
 6379 0053 0B       		.uleb128 0xb
 6380 0054 3A       		.uleb128 0x3a
 6381 0055 0B       		.uleb128 0xb
 6382 0056 3B       		.uleb128 0x3b
 6383 0057 0B       		.uleb128 0xb
 6384 0058 01       		.uleb128 0x1
 6385 0059 13       		.uleb128 0x13
 6386 005a 00       		.byte	0
 6387 005b 00       		.byte	0
 6388 005c 09       		.uleb128 0x9
 6389 005d 0D       		.uleb128 0xd
 6390 005e 00       		.byte	0
 6391 005f 03       		.uleb128 0x3
 6392 0060 0E       		.uleb128 0xe
 6393 0061 3A       		.uleb128 0x3a
 6394 0062 0B       		.uleb128 0xb
 6395 0063 3B       		.uleb128 0x3b
 6396 0064 0B       		.uleb128 0xb
 6397 0065 49       		.uleb128 0x49
 6398 0066 13       		.uleb128 0x13
 6399 0067 0B       		.uleb128 0xb
 6400 0068 0B       		.uleb128 0xb
 6401 0069 0D       		.uleb128 0xd
 6402 006a 0B       		.uleb128 0xb
 6403 006b 0C       		.uleb128 0xc
 6404 006c 0B       		.uleb128 0xb
 6405 006d 38       		.uleb128 0x38
 6406 006e 0A       		.uleb128 0xa
 6407 006f 00       		.byte	0
 6408 0070 00       		.byte	0
 6409 0071 0A       		.uleb128 0xa
 6410 0072 17       		.uleb128 0x17
 6411 0073 01       		.byte	0x1
 6412 0074 0B       		.uleb128 0xb
 6413 0075 0B       		.uleb128 0xb
 6414 0076 3A       		.uleb128 0x3a
 6415 0077 0B       		.uleb128 0xb
 6416 0078 3B       		.uleb128 0x3b
 6417 0079 0B       		.uleb128 0xb
 6418 007a 01       		.uleb128 0x1
 6419 007b 13       		.uleb128 0x13
 6420 007c 00       		.byte	0
 6421 007d 00       		.byte	0
 6422 007e 0B       		.uleb128 0xb
 6423 007f 0D       		.uleb128 0xd
 6424 0080 00       		.byte	0
 6425 0081 03       		.uleb128 0x3
 6426 0082 08       		.uleb128 0x8
ARM GAS  C:\Users\ZHANGM~1\AppData\Local\Temp\ccBCEiox.s 			page 140


 6427 0083 3A       		.uleb128 0x3a
 6428 0084 0B       		.uleb128 0xb
 6429 0085 3B       		.uleb128 0x3b
 6430 0086 0B       		.uleb128 0xb
 6431 0087 49       		.uleb128 0x49
 6432 0088 13       		.uleb128 0x13
 6433 0089 00       		.byte	0
 6434 008a 00       		.byte	0
 6435 008b 0C       		.uleb128 0xc
 6436 008c 13       		.uleb128 0x13
 6437 008d 01       		.byte	0x1
 6438 008e 03       		.uleb128 0x3
 6439 008f 0E       		.uleb128 0xe
 6440 0090 0B       		.uleb128 0xb
 6441 0091 0B       		.uleb128 0xb
 6442 0092 3A       		.uleb128 0x3a
 6443 0093 0B       		.uleb128 0xb
 6444 0094 3B       		.uleb128 0x3b
 6445 0095 0B       		.uleb128 0xb
 6446 0096 01       		.uleb128 0x1
 6447 0097 13       		.uleb128 0x13
 6448 0098 00       		.byte	0
 6449 0099 00       		.byte	0
 6450 009a 0D       		.uleb128 0xd
 6451 009b 0D       		.uleb128 0xd
 6452 009c 00       		.byte	0
 6453 009d 03       		.uleb128 0x3
 6454 009e 0E       		.uleb128 0xe
 6455 009f 3A       		.uleb128 0x3a
 6456 00a0 0B       		.uleb128 0xb
 6457 00a1 3B       		.uleb128 0x3b
 6458 00a2 0B       		.uleb128 0xb
 6459 00a3 49       		.uleb128 0x49
 6460 00a4 13       		.uleb128 0x13
 6461 00a5 38       		.uleb128 0x38
 6462 00a6 0A       		.uleb128 0xa
 6463 00a7 00       		.byte	0
 6464 00a8 00       		.byte	0
 6465 00a9 0E       		.uleb128 0xe
 6466 00aa 01       		.uleb128 0x1
 6467 00ab 01       		.byte	0x1
 6468 00ac 49       		.uleb128 0x49
 6469 00ad 13       		.uleb128 0x13
 6470 00ae 01       		.uleb128 0x1
 6471 00af 13       		.uleb128 0x13
 6472 00b0 00       		.byte	0
 6473 00b1 00       		.byte	0
 6474 00b2 0F       		.uleb128 0xf
 6475 00b3 21       		.uleb128 0x21
 6476 00b4 00       		.byte	0
 6477 00b5 49       		.uleb128 0x49
 6478 00b6 13       		.uleb128 0x13
 6479 00b7 2F       		.uleb128 0x2f
 6480 00b8 0B       		.uleb128 0xb
 6481 00b9 00       		.byte	0
 6482 00ba 00       		.byte	0
 6483 00bb 10       		.uleb128 0x10
ARM GAS  C:\Users\ZHANGM~1\AppData\Local\Temp\ccBCEiox.s 			page 141


 6484 00bc 2E       		.uleb128 0x2e
 6485 00bd 01       		.byte	0x1
 6486 00be 3F       		.uleb128 0x3f
 6487 00bf 0C       		.uleb128 0xc
 6488 00c0 03       		.uleb128 0x3
 6489 00c1 0E       		.uleb128 0xe
 6490 00c2 3A       		.uleb128 0x3a
 6491 00c3 0B       		.uleb128 0xb
 6492 00c4 3B       		.uleb128 0x3b
 6493 00c5 0B       		.uleb128 0xb
 6494 00c6 27       		.uleb128 0x27
 6495 00c7 0C       		.uleb128 0xc
 6496 00c8 49       		.uleb128 0x49
 6497 00c9 13       		.uleb128 0x13
 6498 00ca 11       		.uleb128 0x11
 6499 00cb 01       		.uleb128 0x1
 6500 00cc 12       		.uleb128 0x12
 6501 00cd 01       		.uleb128 0x1
 6502 00ce 40       		.uleb128 0x40
 6503 00cf 06       		.uleb128 0x6
 6504 00d0 9742     		.uleb128 0x2117
 6505 00d2 0C       		.uleb128 0xc
 6506 00d3 01       		.uleb128 0x1
 6507 00d4 13       		.uleb128 0x13
 6508 00d5 00       		.byte	0
 6509 00d6 00       		.byte	0
 6510 00d7 11       		.uleb128 0x11
 6511 00d8 05       		.uleb128 0x5
 6512 00d9 00       		.byte	0
 6513 00da 03       		.uleb128 0x3
 6514 00db 0E       		.uleb128 0xe
 6515 00dc 3A       		.uleb128 0x3a
 6516 00dd 0B       		.uleb128 0xb
 6517 00de 3B       		.uleb128 0x3b
 6518 00df 0B       		.uleb128 0xb
 6519 00e0 49       		.uleb128 0x49
 6520 00e1 13       		.uleb128 0x13
 6521 00e2 02       		.uleb128 0x2
 6522 00e3 06       		.uleb128 0x6
 6523 00e4 00       		.byte	0
 6524 00e5 00       		.byte	0
 6525 00e6 12       		.uleb128 0x12
 6526 00e7 05       		.uleb128 0x5
 6527 00e8 00       		.byte	0
 6528 00e9 03       		.uleb128 0x3
 6529 00ea 08       		.uleb128 0x8
 6530 00eb 3A       		.uleb128 0x3a
 6531 00ec 0B       		.uleb128 0xb
 6532 00ed 3B       		.uleb128 0x3b
 6533 00ee 0B       		.uleb128 0xb
 6534 00ef 49       		.uleb128 0x49
 6535 00f0 13       		.uleb128 0x13
 6536 00f1 02       		.uleb128 0x2
 6537 00f2 06       		.uleb128 0x6
 6538 00f3 00       		.byte	0
 6539 00f4 00       		.byte	0
 6540 00f5 13       		.uleb128 0x13
ARM GAS  C:\Users\ZHANGM~1\AppData\Local\Temp\ccBCEiox.s 			page 142


 6541 00f6 34       		.uleb128 0x34
 6542 00f7 00       		.byte	0
 6543 00f8 03       		.uleb128 0x3
 6544 00f9 0E       		.uleb128 0xe
 6545 00fa 3A       		.uleb128 0x3a
 6546 00fb 0B       		.uleb128 0xb
 6547 00fc 3B       		.uleb128 0x3b
 6548 00fd 0B       		.uleb128 0xb
 6549 00fe 49       		.uleb128 0x49
 6550 00ff 13       		.uleb128 0x13
 6551 0100 02       		.uleb128 0x2
 6552 0101 06       		.uleb128 0x6
 6553 0102 00       		.byte	0
 6554 0103 00       		.byte	0
 6555 0104 14       		.uleb128 0x14
 6556 0105 2E       		.uleb128 0x2e
 6557 0106 01       		.byte	0x1
 6558 0107 3F       		.uleb128 0x3f
 6559 0108 0C       		.uleb128 0xc
 6560 0109 03       		.uleb128 0x3
 6561 010a 0E       		.uleb128 0xe
 6562 010b 3A       		.uleb128 0x3a
 6563 010c 0B       		.uleb128 0xb
 6564 010d 3B       		.uleb128 0x3b
 6565 010e 0B       		.uleb128 0xb
 6566 010f 27       		.uleb128 0x27
 6567 0110 0C       		.uleb128 0xc
 6568 0111 11       		.uleb128 0x11
 6569 0112 01       		.uleb128 0x1
 6570 0113 12       		.uleb128 0x12
 6571 0114 01       		.uleb128 0x1
 6572 0115 40       		.uleb128 0x40
 6573 0116 06       		.uleb128 0x6
 6574 0117 9742     		.uleb128 0x2117
 6575 0119 0C       		.uleb128 0xc
 6576 011a 01       		.uleb128 0x1
 6577 011b 13       		.uleb128 0x13
 6578 011c 00       		.byte	0
 6579 011d 00       		.byte	0
 6580 011e 15       		.uleb128 0x15
 6581 011f 2E       		.uleb128 0x2e
 6582 0120 01       		.byte	0x1
 6583 0121 3F       		.uleb128 0x3f
 6584 0122 0C       		.uleb128 0xc
 6585 0123 03       		.uleb128 0x3
 6586 0124 0E       		.uleb128 0xe
 6587 0125 3A       		.uleb128 0x3a
 6588 0126 0B       		.uleb128 0xb
 6589 0127 3B       		.uleb128 0x3b
 6590 0128 05       		.uleb128 0x5
 6591 0129 27       		.uleb128 0x27
 6592 012a 0C       		.uleb128 0xc
 6593 012b 11       		.uleb128 0x11
 6594 012c 01       		.uleb128 0x1
 6595 012d 12       		.uleb128 0x12
 6596 012e 01       		.uleb128 0x1
 6597 012f 40       		.uleb128 0x40
ARM GAS  C:\Users\ZHANGM~1\AppData\Local\Temp\ccBCEiox.s 			page 143


 6598 0130 06       		.uleb128 0x6
 6599 0131 9742     		.uleb128 0x2117
 6600 0133 0C       		.uleb128 0xc
 6601 0134 01       		.uleb128 0x1
 6602 0135 13       		.uleb128 0x13
 6603 0136 00       		.byte	0
 6604 0137 00       		.byte	0
 6605 0138 16       		.uleb128 0x16
 6606 0139 05       		.uleb128 0x5
 6607 013a 00       		.byte	0
 6608 013b 03       		.uleb128 0x3
 6609 013c 0E       		.uleb128 0xe
 6610 013d 3A       		.uleb128 0x3a
 6611 013e 0B       		.uleb128 0xb
 6612 013f 3B       		.uleb128 0x3b
 6613 0140 05       		.uleb128 0x5
 6614 0141 49       		.uleb128 0x49
 6615 0142 13       		.uleb128 0x13
 6616 0143 02       		.uleb128 0x2
 6617 0144 0A       		.uleb128 0xa
 6618 0145 00       		.byte	0
 6619 0146 00       		.byte	0
 6620 0147 17       		.uleb128 0x17
 6621 0148 05       		.uleb128 0x5
 6622 0149 00       		.byte	0
 6623 014a 03       		.uleb128 0x3
 6624 014b 0E       		.uleb128 0xe
 6625 014c 3A       		.uleb128 0x3a
 6626 014d 0B       		.uleb128 0xb
 6627 014e 3B       		.uleb128 0x3b
 6628 014f 05       		.uleb128 0x5
 6629 0150 49       		.uleb128 0x49
 6630 0151 13       		.uleb128 0x13
 6631 0152 02       		.uleb128 0x2
 6632 0153 06       		.uleb128 0x6
 6633 0154 00       		.byte	0
 6634 0155 00       		.byte	0
 6635 0156 18       		.uleb128 0x18
 6636 0157 898201   		.uleb128 0x4109
 6637 015a 00       		.byte	0
 6638 015b 11       		.uleb128 0x11
 6639 015c 01       		.uleb128 0x1
 6640 015d 31       		.uleb128 0x31
 6641 015e 13       		.uleb128 0x13
 6642 015f 00       		.byte	0
 6643 0160 00       		.byte	0
 6644 0161 19       		.uleb128 0x19
 6645 0162 2E       		.uleb128 0x2e
 6646 0163 00       		.byte	0
 6647 0164 3F       		.uleb128 0x3f
 6648 0165 0C       		.uleb128 0xc
 6649 0166 03       		.uleb128 0x3
 6650 0167 0E       		.uleb128 0xe
 6651 0168 3A       		.uleb128 0x3a
 6652 0169 0B       		.uleb128 0xb
 6653 016a 3B       		.uleb128 0x3b
 6654 016b 05       		.uleb128 0x5
ARM GAS  C:\Users\ZHANGM~1\AppData\Local\Temp\ccBCEiox.s 			page 144


 6655 016c 27       		.uleb128 0x27
 6656 016d 0C       		.uleb128 0xc
 6657 016e 11       		.uleb128 0x11
 6658 016f 01       		.uleb128 0x1
 6659 0170 12       		.uleb128 0x12
 6660 0171 01       		.uleb128 0x1
 6661 0172 40       		.uleb128 0x40
 6662 0173 0A       		.uleb128 0xa
 6663 0174 9742     		.uleb128 0x2117
 6664 0176 0C       		.uleb128 0xc
 6665 0177 00       		.byte	0
 6666 0178 00       		.byte	0
 6667 0179 1A       		.uleb128 0x1a
 6668 017a 34       		.uleb128 0x34
 6669 017b 00       		.byte	0
 6670 017c 03       		.uleb128 0x3
 6671 017d 0E       		.uleb128 0xe
 6672 017e 3A       		.uleb128 0x3a
 6673 017f 0B       		.uleb128 0xb
 6674 0180 3B       		.uleb128 0x3b
 6675 0181 05       		.uleb128 0x5
 6676 0182 49       		.uleb128 0x49
 6677 0183 13       		.uleb128 0x13
 6678 0184 02       		.uleb128 0x2
 6679 0185 0A       		.uleb128 0xa
 6680 0186 00       		.byte	0
 6681 0187 00       		.byte	0
 6682 0188 1B       		.uleb128 0x1b
 6683 0189 898201   		.uleb128 0x4109
 6684 018c 01       		.byte	0x1
 6685 018d 11       		.uleb128 0x11
 6686 018e 01       		.uleb128 0x1
 6687 018f 31       		.uleb128 0x31
 6688 0190 13       		.uleb128 0x13
 6689 0191 01       		.uleb128 0x1
 6690 0192 13       		.uleb128 0x13
 6691 0193 00       		.byte	0
 6692 0194 00       		.byte	0
 6693 0195 1C       		.uleb128 0x1c
 6694 0196 8A8201   		.uleb128 0x410a
 6695 0199 00       		.byte	0
 6696 019a 02       		.uleb128 0x2
 6697 019b 0A       		.uleb128 0xa
 6698 019c 9142     		.uleb128 0x2111
 6699 019e 0A       		.uleb128 0xa
 6700 019f 00       		.byte	0
 6701 01a0 00       		.byte	0
 6702 01a1 1D       		.uleb128 0x1d
 6703 01a2 898201   		.uleb128 0x4109
 6704 01a5 01       		.byte	0x1
 6705 01a6 11       		.uleb128 0x11
 6706 01a7 01       		.uleb128 0x1
 6707 01a8 31       		.uleb128 0x31
 6708 01a9 13       		.uleb128 0x13
 6709 01aa 00       		.byte	0
 6710 01ab 00       		.byte	0
 6711 01ac 1E       		.uleb128 0x1e
ARM GAS  C:\Users\ZHANGM~1\AppData\Local\Temp\ccBCEiox.s 			page 145


 6712 01ad 2E       		.uleb128 0x2e
 6713 01ae 00       		.byte	0
 6714 01af 3F       		.uleb128 0x3f
 6715 01b0 0C       		.uleb128 0xc
 6716 01b1 03       		.uleb128 0x3
 6717 01b2 0E       		.uleb128 0xe
 6718 01b3 3A       		.uleb128 0x3a
 6719 01b4 0B       		.uleb128 0xb
 6720 01b5 3B       		.uleb128 0x3b
 6721 01b6 05       		.uleb128 0x5
 6722 01b7 27       		.uleb128 0x27
 6723 01b8 0C       		.uleb128 0xc
 6724 01b9 11       		.uleb128 0x11
 6725 01ba 01       		.uleb128 0x1
 6726 01bb 12       		.uleb128 0x12
 6727 01bc 01       		.uleb128 0x1
 6728 01bd 40       		.uleb128 0x40
 6729 01be 06       		.uleb128 0x6
 6730 01bf 9742     		.uleb128 0x2117
 6731 01c1 0C       		.uleb128 0xc
 6732 01c2 00       		.byte	0
 6733 01c3 00       		.byte	0
 6734 01c4 1F       		.uleb128 0x1f
 6735 01c5 34       		.uleb128 0x34
 6736 01c6 00       		.byte	0
 6737 01c7 03       		.uleb128 0x3
 6738 01c8 08       		.uleb128 0x8
 6739 01c9 3A       		.uleb128 0x3a
 6740 01ca 0B       		.uleb128 0xb
 6741 01cb 3B       		.uleb128 0x3b
 6742 01cc 05       		.uleb128 0x5
 6743 01cd 49       		.uleb128 0x49
 6744 01ce 13       		.uleb128 0x13
 6745 01cf 02       		.uleb128 0x2
 6746 01d0 06       		.uleb128 0x6
 6747 01d1 00       		.byte	0
 6748 01d2 00       		.byte	0
 6749 01d3 20       		.uleb128 0x20
 6750 01d4 2E       		.uleb128 0x2e
 6751 01d5 01       		.byte	0x1
 6752 01d6 3F       		.uleb128 0x3f
 6753 01d7 0C       		.uleb128 0xc
 6754 01d8 03       		.uleb128 0x3
 6755 01d9 0E       		.uleb128 0xe
 6756 01da 3A       		.uleb128 0x3a
 6757 01db 0B       		.uleb128 0xb
 6758 01dc 3B       		.uleb128 0x3b
 6759 01dd 05       		.uleb128 0x5
 6760 01de 27       		.uleb128 0x27
 6761 01df 0C       		.uleb128 0xc
 6762 01e0 49       		.uleb128 0x49
 6763 01e1 13       		.uleb128 0x13
 6764 01e2 11       		.uleb128 0x11
 6765 01e3 01       		.uleb128 0x1
 6766 01e4 12       		.uleb128 0x12
 6767 01e5 01       		.uleb128 0x1
 6768 01e6 40       		.uleb128 0x40
ARM GAS  C:\Users\ZHANGM~1\AppData\Local\Temp\ccBCEiox.s 			page 146


 6769 01e7 06       		.uleb128 0x6
 6770 01e8 9742     		.uleb128 0x2117
 6771 01ea 0C       		.uleb128 0xc
 6772 01eb 01       		.uleb128 0x1
 6773 01ec 13       		.uleb128 0x13
 6774 01ed 00       		.byte	0
 6775 01ee 00       		.byte	0
 6776 01ef 21       		.uleb128 0x21
 6777 01f0 34       		.uleb128 0x34
 6778 01f1 00       		.byte	0
 6779 01f2 03       		.uleb128 0x3
 6780 01f3 0E       		.uleb128 0xe
 6781 01f4 3A       		.uleb128 0x3a
 6782 01f5 0B       		.uleb128 0xb
 6783 01f6 3B       		.uleb128 0x3b
 6784 01f7 0B       		.uleb128 0xb
 6785 01f8 49       		.uleb128 0x49
 6786 01f9 13       		.uleb128 0x13
 6787 01fa 3F       		.uleb128 0x3f
 6788 01fb 0C       		.uleb128 0xc
 6789 01fc 3C       		.uleb128 0x3c
 6790 01fd 0C       		.uleb128 0xc
 6791 01fe 00       		.byte	0
 6792 01ff 00       		.byte	0
 6793 0200 22       		.uleb128 0x22
 6794 0201 34       		.uleb128 0x34
 6795 0202 00       		.byte	0
 6796 0203 03       		.uleb128 0x3
 6797 0204 0E       		.uleb128 0xe
 6798 0205 3A       		.uleb128 0x3a
 6799 0206 0B       		.uleb128 0xb
 6800 0207 3B       		.uleb128 0x3b
 6801 0208 0B       		.uleb128 0xb
 6802 0209 49       		.uleb128 0x49
 6803 020a 13       		.uleb128 0x13
 6804 020b 3F       		.uleb128 0x3f
 6805 020c 0C       		.uleb128 0xc
 6806 020d 02       		.uleb128 0x2
 6807 020e 0A       		.uleb128 0xa
 6808 020f 00       		.byte	0
 6809 0210 00       		.byte	0
 6810 0211 23       		.uleb128 0x23
 6811 0212 2E       		.uleb128 0x2e
 6812 0213 01       		.byte	0x1
 6813 0214 3F       		.uleb128 0x3f
 6814 0215 0C       		.uleb128 0xc
 6815 0216 03       		.uleb128 0x3
 6816 0217 0E       		.uleb128 0xe
 6817 0218 27       		.uleb128 0x27
 6818 0219 0C       		.uleb128 0xc
 6819 021a 49       		.uleb128 0x49
 6820 021b 13       		.uleb128 0x13
 6821 021c 34       		.uleb128 0x34
 6822 021d 0C       		.uleb128 0xc
 6823 021e 3C       		.uleb128 0x3c
 6824 021f 0C       		.uleb128 0xc
 6825 0220 01       		.uleb128 0x1
ARM GAS  C:\Users\ZHANGM~1\AppData\Local\Temp\ccBCEiox.s 			page 147


 6826 0221 13       		.uleb128 0x13
 6827 0222 00       		.byte	0
 6828 0223 00       		.byte	0
 6829 0224 24       		.uleb128 0x24
 6830 0225 05       		.uleb128 0x5
 6831 0226 00       		.byte	0
 6832 0227 49       		.uleb128 0x49
 6833 0228 13       		.uleb128 0x13
 6834 0229 00       		.byte	0
 6835 022a 00       		.byte	0
 6836 022b 25       		.uleb128 0x25
 6837 022c 26       		.uleb128 0x26
 6838 022d 00       		.byte	0
 6839 022e 00       		.byte	0
 6840 022f 00       		.byte	0
 6841 0230 26       		.uleb128 0x26
 6842 0231 2E       		.uleb128 0x2e
 6843 0232 00       		.byte	0
 6844 0233 3F       		.uleb128 0x3f
 6845 0234 0C       		.uleb128 0xc
 6846 0235 03       		.uleb128 0x3
 6847 0236 0E       		.uleb128 0xe
 6848 0237 3A       		.uleb128 0x3a
 6849 0238 0B       		.uleb128 0xb
 6850 0239 3B       		.uleb128 0x3b
 6851 023a 05       		.uleb128 0x5
 6852 023b 27       		.uleb128 0x27
 6853 023c 0C       		.uleb128 0xc
 6854 023d 49       		.uleb128 0x49
 6855 023e 13       		.uleb128 0x13
 6856 023f 3C       		.uleb128 0x3c
 6857 0240 0C       		.uleb128 0xc
 6858 0241 00       		.byte	0
 6859 0242 00       		.byte	0
 6860 0243 27       		.uleb128 0x27
 6861 0244 2E       		.uleb128 0x2e
 6862 0245 00       		.byte	0
 6863 0246 3F       		.uleb128 0x3f
 6864 0247 0C       		.uleb128 0xc
 6865 0248 03       		.uleb128 0x3
 6866 0249 0E       		.uleb128 0xe
 6867 024a 3A       		.uleb128 0x3a
 6868 024b 0B       		.uleb128 0xb
 6869 024c 3B       		.uleb128 0x3b
 6870 024d 0B       		.uleb128 0xb
 6871 024e 27       		.uleb128 0x27
 6872 024f 0C       		.uleb128 0xc
 6873 0250 3C       		.uleb128 0x3c
 6874 0251 0C       		.uleb128 0xc
 6875 0252 00       		.byte	0
 6876 0253 00       		.byte	0
 6877 0254 00       		.byte	0
 6878              		.section	.debug_loc,"",%progbits
 6879              	.Ldebug_loc0:
 6880              	.LLST0:
 6881 0000 00000000 		.4byte	.LFB33
 6882 0004 02000000 		.4byte	.LCFI0
ARM GAS  C:\Users\ZHANGM~1\AppData\Local\Temp\ccBCEiox.s 			page 148


 6883 0008 0200     		.2byte	0x2
 6884 000a 7D       		.byte	0x7d
 6885 000b 00       		.sleb128 0
 6886 000c 02000000 		.4byte	.LCFI0
 6887 0010 24000000 		.4byte	.LFE33
 6888 0014 0200     		.2byte	0x2
 6889 0016 7D       		.byte	0x7d
 6890 0017 04       		.sleb128 4
 6891 0018 00000000 		.4byte	0
 6892 001c 00000000 		.4byte	0
 6893              	.LLST1:
 6894 0020 00000000 		.4byte	.LVL0
 6895 0024 12000000 		.4byte	.LVL4
 6896 0028 0100     		.2byte	0x1
 6897 002a 50       		.byte	0x50
 6898 002b 12000000 		.4byte	.LVL4
 6899 002f 16000000 		.4byte	.LVL6
 6900 0033 0300     		.2byte	0x3
 6901 0035 70       		.byte	0x70
 6902 0036 7F       		.sleb128 -1
 6903 0037 9F       		.byte	0x9f
 6904 0038 16000000 		.4byte	.LVL6
 6905 003c 1C000000 		.4byte	.LVL7
 6906 0040 0100     		.2byte	0x1
 6907 0042 50       		.byte	0x50
 6908 0043 00000000 		.4byte	0
 6909 0047 00000000 		.4byte	0
 6910              	.LLST2:
 6911 004b 00000000 		.4byte	.LVL0
 6912 004f 04000000 		.4byte	.LVL1
 6913 0053 0100     		.2byte	0x1
 6914 0055 51       		.byte	0x51
 6915 0056 04000000 		.4byte	.LVL1
 6916 005a 06000000 		.4byte	.LVL2
 6917 005e 0100     		.2byte	0x1
 6918 0060 51       		.byte	0x51
 6919 0061 06000000 		.4byte	.LVL2
 6920 0065 0A000000 		.4byte	.LVL3
 6921 0069 0300     		.2byte	0x3
 6922 006b 71       		.byte	0x71
 6923 006c 01       		.sleb128 1
 6924 006d 9F       		.byte	0x9f
 6925 006e 0A000000 		.4byte	.LVL3
 6926 0072 24000000 		.4byte	.LFE33
 6927 0076 0100     		.2byte	0x1
 6928 0078 51       		.byte	0x51
 6929 0079 00000000 		.4byte	0
 6930 007d 00000000 		.4byte	0
 6931              	.LLST3:
 6932 0081 00000000 		.4byte	.LVL0
 6933 0085 04000000 		.4byte	.LVL1
 6934 0089 0200     		.2byte	0x2
 6935 008b 30       		.byte	0x30
 6936 008c 9F       		.byte	0x9f
 6937 008d 04000000 		.4byte	.LVL1
 6938 0091 14000000 		.4byte	.LVL5
 6939 0095 0100     		.2byte	0x1
ARM GAS  C:\Users\ZHANGM~1\AppData\Local\Temp\ccBCEiox.s 			page 149


 6940 0097 53       		.byte	0x53
 6941 0098 16000000 		.4byte	.LVL6
 6942 009c 1C000000 		.4byte	.LVL7
 6943 00a0 0100     		.2byte	0x1
 6944 00a2 53       		.byte	0x53
 6945 00a3 00000000 		.4byte	0
 6946 00a7 00000000 		.4byte	0
 6947              	.LLST4:
 6948 00ab 00000000 		.4byte	.LFB34
 6949 00af 02000000 		.4byte	.LCFI1
 6950 00b3 0200     		.2byte	0x2
 6951 00b5 7D       		.byte	0x7d
 6952 00b6 00       		.sleb128 0
 6953 00b7 02000000 		.4byte	.LCFI1
 6954 00bb 24000000 		.4byte	.LFE34
 6955 00bf 0200     		.2byte	0x2
 6956 00c1 7D       		.byte	0x7d
 6957 00c2 04       		.sleb128 4
 6958 00c3 00000000 		.4byte	0
 6959 00c7 00000000 		.4byte	0
 6960              	.LLST5:
 6961 00cb 00000000 		.4byte	.LVL8
 6962 00cf 12000000 		.4byte	.LVL12
 6963 00d3 0100     		.2byte	0x1
 6964 00d5 50       		.byte	0x50
 6965 00d6 12000000 		.4byte	.LVL12
 6966 00da 16000000 		.4byte	.LVL14
 6967 00de 0300     		.2byte	0x3
 6968 00e0 70       		.byte	0x70
 6969 00e1 7F       		.sleb128 -1
 6970 00e2 9F       		.byte	0x9f
 6971 00e3 16000000 		.4byte	.LVL14
 6972 00e7 1C000000 		.4byte	.LVL16
 6973 00eb 0100     		.2byte	0x1
 6974 00ed 50       		.byte	0x50
 6975 00ee 00000000 		.4byte	0
 6976 00f2 00000000 		.4byte	0
 6977              	.LLST6:
 6978 00f6 00000000 		.4byte	.LVL8
 6979 00fa 04000000 		.4byte	.LVL9
 6980 00fe 0100     		.2byte	0x1
 6981 0100 51       		.byte	0x51
 6982 0101 04000000 		.4byte	.LVL9
 6983 0105 06000000 		.4byte	.LVL10
 6984 0109 0100     		.2byte	0x1
 6985 010b 51       		.byte	0x51
 6986 010c 06000000 		.4byte	.LVL10
 6987 0110 0A000000 		.4byte	.LVL11
 6988 0114 0300     		.2byte	0x3
 6989 0116 71       		.byte	0x71
 6990 0117 01       		.sleb128 1
 6991 0118 9F       		.byte	0x9f
 6992 0119 0A000000 		.4byte	.LVL11
 6993 011d 24000000 		.4byte	.LFE34
 6994 0121 0100     		.2byte	0x1
 6995 0123 51       		.byte	0x51
 6996 0124 00000000 		.4byte	0
ARM GAS  C:\Users\ZHANGM~1\AppData\Local\Temp\ccBCEiox.s 			page 150


 6997 0128 00000000 		.4byte	0
 6998              	.LLST7:
 6999 012c 00000000 		.4byte	.LVL8
 7000 0130 04000000 		.4byte	.LVL9
 7001 0134 0200     		.2byte	0x2
 7002 0136 30       		.byte	0x30
 7003 0137 9F       		.byte	0x9f
 7004 0138 04000000 		.4byte	.LVL9
 7005 013c 14000000 		.4byte	.LVL13
 7006 0140 0100     		.2byte	0x1
 7007 0142 53       		.byte	0x53
 7008 0143 16000000 		.4byte	.LVL14
 7009 0147 1A000000 		.4byte	.LVL15
 7010 014b 0100     		.2byte	0x1
 7011 014d 53       		.byte	0x53
 7012 014e 1A000000 		.4byte	.LVL15
 7013 0152 24000000 		.4byte	.LFE34
 7014 0156 0400     		.2byte	0x4
 7015 0158 73       		.byte	0x73
 7016 0159 00       		.sleb128 0
 7017 015a 1F       		.byte	0x1f
 7018 015b 9F       		.byte	0x9f
 7019 015c 00000000 		.4byte	0
 7020 0160 00000000 		.4byte	0
 7021              	.LLST8:
 7022 0164 00000000 		.4byte	.LFB35
 7023 0168 02000000 		.4byte	.LCFI2
 7024 016c 0200     		.2byte	0x2
 7025 016e 7D       		.byte	0x7d
 7026 016f 00       		.sleb128 0
 7027 0170 02000000 		.4byte	.LCFI2
 7028 0174 08010000 		.4byte	.LFE35
 7029 0178 0200     		.2byte	0x2
 7030 017a 7D       		.byte	0x7d
 7031 017b 0C       		.sleb128 12
 7032 017c 00000000 		.4byte	0
 7033 0180 00000000 		.4byte	0
 7034              	.LLST9:
 7035 0184 00000000 		.4byte	.LVL17
 7036 0188 08000000 		.4byte	.LVL18
 7037 018c 0100     		.2byte	0x1
 7038 018e 50       		.byte	0x50
 7039 018f 08000000 		.4byte	.LVL18
 7040 0193 08010000 		.4byte	.LFE35
 7041 0197 0400     		.2byte	0x4
 7042 0199 F3       		.byte	0xf3
 7043 019a 01       		.uleb128 0x1
 7044 019b 50       		.byte	0x50
 7045 019c 9F       		.byte	0x9f
 7046 019d 00000000 		.4byte	0
 7047 01a1 00000000 		.4byte	0
 7048              	.LLST10:
 7049 01a5 00000000 		.4byte	.LFB36
 7050 01a9 02000000 		.4byte	.LCFI3
 7051 01ad 0200     		.2byte	0x2
 7052 01af 7D       		.byte	0x7d
 7053 01b0 00       		.sleb128 0
ARM GAS  C:\Users\ZHANGM~1\AppData\Local\Temp\ccBCEiox.s 			page 151


 7054 01b1 02000000 		.4byte	.LCFI3
 7055 01b5 1C010000 		.4byte	.LFE36
 7056 01b9 0200     		.2byte	0x2
 7057 01bb 7D       		.byte	0x7d
 7058 01bc 08       		.sleb128 8
 7059 01bd 00000000 		.4byte	0
 7060 01c1 00000000 		.4byte	0
 7061              	.LLST11:
 7062 01c5 00000000 		.4byte	.LVL19
 7063 01c9 08000000 		.4byte	.LVL20
 7064 01cd 0100     		.2byte	0x1
 7065 01cf 50       		.byte	0x50
 7066 01d0 08000000 		.4byte	.LVL20
 7067 01d4 1C010000 		.4byte	.LFE36
 7068 01d8 0400     		.2byte	0x4
 7069 01da F3       		.byte	0xf3
 7070 01db 01       		.uleb128 0x1
 7071 01dc 50       		.byte	0x50
 7072 01dd 9F       		.byte	0x9f
 7073 01de 00000000 		.4byte	0
 7074 01e2 00000000 		.4byte	0
 7075              	.LLST12:
 7076 01e6 00000000 		.4byte	.LFB37
 7077 01ea 02000000 		.4byte	.LCFI4
 7078 01ee 0200     		.2byte	0x2
 7079 01f0 7D       		.byte	0x7d
 7080 01f1 00       		.sleb128 0
 7081 01f2 02000000 		.4byte	.LCFI4
 7082 01f6 30000000 		.4byte	.LFE37
 7083 01fa 0200     		.2byte	0x2
 7084 01fc 7D       		.byte	0x7d
 7085 01fd 08       		.sleb128 8
 7086 01fe 00000000 		.4byte	0
 7087 0202 00000000 		.4byte	0
 7088              	.LLST13:
 7089 0206 00000000 		.4byte	.LVL21
 7090 020a 0A000000 		.4byte	.LVL22
 7091 020e 0100     		.2byte	0x1
 7092 0210 51       		.byte	0x51
 7093 0211 0A000000 		.4byte	.LVL22
 7094 0215 30000000 		.4byte	.LFE37
 7095 0219 0400     		.2byte	0x4
 7096 021b F3       		.byte	0xf3
 7097 021c 01       		.uleb128 0x1
 7098 021d 51       		.byte	0x51
 7099 021e 9F       		.byte	0x9f
 7100 021f 00000000 		.4byte	0
 7101 0223 00000000 		.4byte	0
 7102              	.LLST14:
 7103 0227 00000000 		.4byte	.LFB38
 7104 022b 02000000 		.4byte	.LCFI5
 7105 022f 0200     		.2byte	0x2
 7106 0231 7D       		.byte	0x7d
 7107 0232 00       		.sleb128 0
 7108 0233 02000000 		.4byte	.LCFI5
 7109 0237 1C000000 		.4byte	.LFE38
 7110 023b 0200     		.2byte	0x2
ARM GAS  C:\Users\ZHANGM~1\AppData\Local\Temp\ccBCEiox.s 			page 152


 7111 023d 7D       		.byte	0x7d
 7112 023e 04       		.sleb128 4
 7113 023f 00000000 		.4byte	0
 7114 0243 00000000 		.4byte	0
 7115              	.LLST15:
 7116 0247 00000000 		.4byte	.LFB39
 7117 024b 02000000 		.4byte	.LCFI6
 7118 024f 0200     		.2byte	0x2
 7119 0251 7D       		.byte	0x7d
 7120 0252 00       		.sleb128 0
 7121 0253 02000000 		.4byte	.LCFI6
 7122 0257 1C000000 		.4byte	.LFE39
 7123 025b 0200     		.2byte	0x2
 7124 025d 7D       		.byte	0x7d
 7125 025e 04       		.sleb128 4
 7126 025f 00000000 		.4byte	0
 7127 0263 00000000 		.4byte	0
 7128              	.LLST16:
 7129 0267 00000000 		.4byte	.LFB40
 7130 026b 02000000 		.4byte	.LCFI7
 7131 026f 0200     		.2byte	0x2
 7132 0271 7D       		.byte	0x7d
 7133 0272 00       		.sleb128 0
 7134 0273 02000000 		.4byte	.LCFI7
 7135 0277 48000000 		.4byte	.LFE40
 7136 027b 0200     		.2byte	0x2
 7137 027d 7D       		.byte	0x7d
 7138 027e 08       		.sleb128 8
 7139 027f 00000000 		.4byte	0
 7140 0283 00000000 		.4byte	0
 7141              	.LLST17:
 7142 0287 00000000 		.4byte	.LFB42
 7143 028b 02000000 		.4byte	.LCFI8
 7144 028f 0200     		.2byte	0x2
 7145 0291 7D       		.byte	0x7d
 7146 0292 00       		.sleb128 0
 7147 0293 02000000 		.4byte	.LCFI8
 7148 0297 94000000 		.4byte	.LFE42
 7149 029b 0200     		.2byte	0x2
 7150 029d 7D       		.byte	0x7d
 7151 029e 20       		.sleb128 32
 7152 029f 00000000 		.4byte	0
 7153 02a3 00000000 		.4byte	0
 7154              	.LLST18:
 7155 02a7 00000000 		.4byte	.LVL26
 7156 02ab 12000000 		.4byte	.LVL29
 7157 02af 0100     		.2byte	0x1
 7158 02b1 50       		.byte	0x50
 7159 02b2 12000000 		.4byte	.LVL29
 7160 02b6 94000000 		.4byte	.LFE42
 7161 02ba 0400     		.2byte	0x4
 7162 02bc F3       		.byte	0xf3
 7163 02bd 01       		.uleb128 0x1
 7164 02be 50       		.byte	0x50
 7165 02bf 9F       		.byte	0x9f
 7166 02c0 00000000 		.4byte	0
 7167 02c4 00000000 		.4byte	0
ARM GAS  C:\Users\ZHANGM~1\AppData\Local\Temp\ccBCEiox.s 			page 153


 7168              	.LLST19:
 7169 02c8 00000000 		.4byte	.LVL26
 7170 02cc 0E000000 		.4byte	.LVL27
 7171 02d0 0100     		.2byte	0x1
 7172 02d2 51       		.byte	0x51
 7173 02d3 0E000000 		.4byte	.LVL27
 7174 02d7 94000000 		.4byte	.LFE42
 7175 02db 0400     		.2byte	0x4
 7176 02dd F3       		.byte	0xf3
 7177 02de 01       		.uleb128 0x1
 7178 02df 51       		.byte	0x51
 7179 02e0 9F       		.byte	0x9f
 7180 02e1 00000000 		.4byte	0
 7181 02e5 00000000 		.4byte	0
 7182              	.LLST20:
 7183 02e9 00000000 		.4byte	.LVL26
 7184 02ed 10000000 		.4byte	.LVL28
 7185 02f1 0100     		.2byte	0x1
 7186 02f3 52       		.byte	0x52
 7187 02f4 10000000 		.4byte	.LVL28
 7188 02f8 94000000 		.4byte	.LFE42
 7189 02fc 0200     		.2byte	0x2
 7190 02fe 91       		.byte	0x91
 7191 02ff 64       		.sleb128 -28
 7192 0300 00000000 		.4byte	0
 7193 0304 00000000 		.4byte	0
 7194              	.LLST21:
 7195 0308 00000000 		.4byte	.LVL26
 7196 030c 15000000 		.4byte	.LVL30-1
 7197 0310 0100     		.2byte	0x1
 7198 0312 53       		.byte	0x53
 7199 0313 15000000 		.4byte	.LVL30-1
 7200 0317 94000000 		.4byte	.LFE42
 7201 031b 0400     		.2byte	0x4
 7202 031d F3       		.byte	0xf3
 7203 031e 01       		.uleb128 0x1
 7204 031f 53       		.byte	0x53
 7205 0320 9F       		.byte	0x9f
 7206 0321 00000000 		.4byte	0
 7207 0325 00000000 		.4byte	0
 7208              	.LLST22:
 7209 0329 00000000 		.4byte	.LFB43
 7210 032d 02000000 		.4byte	.LCFI9
 7211 0331 0200     		.2byte	0x2
 7212 0333 7D       		.byte	0x7d
 7213 0334 00       		.sleb128 0
 7214 0335 02000000 		.4byte	.LCFI9
 7215 0339 10000000 		.4byte	.LFE43
 7216 033d 0200     		.2byte	0x2
 7217 033f 7D       		.byte	0x7d
 7218 0340 08       		.sleb128 8
 7219 0341 00000000 		.4byte	0
 7220 0345 00000000 		.4byte	0
 7221              	.LLST23:
 7222 0349 00000000 		.4byte	.LFB44
 7223 034d 02000000 		.4byte	.LCFI10
 7224 0351 0200     		.2byte	0x2
ARM GAS  C:\Users\ZHANGM~1\AppData\Local\Temp\ccBCEiox.s 			page 154


 7225 0353 7D       		.byte	0x7d
 7226 0354 00       		.sleb128 0
 7227 0355 02000000 		.4byte	.LCFI10
 7228 0359 24000000 		.4byte	.LFE44
 7229 035d 0200     		.2byte	0x2
 7230 035f 7D       		.byte	0x7d
 7231 0360 10       		.sleb128 16
 7232 0361 00000000 		.4byte	0
 7233 0365 00000000 		.4byte	0
 7234              	.LLST24:
 7235 0369 00000000 		.4byte	.LFB45
 7236 036d 02000000 		.4byte	.LCFI11
 7237 0371 0200     		.2byte	0x2
 7238 0373 7D       		.byte	0x7d
 7239 0374 00       		.sleb128 0
 7240 0375 02000000 		.4byte	.LCFI11
 7241 0379 60000000 		.4byte	.LFE45
 7242 037d 0200     		.2byte	0x2
 7243 037f 7D       		.byte	0x7d
 7244 0380 18       		.sleb128 24
 7245 0381 00000000 		.4byte	0
 7246 0385 00000000 		.4byte	0
 7247              	.LLST25:
 7248 0389 00000000 		.4byte	.LFB46
 7249 038d 02000000 		.4byte	.LCFI12
 7250 0391 0200     		.2byte	0x2
 7251 0393 7D       		.byte	0x7d
 7252 0394 00       		.sleb128 0
 7253 0395 02000000 		.4byte	.LCFI12
 7254 0399 2E000000 		.4byte	.LFE46
 7255 039d 0200     		.2byte	0x2
 7256 039f 7D       		.byte	0x7d
 7257 03a0 10       		.sleb128 16
 7258 03a1 00000000 		.4byte	0
 7259 03a5 00000000 		.4byte	0
 7260              	.LLST26:
 7261 03a9 00000000 		.4byte	.LFB47
 7262 03ad 02000000 		.4byte	.LCFI13
 7263 03b1 0200     		.2byte	0x2
 7264 03b3 7D       		.byte	0x7d
 7265 03b4 00       		.sleb128 0
 7266 03b5 02000000 		.4byte	.LCFI13
 7267 03b9 06000000 		.4byte	.LCFI14
 7268 03bd 0200     		.2byte	0x2
 7269 03bf 7D       		.byte	0x7d
 7270 03c0 08       		.sleb128 8
 7271 03c1 06000000 		.4byte	.LCFI14
 7272 03c5 38000000 		.4byte	.LFE47
 7273 03c9 0200     		.2byte	0x2
 7274 03cb 7D       		.byte	0x7d
 7275 03cc 20       		.sleb128 32
 7276 03cd 00000000 		.4byte	0
 7277 03d1 00000000 		.4byte	0
 7278              	.LLST27:
 7279 03d5 00000000 		.4byte	.LFB48
 7280 03d9 02000000 		.4byte	.LCFI15
 7281 03dd 0200     		.2byte	0x2
ARM GAS  C:\Users\ZHANGM~1\AppData\Local\Temp\ccBCEiox.s 			page 155


 7282 03df 7D       		.byte	0x7d
 7283 03e0 00       		.sleb128 0
 7284 03e1 02000000 		.4byte	.LCFI15
 7285 03e5 3A000000 		.4byte	.LFE48
 7286 03e9 0200     		.2byte	0x2
 7287 03eb 7D       		.byte	0x7d
 7288 03ec 18       		.sleb128 24
 7289 03ed 00000000 		.4byte	0
 7290 03f1 00000000 		.4byte	0
 7291              	.LLST28:
 7292 03f5 00000000 		.4byte	.LFB49
 7293 03f9 02000000 		.4byte	.LCFI16
 7294 03fd 0200     		.2byte	0x2
 7295 03ff 7D       		.byte	0x7d
 7296 0400 00       		.sleb128 0
 7297 0401 02000000 		.4byte	.LCFI16
 7298 0405 1C000000 		.4byte	.LFE49
 7299 0409 0200     		.2byte	0x2
 7300 040b 7D       		.byte	0x7d
 7301 040c 10       		.sleb128 16
 7302 040d 00000000 		.4byte	0
 7303 0411 00000000 		.4byte	0
 7304              	.LLST29:
 7305 0415 00000000 		.4byte	.LFB50
 7306 0419 02000000 		.4byte	.LCFI17
 7307 041d 0200     		.2byte	0x2
 7308 041f 7D       		.byte	0x7d
 7309 0420 00       		.sleb128 0
 7310 0421 02000000 		.4byte	.LCFI17
 7311 0425 20000000 		.4byte	.LFE50
 7312 0429 0200     		.2byte	0x2
 7313 042b 7D       		.byte	0x7d
 7314 042c 10       		.sleb128 16
 7315 042d 00000000 		.4byte	0
 7316 0431 00000000 		.4byte	0
 7317              	.LLST30:
 7318 0435 00000000 		.4byte	.LFB51
 7319 0439 02000000 		.4byte	.LCFI18
 7320 043d 0200     		.2byte	0x2
 7321 043f 7D       		.byte	0x7d
 7322 0440 00       		.sleb128 0
 7323 0441 02000000 		.4byte	.LCFI18
 7324 0445 16000000 		.4byte	.LFE51
 7325 0449 0200     		.2byte	0x2
 7326 044b 7D       		.byte	0x7d
 7327 044c 10       		.sleb128 16
 7328 044d 00000000 		.4byte	0
 7329 0451 00000000 		.4byte	0
 7330              	.LLST31:
 7331 0455 00000000 		.4byte	.LFB52
 7332 0459 02000000 		.4byte	.LCFI19
 7333 045d 0200     		.2byte	0x2
 7334 045f 7D       		.byte	0x7d
 7335 0460 00       		.sleb128 0
 7336 0461 02000000 		.4byte	.LCFI19
 7337 0465 16000000 		.4byte	.LFE52
 7338 0469 0200     		.2byte	0x2
ARM GAS  C:\Users\ZHANGM~1\AppData\Local\Temp\ccBCEiox.s 			page 156


 7339 046b 7D       		.byte	0x7d
 7340 046c 10       		.sleb128 16
 7341 046d 00000000 		.4byte	0
 7342 0471 00000000 		.4byte	0
 7343              	.LLST32:
 7344 0475 00000000 		.4byte	.LFB53
 7345 0479 02000000 		.4byte	.LCFI20
 7346 047d 0200     		.2byte	0x2
 7347 047f 7D       		.byte	0x7d
 7348 0480 00       		.sleb128 0
 7349 0481 02000000 		.4byte	.LCFI20
 7350 0485 16000000 		.4byte	.LFE53
 7351 0489 0200     		.2byte	0x2
 7352 048b 7D       		.byte	0x7d
 7353 048c 10       		.sleb128 16
 7354 048d 00000000 		.4byte	0
 7355 0491 00000000 		.4byte	0
 7356              	.LLST33:
 7357 0495 00000000 		.4byte	.LFB54
 7358 0499 02000000 		.4byte	.LCFI21
 7359 049d 0200     		.2byte	0x2
 7360 049f 7D       		.byte	0x7d
 7361 04a0 00       		.sleb128 0
 7362 04a1 02000000 		.4byte	.LCFI21
 7363 04a5 14000000 		.4byte	.LFE54
 7364 04a9 0200     		.2byte	0x2
 7365 04ab 7D       		.byte	0x7d
 7366 04ac 08       		.sleb128 8
 7367 04ad 00000000 		.4byte	0
 7368 04b1 00000000 		.4byte	0
 7369              	.LLST34:
 7370 04b5 00000000 		.4byte	.LFB55
 7371 04b9 02000000 		.4byte	.LCFI22
 7372 04bd 0200     		.2byte	0x2
 7373 04bf 7D       		.byte	0x7d
 7374 04c0 00       		.sleb128 0
 7375 04c1 02000000 		.4byte	.LCFI22
 7376 04c5 1C000000 		.4byte	.LFE55
 7377 04c9 0200     		.2byte	0x2
 7378 04cb 7D       		.byte	0x7d
 7379 04cc 10       		.sleb128 16
 7380 04cd 00000000 		.4byte	0
 7381 04d1 00000000 		.4byte	0
 7382              	.LLST35:
 7383 04d5 00000000 		.4byte	.LFB56
 7384 04d9 02000000 		.4byte	.LCFI23
 7385 04dd 0200     		.2byte	0x2
 7386 04df 7D       		.byte	0x7d
 7387 04e0 00       		.sleb128 0
 7388 04e1 02000000 		.4byte	.LCFI23
 7389 04e5 5C000000 		.4byte	.LFE56
 7390 04e9 0200     		.2byte	0x2
 7391 04eb 7D       		.byte	0x7d
 7392 04ec 18       		.sleb128 24
 7393 04ed 00000000 		.4byte	0
 7394 04f1 00000000 		.4byte	0
 7395              	.LLST36:
ARM GAS  C:\Users\ZHANGM~1\AppData\Local\Temp\ccBCEiox.s 			page 157


 7396 04f5 00000000 		.4byte	.LFB57
 7397 04f9 02000000 		.4byte	.LCFI24
 7398 04fd 0200     		.2byte	0x2
 7399 04ff 7D       		.byte	0x7d
 7400 0500 00       		.sleb128 0
 7401 0501 02000000 		.4byte	.LCFI24
 7402 0505 30000000 		.4byte	.LFE57
 7403 0509 0200     		.2byte	0x2
 7404 050b 7D       		.byte	0x7d
 7405 050c 10       		.sleb128 16
 7406 050d 00000000 		.4byte	0
 7407 0511 00000000 		.4byte	0
 7408              	.LLST37:
 7409 0515 00000000 		.4byte	.LFB58
 7410 0519 02000000 		.4byte	.LCFI25
 7411 051d 0200     		.2byte	0x2
 7412 051f 7D       		.byte	0x7d
 7413 0520 00       		.sleb128 0
 7414 0521 02000000 		.4byte	.LCFI25
 7415 0525 38000000 		.4byte	.LFE58
 7416 0529 0200     		.2byte	0x2
 7417 052b 7D       		.byte	0x7d
 7418 052c 18       		.sleb128 24
 7419 052d 00000000 		.4byte	0
 7420 0531 00000000 		.4byte	0
 7421              	.LLST38:
 7422 0535 00000000 		.4byte	.LFB59
 7423 0539 02000000 		.4byte	.LCFI26
 7424 053d 0200     		.2byte	0x2
 7425 053f 7D       		.byte	0x7d
 7426 0540 00       		.sleb128 0
 7427 0541 02000000 		.4byte	.LCFI26
 7428 0545 14000000 		.4byte	.LFE59
 7429 0549 0200     		.2byte	0x2
 7430 054b 7D       		.byte	0x7d
 7431 054c 08       		.sleb128 8
 7432 054d 00000000 		.4byte	0
 7433 0551 00000000 		.4byte	0
 7434              	.LLST39:
 7435 0555 00000000 		.4byte	.LFB60
 7436 0559 02000000 		.4byte	.LCFI27
 7437 055d 0200     		.2byte	0x2
 7438 055f 7D       		.byte	0x7d
 7439 0560 00       		.sleb128 0
 7440 0561 02000000 		.4byte	.LCFI27
 7441 0565 14000000 		.4byte	.LFE60
 7442 0569 0200     		.2byte	0x2
 7443 056b 7D       		.byte	0x7d
 7444 056c 08       		.sleb128 8
 7445 056d 00000000 		.4byte	0
 7446 0571 00000000 		.4byte	0
 7447              	.LLST40:
 7448 0575 00000000 		.4byte	.LFB61
 7449 0579 02000000 		.4byte	.LCFI28
 7450 057d 0200     		.2byte	0x2
 7451 057f 7D       		.byte	0x7d
 7452 0580 00       		.sleb128 0
ARM GAS  C:\Users\ZHANGM~1\AppData\Local\Temp\ccBCEiox.s 			page 158


 7453 0581 02000000 		.4byte	.LCFI28
 7454 0585 14000000 		.4byte	.LFE61
 7455 0589 0200     		.2byte	0x2
 7456 058b 7D       		.byte	0x7d
 7457 058c 08       		.sleb128 8
 7458 058d 00000000 		.4byte	0
 7459 0591 00000000 		.4byte	0
 7460              	.LLST41:
 7461 0595 00000000 		.4byte	.LFB62
 7462 0599 02000000 		.4byte	.LCFI29
 7463 059d 0200     		.2byte	0x2
 7464 059f 7D       		.byte	0x7d
 7465 05a0 00       		.sleb128 0
 7466 05a1 02000000 		.4byte	.LCFI29
 7467 05a5 14000000 		.4byte	.LFE62
 7468 05a9 0200     		.2byte	0x2
 7469 05ab 7D       		.byte	0x7d
 7470 05ac 08       		.sleb128 8
 7471 05ad 00000000 		.4byte	0
 7472 05b1 00000000 		.4byte	0
 7473              	.LLST42:
 7474 05b5 00000000 		.4byte	.LFB63
 7475 05b9 02000000 		.4byte	.LCFI30
 7476 05bd 0200     		.2byte	0x2
 7477 05bf 7D       		.byte	0x7d
 7478 05c0 00       		.sleb128 0
 7479 05c1 02000000 		.4byte	.LCFI30
 7480 05c5 14000000 		.4byte	.LFE63
 7481 05c9 0200     		.2byte	0x2
 7482 05cb 7D       		.byte	0x7d
 7483 05cc 08       		.sleb128 8
 7484 05cd 00000000 		.4byte	0
 7485 05d1 00000000 		.4byte	0
 7486              	.LLST43:
 7487 05d5 00000000 		.4byte	.LFB64
 7488 05d9 02000000 		.4byte	.LCFI31
 7489 05dd 0200     		.2byte	0x2
 7490 05df 7D       		.byte	0x7d
 7491 05e0 00       		.sleb128 0
 7492 05e1 02000000 		.4byte	.LCFI31
 7493 05e5 14000000 		.4byte	.LFE64
 7494 05e9 0200     		.2byte	0x2
 7495 05eb 7D       		.byte	0x7d
 7496 05ec 08       		.sleb128 8
 7497 05ed 00000000 		.4byte	0
 7498 05f1 00000000 		.4byte	0
 7499              	.LLST44:
 7500 05f5 00000000 		.4byte	.LFB65
 7501 05f9 02000000 		.4byte	.LCFI32
 7502 05fd 0200     		.2byte	0x2
 7503 05ff 7D       		.byte	0x7d
 7504 0600 00       		.sleb128 0
 7505 0601 02000000 		.4byte	.LCFI32
 7506 0605 14000000 		.4byte	.LFE65
 7507 0609 0200     		.2byte	0x2
 7508 060b 7D       		.byte	0x7d
 7509 060c 08       		.sleb128 8
ARM GAS  C:\Users\ZHANGM~1\AppData\Local\Temp\ccBCEiox.s 			page 159


 7510 060d 00000000 		.4byte	0
 7511 0611 00000000 		.4byte	0
 7512              	.LLST45:
 7513 0615 00000000 		.4byte	.LFB66
 7514 0619 02000000 		.4byte	.LCFI33
 7515 061d 0200     		.2byte	0x2
 7516 061f 7D       		.byte	0x7d
 7517 0620 00       		.sleb128 0
 7518 0621 02000000 		.4byte	.LCFI33
 7519 0625 14000000 		.4byte	.LFE66
 7520 0629 0200     		.2byte	0x2
 7521 062b 7D       		.byte	0x7d
 7522 062c 08       		.sleb128 8
 7523 062d 00000000 		.4byte	0
 7524 0631 00000000 		.4byte	0
 7525              	.LLST46:
 7526 0635 00000000 		.4byte	.LFB67
 7527 0639 02000000 		.4byte	.LCFI34
 7528 063d 0200     		.2byte	0x2
 7529 063f 7D       		.byte	0x7d
 7530 0640 00       		.sleb128 0
 7531 0641 02000000 		.4byte	.LCFI34
 7532 0645 14000000 		.4byte	.LFE67
 7533 0649 0200     		.2byte	0x2
 7534 064b 7D       		.byte	0x7d
 7535 064c 08       		.sleb128 8
 7536 064d 00000000 		.4byte	0
 7537 0651 00000000 		.4byte	0
 7538              	.LLST47:
 7539 0655 00000000 		.4byte	.LFB68
 7540 0659 02000000 		.4byte	.LCFI35
 7541 065d 0200     		.2byte	0x2
 7542 065f 7D       		.byte	0x7d
 7543 0660 00       		.sleb128 0
 7544 0661 02000000 		.4byte	.LCFI35
 7545 0665 20000000 		.4byte	.LFE68
 7546 0669 0200     		.2byte	0x2
 7547 066b 7D       		.byte	0x7d
 7548 066c 08       		.sleb128 8
 7549 066d 00000000 		.4byte	0
 7550 0671 00000000 		.4byte	0
 7551              	.LLST48:
 7552 0675 00000000 		.4byte	.LFB69
 7553 0679 02000000 		.4byte	.LCFI36
 7554 067d 0200     		.2byte	0x2
 7555 067f 7D       		.byte	0x7d
 7556 0680 00       		.sleb128 0
 7557 0681 02000000 		.4byte	.LCFI36
 7558 0685 20000000 		.4byte	.LFE69
 7559 0689 0200     		.2byte	0x2
 7560 068b 7D       		.byte	0x7d
 7561 068c 08       		.sleb128 8
 7562 068d 00000000 		.4byte	0
 7563 0691 00000000 		.4byte	0
 7564              	.LLST49:
 7565 0695 00000000 		.4byte	.LFB70
 7566 0699 02000000 		.4byte	.LCFI37
ARM GAS  C:\Users\ZHANGM~1\AppData\Local\Temp\ccBCEiox.s 			page 160


 7567 069d 0200     		.2byte	0x2
 7568 069f 7D       		.byte	0x7d
 7569 06a0 00       		.sleb128 0
 7570 06a1 02000000 		.4byte	.LCFI37
 7571 06a5 24000000 		.4byte	.LFE70
 7572 06a9 0200     		.2byte	0x2
 7573 06ab 7D       		.byte	0x7d
 7574 06ac 04       		.sleb128 4
 7575 06ad 00000000 		.4byte	0
 7576 06b1 00000000 		.4byte	0
 7577              	.LLST50:
 7578 06b5 00000000 		.4byte	.LFB71
 7579 06b9 02000000 		.4byte	.LCFI38
 7580 06bd 0200     		.2byte	0x2
 7581 06bf 7D       		.byte	0x7d
 7582 06c0 00       		.sleb128 0
 7583 06c1 02000000 		.4byte	.LCFI38
 7584 06c5 F4010000 		.4byte	.LFE71
 7585 06c9 0200     		.2byte	0x2
 7586 06cb 7D       		.byte	0x7d
 7587 06cc 10       		.sleb128 16
 7588 06cd 00000000 		.4byte	0
 7589 06d1 00000000 		.4byte	0
 7590              	.LLST51:
 7591 06d5 50000000 		.4byte	.LVL64
 7592 06d9 56000000 		.4byte	.LVL65
 7593 06dd 0100     		.2byte	0x1
 7594 06df 51       		.byte	0x51
 7595 06e0 5C000000 		.4byte	.LVL66
 7596 06e4 60000000 		.4byte	.LVL67
 7597 06e8 0200     		.2byte	0x2
 7598 06ea 30       		.byte	0x30
 7599 06eb 9F       		.byte	0x9f
 7600 06ec 60000000 		.4byte	.LVL67
 7601 06f0 62000000 		.4byte	.LVL68
 7602 06f4 0200     		.2byte	0x2
 7603 06f6 31       		.byte	0x31
 7604 06f7 9F       		.byte	0x9f
 7605 06f8 62000000 		.4byte	.LVL68
 7606 06fc 64000000 		.4byte	.LVL69
 7607 0700 0200     		.2byte	0x2
 7608 0702 32       		.byte	0x32
 7609 0703 9F       		.byte	0x9f
 7610 0704 64000000 		.4byte	.LVL69
 7611 0708 66000000 		.4byte	.LVL70
 7612 070c 0200     		.2byte	0x2
 7613 070e 33       		.byte	0x33
 7614 070f 9F       		.byte	0x9f
 7615 0710 66000000 		.4byte	.LVL70
 7616 0714 68000000 		.4byte	.LVL71
 7617 0718 0200     		.2byte	0x2
 7618 071a 34       		.byte	0x34
 7619 071b 9F       		.byte	0x9f
 7620 071c 68000000 		.4byte	.LVL71
 7621 0720 6A000000 		.4byte	.LVL72
 7622 0724 0200     		.2byte	0x2
 7623 0726 35       		.byte	0x35
ARM GAS  C:\Users\ZHANGM~1\AppData\Local\Temp\ccBCEiox.s 			page 161


 7624 0727 9F       		.byte	0x9f
 7625 0728 6A000000 		.4byte	.LVL72
 7626 072c 6C000000 		.4byte	.LVL73
 7627 0730 0200     		.2byte	0x2
 7628 0732 36       		.byte	0x36
 7629 0733 9F       		.byte	0x9f
 7630 0734 00000000 		.4byte	0
 7631 0738 00000000 		.4byte	0
 7632              	.LLST52:
 7633 073c 00000000 		.4byte	.LFB72
 7634 0740 02000000 		.4byte	.LCFI39
 7635 0744 0200     		.2byte	0x2
 7636 0746 7D       		.byte	0x7d
 7637 0747 00       		.sleb128 0
 7638 0748 02000000 		.4byte	.LCFI39
 7639 074c 1C000000 		.4byte	.LFE72
 7640 0750 0200     		.2byte	0x2
 7641 0752 7D       		.byte	0x7d
 7642 0753 04       		.sleb128 4
 7643 0754 00000000 		.4byte	0
 7644 0758 00000000 		.4byte	0
 7645              	.LLST53:
 7646 075c 00000000 		.4byte	.LVL98
 7647 0760 0A000000 		.4byte	.LVL99
 7648 0764 0100     		.2byte	0x1
 7649 0766 50       		.byte	0x50
 7650 0767 0A000000 		.4byte	.LVL99
 7651 076b 0E000000 		.4byte	.LVL100
 7652 076f 0400     		.2byte	0x4
 7653 0771 F3       		.byte	0xf3
 7654 0772 01       		.uleb128 0x1
 7655 0773 50       		.byte	0x50
 7656 0774 9F       		.byte	0x9f
 7657 0775 0E000000 		.4byte	.LVL100
 7658 0779 10000000 		.4byte	.LVL101
 7659 077d 0100     		.2byte	0x1
 7660 077f 50       		.byte	0x50
 7661 0780 10000000 		.4byte	.LVL101
 7662 0784 1C000000 		.4byte	.LFE72
 7663 0788 0400     		.2byte	0x4
 7664 078a F3       		.byte	0xf3
 7665 078b 01       		.uleb128 0x1
 7666 078c 50       		.byte	0x50
 7667 078d 9F       		.byte	0x9f
 7668 078e 00000000 		.4byte	0
 7669 0792 00000000 		.4byte	0
 7670              	.LLST54:
 7671 0796 00000000 		.4byte	.LFB73
 7672 079a 02000000 		.4byte	.LCFI40
 7673 079e 0200     		.2byte	0x2
 7674 07a0 7D       		.byte	0x7d
 7675 07a1 00       		.sleb128 0
 7676 07a2 02000000 		.4byte	.LCFI40
 7677 07a6 F8000000 		.4byte	.LFE73
 7678 07aa 0200     		.2byte	0x2
 7679 07ac 7D       		.byte	0x7d
 7680 07ad 10       		.sleb128 16
ARM GAS  C:\Users\ZHANGM~1\AppData\Local\Temp\ccBCEiox.s 			page 162


 7681 07ae 00000000 		.4byte	0
 7682 07b2 00000000 		.4byte	0
 7683              	.LLST55:
 7684 07b6 00000000 		.4byte	.LFB74
 7685 07ba 02000000 		.4byte	.LCFI41
 7686 07be 0200     		.2byte	0x2
 7687 07c0 7D       		.byte	0x7d
 7688 07c1 00       		.sleb128 0
 7689 07c2 02000000 		.4byte	.LCFI41
 7690 07c6 58000000 		.4byte	.LFE74
 7691 07ca 0200     		.2byte	0x2
 7692 07cc 7D       		.byte	0x7d
 7693 07cd 10       		.sleb128 16
 7694 07ce 00000000 		.4byte	0
 7695 07d2 00000000 		.4byte	0
 7696              	.LLST56:
 7697 07d6 00000000 		.4byte	.LFB75
 7698 07da 02000000 		.4byte	.LCFI42
 7699 07de 0200     		.2byte	0x2
 7700 07e0 7D       		.byte	0x7d
 7701 07e1 00       		.sleb128 0
 7702 07e2 02000000 		.4byte	.LCFI42
 7703 07e6 FC000000 		.4byte	.LFE75
 7704 07ea 0200     		.2byte	0x2
 7705 07ec 7D       		.byte	0x7d
 7706 07ed 10       		.sleb128 16
 7707 07ee 00000000 		.4byte	0
 7708 07f2 00000000 		.4byte	0
 7709              	.LLST57:
 7710 07f6 00000000 		.4byte	.LFB76
 7711 07fa 02000000 		.4byte	.LCFI43
 7712 07fe 0200     		.2byte	0x2
 7713 0800 7D       		.byte	0x7d
 7714 0801 00       		.sleb128 0
 7715 0802 02000000 		.4byte	.LCFI43
 7716 0806 D4000000 		.4byte	.LFE76
 7717 080a 0200     		.2byte	0x2
 7718 080c 7D       		.byte	0x7d
 7719 080d 18       		.sleb128 24
 7720 080e 00000000 		.4byte	0
 7721 0812 00000000 		.4byte	0
 7722              	.LLST58:
 7723 0816 00000000 		.4byte	.LFB77
 7724 081a 02000000 		.4byte	.LCFI44
 7725 081e 0200     		.2byte	0x2
 7726 0820 7D       		.byte	0x7d
 7727 0821 00       		.sleb128 0
 7728 0822 02000000 		.4byte	.LCFI44
 7729 0826 24000000 		.4byte	.LFE77
 7730 082a 0200     		.2byte	0x2
 7731 082c 7D       		.byte	0x7d
 7732 082d 08       		.sleb128 8
 7733 082e 00000000 		.4byte	0
 7734 0832 00000000 		.4byte	0
 7735              		.section	.debug_aranges,"",%progbits
 7736 0000 7C010000 		.4byte	0x17c
 7737 0004 0200     		.2byte	0x2
ARM GAS  C:\Users\ZHANGM~1\AppData\Local\Temp\ccBCEiox.s 			page 163


 7738 0006 00000000 		.4byte	.Ldebug_info0
 7739 000a 04       		.byte	0x4
 7740 000b 00       		.byte	0
 7741 000c 0000     		.2byte	0
 7742 000e 0000     		.2byte	0
 7743 0010 00000000 		.4byte	.LFB33
 7744 0014 24000000 		.4byte	.LFE33-.LFB33
 7745 0018 00000000 		.4byte	.LFB34
 7746 001c 24000000 		.4byte	.LFE34-.LFB34
 7747 0020 00000000 		.4byte	.LFB35
 7748 0024 08010000 		.4byte	.LFE35-.LFB35
 7749 0028 00000000 		.4byte	.LFB36
 7750 002c 1C010000 		.4byte	.LFE36-.LFB36
 7751 0030 00000000 		.4byte	.LFB37
 7752 0034 30000000 		.4byte	.LFE37-.LFB37
 7753 0038 00000000 		.4byte	.LFB38
 7754 003c 1C000000 		.4byte	.LFE38-.LFB38
 7755 0040 00000000 		.4byte	.LFB39
 7756 0044 1C000000 		.4byte	.LFE39-.LFB39
 7757 0048 00000000 		.4byte	.LFB40
 7758 004c 48000000 		.4byte	.LFE40-.LFB40
 7759 0050 00000000 		.4byte	.LFB41
 7760 0054 02000000 		.4byte	.LFE41-.LFB41
 7761 0058 00000000 		.4byte	.LFB42
 7762 005c 94000000 		.4byte	.LFE42-.LFB42
 7763 0060 00000000 		.4byte	.LFB43
 7764 0064 10000000 		.4byte	.LFE43-.LFB43
 7765 0068 00000000 		.4byte	.LFB44
 7766 006c 24000000 		.4byte	.LFE44-.LFB44
 7767 0070 00000000 		.4byte	.LFB45
 7768 0074 60000000 		.4byte	.LFE45-.LFB45
 7769 0078 00000000 		.4byte	.LFB46
 7770 007c 2E000000 		.4byte	.LFE46-.LFB46
 7771 0080 00000000 		.4byte	.LFB47
 7772 0084 38000000 		.4byte	.LFE47-.LFB47
 7773 0088 00000000 		.4byte	.LFB48
 7774 008c 3A000000 		.4byte	.LFE48-.LFB48
 7775 0090 00000000 		.4byte	.LFB49
 7776 0094 1C000000 		.4byte	.LFE49-.LFB49
 7777 0098 00000000 		.4byte	.LFB50
 7778 009c 20000000 		.4byte	.LFE50-.LFB50
 7779 00a0 00000000 		.4byte	.LFB51
 7780 00a4 16000000 		.4byte	.LFE51-.LFB51
 7781 00a8 00000000 		.4byte	.LFB52
 7782 00ac 16000000 		.4byte	.LFE52-.LFB52
 7783 00b0 00000000 		.4byte	.LFB53
 7784 00b4 16000000 		.4byte	.LFE53-.LFB53
 7785 00b8 00000000 		.4byte	.LFB54
 7786 00bc 14000000 		.4byte	.LFE54-.LFB54
 7787 00c0 00000000 		.4byte	.LFB55
 7788 00c4 1C000000 		.4byte	.LFE55-.LFB55
 7789 00c8 00000000 		.4byte	.LFB56
 7790 00cc 5C000000 		.4byte	.LFE56-.LFB56
 7791 00d0 00000000 		.4byte	.LFB57
 7792 00d4 30000000 		.4byte	.LFE57-.LFB57
 7793 00d8 00000000 		.4byte	.LFB58
 7794 00dc 38000000 		.4byte	.LFE58-.LFB58
ARM GAS  C:\Users\ZHANGM~1\AppData\Local\Temp\ccBCEiox.s 			page 164


 7795 00e0 00000000 		.4byte	.LFB59
 7796 00e4 14000000 		.4byte	.LFE59-.LFB59
 7797 00e8 00000000 		.4byte	.LFB60
 7798 00ec 14000000 		.4byte	.LFE60-.LFB60
 7799 00f0 00000000 		.4byte	.LFB61
 7800 00f4 14000000 		.4byte	.LFE61-.LFB61
 7801 00f8 00000000 		.4byte	.LFB62
 7802 00fc 14000000 		.4byte	.LFE62-.LFB62
 7803 0100 00000000 		.4byte	.LFB63
 7804 0104 14000000 		.4byte	.LFE63-.LFB63
 7805 0108 00000000 		.4byte	.LFB64
 7806 010c 14000000 		.4byte	.LFE64-.LFB64
 7807 0110 00000000 		.4byte	.LFB65
 7808 0114 14000000 		.4byte	.LFE65-.LFB65
 7809 0118 00000000 		.4byte	.LFB66
 7810 011c 14000000 		.4byte	.LFE66-.LFB66
 7811 0120 00000000 		.4byte	.LFB67
 7812 0124 14000000 		.4byte	.LFE67-.LFB67
 7813 0128 00000000 		.4byte	.LFB68
 7814 012c 20000000 		.4byte	.LFE68-.LFB68
 7815 0130 00000000 		.4byte	.LFB69
 7816 0134 20000000 		.4byte	.LFE69-.LFB69
 7817 0138 00000000 		.4byte	.LFB70
 7818 013c 24000000 		.4byte	.LFE70-.LFB70
 7819 0140 00000000 		.4byte	.LFB71
 7820 0144 F4010000 		.4byte	.LFE71-.LFB71
 7821 0148 00000000 		.4byte	.LFB72
 7822 014c 1C000000 		.4byte	.LFE72-.LFB72
 7823 0150 00000000 		.4byte	.LFB73
 7824 0154 F8000000 		.4byte	.LFE73-.LFB73
 7825 0158 00000000 		.4byte	.LFB74
 7826 015c 58000000 		.4byte	.LFE74-.LFB74
 7827 0160 00000000 		.4byte	.LFB75
 7828 0164 FC000000 		.4byte	.LFE75-.LFB75
 7829 0168 00000000 		.4byte	.LFB76
 7830 016c D4000000 		.4byte	.LFE76-.LFB76
 7831 0170 00000000 		.4byte	.LFB77
 7832 0174 24000000 		.4byte	.LFE77-.LFB77
 7833 0178 00000000 		.4byte	0
 7834 017c 00000000 		.4byte	0
 7835              		.section	.debug_ranges,"",%progbits
 7836              	.Ldebug_ranges0:
 7837 0000 00000000 		.4byte	.LFB33
 7838 0004 24000000 		.4byte	.LFE33
 7839 0008 00000000 		.4byte	.LFB34
 7840 000c 24000000 		.4byte	.LFE34
 7841 0010 00000000 		.4byte	.LFB35
 7842 0014 08010000 		.4byte	.LFE35
 7843 0018 00000000 		.4byte	.LFB36
 7844 001c 1C010000 		.4byte	.LFE36
 7845 0020 00000000 		.4byte	.LFB37
 7846 0024 30000000 		.4byte	.LFE37
 7847 0028 00000000 		.4byte	.LFB38
 7848 002c 1C000000 		.4byte	.LFE38
 7849 0030 00000000 		.4byte	.LFB39
 7850 0034 1C000000 		.4byte	.LFE39
 7851 0038 00000000 		.4byte	.LFB40
ARM GAS  C:\Users\ZHANGM~1\AppData\Local\Temp\ccBCEiox.s 			page 165


 7852 003c 48000000 		.4byte	.LFE40
 7853 0040 00000000 		.4byte	.LFB41
 7854 0044 02000000 		.4byte	.LFE41
 7855 0048 00000000 		.4byte	.LFB42
 7856 004c 94000000 		.4byte	.LFE42
 7857 0050 00000000 		.4byte	.LFB43
 7858 0054 10000000 		.4byte	.LFE43
 7859 0058 00000000 		.4byte	.LFB44
 7860 005c 24000000 		.4byte	.LFE44
 7861 0060 00000000 		.4byte	.LFB45
 7862 0064 60000000 		.4byte	.LFE45
 7863 0068 00000000 		.4byte	.LFB46
 7864 006c 2E000000 		.4byte	.LFE46
 7865 0070 00000000 		.4byte	.LFB47
 7866 0074 38000000 		.4byte	.LFE47
 7867 0078 00000000 		.4byte	.LFB48
 7868 007c 3A000000 		.4byte	.LFE48
 7869 0080 00000000 		.4byte	.LFB49
 7870 0084 1C000000 		.4byte	.LFE49
 7871 0088 00000000 		.4byte	.LFB50
 7872 008c 20000000 		.4byte	.LFE50
 7873 0090 00000000 		.4byte	.LFB51
 7874 0094 16000000 		.4byte	.LFE51
 7875 0098 00000000 		.4byte	.LFB52
 7876 009c 16000000 		.4byte	.LFE52
 7877 00a0 00000000 		.4byte	.LFB53
 7878 00a4 16000000 		.4byte	.LFE53
 7879 00a8 00000000 		.4byte	.LFB54
 7880 00ac 14000000 		.4byte	.LFE54
 7881 00b0 00000000 		.4byte	.LFB55
 7882 00b4 1C000000 		.4byte	.LFE55
 7883 00b8 00000000 		.4byte	.LFB56
 7884 00bc 5C000000 		.4byte	.LFE56
 7885 00c0 00000000 		.4byte	.LFB57
 7886 00c4 30000000 		.4byte	.LFE57
 7887 00c8 00000000 		.4byte	.LFB58
 7888 00cc 38000000 		.4byte	.LFE58
 7889 00d0 00000000 		.4byte	.LFB59
 7890 00d4 14000000 		.4byte	.LFE59
 7891 00d8 00000000 		.4byte	.LFB60
 7892 00dc 14000000 		.4byte	.LFE60
 7893 00e0 00000000 		.4byte	.LFB61
 7894 00e4 14000000 		.4byte	.LFE61
 7895 00e8 00000000 		.4byte	.LFB62
 7896 00ec 14000000 		.4byte	.LFE62
 7897 00f0 00000000 		.4byte	.LFB63
 7898 00f4 14000000 		.4byte	.LFE63
 7899 00f8 00000000 		.4byte	.LFB64
 7900 00fc 14000000 		.4byte	.LFE64
 7901 0100 00000000 		.4byte	.LFB65
 7902 0104 14000000 		.4byte	.LFE65
 7903 0108 00000000 		.4byte	.LFB66
 7904 010c 14000000 		.4byte	.LFE66
 7905 0110 00000000 		.4byte	.LFB67
 7906 0114 14000000 		.4byte	.LFE67
 7907 0118 00000000 		.4byte	.LFB68
 7908 011c 20000000 		.4byte	.LFE68
ARM GAS  C:\Users\ZHANGM~1\AppData\Local\Temp\ccBCEiox.s 			page 166


 7909 0120 00000000 		.4byte	.LFB69
 7910 0124 20000000 		.4byte	.LFE69
 7911 0128 00000000 		.4byte	.LFB70
 7912 012c 24000000 		.4byte	.LFE70
 7913 0130 00000000 		.4byte	.LFB71
 7914 0134 F4010000 		.4byte	.LFE71
 7915 0138 00000000 		.4byte	.LFB72
 7916 013c 1C000000 		.4byte	.LFE72
 7917 0140 00000000 		.4byte	.LFB73
 7918 0144 F8000000 		.4byte	.LFE73
 7919 0148 00000000 		.4byte	.LFB74
 7920 014c 58000000 		.4byte	.LFE74
 7921 0150 00000000 		.4byte	.LFB75
 7922 0154 FC000000 		.4byte	.LFE75
 7923 0158 00000000 		.4byte	.LFB76
 7924 015c D4000000 		.4byte	.LFE76
 7925 0160 00000000 		.4byte	.LFB77
 7926 0164 24000000 		.4byte	.LFE77
 7927 0168 00000000 		.4byte	0
 7928 016c 00000000 		.4byte	0
 7929              		.section	.debug_line,"",%progbits
 7930              	.Ldebug_line0:
 7931 0000 16060000 		.section	.debug_str,"MS",%progbits,1
 7931      02007B00 
 7931      00000201 
 7931      FB0E0D00 
 7931      01010101 
 7932              	.LASF116:
 7933 0000 4C6F6164 		.ascii	"Load_Error\000"
 7933      5F457272 
 7933      6F7200
 7934              	.LASF83:
 7935 000b 53656E64 		.ascii	"SendDataToWifi\000"
 7935      44617461 
 7935      546F5769 
 7935      666900
 7936              	.LASF60:
 7937 001a 67635265 		.ascii	"gcReceComm1OK\000"
 7937      6365436F 
 7937      6D6D314F 
 7937      4B00
 7938              	.LASF28:
 7939 0028 77696669 		.ascii	"wifilinksta\000"
 7939      6C696E6B 
 7939      73746100 
 7940              	.LASF37:
 7941 0034 73646279 		.ascii	"sdby\000"
 7941      00
 7942              	.LASF49:
 7943 0039 776F726B 		.ascii	"working\000"
 7943      696E6700 
 7944              	.LASF171:
 7945 0041 2E5C7561 		.ascii	".\\uart_wifi.c\000"
 7945      72745F77 
 7945      6966692E 
 7945      6300
 7946              	.LASF86:
ARM GAS  C:\Users\ZHANGM~1\AppData\Local\Temp\ccBCEiox.s 			page 167


 7947 004f 44617461 		.ascii	"DataBuf\000"
 7947      42756600 
 7948              	.LASF102:
 7949 0057 486F7374 		.ascii	"Host_State_Data\000"
 7949      5F537461 
 7949      74655F44 
 7949      61746100 
 7950              	.LASF93:
 7951 0067 4170705F 		.ascii	"App_Error_Data\000"
 7951      4572726F 
 7951      725F4461 
 7951      746100
 7952              	.LASF66:
 7953 0076 666C6167 		.ascii	"flag_rev_end\000"
 7953      5F726576 
 7953      5F656E64 
 7953      00
 7954              	.LASF103:
 7955 0083 486F7374 		.ascii	"Host_Filter_Changed_Data\000"
 7955      5F46696C 
 7955      7465725F 
 7955      4368616E 
 7955      6765645F 
 7956              	.LASF143:
 7957 009c 41636B5F 		.ascii	"Ack_Timer\000"
 7957      54696D65 
 7957      7200
 7958              	.LASF63:
 7959 00a6 75384532 		.ascii	"u8E2Set\000"
 7959      53657400 
 7960              	.LASF8:
 7961 00ae 756E7369 		.ascii	"unsigned int\000"
 7961      676E6564 
 7961      20696E74 
 7961      00
 7962              	.LASF105:
 7963 00bb 486F7374 		.ascii	"Host_E0_Data\000"
 7963      5F45305F 
 7963      44617461 
 7963      00
 7964              	.LASF114:
 7965 00c8 4C6F6164 		.ascii	"Load_Command\000"
 7965      5F436F6D 
 7965      6D616E64 
 7965      00
 7966              	.LASF101:
 7967 00d5 4D63755F 		.ascii	"Mcu_Firmware_Update\000"
 7967      4669726D 
 7967      77617265 
 7967      5F557064 
 7967      61746500 
 7968              	.LASF21:
 7969 00e9 71757975 		.ascii	"quyuxzsta\000"
 7969      787A7374 
 7969      6100
 7970              	.LASF48:
 7971 00f3 64697961 		.ascii	"diya_flag\000"
ARM GAS  C:\Users\ZHANGM~1\AppData\Local\Temp\ccBCEiox.s 			page 168


 7971      5F666C61 
 7971      6700
 7972              	.LASF120:
 7973 00fd 4C6F6164 		.ascii	"Load_Wifi_State\000"
 7973      5F576966 
 7973      695F5374 
 7973      61746500 
 7974              	.LASF147:
 7975 010d 536D6172 		.ascii	"SmarkLink_State\000"
 7975      6B4C696E 
 7975      6B5F5374 
 7975      61746500 
 7976              	.LASF20:
 7977 011d 6A697368 		.ascii	"jishi\000"
 7977      6900
 7978              	.LASF17:
 7979 0123 6572726F 		.ascii	"error\000"
 7979      7200
 7980              	.LASF96:
 7981 0129 4170705F 		.ascii	"App_Search_Filter_Manage_Num\000"
 7981      53656172 
 7981      63685F46 
 7981      696C7465 
 7981      725F4D61 
 7982              	.LASF46:
 7983 0146 75617274 		.ascii	"uart_1_tx\000"
 7983      5F315F74 
 7983      7800
 7984              	.LASF70:
 7985 0150 53756D5F 		.ascii	"Sum_Verify\000"
 7985      56657269 
 7985      667900
 7986              	.LASF44:
 7987 015b 67796675 		.ascii	"gyfull\000"
 7987      6C6C00
 7988              	.LASF141:
 7989 0162 75384C69 		.ascii	"u8LinkState\000"
 7989      6E6B5374 
 7989      61746500 
 7990              	.LASF110:
 7991 016e 486F7374 		.ascii	"Host_E5_Data\000"
 7991      5F45355F 
 7991      44617461 
 7991      00
 7992              	.LASF65:
 7993 017b 73656E64 		.ascii	"send_data_load\000"
 7993      5F646174 
 7993      615F6C6F 
 7993      616400
 7994              	.LASF73:
 7995 018a 55617274 		.ascii	"UartData\000"
 7995      44617461 
 7995      00
 7996              	.LASF144:
 7997 0193 576F726B 		.ascii	"Work_State_Num_H\000"
 7997      5F537461 
 7997      74655F4E 
ARM GAS  C:\Users\ZHANGM~1\AppData\Local\Temp\ccBCEiox.s 			page 169


 7997      756D5F48 
 7997      00
 7998              	.LASF27:
 7999 01a4 74647331 		.ascii	"tds1sta\000"
 7999      73746100 
 8000              	.LASF145:
 8001 01ac 576F726B 		.ascii	"Work_State_Num_L\000"
 8001      5F537461 
 8001      74655F4E 
 8001      756D5F4C 
 8001      00
 8002              	.LASF58:
 8003 01bd 68616E64 		.ascii	"handshake_ok\000"
 8003      7368616B 
 8003      655F6F6B 
 8003      00
 8004              	.LASF160:
 8005 01ca 67695749 		.ascii	"giWIFICommand\000"
 8005      4649436F 
 8005      6D6D616E 
 8005      6400
 8006              	.LASF74:
 8007 01d8 4C6F6164 		.ascii	"LoadUARTData\000"
 8007      55415254 
 8007      44617461 
 8007      00
 8008              	.LASF79:
 8009 01e5 436F6D6D 		.ascii	"Comm_Uart_0_PrintHex8\000"
 8009      5F556172 
 8009      745F305F 
 8009      5072696E 
 8009      74486578 
 8010              	.LASF162:
 8011 01fb 67635749 		.ascii	"gcWIFICTL\000"
 8011      46494354 
 8011      4C00
 8012              	.LASF12:
 8013 0205 666C6F61 		.ascii	"float\000"
 8013      7400
 8014              	.LASF18:
 8015 020b 6E6F7761 		.ascii	"nowater\000"
 8015      74657200 
 8016              	.LASF24:
 8017 0213 73686F75 		.ascii	"shoudongbystabak\000"
 8017      646F6E67 
 8017      62797374 
 8017      6162616B 
 8017      00
 8018              	.LASF138:
 8019 0224 4572726F 		.ascii	"Error_Counter\000"
 8019      725F436F 
 8019      756E7465 
 8019      7200
 8020              	.LASF118:
 8021 0232 55617274 		.ascii	"Uart_Exception_Handl\000"
 8021      5F457863 
 8021      65707469 
ARM GAS  C:\Users\ZHANGM~1\AppData\Local\Temp\ccBCEiox.s 			page 170


 8021      6F6E5F48 
 8021      616E646C 
 8022              	.LASF22:
 8023 0247 6C767869 		.ascii	"lvxingxzsta\000"
 8023      6E67787A 
 8023      73746100 
 8024              	.LASF7:
 8025 0253 6C6F6E67 		.ascii	"long long unsigned int\000"
 8025      206C6F6E 
 8025      6720756E 
 8025      7369676E 
 8025      65642069 
 8026              	.LASF90:
 8027 026a 4D63755F 		.ascii	"Mcu_Handshake_Data\000"
 8027      48616E64 
 8027      7368616B 
 8027      655F4461 
 8027      746100
 8028              	.LASF161:
 8029 027d 67695749 		.ascii	"giWIFIDATALength\000"
 8029      46494441 
 8029      54414C65 
 8029      6E677468 
 8029      00
 8030              	.LASF158:
 8031 028e 67637464 		.ascii	"gctdsboardCommunState\000"
 8031      73626F61 
 8031      7264436F 
 8031      6D6D756E 
 8031      53746174 
 8032              	.LASF174:
 8033 02a4 4F70656E 		.ascii	"Open_UART_TDS_ISR\000"
 8033      5F554152 
 8033      545F5444 
 8033      535F4953 
 8033      5200
 8034              	.LASF139:
 8035 02b6 46696C74 		.ascii	"Filter_Full_Data_Buf\000"
 8035      65725F46 
 8035      756C6C5F 
 8035      44617461 
 8035      5F427566 
 8036              	.LASF71:
 8037 02cb 53756D5F 		.ascii	"Sum_Make_Verify\000"
 8037      4D616B65 
 8037      5F566572 
 8037      69667900 
 8038              	.LASF19:
 8039 02db 73746F70 		.ascii	"stopzs\000"
 8039      7A7300
 8040              	.LASF153:
 8041 02e2 436D645F 		.ascii	"Cmd_Function_Num\000"
 8041      46756E63 
 8041      74696F6E 
 8041      5F4E756D 
 8041      00
 8042              	.LASF43:
ARM GAS  C:\Users\ZHANGM~1\AppData\Local\Temp\ccBCEiox.s 			page 171


 8043 02f3 7A686973 		.ascii	"zhishui\000"
 8043      68756900 
 8044              	.LASF82:
 8045 02fb 55617274 		.ascii	"Uart_0_Putchar\000"
 8045      5F305F50 
 8045      75746368 
 8045      617200
 8046              	.LASF42:
 8047 030a 7A69646F 		.ascii	"zidongbysta\000"
 8047      6E676279 
 8047      73746100 
 8048              	.LASF36:
 8049 0316 6C786677 		.ascii	"lxfw\000"
 8049      00
 8050              	.LASF80:
 8051 031b 76616C75 		.ascii	"value\000"
 8051      6500
 8052              	.LASF128:
 8053 0321 4E426669 		.ascii	"NBfig\000"
 8053      6700
 8054              	.LASF129:
 8055 0327 576F726B 		.ascii	"WorkFlag\000"
 8055      466C6167 
 8055      00
 8056              	.LASF146:
 8057 0330 63705365 		.ascii	"cpSendBufPtr\000"
 8057      6E644275 
 8057      66507472 
 8057      00
 8058              	.LASF112:
 8059 033d 486F7374 		.ascii	"Host_E7_Data\000"
 8059      5F45375F 
 8059      44617461 
 8059      00
 8060              	.LASF121:
 8061 034a 53656E64 		.ascii	"Sendding_Data\000"
 8061      64696E67 
 8061      5F446174 
 8061      6100
 8062              	.LASF91:
 8063 0358 4170705F 		.ascii	"App_Host_State\000"
 8063      486F7374 
 8063      5F537461 
 8063      746500
 8064              	.LASF34:
 8065 0367 66617374 		.ascii	"fastfig\000"
 8065      66696700 
 8066              	.LASF107:
 8067 036f 486F7374 		.ascii	"Host_E2_Data\000"
 8067      5F45325F 
 8067      44617461 
 8067      00
 8068              	.LASF123:
 8069 037c 50726F63 		.ascii	"Process_From_Wifi_Ctl_Ack_Data\000"
 8069      6573735F 
 8069      46726F6D 
 8069      5F576966 
ARM GAS  C:\Users\ZHANGM~1\AppData\Local\Temp\ccBCEiox.s 			page 172


 8069      695F4374 
 8070              	.LASF149:
 8071 039b 41545265 		.ascii	"ATReceBuffer\000"
 8071      63654275 
 8071      66666572 
 8071      00
 8072              	.LASF136:
 8073 03a8 56616C75 		.ascii	"Value_T\000"
 8073      655F5400 
 8074              	.LASF140:
 8075 03b0 46696C74 		.ascii	"Filter_Changed_Num\000"
 8075      65725F43 
 8075      68616E67 
 8075      65645F4E 
 8075      756D00
 8076              	.LASF57:
 8077 03c3 67634154 		.ascii	"gcATReceTdsboardCount\000"
 8077      52656365 
 8077      54647362 
 8077      6F617264 
 8077      436F756E 
 8078              	.LASF59:
 8079 03d9 67635265 		.ascii	"gcReceComm2OK\000"
 8079      6365436F 
 8079      6D6D324F 
 8079      4B00
 8080              	.LASF14:
 8081 03e7 63686172 		.ascii	"char\000"
 8081      00
 8082              	.LASF150:
 8083 03ec 41545464 		.ascii	"ATTdsReceBuffer\000"
 8083      73526563 
 8083      65427566 
 8083      66657200 
 8084              	.LASF10:
 8085 03fc 75696E74 		.ascii	"uint16\000"
 8085      313600
 8086              	.LASF156:
 8087 0403 4572726F 		.ascii	"Error_Data_Buf\000"
 8087      725F4461 
 8087      74615F42 
 8087      756600
 8088              	.LASF167:
 8089 0412 6953656E 		.ascii	"iSendCounter\000"
 8089      64436F75 
 8089      6E746572 
 8089      00
 8090              	.LASF172:
 8091 041f 453A5C63 		.ascii	"E:\\code\\wifi\\1.8\\UartBootloader\\UART_Bootloade"
 8091      6F64655C 
 8091      77696669 
 8091      5C312E38 
 8091      5C556172 
 8092 044d 725C5541 		.ascii	"r\\UART_Bootloadable.cydsn\000"
 8092      52545F42 
 8092      6F6F746C 
 8092      6F616461 
ARM GAS  C:\Users\ZHANGM~1\AppData\Local\Temp\ccBCEiox.s 			page 173


 8092      626C652E 
 8093              	.LASF32:
 8094 0467 706F7765 		.ascii	"poweroff\000"
 8094      726F6666 
 8094      00
 8095              	.LASF35:
 8096 0470 6C78787A 		.ascii	"lxxz\000"
 8096      00
 8097              	.LASF78:
 8098 0475 69436F75 		.ascii	"iCount\000"
 8098      6E7400
 8099              	.LASF75:
 8100 047c 4C6F6164 		.ascii	"LoadTDSBoardData\000"
 8100      54445342 
 8100      6F617264 
 8100      44617461 
 8100      00
 8101              	.LASF148:
 8102 048d 53656E64 		.ascii	"Send_Interval_Counter\000"
 8102      5F496E74 
 8102      65727661 
 8102      6C5F436F 
 8102      756E7465 
 8103              	.LASF6:
 8104 04a3 6C6F6E67 		.ascii	"long long int\000"
 8104      206C6F6E 
 8104      6720696E 
 8104      7400
 8105              	.LASF62:
 8106 04b1 75384531 		.ascii	"u8E1Set\000"
 8106      53657400 
 8107              	.LASF154:
 8108 04b9 436D645F 		.ascii	"Cmd_Function\000"
 8108      46756E63 
 8108      74696F6E 
 8108      00
 8109              	.LASF31:
 8110 04c6 706F7765 		.ascii	"poweron\000"
 8110      726F6E00 
 8111              	.LASF97:
 8112 04ce 4170705F 		.ascii	"App_Download_Filter_Manage_Num\000"
 8112      446F776E 
 8112      6C6F6164 
 8112      5F46696C 
 8112      7465725F 
 8113              	.LASF67:
 8114 04ed 75617274 		.ascii	"uart_ack\000"
 8114      5F61636B 
 8114      00
 8115              	.LASF109:
 8116 04f6 486F7374 		.ascii	"Host_E4_Data\000"
 8116      5F45345F 
 8116      44617461 
 8116      00
 8117              	.LASF168:
 8118 0503 6D656D73 		.ascii	"memset\000"
 8118      657400
ARM GAS  C:\Users\ZHANGM~1\AppData\Local\Temp\ccBCEiox.s 			page 174


 8119              	.LASF81:
 8120 050a 436F6D6D 		.ascii	"Comm_Uart_1_PrintHex8\000"
 8120      5F556172 
 8120      745F315F 
 8120      5072696E 
 8120      74486578 
 8121              	.LASF117:
 8122 0520 55617274 		.ascii	"Uart_1_Putchar\000"
 8122      5F315F50 
 8122      75746368 
 8122      617200
 8123              	.LASF137:
 8124 052f 56616C75 		.ascii	"Value_Flow\000"
 8124      655F466C 
 8124      6F7700
 8125              	.LASF11:
 8126 053a 75696E74 		.ascii	"uint32\000"
 8126      333200
 8127              	.LASF38:
 8128 0541 6C78787A 		.ascii	"lxxzwf\000"
 8128      776600
 8129              	.LASF45:
 8130 0548 75617274 		.ascii	"uart_0_tx\000"
 8130      5F305F74 
 8130      7800
 8131              	.LASF122:
 8132 0552 56616C75 		.ascii	"Value_Wifi_State\000"
 8132      655F5769 
 8132      66695F53 
 8132      74617465 
 8132      00
 8133              	.LASF95:
 8134 0563 57696669 		.ascii	"Wifi_Senddingstate_Data\000"
 8134      5F53656E 
 8134      6464696E 
 8134      67737461 
 8134      74655F44 
 8135              	.LASF72:
 8136 057b 56657269 		.ascii	"Verify\000"
 8136      667900
 8137              	.LASF130:
 8138 0582 53776974 		.ascii	"Switch_Data\000"
 8138      63685F44 
 8138      61746100 
 8139              	.LASF25:
 8140 058e 79616E73 		.ascii	"yanshista\000"
 8140      68697374 
 8140      6100
 8141              	.LASF26:
 8142 0598 74647330 		.ascii	"tds0sta\000"
 8142      73746100 
 8143              	.LASF155:
 8144 05a0 436D645F 		.ascii	"Cmd_Function_Buf\000"
 8144      46756E63 
 8144      74696F6E 
 8144      5F427566 
 8144      00
ARM GAS  C:\Users\ZHANGM~1\AppData\Local\Temp\ccBCEiox.s 			page 175


 8145              	.LASF165:
 8146 05b1 67635444 		.ascii	"gcTDSBOARDCTL\000"
 8146      53424F41 
 8146      52444354 
 8146      4C00
 8147              	.LASF41:
 8148 05bf 73686F75 		.ascii	"shoucibysta\000"
 8148      63696279 
 8148      73746100 
 8149              	.LASF125:
 8150 05cb 50726F63 		.ascii	"Process_From_Wifi_Ack_Data\000"
 8150      6573735F 
 8150      46726F6D 
 8150      5F576966 
 8150      695F4163 
 8151              	.LASF163:
 8152 05e6 67695444 		.ascii	"giTDSBOARDCommand\000"
 8152      53424F41 
 8152      5244436F 
 8152      6D6D616E 
 8152      6400
 8153              	.LASF15:
 8154 05f8 72656733 		.ascii	"reg32\000"
 8154      3200
 8155              	.LASF88:
 8156 05fe 63427566 		.ascii	"cBuf\000"
 8156      00
 8157              	.LASF64:
 8158 0603 75384533 		.ascii	"u8E3Set\000"
 8158      53657400 
 8159              	.LASF133:
 8160 060b 56616C75 		.ascii	"Value_Tds0\000"
 8160      655F5464 
 8160      733000
 8161              	.LASF134:
 8162 0616 56616C75 		.ascii	"Value_Tds1\000"
 8162      655F5464 
 8162      733100
 8163              	.LASF30:
 8164 0621 6B756169 		.ascii	"kuaijiansta\000"
 8164      6A69616E 
 8164      73746100 
 8165              	.LASF115:
 8166 062d 69636F6D 		.ascii	"icommand\000"
 8166      6D616E64 
 8166      00
 8167              	.LASF2:
 8168 0636 73686F72 		.ascii	"short int\000"
 8168      7420696E 
 8168      7400
 8169              	.LASF69:
 8170 0640 50427566 		.ascii	"PBuf\000"
 8170      00
 8171              	.LASF132:
 8172 0645 5464735F 		.ascii	"Tds_Ack_Timer\000"
 8172      41636B5F 
 8172      54696D65 
ARM GAS  C:\Users\ZHANGM~1\AppData\Local\Temp\ccBCEiox.s 			page 176


 8172      7200
 8173              	.LASF4:
 8174 0653 6C6F6E67 		.ascii	"long int\000"
 8174      20696E74 
 8174      00
 8175              	.LASF85:
 8176 065c 63436F6D 		.ascii	"cCommand\000"
 8176      6D616E64 
 8176      00
 8177              	.LASF50:
 8178 0665 6D61696E 		.ascii	"maintain\000"
 8178      7461696E 
 8178      00
 8179              	.LASF68:
 8180 066e 666C6167 		.ascii	"flag_Uart_Work\000"
 8180      5F556172 
 8180      745F576F 
 8180      726B00
 8181              	.LASF111:
 8182 067d 486F7374 		.ascii	"Host_E6_Data\000"
 8182      5F45365F 
 8182      44617461 
 8182      00
 8183              	.LASF89:
 8184 068a 57696669 		.ascii	"WifiSendAck\000"
 8184      53656E64 
 8184      41636B00 
 8185              	.LASF53:
 8186 0696 67634154 		.ascii	"gcATReceCount\000"
 8186      52656365 
 8186      436F756E 
 8186      7400
 8187              	.LASF106:
 8188 06a4 486F7374 		.ascii	"Host_E1_Data\000"
 8188      5F45315F 
 8188      44617461 
 8188      00
 8189              	.LASF77:
 8190 06b1 64617461 		.ascii	"data_buf\000"
 8190      5F627566 
 8190      00
 8191              	.LASF152:
 8192 06ba 57696669 		.ascii	"WifidatagramWorkFlag\000"
 8192      64617461 
 8192      6772616D 
 8192      576F726B 
 8192      466C6167 
 8193              	.LASF166:
 8194 06cf 69556172 		.ascii	"iUartSendLen\000"
 8194      7453656E 
 8194      644C656E 
 8194      00
 8195              	.LASF92:
 8196 06dc 4170705F 		.ascii	"App_Filter_Changed_Data\000"
 8196      46696C74 
 8196      65725F43 
 8196      68616E67 
ARM GAS  C:\Users\ZHANGM~1\AppData\Local\Temp\ccBCEiox.s 			page 177


 8196      65645F44 
 8197              	.LASF40:
 8198 06f4 7A696A69 		.ascii	"zijiansta\000"
 8198      616E7374 
 8198      6100
 8199              	.LASF99:
 8200 06fe 4170705F 		.ascii	"App_Poweroff\000"
 8200      506F7765 
 8200      726F6666 
 8200      00
 8201              	.LASF151:
 8202 070b 57696669 		.ascii	"WifiWorkFlag\000"
 8202      576F726B 
 8202      466C6167 
 8202      00
 8203              	.LASF16:
 8204 0718 73697A65 		.ascii	"sizetype\000"
 8204      74797065 
 8204      00
 8205              	.LASF52:
 8206 0721 67634154 		.ascii	"gcATReceData\000"
 8206      52656365 
 8206      44617461 
 8206      00
 8207              	.LASF5:
 8208 072e 6C6F6E67 		.ascii	"long unsigned int\000"
 8208      20756E73 
 8208      69676E65 
 8208      6420696E 
 8208      7400
 8209              	.LASF94:
 8210 0740 4170705F 		.ascii	"App_Filter_Used_Time_Data\000"
 8210      46696C74 
 8210      65725F55 
 8210      7365645F 
 8210      54696D65 
 8211              	.LASF126:
 8212 075a 50726F63 		.ascii	"Process_From_Tdsboard_Data\000"
 8212      6573735F 
 8212      46726F6D 
 8212      5F546473 
 8212      626F6172 
 8213              	.LASF56:
 8214 0775 67634154 		.ascii	"gcATReceTdsboardData\000"
 8214      52656365 
 8214      54647362 
 8214      6F617264 
 8214      44617461 
 8215              	.LASF104:
 8216 078a 486F7374 		.ascii	"Host_Filter_Used_Time_Data\000"
 8216      5F46696C 
 8216      7465725F 
 8216      55736564 
 8216      5F54696D 
 8217              	.LASF39:
 8218 07a5 77696669 		.ascii	"wifiset\000"
 8218      73657400 
ARM GAS  C:\Users\ZHANGM~1\AppData\Local\Temp\ccBCEiox.s 			page 178


 8219              	.LASF100:
 8220 07ad 4D63755F 		.ascii	"Mcu_Poweronsmartlink_Data\000"
 8220      506F7765 
 8220      726F6E73 
 8220      6D617274 
 8220      6C696E6B 
 8221              	.LASF76:
 8222 07c7 55415254 		.ascii	"UART_SendData\000"
 8222      5F53656E 
 8222      64446174 
 8222      6100
 8223              	.LASF1:
 8224 07d5 756E7369 		.ascii	"unsigned char\000"
 8224      676E6564 
 8224      20636861 
 8224      7200
 8225              	.LASF51:
 8226 07e3 77616974 		.ascii	"waiting\000"
 8226      696E6700 
 8227              	.LASF135:
 8228 07eb 56616C75 		.ascii	"Value_Loushui_Ad\000"
 8228      655F4C6F 
 8228      75736875 
 8228      695F4164 
 8228      00
 8229              	.LASF142:
 8230 07fc 7538536D 		.ascii	"u8SmartLinkState\000"
 8230      6172744C 
 8230      696E6B53 
 8230      74617465 
 8230      00
 8231              	.LASF164:
 8232 080d 67695444 		.ascii	"giTDSBOARDDATALength\000"
 8232      53424F41 
 8232      52444441 
 8232      54414C65 
 8232      6E677468 
 8233              	.LASF23:
 8234 0822 73686F75 		.ascii	"shoudongbysta\000"
 8234      646F6E67 
 8234      62797374 
 8234      6100
 8235              	.LASF33:
 8236 0830 7374616E 		.ascii	"standbysta\000"
 8236      64627973 
 8236      746100
 8237              	.LASF108:
 8238 083b 486F7374 		.ascii	"Host_E3_Data\000"
 8238      5F45335F 
 8238      44617461 
 8238      00
 8239              	.LASF87:
 8240 0848 694C656E 		.ascii	"iLength\000"
 8240      67746800 
 8241              	.LASF0:
 8242 0850 7369676E 		.ascii	"signed char\000"
 8242      65642063 
ARM GAS  C:\Users\ZHANGM~1\AppData\Local\Temp\ccBCEiox.s 			page 179


 8242      68617200 
 8243              	.LASF3:
 8244 085c 73686F72 		.ascii	"short unsigned int\000"
 8244      7420756E 
 8244      7369676E 
 8244      65642069 
 8244      6E7400
 8245              	.LASF157:
 8246 086f 67635769 		.ascii	"gcWifiCommunState\000"
 8246      6669436F 
 8246      6D6D756E 
 8246      53746174 
 8246      6500
 8247              	.LASF61:
 8248 0881 75384530 		.ascii	"u8E0Set\000"
 8248      53657400 
 8249              	.LASF169:
 8250 0889 6D656D63 		.ascii	"memcpy\000"
 8250      707900
 8251              	.LASF170:
 8252 0890 474E5520 		.ascii	"GNU C 4.7.3 20130312 (release) [ARM/embedded-4_7-br"
 8252      4320342E 
 8252      372E3320 
 8252      32303133 
 8252      30333132 
 8253 08c3 616E6368 		.ascii	"anch revision 196615]\000"
 8253      20726576 
 8253      6973696F 
 8253      6E203139 
 8253      36363135 
 8254              	.LASF127:
 8255 08d9 50726F63 		.ascii	"Process_From_Wifi_Data\000"
 8255      6573735F 
 8255      46726F6D 
 8255      5F576966 
 8255      695F4461 
 8256              	.LASF131:
 8257 08f0 576F726B 		.ascii	"Work_State\000"
 8257      5F537461 
 8257      746500
 8258              	.LASF9:
 8259 08fb 75696E74 		.ascii	"uint8\000"
 8259      3800
 8260              	.LASF13:
 8261 0901 646F7562 		.ascii	"double\000"
 8261      6C6500
 8262              	.LASF159:
 8263 0908 4672616D 		.ascii	"Frame_Num\000"
 8263      655F4E75 
 8263      6D00
 8264              	.LASF119:
 8265 0912 53656E64 		.ascii	"Send_To_WifiUart\000"
 8265      5F546F5F 
 8265      57696669 
 8265      55617274 
 8265      00
 8266              	.LASF98:
ARM GAS  C:\Users\ZHANGM~1\AppData\Local\Temp\ccBCEiox.s 			page 180


 8267 0923 4170705F 		.ascii	"App_Poweron\000"
 8267      506F7765 
 8267      726F6E00 
 8268              	.LASF113:
 8269 092f 486F7374 		.ascii	"Host_E8_Data\000"
 8269      5F45385F 
 8269      44617461 
 8269      00
 8270              	.LASF84:
 8271 093c 6343746C 		.ascii	"cCtl\000"
 8271      00
 8272              	.LASF54:
 8273 0941 42756666 		.ascii	"Buffer0\000"
 8273      65723000 
 8274              	.LASF55:
 8275 0949 42756666 		.ascii	"Buffer1\000"
 8275      65723100 
 8276              	.LASF29:
 8277 0951 616C6C77 		.ascii	"allwatersta\000"
 8277      61746572 
 8277      73746100 
 8278              	.LASF47:
 8279 095d 67616F79 		.ascii	"gaoya_flag\000"
 8279      615F666C 
 8279      616700
 8280              	.LASF124:
 8281 0968 50726F63 		.ascii	"Process_From_Wifi_Noa_Data\000"
 8281      6573735F 
 8281      46726F6D 
 8281      5F576966 
 8281      695F4E6F 
 8282              	.LASF173:
 8283 0983 55415254 		.ascii	"UART_0_SpiUartGetTxBufferSize\000"
 8283      5F305F53 
 8283      70695561 
 8283      72744765 
 8283      74547842 
 8284              		.ident	"GCC: (GNU Tools for ARM Embedded Processors) 4.7.3 20130312 (release) [ARM/embedded-4_7-br
