ARM GAS  C:\Users\ZHANGM~1\AppData\Local\Temp\ccBCEiox.s 			page 1


   1              		.cpu cortex-m0
   2              		.fpu softvfp
   3              		.eabi_attribute 20, 1
   4              		.eabi_attribute 21, 1
   5              		.eabi_attribute 23, 3
   6              		.eabi_attribute 24, 1
   7              		.eabi_attribute 25, 1
   8              		.eabi_attribute 26, 1
   9              		.eabi_attribute 30, 4
  10              		.eabi_attribute 34, 0
  11              		.eabi_attribute 18, 4
  12              		.code	16
  13              		.file	"uart_wifi.c"
  14              		.text
  15              	.Ltext0:
  16              		.cfi_sections	.debug_frame
  17              		.section	.text.Sum_Verify,"ax",%progbits
  18              		.align	1
  19              		.global	Sum_Verify
  20              		.code	16
  21              		.thumb_func
  22              		.type	Sum_Verify, %function
  23              	Sum_Verify:
  24              	.LFB33:
  25              		.file 1 ".\\uart_wifi.c"
   1:.\uart_wifi.c **** /* ========================================
   2:.\uart_wifi.c ****  *
   3:.\uart_wifi.c ****  * Copyright YOUR COMPANY, THE YEAR
   4:.\uart_wifi.c ****  * All Rights Reserved
   5:.\uart_wifi.c ****  * UNPUBLISHED, LICENSED SOFTWARE.
   6:.\uart_wifi.c ****  *
   7:.\uart_wifi.c ****  * CONFIDENTIAL AND PROPRIETARY INFORMATION
   8:.\uart_wifi.c ****  * WHICH IS THE PROPERTY OF your company.
   9:.\uart_wifi.c ****  *
  10:.\uart_wifi.c ****  * ========================================
  11:.\uart_wifi.c **** */
  12:.\uart_wifi.c **** #define _UART_WIFI_
  13:.\uart_wifi.c **** #include "config.h"
  14:.\uart_wifi.c **** 
  15:.\uart_wifi.c **** 
  16:.\uart_wifi.c **** typedef struct Buffer0
  17:.\uart_wifi.c **** {
  18:.\uart_wifi.c **** 	uint8  	gcATReceData[WIFIBUFLEN];  // wifi 模块一次传输1440字节，这里有51芯片只有1
  19:.\uart_wifi.c **** 	uint16 	gcATReceCount;
  20:.\uart_wifi.c **** } Buffer2;
  21:.\uart_wifi.c **** struct Buffer0    ATReceBuffer[1];
  22:.\uart_wifi.c **** typedef struct Buffer1
  23:.\uart_wifi.c **** {
  24:.\uart_wifi.c **** 	uint8  	gcATReceTdsboardData[TDSBUFLEN];  // wifi 模块一次传输1440字节，这里有51芯片
  25:.\uart_wifi.c ****   uint16  gcATReceTdsboardCount;
  26:.\uart_wifi.c **** } Buffer1;
  27:.\uart_wifi.c **** struct Buffer1    ATTdsReceBuffer[1];
  28:.\uart_wifi.c **** struct{
  29:.\uart_wifi.c **** 		unsigned handshake_ok:1;           //握手成功标志
  30:.\uart_wifi.c **** 		unsigned gcReceComm2OK:1;
  31:.\uart_wifi.c **** 		unsigned gcReceComm1OK:1;
  32:.\uart_wifi.c **** 		unsigned u8E0Set:1;
ARM GAS  C:\Users\ZHANGM~1\AppData\Local\Temp\ccBCEiox.s 			page 2


  33:.\uart_wifi.c **** 		unsigned u8E1Set:1;
  34:.\uart_wifi.c **** 		unsigned u8E2Set:1;
  35:.\uart_wifi.c **** 		unsigned u8E3Set:1;
  36:.\uart_wifi.c **** }WifiWorkFlag;
  37:.\uart_wifi.c **** struct{
  38:.\uart_wifi.c ****     unsigned send_data_load:1;            //启动发送标志
  39:.\uart_wifi.c ****     unsigned flag_rev_end:1;              //接收完毕标志
  40:.\uart_wifi.c ****     unsigned uart_ack:1;              //应答标志位
  41:.\uart_wifi.c ****     unsigned flag_Uart_Work:1;         //Uart_Work标志位
  42:.\uart_wifi.c **** }WifidatagramWorkFlag;
  43:.\uart_wifi.c **** uint8	Work_State_Num_H,Work_State_Num_L;
  44:.\uart_wifi.c **** uint8	Cmd_Function_Num;
  45:.\uart_wifi.c **** uint16 Cmd_Function,Cmd_Function_Buf[8];     //设置8组缓冲区
  46:.\uart_wifi.c **** uint16 Filter_Full_Data_Buf[6],Filter_Changed_Num[12];
  47:.\uart_wifi.c **** uint16 Error_Data_Buf[9];
  48:.\uart_wifi.c **** uint8 SmarkLink_State;
  49:.\uart_wifi.c **** uint8	gcWifiCommunState;   	// 通讯接收状态
  50:.\uart_wifi.c **** uint8	gctdsboardCommunState;   	// 通讯接收状态
  51:.\uart_wifi.c **** uint8 Frame_Num;//总帧数量
  52:.\uart_wifi.c **** uint16 giWIFICommand;//wifi控制命令
  53:.\uart_wifi.c **** uint16 giWIFIDATALength;//wifi数据长度
  54:.\uart_wifi.c **** uint8 gcWIFICTL;//wifi控制字
  55:.\uart_wifi.c **** uint16 giTDSBOARDCommand;//wifi控制命令
  56:.\uart_wifi.c **** uint16 giTDSBOARDDATALength;//wifi数据长度
  57:.\uart_wifi.c **** uint8 gcTDSBOARDCTL;//wifi控制字
  58:.\uart_wifi.c **** uint16		iUartSendLen;
  59:.\uart_wifi.c **** uint16		iSendCounter;
  60:.\uart_wifi.c **** uint16 iSendCounter,iUartSendLen;
  61:.\uart_wifi.c **** uint8 *cpSendBufPtr;
  62:.\uart_wifi.c **** uint8	Send_Interval_Counter;//发送时间间隔20ms 
  63:.\uart_wifi.c **** 
  64:.\uart_wifi.c **** /******************************************************************************
  65:.\uart_wifi.c **** * 函 数 名: uint8 Sum_Verify (uint8 *PBuf, uint16 Len)
  66:.\uart_wifi.c **** * 函数功能: 串口接收程序
  67:.\uart_wifi.c **** * 入口参数: 无
  68:.\uart_wifi.c **** * 返    回: 
  69:.\uart_wifi.c **** *******************************************************************************/
  70:.\uart_wifi.c **** CYBIT Sum_Verify (uint8 *PBuf, uint16 Len)
  71:.\uart_wifi.c **** {
  26              		.loc 1 71 0
  27              		.cfi_startproc
  28              	.LVL0:
  29 0000 00B5     		push	{lr}
  30              	.LCFI0:
  31              		.cfi_def_cfa_offset 4
  32              		.cfi_offset 14, -4
  72:.\uart_wifi.c ****     uint8 Verify = 0;
  33              		.loc 1 72 0
  34 0002 0023     		mov	r3, #0
  35              	.LVL1:
  36              	.L2:
  73:.\uart_wifi.c ****     while (Len--)
  37              		.loc 1 73 0 discriminator 1
  38 0004 0139     		sub	r1, r1, #1
  39              	.LVL2:
  40 0006 064A     		ldr	r2, .L6
  41 0008 89B2     		uxth	r1, r1
ARM GAS  C:\Users\ZHANGM~1\AppData\Local\Temp\ccBCEiox.s 			page 3


  42              	.LVL3:
  43 000a 9142     		cmp	r1, r2
  44 000c 04D0     		beq	.L5
  45              	.L3:
  74:.\uart_wifi.c ****     {
  75:.\uart_wifi.c ****         Verify = Verify + (*PBuf);
  46              		.loc 1 75 0
  47 000e 0278     		ldrb	r2, [r0]
  76:.\uart_wifi.c ****         PBuf ++;
  48              		.loc 1 76 0
  49 0010 0130     		add	r0, r0, #1
  50              	.LVL4:
  75:.\uart_wifi.c ****         Verify = Verify + (*PBuf);
  51              		.loc 1 75 0
  52 0012 9B18     		add	r3, r3, r2
  53              	.LVL5:
  54 0014 DBB2     		uxtb	r3, r3
  55              	.LVL6:
  56 0016 F5E7     		b	.L2
  57              	.L5:
  77:.\uart_wifi.c ****     }
  78:.\uart_wifi.c ****     return (Verify == 0);                                //如果verify为0 返回1 否则返回0
  58              		.loc 1 78 0
  59 0018 5842     		neg	r0, r3
  60 001a 5841     		adc	r0, r0, r3
  61              	.LVL7:
  79:.\uart_wifi.c **** }
  62              		.loc 1 79 0
  63              		@ sp needed for prologue
  64 001c 00BD     		pop	{pc}
  65              	.L7:
  66 001e C046     		.align	2
  67              	.L6:
  68 0020 FFFF0000 		.word	65535
  69              		.cfi_endproc
  70              	.LFE33:
  71              		.size	Sum_Verify, .-Sum_Verify
  72              		.section	.text.Sum_Make_Verify,"ax",%progbits
  73              		.align	1
  74              		.global	Sum_Make_Verify
  75              		.code	16
  76              		.thumb_func
  77              		.type	Sum_Make_Verify, %function
  78              	Sum_Make_Verify:
  79              	.LFB34:
  80:.\uart_wifi.c **** /******************************************************************************
  81:.\uart_wifi.c **** * 函 数 名: Sum_Make_Verify (uint8 *pBuf, uint len)
  82:.\uart_wifi.c **** * 函数功能: 串口接收程序
  83:.\uart_wifi.c **** * 入口参数: 无
  84:.\uart_wifi.c **** * 返    回: 
  85:.\uart_wifi.c **** *******************************************************************************/
  86:.\uart_wifi.c **** uint8 Sum_Make_Verify (uint8 *PBuf, uint16 Len)
  87:.\uart_wifi.c **** {
  80              		.loc 1 87 0
  81              		.cfi_startproc
  82              	.LVL8:
  83 0000 00B5     		push	{lr}
ARM GAS  C:\Users\ZHANGM~1\AppData\Local\Temp\ccBCEiox.s 			page 4


  84              	.LCFI1:
  85              		.cfi_def_cfa_offset 4
  86              		.cfi_offset 14, -4
  88:.\uart_wifi.c ****     uint8 Verify = 0;
  87              		.loc 1 88 0
  88 0002 0023     		mov	r3, #0
  89              	.LVL9:
  90              	.L9:
  89:.\uart_wifi.c ****     while (Len--)
  91              		.loc 1 89 0 discriminator 1
  92 0004 0139     		sub	r1, r1, #1
  93              	.LVL10:
  94 0006 064A     		ldr	r2, .L12
  95 0008 89B2     		uxth	r1, r1
  96              	.LVL11:
  97 000a 9142     		cmp	r1, r2
  98 000c 04D0     		beq	.L11
  99              	.L10:
  90:.\uart_wifi.c ****     {
  91:.\uart_wifi.c ****         Verify = Verify + (*PBuf);
 100              		.loc 1 91 0
 101 000e 0278     		ldrb	r2, [r0]
  92:.\uart_wifi.c ****         ++ PBuf;
 102              		.loc 1 92 0
 103 0010 0130     		add	r0, r0, #1
 104              	.LVL12:
  91:.\uart_wifi.c ****         Verify = Verify + (*PBuf);
 105              		.loc 1 91 0
 106 0012 9B18     		add	r3, r3, r2
 107              	.LVL13:
 108 0014 DBB2     		uxtb	r3, r3
 109              	.LVL14:
 110 0016 F5E7     		b	.L9
 111              	.L11:
  93:.\uart_wifi.c ****     }
  94:.\uart_wifi.c ****     return (~Verify + 1);
 112              		.loc 1 94 0
 113 0018 5B42     		neg	r3, r3
 114              	.LVL15:
 115 001a D8B2     		uxtb	r0, r3
 116              	.LVL16:
  95:.\uart_wifi.c **** }
 117              		.loc 1 95 0
 118              		@ sp needed for prologue
 119 001c 00BD     		pop	{pc}
 120              	.L13:
 121 001e C046     		.align	2
 122              	.L12:
 123 0020 FFFF0000 		.word	65535
 124              		.cfi_endproc
 125              	.LFE34:
 126              		.size	Sum_Make_Verify, .-Sum_Make_Verify
 127              		.section	.text.LoadUARTData,"ax",%progbits
 128              		.align	1
 129              		.global	LoadUARTData
 130              		.code	16
 131              		.thumb_func
ARM GAS  C:\Users\ZHANGM~1\AppData\Local\Temp\ccBCEiox.s 			page 5


 132              		.type	LoadUARTData, %function
 133              	LoadUARTData:
 134              	.LFB35:
  96:.\uart_wifi.c **** /*
  97:.\uart_wifi.c **** 	========================================================================
  98:.\uart_wifi.c **** * 函 数 名: LodaUARTData(   IN unsigned char  UartData)
  99:.\uart_wifi.c **** * 函数功能: 串口发送程序
 100:.\uart_wifi.c **** * 入口参数: UartData
 101:.\uart_wifi.c **** * 返    回: 
 102:.\uart_wifi.c **** 	========================================================================
 103:.\uart_wifi.c **** */
 104:.\uart_wifi.c **** void LoadUARTData(uint8  UartData)
 105:.\uart_wifi.c **** {
 135              		.loc 1 105 0
 136              		.cfi_startproc
 137              	.LVL17:
 138 0000 30B5     		push	{r4, r5, lr}
 139              	.LCFI2:
 140              		.cfi_def_cfa_offset 12
 141              		.cfi_offset 4, -12
 142              		.cfi_offset 5, -8
 143              		.cfi_offset 14, -4
 106:.\uart_wifi.c **** 	switch (gcWifiCommunState)
 144              		.loc 1 106 0
 145 0002 3B4A     		ldr	r2, .L40
 105:.\uart_wifi.c **** {
 146              		.loc 1 105 0
 147 0004 031C     		mov	r3, r0
 148              		.loc 1 106 0
 149 0006 1078     		ldrb	r0, [r2]
 150              	.LVL18:
 151 0008 111C     		mov	r1, r2
 152 000a 0B28     		cmp	r0, #11
 153 000c 6CD8     		bhi	.L15
 154 000e 394A     		ldr	r2, .L40+4
 155 0010 FFF7FEFF 		bl	__gnu_thumb1_case_uqi
 156              	.L28:
 157 0014 06       		.byte	(.L16-.L28)/2
 158 0015 0B       		.byte	(.L17-.L28)/2
 159 0016 11       		.byte	(.L18-.L28)/2
 160 0017 17       		.byte	(.L19-.L28)/2
 161 0018 1B       		.byte	(.L20-.L28)/2
 162 0019 1F       		.byte	(.L21-.L28)/2
 163 001a 25       		.byte	(.L22-.L28)/2
 164 001b 2B       		.byte	(.L23-.L28)/2
 165 001c 34       		.byte	(.L24-.L28)/2
 166 001d 3A       		.byte	(.L25-.L28)/2
 167 001e 48       		.byte	(.L26-.L28)/2
 168 001f 58       		.byte	(.L27-.L28)/2
 169              		.align	1
 170              	.L16:
 107:.\uart_wifi.c **** 		{
 108:.\uart_wifi.c **** 			 case WIFI_WAIT_SYN_0:		                 // 1数据包头FA
 109:.\uart_wifi.c **** 			   		if(UartData==WIFI_SYN_0)
 171              		.loc 1 109 0
 172 0020 FA2B     		cmp	r3, #250
 173 0022 62D1     		bne	.L39
ARM GAS  C:\Users\ZHANGM~1\AppData\Local\Temp\ccBCEiox.s 			page 6


 110:.\uart_wifi.c ****   			   		gcWifiCommunState = WIFI_WAIT_SYN_1;
 174              		.loc 1 110 0
 175 0024 0125     		mov	r5, #1
 176 0026 0D70     		strb	r5, [r1]
 177 0028 5FE0     		b	.L39
 178              	.L17:
 111:.\uart_wifi.c ****   			  	    ATReceBuffer[0].gcATReceData[0]= UartData;
 112:.\uart_wifi.c **** 			  		break;
 113:.\uart_wifi.c **** 			 case WIFI_WAIT_SYN_1:		                // 2数据包头FB
 114:.\uart_wifi.c **** 			   		if(UartData==WIFI_SYN_1)
 179              		.loc 1 114 0
 180 002a FB2B     		cmp	r3, #251
 181 002c 01D1     		bne	.L31
 115:.\uart_wifi.c ****   			   		gcWifiCommunState = WIFI_PROTOCOL_JUDGE;
 182              		.loc 1 115 0
 183 002e 0220     		mov	r0, #2
 184 0030 0870     		strb	r0, [r1]
 185              	.L31:
 116:.\uart_wifi.c ****   			  	    ATReceBuffer[0].gcATReceData[1]= UartData;
 186              		.loc 1 116 0
 187 0032 5370     		strb	r3, [r2, #1]
 117:.\uart_wifi.c **** 			  		break;
 188              		.loc 1 117 0
 189 0034 5AE0     		b	.L14
 190              	.L18:
 118:.\uart_wifi.c **** 			 case WIFI_PROTOCOL_JUDGE:                //3协议版本
 119:.\uart_wifi.c **** 			 			if(UartData==WIFI_PROTOCOL_VERSION)
 191              		.loc 1 119 0
 192 0036 002B     		cmp	r3, #0
 193 0038 01D1     		bne	.L32
 120:.\uart_wifi.c ****   			   		gcWifiCommunState = WIFI_TOTAL_FRAME_NUM;
 194              		.loc 1 120 0
 195 003a 0324     		mov	r4, #3
 196 003c 0C70     		strb	r4, [r1]
 197              	.L32:
 121:.\uart_wifi.c ****   			  	ATReceBuffer[0].gcATReceData[2]= UartData;
 198              		.loc 1 121 0
 199 003e 9370     		strb	r3, [r2, #2]
 122:.\uart_wifi.c **** 			  		break;
 200              		.loc 1 122 0
 201 0040 54E0     		b	.L14
 202              	.L19:
 123:.\uart_wifi.c **** 			 case WIFI_TOTAL_FRAME_NUM:               //4总帧数量
 124:.\uart_wifi.c **** 			 			gcWifiCommunState = WIFI_FRAME_NUM;
 203              		.loc 1 124 0
 204 0042 0425     		mov	r5, #4
 205 0044 0D70     		strb	r5, [r1]
 125:.\uart_wifi.c ****   			  	ATReceBuffer[0].gcATReceData[3]= UartData;
 206              		.loc 1 125 0
 207 0046 D370     		strb	r3, [r2, #3]
 126:.\uart_wifi.c **** 			  		break;		
 208              		.loc 1 126 0
 209 0048 50E0     		b	.L14
 210              	.L20:
 127:.\uart_wifi.c **** 			 case WIFI_FRAME_NUM:                    //5帧序号
 128:.\uart_wifi.c **** 			 			gcWifiCommunState = WIFI_WAIT_CTL;
 211              		.loc 1 128 0
ARM GAS  C:\Users\ZHANGM~1\AppData\Local\Temp\ccBCEiox.s 			page 7


 212 004a 0520     		mov	r0, #5
 213 004c 0870     		strb	r0, [r1]
 129:.\uart_wifi.c ****   			  	ATReceBuffer[0].gcATReceData[4]= UartData;
 214              		.loc 1 129 0
 215 004e 1371     		strb	r3, [r2, #4]
 130:.\uart_wifi.c **** 			  		break;		
 216              		.loc 1 130 0
 217 0050 4CE0     		b	.L14
 218              	.L21:
 131:.\uart_wifi.c **** 			 case WIFI_WAIT_CTL:	               // 6控制字
 132:.\uart_wifi.c **** 			    	gcWIFICTL = UartData;
 219              		.loc 1 132 0
 220 0052 294D     		ldr	r5, .L40+8
 133:.\uart_wifi.c **** 						gcWifiCommunState = WIFI_COMMAND_1;
 221              		.loc 1 133 0
 222 0054 0624     		mov	r4, #6
 132:.\uart_wifi.c **** 			    	gcWIFICTL = UartData;
 223              		.loc 1 132 0
 224 0056 2B70     		strb	r3, [r5]
 225              		.loc 1 133 0
 226 0058 0C70     		strb	r4, [r1]
 134:.\uart_wifi.c ****   			  	ATReceBuffer[0].gcATReceData[5]= UartData;
 227              		.loc 1 134 0
 228 005a 5371     		strb	r3, [r2, #5]
 135:.\uart_wifi.c **** 			 			break;		 
 229              		.loc 1 135 0
 230 005c 46E0     		b	.L14
 231              	.L22:
 136:.\uart_wifi.c **** 			 case WIFI_COMMAND_1:	           // 7指令1
 137:.\uart_wifi.c **** 			    	giWIFICommand = UartData;
 232              		.loc 1 137 0
 233 005e 274C     		ldr	r4, .L40+12
 138:.\uart_wifi.c **** 						gcWifiCommunState = WIFI_COMMAND_2;
 234              		.loc 1 138 0
 235 0060 0720     		mov	r0, #7
 137:.\uart_wifi.c **** 			    	giWIFICommand = UartData;
 236              		.loc 1 137 0
 237 0062 2380     		strh	r3, [r4]
 238              		.loc 1 138 0
 239 0064 0870     		strb	r0, [r1]
 139:.\uart_wifi.c ****   			  	ATReceBuffer[0].gcATReceData[6]= UartData;
 240              		.loc 1 139 0
 241 0066 9371     		strb	r3, [r2, #6]
 140:.\uart_wifi.c **** 			 			break;
 242              		.loc 1 140 0
 243 0068 40E0     		b	.L14
 244              	.L23:
 141:.\uart_wifi.c **** 			 case WIFI_COMMAND_2:			  // 8指令2
 142:.\uart_wifi.c **** 			    	giWIFICommand = (giWIFICommand<<8)+UartData;
 245              		.loc 1 142 0
 246 006a 244D     		ldr	r5, .L40+12
 143:.\uart_wifi.c ****       				  gcWifiCommunState = WIFI_LENGTH1;     
 144:.\uart_wifi.c ****   			  	ATReceBuffer[0].gcATReceData[7]= UartData;
 247              		.loc 1 144 0
 248 006c D371     		strb	r3, [r2, #7]
 142:.\uart_wifi.c **** 			    	giWIFICommand = (giWIFICommand<<8)+UartData;
 249              		.loc 1 142 0
ARM GAS  C:\Users\ZHANGM~1\AppData\Local\Temp\ccBCEiox.s 			page 8


 250 006e 2888     		ldrh	r0, [r5]
 251 0070 0402     		lsl	r4, r0, #8
 252 0072 1819     		add	r0, r3, r4
 253 0074 2880     		strh	r0, [r5]
 143:.\uart_wifi.c ****       				  gcWifiCommunState = WIFI_LENGTH1;     
 254              		.loc 1 143 0
 255 0076 0825     		mov	r5, #8
 256 0078 0D70     		strb	r5, [r1]
 145:.\uart_wifi.c **** 			 			break;			 					  		
 257              		.loc 1 145 0
 258 007a 37E0     		b	.L14
 259              	.L24:
 146:.\uart_wifi.c **** 			 case WIFI_LENGTH1:	           // 9数据长度1
 147:.\uart_wifi.c **** 			    	giWIFIDATALength = UartData;
 260              		.loc 1 147 0
 261 007c 2048     		ldr	r0, .L40+16
 148:.\uart_wifi.c **** 						gcWifiCommunState = WIFI_LENGTH2;
 262              		.loc 1 148 0
 263 007e 0924     		mov	r4, #9
 147:.\uart_wifi.c **** 			    	giWIFIDATALength = UartData;
 264              		.loc 1 147 0
 265 0080 0380     		strh	r3, [r0]
 266              		.loc 1 148 0
 267 0082 0C70     		strb	r4, [r1]
 149:.\uart_wifi.c ****   			  	ATReceBuffer[0].gcATReceData[8]= UartData;
 268              		.loc 1 149 0
 269 0084 1372     		strb	r3, [r2, #8]
 150:.\uart_wifi.c **** 			 			break;
 270              		.loc 1 150 0
 271 0086 31E0     		b	.L14
 272              	.L25:
 151:.\uart_wifi.c **** 			 case WIFI_LENGTH2:			  // 10数据长度2
 152:.\uart_wifi.c **** 			    	giWIFIDATALength = (giWIFIDATALength<<8)+UartData;
 273              		.loc 1 152 0
 274 0088 1D4D     		ldr	r5, .L40+16
 275 008a 2888     		ldrh	r0, [r5]
 276 008c 0402     		lsl	r4, r0, #8
 277 008e 1819     		add	r0, r3, r4
 278 0090 84B2     		uxth	r4, r0
 279 0092 2C80     		strh	r4, [r5]
 153:.\uart_wifi.c ****     				if(giWIFIDATALength>0)   // 
 280              		.loc 1 153 0
 281 0094 002C     		cmp	r4, #0
 282 0096 01D0     		beq	.L33
 154:.\uart_wifi.c ****       				{
 155:.\uart_wifi.c ****       				  gcWifiCommunState = WIFI_RECEDATA;
 283              		.loc 1 155 0
 284 0098 0B25     		mov	r5, #11
 285 009a 00E0     		b	.L38
 286              	.L33:
 156:.\uart_wifi.c ****       				} 
 157:.\uart_wifi.c ****     				else
 158:.\uart_wifi.c ****       				{
 159:.\uart_wifi.c ****       				   gcWifiCommunState = WIFI_CHCK; 
 287              		.loc 1 159 0
 288 009c 0A25     		mov	r5, #10
 289              	.L38:
ARM GAS  C:\Users\ZHANGM~1\AppData\Local\Temp\ccBCEiox.s 			page 9


 290 009e 0D70     		strb	r5, [r1]
 160:.\uart_wifi.c ****       				}
 161:.\uart_wifi.c ****   			  	ATReceBuffer[0].gcATReceData[9]= UartData;
 291              		.loc 1 161 0
 292 00a0 5372     		strb	r3, [r2, #9]
 162:.\uart_wifi.c **** 			 			break;
 293              		.loc 1 162 0
 294 00a2 23E0     		b	.L14
 295              	.L26:
 163:.\uart_wifi.c ****     	case WIFI_CHCK:	  // 11校验 
 164:.\uart_wifi.c ****     				if (ATReceBuffer[0].gcATReceCount<=(WIFIBUFLEN-10-1)) 
 296              		.loc 1 164 0
 297 00a4 101C     		mov	r0, r2
 298 00a6 6430     		add	r0, r0, #100
 299 00a8 0488     		ldrh	r4, [r0]
 300 00aa 592C     		cmp	r4, #89
 301 00ac 1ED8     		bhi	.L14
 165:.\uart_wifi.c ****     					{
 166:.\uart_wifi.c ****   			    		ATReceBuffer[0].gcATReceData[10+ATReceBuffer[0].gcATReceCount]= UartData; 
 302              		.loc 1 166 0
 303 00ae 1519     		add	r5, r2, r4
 304 00b0 AB72     		strb	r3, [r5, #10]
 167:.\uart_wifi.c ****   			    		ATReceBuffer[0].gcATReceCount = 0;
 305              		.loc 1 167 0
 306 00b2 0023     		mov	r3, #0
 307 00b4 0380     		strh	r3, [r0]
 168:.\uart_wifi.c **** 	      				gcWifiCommunState = WIFI_WAIT_SYN_0;
 169:.\uart_wifi.c **** 	      				WifiWorkFlag.gcReceComm1OK = 1;  // 数据成功接收完毕   						
 308              		.loc 1 169 0
 309 00b6 1348     		ldr	r0, .L40+20
 168:.\uart_wifi.c **** 	      				gcWifiCommunState = WIFI_WAIT_SYN_0;
 310              		.loc 1 168 0
 311 00b8 0B70     		strb	r3, [r1]
 312              		.loc 1 169 0
 313 00ba 0478     		ldrb	r4, [r0]
 314 00bc 0421     		mov	r1, #4
 315 00be 0C43     		orr	r4, r1
 316 00c0 0470     		strb	r4, [r0]
 317 00c2 13E0     		b	.L14
 318              	.L27:
 170:.\uart_wifi.c ****     					}         						
 171:.\uart_wifi.c **** 
 172:.\uart_wifi.c **** 
 173:.\uart_wifi.c **** 
 174:.\uart_wifi.c **** 			 			break;
 175:.\uart_wifi.c **** 		case WIFI_RECEDATA:  // 12数据内容
 176:.\uart_wifi.c ****     				if (ATReceBuffer[0].gcATReceCount<(WIFIBUFLEN-10-1)) 
 319              		.loc 1 176 0
 320 00c4 141C     		mov	r4, r2
 321 00c6 6434     		add	r4, r4, #100
 322 00c8 2088     		ldrh	r0, [r4]
 323 00ca 5828     		cmp	r0, #88
 324 00cc 03D8     		bhi	.L36
 177:.\uart_wifi.c ****     					{
 178:.\uart_wifi.c ****   			    		ATReceBuffer[0].gcATReceData[10+ATReceBuffer[0].gcATReceCount]= UartData;
 325              		.loc 1 178 0
 326 00ce 1518     		add	r5, r2, r0
ARM GAS  C:\Users\ZHANGM~1\AppData\Local\Temp\ccBCEiox.s 			page 10


 179:.\uart_wifi.c ****   			    		ATReceBuffer[0].gcATReceCount++;    						
 327              		.loc 1 179 0
 328 00d0 0130     		add	r0, r0, #1
 178:.\uart_wifi.c ****   			    		ATReceBuffer[0].gcATReceData[10+ATReceBuffer[0].gcATReceCount]= UartData;
 329              		.loc 1 178 0
 330 00d2 AB72     		strb	r3, [r5, #10]
 331              		.loc 1 179 0
 332 00d4 2080     		strh	r0, [r4]
 333              	.L36:
 180:.\uart_wifi.c ****     					}
 181:.\uart_wifi.c **** 
 182:.\uart_wifi.c ****     				if(ATReceBuffer[0].gcATReceCount == giWIFIDATALength)
 334              		.loc 1 182 0
 335 00d6 0A4B     		ldr	r3, .L40+16
 336 00d8 6432     		add	r2, r2, #100
 337 00da 1288     		ldrh	r2, [r2]
 338 00dc 1C88     		ldrh	r4, [r3]
 339 00de A242     		cmp	r2, r4
 340 00e0 04D1     		bne	.L14
 183:.\uart_wifi.c ****     				{
 184:.\uart_wifi.c ****     				  	gcWifiCommunState = WIFI_CHCK;
 341              		.loc 1 184 0
 342 00e2 0A20     		mov	r0, #10
 343 00e4 0870     		strb	r0, [r1]
 344 00e6 01E0     		b	.L14
 345              	.L15:
 185:.\uart_wifi.c ****     				}
 186:.\uart_wifi.c ****     			 	break;
 187:.\uart_wifi.c **** 		default:
 188:.\uart_wifi.c **** 			 	gcWifiCommunState = WIFI_WAIT_SYN_0;	
 346              		.loc 1 188 0
 347 00e8 0023     		mov	r3, #0
 348              	.L39:
 349 00ea 1370     		strb	r3, [r2]
 350              	.L14:
 189:.\uart_wifi.c **** 		}
 190:.\uart_wifi.c **** }
 351              		.loc 1 190 0
 352              		@ sp needed for prologue
 353 00ec 30BD     		pop	{r4, r5, pc}
 354              	.L41:
 355 00ee C046     		.align	2
 356              	.L40:
 357 00f0 00000000 		.word	gcWifiCommunState
 358 00f4 00000000 		.word	ATReceBuffer
 359 00f8 00000000 		.word	gcWIFICTL
 360 00fc 00000000 		.word	giWIFICommand
 361 0100 00000000 		.word	giWIFIDATALength
 362 0104 00000000 		.word	WifiWorkFlag
 363              		.cfi_endproc
 364              	.LFE35:
 365              		.size	LoadUARTData, .-LoadUARTData
 366              		.section	.text.LoadTDSBoardData,"ax",%progbits
 367              		.align	1
 368              		.global	LoadTDSBoardData
 369              		.code	16
 370              		.thumb_func
ARM GAS  C:\Users\ZHANGM~1\AppData\Local\Temp\ccBCEiox.s 			page 11


 371              		.type	LoadTDSBoardData, %function
 372              	LoadTDSBoardData:
 373              	.LFB36:
 191:.\uart_wifi.c **** /*
 192:.\uart_wifi.c **** 	========================================================================
 193:.\uart_wifi.c **** * 函 数 名: LodaUARTData(   IN unsigned char  UartData)
 194:.\uart_wifi.c **** * 函数功能: 串口发送程序
 195:.\uart_wifi.c **** * 入口参数: UartData
 196:.\uart_wifi.c **** * 返    回: 
 197:.\uart_wifi.c **** 	========================================================================
 198:.\uart_wifi.c **** */
 199:.\uart_wifi.c **** void LoadTDSBoardData(uint8  UartData)
 200:.\uart_wifi.c **** {
 374              		.loc 1 200 0
 375              		.cfi_startproc
 376              	.LVL19:
 377 0000 10B5     		push	{r4, lr}
 378              	.LCFI3:
 379              		.cfi_def_cfa_offset 8
 380              		.cfi_offset 4, -8
 381              		.cfi_offset 14, -4
 201:.\uart_wifi.c **** 	switch (gctdsboardCommunState)
 382              		.loc 1 201 0
 383 0002 4049     		ldr	r1, .L67
 200:.\uart_wifi.c **** {
 384              		.loc 1 200 0
 385 0004 031C     		mov	r3, r0
 386              		.loc 1 201 0
 387 0006 0878     		ldrb	r0, [r1]
 388              	.LVL20:
 389 0008 0A1C     		mov	r2, r1
 390 000a 0B28     		cmp	r0, #11
 391 000c 76D8     		bhi	.L43
 392 000e FFF7FEFF 		bl	__gnu_thumb1_case_uqi
 393              	.L56:
 394 0012 06       		.byte	(.L44-.L56)/2
 395 0013 0C       		.byte	(.L45-.L56)/2
 396 0014 13       		.byte	(.L46-.L56)/2
 397 0015 1A       		.byte	(.L47-.L56)/2
 398 0016 1F       		.byte	(.L48-.L56)/2
 399 0017 24       		.byte	(.L49-.L56)/2
 400 0018 2B       		.byte	(.L50-.L56)/2
 401 0019 32       		.byte	(.L51-.L56)/2
 402 001a 3C       		.byte	(.L52-.L56)/2
 403 001b 43       		.byte	(.L53-.L56)/2
 404 001c 52       		.byte	(.L54-.L56)/2
 405 001d 63       		.byte	(.L55-.L56)/2
 406              		.align	1
 407              	.L44:
 202:.\uart_wifi.c **** 		{
 203:.\uart_wifi.c **** 			 case TDSBOARD_WAIT_SYN_0:		                 // 1数据包头FA
 204:.\uart_wifi.c **** 			   		if(UartData==TDSBOARD_SYN_0)
 408              		.loc 1 204 0
 409 001e FA2B     		cmp	r3, #250
 410 0020 69D1     		bne	.L64
 205:.\uart_wifi.c ****                     {
 206:.\uart_wifi.c ****   			   		    gctdsboardCommunState = TDSBOARD_WAIT_SYN_1;
ARM GAS  C:\Users\ZHANGM~1\AppData\Local\Temp\ccBCEiox.s 			page 12


 411              		.loc 1 206 0
 412 0022 0121     		mov	r1, #1
 413 0024 1170     		strb	r1, [r2]
 207:.\uart_wifi.c ****                         ATTdsReceBuffer[0].gcATReceTdsboardData[0]= UartData;
 414              		.loc 1 207 0
 415 0026 384A     		ldr	r2, .L67+4
 416 0028 66E0     		b	.L66
 417              	.L45:
 208:.\uart_wifi.c ****                     }
 209:.\uart_wifi.c ****                     else
 210:.\uart_wifi.c ****                         gctdsboardCommunState = TDSBOARD_WAIT_SYN_0;
 211:.\uart_wifi.c **** 			  		break;
 212:.\uart_wifi.c **** 			 case TDSBOARD_WAIT_SYN_1:		                // 2数据包头FB
 213:.\uart_wifi.c **** 			   		if(UartData==TDSBOARD_SYN_1)
 418              		.loc 1 213 0
 419 002a FC2B     		cmp	r3, #252
 420 002c 63D1     		bne	.L64
 214:.\uart_wifi.c ****                     {
 215:.\uart_wifi.c ****   			   		gctdsboardCommunState = TDSBOARD_PROTOCOL_JUDGE;
 216:.\uart_wifi.c ****   			  	    ATTdsReceBuffer[0].gcATReceTdsboardData[1]= UartData;
 421              		.loc 1 216 0
 422 002e 364A     		ldr	r2, .L67+4
 215:.\uart_wifi.c ****   			   		gctdsboardCommunState = TDSBOARD_PROTOCOL_JUDGE;
 423              		.loc 1 215 0
 424 0030 0220     		mov	r0, #2
 425 0032 0870     		strb	r0, [r1]
 426              		.loc 1 216 0
 427 0034 5370     		strb	r3, [r2, #1]
 428 0036 63E0     		b	.L42
 429              	.L46:
 217:.\uart_wifi.c ****                     }
 218:.\uart_wifi.c ****                     else
 219:.\uart_wifi.c ****                         gctdsboardCommunState = TDSBOARD_WAIT_SYN_0;
 220:.\uart_wifi.c **** 			  		break;
 221:.\uart_wifi.c **** 			 case TDSBOARD_PROTOCOL_JUDGE:                //3协议版本
 222:.\uart_wifi.c **** 			 			if(UartData==TDSBOARD_PROTOCOL_VERSION)
 430              		.loc 1 222 0
 431 0038 002B     		cmp	r3, #0
 432 003a 01D1     		bne	.L60
 223:.\uart_wifi.c ****   			   		gctdsboardCommunState = TDSBOARD_TOTAL_FRAME_NUM;
 433              		.loc 1 223 0
 434 003c 0321     		mov	r1, #3
 435 003e 1170     		strb	r1, [r2]
 436              	.L60:
 224:.\uart_wifi.c ****   			  	ATTdsReceBuffer[0].gcATReceTdsboardData[2]= UartData;
 437              		.loc 1 224 0
 438 0040 314C     		ldr	r4, .L67+4
 439 0042 A370     		strb	r3, [r4, #2]
 225:.\uart_wifi.c **** 			  		break;
 440              		.loc 1 225 0
 441 0044 5CE0     		b	.L42
 442              	.L47:
 226:.\uart_wifi.c **** 			 case TDSBOARD_TOTAL_FRAME_NUM:               //4总帧数量
 227:.\uart_wifi.c **** 			 			gctdsboardCommunState = TDSBOARD_FRAME_NUM;
 228:.\uart_wifi.c ****   			  	ATTdsReceBuffer[0].gcATReceTdsboardData[3]= UartData;
 443              		.loc 1 228 0
 444 0046 304A     		ldr	r2, .L67+4
ARM GAS  C:\Users\ZHANGM~1\AppData\Local\Temp\ccBCEiox.s 			page 13


 227:.\uart_wifi.c **** 			 			gctdsboardCommunState = TDSBOARD_FRAME_NUM;
 445              		.loc 1 227 0
 446 0048 0420     		mov	r0, #4
 447 004a 0870     		strb	r0, [r1]
 448              		.loc 1 228 0
 449 004c D370     		strb	r3, [r2, #3]
 229:.\uart_wifi.c **** 			  		break;		
 450              		.loc 1 229 0
 451 004e 57E0     		b	.L42
 452              	.L48:
 230:.\uart_wifi.c **** 			 case TDSBOARD_FRAME_NUM:                    //5帧序号
 231:.\uart_wifi.c **** 			 			gctdsboardCommunState = TDSBOARD_WAIT_CTL;
 232:.\uart_wifi.c ****   			  	ATTdsReceBuffer[0].gcATReceTdsboardData[4]= UartData;
 453              		.loc 1 232 0
 454 0050 2D4C     		ldr	r4, .L67+4
 231:.\uart_wifi.c **** 			 			gctdsboardCommunState = TDSBOARD_WAIT_CTL;
 455              		.loc 1 231 0
 456 0052 0521     		mov	r1, #5
 457 0054 1170     		strb	r1, [r2]
 458              		.loc 1 232 0
 459 0056 2371     		strb	r3, [r4, #4]
 233:.\uart_wifi.c **** 			  		break;		
 460              		.loc 1 233 0
 461 0058 52E0     		b	.L42
 462              	.L49:
 234:.\uart_wifi.c **** 			 case TDSBOARD_WAIT_CTL:	               // 6控制字
 235:.\uart_wifi.c **** 			    	gcTDSBOARDCTL = UartData;
 463              		.loc 1 235 0
 464 005a 2C4C     		ldr	r4, .L67+8
 236:.\uart_wifi.c **** 						gctdsboardCommunState = TDSBOARD_COMMAND_1;
 237:.\uart_wifi.c ****   			  	ATTdsReceBuffer[0].gcATReceTdsboardData[5]= UartData;
 465              		.loc 1 237 0
 466 005c 2A4A     		ldr	r2, .L67+4
 236:.\uart_wifi.c **** 						gctdsboardCommunState = TDSBOARD_COMMAND_1;
 467              		.loc 1 236 0
 468 005e 0620     		mov	r0, #6
 235:.\uart_wifi.c **** 			    	gcTDSBOARDCTL = UartData;
 469              		.loc 1 235 0
 470 0060 2370     		strb	r3, [r4]
 236:.\uart_wifi.c **** 						gctdsboardCommunState = TDSBOARD_COMMAND_1;
 471              		.loc 1 236 0
 472 0062 0870     		strb	r0, [r1]
 473              		.loc 1 237 0
 474 0064 5371     		strb	r3, [r2, #5]
 238:.\uart_wifi.c **** 			 			break;		 
 475              		.loc 1 238 0
 476 0066 4BE0     		b	.L42
 477              	.L50:
 239:.\uart_wifi.c **** 			 case TDSBOARD_COMMAND_1:	           // 7指令1
 240:.\uart_wifi.c **** 			    	giTDSBOARDCommand = UartData;
 241:.\uart_wifi.c **** 						gctdsboardCommunState = TDSBOARD_COMMAND_2;
 478              		.loc 1 241 0
 479 0068 0720     		mov	r0, #7
 240:.\uart_wifi.c **** 			    	giTDSBOARDCommand = UartData;
 480              		.loc 1 240 0
 481 006a 294C     		ldr	r4, .L67+12
 482              		.loc 1 241 0
ARM GAS  C:\Users\ZHANGM~1\AppData\Local\Temp\ccBCEiox.s 			page 14


 483 006c 0870     		strb	r0, [r1]
 242:.\uart_wifi.c ****   			  	ATTdsReceBuffer[0].gcATReceTdsboardData[6]= UartData;
 484              		.loc 1 242 0
 485 006e 2649     		ldr	r1, .L67+4
 240:.\uart_wifi.c **** 			    	giTDSBOARDCommand = UartData;
 486              		.loc 1 240 0
 487 0070 2380     		strh	r3, [r4]
 488              		.loc 1 242 0
 489 0072 8B71     		strb	r3, [r1, #6]
 243:.\uart_wifi.c **** 			 			break;
 490              		.loc 1 243 0
 491 0074 44E0     		b	.L42
 492              	.L51:
 244:.\uart_wifi.c **** 			 case TDSBOARD_COMMAND_2:			  // 8指令2
 245:.\uart_wifi.c **** 			    	giTDSBOARDCommand = (giTDSBOARDCommand<<8)+UartData;
 493              		.loc 1 245 0
 494 0076 2649     		ldr	r1, .L67+12
 495 0078 0888     		ldrh	r0, [r1]
 496 007a 0402     		lsl	r4, r0, #8
 497 007c 1819     		add	r0, r3, r4
 498 007e 0880     		strh	r0, [r1]
 246:.\uart_wifi.c ****       				  gctdsboardCommunState = TDSBOARD_LENGTH1;     
 499              		.loc 1 246 0
 500 0080 0821     		mov	r1, #8
 501 0082 1170     		strb	r1, [r2]
 247:.\uart_wifi.c ****   			  	ATTdsReceBuffer[0].gcATReceTdsboardData[7]= UartData;
 502              		.loc 1 247 0
 503 0084 204A     		ldr	r2, .L67+4
 504 0086 D371     		strb	r3, [r2, #7]
 248:.\uart_wifi.c **** 			 			break;			 					  		
 505              		.loc 1 248 0
 506 0088 3AE0     		b	.L42
 507              	.L52:
 249:.\uart_wifi.c **** 			 case TDSBOARD_LENGTH1:	           // 9数据长度1
 250:.\uart_wifi.c **** 			    	giTDSBOARDDATALength = UartData;
 508              		.loc 1 250 0
 509 008a 2248     		ldr	r0, .L67+16
 251:.\uart_wifi.c **** 						gctdsboardCommunState = TDSBOARD_LENGTH2;
 252:.\uart_wifi.c ****   			  	ATTdsReceBuffer[0].gcATReceTdsboardData[8]= UartData;
 510              		.loc 1 252 0
 511 008c 1E4C     		ldr	r4, .L67+4
 251:.\uart_wifi.c **** 						gctdsboardCommunState = TDSBOARD_LENGTH2;
 512              		.loc 1 251 0
 513 008e 0921     		mov	r1, #9
 250:.\uart_wifi.c **** 			    	giTDSBOARDDATALength = UartData;
 514              		.loc 1 250 0
 515 0090 0380     		strh	r3, [r0]
 251:.\uart_wifi.c **** 						gctdsboardCommunState = TDSBOARD_LENGTH2;
 516              		.loc 1 251 0
 517 0092 1170     		strb	r1, [r2]
 518              		.loc 1 252 0
 519 0094 2372     		strb	r3, [r4, #8]
 253:.\uart_wifi.c **** 			 			break;
 520              		.loc 1 253 0
 521 0096 33E0     		b	.L42
 522              	.L53:
 254:.\uart_wifi.c **** 			 case TDSBOARD_LENGTH2:			  // 10数据长度2
ARM GAS  C:\Users\ZHANGM~1\AppData\Local\Temp\ccBCEiox.s 			page 15


 255:.\uart_wifi.c **** 			    	giTDSBOARDDATALength = (giTDSBOARDDATALength<<8)+UartData;
 523              		.loc 1 255 0
 524 0098 1E4C     		ldr	r4, .L67+16
 525 009a 2088     		ldrh	r0, [r4]
 526 009c 0102     		lsl	r1, r0, #8
 527 009e 5818     		add	r0, r3, r1
 528 00a0 81B2     		uxth	r1, r0
 529 00a2 2180     		strh	r1, [r4]
 256:.\uart_wifi.c ****     				if(giTDSBOARDDATALength>0)   // 
 530              		.loc 1 256 0
 531 00a4 0029     		cmp	r1, #0
 532 00a6 01D0     		beq	.L61
 257:.\uart_wifi.c ****       				{
 258:.\uart_wifi.c ****       				  gctdsboardCommunState = TDSBOARD_RECEDATA;
 533              		.loc 1 258 0
 534 00a8 0B24     		mov	r4, #11
 535 00aa 00E0     		b	.L65
 536              	.L61:
 259:.\uart_wifi.c ****       				} 
 260:.\uart_wifi.c ****     				else
 261:.\uart_wifi.c ****       				{
 262:.\uart_wifi.c ****       				   gctdsboardCommunState = TDSBOARD_CHCK; 
 537              		.loc 1 262 0
 538 00ac 0A24     		mov	r4, #10
 539              	.L65:
 540 00ae 1470     		strb	r4, [r2]
 263:.\uart_wifi.c ****       				}
 264:.\uart_wifi.c ****   			  	ATTdsReceBuffer[0].gcATReceTdsboardData[9]= UartData;
 541              		.loc 1 264 0
 542 00b0 154A     		ldr	r2, .L67+4
 543 00b2 5372     		strb	r3, [r2, #9]
 265:.\uart_wifi.c **** 			 			break;
 544              		.loc 1 265 0
 545 00b4 24E0     		b	.L42
 546              	.L54:
 266:.\uart_wifi.c ****     	case TDSBOARD_CHCK:	  // 11校验 
 267:.\uart_wifi.c **** 		    		if (ATTdsReceBuffer[0].gcATReceTdsboardCount<=TDSBUFLEN-10-1) 
 547              		.loc 1 267 0
 548 00b6 1448     		ldr	r0, .L67+4
 549 00b8 0021     		mov	r1, #0
 550 00ba C48B     		ldrh	r4, [r0, #30]
 551 00bc 132C     		cmp	r4, #19
 552 00be 09D8     		bhi	.L63
 268:.\uart_wifi.c **** 		    			{
 269:.\uart_wifi.c **** 		   			    ATTdsReceBuffer[0].gcATReceTdsboardData[10+ATTdsReceBuffer[0].gcATReceTdsboardCount]= U
 553              		.loc 1 269 0
 554 00c0 0419     		add	r4, r0, r4
 270:.\uart_wifi.c **** 		      			ATTdsReceBuffer[0].gcATReceTdsboardCount = 0;
 555              		.loc 1 270 0
 556 00c2 C183     		strh	r1, [r0, #30]
 271:.\uart_wifi.c **** 		      			gctdsboardCommunState = TDSBOARD_WAIT_SYN_0;
 272:.\uart_wifi.c **** 		      			WifiWorkFlag.gcReceComm2OK = 1;  // 数据成功接收完毕   				
 557              		.loc 1 272 0
 558 00c4 1448     		ldr	r0, .L67+20
 271:.\uart_wifi.c **** 		      			gctdsboardCommunState = TDSBOARD_WAIT_SYN_0;
 559              		.loc 1 271 0
 560 00c6 1170     		strb	r1, [r2]
ARM GAS  C:\Users\ZHANGM~1\AppData\Local\Temp\ccBCEiox.s 			page 16


 269:.\uart_wifi.c **** 		   			    ATTdsReceBuffer[0].gcATReceTdsboardData[10+ATTdsReceBuffer[0].gcATReceTdsboardCount]= U
 561              		.loc 1 269 0
 562 00c8 A372     		strb	r3, [r4, #10]
 563              		.loc 1 272 0
 564 00ca 0278     		ldrb	r2, [r0]
 565 00cc 0221     		mov	r1, #2
 566 00ce 0A43     		orr	r2, r1
 567 00d0 0270     		strb	r2, [r0]
 568 00d2 15E0     		b	.L42
 569              	.L63:
 273:.\uart_wifi.c **** 		    			} 
 274:.\uart_wifi.c ****                      else
 275:.\uart_wifi.c ****                         {
 276:.\uart_wifi.c ****                            gctdsboardCommunState = TDSBOARD_WAIT_SYN_0; 
 570              		.loc 1 276 0
 571 00d4 1170     		strb	r1, [r2]
 572 00d6 13E0     		b	.L42
 573              	.L55:
 277:.\uart_wifi.c ****                         }
 278:.\uart_wifi.c **** 			 			break;
 279:.\uart_wifi.c **** 		case TDSBOARD_RECEDATA:  // 12数据内容
 280:.\uart_wifi.c **** 					  if (ATTdsReceBuffer[0].gcATReceTdsboardCount<TDSBUFLEN-10-1) 
 574              		.loc 1 280 0
 575 00d8 0B49     		ldr	r1, .L67+4
 576 00da C88B     		ldrh	r0, [r1, #30]
 577 00dc 1228     		cmp	r0, #18
 578 00de 0AD8     		bhi	.L64
 281:.\uart_wifi.c **** 		    			{
 282:.\uart_wifi.c ****     			 			ATTdsReceBuffer[0].gcATReceTdsboardData[10+ATTdsReceBuffer[0].gcATReceTdsboardCount]= Ua
 579              		.loc 1 282 0
 580 00e0 0C18     		add	r4, r1, r0
 283:.\uart_wifi.c ****     			    	ATTdsReceBuffer[0].gcATReceTdsboardCount++;
 581              		.loc 1 283 0
 582 00e2 0130     		add	r0, r0, #1
 583 00e4 80B2     		uxth	r0, r0
 584 00e6 C883     		strh	r0, [r1, #30]
 284:.\uart_wifi.c ****                          if(ATTdsReceBuffer[0].gcATReceTdsboardCount == giTDSBOARDDATALength)
 585              		.loc 1 284 0
 586 00e8 0A49     		ldr	r1, .L67+16
 282:.\uart_wifi.c ****     			 			ATTdsReceBuffer[0].gcATReceTdsboardData[10+ATTdsReceBuffer[0].gcATReceTdsboardCount]= Ua
 587              		.loc 1 282 0
 588 00ea A372     		strb	r3, [r4, #10]
 589              		.loc 1 284 0
 590 00ec 0B88     		ldrh	r3, [r1]
 591 00ee 8342     		cmp	r3, r0
 592 00f0 06D1     		bne	.L42
 285:.\uart_wifi.c ****     				        {
 286:.\uart_wifi.c ****     				  	        gctdsboardCommunState = TDSBOARD_CHCK;
 593              		.loc 1 286 0
 594 00f2 0A23     		mov	r3, #10
 595 00f4 00E0     		b	.L66
 596              	.L64:
 287:.\uart_wifi.c ****     				        }
 288:.\uart_wifi.c ****     			  	    }
 289:.\uart_wifi.c ****                         else
 290:.\uart_wifi.c ****                         {
 291:.\uart_wifi.c ****                            gctdsboardCommunState = TDSBOARD_WAIT_SYN_0; 
ARM GAS  C:\Users\ZHANGM~1\AppData\Local\Temp\ccBCEiox.s 			page 17


 597              		.loc 1 291 0
 598 00f6 0023     		mov	r3, #0
 599              	.L66:
 600 00f8 1370     		strb	r3, [r2]
 601 00fa 01E0     		b	.L42
 602              	.L43:
 292:.\uart_wifi.c ****                         }
 293:.\uart_wifi.c ****     			 	break;
 294:.\uart_wifi.c **** 		default:
 295:.\uart_wifi.c **** 			 	gctdsboardCommunState = TDSBOARD_WAIT_SYN_0;	
 603              		.loc 1 295 0
 604 00fc 0022     		mov	r2, #0
 605 00fe 0A70     		strb	r2, [r1]
 606              	.L42:
 296:.\uart_wifi.c **** 		}
 297:.\uart_wifi.c **** }
 607              		.loc 1 297 0
 608              		@ sp needed for prologue
 609 0100 10BD     		pop	{r4, pc}
 610              	.L68:
 611 0102 C046     		.align	2
 612              	.L67:
 613 0104 00000000 		.word	gctdsboardCommunState
 614 0108 00000000 		.word	ATTdsReceBuffer
 615 010c 00000000 		.word	gcTDSBOARDCTL
 616 0110 00000000 		.word	giTDSBOARDCommand
 617 0114 00000000 		.word	giTDSBOARDDATALength
 618 0118 00000000 		.word	WifiWorkFlag
 619              		.cfi_endproc
 620              	.LFE36:
 621              		.size	LoadTDSBoardData, .-LoadTDSBoardData
 622              		.section	.text.UART_SendData,"ax",%progbits
 623              		.align	1
 624              		.global	UART_SendData
 625              		.code	16
 626              		.thumb_func
 627              		.type	UART_SendData, %function
 628              	UART_SendData:
 629              	.LFB37:
 298:.\uart_wifi.c **** /**************************************************************************************************
 299:.\uart_wifi.c **** ** 函数名称: void UART_SendData(unsigned char	 *data_buf,unsigned char	 count)
 300:.\uart_wifi.c **** ** 功能描述: 从串口发送数据
 301:.\uart_wifi.c **** ** 入口参数: data_buf:发送数据缓冲区首地址
 302:.\uart_wifi.c **** **			 count	:发送字节数
 303:.\uart_wifi.c **** ** 出口参数:	无
 304:.\uart_wifi.c **** ***************************************************************************************************
 305:.\uart_wifi.c **** void UART_SendData(uint8	 *data_buf,uint16 iCount)
 306:.\uart_wifi.c **** {
 630              		.loc 1 306 0
 631              		.cfi_startproc
 632              	.LVL21:
 633 0000 10B5     		push	{r4, lr}
 634              	.LCFI4:
 635              		.cfi_def_cfa_offset 8
 636              		.cfi_offset 4, -8
 637              		.cfi_offset 14, -4
 307:.\uart_wifi.c **** 	WifidatagramWorkFlag.flag_Uart_Work = 1;                 //置正在通信标志
ARM GAS  C:\Users\ZHANGM~1\AppData\Local\Temp\ccBCEiox.s 			page 18


 638              		.loc 1 307 0
 639 0002 074B     		ldr	r3, .L70
 640 0004 0824     		mov	r4, #8
 641 0006 1A78     		ldrb	r2, [r3]
 308:.\uart_wifi.c **** 
 309:.\uart_wifi.c **** 	iUartSendLen = iCount-1;
 642              		.loc 1 309 0
 643 0008 0139     		sub	r1, r1, #1
 644              	.LVL22:
 307:.\uart_wifi.c **** 	WifidatagramWorkFlag.flag_Uart_Work = 1;                 //置正在通信标志
 645              		.loc 1 307 0
 646 000a 2243     		orr	r2, r4
 647 000c 1A70     		strb	r2, [r3]
 648              		.loc 1 309 0
 649 000e 054B     		ldr	r3, .L70+4
 310:.\uart_wifi.c **** 	iSendCounter = 0;
 650              		.loc 1 310 0
 651 0010 054A     		ldr	r2, .L70+8
 311:.\uart_wifi.c **** //  UART_UartPutChar(data_buf[0]);
 312:.\uart_wifi.c **** 	cpSendBufPtr = &data_buf[0];
 652              		.loc 1 312 0
 653 0012 064C     		ldr	r4, .L70+12
 309:.\uart_wifi.c **** 	iUartSendLen = iCount-1;
 654              		.loc 1 309 0
 655 0014 1980     		strh	r1, [r3]
 310:.\uart_wifi.c **** 	iSendCounter = 0;
 656              		.loc 1 310 0
 657 0016 0021     		mov	r1, #0
 658 0018 1180     		strh	r1, [r2]
 659              		.loc 1 312 0
 660 001a 2060     		str	r0, [r4]
 313:.\uart_wifi.c **** }
 661              		.loc 1 313 0
 662              		@ sp needed for prologue
 663 001c 10BD     		pop	{r4, pc}
 664              	.L71:
 665 001e C046     		.align	2
 666              	.L70:
 667 0020 00000000 		.word	WifidatagramWorkFlag
 668 0024 00000000 		.word	iUartSendLen
 669 0028 00000000 		.word	iSendCounter
 670 002c 00000000 		.word	cpSendBufPtr
 671              		.cfi_endproc
 672              	.LFE37:
 673              		.size	UART_SendData, .-UART_SendData
 674              		.section	.text.Comm_Uart_0_PrintHex8,"ax",%progbits
 675              		.align	1
 676              		.global	Comm_Uart_0_PrintHex8
 677              		.code	16
 678              		.thumb_func
 679              		.type	Comm_Uart_0_PrintHex8, %function
 680              	Comm_Uart_0_PrintHex8:
 681              	.LFB38:
 314:.\uart_wifi.c **** /**************************************************************************************************
 315:.\uart_wifi.c **** ** 函数名称: void Comm_Uart_0_PrintHex8(uint8 value)
 316:.\uart_wifi.c **** ** 功能描述: 从串口发送数据
 317:.\uart_wifi.c **** ** 入口参数:	无
ARM GAS  C:\Users\ZHANGM~1\AppData\Local\Temp\ccBCEiox.s 			page 19


 318:.\uart_wifi.c **** ** 出口参数:	无
 319:.\uart_wifi.c **** ***************************************************************************************************
 320:.\uart_wifi.c **** void Comm_Uart_0_PrintHex8(uint8 value)
 321:.\uart_wifi.c **** {
 682              		.loc 1 321 0
 683              		.cfi_startproc
 684              	.LVL23:
 685 0000 00B5     		push	{lr}
 686              	.LCFI5:
 687              		.cfi_def_cfa_offset 4
 688              		.cfi_offset 14, -4
 689              	.L73:
 322:.\uart_wifi.c ****     while(UART_0_FIFO_SIZE == UART_0_GET_TX_FIFO_ENTRIES);
 690              		.loc 1 322 0 discriminator 1
 691 0002 044B     		ldr	r3, .L78
 692 0004 0F21     		mov	r1, #15
 693 0006 1A68     		ldr	r2, [r3]
 694 0008 1140     		and	r1, r2
 695 000a 0829     		cmp	r1, #8
 696 000c F9D0     		beq	.L73
 323:.\uart_wifi.c ****     UART_0_TX_FIFO_WR_REG = (uint8)(value);
 697              		.loc 1 323 0
 698 000e 024B     		ldr	r3, .L78+4
 324:.\uart_wifi.c **** }
 699              		.loc 1 324 0
 700              		@ sp needed for prologue
 323:.\uart_wifi.c ****     UART_0_TX_FIFO_WR_REG = (uint8)(value);
 701              		.loc 1 323 0
 702 0010 1860     		str	r0, [r3]
 703              		.loc 1 324 0
 704 0012 00BD     		pop	{pc}
 705              	.L79:
 706              		.align	2
 707              	.L78:
 708 0014 08020740 		.word	1074201096
 709 0018 40020740 		.word	1074201152
 710              		.cfi_endproc
 711              	.LFE38:
 712              		.size	Comm_Uart_0_PrintHex8, .-Comm_Uart_0_PrintHex8
 713              		.section	.text.Comm_Uart_1_PrintHex8,"ax",%progbits
 714              		.align	1
 715              		.global	Comm_Uart_1_PrintHex8
 716              		.code	16
 717              		.thumb_func
 718              		.type	Comm_Uart_1_PrintHex8, %function
 719              	Comm_Uart_1_PrintHex8:
 720              	.LFB39:
 325:.\uart_wifi.c **** /**************************************************************************************************
 326:.\uart_wifi.c **** ** 函数名称: void Comm_Uart_1_PrintHex8(uint8 value)
 327:.\uart_wifi.c **** ** 功能描述: 从串口发送数据
 328:.\uart_wifi.c **** ** 入口参数:	无
 329:.\uart_wifi.c **** ** 出口参数:	无
 330:.\uart_wifi.c **** ***************************************************************************************************
 331:.\uart_wifi.c **** void Comm_Uart_1_PrintHex8(uint8 value)
 332:.\uart_wifi.c **** {
 721              		.loc 1 332 0
 722              		.cfi_startproc
ARM GAS  C:\Users\ZHANGM~1\AppData\Local\Temp\ccBCEiox.s 			page 20


 723              	.LVL24:
 724 0000 00B5     		push	{lr}
 725              	.LCFI6:
 726              		.cfi_def_cfa_offset 4
 727              		.cfi_offset 14, -4
 728              	.L81:
 333:.\uart_wifi.c ****     while(UART_1_FIFO_SIZE == UART_1_GET_TX_FIFO_ENTRIES);
 729              		.loc 1 333 0 discriminator 1
 730 0002 044B     		ldr	r3, .L86
 731 0004 0F21     		mov	r1, #15
 732 0006 1A68     		ldr	r2, [r3]
 733 0008 1140     		and	r1, r2
 734 000a 0829     		cmp	r1, #8
 735 000c F9D0     		beq	.L81
 334:.\uart_wifi.c ****     UART_1_TX_FIFO_WR_REG = (uint8)(value);
 736              		.loc 1 334 0
 737 000e 024B     		ldr	r3, .L86+4
 335:.\uart_wifi.c **** }
 738              		.loc 1 335 0
 739              		@ sp needed for prologue
 334:.\uart_wifi.c ****     UART_1_TX_FIFO_WR_REG = (uint8)(value);
 740              		.loc 1 334 0
 741 0010 1860     		str	r0, [r3]
 742              		.loc 1 335 0
 743 0012 00BD     		pop	{pc}
 744              	.L87:
 745              		.align	2
 746              	.L86:
 747 0014 08020640 		.word	1074135560
 748 0018 40020640 		.word	1074135616
 749              		.cfi_endproc
 750              	.LFE39:
 751              		.size	Comm_Uart_1_PrintHex8, .-Comm_Uart_1_PrintHex8
 752              		.section	.text.Uart_0_Putchar,"ax",%progbits
 753              		.align	1
 754              		.global	Uart_0_Putchar
 755              		.code	16
 756              		.thumb_func
 757              		.type	Uart_0_Putchar, %function
 758              	Uart_0_Putchar:
 759              	.LFB40:
 336:.\uart_wifi.c **** /**************************************************************************************************
 337:.\uart_wifi.c **** ** 函数名称: void UART_putchar(void)
 338:.\uart_wifi.c **** ** 功能描述: 从串口发送数据
 339:.\uart_wifi.c **** ** 入口参数:	无
 340:.\uart_wifi.c **** ** 出口参数:	无
 341:.\uart_wifi.c **** ***************************************************************************************************
 342:.\uart_wifi.c **** void Uart_0_Putchar(void)
 343:.\uart_wifi.c **** {
 760              		.loc 1 343 0
 761              		.cfi_startproc
 762 0000 08B5     		push	{r3, lr}
 763              	.LCFI7:
 764              		.cfi_def_cfa_offset 8
 765              		.cfi_offset 3, -8
 766              		.cfi_offset 14, -4
 344:.\uart_wifi.c **** 	if(WorkFlag.uart_0_tx!=0)
ARM GAS  C:\Users\ZHANGM~1\AppData\Local\Temp\ccBCEiox.s 			page 21


 767              		.loc 1 344 0
 768 0002 0C4B     		ldr	r3, .L94
 769 0004 D878     		ldrb	r0, [r3, #3]
 770 0006 8206     		lsl	r2, r0, #26
 771 0008 12D5     		bpl	.L88
 345:.\uart_wifi.c **** 		{
 346:.\uart_wifi.c **** 			if(iSendCounter!=(iUartSendLen+1))
 772              		.loc 1 346 0
 773 000a 0B49     		ldr	r1, .L94+4
 774 000c 0B4A     		ldr	r2, .L94+8
 775 000e 0888     		ldrh	r0, [r1]
 776 0010 1388     		ldrh	r3, [r2]
 777 0012 0130     		add	r0, r0, #1
 778 0014 8342     		cmp	r3, r0
 779 0016 06D0     		beq	.L90
 347:.\uart_wifi.c **** 			{
 348:.\uart_wifi.c ****           Comm_Uart_0_PrintHex8(cpSendBufPtr[iSendCounter++]);
 780              		.loc 1 348 0
 781 0018 0949     		ldr	r1, .L94+12
 782 001a 0868     		ldr	r0, [r1]
 783 001c C05C     		ldrb	r0, [r0, r3]
 784 001e 0133     		add	r3, r3, #1
 785 0020 1380     		strh	r3, [r2]
 786 0022 FFF7FEFF 		bl	Comm_Uart_0_PrintHex8
 787              	.LVL25:
 788              	.L90:
 349:.\uart_wifi.c **** 	    }
 350:.\uart_wifi.c **** 	    WifidatagramWorkFlag.flag_Uart_Work = 0;                 //置正在通信标志
 789              		.loc 1 350 0
 790 0026 074B     		ldr	r3, .L94+16
 791 0028 0821     		mov	r1, #8
 792 002a 1A78     		ldrb	r2, [r3]
 793 002c 8A43     		bic	r2, r1
 794 002e 1A70     		strb	r2, [r3]
 795              	.L88:
 351:.\uart_wifi.c **** 	  }
 352:.\uart_wifi.c ****  
 353:.\uart_wifi.c **** }
 796              		.loc 1 353 0
 797              		@ sp needed for prologue
 798 0030 08BD     		pop	{r3, pc}
 799              	.L95:
 800 0032 C046     		.align	2
 801              	.L94:
 802 0034 00000000 		.word	WorkFlag
 803 0038 00000000 		.word	iUartSendLen
 804 003c 00000000 		.word	iSendCounter
 805 0040 00000000 		.word	cpSendBufPtr
 806 0044 00000000 		.word	WifidatagramWorkFlag
 807              		.cfi_endproc
 808              	.LFE40:
 809              		.size	Uart_0_Putchar, .-Uart_0_Putchar
 810              		.section	.text.Uart_1_Putchar,"ax",%progbits
 811              		.align	1
 812              		.global	Uart_1_Putchar
 813              		.code	16
 814              		.thumb_func
ARM GAS  C:\Users\ZHANGM~1\AppData\Local\Temp\ccBCEiox.s 			page 22


 815              		.type	Uart_1_Putchar, %function
 816              	Uart_1_Putchar:
 817              	.LFB41:
 354:.\uart_wifi.c **** /**************************************************************************************************
 355:.\uart_wifi.c **** ** 函数名称: void UART_putchar(void)
 356:.\uart_wifi.c **** ** 功能描述: 从串口发送数据
 357:.\uart_wifi.c **** ** 入口参数:	无
 358:.\uart_wifi.c **** ** 出口参数:	无
 359:.\uart_wifi.c **** ***************************************************************************************************
 360:.\uart_wifi.c **** void Uart_1_Putchar(void)
 361:.\uart_wifi.c **** {
 818              		.loc 1 361 0
 819              		.cfi_startproc
 362:.\uart_wifi.c ****     if(WorkFlag.uart_1_tx!=0)  //接收非空
 363:.\uart_wifi.c ****         {
 364:.\uart_wifi.c **** //        	while(iSendCounter!=(iUartSendLen+1))
 365:.\uart_wifi.c **** //						{
 366:.\uart_wifi.c **** // 							Comm_Uart_1_PrintHex8(cpSendBufPtr[iSendCounter++]);
 367:.\uart_wifi.c **** //        		}
 368:.\uart_wifi.c ****         }
 369:.\uart_wifi.c **** }
 820              		.loc 1 369 0
 821              		@ sp needed for prologue
 822 0000 7047     		bx	lr
 823              		.cfi_endproc
 824              	.LFE41:
 825              		.size	Uart_1_Putchar, .-Uart_1_Putchar
 826              		.section	.text.SendDataToWifi,"ax",%progbits
 827              		.align	1
 828              		.global	SendDataToWifi
 829              		.code	16
 830              		.thumb_func
 831              		.type	SendDataToWifi, %function
 832              	SendDataToWifi:
 833              	.LFB42:
 370:.\uart_wifi.c **** /*
 371:.\uart_wifi.c **** ***************************************************************************************************
 372:.\uart_wifi.c **** ** 函数名称 ：SendDataToWifi()
 373:.\uart_wifi.c **** ** 函数功能 ：发送数据到WIFI模块                          
 374:.\uart_wifi.c **** ** 入口参数 ：cCtl：控制字类型 
 375:.\uart_wifi.c ****   							0x00(主动发送指令要求对方回复) 
 376:.\uart_wifi.c ****   							0x80(返回指令) 
 377:.\uart_wifi.c ****   							0x40(主动发送无需对方回复)
 378:.\uart_wifi.c ****               unsigned char  *DataBuf  数据缓存区            
 379:.\uart_wifi.c ****               unsigned int   iLength   数据长度          
 380:.\uart_wifi.c **** ** 出口参数 ：无
 381:.\uart_wifi.c **** ***************************************************************************************************
 382:.\uart_wifi.c **** */
 383:.\uart_wifi.c **** void  SendDataToWifi(uint8 cCtl,
 384:.\uart_wifi.c ****                       uint16 cCommand,
 385:.\uart_wifi.c ****                      uint8 *DataBuf,
 386:.\uart_wifi.c **** 		     							uint16 iLength)
 387:.\uart_wifi.c **** {
 834              		.loc 1 387 0
 835              		.cfi_startproc
 836              	.LVL26:
 837 0000 F7B5     		push	{r0, r1, r2, r4, r5, r6, r7, lr}
ARM GAS  C:\Users\ZHANGM~1\AppData\Local\Temp\ccBCEiox.s 			page 23


 838              	.LCFI8:
 839              		.cfi_def_cfa_offset 32
 840              		.cfi_offset 0, -32
 841              		.cfi_offset 1, -28
 842              		.cfi_offset 2, -24
 843              		.cfi_offset 4, -20
 844              		.cfi_offset 5, -16
 845              		.cfi_offset 6, -12
 846              		.cfi_offset 7, -8
 847              		.cfi_offset 14, -4
 388:.\uart_wifi.c **** 	//uint32 xxxxx;
 389:.\uart_wifi.c ****    static uint8 cBuf[WIFIBUFLEN]; ////51 has only 256 data in soc
 390:.\uart_wifi.c **** 
 391:.\uart_wifi.c **** 
 392:.\uart_wifi.c **** 	  memset(cBuf,0x00,WIFIBUFLEN);
 848              		.loc 1 392 0
 849 0002 214C     		ldr	r4, .L103
 387:.\uart_wifi.c **** {
 850              		.loc 1 387 0
 851 0004 1D1C     		mov	r5, r3
 852 0006 0F1C     		mov	r7, r1
 853 0008 061C     		mov	r6, r0
 854 000a 0192     		str	r2, [sp, #4]
 855              		.loc 1 392 0
 856 000c 0021     		mov	r1, #0
 857              	.LVL27:
 858 000e 6422     		mov	r2, #100
 859              	.LVL28:
 860 0010 201C     		mov	r0, r4
 861              	.LVL29:
 862 0012 FFF7FEFF 		bl	memset
 863              	.LVL30:
 393:.\uart_wifi.c **** 	  cBuf[0] = WIFI_SYN_0;        	     // SYNC0
 864              		.loc 1 393 0
 865 0016 FA23     		mov	r3, #250
 394:.\uart_wifi.c ****     cBuf[1] = WIFI_SYN_1;        	     // SYNC1
 866              		.loc 1 394 0
 867 0018 FB20     		mov	r0, #251
 395:.\uart_wifi.c ****     cBuf[2] = WIFI_PROTOCOL_VERSION;   //MCU_PROTOCOL_VERSION       
 396:.\uart_wifi.c ****     cBuf[3] = DATA_FRAME_EQUE_0;   //FRAME_EQUE_0       
 397:.\uart_wifi.c ****     cBuf[4]= DATA_FRAME_NUM_EQUE_0;//帧需要
 398:.\uart_wifi.c **** 	  cBuf[5] = cCtl;   	 // Wctrl
 399:.\uart_wifi.c **** 	  cBuf[6]=(cCommand)>>8;//长度0
 868              		.loc 1 399 0
 869 001a 390A     		lsr	r1, r7, #8
 400:.\uart_wifi.c **** 	  cBuf[7]=(cCommand)&0x00ff;//长度1	  cBuf[8]=(iLength)>>8;//长度0
 401:.\uart_wifi.c **** 	  cBuf[8]=(iLength)>>8;//长度0
 870              		.loc 1 401 0
 871 001c 2A0A     		lsr	r2, r5, #8
 393:.\uart_wifi.c **** 	  cBuf[0] = WIFI_SYN_0;        	     // SYNC0
 872              		.loc 1 393 0
 873 001e 2370     		strb	r3, [r4]
 394:.\uart_wifi.c ****     cBuf[1] = WIFI_SYN_1;        	     // SYNC1
 874              		.loc 1 394 0
 875 0020 6070     		strb	r0, [r4, #1]
 398:.\uart_wifi.c **** 	  cBuf[5] = cCtl;   	 // Wctrl
 876              		.loc 1 398 0
ARM GAS  C:\Users\ZHANGM~1\AppData\Local\Temp\ccBCEiox.s 			page 24


 877 0022 6671     		strb	r6, [r4, #5]
 399:.\uart_wifi.c **** 	  cBuf[6]=(cCommand)>>8;//长度0
 878              		.loc 1 399 0
 879 0024 A171     		strb	r1, [r4, #6]
 400:.\uart_wifi.c **** 	  cBuf[7]=(cCommand)&0x00ff;//长度1	  cBuf[8]=(iLength)>>8;//长度0
 880              		.loc 1 400 0
 881 0026 E771     		strb	r7, [r4, #7]
 882              		.loc 1 401 0
 883 0028 2272     		strb	r2, [r4, #8]
 402:.\uart_wifi.c **** 	  cBuf[9]=(iLength)&0x00ff;//长度1
 884              		.loc 1 402 0
 885 002a 6572     		strb	r5, [r4, #9]
 403:.\uart_wifi.c **** 	  //cBuf[iLength+10]=0x44;
 404:.\uart_wifi.c **** 	  if(cCtl==0x00)
 886              		.loc 1 404 0
 887 002c 002E     		cmp	r6, #0
 888 002e 04D1     		bne	.L98
 405:.\uart_wifi.c **** 	  	{
 406:.\uart_wifi.c **** 	  		WifidatagramWorkFlag.uart_ack=1;
 889              		.loc 1 406 0
 890 0030 164E     		ldr	r6, .L103+4
 891 0032 0420     		mov	r0, #4
 892 0034 3778     		ldrb	r7, [r6]
 893 0036 0743     		orr	r7, r0
 894 0038 05E0     		b	.L102
 895              	.L98:
 407:.\uart_wifi.c **** 	  	}
 408:.\uart_wifi.c **** 	  if(cCtl==0x80)
 896              		.loc 1 408 0
 897 003a 802E     		cmp	r6, #128
 898 003c 04D1     		bne	.L99
 409:.\uart_wifi.c **** 	  	{
 410:.\uart_wifi.c **** 	  		WifidatagramWorkFlag.uart_ack=0;
 899              		.loc 1 410 0
 900 003e 134E     		ldr	r6, .L103+4
 901 0040 0423     		mov	r3, #4
 902 0042 3778     		ldrb	r7, [r6]
 903 0044 9F43     		bic	r7, r3
 904              	.L102:
 905 0046 3770     		strb	r7, [r6]
 906              	.L99:
 411:.\uart_wifi.c **** 	  	}
 412:.\uart_wifi.c **** 	 if(iLength!=0)
 413:.\uart_wifi.c ****         {
 414:.\uart_wifi.c **** 	  	    memcpy(&cBuf[10],DataBuf,iLength);
 907              		.loc 1 414 0
 908 0048 201C     		mov	r0, r4
 412:.\uart_wifi.c **** 	 if(iLength!=0)
 909              		.loc 1 412 0
 910 004a 002D     		cmp	r5, #0
 911 004c 0DD0     		beq	.L100
 912              		.loc 1 414 0
 913 004e 2A1C     		mov	r2, r5
 914 0050 0199     		ldr	r1, [sp, #4]
 915 0052 0A30     		add	r0, r0, #10
 916 0054 FFF7FEFF 		bl	memcpy
 917              	.LVL31:
ARM GAS  C:\Users\ZHANGM~1\AppData\Local\Temp\ccBCEiox.s 			page 25


 415:.\uart_wifi.c ****             cBuf[iLength+10] = Sum_Make_Verify(&cBuf[0],10+iLength);
 918              		.loc 1 415 0
 919 0058 291C     		mov	r1, r5
 920 005a 0A31     		add	r1, r1, #10
 921 005c 89B2     		uxth	r1, r1
 922 005e 201C     		mov	r0, r4
 923 0060 FFF7FEFF 		bl	Sum_Make_Verify
 924              	.LVL32:
 925 0064 6219     		add	r2, r4, r5
 926 0066 9072     		strb	r0, [r2, #10]
 927 0068 03E0     		b	.L101
 928              	.L100:
 416:.\uart_wifi.c ****             //cBuf[iLength+10]=0x88;
 417:.\uart_wifi.c ****         }
 418:.\uart_wifi.c ****       else
 419:.\uart_wifi.c ****         {
 420:.\uart_wifi.c **** 	        cBuf[iLength+10] = Sum_Make_Verify(&cBuf[0],10);	
 929              		.loc 1 420 0
 930 006a 0A21     		mov	r1, #10
 931 006c FFF7FEFF 		bl	Sum_Make_Verify
 932              	.LVL33:
 933 0070 A072     		strb	r0, [r4, #10]
 934              	.L101:
 421:.\uart_wifi.c ****             
 422:.\uart_wifi.c ****         }
 423:.\uart_wifi.c ****        // xxxxx=cBuf[iLength+10];
 424:.\uart_wifi.c ****    // cBuf[iLength+10]=0x44;
 425:.\uart_wifi.c ****     //cBuf[iLength+10] = Sum_Make_Verify(&cBuf[0],10+iLength);    
 426:.\uart_wifi.c ****     Ack_Timer = 5;    
 935              		.loc 1 426 0
 936 0072 074F     		ldr	r7, .L103+8
 937 0074 0526     		mov	r6, #5
 938 0076 3E70     		strb	r6, [r7]
 427:.\uart_wifi.c ****     CyGlobalIntDisable;                  //应答时间设置
 939              		.loc 1 427 0
 940              	@ 427 ".\uart_wifi.c" 1
 941 0078 72B6     		CPSID   i
 942              	@ 0 "" 2
 428:.\uart_wifi.c **** 	  UART_SendData(cBuf,iLength+11);   ///The Last six 0x00 is PADDING
 943              		.loc 1 428 0
 944              		.code	16
 945 007a 0B35     		add	r5, r5, #11
 946 007c A9B2     		uxth	r1, r5
 947 007e 201C     		mov	r0, r4
 948 0080 FFF7FEFF 		bl	UART_SendData
 949              	.LVL34:
 429:.\uart_wifi.c **** 	  CyGlobalIntEnable;
 950              		.loc 1 429 0
 951              	@ 429 ".\uart_wifi.c" 1
 952 0084 62B6     		CPSIE   i
 953              	@ 0 "" 2
 430:.\uart_wifi.c **** }
 954              		.loc 1 430 0
 955              		.code	16
 956              		@ sp needed for prologue
 957 0086 F7BD     		pop	{r0, r1, r2, r4, r5, r6, r7, pc}
 958              	.L104:
ARM GAS  C:\Users\ZHANGM~1\AppData\Local\Temp\ccBCEiox.s 			page 26


 959              		.align	2
 960              	.L103:
 961 0088 00000000 		.word	.LANCHOR0
 962 008c 00000000 		.word	WifidatagramWorkFlag
 963 0090 00000000 		.word	Ack_Timer
 964              		.cfi_endproc
 965              	.LFE42:
 966              		.size	SendDataToWifi, .-SendDataToWifi
 967              		.section	.text.WifiSendAck,"ax",%progbits
 968              		.align	1
 969              		.global	WifiSendAck
 970              		.code	16
 971              		.thumb_func
 972              		.type	WifiSendAck, %function
 973              	WifiSendAck:
 974              	.LFB43:
 431:.\uart_wifi.c **** 
 432:.\uart_wifi.c **** void WifiSendAck(void)
 433:.\uart_wifi.c **** {
 975              		.loc 1 433 0
 976              		.cfi_startproc
 977 0000 08B5     		push	{r3, lr}
 978              	.LCFI9:
 979              		.cfi_def_cfa_offset 8
 980              		.cfi_offset 3, -8
 981              		.cfi_offset 14, -4
 434:.\uart_wifi.c **** 	SendDataToWifi(ACK_DATA,0x00,0,0);
 982              		.loc 1 434 0
 983 0002 0021     		mov	r1, #0
 984 0004 8020     		mov	r0, #128
 985 0006 0A1C     		mov	r2, r1
 986 0008 0B1C     		mov	r3, r1
 987 000a FFF7FEFF 		bl	SendDataToWifi
 988              	.LVL35:
 435:.\uart_wifi.c **** 
 436:.\uart_wifi.c **** }
 989              		.loc 1 436 0
 990              		@ sp needed for prologue
 991 000e 08BD     		pop	{r3, pc}
 992              		.cfi_endproc
 993              	.LFE43:
 994              		.size	WifiSendAck, .-WifiSendAck
 995              		.section	.text.Mcu_Handshake_Data,"ax",%progbits
 996              		.align	1
 997              		.global	Mcu_Handshake_Data
 998              		.code	16
 999              		.thumb_func
 1000              		.type	Mcu_Handshake_Data, %function
 1001              	Mcu_Handshake_Data:
 1002              	.LFB44:
 437:.\uart_wifi.c **** /*
 438:.\uart_wifi.c **** 	========================================================================
 439:.\uart_wifi.c **** ** 函数名称 ：JoinWIFI()
 440:.\uart_wifi.c **** ** 函数功能 ：连接WIFI模块                          
 441:.\uart_wifi.c **** ** 入口参数 ：
 442:.\uart_wifi.c **** 		    cIdx: The group Number
 443:.\uart_wifi.c **** 		    AckFlag:  1 Need wifi model send ack, 0 is not         
ARM GAS  C:\Users\ZHANGM~1\AppData\Local\Temp\ccBCEiox.s 			page 27


 444:.\uart_wifi.c **** ** 出口参数 ：无
 445:.\uart_wifi.c **** 	========================================================================
 446:.\uart_wifi.c **** */
 447:.\uart_wifi.c **** void Mcu_Handshake_Data(void)
 448:.\uart_wifi.c **** {
 1003              		.loc 1 448 0
 1004              		.cfi_startproc
 1005 0000 07B5     		push	{r0, r1, r2, lr}
 1006              	.LCFI10:
 1007              		.cfi_def_cfa_offset 16
 1008              		.cfi_offset 0, -16
 1009              		.cfi_offset 1, -12
 1010              		.cfi_offset 2, -8
 1011              		.cfi_offset 14, -4
 449:.\uart_wifi.c ****    uint8 cBuf[6];
 450:.\uart_wifi.c ****    cBuf[0]=0x20;  ////Command
 1012              		.loc 1 450 0
 1013 0002 2023     		mov	r3, #32
 1014 0004 6A46     		mov	r2, sp
 451:.\uart_wifi.c ****    cBuf[1]=0x00;
 452:.\uart_wifi.c ****    cBuf[2]=0x00;  ////Command
 453:.\uart_wifi.c ****    cBuf[3]=0x00;
 454:.\uart_wifi.c ****    cBuf[4]=0x00;  ////Command
 455:.\uart_wifi.c ****    cBuf[5]=0x14;   
 1015              		.loc 1 455 0
 1016 0006 1421     		mov	r1, #20
 451:.\uart_wifi.c ****    cBuf[1]=0x00;
 1017              		.loc 1 451 0
 1018 0008 0020     		mov	r0, #0
 450:.\uart_wifi.c ****    cBuf[0]=0x20;  ////Command
 1019              		.loc 1 450 0
 1020 000a 1370     		strb	r3, [r2]
 1021              		.loc 1 455 0
 1022 000c 5171     		strb	r1, [r2, #5]
 456:.\uart_wifi.c ****    SendDataToWifi(CTL_ACK_DATA,MCU_HANDSHAKE_DATA,cBuf,6);
 1023              		.loc 1 456 0
 1024 000e 0623     		mov	r3, #6
 1025 0010 0349     		ldr	r1, .L107
 451:.\uart_wifi.c ****    cBuf[1]=0x00;
 1026              		.loc 1 451 0
 1027 0012 5070     		strb	r0, [r2, #1]
 452:.\uart_wifi.c ****    cBuf[2]=0x00;  ////Command
 1028              		.loc 1 452 0
 1029 0014 9070     		strb	r0, [r2, #2]
 453:.\uart_wifi.c ****    cBuf[3]=0x00;
 1030              		.loc 1 453 0
 1031 0016 D070     		strb	r0, [r2, #3]
 454:.\uart_wifi.c ****    cBuf[4]=0x00;  ////Command
 1032              		.loc 1 454 0
 1033 0018 1071     		strb	r0, [r2, #4]
 457:.\uart_wifi.c **** }
 1034              		.loc 1 457 0
 1035              		@ sp needed for prologue
 456:.\uart_wifi.c ****    SendDataToWifi(CTL_ACK_DATA,MCU_HANDSHAKE_DATA,cBuf,6);
 1036              		.loc 1 456 0
 1037 001a FFF7FEFF 		bl	SendDataToWifi
 1038              	.LVL36:
ARM GAS  C:\Users\ZHANGM~1\AppData\Local\Temp\ccBCEiox.s 			page 28


 1039              		.loc 1 457 0
 1040 001e 07BD     		pop	{r0, r1, r2, pc}
 1041              	.L108:
 1042              		.align	2
 1043              	.L107:
 1044 0020 C0CC0000 		.word	52416
 1045              		.cfi_endproc
 1046              	.LFE44:
 1047              		.size	Mcu_Handshake_Data, .-Mcu_Handshake_Data
 1048              		.section	.text.App_Host_State,"ax",%progbits
 1049              		.align	1
 1050              		.global	App_Host_State
 1051              		.code	16
 1052              		.thumb_func
 1053              		.type	App_Host_State, %function
 1054              	App_Host_State:
 1055              	.LFB45:
 458:.\uart_wifi.c **** /*
 459:.\uart_wifi.c **** 	========================================================================
 460:.\uart_wifi.c **** ** 函数名称 APP_HOST_STATE()
 461:.\uart_wifi.c **** ** 函数功能 ：连接WIFI模块                          
 462:.\uart_wifi.c **** ** 入口参数 ：         
 463:.\uart_wifi.c **** ** 出口参数 ：无
 464:.\uart_wifi.c **** 	========================================================================
 465:.\uart_wifi.c **** */
 466:.\uart_wifi.c **** //void App_Host_State(void)
 467:.\uart_wifi.c **** //{
 468:.\uart_wifi.c **** //uint8 cBuf[16];
 469:.\uart_wifi.c **** //cBuf[0]=0x00;  
 470:.\uart_wifi.c **** //cBuf[1]=0x00;//ok
 471:.\uart_wifi.c **** //cBuf[2]=Work_State.all; //01待机 02制水中 03制水完成 04 冲洗
 472:.\uart_wifi.c **** //cBuf[3]=0x06; 	//滤芯级数	1	U8 (总级数)
 473:.\uart_wifi.c **** //cBuf[4]=Error_Counter;   
 474:.\uart_wifi.c **** //cBuf[5]=LianXuJiShi/600;  //工作状态	1	U8 见注2
 475:.\uart_wifi.c **** //cBuf[6]=jingshuiliang; //总净水量	2	U16(现在总净水量)
 476:.\uart_wifi.c **** //cBuf[7]=(jingshuiliang>>8); 
 477:.\uart_wifi.c **** //cBuf[8]=Value_Tds0; //TDS(原水)	2	U16(实际TDS值)
 478:.\uart_wifi.c **** //cBuf[9]=(Value_Tds0>>8);
 479:.\uart_wifi.c **** //cBuf[10]=Value_Tds1; //TDS(净水)	2	U16(实际TDS值)
 480:.\uart_wifi.c **** //cBuf[11]=(Value_Tds1>>8); 
 481:.\uart_wifi.c **** //cBuf[12]=Value_T; //温度	1	U8(实际温度值 
 482:.\uart_wifi.c **** //cBuf[13]=Value_Loushui_Ad; //漏水	2	U16(实际AD值)
 483:.\uart_wifi.c **** //cBuf[14]=(Value_Loushui_Ad>>8); 
 484:.\uart_wifi.c **** //cBuf[15]=Switch_Data.all; //高、低压开关状态	1	U8 见注    
 485:.\uart_wifi.c **** //SendDataToWifi(ACK_DATA,APP_HOST_STATE,cBuf,16);
 486:.\uart_wifi.c **** //}
 487:.\uart_wifi.c **** void App_Host_State(void)//debug
 488:.\uart_wifi.c **** {
 1056              		.loc 1 488 0
 1057              		.cfi_startproc
 1058 0000 1FB5     		push	{r0, r1, r2, r3, r4, lr}
 1059              	.LCFI11:
 1060              		.cfi_def_cfa_offset 24
 1061              		.cfi_offset 0, -24
 1062              		.cfi_offset 1, -20
 1063              		.cfi_offset 2, -16
 1064              		.cfi_offset 3, -12
ARM GAS  C:\Users\ZHANGM~1\AppData\Local\Temp\ccBCEiox.s 			page 29


 1065              		.cfi_offset 4, -8
 1066              		.cfi_offset 14, -4
 489:.\uart_wifi.c **** uint8 cBuf[16];
 490:.\uart_wifi.c **** cBuf[0]=0x00;  
 1067              		.loc 1 490 0
 1068 0002 0023     		mov	r3, #0
 1069 0004 6846     		mov	r0, sp
 491:.\uart_wifi.c **** cBuf[1]=0x00;//ok
 492:.\uart_wifi.c **** cBuf[2]=Work_State.all; //01待机 02制水中 03制水完成 04 冲洗
 1070              		.loc 1 492 0
 1071 0006 134A     		ldr	r2, .L110
 490:.\uart_wifi.c **** cBuf[0]=0x00;  
 1072              		.loc 1 490 0
 1073 0008 0370     		strb	r3, [r0]
 491:.\uart_wifi.c **** cBuf[1]=0x00;//ok
 1074              		.loc 1 491 0
 1075 000a 4370     		strb	r3, [r0, #1]
 1076              		.loc 1 492 0
 1077 000c 1188     		ldrh	r1, [r2]
 493:.\uart_wifi.c **** cBuf[3]=0x06; 	//滤芯级数	1	U8 (总级数)
 1078              		.loc 1 493 0
 1079 000e 0622     		mov	r2, #6
 492:.\uart_wifi.c **** cBuf[2]=Work_State.all; //01待机 02制水中 03制水完成 04 冲洗
 1080              		.loc 1 492 0
 1081 0010 8170     		strb	r1, [r0, #2]
 494:.\uart_wifi.c **** cBuf[4]=Error_Counter;   
 1082              		.loc 1 494 0
 1083 0012 1149     		ldr	r1, .L110+4
 493:.\uart_wifi.c **** cBuf[3]=0x06; 	//滤芯级数	1	U8 (总级数)
 1084              		.loc 1 493 0
 1085 0014 C270     		strb	r2, [r0, #3]
 1086              		.loc 1 494 0
 1087 0016 0A78     		ldrb	r2, [r1]
 495:.\uart_wifi.c **** cBuf[5]=60;  //工作状态	1	U8 见注2
 1088              		.loc 1 495 0
 1089 0018 3C21     		mov	r1, #60
 494:.\uart_wifi.c **** cBuf[4]=Error_Counter;   
 1090              		.loc 1 494 0
 1091 001a 0271     		strb	r2, [r0, #4]
 1092              		.loc 1 495 0
 1093 001c 4171     		strb	r1, [r0, #5]
 496:.\uart_wifi.c **** cBuf[6]=500; //总净水量	2	U16(现在总净水量)
 1094              		.loc 1 496 0
 1095 001e F422     		mov	r2, #244
 497:.\uart_wifi.c **** cBuf[7]=(500>>8); 
 1096              		.loc 1 497 0
 1097 0020 0121     		mov	r1, #1
 496:.\uart_wifi.c **** cBuf[6]=500; //总净水量	2	U16(现在总净水量)
 1098              		.loc 1 496 0
 1099 0022 8271     		strb	r2, [r0, #6]
 1100              		.loc 1 497 0
 1101 0024 C171     		strb	r1, [r0, #7]
 498:.\uart_wifi.c **** cBuf[8]=1000; //TDS(原水)	1000
 1102              		.loc 1 498 0
 1103 0026 E822     		mov	r2, #232
 499:.\uart_wifi.c **** cBuf[9]=(1000>>8);
 1104              		.loc 1 499 0
ARM GAS  C:\Users\ZHANGM~1\AppData\Local\Temp\ccBCEiox.s 			page 30


 1105 0028 0321     		mov	r1, #3
 498:.\uart_wifi.c **** cBuf[8]=1000; //TDS(原水)	1000
 1106              		.loc 1 498 0
 1107 002a 0272     		strb	r2, [r0, #8]
 1108              		.loc 1 499 0
 1109 002c 4172     		strb	r1, [r0, #9]
 500:.\uart_wifi.c **** cBuf[10]=100; //TDS(净水)	2	U16(实际TDS值)
 501:.\uart_wifi.c **** cBuf[11]=(100>>8); 
 1110              		.loc 1 501 0
 1111 002e C372     		strb	r3, [r0, #11]
 502:.\uart_wifi.c **** cBuf[12]=25; //温度	1	U8(实际温度值 
 503:.\uart_wifi.c **** cBuf[13]=100; //漏水	2	U16(实际AD值)
 504:.\uart_wifi.c **** cBuf[14]=(100>>8); 
 1112              		.loc 1 504 0
 1113 0030 8373     		strb	r3, [r0, #14]
 500:.\uart_wifi.c **** cBuf[10]=100; //TDS(净水)	2	U16(实际TDS值)
 1114              		.loc 1 500 0
 1115 0032 6422     		mov	r2, #100
 505:.\uart_wifi.c **** cBuf[15]=Switch_Data.all; //高、低压开关状态	1	U8 见注    
 1116              		.loc 1 505 0
 1117 0034 094B     		ldr	r3, .L110+8
 502:.\uart_wifi.c **** cBuf[12]=25; //温度	1	U8(实际温度值 
 1118              		.loc 1 502 0
 1119 0036 1921     		mov	r1, #25
 1120 0038 0173     		strb	r1, [r0, #12]
 500:.\uart_wifi.c **** cBuf[10]=100; //TDS(净水)	2	U16(实际TDS值)
 1121              		.loc 1 500 0
 1122 003a 8272     		strb	r2, [r0, #10]
 503:.\uart_wifi.c **** cBuf[13]=100; //漏水	2	U16(实际AD值)
 1123              		.loc 1 503 0
 1124 003c 4273     		strb	r2, [r0, #13]
 1125              		.loc 1 505 0
 1126 003e 1A88     		ldrh	r2, [r3]
 506:.\uart_wifi.c **** SendDataToWifi(ACK_DATA,APP_HOST_STATE,cBuf,16);
 1127              		.loc 1 506 0
 1128 0040 B221     		mov	r1, #178
 505:.\uart_wifi.c **** cBuf[15]=Switch_Data.all; //高、低压开关状态	1	U8 见注    
 1129              		.loc 1 505 0
 1130 0042 C273     		strb	r2, [r0, #15]
 1131              		.loc 1 506 0
 1132 0044 1023     		mov	r3, #16
 1133 0046 8020     		mov	r0, #128
 1134 0048 6A46     		mov	r2, sp
 1135 004a FFF7FEFF 		bl	SendDataToWifi
 1136              	.LVL37:
 507:.\uart_wifi.c **** }
 1137              		.loc 1 507 0
 1138 004e 05B0     		add	sp, sp, #20
 1139              		@ sp needed for prologue
 1140 0050 00BD     		pop	{pc}
 1141              	.L111:
 1142 0052 C046     		.align	2
 1143              	.L110:
 1144 0054 00000000 		.word	Work_State
 1145 0058 00000000 		.word	Error_Counter
 1146 005c 00000000 		.word	Switch_Data
 1147              		.cfi_endproc
ARM GAS  C:\Users\ZHANGM~1\AppData\Local\Temp\ccBCEiox.s 			page 31


 1148              	.LFE45:
 1149              		.size	App_Host_State, .-App_Host_State
 1150              		.section	.text.App_Filter_Changed_Data,"ax",%progbits
 1151              		.align	1
 1152              		.global	App_Filter_Changed_Data
 1153              		.code	16
 1154              		.thumb_func
 1155              		.type	App_Filter_Changed_Data, %function
 1156              	App_Filter_Changed_Data:
 1157              	.LFB46:
 508:.\uart_wifi.c **** //void App_Filter_Changed_Data(void)
 509:.\uart_wifi.c **** //{
 510:.\uart_wifi.c **** //	uint8 cBuf[8];
 511:.\uart_wifi.c **** //	cBuf[0]=0x00;  
 512:.\uart_wifi.c **** //	cBuf[1]=0x00;//ok
 513:.\uart_wifi.c **** //	cBuf[2]=Filter_Changed_Num[0]; 
 514:.\uart_wifi.c **** //	cBuf[3]=Filter_Changed_Num[1]; 	
 515:.\uart_wifi.c **** //	cBuf[4]=Filter_Changed_Num[2];   
 516:.\uart_wifi.c **** //	cBuf[5]=Filter_Changed_Num[3];  
 517:.\uart_wifi.c **** //	cBuf[6]=Filter_Changed_Num[4]; 
 518:.\uart_wifi.c **** //	cBuf[7]=Filter_Changed_Num[5]; 
 519:.\uart_wifi.c **** //	SendDataToWifi(ACK_DATA,APP_FILTER_CHANGED_DATA,cBuf,8);
 520:.\uart_wifi.c **** //}
 521:.\uart_wifi.c **** void App_Filter_Changed_Data(void)//debug
 522:.\uart_wifi.c **** {
 1158              		.loc 1 522 0
 1159              		.cfi_startproc
 1160 0000 07B5     		push	{r0, r1, r2, lr}
 1161              	.LCFI12:
 1162              		.cfi_def_cfa_offset 16
 1163              		.cfi_offset 0, -16
 1164              		.cfi_offset 1, -12
 1165              		.cfi_offset 2, -8
 1166              		.cfi_offset 14, -4
 523:.\uart_wifi.c **** 	uint8 cBuf[8];
 524:.\uart_wifi.c **** 	cBuf[0]=0x00;  
 1167              		.loc 1 524 0
 1168 0002 0023     		mov	r3, #0
 1169 0004 6A46     		mov	r2, sp
 1170 0006 1370     		strb	r3, [r2]
 525:.\uart_wifi.c **** 	cBuf[1]=0x00;//ok
 1171              		.loc 1 525 0
 1172 0008 5370     		strb	r3, [r2, #1]
 526:.\uart_wifi.c **** 	cBuf[2]=1; 
 1173              		.loc 1 526 0
 1174 000a 0120     		mov	r0, #1
 527:.\uart_wifi.c **** 	cBuf[3]=2; 	
 1175              		.loc 1 527 0
 1176 000c 0221     		mov	r1, #2
 528:.\uart_wifi.c **** 	cBuf[4]=3;   
 1177              		.loc 1 528 0
 1178 000e 0323     		mov	r3, #3
 526:.\uart_wifi.c **** 	cBuf[2]=1; 
 1179              		.loc 1 526 0
 1180 0010 9070     		strb	r0, [r2, #2]
 527:.\uart_wifi.c **** 	cBuf[3]=2; 	
 1181              		.loc 1 527 0
ARM GAS  C:\Users\ZHANGM~1\AppData\Local\Temp\ccBCEiox.s 			page 32


 1182 0012 D170     		strb	r1, [r2, #3]
 1183              		.loc 1 528 0
 1184 0014 1371     		strb	r3, [r2, #4]
 529:.\uart_wifi.c **** 	cBuf[5]=4;  
 1185              		.loc 1 529 0
 1186 0016 0420     		mov	r0, #4
 530:.\uart_wifi.c **** 	cBuf[6]=5; 
 1187              		.loc 1 530 0
 1188 0018 0521     		mov	r1, #5
 531:.\uart_wifi.c **** 	cBuf[7]=6; 
 1189              		.loc 1 531 0
 1190 001a 0623     		mov	r3, #6
 529:.\uart_wifi.c **** 	cBuf[5]=4;  
 1191              		.loc 1 529 0
 1192 001c 5071     		strb	r0, [r2, #5]
 530:.\uart_wifi.c **** 	cBuf[6]=5; 
 1193              		.loc 1 530 0
 1194 001e 9171     		strb	r1, [r2, #6]
 1195              		.loc 1 531 0
 1196 0020 D371     		strb	r3, [r2, #7]
 532:.\uart_wifi.c **** 	SendDataToWifi(ACK_DATA,APP_FILTER_CHANGED_DATA,cBuf,8);
 1197              		.loc 1 532 0
 1198 0022 8020     		mov	r0, #128
 1199 0024 B521     		mov	r1, #181
 1200 0026 0823     		mov	r3, #8
 1201 0028 FFF7FEFF 		bl	SendDataToWifi
 1202              	.LVL38:
 533:.\uart_wifi.c **** }
 1203              		.loc 1 533 0
 1204              		@ sp needed for prologue
 1205 002c 07BD     		pop	{r0, r1, r2, pc}
 1206              		.cfi_endproc
 1207              	.LFE46:
 1208              		.size	App_Filter_Changed_Data, .-App_Filter_Changed_Data
 1209              		.section	.text.App_Error_Data,"ax",%progbits
 1210              		.align	1
 1211              		.global	App_Error_Data
 1212              		.code	16
 1213              		.thumb_func
 1214              		.type	App_Error_Data, %function
 1215              	App_Error_Data:
 1216              	.LFB47:
 534:.\uart_wifi.c **** void App_Error_Data(void)
 535:.\uart_wifi.c **** {
 1217              		.loc 1 535 0
 1218              		.cfi_startproc
 1219 0000 10B5     		push	{r4, lr}
 1220              	.LCFI13:
 1221              		.cfi_def_cfa_offset 8
 1222              		.cfi_offset 4, -8
 1223              		.cfi_offset 14, -4
 536:.\uart_wifi.c **** 	uint8 cBuf[21];
 537:.\uart_wifi.c **** 	cBuf[0]=0x00;  
 538:.\uart_wifi.c **** 	cBuf[1]=0x00;//ok
 539:.\uart_wifi.c **** 	cBuf[2]=Error_Counter;
 1224              		.loc 1 539 0
 1225 0002 0B48     		ldr	r0, .L114
ARM GAS  C:\Users\ZHANGM~1\AppData\Local\Temp\ccBCEiox.s 			page 33


 535:.\uart_wifi.c **** {
 1226              		.loc 1 535 0
 1227 0004 86B0     		sub	sp, sp, #24
 1228              	.LCFI14:
 1229              		.cfi_def_cfa_offset 32
 1230              		.loc 1 539 0
 1231 0006 0478     		ldrb	r4, [r0]
 537:.\uart_wifi.c **** 	cBuf[0]=0x00;  
 1232              		.loc 1 537 0
 1233 0008 6A46     		mov	r2, sp
 1234 000a 0023     		mov	r3, #0
 1235              		.loc 1 539 0
 1236 000c 9470     		strb	r4, [r2, #2]
 540:.\uart_wifi.c **** 	memcpy(&cBuf[3],Error_Data_Buf,Error_Counter*2);	
 1237              		.loc 1 540 0
 1238 000e 6846     		mov	r0, sp
 1239 0010 6400     		lsl	r4, r4, #1
 537:.\uart_wifi.c **** 	cBuf[0]=0x00;  
 1240              		.loc 1 537 0
 1241 0012 1370     		strb	r3, [r2]
 538:.\uart_wifi.c **** 	cBuf[1]=0x00;//ok
 1242              		.loc 1 538 0
 1243 0014 5370     		strb	r3, [r2, #1]
 1244              		.loc 1 540 0
 1245 0016 0749     		ldr	r1, .L114+4
 1246 0018 221C     		mov	r2, r4
 1247 001a 0330     		add	r0, r0, #3
 1248 001c FFF7FEFF 		bl	memcpy
 1249              	.LVL39:
 541:.\uart_wifi.c **** 	SendDataToWifi(ACK_DATA,APP_ERROR_DATA,cBuf,Error_Counter*2+3);
 1250              		.loc 1 541 0
 1251 0020 E31C     		add	r3, r4, #3
 1252 0022 8020     		mov	r0, #128
 1253 0024 B421     		mov	r1, #180
 1254 0026 6A46     		mov	r2, sp
 1255 0028 FFF7FEFF 		bl	SendDataToWifi
 1256              	.LVL40:
 542:.\uart_wifi.c **** }
 1257              		.loc 1 542 0
 1258 002c 06B0     		add	sp, sp, #24
 1259              		@ sp needed for prologue
 1260 002e 10BD     		pop	{r4, pc}
 1261              	.L115:
 1262              		.align	2
 1263              	.L114:
 1264 0030 00000000 		.word	Error_Counter
 1265 0034 00000000 		.word	Error_Data_Buf
 1266              		.cfi_endproc
 1267              	.LFE47:
 1268              		.size	App_Error_Data, .-App_Error_Data
 1269              		.section	.text.App_Filter_Used_Time_Data,"ax",%progbits
 1270              		.align	1
 1271              		.global	App_Filter_Used_Time_Data
 1272              		.code	16
 1273              		.thumb_func
 1274              		.type	App_Filter_Used_Time_Data, %function
 1275              	App_Filter_Used_Time_Data:
ARM GAS  C:\Users\ZHANGM~1\AppData\Local\Temp\ccBCEiox.s 			page 34


 1276              	.LFB48:
 543:.\uart_wifi.c **** //void App_Filter_Used_Time_Data(void)
 544:.\uart_wifi.c **** //{
 545:.\uart_wifi.c **** //	uint8 cBuf[15];
 546:.\uart_wifi.c **** //	cBuf[0]=0x00;  
 547:.\uart_wifi.c **** //	cBuf[1]=0x00;//ok
 548:.\uart_wifi.c **** //	cBuf[2]=0x06;  	//滤芯级数
 549:.\uart_wifi.c **** //	cBuf[3]=LvxinJishi[0];  	//滤芯数据0	2	U16(实际滤芯使用时间值)
 550:.\uart_wifi.c **** //	cBuf[4]=(LvxinJishi[0]>>8);
 551:.\uart_wifi.c **** //	cBuf[5]=LvxinJishi[1];  	//滤芯数据0	2	U16(实际滤芯使用时间值)
 552:.\uart_wifi.c **** //	cBuf[6]=(LvxinJishi[1]>>8);
 553:.\uart_wifi.c **** //	cBuf[7]=LvxinJishi[2];  	//滤芯数据0	2	U16(实际滤芯使用时间值)
 554:.\uart_wifi.c **** //	cBuf[8]=(LvxinJishi[2]>>8);
 555:.\uart_wifi.c **** //	cBuf[9]=LvxinJishi[3];  	//滤芯数据0	2	U16(实际滤芯使用时间值)
 556:.\uart_wifi.c **** //	cBuf[10]=(LvxinJishi[3]>>8); 
 557:.\uart_wifi.c **** //	cBuf[11]=LvxinJishi[4];  	//滤芯数据0	2	U16(实际滤芯使用时间值)
 558:.\uart_wifi.c **** //	cBuf[12]=(LvxinJishi[4]>>8); 
 559:.\uart_wifi.c **** //	cBuf[13]=LvxinJishi[5];  	//滤芯数据0	2	U16(实际滤芯使用时间值)
 560:.\uart_wifi.c **** //	cBuf[14]=(LvxinJishi[5]>>8); 
 561:.\uart_wifi.c **** //	SendDataToWifi(ACK_DATA,APP_FILTER_CHANGED_DATA,cBuf,15);
 562:.\uart_wifi.c **** //}
 563:.\uart_wifi.c **** void App_Filter_Used_Time_Data(void)
 564:.\uart_wifi.c **** {
 1277              		.loc 1 564 0
 1278              		.cfi_startproc
 1279 0000 1FB5     		push	{r0, r1, r2, r3, r4, lr}
 1280              	.LCFI15:
 1281              		.cfi_def_cfa_offset 24
 1282              		.cfi_offset 0, -24
 1283              		.cfi_offset 1, -20
 1284              		.cfi_offset 2, -16
 1285              		.cfi_offset 3, -12
 1286              		.cfi_offset 4, -8
 1287              		.cfi_offset 14, -4
 565:.\uart_wifi.c **** 	uint8 cBuf[15];
 566:.\uart_wifi.c **** 	cBuf[0]=0x00;  
 1288              		.loc 1 566 0
 1289 0002 0023     		mov	r3, #0
 1290 0004 6946     		mov	r1, sp
 567:.\uart_wifi.c **** 	cBuf[1]=0x00;//ok
 568:.\uart_wifi.c **** 	cBuf[2]=0x06;  	//滤芯级数
 569:.\uart_wifi.c **** 	cBuf[3]=500;  	//滤芯数据0	2	U16(实际滤芯使用时间值)
 1291              		.loc 1 569 0
 1292 0006 F422     		mov	r2, #244
 566:.\uart_wifi.c **** 	cBuf[0]=0x00;  
 1293              		.loc 1 566 0
 1294 0008 0B70     		strb	r3, [r1]
 567:.\uart_wifi.c **** 	cBuf[1]=0x00;//ok
 1295              		.loc 1 567 0
 1296 000a 4B70     		strb	r3, [r1, #1]
 568:.\uart_wifi.c **** 	cBuf[2]=0x06;  	//滤芯级数
 1297              		.loc 1 568 0
 1298 000c 0620     		mov	r0, #6
 570:.\uart_wifi.c **** 	cBuf[4]=(500>>8);
 1299              		.loc 1 570 0
 1300 000e 0123     		mov	r3, #1
 568:.\uart_wifi.c **** 	cBuf[2]=0x06;  	//滤芯级数
ARM GAS  C:\Users\ZHANGM~1\AppData\Local\Temp\ccBCEiox.s 			page 35


 1301              		.loc 1 568 0
 1302 0010 8870     		strb	r0, [r1, #2]
 569:.\uart_wifi.c **** 	cBuf[3]=500;  	//滤芯数据0	2	U16(实际滤芯使用时间值)
 1303              		.loc 1 569 0
 1304 0012 CA70     		strb	r2, [r1, #3]
 1305              		.loc 1 570 0
 1306 0014 0B71     		strb	r3, [r1, #4]
 571:.\uart_wifi.c **** 	cBuf[5]=500;  	//滤芯数据0	2	U16(实际滤芯使用时间值)
 1307              		.loc 1 571 0
 1308 0016 4A71     		strb	r2, [r1, #5]
 572:.\uart_wifi.c **** 	cBuf[6]=(500>>8);
 1309              		.loc 1 572 0
 1310 0018 8B71     		strb	r3, [r1, #6]
 573:.\uart_wifi.c **** 	cBuf[7]=500;  	//滤芯数据0	2	U16(实际滤芯使用时间值)
 1311              		.loc 1 573 0
 1312 001a CA71     		strb	r2, [r1, #7]
 574:.\uart_wifi.c **** 	cBuf[8]=(500>>8);
 1313              		.loc 1 574 0
 1314 001c 0B72     		strb	r3, [r1, #8]
 575:.\uart_wifi.c **** 	cBuf[9]=500;  	//滤芯数据0	2	U16(实际滤芯使用时间值)
 1315              		.loc 1 575 0
 1316 001e 4A72     		strb	r2, [r1, #9]
 576:.\uart_wifi.c **** 	cBuf[10]=(500>>8); 
 1317              		.loc 1 576 0
 1318 0020 8B72     		strb	r3, [r1, #10]
 577:.\uart_wifi.c **** 	cBuf[11]=500;  	//滤芯数据0	2	U16(实际滤芯使用时间值)
 1319              		.loc 1 577 0
 1320 0022 CA72     		strb	r2, [r1, #11]
 578:.\uart_wifi.c **** 	cBuf[12]=(500>>8); 
 1321              		.loc 1 578 0
 1322 0024 0B73     		strb	r3, [r1, #12]
 579:.\uart_wifi.c **** 	cBuf[13]=500;  	//滤芯数据0	2	U16(实际滤芯使用时间值)
 1323              		.loc 1 579 0
 1324 0026 4A73     		strb	r2, [r1, #13]
 580:.\uart_wifi.c **** 	cBuf[14]=(500>>8); 
 1325              		.loc 1 580 0
 1326 0028 8B73     		strb	r3, [r1, #14]
 581:.\uart_wifi.c **** 	SendDataToWifi(ACK_DATA,APP_FILTER_CHANGED_DATA,cBuf,15);
 1327              		.loc 1 581 0
 1328 002a 8020     		mov	r0, #128
 1329 002c B521     		mov	r1, #181
 1330 002e 6A46     		mov	r2, sp
 1331 0030 0F23     		mov	r3, #15
 1332 0032 FFF7FEFF 		bl	SendDataToWifi
 1333              	.LVL41:
 582:.\uart_wifi.c **** }
 1334              		.loc 1 582 0
 1335 0036 05B0     		add	sp, sp, #20
 1336              		@ sp needed for prologue
 1337 0038 00BD     		pop	{pc}
 1338              		.cfi_endproc
 1339              	.LFE48:
 1340              		.size	App_Filter_Used_Time_Data, .-App_Filter_Used_Time_Data
 1341              		.section	.text.Wifi_Senddingstate_Data,"ax",%progbits
 1342              		.align	1
 1343              		.global	Wifi_Senddingstate_Data
 1344              		.code	16
ARM GAS  C:\Users\ZHANGM~1\AppData\Local\Temp\ccBCEiox.s 			page 36


 1345              		.thumb_func
 1346              		.type	Wifi_Senddingstate_Data, %function
 1347              	Wifi_Senddingstate_Data:
 1348              	.LFB49:
 583:.\uart_wifi.c **** void Wifi_Senddingstate_Data(void)
 584:.\uart_wifi.c **** {
 1349              		.loc 1 584 0
 1350              		.cfi_startproc
 1351 0000 07B5     		push	{r0, r1, r2, lr}
 1352              	.LCFI16:
 1353              		.cfi_def_cfa_offset 16
 1354              		.cfi_offset 0, -16
 1355              		.cfi_offset 1, -12
 1356              		.cfi_offset 2, -8
 1357              		.cfi_offset 14, -4
 585:.\uart_wifi.c **** 	uint8 cBuf[2];
 586:.\uart_wifi.c **** 	cBuf[0]=0x00;
 1358              		.loc 1 586 0
 1359 0002 0023     		mov	r3, #0
 1360 0004 01AA     		add	r2, sp, #4
 1361 0006 1370     		strb	r3, [r2]
 587:.\uart_wifi.c **** 	cBuf[1]=0x00;
 1362              		.loc 1 587 0
 1363 0008 5370     		strb	r3, [r2, #1]
 588:.\uart_wifi.c **** 	SendDataToWifi(ACK_DATA,WIFI_SENDDINGSTATE_DATA,cBuf,2);
 1364              		.loc 1 588 0
 1365 000a 8020     		mov	r0, #128
 1366 000c 0249     		ldr	r1, .L118
 1367 000e 0223     		mov	r3, #2
 1368 0010 FFF7FEFF 		bl	SendDataToWifi
 1369              	.LVL42:
 589:.\uart_wifi.c **** }
 1370              		.loc 1 589 0
 1371              		@ sp needed for prologue
 1372 0014 07BD     		pop	{r0, r1, r2, pc}
 1373              	.L119:
 1374 0016 C046     		.align	2
 1375              	.L118:
 1376 0018 D0CC0000 		.word	52432
 1377              		.cfi_endproc
 1378              	.LFE49:
 1379              		.size	Wifi_Senddingstate_Data, .-Wifi_Senddingstate_Data
 1380              		.section	.text.App_Search_Filter_Manage_Num,"ax",%progbits
 1381              		.align	1
 1382              		.global	App_Search_Filter_Manage_Num
 1383              		.code	16
 1384              		.thumb_func
 1385              		.type	App_Search_Filter_Manage_Num, %function
 1386              	App_Search_Filter_Manage_Num:
 1387              	.LFB50:
 590:.\uart_wifi.c **** /*
 591:.\uart_wifi.c **** 	========================================================================
 592:.\uart_wifi.c **** ** 函数名称 APP_HOST_STATE()
 593:.\uart_wifi.c **** ** 函数功能 ：连接WIFI模块                          
 594:.\uart_wifi.c **** ** 入口参数 ：         
 595:.\uart_wifi.c **** ** 出口参数 ：无
 596:.\uart_wifi.c **** 	========================================================================
ARM GAS  C:\Users\ZHANGM~1\AppData\Local\Temp\ccBCEiox.s 			page 37


 597:.\uart_wifi.c **** */
 598:.\uart_wifi.c **** void App_Search_Filter_Manage_Num(void)
 599:.\uart_wifi.c **** {
 1388              		.loc 1 599 0
 1389              		.cfi_startproc
 1390 0000 07B5     		push	{r0, r1, r2, lr}
 1391              	.LCFI17:
 1392              		.cfi_def_cfa_offset 16
 1393              		.cfi_offset 0, -16
 1394              		.cfi_offset 1, -12
 1395              		.cfi_offset 2, -8
 1396              		.cfi_offset 14, -4
 600:.\uart_wifi.c **** 	uint8 cBuf[3];
 601:.\uart_wifi.c **** 	cBuf[0]=0x00;  
 602:.\uart_wifi.c **** 	cBuf[1]=0x00;//ok
 603:.\uart_wifi.c **** 	cBuf[2]=NBfig;
 1397              		.loc 1 603 0
 1398 0002 0648     		ldr	r0, .L121
 601:.\uart_wifi.c **** 	cBuf[0]=0x00;  
 1399              		.loc 1 601 0
 1400 0004 01AA     		add	r2, sp, #4
 1401              		.loc 1 603 0
 1402 0006 0178     		ldrb	r1, [r0]
 601:.\uart_wifi.c **** 	cBuf[0]=0x00;  
 1403              		.loc 1 601 0
 1404 0008 0023     		mov	r3, #0
 1405 000a 1370     		strb	r3, [r2]
 602:.\uart_wifi.c **** 	cBuf[1]=0x00;//ok
 1406              		.loc 1 602 0
 1407 000c 5370     		strb	r3, [r2, #1]
 1408              		.loc 1 603 0
 1409 000e 9170     		strb	r1, [r2, #2]
 604:.\uart_wifi.c **** 	SendDataToWifi(ACK_DATA,APP_SEARCH_FILTER_MANAGE_NUM,cBuf,3);
 1410              		.loc 1 604 0
 1411 0010 8020     		mov	r0, #128
 1412 0012 B121     		mov	r1, #177
 1413 0014 0323     		mov	r3, #3
 1414 0016 FFF7FEFF 		bl	SendDataToWifi
 1415              	.LVL43:
 605:.\uart_wifi.c **** }
 1416              		.loc 1 605 0
 1417              		@ sp needed for prologue
 1418 001a 07BD     		pop	{r0, r1, r2, pc}
 1419              	.L122:
 1420              		.align	2
 1421              	.L121:
 1422 001c 00000000 		.word	NBfig
 1423              		.cfi_endproc
 1424              	.LFE50:
 1425              		.size	App_Search_Filter_Manage_Num, .-App_Search_Filter_Manage_Num
 1426              		.section	.text.App_Download_Filter_Manage_Num,"ax",%progbits
 1427              		.align	1
 1428              		.global	App_Download_Filter_Manage_Num
 1429              		.code	16
 1430              		.thumb_func
 1431              		.type	App_Download_Filter_Manage_Num, %function
 1432              	App_Download_Filter_Manage_Num:
ARM GAS  C:\Users\ZHANGM~1\AppData\Local\Temp\ccBCEiox.s 			page 38


 1433              	.LFB51:
 606:.\uart_wifi.c **** /*
 607:.\uart_wifi.c **** 	========================================================================
 608:.\uart_wifi.c **** ** 函数名称 App_Download_Filter_Manage_Num()
 609:.\uart_wifi.c **** ** 函数功能 ：连接WIFI模块                          
 610:.\uart_wifi.c **** ** 入口参数 ：         
 611:.\uart_wifi.c **** ** 出口参数 ：无
 612:.\uart_wifi.c **** 	========================================================================
 613:.\uart_wifi.c **** */
 614:.\uart_wifi.c **** void App_Download_Filter_Manage_Num(void)
 615:.\uart_wifi.c **** {
 1434              		.loc 1 615 0
 1435              		.cfi_startproc
 1436 0000 07B5     		push	{r0, r1, r2, lr}
 1437              	.LCFI18:
 1438              		.cfi_def_cfa_offset 16
 1439              		.cfi_offset 0, -16
 1440              		.cfi_offset 1, -12
 1441              		.cfi_offset 2, -8
 1442              		.cfi_offset 14, -4
 616:.\uart_wifi.c **** 	uint8 cBuf[2];
 617:.\uart_wifi.c **** 	cBuf[0]=0x00;
 1443              		.loc 1 617 0
 1444 0002 0023     		mov	r3, #0
 1445 0004 01AA     		add	r2, sp, #4
 1446 0006 1370     		strb	r3, [r2]
 618:.\uart_wifi.c **** 	cBuf[1]=0x00;
 1447              		.loc 1 618 0
 1448 0008 5370     		strb	r3, [r2, #1]
 619:.\uart_wifi.c **** 	SendDataToWifi(ACK_DATA,APP_DOWNLOAD_FILTER_MANAGE_NUM,cBuf,2);
 1449              		.loc 1 619 0
 1450 000a 8020     		mov	r0, #128
 1451 000c A221     		mov	r1, #162
 1452 000e 0223     		mov	r3, #2
 1453 0010 FFF7FEFF 		bl	SendDataToWifi
 1454              	.LVL44:
 620:.\uart_wifi.c **** }
 1455              		.loc 1 620 0
 1456              		@ sp needed for prologue
 1457 0014 07BD     		pop	{r0, r1, r2, pc}
 1458              		.cfi_endproc
 1459              	.LFE51:
 1460              		.size	App_Download_Filter_Manage_Num, .-App_Download_Filter_Manage_Num
 1461              		.section	.text.App_Poweron,"ax",%progbits
 1462              		.align	1
 1463              		.global	App_Poweron
 1464              		.code	16
 1465              		.thumb_func
 1466              		.type	App_Poweron, %function
 1467              	App_Poweron:
 1468              	.LFB52:
 621:.\uart_wifi.c **** /*
 622:.\uart_wifi.c **** 	========================================================================
 623:.\uart_wifi.c **** ** 函数名称 App_Poweron()
 624:.\uart_wifi.c **** ** 函数功能 ：连接WIFI模块                          
 625:.\uart_wifi.c **** ** 入口参数 ：         
 626:.\uart_wifi.c **** ** 出口参数 ：无
ARM GAS  C:\Users\ZHANGM~1\AppData\Local\Temp\ccBCEiox.s 			page 39


 627:.\uart_wifi.c **** 	========================================================================
 628:.\uart_wifi.c **** */
 629:.\uart_wifi.c **** void App_Poweron(void)
 630:.\uart_wifi.c **** {
 1469              		.loc 1 630 0
 1470              		.cfi_startproc
 1471 0000 07B5     		push	{r0, r1, r2, lr}
 1472              	.LCFI19:
 1473              		.cfi_def_cfa_offset 16
 1474              		.cfi_offset 0, -16
 1475              		.cfi_offset 1, -12
 1476              		.cfi_offset 2, -8
 1477              		.cfi_offset 14, -4
 631:.\uart_wifi.c **** 		uint8 cBuf[2];
 632:.\uart_wifi.c **** 		cBuf[0]=0x00;
 1478              		.loc 1 632 0
 1479 0002 0023     		mov	r3, #0
 1480 0004 01AA     		add	r2, sp, #4
 1481 0006 1370     		strb	r3, [r2]
 633:.\uart_wifi.c **** 		cBuf[1]=0x00;
 1482              		.loc 1 633 0
 1483 0008 5370     		strb	r3, [r2, #1]
 634:.\uart_wifi.c **** 		SendDataToWifi(ACK_DATA,APP_POWERON,cBuf,2);
 1484              		.loc 1 634 0
 1485 000a 8020     		mov	r0, #128
 1486 000c A021     		mov	r1, #160
 1487 000e 0223     		mov	r3, #2
 1488 0010 FFF7FEFF 		bl	SendDataToWifi
 1489              	.LVL45:
 635:.\uart_wifi.c **** }
 1490              		.loc 1 635 0
 1491              		@ sp needed for prologue
 1492 0014 07BD     		pop	{r0, r1, r2, pc}
 1493              		.cfi_endproc
 1494              	.LFE52:
 1495              		.size	App_Poweron, .-App_Poweron
 1496              		.section	.text.App_Poweroff,"ax",%progbits
 1497              		.align	1
 1498              		.global	App_Poweroff
 1499              		.code	16
 1500              		.thumb_func
 1501              		.type	App_Poweroff, %function
 1502              	App_Poweroff:
 1503              	.LFB53:
 636:.\uart_wifi.c **** /*
 637:.\uart_wifi.c **** 	========================================================================
 638:.\uart_wifi.c **** ** 函数名称 App_Poweroff()
 639:.\uart_wifi.c **** ** 函数功能 ：连接WIFI模块                          
 640:.\uart_wifi.c **** ** 入口参数 ：         
 641:.\uart_wifi.c **** ** 出口参数 ：无
 642:.\uart_wifi.c **** 	========================================================================
 643:.\uart_wifi.c **** */
 644:.\uart_wifi.c **** void App_Poweroff(void)
 645:.\uart_wifi.c **** {
 1504              		.loc 1 645 0
 1505              		.cfi_startproc
 1506 0000 07B5     		push	{r0, r1, r2, lr}
ARM GAS  C:\Users\ZHANGM~1\AppData\Local\Temp\ccBCEiox.s 			page 40


 1507              	.LCFI20:
 1508              		.cfi_def_cfa_offset 16
 1509              		.cfi_offset 0, -16
 1510              		.cfi_offset 1, -12
 1511              		.cfi_offset 2, -8
 1512              		.cfi_offset 14, -4
 646:.\uart_wifi.c **** 		uint8 cBuf[2];
 647:.\uart_wifi.c **** 		cBuf[0]=0x00;
 1513              		.loc 1 647 0
 1514 0002 0023     		mov	r3, #0
 1515 0004 01AA     		add	r2, sp, #4
 1516 0006 1370     		strb	r3, [r2]
 648:.\uart_wifi.c **** 		cBuf[1]=0x00;
 1517              		.loc 1 648 0
 1518 0008 5370     		strb	r3, [r2, #1]
 649:.\uart_wifi.c **** 		SendDataToWifi(ACK_DATA,APP_POWEROFF,cBuf,2);
 1519              		.loc 1 649 0
 1520 000a 8020     		mov	r0, #128
 1521 000c A121     		mov	r1, #161
 1522 000e 0223     		mov	r3, #2
 1523 0010 FFF7FEFF 		bl	SendDataToWifi
 1524              	.LVL46:
 650:.\uart_wifi.c **** }
 1525              		.loc 1 650 0
 1526              		@ sp needed for prologue
 1527 0014 07BD     		pop	{r0, r1, r2, pc}
 1528              		.cfi_endproc
 1529              	.LFE53:
 1530              		.size	App_Poweroff, .-App_Poweroff
 1531              		.section	.text.Mcu_Poweronsmartlink_Data,"ax",%progbits
 1532              		.align	1
 1533              		.global	Mcu_Poweronsmartlink_Data
 1534              		.code	16
 1535              		.thumb_func
 1536              		.type	Mcu_Poweronsmartlink_Data, %function
 1537              	Mcu_Poweronsmartlink_Data:
 1538              	.LFB54:
 651:.\uart_wifi.c **** /*
 652:.\uart_wifi.c **** 	========================================================================
 653:.\uart_wifi.c **** ** 函数名称 ：Mcu_Poweronsmartlink_Data()
 654:.\uart_wifi.c **** ** 函数功能 ：Mcu_Poweronsmartlink_Data                          
 655:.\uart_wifi.c **** ** 入口参数 ：
 656:.\uart_wifi.c ****         
 657:.\uart_wifi.c **** ** 出口参数 ：无
 658:.\uart_wifi.c **** 	========================================================================
 659:.\uart_wifi.c **** */
 660:.\uart_wifi.c **** void Mcu_Poweronsmartlink_Data(void)
 661:.\uart_wifi.c **** {
 1539              		.loc 1 661 0
 1540              		.cfi_startproc
 1541 0000 08B5     		push	{r3, lr}
 1542              	.LCFI21:
 1543              		.cfi_def_cfa_offset 8
 1544              		.cfi_offset 3, -8
 1545              		.cfi_offset 14, -4
 662:.\uart_wifi.c ****    SendDataToWifi(CTL_ACK_DATA,MCU_POWERONSMARTLINK_DATA,0,0);
 1546              		.loc 1 662 0
ARM GAS  C:\Users\ZHANGM~1\AppData\Local\Temp\ccBCEiox.s 			page 41


 1547 0002 0020     		mov	r0, #0
 1548 0004 0249     		ldr	r1, .L127
 1549 0006 021C     		mov	r2, r0
 1550 0008 031C     		mov	r3, r0
 1551 000a FFF7FEFF 		bl	SendDataToWifi
 1552              	.LVL47:
 663:.\uart_wifi.c **** }
 1553              		.loc 1 663 0
 1554              		@ sp needed for prologue
 1555 000e 08BD     		pop	{r3, pc}
 1556              	.L128:
 1557              		.align	2
 1558              	.L127:
 1559 0010 C2CC0000 		.word	52418
 1560              		.cfi_endproc
 1561              	.LFE54:
 1562              		.size	Mcu_Poweronsmartlink_Data, .-Mcu_Poweronsmartlink_Data
 1563              		.section	.text.Mcu_Firmware_Update,"ax",%progbits
 1564              		.align	1
 1565              		.global	Mcu_Firmware_Update
 1566              		.code	16
 1567              		.thumb_func
 1568              		.type	Mcu_Firmware_Update, %function
 1569              	Mcu_Firmware_Update:
 1570              	.LFB55:
 664:.\uart_wifi.c **** /*
 665:.\uart_wifi.c **** 	========================================================================
 666:.\uart_wifi.c **** ** 函数名称 Clean_All_User_Bound()
 667:.\uart_wifi.c **** ** 函数功能 ：连接WIFI模块                          
 668:.\uart_wifi.c **** ** 入口参数 ：        
 669:.\uart_wifi.c **** ** 出口参数 ：无
 670:.\uart_wifi.c **** 	========================================================================
 671:.\uart_wifi.c **** */
 672:.\uart_wifi.c **** //void Clean_All_User_Bound(void)
 673:.\uart_wifi.c **** //{
 674:.\uart_wifi.c **** //   SendDataToWifi(CTL_ACK_DATA,MCU_CLEARALLUSERBOUND_DATA,0,0);
 675:.\uart_wifi.c **** //}
 676:.\uart_wifi.c **** void Mcu_Firmware_Update(void)
 677:.\uart_wifi.c **** {
 1571              		.loc 1 677 0
 1572              		.cfi_startproc
 1573 0000 07B5     		push	{r0, r1, r2, lr}
 1574              	.LCFI22:
 1575              		.cfi_def_cfa_offset 16
 1576              		.cfi_offset 0, -16
 1577              		.cfi_offset 1, -12
 1578              		.cfi_offset 2, -8
 1579              		.cfi_offset 14, -4
 678:.\uart_wifi.c **** 	  uint8 cBuf[2];
 679:.\uart_wifi.c ****   	cBuf[0] = 0x00;				 //
 680:.\uart_wifi.c ****   	cBuf[1] = 0xff;				 //固件升级长度
 1580              		.loc 1 680 0
 1581 0002 FF23     		mov	r3, #255
 679:.\uart_wifi.c ****   	cBuf[0] = 0x00;				 //
 1582              		.loc 1 679 0
 1583 0004 01AA     		add	r2, sp, #4
 1584 0006 0020     		mov	r0, #0
ARM GAS  C:\Users\ZHANGM~1\AppData\Local\Temp\ccBCEiox.s 			page 42


 1585              		.loc 1 680 0
 1586 0008 5370     		strb	r3, [r2, #1]
 681:.\uart_wifi.c ****   	SendDataToWifi(CTL_ACK_DATA,MCU_FIRMWARE_UPDATE,cBuf,2);	
 1587              		.loc 1 681 0
 1588 000a 0349     		ldr	r1, .L130
 1589 000c 0223     		mov	r3, #2
 679:.\uart_wifi.c ****   	cBuf[0] = 0x00;				 //
 1590              		.loc 1 679 0
 1591 000e 1070     		strb	r0, [r2]
 682:.\uart_wifi.c **** }
 1592              		.loc 1 682 0
 1593              		@ sp needed for prologue
 681:.\uart_wifi.c ****   	SendDataToWifi(CTL_ACK_DATA,MCU_FIRMWARE_UPDATE,cBuf,2);	
 1594              		.loc 1 681 0
 1595 0010 FFF7FEFF 		bl	SendDataToWifi
 1596              	.LVL48:
 1597              		.loc 1 682 0
 1598 0014 07BD     		pop	{r0, r1, r2, pc}
 1599              	.L131:
 1600 0016 C046     		.align	2
 1601              	.L130:
 1602 0018 C5CC0000 		.word	52421
 1603              		.cfi_endproc
 1604              	.LFE55:
 1605              		.size	Mcu_Firmware_Update, .-Mcu_Firmware_Update
 1606              		.section	.text.Host_State_Data,"ax",%progbits
 1607              		.align	1
 1608              		.global	Host_State_Data
 1609              		.code	16
 1610              		.thumb_func
 1611              		.type	Host_State_Data, %function
 1612              	Host_State_Data:
 1613              	.LFB56:
 683:.\uart_wifi.c **** 
 684:.\uart_wifi.c **** //void Host_State_Data(void)
 685:.\uart_wifi.c **** //{
 686:.\uart_wifi.c **** //		uint8 cBuf[14];
 687:.\uart_wifi.c **** //		cBuf[0]=Work_State.all; //01待机 02制水中 03制水完成 04 冲洗
 688:.\uart_wifi.c **** //		cBuf[1]=0x06; 	//滤芯级数	1	U8 (总级数)
 689:.\uart_wifi.c **** //		cBuf[2]=Error_Counter;   
 690:.\uart_wifi.c **** //		cBuf[3]=LianXuJiShi/600;  //工作状态	1	U8 见注2
 691:.\uart_wifi.c **** //		cBuf[4]=jingshuiliang; //总净水量	2	U16(现在总净水量)
 692:.\uart_wifi.c **** //		cBuf[5]=(jingshuiliang>>8); 
 693:.\uart_wifi.c **** //		cBuf[6]=Value_Tds0; //TDS(原水)	2	U16(实际TDS值)
 694:.\uart_wifi.c **** //		cBuf[7]=(Value_Tds0>>8);
 695:.\uart_wifi.c **** //		cBuf[8]=Value_Tds1; //TDS(净水)	2	U16(实际TDS值)
 696:.\uart_wifi.c **** //		cBuf[9]=(Value_Tds1>>8); 
 697:.\uart_wifi.c **** //		cBuf[10]=Value_T; //温度	1	U8(实际温度值 
 698:.\uart_wifi.c **** //		cBuf[11]=Value_Loushui_Ad; //漏水	2	U16(实际AD值)
 699:.\uart_wifi.c **** //		cBuf[12]=(Value_Loushui_Ad>>8); 
 700:.\uart_wifi.c **** //		cBuf[13]=Switch_Data.all; //高、低压开关状态	1	U8 见注    
 701:.\uart_wifi.c **** //		SendDataToWifi(CTL_ACK_DATA,HOST_STATE_DATA,cBuf,14);
 702:.\uart_wifi.c **** //}
 703:.\uart_wifi.c **** void Host_State_Data(void)//debug
 704:.\uart_wifi.c **** {
 1614              		.loc 1 704 0
 1615              		.cfi_startproc
ARM GAS  C:\Users\ZHANGM~1\AppData\Local\Temp\ccBCEiox.s 			page 43


 1616 0000 1FB5     		push	{r0, r1, r2, r3, r4, lr}
 1617              	.LCFI23:
 1618              		.cfi_def_cfa_offset 24
 1619              		.cfi_offset 0, -24
 1620              		.cfi_offset 1, -20
 1621              		.cfi_offset 2, -16
 1622              		.cfi_offset 3, -12
 1623              		.cfi_offset 4, -8
 1624              		.cfi_offset 14, -4
 705:.\uart_wifi.c **** 		uint8 cBuf[14];
 706:.\uart_wifi.c **** 		cBuf[0]=Work_State.all; //01待机 02制水中 03制水完成 04 冲洗
 1625              		.loc 1 706 0
 1626 0002 134B     		ldr	r3, .L133
 1627 0004 6946     		mov	r1, sp
 1628 0006 1888     		ldrh	r0, [r3]
 707:.\uart_wifi.c **** 		cBuf[1]=0x06; 	//滤芯级数	1	U8 (总级数)
 708:.\uart_wifi.c **** 		cBuf[2]=Error_Counter;   
 1629              		.loc 1 708 0
 1630 0008 124B     		ldr	r3, .L133+4
 706:.\uart_wifi.c **** 		cBuf[0]=Work_State.all; //01待机 02制水中 03制水完成 04 冲洗
 1631              		.loc 1 706 0
 1632 000a 0870     		strb	r0, [r1]
 707:.\uart_wifi.c **** 		cBuf[1]=0x06; 	//滤芯级数	1	U8 (总级数)
 1633              		.loc 1 707 0
 1634 000c 0622     		mov	r2, #6
 1635              		.loc 1 708 0
 1636 000e 1878     		ldrb	r0, [r3]
 709:.\uart_wifi.c **** 		cBuf[3]=60;  //工作状态	1	U8 见注2
 710:.\uart_wifi.c **** 		cBuf[4]=500; //总净水量	2	U16(现在总净水量)
 1637              		.loc 1 710 0
 1638 0010 F423     		mov	r3, #244
 707:.\uart_wifi.c **** 		cBuf[1]=0x06; 	//滤芯级数	1	U8 (总级数)
 1639              		.loc 1 707 0
 1640 0012 4A70     		strb	r2, [r1, #1]
 1641              		.loc 1 710 0
 1642 0014 0B71     		strb	r3, [r1, #4]
 709:.\uart_wifi.c **** 		cBuf[3]=60;  //工作状态	1	U8 见注2
 1643              		.loc 1 709 0
 1644 0016 3C22     		mov	r2, #60
 711:.\uart_wifi.c **** 		cBuf[5]=(500>>8); 
 712:.\uart_wifi.c **** 		cBuf[6]=1000; //TDS(原水)	2	U16(实际TDS值)
 713:.\uart_wifi.c **** 		cBuf[7]=(1000>>8);
 1645              		.loc 1 713 0
 1646 0018 0323     		mov	r3, #3
 708:.\uart_wifi.c **** 		cBuf[2]=Error_Counter;   
 1647              		.loc 1 708 0
 1648 001a 8870     		strb	r0, [r1, #2]
 709:.\uart_wifi.c **** 		cBuf[3]=60;  //工作状态	1	U8 见注2
 1649              		.loc 1 709 0
 1650 001c CA70     		strb	r2, [r1, #3]
 1651              		.loc 1 713 0
 1652 001e CB71     		strb	r3, [r1, #7]
 711:.\uart_wifi.c **** 		cBuf[5]=(500>>8); 
 1653              		.loc 1 711 0
 1654 0020 0120     		mov	r0, #1
 714:.\uart_wifi.c **** 		cBuf[8]=100; //TDS(净水)	2	U16(实际TDS值)
 1655              		.loc 1 714 0
ARM GAS  C:\Users\ZHANGM~1\AppData\Local\Temp\ccBCEiox.s 			page 44


 1656 0022 6423     		mov	r3, #100
 712:.\uart_wifi.c **** 		cBuf[6]=1000; //TDS(原水)	2	U16(实际TDS值)
 1657              		.loc 1 712 0
 1658 0024 E822     		mov	r2, #232
 711:.\uart_wifi.c **** 		cBuf[5]=(500>>8); 
 1659              		.loc 1 711 0
 1660 0026 4871     		strb	r0, [r1, #5]
 712:.\uart_wifi.c **** 		cBuf[6]=1000; //TDS(原水)	2	U16(实际TDS值)
 1661              		.loc 1 712 0
 1662 0028 8A71     		strb	r2, [r1, #6]
 1663              		.loc 1 714 0
 1664 002a 0B72     		strb	r3, [r1, #8]
 715:.\uart_wifi.c **** 		cBuf[9]=(100>>8); 
 1665              		.loc 1 715 0
 1666 002c 0020     		mov	r0, #0
 716:.\uart_wifi.c **** 		cBuf[10]=25; //温度	1	U8(实际温度值 
 717:.\uart_wifi.c **** 		cBuf[11]=100; //漏水	2	U16(实际AD值)
 1667              		.loc 1 717 0
 1668 002e CB72     		strb	r3, [r1, #11]
 716:.\uart_wifi.c **** 		cBuf[10]=25; //温度	1	U8(实际温度值 
 1669              		.loc 1 716 0
 1670 0030 1922     		mov	r2, #25
 718:.\uart_wifi.c **** 		cBuf[12]=(100>>8); 
 719:.\uart_wifi.c **** 		cBuf[13]=Switch_Data.all; //高、低压开关状态	1	U8 见注    
 1671              		.loc 1 719 0
 1672 0032 094B     		ldr	r3, .L133+8
 715:.\uart_wifi.c **** 		cBuf[9]=(100>>8); 
 1673              		.loc 1 715 0
 1674 0034 4872     		strb	r0, [r1, #9]
 718:.\uart_wifi.c **** 		cBuf[12]=(100>>8); 
 1675              		.loc 1 718 0
 1676 0036 0873     		strb	r0, [r1, #12]
 716:.\uart_wifi.c **** 		cBuf[10]=25; //温度	1	U8(实际温度值 
 1677              		.loc 1 716 0
 1678 0038 8A72     		strb	r2, [r1, #10]
 1679              		.loc 1 719 0
 1680 003a 1A88     		ldrh	r2, [r3]
 720:.\uart_wifi.c **** 		SendDataToWifi(CTL_ACK_DATA,HOST_STATE_DATA,cBuf,14);
 1681              		.loc 1 720 0
 1682 003c 0E23     		mov	r3, #14
 719:.\uart_wifi.c **** 		cBuf[13]=Switch_Data.all; //高、低压开关状态	1	U8 见注    
 1683              		.loc 1 719 0
 1684 003e 4A73     		strb	r2, [r1, #13]
 1685              		.loc 1 720 0
 1686 0040 9021     		mov	r1, #144
 1687 0042 0902     		lsl	r1, r1, #8
 1688 0044 6A46     		mov	r2, sp
 1689 0046 FFF7FEFF 		bl	SendDataToWifi
 1690              	.LVL49:
 721:.\uart_wifi.c **** }
 1691              		.loc 1 721 0
 1692 004a 05B0     		add	sp, sp, #20
 1693              		@ sp needed for prologue
 1694 004c 00BD     		pop	{pc}
 1695              	.L134:
 1696 004e C046     		.align	2
 1697              	.L133:
ARM GAS  C:\Users\ZHANGM~1\AppData\Local\Temp\ccBCEiox.s 			page 45


 1698 0050 00000000 		.word	Work_State
 1699 0054 00000000 		.word	Error_Counter
 1700 0058 00000000 		.word	Switch_Data
 1701              		.cfi_endproc
 1702              	.LFE56:
 1703              		.size	Host_State_Data, .-Host_State_Data
 1704              		.section	.text.Host_Filter_Changed_Data,"ax",%progbits
 1705              		.align	1
 1706              		.global	Host_Filter_Changed_Data
 1707              		.code	16
 1708              		.thumb_func
 1709              		.type	Host_Filter_Changed_Data, %function
 1710              	Host_Filter_Changed_Data:
 1711              	.LFB57:
 722:.\uart_wifi.c **** void Host_Filter_Changed_Data(void)
 723:.\uart_wifi.c **** {
 1712              		.loc 1 723 0
 1713              		.cfi_startproc
 1714 0000 07B5     		push	{r0, r1, r2, lr}
 1715              	.LCFI24:
 1716              		.cfi_def_cfa_offset 16
 1717              		.cfi_offset 0, -16
 1718              		.cfi_offset 1, -12
 1719              		.cfi_offset 2, -8
 1720              		.cfi_offset 14, -4
 724:.\uart_wifi.c **** 	uint8 cBuf[7];
 725:.\uart_wifi.c **** 	cBuf[0]=0x06;  	//滤芯级数
 726:.\uart_wifi.c **** 	cBuf[1]=1; 
 1721              		.loc 1 726 0
 1722 0002 0122     		mov	r2, #1
 725:.\uart_wifi.c **** 	cBuf[0]=0x06;  	//滤芯级数
 1723              		.loc 1 725 0
 1724 0004 6946     		mov	r1, sp
 1725              		.loc 1 726 0
 1726 0006 4A70     		strb	r2, [r1, #1]
 727:.\uart_wifi.c **** 	cBuf[2]=2; 	
 1727              		.loc 1 727 0
 1728 0008 0220     		mov	r0, #2
 728:.\uart_wifi.c **** 	cBuf[3]=3;   
 1729              		.loc 1 728 0
 1730 000a 0322     		mov	r2, #3
 725:.\uart_wifi.c **** 	cBuf[0]=0x06;  	//滤芯级数
 1731              		.loc 1 725 0
 1732 000c 0623     		mov	r3, #6
 727:.\uart_wifi.c **** 	cBuf[2]=2; 	
 1733              		.loc 1 727 0
 1734 000e 8870     		strb	r0, [r1, #2]
 1735              		.loc 1 728 0
 1736 0010 CA70     		strb	r2, [r1, #3]
 729:.\uart_wifi.c **** 	cBuf[4]=4;  
 1737              		.loc 1 729 0
 1738 0012 0420     		mov	r0, #4
 730:.\uart_wifi.c **** 	cBuf[5]=5; 
 1739              		.loc 1 730 0
 1740 0014 0522     		mov	r2, #5
 725:.\uart_wifi.c **** 	cBuf[0]=0x06;  	//滤芯级数
 1741              		.loc 1 725 0
ARM GAS  C:\Users\ZHANGM~1\AppData\Local\Temp\ccBCEiox.s 			page 46


 1742 0016 0B70     		strb	r3, [r1]
 729:.\uart_wifi.c **** 	cBuf[4]=4;  
 1743              		.loc 1 729 0
 1744 0018 0871     		strb	r0, [r1, #4]
 1745              		.loc 1 730 0
 1746 001a 4A71     		strb	r2, [r1, #5]
 731:.\uart_wifi.c **** 	cBuf[6]=6; 
 1747              		.loc 1 731 0
 1748 001c 8B71     		strb	r3, [r1, #6]
 732:.\uart_wifi.c **** 	SendDataToWifi(CTL_ACK_DATA,HOST_FILTER_CHANGED_DATA,cBuf,7);
 1749              		.loc 1 732 0
 1750 001e 0020     		mov	r0, #0
 1751 0020 0249     		ldr	r1, .L136
 1752 0022 6A46     		mov	r2, sp
 1753 0024 0723     		mov	r3, #7
 1754 0026 FFF7FEFF 		bl	SendDataToWifi
 1755              	.LVL50:
 733:.\uart_wifi.c **** }
 1756              		.loc 1 733 0
 1757              		@ sp needed for prologue
 1758 002a 07BD     		pop	{r0, r1, r2, pc}
 1759              	.L137:
 1760              		.align	2
 1761              	.L136:
 1762 002c 01900000 		.word	36865
 1763              		.cfi_endproc
 1764              	.LFE57:
 1765              		.size	Host_Filter_Changed_Data, .-Host_Filter_Changed_Data
 1766              		.section	.text.Host_Filter_Used_Time_Data,"ax",%progbits
 1767              		.align	1
 1768              		.global	Host_Filter_Used_Time_Data
 1769              		.code	16
 1770              		.thumb_func
 1771              		.type	Host_Filter_Used_Time_Data, %function
 1772              	Host_Filter_Used_Time_Data:
 1773              	.LFB58:
 734:.\uart_wifi.c **** //void Host_Filter_Used_Time_Data(void)
 735:.\uart_wifi.c **** //{
 736:.\uart_wifi.c **** //	uint8 cBuf[14];
 737:.\uart_wifi.c **** //	cBuf[0]=0x06;  	//滤芯级数
 738:.\uart_wifi.c **** //	cBuf[1]=LvxinJishi[0];  	//滤芯数据0	2	U16(实际滤芯使用时间值)
 739:.\uart_wifi.c **** //	cBuf[2]=(LvxinJishi[0]>>8);
 740:.\uart_wifi.c **** //	cBuf[3]=LvxinJishi[1];  	//滤芯数据0	2	U16(实际滤芯使用时间值)
 741:.\uart_wifi.c **** //	cBuf[4]=(LvxinJishi[1]>>8);
 742:.\uart_wifi.c **** //	cBuf[5]=LvxinJishi[2];  	//滤芯数据0	2	U16(实际滤芯使用时间值)
 743:.\uart_wifi.c **** //	cBuf[6]=(LvxinJishi[2]>>8);
 744:.\uart_wifi.c **** //	cBuf[7]=LvxinJishi[3];  	//滤芯数据0	2	U16(实际滤芯使用时间值)
 745:.\uart_wifi.c **** //	cBuf[8]=(LvxinJishi[3]>>8); 
 746:.\uart_wifi.c **** //	cBuf[9]=LvxinJishi[4];  	//滤芯数据0	2	U16(实际滤芯使用时间值)
 747:.\uart_wifi.c **** //	cBuf[10]=(LvxinJishi[4]>>8); 
 748:.\uart_wifi.c **** //	cBuf[11]=LvxinJishi[5];  	//滤芯数据0	2	U16(实际滤芯使用时间值)
 749:.\uart_wifi.c **** //	cBuf[12]=(LvxinJishi[5]>>8); 
 750:.\uart_wifi.c **** //	SendDataToWifi(CTL_ACK_DATA,HOST_FILTER_USED_TIME_DATA,cBuf,13);
 751:.\uart_wifi.c **** //}
 752:.\uart_wifi.c **** void Host_Filter_Used_Time_Data(void)
 753:.\uart_wifi.c **** {
 1774              		.loc 1 753 0
ARM GAS  C:\Users\ZHANGM~1\AppData\Local\Temp\ccBCEiox.s 			page 47


 1775              		.cfi_startproc
 1776 0000 1FB5     		push	{r0, r1, r2, r3, r4, lr}
 1777              	.LCFI25:
 1778              		.cfi_def_cfa_offset 24
 1779              		.cfi_offset 0, -24
 1780              		.cfi_offset 1, -20
 1781              		.cfi_offset 2, -16
 1782              		.cfi_offset 3, -12
 1783              		.cfi_offset 4, -8
 1784              		.cfi_offset 14, -4
 754:.\uart_wifi.c **** 	uint8 cBuf[14];
 755:.\uart_wifi.c **** 	cBuf[0]=0x06;  	//滤芯级数
 756:.\uart_wifi.c **** 	cBuf[1]=500;  	//滤芯数据0	2	U16(实际滤芯使用时间值)
 1785              		.loc 1 756 0
 1786 0002 F422     		mov	r2, #244
 755:.\uart_wifi.c **** 	cBuf[0]=0x06;  	//滤芯级数
 1787              		.loc 1 755 0
 1788 0004 6946     		mov	r1, sp
 757:.\uart_wifi.c **** 	cBuf[2]=(500>>8);
 1789              		.loc 1 757 0
 1790 0006 0120     		mov	r0, #1
 755:.\uart_wifi.c **** 	cBuf[0]=0x06;  	//滤芯级数
 1791              		.loc 1 755 0
 1792 0008 0623     		mov	r3, #6
 1793 000a 0B70     		strb	r3, [r1]
 756:.\uart_wifi.c **** 	cBuf[1]=500;  	//滤芯数据0	2	U16(实际滤芯使用时间值)
 1794              		.loc 1 756 0
 1795 000c 4A70     		strb	r2, [r1, #1]
 1796              		.loc 1 757 0
 1797 000e 8870     		strb	r0, [r1, #2]
 758:.\uart_wifi.c **** 	cBuf[3]=500;  	//滤芯数据0	2	U16(实际滤芯使用时间值)
 1798              		.loc 1 758 0
 1799 0010 CA70     		strb	r2, [r1, #3]
 759:.\uart_wifi.c **** 	cBuf[4]=(500>>8);
 1800              		.loc 1 759 0
 1801 0012 0871     		strb	r0, [r1, #4]
 760:.\uart_wifi.c **** 	cBuf[5]=500;  	//滤芯数据0	2	U16(实际滤芯使用时间值)
 1802              		.loc 1 760 0
 1803 0014 4A71     		strb	r2, [r1, #5]
 761:.\uart_wifi.c **** 	cBuf[6]=(500>>8);
 1804              		.loc 1 761 0
 1805 0016 8871     		strb	r0, [r1, #6]
 762:.\uart_wifi.c **** 	cBuf[7]=500;  	//滤芯数据0	2	U16(实际滤芯使用时间值)
 1806              		.loc 1 762 0
 1807 0018 CA71     		strb	r2, [r1, #7]
 763:.\uart_wifi.c **** 	cBuf[8]=(500>>8); 
 1808              		.loc 1 763 0
 1809 001a 0872     		strb	r0, [r1, #8]
 764:.\uart_wifi.c **** 	cBuf[9]=500;  	//滤芯数据0	2	U16(实际滤芯使用时间值)
 1810              		.loc 1 764 0
 1811 001c 4A72     		strb	r2, [r1, #9]
 765:.\uart_wifi.c **** 	cBuf[10]=(500>>8); 
 1812              		.loc 1 765 0
 1813 001e 8872     		strb	r0, [r1, #10]
 766:.\uart_wifi.c **** 	cBuf[11]=500;  	//滤芯数据0	2	U16(实际滤芯使用时间值)
 1814              		.loc 1 766 0
 1815 0020 CA72     		strb	r2, [r1, #11]
ARM GAS  C:\Users\ZHANGM~1\AppData\Local\Temp\ccBCEiox.s 			page 48


 767:.\uart_wifi.c **** 	cBuf[12]=(500>>8); 
 1816              		.loc 1 767 0
 1817 0022 0873     		strb	r0, [r1, #12]
 768:.\uart_wifi.c **** 	SendDataToWifi(CTL_ACK_DATA,HOST_FILTER_USED_TIME_DATA,cBuf,13);
 1818              		.loc 1 768 0
 1819 0024 6A46     		mov	r2, sp
 1820 0026 0020     		mov	r0, #0
 1821 0028 0249     		ldr	r1, .L139
 1822 002a 0D23     		mov	r3, #13
 1823 002c FFF7FEFF 		bl	SendDataToWifi
 1824              	.LVL51:
 769:.\uart_wifi.c **** }
 1825              		.loc 1 769 0
 1826 0030 05B0     		add	sp, sp, #20
 1827              		@ sp needed for prologue
 1828 0032 00BD     		pop	{pc}
 1829              	.L140:
 1830              		.align	2
 1831              	.L139:
 1832 0034 02900000 		.word	36866
 1833              		.cfi_endproc
 1834              	.LFE58:
 1835              		.size	Host_Filter_Used_Time_Data, .-Host_Filter_Used_Time_Data
 1836              		.section	.text.Host_E0_Data,"ax",%progbits
 1837              		.align	1
 1838              		.global	Host_E0_Data
 1839              		.code	16
 1840              		.thumb_func
 1841              		.type	Host_E0_Data, %function
 1842              	Host_E0_Data:
 1843              	.LFB59:
 770:.\uart_wifi.c **** void Host_E0_Data(void)
 771:.\uart_wifi.c **** {
 1844              		.loc 1 771 0
 1845              		.cfi_startproc
 1846 0000 08B5     		push	{r3, lr}
 1847              	.LCFI26:
 1848              		.cfi_def_cfa_offset 8
 1849              		.cfi_offset 3, -8
 1850              		.cfi_offset 14, -4
 772:.\uart_wifi.c **** 	 SendDataToWifi(CTL_ACK_DATA,HOST_E0_DATA,0,0);		
 1851              		.loc 1 772 0
 1852 0002 0020     		mov	r0, #0
 1853 0004 0249     		ldr	r1, .L142
 1854 0006 021C     		mov	r2, r0
 1855 0008 031C     		mov	r3, r0
 1856 000a FFF7FEFF 		bl	SendDataToWifi
 1857              	.LVL52:
 773:.\uart_wifi.c **** }
 1858              		.loc 1 773 0
 1859              		@ sp needed for prologue
 1860 000e 08BD     		pop	{r3, pc}
 1861              	.L143:
 1862              		.align	2
 1863              	.L142:
 1864 0010 F0900000 		.word	37104
 1865              		.cfi_endproc
ARM GAS  C:\Users\ZHANGM~1\AppData\Local\Temp\ccBCEiox.s 			page 49


 1866              	.LFE59:
 1867              		.size	Host_E0_Data, .-Host_E0_Data
 1868              		.section	.text.Host_E1_Data,"ax",%progbits
 1869              		.align	1
 1870              		.global	Host_E1_Data
 1871              		.code	16
 1872              		.thumb_func
 1873              		.type	Host_E1_Data, %function
 1874              	Host_E1_Data:
 1875              	.LFB60:
 774:.\uart_wifi.c **** void Host_E1_Data(void)
 775:.\uart_wifi.c **** {
 1876              		.loc 1 775 0
 1877              		.cfi_startproc
 1878 0000 08B5     		push	{r3, lr}
 1879              	.LCFI27:
 1880              		.cfi_def_cfa_offset 8
 1881              		.cfi_offset 3, -8
 1882              		.cfi_offset 14, -4
 776:.\uart_wifi.c **** 	 SendDataToWifi(CTL_ACK_DATA,HOST_E1_DATA,0,0);		
 1883              		.loc 1 776 0
 1884 0002 0020     		mov	r0, #0
 1885 0004 0249     		ldr	r1, .L145
 1886 0006 021C     		mov	r2, r0
 1887 0008 031C     		mov	r3, r0
 1888 000a FFF7FEFF 		bl	SendDataToWifi
 1889              	.LVL53:
 777:.\uart_wifi.c **** }
 1890              		.loc 1 777 0
 1891              		@ sp needed for prologue
 1892 000e 08BD     		pop	{r3, pc}
 1893              	.L146:
 1894              		.align	2
 1895              	.L145:
 1896 0010 F1900000 		.word	37105
 1897              		.cfi_endproc
 1898              	.LFE60:
 1899              		.size	Host_E1_Data, .-Host_E1_Data
 1900              		.section	.text.Host_E2_Data,"ax",%progbits
 1901              		.align	1
 1902              		.global	Host_E2_Data
 1903              		.code	16
 1904              		.thumb_func
 1905              		.type	Host_E2_Data, %function
 1906              	Host_E2_Data:
 1907              	.LFB61:
 778:.\uart_wifi.c **** void Host_E2_Data (void)
 779:.\uart_wifi.c **** {
 1908              		.loc 1 779 0
 1909              		.cfi_startproc
 1910 0000 08B5     		push	{r3, lr}
 1911              	.LCFI28:
 1912              		.cfi_def_cfa_offset 8
 1913              		.cfi_offset 3, -8
 1914              		.cfi_offset 14, -4
 780:.\uart_wifi.c **** 	 SendDataToWifi(CTL_ACK_DATA,HOST_E2_DATA,0,0);		
 1915              		.loc 1 780 0
ARM GAS  C:\Users\ZHANGM~1\AppData\Local\Temp\ccBCEiox.s 			page 50


 1916 0002 0020     		mov	r0, #0
 1917 0004 0249     		ldr	r1, .L148
 1918 0006 021C     		mov	r2, r0
 1919 0008 031C     		mov	r3, r0
 1920 000a FFF7FEFF 		bl	SendDataToWifi
 1921              	.LVL54:
 781:.\uart_wifi.c **** }
 1922              		.loc 1 781 0
 1923              		@ sp needed for prologue
 1924 000e 08BD     		pop	{r3, pc}
 1925              	.L149:
 1926              		.align	2
 1927              	.L148:
 1928 0010 F2900000 		.word	37106
 1929              		.cfi_endproc
 1930              	.LFE61:
 1931              		.size	Host_E2_Data, .-Host_E2_Data
 1932              		.section	.text.Host_E3_Data,"ax",%progbits
 1933              		.align	1
 1934              		.global	Host_E3_Data
 1935              		.code	16
 1936              		.thumb_func
 1937              		.type	Host_E3_Data, %function
 1938              	Host_E3_Data:
 1939              	.LFB62:
 782:.\uart_wifi.c **** void Host_E3_Data(void)
 783:.\uart_wifi.c **** {
 1940              		.loc 1 783 0
 1941              		.cfi_startproc
 1942 0000 08B5     		push	{r3, lr}
 1943              	.LCFI29:
 1944              		.cfi_def_cfa_offset 8
 1945              		.cfi_offset 3, -8
 1946              		.cfi_offset 14, -4
 784:.\uart_wifi.c **** 	 SendDataToWifi(CTL_ACK_DATA,HOST_E3_DATA,0,0);		
 1947              		.loc 1 784 0
 1948 0002 0020     		mov	r0, #0
 1949 0004 0249     		ldr	r1, .L151
 1950 0006 021C     		mov	r2, r0
 1951 0008 031C     		mov	r3, r0
 1952 000a FFF7FEFF 		bl	SendDataToWifi
 1953              	.LVL55:
 785:.\uart_wifi.c **** }
 1954              		.loc 1 785 0
 1955              		@ sp needed for prologue
 1956 000e 08BD     		pop	{r3, pc}
 1957              	.L152:
 1958              		.align	2
 1959              	.L151:
 1960 0010 F3900000 		.word	37107
 1961              		.cfi_endproc
 1962              	.LFE62:
 1963              		.size	Host_E3_Data, .-Host_E3_Data
 1964              		.section	.text.Host_E4_Data,"ax",%progbits
 1965              		.align	1
 1966              		.global	Host_E4_Data
 1967              		.code	16
ARM GAS  C:\Users\ZHANGM~1\AppData\Local\Temp\ccBCEiox.s 			page 51


 1968              		.thumb_func
 1969              		.type	Host_E4_Data, %function
 1970              	Host_E4_Data:
 1971              	.LFB63:
 786:.\uart_wifi.c **** void Host_E4_Data(void)
 787:.\uart_wifi.c **** {
 1972              		.loc 1 787 0
 1973              		.cfi_startproc
 1974 0000 08B5     		push	{r3, lr}
 1975              	.LCFI30:
 1976              		.cfi_def_cfa_offset 8
 1977              		.cfi_offset 3, -8
 1978              		.cfi_offset 14, -4
 788:.\uart_wifi.c **** 	 SendDataToWifi(CTL_ACK_DATA,HOST_E4_DATA,0,0);		
 1979              		.loc 1 788 0
 1980 0002 0020     		mov	r0, #0
 1981 0004 0249     		ldr	r1, .L154
 1982 0006 021C     		mov	r2, r0
 1983 0008 031C     		mov	r3, r0
 1984 000a FFF7FEFF 		bl	SendDataToWifi
 1985              	.LVL56:
 789:.\uart_wifi.c **** }
 1986              		.loc 1 789 0
 1987              		@ sp needed for prologue
 1988 000e 08BD     		pop	{r3, pc}
 1989              	.L155:
 1990              		.align	2
 1991              	.L154:
 1992 0010 F4900000 		.word	37108
 1993              		.cfi_endproc
 1994              	.LFE63:
 1995              		.size	Host_E4_Data, .-Host_E4_Data
 1996              		.section	.text.Host_E5_Data,"ax",%progbits
 1997              		.align	1
 1998              		.global	Host_E5_Data
 1999              		.code	16
 2000              		.thumb_func
 2001              		.type	Host_E5_Data, %function
 2002              	Host_E5_Data:
 2003              	.LFB64:
 790:.\uart_wifi.c **** void Host_E5_Data(void)
 791:.\uart_wifi.c **** {
 2004              		.loc 1 791 0
 2005              		.cfi_startproc
 2006 0000 08B5     		push	{r3, lr}
 2007              	.LCFI31:
 2008              		.cfi_def_cfa_offset 8
 2009              		.cfi_offset 3, -8
 2010              		.cfi_offset 14, -4
 792:.\uart_wifi.c **** 	 SendDataToWifi(CTL_ACK_DATA,HOST_E5_DATA,0,0);		
 2011              		.loc 1 792 0
 2012 0002 0020     		mov	r0, #0
 2013 0004 0249     		ldr	r1, .L157
 2014 0006 021C     		mov	r2, r0
 2015 0008 031C     		mov	r3, r0
 2016 000a FFF7FEFF 		bl	SendDataToWifi
 2017              	.LVL57:
ARM GAS  C:\Users\ZHANGM~1\AppData\Local\Temp\ccBCEiox.s 			page 52


 793:.\uart_wifi.c **** }
 2018              		.loc 1 793 0
 2019              		@ sp needed for prologue
 2020 000e 08BD     		pop	{r3, pc}
 2021              	.L158:
 2022              		.align	2
 2023              	.L157:
 2024 0010 F5900000 		.word	37109
 2025              		.cfi_endproc
 2026              	.LFE64:
 2027              		.size	Host_E5_Data, .-Host_E5_Data
 2028              		.section	.text.Host_E6_Data,"ax",%progbits
 2029              		.align	1
 2030              		.global	Host_E6_Data
 2031              		.code	16
 2032              		.thumb_func
 2033              		.type	Host_E6_Data, %function
 2034              	Host_E6_Data:
 2035              	.LFB65:
 794:.\uart_wifi.c **** void Host_E6_Data(void)
 795:.\uart_wifi.c **** {
 2036              		.loc 1 795 0
 2037              		.cfi_startproc
 2038 0000 08B5     		push	{r3, lr}
 2039              	.LCFI32:
 2040              		.cfi_def_cfa_offset 8
 2041              		.cfi_offset 3, -8
 2042              		.cfi_offset 14, -4
 796:.\uart_wifi.c **** 	 SendDataToWifi(CTL_ACK_DATA,HOST_E6_DATA,0,0);		
 2043              		.loc 1 796 0
 2044 0002 0020     		mov	r0, #0
 2045 0004 0249     		ldr	r1, .L160
 2046 0006 021C     		mov	r2, r0
 2047 0008 031C     		mov	r3, r0
 2048 000a FFF7FEFF 		bl	SendDataToWifi
 2049              	.LVL58:
 797:.\uart_wifi.c **** }
 2050              		.loc 1 797 0
 2051              		@ sp needed for prologue
 2052 000e 08BD     		pop	{r3, pc}
 2053              	.L161:
 2054              		.align	2
 2055              	.L160:
 2056 0010 F6900000 		.word	37110
 2057              		.cfi_endproc
 2058              	.LFE65:
 2059              		.size	Host_E6_Data, .-Host_E6_Data
 2060              		.section	.text.Host_E7_Data,"ax",%progbits
 2061              		.align	1
 2062              		.global	Host_E7_Data
 2063              		.code	16
 2064              		.thumb_func
 2065              		.type	Host_E7_Data, %function
 2066              	Host_E7_Data:
 2067              	.LFB66:
 798:.\uart_wifi.c **** void Host_E7_Data(void)
 799:.\uart_wifi.c **** {
ARM GAS  C:\Users\ZHANGM~1\AppData\Local\Temp\ccBCEiox.s 			page 53


 2068              		.loc 1 799 0
 2069              		.cfi_startproc
 2070 0000 08B5     		push	{r3, lr}
 2071              	.LCFI33:
 2072              		.cfi_def_cfa_offset 8
 2073              		.cfi_offset 3, -8
 2074              		.cfi_offset 14, -4
 800:.\uart_wifi.c **** 	 SendDataToWifi(CTL_ACK_DATA,HOST_E7_DATA,0,0);		
 2075              		.loc 1 800 0
 2076 0002 0020     		mov	r0, #0
 2077 0004 0249     		ldr	r1, .L163
 2078 0006 021C     		mov	r2, r0
 2079 0008 031C     		mov	r3, r0
 2080 000a FFF7FEFF 		bl	SendDataToWifi
 2081              	.LVL59:
 801:.\uart_wifi.c **** }
 2082              		.loc 1 801 0
 2083              		@ sp needed for prologue
 2084 000e 08BD     		pop	{r3, pc}
 2085              	.L164:
 2086              		.align	2
 2087              	.L163:
 2088 0010 F7900000 		.word	37111
 2089              		.cfi_endproc
 2090              	.LFE66:
 2091              		.size	Host_E7_Data, .-Host_E7_Data
 2092              		.section	.text.Host_E8_Data,"ax",%progbits
 2093              		.align	1
 2094              		.global	Host_E8_Data
 2095              		.code	16
 2096              		.thumb_func
 2097              		.type	Host_E8_Data, %function
 2098              	Host_E8_Data:
 2099              	.LFB67:
 802:.\uart_wifi.c **** void Host_E8_Data(void)
 803:.\uart_wifi.c **** {
 2100              		.loc 1 803 0
 2101              		.cfi_startproc
 2102 0000 08B5     		push	{r3, lr}
 2103              	.LCFI34:
 2104              		.cfi_def_cfa_offset 8
 2105              		.cfi_offset 3, -8
 2106              		.cfi_offset 14, -4
 804:.\uart_wifi.c **** 	 SendDataToWifi(CTL_ACK_DATA,HOST_E8_DATA,0,0);		
 2107              		.loc 1 804 0
 2108 0002 0020     		mov	r0, #0
 2109 0004 0249     		ldr	r1, .L166
 2110 0006 021C     		mov	r2, r0
 2111 0008 031C     		mov	r3, r0
 2112 000a FFF7FEFF 		bl	SendDataToWifi
 2113              	.LVL60:
 805:.\uart_wifi.c **** }
 2114              		.loc 1 805 0
 2115              		@ sp needed for prologue
 2116 000e 08BD     		pop	{r3, pc}
 2117              	.L167:
 2118              		.align	2
ARM GAS  C:\Users\ZHANGM~1\AppData\Local\Temp\ccBCEiox.s 			page 54


 2119              	.L166:
 2120 0010 F8900000 		.word	37112
 2121              		.cfi_endproc
 2122              	.LFE67:
 2123              		.size	Host_E8_Data, .-Host_E8_Data
 2124              		.section	.text.Load_Command,"ax",%progbits
 2125              		.align	1
 2126              		.global	Load_Command
 2127              		.code	16
 2128              		.thumb_func
 2129              		.type	Load_Command, %function
 2130              	Load_Command:
 2131              	.LFB68:
 806:.\uart_wifi.c **** void Load_Command(uint16 icommand)
 807:.\uart_wifi.c **** { 
 2132              		.loc 1 807 0
 2133              		.cfi_startproc
 2134              	.LVL61:
 2135 0000 10B5     		push	{r4, lr}
 2136              	.LCFI35:
 2137              		.cfi_def_cfa_offset 8
 2138              		.cfi_offset 4, -8
 2139              		.cfi_offset 14, -4
 808:.\uart_wifi.c **** 	if(Cmd_Function_Num<5) 
 2140              		.loc 1 808 0
 2141 0002 054A     		ldr	r2, .L170
 2142 0004 1378     		ldrb	r3, [r2]
 2143 0006 042B     		cmp	r3, #4
 2144 0008 04D8     		bhi	.L168
 809:.\uart_wifi.c **** 	{
 810:.\uart_wifi.c **** 		Cmd_Function_Buf[Cmd_Function_Num] = icommand;	
 2145              		.loc 1 810 0
 2146 000a 0449     		ldr	r1, .L170+4
 2147 000c 5C00     		lsl	r4, r3, #1
 811:.\uart_wifi.c **** 		Cmd_Function_Num++;
 2148              		.loc 1 811 0
 2149 000e 0133     		add	r3, r3, #1
 810:.\uart_wifi.c **** 		Cmd_Function_Buf[Cmd_Function_Num] = icommand;	
 2150              		.loc 1 810 0
 2151 0010 6052     		strh	r0, [r4, r1]
 2152              		.loc 1 811 0
 2153 0012 1370     		strb	r3, [r2]
 2154              	.L168:
 812:.\uart_wifi.c **** 	}
 813:.\uart_wifi.c **** 
 814:.\uart_wifi.c **** }
 2155              		.loc 1 814 0
 2156              		@ sp needed for prologue
 2157 0014 10BD     		pop	{r4, pc}
 2158              	.L171:
 2159 0016 C046     		.align	2
 2160              	.L170:
 2161 0018 00000000 		.word	Cmd_Function_Num
 2162 001c 00000000 		.word	Cmd_Function_Buf
 2163              		.cfi_endproc
 2164              	.LFE68:
 2165              		.size	Load_Command, .-Load_Command
ARM GAS  C:\Users\ZHANGM~1\AppData\Local\Temp\ccBCEiox.s 			page 55


 2166              		.section	.text.Load_Error,"ax",%progbits
 2167              		.align	1
 2168              		.global	Load_Error
 2169              		.code	16
 2170              		.thumb_func
 2171              		.type	Load_Error, %function
 2172              	Load_Error:
 2173              	.LFB69:
 815:.\uart_wifi.c **** void Load_Error(uint16 icommand)
 816:.\uart_wifi.c **** { 
 2174              		.loc 1 816 0
 2175              		.cfi_startproc
 2176              	.LVL62:
 2177 0000 10B5     		push	{r4, lr}
 2178              	.LCFI36:
 2179              		.cfi_def_cfa_offset 8
 2180              		.cfi_offset 4, -8
 2181              		.cfi_offset 14, -4
 817:.\uart_wifi.c **** 	if(Error_Counter<8) 
 2182              		.loc 1 817 0
 2183 0002 054A     		ldr	r2, .L174
 2184 0004 1378     		ldrb	r3, [r2]
 2185 0006 072B     		cmp	r3, #7
 2186 0008 04D8     		bhi	.L172
 818:.\uart_wifi.c **** 	{
 819:.\uart_wifi.c **** 		Error_Data_Buf[Error_Counter] = icommand;	
 2187              		.loc 1 819 0
 2188 000a 0449     		ldr	r1, .L174+4
 2189 000c 5C00     		lsl	r4, r3, #1
 820:.\uart_wifi.c **** 		Error_Counter++;
 2190              		.loc 1 820 0
 2191 000e 0133     		add	r3, r3, #1
 819:.\uart_wifi.c **** 		Error_Data_Buf[Error_Counter] = icommand;	
 2192              		.loc 1 819 0
 2193 0010 6052     		strh	r0, [r4, r1]
 2194              		.loc 1 820 0
 2195 0012 1370     		strb	r3, [r2]
 2196              	.L172:
 821:.\uart_wifi.c **** 	}
 822:.\uart_wifi.c **** }
 2197              		.loc 1 822 0
 2198              		@ sp needed for prologue
 2199 0014 10BD     		pop	{r4, pc}
 2200              	.L175:
 2201 0016 C046     		.align	2
 2202              	.L174:
 2203 0018 00000000 		.word	Error_Counter
 2204 001c 00000000 		.word	Error_Data_Buf
 2205              		.cfi_endproc
 2206              	.LFE69:
 2207              		.size	Load_Error, .-Load_Error
 2208              		.section	.text.Uart_Exception_Handl,"ax",%progbits
 2209              		.align	1
 2210              		.global	Uart_Exception_Handl
 2211              		.code	16
 2212              		.thumb_func
 2213              		.type	Uart_Exception_Handl, %function
ARM GAS  C:\Users\ZHANGM~1\AppData\Local\Temp\ccBCEiox.s 			page 56


 2214              	Uart_Exception_Handl:
 2215              	.LFB70:
 823:.\uart_wifi.c **** /******************************************************************************
 824:.\uart_wifi.c **** * 函 数 名: Uart_Exception_Handl(void)
 825:.\uart_wifi.c **** * 函数功能: 完成超时重发等异常处理
 826:.\uart_wifi.c **** * 入口参数: 无
 827:.\uart_wifi.c **** * 返    回: 
 828:.\uart_wifi.c **** *******************************************************************************/
 829:.\uart_wifi.c **** void Uart_Exception_Handl(void)
 830:.\uart_wifi.c **** {
 2216              		.loc 1 830 0
 2217              		.cfi_startproc
 2218 0000 00B5     		push	{lr}
 2219              	.LCFI37:
 2220              		.cfi_def_cfa_offset 4
 2221              		.cfi_offset 14, -4
 831:.\uart_wifi.c **** 	if(WifidatagramWorkFlag.uart_ack)
 2222              		.loc 1 831 0
 2223 0002 064B     		ldr	r3, .L181
 2224 0004 1A78     		ldrb	r2, [r3]
 2225 0006 5107     		lsl	r1, r2, #29
 2226 0008 06D5     		bpl	.L176
 832:.\uart_wifi.c **** 		{
 833:.\uart_wifi.c **** 		  if(Ack_Timer==0)
 2227              		.loc 1 833 0
 2228 000a 0549     		ldr	r1, .L181+4
 2229 000c 0878     		ldrb	r0, [r1]
 2230 000e 0028     		cmp	r0, #0
 2231 0010 02D1     		bne	.L176
 834:.\uart_wifi.c **** 				{
 835:.\uart_wifi.c **** 				 	WifidatagramWorkFlag.send_data_load= 1;
 2232              		.loc 1 835 0
 2233 0012 0121     		mov	r1, #1
 2234 0014 0A43     		orr	r2, r1
 2235 0016 1A70     		strb	r2, [r3]
 2236              	.L176:
 836:.\uart_wifi.c **** 				}
 837:.\uart_wifi.c **** 		} 
 838:.\uart_wifi.c **** }
 2237              		.loc 1 838 0
 2238              		@ sp needed for prologue
 2239 0018 00BD     		pop	{pc}
 2240              	.L182:
 2241 001a C046     		.align	2
 2242              	.L181:
 2243 001c 00000000 		.word	WifidatagramWorkFlag
 2244 0020 00000000 		.word	Ack_Timer
 2245              		.cfi_endproc
 2246              	.LFE70:
 2247              		.size	Uart_Exception_Handl, .-Uart_Exception_Handl
 2248              		.section	.text.Send_To_WifiUart,"ax",%progbits
 2249              		.align	1
 2250              		.global	Send_To_WifiUart
 2251              		.code	16
 2252              		.thumb_func
 2253              		.type	Send_To_WifiUart, %function
 2254              	Send_To_WifiUart:
ARM GAS  C:\Users\ZHANGM~1\AppData\Local\Temp\ccBCEiox.s 			page 57


 2255              	.LFB71:
 839:.\uart_wifi.c **** /******************************************************************************
 840:.\uart_wifi.c **** * 函 数 名: Send_Uart(void)
 841:.\uart_wifi.c **** * 函数功能: 串口发送程序
 842:.\uart_wifi.c **** * 入口参数: 无
 843:.\uart_wifi.c **** * 返    回: 
 844:.\uart_wifi.c **** *******************************************************************************/
 845:.\uart_wifi.c **** void Send_To_WifiUart(void)
 846:.\uart_wifi.c **** {
 2256              		.loc 1 846 0
 2257              		.cfi_startproc
 2258 0000 70B5     		push	{r4, r5, r6, lr}
 2259              	.LCFI38:
 2260              		.cfi_def_cfa_offset 16
 2261              		.cfi_offset 4, -16
 2262              		.cfi_offset 5, -12
 2263              		.cfi_offset 6, -8
 2264              		.cfi_offset 14, -4
 847:.\uart_wifi.c ****   uint8 i; 
 848:.\uart_wifi.c **** 	if((!WifidatagramWorkFlag.uart_ack)&&(!WifidatagramWorkFlag.flag_Uart_Work)&&(Send_Interval_Counte
 2265              		.loc 1 848 0
 2266 0002 684C     		ldr	r4, .L230
 2267 0004 0C23     		mov	r3, #12
 2268 0006 2278     		ldrb	r2, [r4]
 2269 0008 1A42     		tst	r2, r3
 2270 000a 2FD1     		bne	.L185
 2271              		.loc 1 848 0 is_stmt 0 discriminator 1
 2272 000c 664D     		ldr	r5, .L230+4
 2273 000e 2878     		ldrb	r0, [r5]
 2274 0010 0028     		cmp	r0, #0
 2275 0012 2BD1     		bne	.L185
 2276 0014 FFF7FEFF 		bl	UART_0_SpiUartGetTxBufferSize
 2277              	.LVL63:
 2278 0018 0028     		cmp	r0, #0
 2279 001a 27D1     		bne	.L185
 849:.\uart_wifi.c **** 	{
 850:.\uart_wifi.c **** 		Send_Interval_Counter=5;
 851:.\uart_wifi.c **** 		 if(Cmd_Function_Num>0)
 2280              		.loc 1 851 0 is_stmt 1
 2281 001c 634A     		ldr	r2, .L230+8
 850:.\uart_wifi.c **** 		Send_Interval_Counter=5;
 2282              		.loc 1 850 0
 2283 001e 0521     		mov	r1, #5
 2284              		.loc 1 851 0
 2285 0020 1378     		ldrb	r3, [r2]
 850:.\uart_wifi.c **** 		Send_Interval_Counter=5;
 2286              		.loc 1 850 0
 2287 0022 2970     		strb	r1, [r5]
 2288              		.loc 1 851 0
 2289 0024 002B     		cmp	r3, #0
 2290 0026 16D0     		beq	.L187
 852:.\uart_wifi.c ****   		 { 
 853:.\uart_wifi.c ****   		   Cmd_Function = Cmd_Function_Buf[0];
 2291              		.loc 1 853 0
 2292 0028 614D     		ldr	r5, .L230+12
 2293 002a 6249     		ldr	r1, .L230+16
 2294 002c 2E88     		ldrh	r6, [r5]
ARM GAS  C:\Users\ZHANGM~1\AppData\Local\Temp\ccBCEiox.s 			page 58


 2295 002e 0E80     		strh	r6, [r1]
 854:.\uart_wifi.c ****   			 Cmd_Function_Num--;
 2296              		.loc 1 854 0
 2297 0030 5E1E     		sub	r6, r3, #1
 2298 0032 F1B2     		uxtb	r1, r6
 2299 0034 1170     		strb	r1, [r2]
 855:.\uart_wifi.c ****   			 if(Cmd_Function_Num>0)
 2300              		.loc 1 855 0
 2301 0036 0029     		cmp	r1, #0
 2302 0038 04D1     		bne	.L188
 2303              	.L189:
 856:.\uart_wifi.c ****   			 {
 857:.\uart_wifi.c ****   				 for(i=0;i<=Cmd_Function_Num;i++)
 858:.\uart_wifi.c ****   				 {
 859:.\uart_wifi.c ****   				     Cmd_Function_Buf[i] = Cmd_Function_Buf[i+1];	
 860:.\uart_wifi.c ****   				 }
 861:.\uart_wifi.c ****   			 }
 862:.\uart_wifi.c ****   			 WifidatagramWorkFlag.send_data_load = 1;		 	     
 2304              		.loc 1 862 0
 2305 003a 2378     		ldrb	r3, [r4]
 2306 003c 0125     		mov	r5, #1
 2307 003e 2B43     		orr	r3, r5
 2308 0040 2370     		strb	r3, [r4]
 2309 0042 08E0     		b	.L187
 2310              	.L188:
 859:.\uart_wifi.c ****   				     Cmd_Function_Buf[i] = Cmd_Function_Buf[i+1];	
 2311              		.loc 1 859 0 discriminator 2
 2312 0044 411C     		add	r1, r0, #1
 2313 0046 4E00     		lsl	r6, r1, #1
 2314 0048 AE5B     		ldrh	r6, [r5, r6]
 2315 004a 4000     		lsl	r0, r0, #1
 2316 004c 2E52     		strh	r6, [r5, r0]
 857:.\uart_wifi.c ****   				 for(i=0;i<=Cmd_Function_Num;i++)
 2317              		.loc 1 857 0 discriminator 2
 2318 004e C8B2     		uxtb	r0, r1
 2319              	.LVL64:
 2320 0050 9842     		cmp	r0, r3
 2321 0052 F7D1     		bne	.L188
 2322 0054 F1E7     		b	.L189
 2323              	.LVL65:
 2324              	.L187:
 863:.\uart_wifi.c ****   		 }
 864:.\uart_wifi.c ****         if(Cmd_Function_Num==0)
 2325              		.loc 1 864 0
 2326 0056 1178     		ldrb	r1, [r2]
 2327 0058 0029     		cmp	r1, #0
 2328 005a 07D1     		bne	.L185
 2329              	.LVL66:
 865:.\uart_wifi.c ****         {
 866:.\uart_wifi.c ****             for(i=0;i<7;i++)
 867:.\uart_wifi.c ****   			    {
 868:.\uart_wifi.c ****   				  Cmd_Function_Buf[i] = 0;	
 2330              		.loc 1 868 0 discriminator 1
 2331 005c 544A     		ldr	r2, .L230+12
 2332 005e 1180     		strh	r1, [r2]
 2333              	.LVL67:
 2334 0060 5180     		strh	r1, [r2, #2]
ARM GAS  C:\Users\ZHANGM~1\AppData\Local\Temp\ccBCEiox.s 			page 59


 2335              	.LVL68:
 2336 0062 9180     		strh	r1, [r2, #4]
 2337              	.LVL69:
 2338 0064 D180     		strh	r1, [r2, #6]
 2339              	.LVL70:
 2340 0066 1181     		strh	r1, [r2, #8]
 2341              	.LVL71:
 2342 0068 5181     		strh	r1, [r2, #10]
 2343              	.LVL72:
 2344 006a 9181     		strh	r1, [r2, #12]
 2345              	.LVL73:
 2346              	.L185:
 869:.\uart_wifi.c ****   				}
 870:.\uart_wifi.c ****             
 871:.\uart_wifi.c ****         }
 872:.\uart_wifi.c **** 	}
 873:.\uart_wifi.c ****  	if(WifidatagramWorkFlag.send_data_load)
 2347              		.loc 1 873 0
 2348 006c 2678     		ldrb	r6, [r4]
 2349 006e 0120     		mov	r0, #1
 2350 0070 0642     		tst	r6, r0
 2351 0072 00D1     		bne	.LCB1867
 2352 0074 94E0     		b	.L183	@long jump
 2353              	.LCB1867:
 874:.\uart_wifi.c ****   	 {
 875:.\uart_wifi.c ****   	   WifidatagramWorkFlag.send_data_load = 0;
 2354              		.loc 1 875 0
 2355 0076 8643     		bic	r6, r0
 2356 0078 2670     		strb	r6, [r4]
 876:.\uart_wifi.c ****   		 switch(Cmd_Function)
 2357              		.loc 1 876 0
 2358 007a 4E4C     		ldr	r4, .L230+16
 2359 007c 4E4D     		ldr	r5, .L230+20
 2360 007e 2388     		ldrh	r3, [r4]
 2361 0080 AB42     		cmp	r3, r5
 2362 0082 00D1     		bne	.LCB1874
 2363 0084 7BE0     		b	.L202	@long jump
 2364              	.LCB1874:
 2365 0086 29D8     		bhi	.L215
 2366 0088 B32B     		cmp	r3, #179
 2367 008a 66D0     		beq	.L196
 2368 008c 11D8     		bhi	.L216
 2369 008e A22B     		cmp	r3, #162
 2370 0090 69D0     		beq	.L193
 2371 0092 07D8     		bhi	.L217
 2372 0094 A02B     		cmp	r3, #160
 2373 0096 69D0     		beq	.L191
 2374 0098 A12B     		cmp	r3, #161
 2375 009a 00D0     		beq	.LCB1888
 2376 009c 80E0     		b	.L183	@long jump
 2377              	.LCB1888:
 877:.\uart_wifi.c ****   		 {
 878:.\uart_wifi.c **** //发送握手信号
 879:.\uart_wifi.c **** 				case    MCU_HANDSHAKE_DATA:
 880:.\uart_wifi.c **** 					    Mcu_Handshake_Data();
 881:.\uart_wifi.c **** 					    break;
 882:.\uart_wifi.c **** 				//启动Smarklink
ARM GAS  C:\Users\ZHANGM~1\AppData\Local\Temp\ccBCEiox.s 			page 60


 883:.\uart_wifi.c **** 				case    MCU_POWERONSMARTLINK_DATA:	 				     
 884:.\uart_wifi.c **** 					    Mcu_Poweronsmartlink_Data();	     
 885:.\uart_wifi.c **** 				 	    break;
 886:.\uart_wifi.c **** 				case    MCU_FIRMWARE_UPDATE:  //设备要求固件升级
 887:.\uart_wifi.c **** 						Mcu_Firmware_Update();
 888:.\uart_wifi.c **** 				 		break;
 889:.\uart_wifi.c **** 				case    WIFI_SENDDINGSTATE_DATA:
 890:.\uart_wifi.c **** 						Wifi_Senddingstate_Data();
 891:.\uart_wifi.c **** 					 	break;
 892:.\uart_wifi.c **** 				case    APP_HOST_STATE://APP查询设备工作状态指令	APP查询设备工作状态指令
 893:.\uart_wifi.c **** 						App_Host_State();		 		
 894:.\uart_wifi.c **** 				 		break;
 895:.\uart_wifi.c **** 				case    APP_FILTER_CHANGED_DATA: 						//0x00B2 //查询本机滤芯使用次数（n级）
 896:.\uart_wifi.c **** 						App_Filter_Changed_Data(); 
 897:.\uart_wifi.c **** 				 		break;
 898:.\uart_wifi.c **** 				case    APP_ERROR_DATA: 										//0x00B4 //查询本机故障信息
 899:.\uart_wifi.c **** 						App_Error_Data();
 900:.\uart_wifi.c **** 				 		break;
 901:.\uart_wifi.c **** 				case    APP_FILTER_USED_TIME_DATA: 					//0x00B3 //查询本机滤芯使用时间（n级）		 	
 902:.\uart_wifi.c **** 						App_Filter_Used_Time_Data();
 903:.\uart_wifi.c **** 				 		break;		 		
 904:.\uart_wifi.c **** 				case    APP_SEARCH_FILTER_MANAGE_NUM:	//查询本机滤芯管理方案号
 905:.\uart_wifi.c **** 						App_Search_Filter_Manage_Num();		 		
 906:.\uart_wifi.c **** 				 		break;
 907:.\uart_wifi.c **** 				case    APP_DOWNLOAD_FILTER_MANAGE_NUM:	//下载本机滤芯管理方案号
 908:.\uart_wifi.c **** 						App_Download_Filter_Manage_Num();			 		
 909:.\uart_wifi.c **** 				 		break;		 		 
 910:.\uart_wifi.c **** 				case    APP_POWERON:	//远程开机功能
 911:.\uart_wifi.c **** 						App_Poweron();
 912:.\uart_wifi.c **** 				 		break;
 913:.\uart_wifi.c **** 				case    APP_POWEROFF:	//远程关机功能	
 914:.\uart_wifi.c **** 						App_Poweroff();		 		
 2378              		.loc 1 914 0
 2379 009e FFF7FEFF 		bl	App_Poweroff
 2380              	.LVL74:
 915:.\uart_wifi.c **** 				 		break;	 	
 2381              		.loc 1 915 0
 2382 00a2 7DE0     		b	.L183
 2383              	.L217:
 876:.\uart_wifi.c ****   		 switch(Cmd_Function)
 2384              		.loc 1 876 0
 2385 00a4 B12B     		cmp	r3, #177
 2386 00a6 5BD0     		beq	.L194
 2387 00a8 B22B     		cmp	r3, #178
 2388 00aa 79D1     		bne	.L183
 893:.\uart_wifi.c **** 						App_Host_State();		 		
 2389              		.loc 1 893 0
 2390 00ac FFF7FEFF 		bl	App_Host_State
 2391              	.LVL75:
 894:.\uart_wifi.c **** 				 		break;
 2392              		.loc 1 894 0
 2393 00b0 76E0     		b	.L183
 2394              	.L216:
 876:.\uart_wifi.c ****   		 switch(Cmd_Function)
 2395              		.loc 1 876 0
 2396 00b2 9021     		mov	r1, #144
 2397 00b4 0A02     		lsl	r2, r1, #8
ARM GAS  C:\Users\ZHANGM~1\AppData\Local\Temp\ccBCEiox.s 			page 61


 2398 00b6 9342     		cmp	r3, r2
 2399 00b8 5BD0     		beq	.L199
 2400 00ba 06D8     		bhi	.L218
 2401 00bc B42B     		cmp	r3, #180
 2402 00be 49D0     		beq	.L197
 2403 00c0 B52B     		cmp	r3, #181
 2404 00c2 6DD1     		bne	.L183
 896:.\uart_wifi.c **** 						App_Filter_Changed_Data(); 
 2405              		.loc 1 896 0
 2406 00c4 FFF7FEFF 		bl	App_Filter_Changed_Data
 2407              	.LVL76:
 897:.\uart_wifi.c **** 				 		break;
 2408              		.loc 1 897 0
 2409 00c8 6AE0     		b	.L183
 2410              	.L218:
 876:.\uart_wifi.c ****   		 switch(Cmd_Function)
 2411              		.loc 1 876 0
 2412 00ca 3C4E     		ldr	r6, .L230+24
 2413 00cc B342     		cmp	r3, r6
 2414 00ce 53D0     		beq	.L200
 2415 00d0 3B48     		ldr	r0, .L230+28
 2416 00d2 8342     		cmp	r3, r0
 2417 00d4 64D1     		bne	.L183
 916:.\uart_wifi.c **** 				case	HOST_STATE_DATA:
 917:.\uart_wifi.c **** 						Host_State_Data();	
 918:.\uart_wifi.c **** 						break;		
 919:.\uart_wifi.c **** 				case	HOST_FILTER_CHANGED_DATA:
 920:.\uart_wifi.c **** 						Host_Filter_Changed_Data();	
 921:.\uart_wifi.c **** 						break;	
 922:.\uart_wifi.c **** 				case	HOST_FILTER_USED_TIME_DATA:
 923:.\uart_wifi.c **** 						Host_Filter_Used_Time_Data();	
 2418              		.loc 1 923 0
 2419 00d6 FFF7FEFF 		bl	Host_Filter_Used_Time_Data
 2420              	.LVL77:
 924:.\uart_wifi.c **** 						break;	
 2421              		.loc 1 924 0
 2422 00da 61E0     		b	.L183
 2423              	.L215:
 876:.\uart_wifi.c ****   		 switch(Cmd_Function)
 2424              		.loc 1 876 0
 2425 00dc 394C     		ldr	r4, .L230+32
 2426 00de A342     		cmp	r3, r4
 2427 00e0 59D0     		beq	.L208
 2428 00e2 15D8     		bhi	.L219
 2429 00e4 384D     		ldr	r5, .L230+36
 2430 00e6 AB42     		cmp	r3, r5
 2431 00e8 4FD0     		beq	.L205
 2432 00ea 08D8     		bhi	.L220
 2433 00ec 3749     		ldr	r1, .L230+40
 2434 00ee 8B42     		cmp	r3, r1
 2435 00f0 48D0     		beq	.L203
 2436 00f2 374A     		ldr	r2, .L230+44
 2437 00f4 9342     		cmp	r3, r2
 2438 00f6 53D1     		bne	.L183
 925:.\uart_wifi.c **** 				case HOST_E0_DATA:
 926:.\uart_wifi.c **** 				  	Host_E0_Data();			      
 927:.\uart_wifi.c **** 					  break;
ARM GAS  C:\Users\ZHANGM~1\AppData\Local\Temp\ccBCEiox.s 			page 62


 928:.\uart_wifi.c **** 				case HOST_E1_DATA:
 929:.\uart_wifi.c **** 				  	Host_E1_Data();			      
 930:.\uart_wifi.c **** 					  break;
 931:.\uart_wifi.c **** 				case HOST_E2_DATA:
 932:.\uart_wifi.c **** 				  	Host_E2_Data();			      
 2439              		.loc 1 932 0
 2440 00f8 FFF7FEFF 		bl	Host_E2_Data
 2441              	.LVL78:
 933:.\uart_wifi.c **** 					  break;
 2442              		.loc 1 933 0
 2443 00fc 50E0     		b	.L183
 2444              	.L220:
 876:.\uart_wifi.c ****   		 switch(Cmd_Function)
 2445              		.loc 1 876 0
 2446 00fe 354E     		ldr	r6, .L230+48
 2447 0100 B342     		cmp	r3, r6
 2448 0102 45D0     		beq	.L206
 2449 0104 3448     		ldr	r0, .L230+52
 2450 0106 8342     		cmp	r3, r0
 2451 0108 4AD1     		bne	.L183
 934:.\uart_wifi.c **** 				case HOST_E3_DATA:
 935:.\uart_wifi.c **** 				  	Host_E3_Data();			      
 936:.\uart_wifi.c **** 					  break;	
 937:.\uart_wifi.c **** 				case HOST_E4_DATA:
 938:.\uart_wifi.c **** 				  	Host_E4_Data();			      
 939:.\uart_wifi.c **** 					  break; 
 940:.\uart_wifi.c **** 				case HOST_E5_DATA:
 941:.\uart_wifi.c **** 				  	Host_E5_Data();			      
 2452              		.loc 1 941 0
 2453 010a FFF7FEFF 		bl	Host_E5_Data
 2454              	.LVL79:
 942:.\uart_wifi.c **** 					  break;
 2455              		.loc 1 942 0
 2456 010e 47E0     		b	.L183
 2457              	.L219:
 876:.\uart_wifi.c ****   		 switch(Cmd_Function)
 2458              		.loc 1 876 0
 2459 0110 324C     		ldr	r4, .L230+56
 2460 0112 A342     		cmp	r3, r4
 2461 0114 15D0     		beq	.L211
 2462 0116 08D8     		bhi	.L221
 2463 0118 314D     		ldr	r5, .L230+60
 2464 011a AB42     		cmp	r3, r5
 2465 011c 3ED0     		beq	.L209
 2466 011e 3149     		ldr	r1, .L230+64
 2467 0120 8B42     		cmp	r3, r1
 2468 0122 3DD1     		bne	.L183
 943:.\uart_wifi.c **** 				case HOST_E6_DATA:
 944:.\uart_wifi.c **** 				  	Host_E6_Data();			      
 945:.\uart_wifi.c **** 					  break;	
 946:.\uart_wifi.c **** 				case HOST_E7_DATA:
 947:.\uart_wifi.c **** 				  	Host_E7_Data();			      
 948:.\uart_wifi.c **** 					  break; 
 949:.\uart_wifi.c **** 				case HOST_E8_DATA:
 950:.\uart_wifi.c **** 				  	Host_E8_Data();			      
 2469              		.loc 1 950 0
 2470 0124 FFF7FEFF 		bl	Host_E8_Data
ARM GAS  C:\Users\ZHANGM~1\AppData\Local\Temp\ccBCEiox.s 			page 63


 2471              	.LVL80:
 951:.\uart_wifi.c **** 					  break;
 2472              		.loc 1 951 0
 2473 0128 3AE0     		b	.L183
 2474              	.L221:
 876:.\uart_wifi.c ****   		 switch(Cmd_Function)
 2475              		.loc 1 876 0
 2476 012a 2F4A     		ldr	r2, .L230+68
 2477 012c 9342     		cmp	r3, r2
 2478 012e 0BD0     		beq	.L213
 2479 0130 2E4E     		ldr	r6, .L230+72
 2480 0132 B342     		cmp	r3, r6
 2481 0134 0BD0     		beq	.L214
 2482 0136 2E48     		ldr	r0, .L230+76
 2483 0138 8342     		cmp	r3, r0
 2484 013a 31D1     		bne	.L183
 884:.\uart_wifi.c **** 					    Mcu_Poweronsmartlink_Data();	     
 2485              		.loc 1 884 0
 2486 013c FFF7FEFF 		bl	Mcu_Poweronsmartlink_Data
 2487              	.LVL81:
 885:.\uart_wifi.c **** 				 	    break;
 2488              		.loc 1 885 0
 2489 0140 2EE0     		b	.L183
 2490              	.L211:
 880:.\uart_wifi.c **** 					    Mcu_Handshake_Data();
 2491              		.loc 1 880 0
 2492 0142 FFF7FEFF 		bl	Mcu_Handshake_Data
 2493              	.LVL82:
 881:.\uart_wifi.c **** 					    break;
 2494              		.loc 1 881 0
 2495 0146 2BE0     		b	.L183
 2496              	.L213:
 887:.\uart_wifi.c **** 						Mcu_Firmware_Update();
 2497              		.loc 1 887 0
 2498 0148 FFF7FEFF 		bl	Mcu_Firmware_Update
 2499              	.LVL83:
 888:.\uart_wifi.c **** 				 		break;
 2500              		.loc 1 888 0
 2501 014c 28E0     		b	.L183
 2502              	.L214:
 890:.\uart_wifi.c **** 						Wifi_Senddingstate_Data();
 2503              		.loc 1 890 0
 2504 014e FFF7FEFF 		bl	Wifi_Senddingstate_Data
 2505              	.LVL84:
 891:.\uart_wifi.c **** 					 	break;
 2506              		.loc 1 891 0
 2507 0152 25E0     		b	.L183
 2508              	.L197:
 899:.\uart_wifi.c **** 						App_Error_Data();
 2509              		.loc 1 899 0
 2510 0154 FFF7FEFF 		bl	App_Error_Data
 2511              	.LVL85:
 900:.\uart_wifi.c **** 				 		break;
 2512              		.loc 1 900 0
 2513 0158 22E0     		b	.L183
 2514              	.L196:
 902:.\uart_wifi.c **** 						App_Filter_Used_Time_Data();
ARM GAS  C:\Users\ZHANGM~1\AppData\Local\Temp\ccBCEiox.s 			page 64


 2515              		.loc 1 902 0
 2516 015a FFF7FEFF 		bl	App_Filter_Used_Time_Data
 2517              	.LVL86:
 903:.\uart_wifi.c **** 				 		break;		 		
 2518              		.loc 1 903 0
 2519 015e 1FE0     		b	.L183
 2520              	.L194:
 905:.\uart_wifi.c **** 						App_Search_Filter_Manage_Num();		 		
 2521              		.loc 1 905 0
 2522 0160 FFF7FEFF 		bl	App_Search_Filter_Manage_Num
 2523              	.LVL87:
 906:.\uart_wifi.c **** 				 		break;
 2524              		.loc 1 906 0
 2525 0164 1CE0     		b	.L183
 2526              	.L193:
 908:.\uart_wifi.c **** 						App_Download_Filter_Manage_Num();			 		
 2527              		.loc 1 908 0
 2528 0166 FFF7FEFF 		bl	App_Download_Filter_Manage_Num
 2529              	.LVL88:
 909:.\uart_wifi.c **** 				 		break;		 		 
 2530              		.loc 1 909 0
 2531 016a 19E0     		b	.L183
 2532              	.L191:
 911:.\uart_wifi.c **** 						App_Poweron();
 2533              		.loc 1 911 0
 2534 016c FFF7FEFF 		bl	App_Poweron
 2535              	.LVL89:
 912:.\uart_wifi.c **** 				 		break;
 2536              		.loc 1 912 0
 2537 0170 16E0     		b	.L183
 2538              	.L199:
 917:.\uart_wifi.c **** 						Host_State_Data();	
 2539              		.loc 1 917 0
 2540 0172 FFF7FEFF 		bl	Host_State_Data
 2541              	.LVL90:
 918:.\uart_wifi.c **** 						break;		
 2542              		.loc 1 918 0
 2543 0176 13E0     		b	.L183
 2544              	.L200:
 920:.\uart_wifi.c **** 						Host_Filter_Changed_Data();	
 2545              		.loc 1 920 0
 2546 0178 FFF7FEFF 		bl	Host_Filter_Changed_Data
 2547              	.LVL91:
 921:.\uart_wifi.c **** 						break;	
 2548              		.loc 1 921 0
 2549 017c 10E0     		b	.L183
 2550              	.L202:
 926:.\uart_wifi.c **** 				  	Host_E0_Data();			      
 2551              		.loc 1 926 0
 2552 017e FFF7FEFF 		bl	Host_E0_Data
 2553              	.LVL92:
 927:.\uart_wifi.c **** 					  break;
 2554              		.loc 1 927 0
 2555 0182 0DE0     		b	.L183
 2556              	.L203:
 929:.\uart_wifi.c **** 				  	Host_E1_Data();			      
 2557              		.loc 1 929 0
ARM GAS  C:\Users\ZHANGM~1\AppData\Local\Temp\ccBCEiox.s 			page 65


 2558 0184 FFF7FEFF 		bl	Host_E1_Data
 2559              	.LVL93:
 930:.\uart_wifi.c **** 					  break;
 2560              		.loc 1 930 0
 2561 0188 0AE0     		b	.L183
 2562              	.L205:
 935:.\uart_wifi.c **** 				  	Host_E3_Data();			      
 2563              		.loc 1 935 0
 2564 018a FFF7FEFF 		bl	Host_E3_Data
 2565              	.LVL94:
 936:.\uart_wifi.c **** 					  break;	
 2566              		.loc 1 936 0
 2567 018e 07E0     		b	.L183
 2568              	.L206:
 938:.\uart_wifi.c **** 				  	Host_E4_Data();			      
 2569              		.loc 1 938 0
 2570 0190 FFF7FEFF 		bl	Host_E4_Data
 2571              	.LVL95:
 939:.\uart_wifi.c **** 					  break; 
 2572              		.loc 1 939 0
 2573 0194 04E0     		b	.L183
 2574              	.L208:
 944:.\uart_wifi.c **** 				  	Host_E6_Data();			      
 2575              		.loc 1 944 0
 2576 0196 FFF7FEFF 		bl	Host_E6_Data
 2577              	.LVL96:
 945:.\uart_wifi.c **** 					  break;	
 2578              		.loc 1 945 0
 2579 019a 01E0     		b	.L183
 2580              	.L209:
 947:.\uart_wifi.c **** 				  	Host_E7_Data();			      
 2581              		.loc 1 947 0
 2582 019c FFF7FEFF 		bl	Host_E7_Data
 2583              	.LVL97:
 2584              	.L183:
 952:.\uart_wifi.c **** 
 953:.\uart_wifi.c **** 				default:			 		 
 954:.\uart_wifi.c **** 					   break;
 955:.\uart_wifi.c ****   		 }		 		  
 956:.\uart_wifi.c ****   	 } 		 					
 957:.\uart_wifi.c **** }
 2585              		.loc 1 957 0
 2586              		@ sp needed for prologue
 2587 01a0 70BD     		pop	{r4, r5, r6, pc}
 2588              	.L231:
 2589 01a2 C046     		.align	2
 2590              	.L230:
 2591 01a4 00000000 		.word	WifidatagramWorkFlag
 2592 01a8 00000000 		.word	Send_Interval_Counter
 2593 01ac 00000000 		.word	Cmd_Function_Num
 2594 01b0 00000000 		.word	Cmd_Function_Buf
 2595 01b4 00000000 		.word	Cmd_Function
 2596 01b8 F0900000 		.word	37104
 2597 01bc 01900000 		.word	36865
 2598 01c0 02900000 		.word	36866
 2599 01c4 F6900000 		.word	37110
 2600 01c8 F3900000 		.word	37107
ARM GAS  C:\Users\ZHANGM~1\AppData\Local\Temp\ccBCEiox.s 			page 66


 2601 01cc F1900000 		.word	37105
 2602 01d0 F2900000 		.word	37106
 2603 01d4 F4900000 		.word	37108
 2604 01d8 F5900000 		.word	37109
 2605 01dc C0CC0000 		.word	52416
 2606 01e0 F7900000 		.word	37111
 2607 01e4 F8900000 		.word	37112
 2608 01e8 C5CC0000 		.word	52421
 2609 01ec D0CC0000 		.word	52432
 2610 01f0 C2CC0000 		.word	52418
 2611              		.cfi_endproc
 2612              	.LFE71:
 2613              		.size	Send_To_WifiUart, .-Send_To_WifiUart
 2614              		.section	.text.Load_Wifi_State,"ax",%progbits
 2615              		.align	1
 2616              		.global	Load_Wifi_State
 2617              		.code	16
 2618              		.thumb_func
 2619              		.type	Load_Wifi_State, %function
 2620              	Load_Wifi_State:
 2621              	.LFB72:
 958:.\uart_wifi.c **** 
 959:.\uart_wifi.c **** 
 960:.\uart_wifi.c **** 
 961:.\uart_wifi.c **** 
 962:.\uart_wifi.c **** /******************************************************************************
 963:.\uart_wifi.c **** * 函 数 名:  Load_Wifi_State (uint8 Sendding_Data )
 964:.\uart_wifi.c **** * 函数功能: wifi状态数据
 965:.\uart_wifi.c **** * 入口参数: 无
 966:.\uart_wifi.c **** * 返    回: 
 967:.\uart_wifi.c **** *******************************************************************************/
 968:.\uart_wifi.c **** 
 969:.\uart_wifi.c **** uint16 Load_Wifi_State (uint8 Sendding_Data )
 970:.\uart_wifi.c **** {
 2622              		.loc 1 970 0
 2623              		.cfi_startproc
 2624              	.LVL98:
 2625 0000 00B5     		push	{lr}
 2626              	.LCFI39:
 2627              		.cfi_def_cfa_offset 4
 2628              		.cfi_offset 14, -4
 2629 0002 0828     		cmp	r0, #8
 2630 0004 03D8     		bhi	.L234
 2631 0006 034B     		ldr	r3, .L235
 2632 0008 4000     		lsl	r0, r0, #1
 2633              	.LVL99:
 2634 000a C05A     		ldrh	r0, [r0, r3]
 2635 000c 00E0     		b	.L233
 2636              	.LVL100:
 2637              	.L234:
 2638              		.loc 1 970 0
 2639 000e 0248     		ldr	r0, .L235+4
 2640              	.LVL101:
 2641              	.L233:
 971:.\uart_wifi.c **** 	uint16 Value_Wifi_State;
 972:.\uart_wifi.c **** 	switch(Sendding_Data)
 973:.\uart_wifi.c **** 	{
ARM GAS  C:\Users\ZHANGM~1\AppData\Local\Temp\ccBCEiox.s 			page 67


 974:.\uart_wifi.c ****  		case WIFI_SENDDINGSTATE_DATA_NO_LINK_ROUTER://无法连接路由器				      
 975:.\uart_wifi.c **** 		  Value_Wifi_State =0100;   				  				  					  					  					  					  					  					  				  					  		
 976:.\uart_wifi.c **** 		  break;
 977:.\uart_wifi.c **** 		case WIFI_SENDDINGSTATE_DATA_NO_LINK_SERVER://无法连接服务器				      
 978:.\uart_wifi.c **** 		  Value_Wifi_State =1000;   				  				  					  					  					  					  					  					  				  					  		
 979:.\uart_wifi.c **** 		  break;
 980:.\uart_wifi.c **** 		case WIFI_SENDDINGSTATE_DATA_LINK_ROUTER:	//已经路由器（指示灯常亮）			      
 981:.\uart_wifi.c ****      	Value_Wifi_State =2000;			  				  					  					  					  					  					  					  				  					  				
 982:.\uart_wifi.c **** 		  break;
 983:.\uart_wifi.c **** 		case WIFI_SENDDINGSTATE_DATA_LINK_SERVER:		//已连接服务器（指示灯常亮）		      
 984:.\uart_wifi.c **** 		  Value_Wifi_State =3000;   				  				  					  					  					  					  					  					  				  					  		
 985:.\uart_wifi.c **** 		  break;
 986:.\uart_wifi.c **** 		case WIFI_SENDDINGSTATE_DATA_LINK_SMART_SETTING:		//已进入SmartLink等待App配置(指示灯
 987:.\uart_wifi.c **** 		  Value_Wifi_State =4000;  				     				  				  					  					  					  					  					  					  				  	
 988:.\uart_wifi.c **** 		  break;
 989:.\uart_wifi.c **** 		case WIFI_SENDDINGSTATE_DATA_LINK_SMART_SETTING_WAITTING:	//正在进SmartLink 配置中(指示
 990:.\uart_wifi.c **** 		  Value_Wifi_State =5000;   
 991:.\uart_wifi.c **** 		  break;
 992:.\uart_wifi.c **** 		case WIFI_SENDDINGSTATE_DATA_SMART_SETTING_FAIL:	//06：SmartLink 配置失败
 993:.\uart_wifi.c **** 			Value_Wifi_State =6000; 			      
 994:.\uart_wifi.c **** 		  break;
 995:.\uart_wifi.c **** 		case WIFI_SENDDINGSTATE_DATA_SMART_SETTING_OK:	//07：SmartLink配置成功（指示灯常亮同
 996:.\uart_wifi.c **** 			Value_Wifi_State =7000; 			      			     				  				  					  					  					  					  					  					  	
 997:.\uart_wifi.c **** 		  break;
 998:.\uart_wifi.c **** 		case WIFI_SENDDINGSTATE_DATA_SOFTAP:	//08：SoftAP状态			      
 999:.\uart_wifi.c **** 	    Value_Wifi_State =8000; 	 				  				  					  					  					  				 					  					  				  					  			
1000:.\uart_wifi.c **** 		  break;
1001:.\uart_wifi.c **** 	 	default:	
1002:.\uart_wifi.c **** 	 		Value_Wifi_State =8765; 	 				 				 				 
1003:.\uart_wifi.c **** 			break;
1004:.\uart_wifi.c **** 	}
1005:.\uart_wifi.c **** 	return Value_Wifi_State;	
1006:.\uart_wifi.c **** }
 2642              		.loc 1 1006 0
 2643              		@ sp needed for prologue
 2644 0010 00BD     		pop	{pc}
 2645              	.L236:
 2646 0012 C046     		.align	2
 2647              	.L235:
 2648 0014 00000000 		.word	.LANCHOR1
 2649 0018 3D220000 		.word	8765
 2650              		.cfi_endproc
 2651              	.LFE72:
 2652              		.size	Load_Wifi_State, .-Load_Wifi_State
 2653              		.section	.text.Process_From_Wifi_Ctl_Ack_Data,"ax",%progbits
 2654              		.align	1
 2655              		.global	Process_From_Wifi_Ctl_Ack_Data
 2656              		.code	16
 2657              		.thumb_func
 2658              		.type	Process_From_Wifi_Ctl_Ack_Data, %function
 2659              	Process_From_Wifi_Ctl_Ack_Data:
 2660              	.LFB73:
1007:.\uart_wifi.c **** 
1008:.\uart_wifi.c **** 
1009:.\uart_wifi.c **** /******************************************************************************
1010:.\uart_wifi.c **** * 函 数 名: void Process_From_Wifi_Ctl_Ack_Data(void)
1011:.\uart_wifi.c **** * 函数功能: app、服务器控制数据
ARM GAS  C:\Users\ZHANGM~1\AppData\Local\Temp\ccBCEiox.s 			page 68


1012:.\uart_wifi.c **** * 入口参数: 无
1013:.\uart_wifi.c **** * 返    回: 
1014:.\uart_wifi.c **** *******************************************************************************/
1015:.\uart_wifi.c **** void Process_From_Wifi_Ctl_Ack_Data(void)
1016:.\uart_wifi.c **** {
 2661              		.loc 1 1016 0
 2662              		.cfi_startproc
 2663 0000 38B5     		push	{r3, r4, r5, lr}
 2664              	.LCFI40:
 2665              		.cfi_def_cfa_offset 16
 2666              		.cfi_offset 3, -16
 2667              		.cfi_offset 4, -12
 2668              		.cfi_offset 5, -8
 2669              		.cfi_offset 14, -4
1017:.\uart_wifi.c **** 	 if((WifiWorkFlag.gcReceComm1OK)&&(giWIFIDATALength<=(WIFIBUFLEN-10-1))) 
 2670              		.loc 1 1017 0
 2671 0002 334B     		ldr	r3, .L257
 2672 0004 0421     		mov	r1, #4
 2673 0006 1A78     		ldrb	r2, [r3]
 2674 0008 0A42     		tst	r2, r1
 2675 000a 5FD0     		beq	.L237
 2676              		.loc 1 1017 0 is_stmt 0 discriminator 1
 2677 000c 3148     		ldr	r0, .L257+4
 2678 000e 0588     		ldrh	r5, [r0]
 2679 0010 592D     		cmp	r5, #89
 2680 0012 5BD8     		bhi	.L237
1018:.\uart_wifi.c **** 	 {
1019:.\uart_wifi.c **** 	   WifiWorkFlag.gcReceComm1OK =0;
 2681              		.loc 1 1019 0 is_stmt 1
 2682 0014 8A43     		bic	r2, r1
 2683 0016 1A70     		strb	r2, [r3]
1020:.\uart_wifi.c **** 		 if(ATReceBuffer[0].gcATReceData[10+giWIFIDATALength]==Sum_Make_Verify (&ATReceBuffer[0].gcATRece
 2684              		.loc 1 1020 0
 2685 0018 2F4C     		ldr	r4, .L257+8
 2686 001a 2B1C     		mov	r3, r5
 2687 001c 0A33     		add	r3, r3, #10
 2688 001e 99B2     		uxth	r1, r3
 2689 0020 201C     		mov	r0, r4
 2690 0022 FFF7FEFF 		bl	Sum_Make_Verify
 2691              	.LVL102:
 2692 0026 6219     		add	r2, r4, r5
 2693 0028 917A     		ldrb	r1, [r2, #10]
 2694 002a 8142     		cmp	r1, r0
 2695 002c 4ED1     		bne	.L237
1021:.\uart_wifi.c **** 		 {
1022:.\uart_wifi.c **** 			 switch(giWIFICommand)
 2696              		.loc 1 1022 0
 2697 002e 2B48     		ldr	r0, .L257+12
 2698 0030 0088     		ldrh	r0, [r0]
 2699 0032 B328     		cmp	r0, #179
 2700 0034 48D0     		beq	.L255
 2701 0036 13D8     		bhi	.L252
 2702 0038 A228     		cmp	r0, #162
 2703 003a 25D0     		beq	.L243
 2704 003c 0BD8     		bhi	.L253
 2705 003e A028     		cmp	r0, #160
 2706 0040 3BD0     		beq	.L241
ARM GAS  C:\Users\ZHANGM~1\AppData\Local\Temp\ccBCEiox.s 			page 69


 2707 0042 A128     		cmp	r0, #161
 2708 0044 42D1     		bne	.L237
1023:.\uart_wifi.c **** 			 {
1024:.\uart_wifi.c **** 			 	case WIFI_SENDDINGSTATE_DATA:			
1025:.\uart_wifi.c **** 			 				SmarkLink_State = ATReceBuffer[0].gcATReceData[10];         //获取当前状态	
1026:.\uart_wifi.c **** 			 				Load_Command(WIFI_SENDDINGSTATE_DATA);  				  					  					  					  					  					  					  			
1027:.\uart_wifi.c **** 					  	break;
1028:.\uart_wifi.c **** 				case WIFI_FIRMWARE_UPDATE_DATA:	
1029:.\uart_wifi.c **** 							Load_Command(WIFI_FIRMWARE_UPDATE_DATA); 							
1030:.\uart_wifi.c **** 							break;
1031:.\uart_wifi.c **** 				case WIFI_DECT_DATA:
1032:.\uart_wifi.c **** 							Load_Command(WIFI_DECT_DATA);  	
1033:.\uart_wifi.c **** 							break;											
1034:.\uart_wifi.c **** 			 	case  APP_HOST_STATE://APP查询设备工作状态指令	APP查询设备工作状态指令
1035:.\uart_wifi.c **** 			 				Load_Command(APP_HOST_STATE);  		
1036:.\uart_wifi.c **** 			 		 		break;	
1037:.\uart_wifi.c **** 				case  APP_FILTER_CHANGED_DATA: 						//0x00B2 //查询本机滤芯使用次数（n级）
1038:.\uart_wifi.c **** 							Load_Command(APP_FILTER_CHANGED_DATA); 
1039:.\uart_wifi.c **** 			 		 		break;
1040:.\uart_wifi.c **** 				case  APP_ERROR_DATA: 											//0x00B4 //查询本机故障信息
1041:.\uart_wifi.c **** 							Load_Command(APP_ERROR_DATA); 
1042:.\uart_wifi.c **** 			 		 		break;
1043:.\uart_wifi.c **** 				case  APP_FILTER_USED_TIME_DATA: 					//0x00B3 //查询本机滤芯使用时间（n级）		 		
1044:.\uart_wifi.c **** 			 				Load_Command(APP_FILTER_USED_TIME_DATA); 
1045:.\uart_wifi.c **** 			 		 		break;
1046:.\uart_wifi.c **** 			 	case  APP_SEARCH_FILTER_MANAGE_NUM:	//查询本机滤芯管理方案号
1047:.\uart_wifi.c **** 			 				Load_Command(APP_SEARCH_FILTER_MANAGE_NUM); 	
1048:.\uart_wifi.c **** 			 		 		break;
1049:.\uart_wifi.c **** 			 	case  APP_DOWNLOAD_FILTER_MANAGE_NUM:	//下载本机滤芯管理方案号
1050:.\uart_wifi.c **** 			 				Filter_Full_Data_Buf[0]= ATReceBuffer[0].gcATReceData[10]; 
1051:.\uart_wifi.c **** 			 				Filter_Full_Data_Buf[0]= (Filter_Full_Data_Buf[0]<<8)+ATReceBuffer[0].gcATReceData[11];
1052:.\uart_wifi.c **** 			 				Filter_Full_Data_Buf[1]= ATReceBuffer[0].gcATReceData[12]; 
1053:.\uart_wifi.c **** 			 				Filter_Full_Data_Buf[1]= (Filter_Full_Data_Buf[0]<<8)+ATReceBuffer[0].gcATReceData[13];
1054:.\uart_wifi.c **** 			 				Filter_Full_Data_Buf[2]= ATReceBuffer[0].gcATReceData[14]; 
1055:.\uart_wifi.c **** 			 				Filter_Full_Data_Buf[2]= (Filter_Full_Data_Buf[0]<<8)+ATReceBuffer[0].gcATReceData[15];
1056:.\uart_wifi.c **** 			 				Filter_Full_Data_Buf[3]= ATReceBuffer[0].gcATReceData[16]; 
1057:.\uart_wifi.c **** 			 				Filter_Full_Data_Buf[3]= (Filter_Full_Data_Buf[0]<<8)+ATReceBuffer[0].gcATReceData[17]; 
1058:.\uart_wifi.c **** 			 				Filter_Full_Data_Buf[4]= ATReceBuffer[0].gcATReceData[18]; 
1059:.\uart_wifi.c **** 			 				Filter_Full_Data_Buf[4]= (Filter_Full_Data_Buf[0]<<8)+ATReceBuffer[0].gcATReceData[19]; 
1060:.\uart_wifi.c **** 			 				Filter_Full_Data_Buf[5]= ATReceBuffer[0].gcATReceData[20]; 
1061:.\uart_wifi.c **** 			 				Filter_Full_Data_Buf[5]= (Filter_Full_Data_Buf[0]<<8)+ATReceBuffer[0].gcATReceData[21]; 
1062:.\uart_wifi.c **** 			 				Load_Command(APP_DOWNLOAD_FILTER_MANAGE_NUM); 		 		
1063:.\uart_wifi.c **** 			 		 		break;			 		 
1064:.\uart_wifi.c **** 			 	case  APP_POWERON:	//远程开机功能
1065:.\uart_wifi.c **** 			 				WorkFlag.poweroff=0;
1066:.\uart_wifi.c **** 			 				WorkFlag.poweron=1;
1067:.\uart_wifi.c **** 			 				Load_Command(APP_POWERON); 
1068:.\uart_wifi.c **** 			 		 		break;
1069:.\uart_wifi.c **** 			 	case  APP_POWEROFF:	//远程关机功能	
1070:.\uart_wifi.c **** 			 				WorkFlag.poweroff=1;
 2709              		.loc 1 1070 0
 2710 0046 264D     		ldr	r5, .L257+16
 2711 0048 8023     		mov	r3, #128
 2712 004a 6C78     		ldrb	r4, [r5, #1]
 2713 004c 5A42     		neg	r2, r3
 2714 004e 2243     		orr	r2, r4
1071:.\uart_wifi.c **** 			 				WorkFlag.poweron=0;
ARM GAS  C:\Users\ZHANGM~1\AppData\Local\Temp\ccBCEiox.s 			page 70


 2715              		.loc 1 1071 0
 2716 0050 BF21     		mov	r1, #191
 2717 0052 0A40     		and	r2, r1
 2718 0054 37E0     		b	.L256
 2719              	.L253:
1022:.\uart_wifi.c **** 			 switch(giWIFICommand)
 2720              		.loc 1 1022 0
 2721 0056 B128     		cmp	r0, #177
 2722 0058 36D0     		beq	.L255
 2723 005a B228     		cmp	r0, #178
 2724 005c 36D1     		bne	.L237
 2725 005e 33E0     		b	.L255
 2726              	.L252:
 2727 0060 204B     		ldr	r3, .L257+20
 2728 0062 9842     		cmp	r0, r3
 2729 0064 0CD0     		beq	.L249
 2730 0066 04D8     		bhi	.L254
 2731 0068 B428     		cmp	r0, #180
 2732 006a 2DD0     		beq	.L255
 2733 006c B528     		cmp	r0, #181
 2734 006e 2DD1     		bne	.L237
 2735 0070 2AE0     		b	.L255
 2736              	.L254:
 2737 0072 1D49     		ldr	r1, .L257+24
 2738 0074 8842     		cmp	r0, r1
 2739 0076 27D0     		beq	.L255
 2740 0078 1C4A     		ldr	r2, .L257+28
 2741 007a 9042     		cmp	r0, r2
 2742 007c 26D1     		bne	.L237
 2743 007e 23E0     		b	.L255
 2744              	.L249:
1025:.\uart_wifi.c **** 			 				SmarkLink_State = ATReceBuffer[0].gcATReceData[10];         //获取当前状态	
 2745              		.loc 1 1025 0
 2746 0080 A47A     		ldrb	r4, [r4, #10]
 2747 0082 1B4D     		ldr	r5, .L257+32
 2748 0084 2C70     		strb	r4, [r5]
 2749 0086 1FE0     		b	.L255
 2750              	.L243:
1050:.\uart_wifi.c **** 			 				Filter_Full_Data_Buf[0]= ATReceBuffer[0].gcATReceData[10]; 
 2751              		.loc 1 1050 0
 2752 0088 A57A     		ldrb	r5, [r4, #10]
1051:.\uart_wifi.c **** 			 				Filter_Full_Data_Buf[0]= (Filter_Full_Data_Buf[0]<<8)+ATReceBuffer[0].gcATReceData[11];
 2753              		.loc 1 1051 0
 2754 008a E17A     		ldrb	r1, [r4, #11]
 2755 008c 2A02     		lsl	r2, r5, #8
 2756 008e 5318     		add	r3, r2, r1
 2757 0090 9DB2     		uxth	r5, r3
 2758 0092 184B     		ldr	r3, .L257+36
1053:.\uart_wifi.c **** 			 				Filter_Full_Data_Buf[1]= (Filter_Full_Data_Buf[0]<<8)+ATReceBuffer[0].gcATReceData[13];
 2759              		.loc 1 1053 0
 2760 0094 2A02     		lsl	r2, r5, #8
1051:.\uart_wifi.c **** 			 				Filter_Full_Data_Buf[0]= (Filter_Full_Data_Buf[0]<<8)+ATReceBuffer[0].gcATReceData[11];
 2761              		.loc 1 1051 0
 2762 0096 1D80     		strh	r5, [r3]
1053:.\uart_wifi.c **** 			 				Filter_Full_Data_Buf[1]= (Filter_Full_Data_Buf[0]<<8)+ATReceBuffer[0].gcATReceData[13];
 2763              		.loc 1 1053 0
 2764 0098 617B     		ldrb	r1, [r4, #13]
ARM GAS  C:\Users\ZHANGM~1\AppData\Local\Temp\ccBCEiox.s 			page 71


 2765 009a 95B2     		uxth	r5, r2
 2766 009c 6A18     		add	r2, r5, r1
 2767 009e 5A80     		strh	r2, [r3, #2]
1055:.\uart_wifi.c **** 			 				Filter_Full_Data_Buf[2]= (Filter_Full_Data_Buf[0]<<8)+ATReceBuffer[0].gcATReceData[15];
 2768              		.loc 1 1055 0
 2769 00a0 E17B     		ldrb	r1, [r4, #15]
 2770 00a2 6A18     		add	r2, r5, r1
 2771 00a4 9A80     		strh	r2, [r3, #4]
1057:.\uart_wifi.c **** 			 				Filter_Full_Data_Buf[3]= (Filter_Full_Data_Buf[0]<<8)+ATReceBuffer[0].gcATReceData[17]; 
 2772              		.loc 1 1057 0
 2773 00a6 617C     		ldrb	r1, [r4, #17]
 2774 00a8 6A18     		add	r2, r5, r1
 2775 00aa DA80     		strh	r2, [r3, #6]
1059:.\uart_wifi.c **** 			 				Filter_Full_Data_Buf[4]= (Filter_Full_Data_Buf[0]<<8)+ATReceBuffer[0].gcATReceData[19]; 
 2776              		.loc 1 1059 0
 2777 00ac E17C     		ldrb	r1, [r4, #19]
 2778 00ae 6A18     		add	r2, r5, r1
 2779 00b0 1A81     		strh	r2, [r3, #8]
1061:.\uart_wifi.c **** 			 				Filter_Full_Data_Buf[5]= (Filter_Full_Data_Buf[0]<<8)+ATReceBuffer[0].gcATReceData[21]; 
 2780              		.loc 1 1061 0
 2781 00b2 647D     		ldrb	r4, [r4, #21]
 2782 00b4 2D19     		add	r5, r5, r4
 2783 00b6 5D81     		strh	r5, [r3, #10]
 2784 00b8 06E0     		b	.L255
 2785              	.L241:
1065:.\uart_wifi.c **** 			 				WorkFlag.poweroff=0;
 2786              		.loc 1 1065 0
 2787 00ba 094D     		ldr	r5, .L257+16
1066:.\uart_wifi.c **** 			 				WorkFlag.poweron=1;
 2788              		.loc 1 1066 0
 2789 00bc 7F22     		mov	r2, #127
1065:.\uart_wifi.c **** 			 				WorkFlag.poweroff=0;
 2790              		.loc 1 1065 0
 2791 00be 6C78     		ldrb	r4, [r5, #1]
1066:.\uart_wifi.c **** 			 				WorkFlag.poweron=1;
 2792              		.loc 1 1066 0
 2793 00c0 4023     		mov	r3, #64
 2794 00c2 2240     		and	r2, r4
 2795 00c4 1A43     		orr	r2, r3
 2796              	.L256:
 2797              		.loc 1 1071 0
 2798 00c6 6A70     		strb	r2, [r5, #1]
 2799              	.L255:
1072:.\uart_wifi.c **** 			 				Load_Command(APP_POWEROFF); 
 2800              		.loc 1 1072 0
 2801 00c8 FFF7FEFF 		bl	Load_Command
 2802              	.LVL103:
 2803              	.L237:
1073:.\uart_wifi.c **** 			 		 		break;
1074:.\uart_wifi.c **** 				 default:				 				 				 
1075:.\uart_wifi.c **** 					break;
1076:.\uart_wifi.c **** 				 
1077:.\uart_wifi.c **** 			 } 
1078:.\uart_wifi.c **** 		 }
1079:.\uart_wifi.c **** 		}		 					
1080:.\uart_wifi.c **** }
 2804              		.loc 1 1080 0
ARM GAS  C:\Users\ZHANGM~1\AppData\Local\Temp\ccBCEiox.s 			page 72


 2805              		@ sp needed for prologue
 2806 00cc 38BD     		pop	{r3, r4, r5, pc}
 2807              	.L258:
 2808 00ce C046     		.align	2
 2809              	.L257:
 2810 00d0 00000000 		.word	WifiWorkFlag
 2811 00d4 00000000 		.word	giWIFIDATALength
 2812 00d8 00000000 		.word	ATReceBuffer
 2813 00dc 00000000 		.word	giWIFICommand
 2814 00e0 00000000 		.word	WorkFlag
 2815 00e4 D0CC0000 		.word	52432
 2816 00e8 D2CC0000 		.word	52434
 2817 00ec D6CC0000 		.word	52438
 2818 00f0 00000000 		.word	SmarkLink_State
 2819 00f4 00000000 		.word	Filter_Full_Data_Buf
 2820              		.cfi_endproc
 2821              	.LFE73:
 2822              		.size	Process_From_Wifi_Ctl_Ack_Data, .-Process_From_Wifi_Ctl_Ack_Data
 2823              		.section	.text.Process_From_Wifi_Noa_Data,"ax",%progbits
 2824              		.align	1
 2825              		.global	Process_From_Wifi_Noa_Data
 2826              		.code	16
 2827              		.thumb_func
 2828              		.type	Process_From_Wifi_Noa_Data, %function
 2829              	Process_From_Wifi_Noa_Data:
 2830              	.LFB74:
1081:.\uart_wifi.c **** /******************************************************************************
1082:.\uart_wifi.c **** * 函 数 名: void Process_From_Wifi_Noa_Data(void)
1083:.\uart_wifi.c **** * 函数功能: app、服务器控制数据
1084:.\uart_wifi.c **** * 入口参数: 无
1085:.\uart_wifi.c **** * 返    回: 
1086:.\uart_wifi.c **** *******************************************************************************/
1087:.\uart_wifi.c **** void Process_From_Wifi_Noa_Data(void)
1088:.\uart_wifi.c **** {
 2831              		.loc 1 1088 0
 2832              		.cfi_startproc
 2833 0000 38B5     		push	{r3, r4, r5, lr}
 2834              	.LCFI41:
 2835              		.cfi_def_cfa_offset 16
 2836              		.cfi_offset 3, -16
 2837              		.cfi_offset 4, -12
 2838              		.cfi_offset 5, -8
 2839              		.cfi_offset 14, -4
1089:.\uart_wifi.c **** 	 if((WifiWorkFlag.gcReceComm1OK)&&(giWIFIDATALength<=(WIFIBUFLEN-10-1)))
 2840              		.loc 1 1089 0
 2841 0002 0F4B     		ldr	r3, .L264
 2842 0004 0421     		mov	r1, #4
 2843 0006 1A78     		ldrb	r2, [r3]
 2844 0008 0A42     		tst	r2, r1
 2845 000a 18D0     		beq	.L259
 2846              		.loc 1 1089 0 is_stmt 0 discriminator 1
 2847 000c 0D48     		ldr	r0, .L264+4
 2848 000e 0588     		ldrh	r5, [r0]
 2849 0010 592D     		cmp	r5, #89
 2850 0012 14D8     		bhi	.L259
1090:.\uart_wifi.c **** 	 {
1091:.\uart_wifi.c **** 	   WifiWorkFlag.gcReceComm1OK =0;
ARM GAS  C:\Users\ZHANGM~1\AppData\Local\Temp\ccBCEiox.s 			page 73


 2851              		.loc 1 1091 0 is_stmt 1
 2852 0014 8A43     		bic	r2, r1
 2853 0016 1A70     		strb	r2, [r3]
1092:.\uart_wifi.c **** 		 if(ATReceBuffer[0].gcATReceData[10+giWIFIDATALength]==Sum_Make_Verify (&ATReceBuffer[0].gcATRece
 2854              		.loc 1 1092 0
 2855 0018 0B4C     		ldr	r4, .L264+8
 2856 001a 2B1C     		mov	r3, r5
 2857 001c 0A33     		add	r3, r3, #10
 2858 001e 99B2     		uxth	r1, r3
 2859 0020 201C     		mov	r0, r4
 2860 0022 FFF7FEFF 		bl	Sum_Make_Verify
 2861              	.LVL104:
 2862 0026 6219     		add	r2, r4, r5
 2863 0028 917A     		ldrb	r1, [r2, #10]
 2864 002a 8142     		cmp	r1, r0
 2865 002c 07D1     		bne	.L259
1093:.\uart_wifi.c **** 		 {
1094:.\uart_wifi.c **** 			 switch(giWIFICommand)
 2866              		.loc 1 1094 0
 2867 002e 0748     		ldr	r0, .L264+12
 2868 0030 074B     		ldr	r3, .L264+16
 2869 0032 0588     		ldrh	r5, [r0]
 2870 0034 9D42     		cmp	r5, r3
 2871 0036 02D1     		bne	.L259
1095:.\uart_wifi.c **** 			 {
1096:.\uart_wifi.c **** 			 		case WIFI_SENDDINGSTATE_DATA:				      
1097:.\uart_wifi.c **** 					    	SmarkLink_State = ATReceBuffer[0].gcATReceData[10];         //获取当前状态		   				
 2872              		.loc 1 1097 0
 2873 0038 A47A     		ldrb	r4, [r4, #10]
 2874 003a 064A     		ldr	r2, .L264+20
 2875 003c 1470     		strb	r4, [r2]
 2876              	.L259:
1098:.\uart_wifi.c **** 					  break;
1099:.\uart_wifi.c **** 				 default:				 				 				 
1100:.\uart_wifi.c **** 					break;
1101:.\uart_wifi.c **** 				 
1102:.\uart_wifi.c **** 			 } 
1103:.\uart_wifi.c **** 		 }
1104:.\uart_wifi.c **** 	 }		 					
1105:.\uart_wifi.c **** }
 2877              		.loc 1 1105 0
 2878              		@ sp needed for prologue
 2879 003e 38BD     		pop	{r3, r4, r5, pc}
 2880              	.L265:
 2881              		.align	2
 2882              	.L264:
 2883 0040 00000000 		.word	WifiWorkFlag
 2884 0044 00000000 		.word	giWIFIDATALength
 2885 0048 00000000 		.word	ATReceBuffer
 2886 004c 00000000 		.word	giWIFICommand
 2887 0050 D0CC0000 		.word	52432
 2888 0054 00000000 		.word	SmarkLink_State
 2889              		.cfi_endproc
 2890              	.LFE74:
 2891              		.size	Process_From_Wifi_Noa_Data, .-Process_From_Wifi_Noa_Data
 2892              		.section	.text.Process_From_Wifi_Ack_Data,"ax",%progbits
 2893              		.align	1
ARM GAS  C:\Users\ZHANGM~1\AppData\Local\Temp\ccBCEiox.s 			page 74


 2894              		.global	Process_From_Wifi_Ack_Data
 2895              		.code	16
 2896              		.thumb_func
 2897              		.type	Process_From_Wifi_Ack_Data, %function
 2898              	Process_From_Wifi_Ack_Data:
 2899              	.LFB75:
1106:.\uart_wifi.c **** /******************************************************************************
1107:.\uart_wifi.c **** * 函 数 名: void Process_From_Wifi_Ack_Data(void)
1108:.\uart_wifi.c **** * 函数功能: wifi应答数据
1109:.\uart_wifi.c **** * 入口参数: 无
1110:.\uart_wifi.c **** * 返    回: 
1111:.\uart_wifi.c **** *******************************************************************************/
1112:.\uart_wifi.c **** void Process_From_Wifi_Ack_Data(void)
1113:.\uart_wifi.c **** {
 2900              		.loc 1 1113 0
 2901              		.cfi_startproc
 2902 0000 70B5     		push	{r4, r5, r6, lr}
 2903              	.LCFI42:
 2904              		.cfi_def_cfa_offset 16
 2905              		.cfi_offset 4, -16
 2906              		.cfi_offset 5, -12
 2907              		.cfi_offset 6, -8
 2908              		.cfi_offset 14, -4
1114:.\uart_wifi.c **** 	 if((WifiWorkFlag.gcReceComm1OK)&&(giWIFIDATALength<=(WIFIBUFLEN-10-1)))
 2909              		.loc 1 1114 0
 2910 0002 2E4B     		ldr	r3, .L312
 2911 0004 0425     		mov	r5, #4
 2912 0006 1A78     		ldrb	r2, [r3]
 2913 0008 2A42     		tst	r2, r5
 2914 000a 55D0     		beq	.L266
 2915              		.loc 1 1114 0 is_stmt 0 discriminator 1
 2916 000c 2C49     		ldr	r1, .L312+4
 2917 000e 0E88     		ldrh	r6, [r1]
 2918 0010 592E     		cmp	r6, #89
 2919 0012 51D8     		bhi	.L266
1115:.\uart_wifi.c **** 	 {
1116:.\uart_wifi.c **** 	   WifiWorkFlag.gcReceComm1OK =0;
1117:.\uart_wifi.c **** 		 if(ATReceBuffer[0].gcATReceData[10+giWIFIDATALength]==Sum_Make_Verify (&ATReceBuffer[0].gcATRece
 2920              		.loc 1 1117 0 is_stmt 1
 2921 0014 2B4C     		ldr	r4, .L312+8
 2922 0016 301C     		mov	r0, r6
1116:.\uart_wifi.c **** 	   WifiWorkFlag.gcReceComm1OK =0;
 2923              		.loc 1 1116 0
 2924 0018 AA43     		bic	r2, r5
 2925              		.loc 1 1117 0
 2926 001a 0A30     		add	r0, r0, #10
1116:.\uart_wifi.c **** 	   WifiWorkFlag.gcReceComm1OK =0;
 2927              		.loc 1 1116 0
 2928 001c 1A70     		strb	r2, [r3]
 2929              		.loc 1 1117 0
 2930 001e 81B2     		uxth	r1, r0
 2931 0020 201C     		mov	r0, r4
 2932 0022 FFF7FEFF 		bl	Sum_Make_Verify
 2933              	.LVL105:
 2934 0026 A319     		add	r3, r4, r6
 2935 0028 997A     		ldrb	r1, [r3, #10]
 2936 002a 221C     		mov	r2, r4
ARM GAS  C:\Users\ZHANGM~1\AppData\Local\Temp\ccBCEiox.s 			page 75


 2937 002c 8142     		cmp	r1, r0
 2938 002e 43D1     		bne	.L266
1118:.\uart_wifi.c **** 		 {
1119:.\uart_wifi.c **** 			 switch(giWIFICommand)
 2939              		.loc 1 1119 0
 2940 0030 254E     		ldr	r6, .L312+12
 2941 0032 264B     		ldr	r3, .L312+16
 2942 0034 3088     		ldrh	r0, [r6]
 2943 0036 9842     		cmp	r0, r3
 2944 0038 2FD0     		beq	.L281
 2945 003a 10D8     		bhi	.L286
 2946 003c 2449     		ldr	r1, .L312+20
 2947 003e 8842     		cmp	r0, r1
 2948 0040 2BD0     		beq	.L281
 2949 0042 06D8     		bhi	.L287
 2950 0044 9026     		mov	r6, #144
 2951 0046 3302     		lsl	r3, r6, #8
 2952 0048 9842     		cmp	r0, r3
 2953 004a 26D0     		beq	.L281
 2954 004c 1DD8     		bhi	.L276
 2955 004e 214E     		ldr	r6, .L312+24
 2956 0050 18E0     		b	.L308
 2957              	.L287:
 2958 0052 2149     		ldr	r1, .L312+28
 2959 0054 8842     		cmp	r0, r1
 2960 0056 20D0     		beq	.L281
 2961 0058 17D8     		bhi	.L276
 2962 005a 204E     		ldr	r6, .L312+32
 2963 005c 12E0     		b	.L308
 2964              	.L286:
 2965 005e 204E     		ldr	r6, .L312+36
 2966 0060 B042     		cmp	r0, r6
 2967 0062 1AD0     		beq	.L281
 2968 0064 04D8     		bhi	.L288
 2969 0066 1F4B     		ldr	r3, .L312+40
 2970 0068 6489     		ldrh	r4, [r4, #10]
 2971 006a 9842     		cmp	r0, r3
 2972 006c 12D1     		bne	.L311
 2973 006e 0EE0     		b	.L279
 2974              	.L288:
 2975 0070 1D49     		ldr	r1, .L312+44
 2976 0072 8842     		cmp	r0, r1
 2977 0074 11D0     		beq	.L281
 2978 0076 01D8     		bhi	.L289
 2979 0078 1C4E     		ldr	r6, .L312+48
 2980 007a 03E0     		b	.L308
 2981              	.L289:
 2982 007c 1C4D     		ldr	r5, .L312+52
 2983 007e A842     		cmp	r0, r5
 2984 0080 12D0     		beq	.L282
 2985 0082 1C4E     		ldr	r6, .L312+56
 2986              	.L308:
 2987 0084 B042     		cmp	r0, r6
 2988 0086 17D1     		bne	.L266
 2989 0088 0EE0     		b	.L282
 2990              	.L276:
1120:.\uart_wifi.c **** 			 {
ARM GAS  C:\Users\ZHANGM~1\AppData\Local\Temp\ccBCEiox.s 			page 76


1121:.\uart_wifi.c ****           case MCU_HANDSHAKE_DATA:		
1122:.\uart_wifi.c ****                 {
1123:.\uart_wifi.c **** 				 		if((ATReceBuffer[0].gcATReceData[10] == 0x00)  && (ATReceBuffer[0].gcATReceData[11] == LINKN
1124:.\uart_wifi.c **** 					  	{
1125:.\uart_wifi.c **** 						  	WifidatagramWorkFlag.uart_ack = 0;
1126:.\uart_wifi.c **** 						  	             //BUZfkg=1;
1127:.\uart_wifi.c **** 					  	}				      
1128:.\uart_wifi.c **** 					  break;
1129:.\uart_wifi.c ****                 }
1130:.\uart_wifi.c **** 			   case MCU_CLEARALLUSERBOUND_DATA:			 
1131:.\uart_wifi.c **** 				 		if((ATReceBuffer[0].gcATReceData[10] == 0x00)  && (ATReceBuffer[0].gcATReceData[11] == LINKN
1132:.\uart_wifi.c **** 	  					{
1133:.\uart_wifi.c **** 	  						WifidatagramWorkFlag.uart_ack = 0;
1134:.\uart_wifi.c **** 	  					}
1135:.\uart_wifi.c **** 					  break;				 
1136:.\uart_wifi.c **** 		 
1137:.\uart_wifi.c **** 				 case MCU_POWERONSMARTLINK_DATA:				 
1138:.\uart_wifi.c **** 				 		if((ATReceBuffer[0].gcATReceData[10] == 0x00)  && (ATReceBuffer[0].gcATReceData[11] == LINKN
1139:.\uart_wifi.c **** 					  {
1140:.\uart_wifi.c **** 						  WifidatagramWorkFlag.uart_ack = 0;
1141:.\uart_wifi.c **** 						  //WifidatagramWorkFlag.send_data_load=0;
1142:.\uart_wifi.c **** 						 // SmarkLink_State = ATReceBuffer[0].gcATReceData[12];
1143:.\uart_wifi.c **** 						 	
1144:.\uart_wifi.c **** 					  }			      
1145:.\uart_wifi.c **** 					  break;
1146:.\uart_wifi.c **** 				case	HOST_STATE_DATA: 
1147:.\uart_wifi.c **** 						if((ATReceBuffer[0].gcATReceData[10] == 0x00)  && (ATReceBuffer[0].gcATReceData[11] == LINKNE
1148:.\uart_wifi.c **** 					  {
1149:.\uart_wifi.c **** 						  WifidatagramWorkFlag.uart_ack = 0;
1150:.\uart_wifi.c **** 					  }				      
1151:.\uart_wifi.c **** 					  break;
1152:.\uart_wifi.c **** 				 case MCU_FIRMWARE_UPDATE:	 
1153:.\uart_wifi.c **** 				 		if((ATReceBuffer[0].gcATReceData[10] == 0x00)  && (ATReceBuffer[0].gcATReceData[11] == LINKN
1154:.\uart_wifi.c **** 					  {
1155:.\uart_wifi.c **** 						  WifidatagramWorkFlag.uart_ack = 0;
1156:.\uart_wifi.c **** 					  }				      
1157:.\uart_wifi.c **** 					  break;
1158:.\uart_wifi.c **** 				case	HOST_FILTER_CHANGED_DATA:
1159:.\uart_wifi.c **** 						if((ATReceBuffer[0].gcATReceData[10] == 0x00)  && (ATReceBuffer[0].gcATReceData[11] == E0_REP
1160:.\uart_wifi.c **** 					  {
1161:.\uart_wifi.c **** 						  WifidatagramWorkFlag.uart_ack = 0;
1162:.\uart_wifi.c **** 					  }				      
1163:.\uart_wifi.c **** 					  break;
1164:.\uart_wifi.c **** 				case	HOST_FILTER_USED_TIME_DATA:
1165:.\uart_wifi.c **** 						if((ATReceBuffer[0].gcATReceData[10] == 0x00)  && (ATReceBuffer[0].gcATReceData[11] == E0_REP
1166:.\uart_wifi.c **** 					  {
1167:.\uart_wifi.c **** 						  WifidatagramWorkFlag.uart_ack = 0;
1168:.\uart_wifi.c **** 					  }				      
1169:.\uart_wifi.c **** 					  break;
1170:.\uart_wifi.c **** 				 case HOST_E0_DATA:
1171:.\uart_wifi.c **** 				 
1172:.\uart_wifi.c **** 				 		if((ATReceBuffer[0].gcATReceData[10] == 0x00)  && (ATReceBuffer[0].gcATReceData[11] == E0_RE
1173:.\uart_wifi.c **** 					  {
1174:.\uart_wifi.c **** 						  WifidatagramWorkFlag.uart_ack = 0;
1175:.\uart_wifi.c **** 					  }				      
1176:.\uart_wifi.c **** 					  break;
1177:.\uart_wifi.c **** 				 
ARM GAS  C:\Users\ZHANGM~1\AppData\Local\Temp\ccBCEiox.s 			page 77


1178:.\uart_wifi.c **** 				 case HOST_E1_DATA:
1179:.\uart_wifi.c **** 				 
1180:.\uart_wifi.c **** 				 		if((ATReceBuffer[0].gcATReceData[10] == 0x00)  && (ATReceBuffer[0].gcATReceData[11] == E1_RE
1181:.\uart_wifi.c **** 					  {
1182:.\uart_wifi.c **** 						  WifidatagramWorkFlag.uart_ack = 0;
1183:.\uart_wifi.c **** 					  }				      
1184:.\uart_wifi.c **** 					  break;
1185:.\uart_wifi.c **** 				 
1186:.\uart_wifi.c **** 				 case HOST_E2_DATA:
1187:.\uart_wifi.c **** 				 
1188:.\uart_wifi.c **** 				 		if((ATReceBuffer[0].gcATReceData[10] == 0x00)  && (ATReceBuffer[0].gcATReceData[11] == E2_RE
 2991              		.loc 1 1188 0
 2992 008a 6289     		ldrh	r2, [r4, #10]
 2993 008c 0DE0     		b	.L297
 2994              	.L279:
1189:.\uart_wifi.c **** 					  {
1190:.\uart_wifi.c **** 						  WifidatagramWorkFlag.uart_ack = 0;
1191:.\uart_wifi.c **** 					  }				      
1192:.\uart_wifi.c **** 					  break;
1193:.\uart_wifi.c **** 				 
1194:.\uart_wifi.c **** 				 case HOST_E3_DATA:
1195:.\uart_wifi.c **** 				 
1196:.\uart_wifi.c **** 				 		if((ATReceBuffer[0].gcATReceData[10] == 0x00)  && (ATReceBuffer[0].gcATReceData[11] == E3_RE
1197:.\uart_wifi.c **** 					  {
1198:.\uart_wifi.c **** 						  WifidatagramWorkFlag.uart_ack = 0;
1199:.\uart_wifi.c **** 					  }				      
1200:.\uart_wifi.c **** 					  break;
1201:.\uart_wifi.c **** 				 
1202:.\uart_wifi.c **** 				 case HOST_E4_DATA:
1203:.\uart_wifi.c **** 				 
1204:.\uart_wifi.c **** 				 		if((ATReceBuffer[0].gcATReceData[10] == 0x00)  && (ATReceBuffer[0].gcATReceData[11] == E4_RE
1205:.\uart_wifi.c **** 					  {
1206:.\uart_wifi.c **** 						  WifidatagramWorkFlag.uart_ack = 0;
1207:.\uart_wifi.c **** 					  }				      
1208:.\uart_wifi.c **** 					  break;
1209:.\uart_wifi.c **** 				 
1210:.\uart_wifi.c **** 				 case HOST_E5_DATA:
1211:.\uart_wifi.c **** 				 
1212:.\uart_wifi.c **** 				 		if((ATReceBuffer[0].gcATReceData[10] == 0x00)  && (ATReceBuffer[0].gcATReceData[11] == E5_RE
 2995              		.loc 1 1212 0
 2996 008e 002C     		cmp	r4, #0
 2997 0090 12D1     		bne	.L266
 2998 0092 05E0     		b	.L301
 2999              	.L311:
1213:.\uart_wifi.c **** 					  {
1214:.\uart_wifi.c **** 						  WifidatagramWorkFlag.uart_ack = 0;
1215:.\uart_wifi.c **** 					  }				      
1216:.\uart_wifi.c **** 					  break;
1217:.\uart_wifi.c **** 				 
1218:.\uart_wifi.c **** 				 case HOST_E6_DATA:
1219:.\uart_wifi.c **** 				 
1220:.\uart_wifi.c **** 				 		if((ATReceBuffer[0].gcATReceData[10] == 0x00)  && (ATReceBuffer[0].gcATReceData[11] == E6_RE
 3000              		.loc 1 1220 0
 3001 0094 002C     		cmp	r4, #0
 3002 0096 0FD1     		bne	.L266
 3003 0098 09E0     		b	.L291
 3004              	.L281:
ARM GAS  C:\Users\ZHANGM~1\AppData\Local\Temp\ccBCEiox.s 			page 78


1221:.\uart_wifi.c **** 					  {
1222:.\uart_wifi.c **** 						  WifidatagramWorkFlag.uart_ack = 0;
1223:.\uart_wifi.c **** 					  }				      
1224:.\uart_wifi.c **** 					  break;
1225:.\uart_wifi.c **** 				 
1226:.\uart_wifi.c **** 				 case HOST_E7_DATA:
1227:.\uart_wifi.c **** 				 
1228:.\uart_wifi.c **** 				 		if((ATReceBuffer[0].gcATReceData[10] == 0x00)  && (ATReceBuffer[0].gcATReceData[11] == E7_RE
 3005              		.loc 1 1228 0
 3006 009a 6189     		ldrh	r1, [r4, #10]
 3007 009c 0029     		cmp	r1, #0
 3008 009e 0BD1     		bne	.L266
 3009              	.L301:
1229:.\uart_wifi.c **** 					  {
1230:.\uart_wifi.c **** 						  WifidatagramWorkFlag.uart_ack = 0;
 3010              		.loc 1 1230 0
 3011 00a0 1548     		ldr	r0, .L312+60
 3012 00a2 0378     		ldrb	r3, [r0]
 3013 00a4 AB43     		bic	r3, r5
 3014 00a6 06E0     		b	.L292
 3015              	.L282:
1231:.\uart_wifi.c **** 					  }				      
1232:.\uart_wifi.c **** 					  break;
1233:.\uart_wifi.c **** 				 
1234:.\uart_wifi.c **** 				case HOST_E8_DATA:
1235:.\uart_wifi.c **** 				 
1236:.\uart_wifi.c **** 				 		if((ATReceBuffer[0].gcATReceData[10] == 0x00)  && (ATReceBuffer[0].gcATReceData[11] == E8_RE
 3016              		.loc 1 1236 0
 3017 00a8 5289     		ldrh	r2, [r2, #10]
 3018              	.L297:
 3019 00aa 002A     		cmp	r2, #0
 3020 00ac 04D1     		bne	.L266
 3021              	.L291:
1237:.\uart_wifi.c **** 					  {
1238:.\uart_wifi.c **** 						  WifidatagramWorkFlag.uart_ack = 0;
 3022              		.loc 1 1238 0
 3023 00ae 1248     		ldr	r0, .L312+60
 3024 00b0 0424     		mov	r4, #4
 3025 00b2 0378     		ldrb	r3, [r0]
 3026 00b4 A343     		bic	r3, r4
 3027              	.L292:
 3028 00b6 0370     		strb	r3, [r0]
 3029              	.L266:
1239:.\uart_wifi.c **** 					  }				      
1240:.\uart_wifi.c **** 					  break;
1241:.\uart_wifi.c **** 				 default:
1242:.\uart_wifi.c **** 				 		break;
1243:.\uart_wifi.c **** 				 
1244:.\uart_wifi.c **** 			 } 
1245:.\uart_wifi.c **** 		 }
1246:.\uart_wifi.c **** 	 }		 					
1247:.\uart_wifi.c **** }
 3030              		.loc 1 1247 0
 3031              		@ sp needed for prologue
 3032 00b8 70BD     		pop	{r4, r5, r6, pc}
 3033              	.L313:
 3034 00ba C046     		.align	2
ARM GAS  C:\Users\ZHANGM~1\AppData\Local\Temp\ccBCEiox.s 			page 79


 3035              	.L312:
 3036 00bc 00000000 		.word	WifiWorkFlag
 3037 00c0 00000000 		.word	giWIFIDATALength
 3038 00c4 00000000 		.word	ATReceBuffer
 3039 00c8 00000000 		.word	giWIFICommand
 3040 00cc F3900000 		.word	37107
 3041 00d0 02900000 		.word	36866
 3042 00d4 01600000 		.word	24577
 3043 00d8 F1900000 		.word	37105
 3044 00dc F0900000 		.word	37104
 3045 00e0 F7900000 		.word	37111
 3046 00e4 F5900000 		.word	37109
 3047 00e8 C0CC0000 		.word	52416
 3048 00ec F8900000 		.word	37112
 3049 00f0 C2CC0000 		.word	52418
 3050 00f4 C5CC0000 		.word	52421
 3051 00f8 00000000 		.word	WifidatagramWorkFlag
 3052              		.cfi_endproc
 3053              	.LFE75:
 3054              		.size	Process_From_Wifi_Ack_Data, .-Process_From_Wifi_Ack_Data
 3055              		.section	.text.Process_From_Tdsboard_Data,"ax",%progbits
 3056              		.align	1
 3057              		.global	Process_From_Tdsboard_Data
 3058              		.code	16
 3059              		.thumb_func
 3060              		.type	Process_From_Tdsboard_Data, %function
 3061              	Process_From_Tdsboard_Data:
 3062              	.LFB76:
1248:.\uart_wifi.c **** 
1249:.\uart_wifi.c **** /******************************************************************************
1250:.\uart_wifi.c **** * 函 数 名: void ProcessUARTData(void)
1251:.\uart_wifi.c **** * 函数功能: 机器上报数据
1252:.\uart_wifi.c **** * 入口参数: 无
1253:.\uart_wifi.c **** * 返    回: 
1254:.\uart_wifi.c **** *******************************************************************************/
1255:.\uart_wifi.c **** void Process_From_Tdsboard_Data(void)
1256:.\uart_wifi.c **** {
 3063              		.loc 1 1256 0
 3064              		.cfi_startproc
 3065 0000 F8B5     		push	{r3, r4, r5, r6, r7, lr}
 3066              	.LCFI43:
 3067              		.cfi_def_cfa_offset 24
 3068              		.cfi_offset 3, -24
 3069              		.cfi_offset 4, -20
 3070              		.cfi_offset 5, -16
 3071              		.cfi_offset 6, -12
 3072              		.cfi_offset 7, -8
 3073              		.cfi_offset 14, -4
1257:.\uart_wifi.c **** 	 if((WifiWorkFlag.gcReceComm2OK)&&(giTDSBOARDDATALength<(TDSBUFLEN-10-1)))
 3074              		.loc 1 1257 0
 3075 0002 294D     		ldr	r5, .L320
 3076 0004 0222     		mov	r2, #2
 3077 0006 2B78     		ldrb	r3, [r5]
 3078 0008 284E     		ldr	r6, .L320+4
 3079 000a 1342     		tst	r3, r2
 3080 000c 33D0     		beq	.L316
 3081              		.loc 1 1257 0 is_stmt 0 discriminator 1
ARM GAS  C:\Users\ZHANGM~1\AppData\Local\Temp\ccBCEiox.s 			page 80


 3082 000e 2849     		ldr	r1, .L320+8
 3083 0010 0F88     		ldrh	r7, [r1]
 3084 0012 122F     		cmp	r7, #18
 3085 0014 2FD8     		bhi	.L316
1258:.\uart_wifi.c **** 	 {
1259:.\uart_wifi.c **** 	   WifiWorkFlag.gcReceComm2OK =0;
1260:.\uart_wifi.c ****        //
1261:.\uart_wifi.c **** 		 if(ATTdsReceBuffer[0].gcATReceTdsboardData[10+giTDSBOARDDATALength]==Sum_Make_Verify (&ATTdsRece
 3086              		.loc 1 1261 0 is_stmt 1
 3087 0016 274C     		ldr	r4, .L320+12
 3088 0018 381C     		mov	r0, r7
1259:.\uart_wifi.c **** 	   WifiWorkFlag.gcReceComm2OK =0;
 3089              		.loc 1 1259 0
 3090 001a 9343     		bic	r3, r2
 3091              		.loc 1 1261 0
 3092 001c 0A30     		add	r0, r0, #10
1259:.\uart_wifi.c **** 	   WifiWorkFlag.gcReceComm2OK =0;
 3093              		.loc 1 1259 0
 3094 001e 2B70     		strb	r3, [r5]
 3095              		.loc 1 1261 0
 3096 0020 81B2     		uxth	r1, r0
 3097 0022 201C     		mov	r0, r4
 3098 0024 FFF7FEFF 		bl	Sum_Make_Verify
 3099              	.LVL106:
 3100 0028 E319     		add	r3, r4, r7
 3101 002a 9A7A     		ldrb	r2, [r3, #10]
 3102 002c 8242     		cmp	r2, r0
 3103 002e 22D1     		bne	.L316
1262:.\uart_wifi.c **** 		 {
1263:.\uart_wifi.c ****                         Tds_Ack_Timer=30;
1264:.\uart_wifi.c **** 			 switch(giTDSBOARDCommand)
 3104              		.loc 1 1264 0
 3105 0030 214F     		ldr	r7, .L320+16
1263:.\uart_wifi.c ****                         Tds_Ack_Timer=30;
 3106              		.loc 1 1263 0
 3107 0032 1E21     		mov	r1, #30
 3108              		.loc 1 1264 0
 3109 0034 3888     		ldrh	r0, [r7]
 3110 0036 8023     		mov	r3, #128
1263:.\uart_wifi.c ****                         Tds_Ack_Timer=30;
 3111              		.loc 1 1263 0
 3112 0038 3170     		strb	r1, [r6]
 3113              		.loc 1 1264 0
 3114 003a 5A01     		lsl	r2, r3, #5
 3115 003c 9042     		cmp	r0, r2
 3116 003e 1AD1     		bne	.L316
1265:.\uart_wifi.c **** 			 {
1266:.\uart_wifi.c **** 				 case 0x1000:		      
1267:.\uart_wifi.c **** 				  	Value_Tds0=ATTdsReceBuffer[0].gcATReceTdsboardData[10];
 3117              		.loc 1 1267 0
 3118 0040 A17A     		ldrb	r1, [r4, #10]
1268:.\uart_wifi.c **** 				  	Value_Tds0=(Value_Tds0<<8)+ATTdsReceBuffer[0].gcATReceTdsboardData[11];
 3119              		.loc 1 1268 0
 3120 0042 E07A     		ldrb	r0, [r4, #11]
 3121 0044 0F02     		lsl	r7, r1, #8
 3122 0046 1D4B     		ldr	r3, .L320+20
 3123 0048 3A18     		add	r2, r7, r0
ARM GAS  C:\Users\ZHANGM~1\AppData\Local\Temp\ccBCEiox.s 			page 81


 3124 004a 1A80     		strh	r2, [r3]
1269:.\uart_wifi.c **** 				  	Value_Tds1=ATTdsReceBuffer[0].gcATReceTdsboardData[12];
 3125              		.loc 1 1269 0
 3126 004c 217B     		ldrb	r1, [r4, #12]
1270:.\uart_wifi.c **** 				  	Value_Tds1=(Value_Tds1<<8)+ATTdsReceBuffer[0].gcATReceTdsboardData[13];
 3127              		.loc 1 1270 0
 3128 004e 607B     		ldrb	r0, [r4, #13]
 3129 0050 0F02     		lsl	r7, r1, #8
 3130 0052 1B4B     		ldr	r3, .L320+24
 3131 0054 3A18     		add	r2, r7, r0
 3132 0056 1A80     		strh	r2, [r3]
1271:.\uart_wifi.c **** 				  	Value_Loushui_Ad=ATTdsReceBuffer[0].gcATReceTdsboardData[14];
 3133              		.loc 1 1271 0
 3134 0058 A17B     		ldrb	r1, [r4, #14]
1272:.\uart_wifi.c **** 				  	Value_Loushui_Ad=(Value_Loushui_Ad<<8)+ATTdsReceBuffer[0].gcATReceTdsboardData[15];
 3135              		.loc 1 1272 0
 3136 005a E07B     		ldrb	r0, [r4, #15]
 3137 005c 0F02     		lsl	r7, r1, #8
 3138 005e 194B     		ldr	r3, .L320+28
 3139 0060 3A18     		add	r2, r7, r0
 3140 0062 1A80     		strh	r2, [r3]
1273:.\uart_wifi.c **** 				  	Value_T=ATTdsReceBuffer[0].gcATReceTdsboardData[16];
 3141              		.loc 1 1273 0
 3142 0064 217C     		ldrb	r1, [r4, #16]
 3143 0066 184F     		ldr	r7, .L320+32
1274:.\uart_wifi.c **** 				  	Value_Flow=ATTdsReceBuffer[0].gcATReceTdsboardData[17];
1275:.\uart_wifi.c **** 				  	Value_Flow=(Value_Flow<<8)+ATTdsReceBuffer[0].gcATReceTdsboardData[18];		
 3144              		.loc 1 1275 0
 3145 0068 184B     		ldr	r3, .L320+36
1273:.\uart_wifi.c **** 				  	Value_T=ATTdsReceBuffer[0].gcATReceTdsboardData[16];
 3146              		.loc 1 1273 0
 3147 006a 3970     		strb	r1, [r7]
1274:.\uart_wifi.c **** 				  	Value_Flow=ATTdsReceBuffer[0].gcATReceTdsboardData[17];
 3148              		.loc 1 1274 0
 3149 006c 607C     		ldrb	r0, [r4, #17]
 3150              		.loc 1 1275 0
 3151 006e A47C     		ldrb	r4, [r4, #18]
 3152 0070 0202     		lsl	r2, r0, #8
 3153 0072 1119     		add	r1, r2, r4
 3154 0074 1980     		strh	r1, [r3]
 3155              	.L316:
1276:.\uart_wifi.c ****                     //Load_Command(APP_HOST_STATE); 
1277:.\uart_wifi.c **** 					  break;
1278:.\uart_wifi.c **** 				 default:				 					 
1279:.\uart_wifi.c **** 					break;
1280:.\uart_wifi.c **** 			 } 
1281:.\uart_wifi.c **** 		 }
1282:.\uart_wifi.c **** 	 }		
1283:.\uart_wifi.c ****         if(Tds_Ack_Timer==0)
 3156              		.loc 1 1283 0
 3157 0076 3778     		ldrb	r7, [r6]
 3158 0078 002F     		cmp	r7, #0
 3159 007a 13D1     		bne	.L314
1284:.\uart_wifi.c ****     {
1285:.\uart_wifi.c ****         Tds_Ack_Timer=30;
 3160              		.loc 1 1285 0
 3161 007c 1E22     		mov	r2, #30
ARM GAS  C:\Users\ZHANGM~1\AppData\Local\Temp\ccBCEiox.s 			page 82


 3162 007e 3270     		strb	r2, [r6]
1286:.\uart_wifi.c ****          memset(ATTdsReceBuffer[0].gcATReceTdsboardData,0x00,TDSBUFLEN);
 3163              		.loc 1 1286 0
 3164 0080 0C4E     		ldr	r6, .L320+12
 3165 0082 391C     		mov	r1, r7
 3166 0084 301C     		mov	r0, r6
 3167 0086 FFF7FEFF 		bl	memset
 3168              	.LVL107:
1287:.\uart_wifi.c ****         gctdsboardCommunState=0;
 3169              		.loc 1 1287 0
 3170 008a 1148     		ldr	r0, .L320+40
1288:.\uart_wifi.c ****         giTDSBOARDCommand=0;
 3171              		.loc 1 1288 0
 3172 008c 0A4A     		ldr	r2, .L320+16
1289:.\uart_wifi.c ****         giTDSBOARDDATALength=0;
 3173              		.loc 1 1289 0
 3174 008e 084C     		ldr	r4, .L320+8
1287:.\uart_wifi.c ****         gctdsboardCommunState=0;
 3175              		.loc 1 1287 0
 3176 0090 0770     		strb	r7, [r0]
1288:.\uart_wifi.c ****         giTDSBOARDCommand=0;
 3177              		.loc 1 1288 0
 3178 0092 1780     		strh	r7, [r2]
 3179              		.loc 1 1289 0
 3180 0094 2780     		strh	r7, [r4]
1290:.\uart_wifi.c ****         WifiWorkFlag.gcReceComm2OK=0;
 3181              		.loc 1 1290 0
 3182 0096 2978     		ldrb	r1, [r5]
 3183 0098 0223     		mov	r3, #2
 3184 009a 9943     		bic	r1, r3
 3185 009c 2970     		strb	r1, [r5]
1291:.\uart_wifi.c ****         ATTdsReceBuffer[0].gcATReceTdsboardCount=0; 
 3186              		.loc 1 1291 0
 3187 009e F783     		strh	r7, [r6, #30]
1292:.\uart_wifi.c ****         //BUZfkg=1;
1293:.\uart_wifi.c ****         Open_UART_TDS_ISR();
 3188              		.loc 1 1293 0
 3189 00a0 FFF7FEFF 		bl	Open_UART_TDS_ISR
 3190              	.LVL108:
 3191              	.L314:
1294:.\uart_wifi.c ****     }
1295:.\uart_wifi.c **** }
 3192              		.loc 1 1295 0
 3193              		@ sp needed for prologue
 3194 00a4 F8BD     		pop	{r3, r4, r5, r6, r7, pc}
 3195              	.L321:
 3196 00a6 C046     		.align	2
 3197              	.L320:
 3198 00a8 00000000 		.word	WifiWorkFlag
 3199 00ac 00000000 		.word	Tds_Ack_Timer
 3200 00b0 00000000 		.word	giTDSBOARDDATALength
 3201 00b4 00000000 		.word	ATTdsReceBuffer
 3202 00b8 00000000 		.word	giTDSBOARDCommand
 3203 00bc 00000000 		.word	Value_Tds0
 3204 00c0 00000000 		.word	Value_Tds1
 3205 00c4 00000000 		.word	Value_Loushui_Ad
 3206 00c8 00000000 		.word	Value_T
ARM GAS  C:\Users\ZHANGM~1\AppData\Local\Temp\ccBCEiox.s 			page 83


 3207 00cc 00000000 		.word	Value_Flow
 3208 00d0 00000000 		.word	gctdsboardCommunState
 3209              		.cfi_endproc
 3210              	.LFE76:
 3211              		.size	Process_From_Tdsboard_Data, .-Process_From_Tdsboard_Data
 3212              		.section	.text.Process_From_Wifi_Data,"ax",%progbits
 3213              		.align	1
 3214              		.global	Process_From_Wifi_Data
 3215              		.code	16
 3216              		.thumb_func
 3217              		.type	Process_From_Wifi_Data, %function
 3218              	Process_From_Wifi_Data:
 3219              	.LFB77:
1296:.\uart_wifi.c **** /*
1297:.\uart_wifi.c **** ***************************************************************************************************
1298:.\uart_wifi.c **** ** 函数名称 ：ProcessWIFIData()
1299:.\uart_wifi.c **** ** 函数功能 ：WIFI数据帧处理                        
1300:.\uart_wifi.c **** ** 入口参数 ：无
1301:.\uart_wifi.c **** ** 出口参数 ：无
1302:.\uart_wifi.c **** ***************************************************************************************************
1303:.\uart_wifi.c **** */
1304:.\uart_wifi.c **** void Process_From_Wifi_Data(void)
1305:.\uart_wifi.c **** {
 3220              		.loc 1 1305 0
 3221              		.cfi_startproc
 3222 0000 10B5     		push	{r4, lr}
 3223              	.LCFI44:
 3224              		.cfi_def_cfa_offset 8
 3225              		.cfi_offset 4, -8
 3226              		.cfi_offset 14, -4
1306:.\uart_wifi.c ****     //uint8 i;//数据缓冲区判断，主要判断哪些代码需要发送	
1307:.\uart_wifi.c ****   //Rev_Uart();		
1308:.\uart_wifi.c **** 	if((gcWIFICTL & ACK_DATA) == ACK_DATA) 				// 返回指令
 3227              		.loc 1 1308 0
 3228 0002 074B     		ldr	r3, .L328
 3229 0004 1A78     		ldrb	r2, [r3]
 3230 0006 1C1C     		mov	r4, r3
 3231 0008 7F2A     		cmp	r2, #127
 3232 000a 01D9     		bls	.L323
1309:.\uart_wifi.c **** 		{	
1310:.\uart_wifi.c **** 			Process_From_Wifi_Ack_Data();
 3233              		.loc 1 1310 0
 3234 000c FFF7FEFF 		bl	Process_From_Wifi_Ack_Data
 3235              	.LVL109:
 3236              	.L323:
1311:.\uart_wifi.c **** 		}
1312:.\uart_wifi.c **** 	if((gcWIFICTL & NOA_DATA) == NOA_DATA) // 主动发送无需对方回复
 3237              		.loc 1 1312 0
 3238 0010 2078     		ldrb	r0, [r4]
 3239 0012 4206     		lsl	r2, r0, #25
 3240 0014 01D5     		bpl	.L324
1313:.\uart_wifi.c **** 		{  	
1314:.\uart_wifi.c **** 			Process_From_Wifi_Noa_Data();
 3241              		.loc 1 1314 0
 3242 0016 FFF7FEFF 		bl	Process_From_Wifi_Noa_Data
 3243              	.LVL110:
 3244              	.L324:
ARM GAS  C:\Users\ZHANGM~1\AppData\Local\Temp\ccBCEiox.s 			page 84


1315:.\uart_wifi.c **** 		}
1316:.\uart_wifi.c **** 	if((gcWIFICTL & CTL_ACK_DATA) == CTL_ACK_DATA) // 主动发送需对方回复
1317:.\uart_wifi.c **** 		{  	
1318:.\uart_wifi.c **** 			Process_From_Wifi_Ctl_Ack_Data();
 3245              		.loc 1 1318 0
 3246 001a FFF7FEFF 		bl	Process_From_Wifi_Ctl_Ack_Data
 3247              	.LVL111:
1319:.\uart_wifi.c **** 		}
1320:.\uart_wifi.c **** }
 3248              		.loc 1 1320 0
 3249              		@ sp needed for prologue
 3250 001e 10BD     		pop	{r4, pc}
 3251              	.L329:
 3252              		.align	2
 3253              	.L328:
 3254 0020 00000000 		.word	gcWIFICTL
 3255              		.cfi_endproc
 3256              	.LFE77:
 3257              		.size	Process_From_Wifi_Data, .-Process_From_Wifi_Data
 3258              		.comm	iSendCounter,2,2
 3259              		.comm	iUartSendLen,2,2
 3260              		.comm	gcTDSBOARDCTL,1,1
 3261              		.comm	giTDSBOARDDATALength,2,2
 3262              		.comm	giTDSBOARDCommand,2,2
 3263              		.comm	gcWIFICTL,1,1
 3264              		.comm	giWIFIDATALength,2,2
 3265              		.comm	giWIFICommand,2,2
 3266              		.comm	Frame_Num,1,1
 3267              		.comm	gctdsboardCommunState,1,1
 3268              		.comm	gcWifiCommunState,1,1
 3269              		.comm	Error_Data_Buf,18,2
 3270              		.comm	Filter_Changed_Num,24,2
 3271              		.comm	Filter_Full_Data_Buf,12,2
 3272              		.comm	Cmd_Function_Buf,16,2
 3273              		.comm	Cmd_Function,2,2
 3274              		.comm	Cmd_Function_Num,1,1
 3275              		.comm	WifidatagramWorkFlag,4,4
 3276              		.comm	WifiWorkFlag,4,4
 3277              		.comm	ATTdsReceBuffer,32,2
 3278              		.comm	ATReceBuffer,102,2
 3279              		.comm	Send_Interval_Counter,1,1
 3280              		.comm	SmarkLink_State,1,1
 3281              		.comm	Value_Flow,2,2
 3282              		.comm	Value_T,1,1
 3283              		.comm	Value_Loushui_Ad,2,2
 3284              		.comm	Value_Tds1,2,2
 3285              		.comm	Value_Tds0,2,2
 3286              		.comm	cpSendBufPtr,4,4
 3287              		.comm	Work_State_Num_L,1,1
 3288              		.comm	Work_State_Num_H,1,1
 3289              		.comm	Ack_Timer,1,1
 3290              		.comm	u8SmartLinkState,1,1
 3291              		.comm	u8LinkState,1,1
 3292              		.section	.rodata
 3293              		.align	1
 3294              		.set	.LANCHOR1,. + 0
 3295              		.type	CSWTCH.98, %object
ARM GAS  C:\Users\ZHANGM~1\AppData\Local\Temp\ccBCEiox.s 			page 85


 3296              		.size	CSWTCH.98, 18
 3297              	CSWTCH.98:
 3298 0000 4000     		.short	64
 3299 0002 E803     		.short	1000
 3300 0004 D007     		.short	2000
 3301 0006 B80B     		.short	3000
 3302 0008 A00F     		.short	4000
 3303 000a 8813     		.short	5000
 3304 000c 7017     		.short	6000
 3305 000e 581B     		.short	7000
 3306 0010 401F     		.short	8000
 3307              		.bss
 3308              		.set	.LANCHOR0,. + 0
 3309              		.type	cBuf.7035, %object
 3310              		.size	cBuf.7035, 100
 3311              	cBuf.7035:
 3312 0000 00000000 		.space	100
 3312      00000000 
 3312      00000000 
 3312      00000000 
 3312      00000000 
 3313              		.text
 3314              	.Letext0:
 3315              		.file 2 "./Generated_Source/PSoC4/cytypes.h"
 3316              		.file 3 ".\\fun.h"
 3317              		.file 4 ".\\uart_wifi.h"
 3318              		.file 5 "./Generated_Source/PSoC4/UART_0_SPI_UART.h"