ARM GAS  C:\Users\kevin\AppData\Local\Temp\ccEmeqeI.s 			page 1


   1              		.cpu cortex-m0
   2              		.fpu softvfp
   3              		.eabi_attribute 20, 1
   4              		.eabi_attribute 21, 1
   5              		.eabi_attribute 23, 3
   6              		.eabi_attribute 24, 1
   7              		.eabi_attribute 25, 1
   8              		.eabi_attribute 26, 1
   9              		.eabi_attribute 30, 4
  10              		.eabi_attribute 34, 0
  11              		.eabi_attribute 18, 4
  12              		.code	16
  13              		.file	"CapSense.c"
  14              		.text
  15              	.Ltext0:
  16              		.cfi_sections	.debug_frame
  17              		.section	.text.CapSense_CsdHwBlockInit,"ax",%progbits
  18              		.align	1
  19              		.global	CapSense_CsdHwBlockInit
  20              		.code	16
  21              		.thumb_func
  22              		.type	CapSense_CsdHwBlockInit, %function
  23              	CapSense_CsdHwBlockInit:
  24              	.LFB34:
  25              		.file 1 ".\\Generated_Source\\PSoC4\\CapSense.c"
   1:.\Generated_Source\PSoC4/CapSense.c **** /*******************************************************************************
   2:.\Generated_Source\PSoC4/CapSense.c **** * File Name: CapSense.c
   3:.\Generated_Source\PSoC4/CapSense.c **** * Version 2.10
   4:.\Generated_Source\PSoC4/CapSense.c **** *
   5:.\Generated_Source\PSoC4/CapSense.c **** * Description:
   6:.\Generated_Source\PSoC4/CapSense.c **** *  This file provides the source code for scanning APIs for the CapSense CSD 
   7:.\Generated_Source\PSoC4/CapSense.c **** *  component.
   8:.\Generated_Source\PSoC4/CapSense.c **** *
   9:.\Generated_Source\PSoC4/CapSense.c **** * Note:
  10:.\Generated_Source\PSoC4/CapSense.c **** *
  11:.\Generated_Source\PSoC4/CapSense.c **** ********************************************************************************
  12:.\Generated_Source\PSoC4/CapSense.c **** * Copyright 2014, Cypress Semiconductor Corporation.  All rights reserved.
  13:.\Generated_Source\PSoC4/CapSense.c **** * You may use this file only in accordance with the license, terms, conditions,
  14:.\Generated_Source\PSoC4/CapSense.c **** * disclaimers, and limitations in the end user license agreement accompanying
  15:.\Generated_Source\PSoC4/CapSense.c **** * the software package with which this file was provided.
  16:.\Generated_Source\PSoC4/CapSense.c **** *******************************************************************************/
  17:.\Generated_Source\PSoC4/CapSense.c **** 
  18:.\Generated_Source\PSoC4/CapSense.c **** #include "CapSense.h"
  19:.\Generated_Source\PSoC4/CapSense.c **** #include "CapSense_PVT.h"
  20:.\Generated_Source\PSoC4/CapSense.c **** #include "cypins.h"
  21:.\Generated_Source\PSoC4/CapSense.c **** 
  22:.\Generated_Source\PSoC4/CapSense.c **** #if(0u != CapSense_CSHL_API_GENERATE)
  23:.\Generated_Source\PSoC4/CapSense.c **** 	#include "CapSense_CSHL.h"
  24:.\Generated_Source\PSoC4/CapSense.c **** #endif /* (0u != CapSense_CSHL_API_GENERATE) */
  25:.\Generated_Source\PSoC4/CapSense.c **** 
  26:.\Generated_Source\PSoC4/CapSense.c **** /* This definition is intended to prevent unexpected linker error. 
  27:.\Generated_Source\PSoC4/CapSense.c ****    For more details please see the IAR Technical Note 49981 */
  28:.\Generated_Source\PSoC4/CapSense.c **** #if defined(__ICCARM__)
  29:.\Generated_Source\PSoC4/CapSense.c **** 	extern __INLINE void CapSense_EnableSensor(uint32 sensor);
  30:.\Generated_Source\PSoC4/CapSense.c **** 	extern __INLINE void CapSense_DisableSensor(uint32 sensor);
  31:.\Generated_Source\PSoC4/CapSense.c **** #endif /* (__ICCARM__) */	
  32:.\Generated_Source\PSoC4/CapSense.c **** 
ARM GAS  C:\Users\kevin\AppData\Local\Temp\ccEmeqeI.s 			page 2


  33:.\Generated_Source\PSoC4/CapSense.c **** /* SmartSense functions */
  34:.\Generated_Source\PSoC4/CapSense.c **** #if (CapSense_TUNING_METHOD == CapSense__TUNING_AUTO)
  35:.\Generated_Source\PSoC4/CapSense.c ****     uint8 CapSense_lowLevelTuningDone = 0u;
  36:.\Generated_Source\PSoC4/CapSense.c **** 	uint8 scanSpeedTbl[((CapSense_TOTAL_SENSOR_COUNT - 1u) / 8u) + 1u];
  37:.\Generated_Source\PSoC4/CapSense.c **** #endif /* (CapSense_TUNING_METHOD == CapSense__TUNING_AUTO) */
  38:.\Generated_Source\PSoC4/CapSense.c **** 
  39:.\Generated_Source\PSoC4/CapSense.c **** #if(CapSense_PRS_OPTIONS != CapSense__PRS_NONE)
  40:.\Generated_Source\PSoC4/CapSense.c **** 	uint8 CapSense_prescalersTuningDone = 0u;
  41:.\Generated_Source\PSoC4/CapSense.c **** #endif /* (CapSense_PRS_OPTIONS == CapSense__PRS_NONE) */
  42:.\Generated_Source\PSoC4/CapSense.c ****             
  43:.\Generated_Source\PSoC4/CapSense.c **** /* Global software variables */
  44:.\Generated_Source\PSoC4/CapSense.c **** volatile uint8 CapSense_csdStatusVar = 0u;   /* CapSense CSD status, variable */
  45:.\Generated_Source\PSoC4/CapSense.c **** volatile uint8 CapSense_sensorIndex = 0u;    /* Index of scannig sensor */
  46:.\Generated_Source\PSoC4/CapSense.c **** 
  47:.\Generated_Source\PSoC4/CapSense.c **** /* Global array of Raw Counts */
  48:.\Generated_Source\PSoC4/CapSense.c **** uint16 CapSense_sensorRaw[CapSense_TOTAL_SENSOR_COUNT] = {0u};
  49:.\Generated_Source\PSoC4/CapSense.c **** 
  50:.\Generated_Source\PSoC4/CapSense.c **** /* Backup variables for trim registers*/
  51:.\Generated_Source\PSoC4/CapSense.c **** #if (CapSense_IDAC1_POLARITY == CapSense__IDAC_SINK)
  52:.\Generated_Source\PSoC4/CapSense.c **** 	uint8 CapSense_csdTrim2;   
  53:.\Generated_Source\PSoC4/CapSense.c **** #else
  54:.\Generated_Source\PSoC4/CapSense.c ****     uint8 CapSense_csdTrim1;	
  55:.\Generated_Source\PSoC4/CapSense.c **** #endif /* (CapSense_IDAC1_POLARITY == CapSense__IDAC_SINK) */
  56:.\Generated_Source\PSoC4/CapSense.c **** 
  57:.\Generated_Source\PSoC4/CapSense.c **** /* Global array of un-scanned sensors state */
  58:.\Generated_Source\PSoC4/CapSense.c **** uint8 CapSense_unscannedSnsDriveMode[CapSense_TOTAL_SENSOR_COUNT];
  59:.\Generated_Source\PSoC4/CapSense.c **** 
  60:.\Generated_Source\PSoC4/CapSense.c **** /* Backup array for CapSense_sensorEnableMask */
  61:.\Generated_Source\PSoC4/CapSense.c **** uint8 CapSense_sensorEnableMaskBackup[(((CapSense_TOTAL_SENSOR_COUNT - 1u) / 8u) + 1u)];
  62:.\Generated_Source\PSoC4/CapSense.c **** 
  63:.\Generated_Source\PSoC4/CapSense.c **** /* Configured constants and arrays by Customizer */
  64:.\Generated_Source\PSoC4/CapSense.c **** uint8 CapSense_sensorEnableMask[(((CapSense_TOTAL_SENSOR_COUNT - 1u) / 8u) + 1u)] = {
  65:.\Generated_Source\PSoC4/CapSense.c **** 0x7u, };
  66:.\Generated_Source\PSoC4/CapSense.c **** 
  67:.\Generated_Source\PSoC4/CapSense.c **** reg32 * CapSense_pcTable[] = {
  68:.\Generated_Source\PSoC4/CapSense.c ****     (reg32 *)CapSense_Sns__Button0__BTN__PC, 
  69:.\Generated_Source\PSoC4/CapSense.c ****     (reg32 *)CapSense_Sns__Button1__BTN__PC, 
  70:.\Generated_Source\PSoC4/CapSense.c ****     (reg32 *)CapSense_Sns__Button2__BTN__PC, 
  71:.\Generated_Source\PSoC4/CapSense.c **** };
  72:.\Generated_Source\PSoC4/CapSense.c **** 
  73:.\Generated_Source\PSoC4/CapSense.c **** const uint8 CapSense_portTable[] = {
  74:.\Generated_Source\PSoC4/CapSense.c ****     CapSense_Sns__Button0__BTN__PORT, 
  75:.\Generated_Source\PSoC4/CapSense.c ****     CapSense_Sns__Button1__BTN__PORT, 
  76:.\Generated_Source\PSoC4/CapSense.c ****     CapSense_Sns__Button2__BTN__PORT, 
  77:.\Generated_Source\PSoC4/CapSense.c **** };
  78:.\Generated_Source\PSoC4/CapSense.c **** 
  79:.\Generated_Source\PSoC4/CapSense.c **** const uint32 CapSense_maskTable[] = {
  80:.\Generated_Source\PSoC4/CapSense.c ****     CapSense_Sns__Button0__BTN__MASK, 
  81:.\Generated_Source\PSoC4/CapSense.c ****     CapSense_Sns__Button1__BTN__MASK, 
  82:.\Generated_Source\PSoC4/CapSense.c ****     CapSense_Sns__Button2__BTN__MASK, 
  83:.\Generated_Source\PSoC4/CapSense.c **** };
  84:.\Generated_Source\PSoC4/CapSense.c **** 
  85:.\Generated_Source\PSoC4/CapSense.c **** const uint8 CapSense_pinShiftTbl[] = {
  86:.\Generated_Source\PSoC4/CapSense.c ****     (uint8) CapSense_Sns__Button0__BTN__SHIFT, 
  87:.\Generated_Source\PSoC4/CapSense.c ****     (uint8) CapSense_Sns__Button1__BTN__SHIFT, 
  88:.\Generated_Source\PSoC4/CapSense.c ****     (uint8) CapSense_Sns__Button2__BTN__SHIFT, 
  89:.\Generated_Source\PSoC4/CapSense.c **** };
ARM GAS  C:\Users\kevin\AppData\Local\Temp\ccEmeqeI.s 			page 3


  90:.\Generated_Source\PSoC4/CapSense.c **** 
  91:.\Generated_Source\PSoC4/CapSense.c **** uint8 CapSense_modulationIDAC[CapSense_TOTAL_SENSOR_COUNT] = {
  92:.\Generated_Source\PSoC4/CapSense.c ****     28u, 45u, 35u, 
  93:.\Generated_Source\PSoC4/CapSense.c **** };
  94:.\Generated_Source\PSoC4/CapSense.c **** uint8 CapSense_compensationIDAC[CapSense_TOTAL_SENSOR_COUNT] = {
  95:.\Generated_Source\PSoC4/CapSense.c ****     28u, 44u, 35u, 
  96:.\Generated_Source\PSoC4/CapSense.c **** };
  97:.\Generated_Source\PSoC4/CapSense.c **** 
  98:.\Generated_Source\PSoC4/CapSense.c **** const uint32 CapSense_widgetResolution[CapSense_RESOLUTIONS_TBL_SIZE] = {
  99:.\Generated_Source\PSoC4/CapSense.c ****     CapSense_RESOLUTION_10_BITS,
 100:.\Generated_Source\PSoC4/CapSense.c ****     CapSense_RESOLUTION_10_BITS,
 101:.\Generated_Source\PSoC4/CapSense.c ****     CapSense_RESOLUTION_10_BITS,
 102:.\Generated_Source\PSoC4/CapSense.c **** };
 103:.\Generated_Source\PSoC4/CapSense.c **** 
 104:.\Generated_Source\PSoC4/CapSense.c **** const uint8 CapSense_senseClkDividerVal[CapSense_TOTAL_SCANSLOT_COUNT] = {
 105:.\Generated_Source\PSoC4/CapSense.c ****     1u, 1u, 1u, 
 106:.\Generated_Source\PSoC4/CapSense.c **** };
 107:.\Generated_Source\PSoC4/CapSense.c **** const uint8 CapSense_sampleClkDividerVal[CapSense_TOTAL_SCANSLOT_COUNT] = {
 108:.\Generated_Source\PSoC4/CapSense.c ****     2u, 2u, 2u, 
 109:.\Generated_Source\PSoC4/CapSense.c **** };
 110:.\Generated_Source\PSoC4/CapSense.c **** 
 111:.\Generated_Source\PSoC4/CapSense.c **** 
 112:.\Generated_Source\PSoC4/CapSense.c **** const uint8 CapSense_widgetNumber[CapSense_TOTAL_SENSOR_COUNT] = {
 113:.\Generated_Source\PSoC4/CapSense.c ****     0u, /* Button0__BTN */
 114:.\Generated_Source\PSoC4/CapSense.c ****     1u, /* Button1__BTN */
 115:.\Generated_Source\PSoC4/CapSense.c ****     2u, /* Button2__BTN */
 116:.\Generated_Source\PSoC4/CapSense.c **** };
 117:.\Generated_Source\PSoC4/CapSense.c **** 
 118:.\Generated_Source\PSoC4/CapSense.c **** 
 119:.\Generated_Source\PSoC4/CapSense.c **** 
 120:.\Generated_Source\PSoC4/CapSense.c **** reg32* const CapSense_prtSelTbl[] = {
 121:.\Generated_Source\PSoC4/CapSense.c **** 	((reg32 *) CYREG_HSIOM_PORT_SEL0),
 122:.\Generated_Source\PSoC4/CapSense.c **** 	((reg32 *) CYREG_HSIOM_PORT_SEL1),
 123:.\Generated_Source\PSoC4/CapSense.c **** 	((reg32 *) CYREG_HSIOM_PORT_SEL2),
 124:.\Generated_Source\PSoC4/CapSense.c **** 	((reg32 *) CYREG_HSIOM_PORT_SEL3),
 125:.\Generated_Source\PSoC4/CapSense.c **** #if (CY_PSOC4_4200BL)
 126:.\Generated_Source\PSoC4/CapSense.c **** 	((reg32 *) CYREG_HSIOM_PORT_SEL4),
 127:.\Generated_Source\PSoC4/CapSense.c **** 	((reg32 *) CYREG_HSIOM_PORT_SEL5)
 128:.\Generated_Source\PSoC4/CapSense.c **** #elif(0u == CapSense_M0S8CSD_BLOCK_VER)
 129:.\Generated_Source\PSoC4/CapSense.c **** 	((reg32 *) CYREG_HSIOM_PORT_SEL4)
 130:.\Generated_Source\PSoC4/CapSense.c **** #endif /* (0u == CapSense_M0S8CSD_BLOCK_VER) */
 131:.\Generated_Source\PSoC4/CapSense.c **** };
 132:.\Generated_Source\PSoC4/CapSense.c **** 
 133:.\Generated_Source\PSoC4/CapSense.c **** reg32* const CapSense_prtCfgTbl[] = {
 134:.\Generated_Source\PSoC4/CapSense.c **** 	((reg32 *) CYREG_PRT0_PC),
 135:.\Generated_Source\PSoC4/CapSense.c **** 	((reg32 *) CYREG_PRT1_PC),
 136:.\Generated_Source\PSoC4/CapSense.c **** 	((reg32 *) CYREG_PRT2_PC),
 137:.\Generated_Source\PSoC4/CapSense.c **** 	((reg32 *) CYREG_PRT3_PC),
 138:.\Generated_Source\PSoC4/CapSense.c **** #if (CY_PSOC4_4200BL)
 139:.\Generated_Source\PSoC4/CapSense.c **** 	((reg32 *) CYREG_PRT4_PC),
 140:.\Generated_Source\PSoC4/CapSense.c **** 	((reg32 *) CYREG_PRT5_PC)
 141:.\Generated_Source\PSoC4/CapSense.c **** #elif(0u == CapSense_M0S8CSD_BLOCK_VER)
 142:.\Generated_Source\PSoC4/CapSense.c **** 	((reg32 *) CYREG_PRT4_PC)	
 143:.\Generated_Source\PSoC4/CapSense.c **** #endif /* (0u == CapSense_M0S8CSD_BLOCK_VER) */	
 144:.\Generated_Source\PSoC4/CapSense.c **** };
 145:.\Generated_Source\PSoC4/CapSense.c **** 
 146:.\Generated_Source\PSoC4/CapSense.c **** reg32* const CapSense_prtDRTbl[] = {
ARM GAS  C:\Users\kevin\AppData\Local\Temp\ccEmeqeI.s 			page 4


 147:.\Generated_Source\PSoC4/CapSense.c **** 	((reg32 *) CYREG_PRT0_DR),
 148:.\Generated_Source\PSoC4/CapSense.c **** 	((reg32 *) CYREG_PRT1_DR),
 149:.\Generated_Source\PSoC4/CapSense.c **** 	((reg32 *) CYREG_PRT2_DR),
 150:.\Generated_Source\PSoC4/CapSense.c **** 	((reg32 *) CYREG_PRT3_DR),
 151:.\Generated_Source\PSoC4/CapSense.c **** #if (CY_PSOC4_4200BL)
 152:.\Generated_Source\PSoC4/CapSense.c **** 	((reg32 *) CYREG_PRT4_DR),
 153:.\Generated_Source\PSoC4/CapSense.c **** 	((reg32 *) CYREG_PRT5_DR),
 154:.\Generated_Source\PSoC4/CapSense.c **** #elif(0u == CapSense_M0S8CSD_BLOCK_VER)
 155:.\Generated_Source\PSoC4/CapSense.c **** 	((reg32 *) CYREG_PRT4_DR),
 156:.\Generated_Source\PSoC4/CapSense.c **** #endif /* (0u == CapSense_M0S8CSD_BLOCK_VER) */	
 157:.\Generated_Source\PSoC4/CapSense.c **** };
 158:.\Generated_Source\PSoC4/CapSense.c ****     
 159:.\Generated_Source\PSoC4/CapSense.c **** 
 160:.\Generated_Source\PSoC4/CapSense.c **** /*******************************************************************************
 161:.\Generated_Source\PSoC4/CapSense.c **** * Function Name: CapSense_Init
 162:.\Generated_Source\PSoC4/CapSense.c **** ********************************************************************************
 163:.\Generated_Source\PSoC4/CapSense.c **** *
 164:.\Generated_Source\PSoC4/CapSense.c **** * Summary:
 165:.\Generated_Source\PSoC4/CapSense.c **** *  API initializes default CapSense configuration provided by the customizer that defines 
 166:.\Generated_Source\PSoC4/CapSense.c **** *  the mode of component operations and resets all the sensors to an inactive state.
 167:.\Generated_Source\PSoC4/CapSense.c **** *
 168:.\Generated_Source\PSoC4/CapSense.c **** * Parameters:
 169:.\Generated_Source\PSoC4/CapSense.c **** *  None
 170:.\Generated_Source\PSoC4/CapSense.c **** *
 171:.\Generated_Source\PSoC4/CapSense.c **** * Return:
 172:.\Generated_Source\PSoC4/CapSense.c **** *  None
 173:.\Generated_Source\PSoC4/CapSense.c **** *
 174:.\Generated_Source\PSoC4/CapSense.c **** * Global Variables:
 175:.\Generated_Source\PSoC4/CapSense.c **** *  CapSense_immunityIndex - defines immunity level.
 176:.\Generated_Source\PSoC4/CapSense.c **** *
 177:.\Generated_Source\PSoC4/CapSense.c **** * Side Effects:
 178:.\Generated_Source\PSoC4/CapSense.c **** *  None
 179:.\Generated_Source\PSoC4/CapSense.c **** * 
 180:.\Generated_Source\PSoC4/CapSense.c **** *******************************************************************************/
 181:.\Generated_Source\PSoC4/CapSense.c **** void CapSense_Init(void)
 182:.\Generated_Source\PSoC4/CapSense.c **** {   
 183:.\Generated_Source\PSoC4/CapSense.c **** 	uint32 curSensor;
 184:.\Generated_Source\PSoC4/CapSense.c **** 	
 185:.\Generated_Source\PSoC4/CapSense.c **** 	#if(CapSense_IS_SHIELD_ENABLE)
 186:.\Generated_Source\PSoC4/CapSense.c **** 		
 187:.\Generated_Source\PSoC4/CapSense.c **** 		#if((CapSense_CSH_TANK_PREGARGE_OPTION == CapSense__CAPPRIOBUF) || (0u != CapSense_CSH_TANK_ENABL
 188:.\Generated_Source\PSoC4/CapSense.c **** 			uint32 newRegValue;
 189:.\Generated_Source\PSoC4/CapSense.c **** 			
 190:.\Generated_Source\PSoC4/CapSense.c **** 			newRegValue = CapSense_CTANK_CONNECTION_REG;
 191:.\Generated_Source\PSoC4/CapSense.c **** 	        newRegValue &= ~(CapSense_CSD_CTANK_CONNECTION_MASK);
 192:.\Generated_Source\PSoC4/CapSense.c **** 			newRegValue |= CapSense_CSD_CTANK_TO_AMUXBUS_B;
 193:.\Generated_Source\PSoC4/CapSense.c **** 	        CapSense_CTANK_CONNECTION_REG = newRegValue;
 194:.\Generated_Source\PSoC4/CapSense.c **** 			
 195:.\Generated_Source\PSoC4/CapSense.c **** 			#if(CapSense_CSH_TANK_PREGARGE_OPTION == CapSense__CAPPRIOBUF)
 196:.\Generated_Source\PSoC4/CapSense.c **** 				newRegValue = CapSense_CTANK_PORT_PC_REG;
 197:.\Generated_Source\PSoC4/CapSense.c **** 		        newRegValue &= ~(CapSense_CSD_CTANK_PC_MASK);
 198:.\Generated_Source\PSoC4/CapSense.c **** 				newRegValue |= CapSense_CTANK_PC_STRONG_MODE;
 199:.\Generated_Source\PSoC4/CapSense.c **** 		        CapSense_CTANK_PORT_PC_REG = newRegValue;
 200:.\Generated_Source\PSoC4/CapSense.c **** 				
 201:.\Generated_Source\PSoC4/CapSense.c **** 				newRegValue = CapSense_CTANK_PORT_DR_REG;
 202:.\Generated_Source\PSoC4/CapSense.c **** 		        newRegValue &= ~(CapSense_CTANK_DR_MASK);
 203:.\Generated_Source\PSoC4/CapSense.c **** 				newRegValue |= CapSense_CTANK_DR_CONFIG;
ARM GAS  C:\Users\kevin\AppData\Local\Temp\ccEmeqeI.s 			page 5


 204:.\Generated_Source\PSoC4/CapSense.c **** 		        CapSense_CTANK_PORT_DR_REG = newRegValue;
 205:.\Generated_Source\PSoC4/CapSense.c **** 			#endif /* (CapSense_CSH_TANK_PREGARGE_OPTION == CapSense__CAPPRIOBUF) */
 206:.\Generated_Source\PSoC4/CapSense.c **** 	        
 207:.\Generated_Source\PSoC4/CapSense.c **** 		#endif /* ((CapSense_CSH_TANK_PREGARGE_OPTION == CapSense__CAPPRIOBUF) || (CapSense_CSH_TANK_ENAB
 208:.\Generated_Source\PSoC4/CapSense.c **** 		
 209:.\Generated_Source\PSoC4/CapSense.c **** 		CapSense_EnableShieldElectrode((uint32)CapSense_SHIELD_PIN_NUMBER, (uint32)CapSense_SHIELD_PORT_N
 210:.\Generated_Source\PSoC4/CapSense.c **** 		
 211:.\Generated_Source\PSoC4/CapSense.c **** 	#endif /* (CapSense_IS_SHIELD_ENABLE) */
 212:.\Generated_Source\PSoC4/CapSense.c **** 	
 213:.\Generated_Source\PSoC4/CapSense.c **** 	for(curSensor = 0u; curSensor < CapSense_TOTAL_SENSOR_COUNT; curSensor++)
 214:.\Generated_Source\PSoC4/CapSense.c **** 	{
 215:.\Generated_Source\PSoC4/CapSense.c **** 		CapSense_unscannedSnsDriveMode[curSensor] = CapSense_CONNECT_INACTIVE_SNS;
 216:.\Generated_Source\PSoC4/CapSense.c **** 	}
 217:.\Generated_Source\PSoC4/CapSense.c ****     
 218:.\Generated_Source\PSoC4/CapSense.c **** 	CapSense_CsdHwBlockInit();
 219:.\Generated_Source\PSoC4/CapSense.c ****     CapSense_SetShieldDelay(CapSense_SHIELD_DELAY );
 220:.\Generated_Source\PSoC4/CapSense.c **** 	
 221:.\Generated_Source\PSoC4/CapSense.c **** 	/* Clear all sensors */
 222:.\Generated_Source\PSoC4/CapSense.c ****     CapSense_ClearSensors();
 223:.\Generated_Source\PSoC4/CapSense.c **** }
 224:.\Generated_Source\PSoC4/CapSense.c **** 
 225:.\Generated_Source\PSoC4/CapSense.c **** /*******************************************************************************
 226:.\Generated_Source\PSoC4/CapSense.c **** * Function Name: CapSense_CsdHwBlockInit
 227:.\Generated_Source\PSoC4/CapSense.c **** ********************************************************************************
 228:.\Generated_Source\PSoC4/CapSense.c **** *
 229:.\Generated_Source\PSoC4/CapSense.c **** * Summary:
 230:.\Generated_Source\PSoC4/CapSense.c **** *  Initialises the hardware parameters of the CSD block 
 231:.\Generated_Source\PSoC4/CapSense.c **** *
 232:.\Generated_Source\PSoC4/CapSense.c **** * Parameters:
 233:.\Generated_Source\PSoC4/CapSense.c **** *  None
 234:.\Generated_Source\PSoC4/CapSense.c **** *
 235:.\Generated_Source\PSoC4/CapSense.c **** * Return:
 236:.\Generated_Source\PSoC4/CapSense.c **** *  None
 237:.\Generated_Source\PSoC4/CapSense.c **** *
 238:.\Generated_Source\PSoC4/CapSense.c **** * Global Variables:
 239:.\Generated_Source\PSoC4/CapSense.c **** *  CapSense_csdTrim1 - Contains IDAC trim register value for Sourcing Mode.
 240:.\Generated_Source\PSoC4/CapSense.c **** *  CapSense_csdTrim2 - Contains IDAC trim register value for Sinking Mode.
 241:.\Generated_Source\PSoC4/CapSense.c **** *
 242:.\Generated_Source\PSoC4/CapSense.c **** * Side Effects:
 243:.\Generated_Source\PSoC4/CapSense.c **** *  None
 244:.\Generated_Source\PSoC4/CapSense.c **** * 
 245:.\Generated_Source\PSoC4/CapSense.c **** *******************************************************************************/
 246:.\Generated_Source\PSoC4/CapSense.c **** void CapSense_CsdHwBlockInit(void)
 247:.\Generated_Source\PSoC4/CapSense.c **** {
  26              		.loc 1 247 0
  27              		.cfi_startproc
 248:.\Generated_Source\PSoC4/CapSense.c **** 	uint32 newRegValue;
 249:.\Generated_Source\PSoC4/CapSense.c **** 	
 250:.\Generated_Source\PSoC4/CapSense.c **** 	    /* Set trim registers for CSD Mode */
 251:.\Generated_Source\PSoC4/CapSense.c ****     #if (CapSense_IDAC1_POLARITY == CapSense__IDAC_SINK)
 252:.\Generated_Source\PSoC4/CapSense.c **** 		/* iDAC1 Sinking Mode */ 
 253:.\Generated_Source\PSoC4/CapSense.c **** 		CapSense_csdTrim2 = (uint8)CapSense_CSD_TRIM2_REG;
 254:.\Generated_Source\PSoC4/CapSense.c **** 		newRegValue = CapSense_csdTrim2;
 255:.\Generated_Source\PSoC4/CapSense.c **** 		newRegValue &= CapSense_CSD_IDAC1_TRIM_MASK;
 256:.\Generated_Source\PSoC4/CapSense.c **** 		newRegValue |= (uint32)((uint32)CapSense_SFLASH_CSD_TRIM2_REG & (uint32)CapSense_CSFLASH_TRIM_IDA
 257:.\Generated_Source\PSoC4/CapSense.c **** 		
 258:.\Generated_Source\PSoC4/CapSense.c **** 		#if (CapSense_IDAC_CNT == 2u)
ARM GAS  C:\Users\kevin\AppData\Local\Temp\ccEmeqeI.s 			page 6


 259:.\Generated_Source\PSoC4/CapSense.c **** 		    /* iDAC2 Sinking Mode */ 
 260:.\Generated_Source\PSoC4/CapSense.c **** 			newRegValue &= CapSense_CSD_IDAC2_TRIM_MASK;
 261:.\Generated_Source\PSoC4/CapSense.c **** 			newRegValue |= (uint32)((uint32)CapSense_SFLASH_CSD_TRIM2_REG & (uint32)CapSense_CSFLASH_TRIM_ID
 262:.\Generated_Source\PSoC4/CapSense.c **** 		#endif /* (CapSense_IDAC_CNT == 2u) */
 263:.\Generated_Source\PSoC4/CapSense.c **** 		CapSense_CSD_TRIM2_REG = newRegValue;
 264:.\Generated_Source\PSoC4/CapSense.c ****     #else   
 265:.\Generated_Source\PSoC4/CapSense.c **** 		/* iDAC1 Sourcing Mode */ 
 266:.\Generated_Source\PSoC4/CapSense.c **** 		CapSense_csdTrim1 = (uint8)CapSense_CSD_TRIM1_REG;
  28              		.loc 1 266 0
  29 0000 134B     		ldr	r3, .L2
 247:.\Generated_Source\PSoC4/CapSense.c **** {
  30              		.loc 1 247 0
  31 0002 10B5     		push	{r4, lr}
  32              		.cfi_def_cfa_offset 8
  33              		.cfi_offset 4, -8
  34              		.cfi_offset 14, -4
  35              		.loc 1 266 0
  36 0004 1968     		ldr	r1, [r3]
  37              	.LVL0:
  38 0006 134A     		ldr	r2, .L2+4
 267:.\Generated_Source\PSoC4/CapSense.c **** 		newRegValue = CapSense_csdTrim1;
 268:.\Generated_Source\PSoC4/CapSense.c **** 		newRegValue &= CapSense_CSD_IDAC1_TRIM_MASK;
 269:.\Generated_Source\PSoC4/CapSense.c **** 		newRegValue |= (uint32)((uint32)CapSense_SFLASH_CSD_TRIM1_REG & (uint32)CapSense_CSFLASH_TRIM_IDA
  39              		.loc 1 269 0
  40 0008 0F24     		mov	r4, #15
 266:.\Generated_Source\PSoC4/CapSense.c **** 		CapSense_csdTrim1 = (uint8)CapSense_CSD_TRIM1_REG;
  41              		.loc 1 266 0
  42 000a 1170     		strb	r1, [r2]
  43              		.loc 1 269 0
  44 000c 124A     		ldr	r2, .L2+8
 270:.\Generated_Source\PSoC4/CapSense.c **** 		#if (CapSense_IDAC_CNT == 2u)
 271:.\Generated_Source\PSoC4/CapSense.c **** 		     /* iDAC2 Sourcing Mode */ 
 272:.\Generated_Source\PSoC4/CapSense.c **** 			newRegValue &= CapSense_CSD_IDAC2_TRIM_MASK;
 273:.\Generated_Source\PSoC4/CapSense.c **** 			newRegValue |= (uint32)((uint32)CapSense_SFLASH_CSD_TRIM1_REG & (uint32)CapSense_CSFLASH_TRIM_ID
 274:.\Generated_Source\PSoC4/CapSense.c **** 		#endif		
 275:.\Generated_Source\PSoC4/CapSense.c **** 		CapSense_CSD_TRIM1_REG = newRegValue;
 276:.\Generated_Source\PSoC4/CapSense.c ****     #endif /* (CapSense_IDAC1_POLARITY == CapSense__IDAC_SINK) */
 277:.\Generated_Source\PSoC4/CapSense.c **** 	
 278:.\Generated_Source\PSoC4/CapSense.c **** 	/* Configure CSD and IDAC */
 279:.\Generated_Source\PSoC4/CapSense.c **** 	#if (CapSense_IDAC_CNT > 1u)
 280:.\Generated_Source\PSoC4/CapSense.c **** 		CapSense_CSD_IDAC_REG = CapSense_DEFAULT_CSD_IDAC_CONFIG;
 281:.\Generated_Source\PSoC4/CapSense.c **** 		CapSense_CSD_CFG_REG = CapSense_DEFAULT_CSD_CONFIG;
 282:.\Generated_Source\PSoC4/CapSense.c **** 	#else
 283:.\Generated_Source\PSoC4/CapSense.c **** 		CapSense_CSD_IDAC_REG &= ~(CapSense_CSD_IDAC1_MODE_MASK  | CapSense_CSD_IDAC1_DATA_MASK);
 284:.\Generated_Source\PSoC4/CapSense.c **** 		CapSense_CSD_IDAC_REG |= CapSense_DEFAULT_CSD_IDAC_CONFIG;
 285:.\Generated_Source\PSoC4/CapSense.c **** 		
 286:.\Generated_Source\PSoC4/CapSense.c **** 		CapSense_CSD_CFG_REG &= ~(CapSense_CSD_CONFIG_MASK);
 287:.\Generated_Source\PSoC4/CapSense.c **** 		CapSense_CSD_CFG_REG |= (CapSense_DEFAULT_CSD_CONFIG);
 288:.\Generated_Source\PSoC4/CapSense.c **** 	#endif /* (CapSense_IDAC_CNT > 1u) */
 289:.\Generated_Source\PSoC4/CapSense.c **** 	
 290:.\Generated_Source\PSoC4/CapSense.c **** 	
 291:.\Generated_Source\PSoC4/CapSense.c **** 	/* Connect Cmod to AMUX bus */ 
 292:.\Generated_Source\PSoC4/CapSense.c **** 	newRegValue = CapSense_CMOD_CONNECTION_REG; 
 293:.\Generated_Source\PSoC4/CapSense.c ****     newRegValue &= ~(CapSense_CSD_CMOD_CONNECTION_MASK);
 294:.\Generated_Source\PSoC4/CapSense.c ****     newRegValue |= CapSense_CSD_CMOD_TO_AMUXBUS_A;
 295:.\Generated_Source\PSoC4/CapSense.c ****     CapSense_CMOD_CONNECTION_REG = newRegValue;
 296:.\Generated_Source\PSoC4/CapSense.c **** 	
ARM GAS  C:\Users\kevin\AppData\Local\Temp\ccEmeqeI.s 			page 7


 297:.\Generated_Source\PSoC4/CapSense.c **** 	/* Configure Dead Band PWM if it is enabled */
 298:.\Generated_Source\PSoC4/CapSense.c **** 	#if(CapSense_CSD_4B_PWM_MODE != CapSense__PWM_OFF)
 299:.\Generated_Source\PSoC4/CapSense.c **** 		CapSense_CSD_4B_PWM_REG = CapSense_DEFAULT_CSD_4B_PWM_CONFIG;
 300:.\Generated_Source\PSoC4/CapSense.c **** 	#endif /* (CapSense_CSD_4B_PWM_MODE != CapSense__PWM_OFF) */
 301:.\Generated_Source\PSoC4/CapSense.c **** 
 302:.\Generated_Source\PSoC4/CapSense.c **** 	/* Setup ISR */
 303:.\Generated_Source\PSoC4/CapSense.c **** 	CyIntDisable(CapSense_ISR_NUMBER);
  45              		.loc 1 303 0
  46 000e 201C     		mov	r0, r4
 269:.\Generated_Source\PSoC4/CapSense.c **** 		newRegValue |= (uint32)((uint32)CapSense_SFLASH_CSD_TRIM1_REG & (uint32)CapSense_CSFLASH_TRIM_IDA
  47              		.loc 1 269 0
  48 0010 1178     		ldrb	r1, [r2]
  49              	.LVL1:
 273:.\Generated_Source\PSoC4/CapSense.c **** 			newRegValue |= (uint32)((uint32)CapSense_SFLASH_CSD_TRIM1_REG & (uint32)CapSense_CSFLASH_TRIM_ID
  50              		.loc 1 273 0
  51 0012 1278     		ldrb	r2, [r2]
 272:.\Generated_Source\PSoC4/CapSense.c **** 			newRegValue &= CapSense_CSD_IDAC2_TRIM_MASK;
  52              		.loc 1 272 0
  53 0014 2140     		and	r1, r4
  54              	.LVL2:
 273:.\Generated_Source\PSoC4/CapSense.c **** 			newRegValue |= (uint32)((uint32)CapSense_SFLASH_CSD_TRIM1_REG & (uint32)CapSense_CSFLASH_TRIM_ID
  55              		.loc 1 273 0
  56 0016 A243     		bic	r2, r4
  57 0018 0A43     		orr	r2, r1
  58              	.LVL3:
 275:.\Generated_Source\PSoC4/CapSense.c **** 		CapSense_CSD_TRIM1_REG = newRegValue;
  59              		.loc 1 275 0
  60 001a 1A60     		str	r2, [r3]
 280:.\Generated_Source\PSoC4/CapSense.c **** 		CapSense_CSD_IDAC_REG = CapSense_DEFAULT_CSD_IDAC_CONFIG;
  61              		.loc 1 280 0
  62 001c 0F4A     		ldr	r2, .L2+12
  63              	.LVL4:
  64 001e 104B     		ldr	r3, .L2+16
  65              	.LVL5:
 304:.\Generated_Source\PSoC4/CapSense.c **** 	#if !defined(CY_EXTERNAL_INTERRUPT_CONFIG)		
 305:.\Generated_Source\PSoC4/CapSense.c **** 	    (void)CyIntSetVector(CapSense_ISR_NUMBER, &CapSense_ISR);
 306:.\Generated_Source\PSoC4/CapSense.c **** 	    CyIntSetPriority(CapSense_ISR_NUMBER, CapSense_ISR_PRIORITY);
 307:.\Generated_Source\PSoC4/CapSense.c **** 	#endif /* (CY_EXTERNAL_INTERRUPT_CONFIG) */
 308:.\Generated_Source\PSoC4/CapSense.c **** }
  66              		.loc 1 308 0
  67              		@ sp needed
 280:.\Generated_Source\PSoC4/CapSense.c **** 		CapSense_CSD_IDAC_REG = CapSense_DEFAULT_CSD_IDAC_CONFIG;
  68              		.loc 1 280 0
  69 0020 1A60     		str	r2, [r3]
  70              	.LVL6:
 281:.\Generated_Source\PSoC4/CapSense.c **** 		CapSense_CSD_CFG_REG = CapSense_DEFAULT_CSD_CONFIG;
  71              		.loc 1 281 0
  72 0022 104A     		ldr	r2, .L2+20
  73 0024 104B     		ldr	r3, .L2+24
  74 0026 1A60     		str	r2, [r3]
 292:.\Generated_Source\PSoC4/CapSense.c **** 	newRegValue = CapSense_CMOD_CONNECTION_REG; 
  75              		.loc 1 292 0
  76 0028 104B     		ldr	r3, .L2+28
 293:.\Generated_Source\PSoC4/CapSense.c ****     newRegValue &= ~(CapSense_CSD_CMOD_CONNECTION_MASK);
  77              		.loc 1 293 0
  78 002a 114A     		ldr	r2, .L2+32
 292:.\Generated_Source\PSoC4/CapSense.c **** 	newRegValue = CapSense_CMOD_CONNECTION_REG; 
ARM GAS  C:\Users\kevin\AppData\Local\Temp\ccEmeqeI.s 			page 8


  79              		.loc 1 292 0
  80 002c 1968     		ldr	r1, [r3]
  81              	.LVL7:
 293:.\Generated_Source\PSoC4/CapSense.c ****     newRegValue &= ~(CapSense_CSD_CMOD_CONNECTION_MASK);
  82              		.loc 1 293 0
  83 002e 0A40     		and	r2, r1
  84              	.LVL8:
 294:.\Generated_Source\PSoC4/CapSense.c ****     newRegValue |= CapSense_CSD_CMOD_TO_AMUXBUS_A;
  85              		.loc 1 294 0
  86 0030 C021     		mov	r1, #192
  87 0032 C900     		lsl	r1, r1, #3
  88 0034 0A43     		orr	r2, r1
  89              	.LVL9:
 295:.\Generated_Source\PSoC4/CapSense.c ****     CapSense_CMOD_CONNECTION_REG = newRegValue;
  90              		.loc 1 295 0
  91 0036 1A60     		str	r2, [r3]
 303:.\Generated_Source\PSoC4/CapSense.c **** 	CyIntDisable(CapSense_ISR_NUMBER);
  92              		.loc 1 303 0
  93 0038 FFF7FEFF 		bl	CyIntDisable
  94              	.LVL10:
 305:.\Generated_Source\PSoC4/CapSense.c **** 	    (void)CyIntSetVector(CapSense_ISR_NUMBER, &CapSense_ISR);
  95              		.loc 1 305 0
  96 003c 201C     		mov	r0, r4
  97 003e 0D49     		ldr	r1, .L2+36
  98 0040 FFF7FEFF 		bl	CyIntSetVector
  99              	.LVL11:
 306:.\Generated_Source\PSoC4/CapSense.c **** 	    CyIntSetPriority(CapSense_ISR_NUMBER, CapSense_ISR_PRIORITY);
 100              		.loc 1 306 0
 101 0044 201C     		mov	r0, r4
 102 0046 0321     		mov	r1, #3
 103 0048 FFF7FEFF 		bl	CyIntSetPriority
 104              	.LVL12:
 105              		.loc 1 308 0
 106 004c 10BD     		pop	{r4, pc}
 107              	.L3:
 108 004e C046     		.align	2
 109              	.L2:
 110 0050 00FF0840 		.word	1074331392
 111 0054 00000000 		.word	CapSense_csdTrim1
 112 0058 62F1FF0F 		.word	268431714
 113 005c 00020001 		.word	16777728
 114 0060 08000840 		.word	1074266120
 115 0064 0008A001 		.word	27265024
 116 0068 04000840 		.word	1074266116
 117 006c 10000140 		.word	1073807376
 118 0070 FFF0FFFF 		.word	-3841
 119 0074 00000000 		.word	CapSense_ISR
 120              		.cfi_endproc
 121              	.LFE34:
 122              		.size	CapSense_CsdHwBlockInit, .-CapSense_CsdHwBlockInit
 123              		.section	.text.CapSense_Enable,"ax",%progbits
 124              		.align	1
 125              		.global	CapSense_Enable
 126              		.code	16
 127              		.thumb_func
 128              		.type	CapSense_Enable, %function
 129              	CapSense_Enable:
ARM GAS  C:\Users\kevin\AppData\Local\Temp\ccEmeqeI.s 			page 9


 130              	.LFB35:
 309:.\Generated_Source\PSoC4/CapSense.c **** 
 310:.\Generated_Source\PSoC4/CapSense.c **** 
 311:.\Generated_Source\PSoC4/CapSense.c **** /*******************************************************************************
 312:.\Generated_Source\PSoC4/CapSense.c **** * Function Name: CapSense_Enable
 313:.\Generated_Source\PSoC4/CapSense.c **** ********************************************************************************
 314:.\Generated_Source\PSoC4/CapSense.c **** *
 315:.\Generated_Source\PSoC4/CapSense.c **** * Summary:
 316:.\Generated_Source\PSoC4/CapSense.c **** *  Enables the CSD block and related resources to an active mode.
 317:.\Generated_Source\PSoC4/CapSense.c **** *
 318:.\Generated_Source\PSoC4/CapSense.c **** * Parameters:
 319:.\Generated_Source\PSoC4/CapSense.c **** *  None
 320:.\Generated_Source\PSoC4/CapSense.c **** *
 321:.\Generated_Source\PSoC4/CapSense.c **** * Return:
 322:.\Generated_Source\PSoC4/CapSense.c **** *  None
 323:.\Generated_Source\PSoC4/CapSense.c **** *
 324:.\Generated_Source\PSoC4/CapSense.c **** * Global Variables:
 325:.\Generated_Source\PSoC4/CapSense.c **** *  None.
 326:.\Generated_Source\PSoC4/CapSense.c **** *
 327:.\Generated_Source\PSoC4/CapSense.c **** * Side Effects:
 328:.\Generated_Source\PSoC4/CapSense.c **** *  None
 329:.\Generated_Source\PSoC4/CapSense.c **** * 
 330:.\Generated_Source\PSoC4/CapSense.c **** *******************************************************************************/
 331:.\Generated_Source\PSoC4/CapSense.c **** void CapSense_Enable(void)
 332:.\Generated_Source\PSoC4/CapSense.c **** {
 131              		.loc 1 332 0
 132              		.cfi_startproc
 133 0000 08B5     		push	{r3, lr}
 134              		.cfi_def_cfa_offset 8
 135              		.cfi_offset 3, -8
 136              		.cfi_offset 14, -4
 333:.\Generated_Source\PSoC4/CapSense.c ****     uint32 newRegValue;
 334:.\Generated_Source\PSoC4/CapSense.c ****     
 335:.\Generated_Source\PSoC4/CapSense.c ****     /* Enable Clocks */
 336:.\Generated_Source\PSoC4/CapSense.c **** 	CapSense_SenseClk_Stop();
 137              		.loc 1 336 0
 138 0002 FFF7FEFF 		bl	CapSense_SenseClk_Stop
 139              	.LVL13:
 337:.\Generated_Source\PSoC4/CapSense.c **** 	CapSense_SampleClk_Stop();
 140              		.loc 1 337 0
 141 0006 FFF7FEFF 		bl	CapSense_SampleClk_Stop
 142              	.LVL14:
 338:.\Generated_Source\PSoC4/CapSense.c **** 	
 339:.\Generated_Source\PSoC4/CapSense.c **** 	CapSense_SampleClk_SetDividerValue((uint16)CapSense_INITIAL_CLK_DIVIDER);
 143              		.loc 1 339 0
 144 000a 0020     		mov	r0, #0
 145 000c 011C     		mov	r1, r0
 146 000e FFF7FEFF 		bl	CapSense_SampleClk_SetFractionalDividerRegister
 147              	.LVL15:
 340:.\Generated_Source\PSoC4/CapSense.c **** 	CapSense_SenseClk_SetDividerValue((uint16)CapSense_INITIAL_CLK_DIVIDER);
 148              		.loc 1 340 0
 149 0012 0020     		mov	r0, #0
 150 0014 011C     		mov	r1, r0
 151 0016 FFF7FEFF 		bl	CapSense_SenseClk_SetFractionalDividerRegister
 152              	.LVL16:
 341:.\Generated_Source\PSoC4/CapSense.c **** 	
 342:.\Generated_Source\PSoC4/CapSense.c **** 	#if (0u == CapSense_IS_M0S8PERI_BLOCK)
ARM GAS  C:\Users\kevin\AppData\Local\Temp\ccEmeqeI.s 			page 10


 343:.\Generated_Source\PSoC4/CapSense.c **** 		CapSense_SenseClk_Start();
 153              		.loc 1 343 0
 154 001a FFF7FEFF 		bl	CapSense_SenseClk_Start
 155              	.LVL17:
 344:.\Generated_Source\PSoC4/CapSense.c **** 		CapSense_SampleClk_Start();
 156              		.loc 1 344 0
 157 001e FFF7FEFF 		bl	CapSense_SampleClk_Start
 158              	.LVL18:
 345:.\Generated_Source\PSoC4/CapSense.c **** 	#else
 346:.\Generated_Source\PSoC4/CapSense.c **** 		CapSense_SampleClk_Start();
 347:.\Generated_Source\PSoC4/CapSense.c **** 		CapSense_SenseClk_StartEx(CapSense_SampleClk__DIV_ID);
 348:.\Generated_Source\PSoC4/CapSense.c **** 	#endif /* (0u == CapSense_IS_M0S8PERI_BLOCK) */
 349:.\Generated_Source\PSoC4/CapSense.c **** 	
 350:.\Generated_Source\PSoC4/CapSense.c **** 	/* Enable the CSD block */
 351:.\Generated_Source\PSoC4/CapSense.c ****     newRegValue = CapSense_CSD_CFG_REG;
 159              		.loc 1 351 0
 160 0022 044B     		ldr	r3, .L5
 352:.\Generated_Source\PSoC4/CapSense.c ****     newRegValue |= (CapSense_CSD_CFG_ENABLE | CapSense_CSD_CFG_SENSE_COMP_EN 
 161              		.loc 1 352 0
 162 0024 0449     		ldr	r1, .L5+4
 351:.\Generated_Source\PSoC4/CapSense.c ****     newRegValue = CapSense_CSD_CFG_REG;
 163              		.loc 1 351 0
 164 0026 1A68     		ldr	r2, [r3]
 165              	.LVL19:
 353:.\Generated_Source\PSoC4/CapSense.c ****                                                    | CapSense_CSD_CFG_SENSE_EN);    
 354:.\Generated_Source\PSoC4/CapSense.c ****     CapSense_CSD_CFG_REG = newRegValue;
 355:.\Generated_Source\PSoC4/CapSense.c **** 
 356:.\Generated_Source\PSoC4/CapSense.c ****     /* Enable interrupt */
 357:.\Generated_Source\PSoC4/CapSense.c ****     CyIntEnable(CapSense_ISR_NUMBER);
 166              		.loc 1 357 0
 167 0028 0F20     		mov	r0, #15
 352:.\Generated_Source\PSoC4/CapSense.c ****     newRegValue |= (CapSense_CSD_CFG_ENABLE | CapSense_CSD_CFG_SENSE_COMP_EN 
 168              		.loc 1 352 0
 169 002a 0A43     		orr	r2, r1
 170              	.LVL20:
 354:.\Generated_Source\PSoC4/CapSense.c ****     CapSense_CSD_CFG_REG = newRegValue;
 171              		.loc 1 354 0
 172 002c 1A60     		str	r2, [r3]
 173              		.loc 1 357 0
 174 002e FFF7FEFF 		bl	CyIntEnable
 175              	.LVL21:
 358:.\Generated_Source\PSoC4/CapSense.c **** }
 176              		.loc 1 358 0
 177              		@ sp needed
 178 0032 08BD     		pop	{r3, pc}
 179              	.L6:
 180              		.align	2
 181              	.L5:
 182 0034 04000840 		.word	1074266116
 183 0038 00100880 		.word	-2146955264
 184              		.cfi_endproc
 185              	.LFE35:
 186              		.size	CapSense_Enable, .-CapSense_Enable
 187              		.section	.text.CapSense_Stop,"ax",%progbits
 188              		.align	1
 189              		.global	CapSense_Stop
 190              		.code	16
ARM GAS  C:\Users\kevin\AppData\Local\Temp\ccEmeqeI.s 			page 11


 191              		.thumb_func
 192              		.type	CapSense_Stop, %function
 193              	CapSense_Stop:
 194              	.LFB37:
 359:.\Generated_Source\PSoC4/CapSense.c **** 
 360:.\Generated_Source\PSoC4/CapSense.c **** 
 361:.\Generated_Source\PSoC4/CapSense.c **** /*******************************************************************************
 362:.\Generated_Source\PSoC4/CapSense.c **** * Function Name: CapSense_Start
 363:.\Generated_Source\PSoC4/CapSense.c **** ********************************************************************************
 364:.\Generated_Source\PSoC4/CapSense.c **** *
 365:.\Generated_Source\PSoC4/CapSense.c **** * Summary:
 366:.\Generated_Source\PSoC4/CapSense.c **** *  This is the preferred method to begin the component operation. CapSense_Start() 
 367:.\Generated_Source\PSoC4/CapSense.c **** *  calls the CapSense_Init() function, and then calls the CapSense_Enable() 
 368:.\Generated_Source\PSoC4/CapSense.c **** *  function. Initializes the registers and starts the CSD method of the CapSense 
 369:.\Generated_Source\PSoC4/CapSense.c **** *  component. Resets all the sensors to an inactive state. Enables interrupts for 
 370:.\Generated_Source\PSoC4/CapSense.c **** *  sensors scanning. When the SmartSense tuning mode is selected, the tuning procedure
 371:.\Generated_Source\PSoC4/CapSense.c **** *  is applied for all the sensors. The CapSense_Start() routine must be called before 
 372:.\Generated_Source\PSoC4/CapSense.c **** *  any other API routines.
 373:.\Generated_Source\PSoC4/CapSense.c **** *
 374:.\Generated_Source\PSoC4/CapSense.c **** * Parameters:
 375:.\Generated_Source\PSoC4/CapSense.c **** *  None
 376:.\Generated_Source\PSoC4/CapSense.c **** *
 377:.\Generated_Source\PSoC4/CapSense.c **** * Return:
 378:.\Generated_Source\PSoC4/CapSense.c **** *  None
 379:.\Generated_Source\PSoC4/CapSense.c **** *
 380:.\Generated_Source\PSoC4/CapSense.c **** * Global Variables:
 381:.\Generated_Source\PSoC4/CapSense.c **** *   CapSense_initVar - used to check the initial configuration, 
 382:.\Generated_Source\PSoC4/CapSense.c **** *   modified on the first function call.
 383:.\Generated_Source\PSoC4/CapSense.c **** *  CapSense_lowLevelTuningDone - Used to notify the Tuner GUI that 
 384:.\Generated_Source\PSoC4/CapSense.c **** *   tuning of the scanning parameters is done. 
 385:.\Generated_Source\PSoC4/CapSense.c **** *
 386:.\Generated_Source\PSoC4/CapSense.c **** * Side Effects:
 387:.\Generated_Source\PSoC4/CapSense.c **** *  None
 388:.\Generated_Source\PSoC4/CapSense.c **** * 
 389:.\Generated_Source\PSoC4/CapSense.c **** *******************************************************************************/
 390:.\Generated_Source\PSoC4/CapSense.c **** void CapSense_Start(void)
 391:.\Generated_Source\PSoC4/CapSense.c **** {
 392:.\Generated_Source\PSoC4/CapSense.c **** 
 393:.\Generated_Source\PSoC4/CapSense.c **** 	static uint8 CapSense_initVar = 0u;
 394:.\Generated_Source\PSoC4/CapSense.c **** 
 395:.\Generated_Source\PSoC4/CapSense.c **** 	#if((0u != CapSense_AUTOCALIBRATION_ENABLE) && (CapSense_TUNING_METHOD != CapSense__TUNING_AUTO))
 396:.\Generated_Source\PSoC4/CapSense.c **** 		uint32 curSensor;
 397:.\Generated_Source\PSoC4/CapSense.c **** 		uint32 rawLevel;
 398:.\Generated_Source\PSoC4/CapSense.c **** 		uint32 widget;
 399:.\Generated_Source\PSoC4/CapSense.c ****     #endif /* ((0u != CapSense_AUTOCALIBRATION_ENABLE) && (CapSense_TUNING_METHOD != CapSense__TUNI
 400:.\Generated_Source\PSoC4/CapSense.c **** 	
 401:.\Generated_Source\PSoC4/CapSense.c ****     if (CapSense_initVar == 0u)
 402:.\Generated_Source\PSoC4/CapSense.c ****     {
 403:.\Generated_Source\PSoC4/CapSense.c ****         CapSense_Init();
 404:.\Generated_Source\PSoC4/CapSense.c ****         CapSense_initVar = 1u;
 405:.\Generated_Source\PSoC4/CapSense.c ****     }
 406:.\Generated_Source\PSoC4/CapSense.c ****     CapSense_Enable();
 407:.\Generated_Source\PSoC4/CapSense.c **** 	
 408:.\Generated_Source\PSoC4/CapSense.c ****     /* AutoTunning start */
 409:.\Generated_Source\PSoC4/CapSense.c ****     #if(CapSense_TUNING_METHOD == CapSense__TUNING_AUTO)
 410:.\Generated_Source\PSoC4/CapSense.c **** 		#if(0u != CapSense_CSHL_API_GENERATE)
 411:.\Generated_Source\PSoC4/CapSense.c **** 	        CapSense_AutoTune();
ARM GAS  C:\Users\kevin\AppData\Local\Temp\ccEmeqeI.s 			page 12


 412:.\Generated_Source\PSoC4/CapSense.c **** 	        CapSense_lowLevelTuningDone = 1u;
 413:.\Generated_Source\PSoC4/CapSense.c **** 		#endif /* (0u != CapSense_CSHL_API_GENERATE) */
 414:.\Generated_Source\PSoC4/CapSense.c **** 	#else
 415:.\Generated_Source\PSoC4/CapSense.c **** 		#if(0u != CapSense_AUTOCALIBRATION_ENABLE)
 416:.\Generated_Source\PSoC4/CapSense.c **** 			
 417:.\Generated_Source\PSoC4/CapSense.c **** 			#if(CapSense_IDAC_CNT > 1u)
 418:.\Generated_Source\PSoC4/CapSense.c **** 				CapSense_CSD_IDAC_REG &= ~(CapSense_CSD_IDAC2_MODE_MASK);	
 419:.\Generated_Source\PSoC4/CapSense.c **** 			#endif /* (CapSense_IDAC_CNT > 1u) */
 420:.\Generated_Source\PSoC4/CapSense.c **** 			
 421:.\Generated_Source\PSoC4/CapSense.c **** 			for(curSensor = 0u; curSensor < CapSense_TOTAL_SCANSLOT_COUNT; curSensor++)
 422:.\Generated_Source\PSoC4/CapSense.c **** 			{
 423:.\Generated_Source\PSoC4/CapSense.c **** 				widget = CapSense_widgetNumber[curSensor];
 424:.\Generated_Source\PSoC4/CapSense.c **** 				rawLevel = CapSense_widgetResolution[widget] >> CapSense_RESOLUTION_OFFSET;
 425:.\Generated_Source\PSoC4/CapSense.c **** 				
 426:.\Generated_Source\PSoC4/CapSense.c **** 				/* Calibration level should be equal to 85% from scanning resolution */
 427:.\Generated_Source\PSoC4/CapSense.c **** 				rawLevel = (rawLevel * 85u) / 100u;
 428:.\Generated_Source\PSoC4/CapSense.c **** 				
 429:.\Generated_Source\PSoC4/CapSense.c **** 				CapSense_CalibrateSensor(curSensor, rawLevel, CapSense_modulationIDAC);
 430:.\Generated_Source\PSoC4/CapSense.c **** 			}
 431:.\Generated_Source\PSoC4/CapSense.c **** 
 432:.\Generated_Source\PSoC4/CapSense.c **** 			#if(0u != CapSense_TOTAL_CENTROIDS_COUNT) 
 433:.\Generated_Source\PSoC4/CapSense.c **** 				CapSense_NormalizeWidgets(CapSense_END_OF_WIDGETS_INDEX, CapSense_modulationIDAC);
 434:.\Generated_Source\PSoC4/CapSense.c **** 			#endif /* (0u != CapSense_TOTAL_CENTROIDS_COUNT)  */
 435:.\Generated_Source\PSoC4/CapSense.c **** 
 436:.\Generated_Source\PSoC4/CapSense.c **** 			#if(CapSense_IDAC_CNT > 1u)
 437:.\Generated_Source\PSoC4/CapSense.c **** 				for(curSensor = 0u; curSensor < CapSense_TOTAL_SCANSLOT_COUNT; curSensor++)
 438:.\Generated_Source\PSoC4/CapSense.c **** 			    {
 439:.\Generated_Source\PSoC4/CapSense.c **** 					CapSense_compensationIDAC[curSensor] = CapSense_modulationIDAC[curSensor] / 2u;
 440:.\Generated_Source\PSoC4/CapSense.c **** 					CapSense_modulationIDAC[curSensor] = (CapSense_modulationIDAC[curSensor] + 1u) / 2u;
 441:.\Generated_Source\PSoC4/CapSense.c **** 			    }
 442:.\Generated_Source\PSoC4/CapSense.c **** 				CapSense_CSD_IDAC_REG |= CapSense_CSD_IDAC2_MODE_FIXED;
 443:.\Generated_Source\PSoC4/CapSense.c **** 			#endif /* (CapSense_IDAC_CNT > 1u) */
 444:.\Generated_Source\PSoC4/CapSense.c **** 			
 445:.\Generated_Source\PSoC4/CapSense.c ****         #endif /* (0u != CapSense_AUTOCALIBRATION_ENABLE) */ 
 446:.\Generated_Source\PSoC4/CapSense.c **** 					
 447:.\Generated_Source\PSoC4/CapSense.c ****     #endif /* ((CapSense_TUNING_METHOD == CapSense__TUNING_AUTO) */	
 448:.\Generated_Source\PSoC4/CapSense.c **** 	
 449:.\Generated_Source\PSoC4/CapSense.c **** 	/* Initialize Advanced Centroid */
 450:.\Generated_Source\PSoC4/CapSense.c **** 	#if(CapSense_TOTAL_TRACKPAD_GESTURES_COUNT > 0u)
 451:.\Generated_Source\PSoC4/CapSense.c **** 		CapSense_AdvancedCentroidInit();
 452:.\Generated_Source\PSoC4/CapSense.c **** 	#endif /* (CapSense_TOTAL_TRACKPAD_GESTURES_COUNT > 0u) */
 453:.\Generated_Source\PSoC4/CapSense.c **** 	
 454:.\Generated_Source\PSoC4/CapSense.c **** 	/* Connect sense comparator input to AMUXA */
 455:.\Generated_Source\PSoC4/CapSense.c **** 	CapSense_CSD_CFG_REG |= CapSense_CSD_CFG_SENSE_INSEL;
 456:.\Generated_Source\PSoC4/CapSense.c **** }
 457:.\Generated_Source\PSoC4/CapSense.c **** 
 458:.\Generated_Source\PSoC4/CapSense.c **** 
 459:.\Generated_Source\PSoC4/CapSense.c **** /*******************************************************************************
 460:.\Generated_Source\PSoC4/CapSense.c **** * Function Name: CapSense_Stop
 461:.\Generated_Source\PSoC4/CapSense.c **** ********************************************************************************
 462:.\Generated_Source\PSoC4/CapSense.c **** *
 463:.\Generated_Source\PSoC4/CapSense.c **** * Summary:
 464:.\Generated_Source\PSoC4/CapSense.c **** *  Stops the sensor scanning, disables component interrupts, and resets all the 
 465:.\Generated_Source\PSoC4/CapSense.c **** *  sensors to an inactive state. Disables the Active mode power template bits for
 466:.\Generated_Source\PSoC4/CapSense.c **** *  the subcomponents used within CapSense.
 467:.\Generated_Source\PSoC4/CapSense.c **** *
 468:.\Generated_Source\PSoC4/CapSense.c **** * Parameters:
ARM GAS  C:\Users\kevin\AppData\Local\Temp\ccEmeqeI.s 			page 13


 469:.\Generated_Source\PSoC4/CapSense.c **** *  None
 470:.\Generated_Source\PSoC4/CapSense.c **** *
 471:.\Generated_Source\PSoC4/CapSense.c **** * Return:
 472:.\Generated_Source\PSoC4/CapSense.c **** *  None
 473:.\Generated_Source\PSoC4/CapSense.c **** *
 474:.\Generated_Source\PSoC4/CapSense.c **** * Global Variables:
 475:.\Generated_Source\PSoC4/CapSense.c **** *  CapSense_csdTrim1 - Contains the IDAC trim register value for the Sourcing Mode.
 476:.\Generated_Source\PSoC4/CapSense.c **** *  CapSense_csdTrim2 - Contains the IDAC trim register value for vSinking Mode.
 477:.\Generated_Source\PSoC4/CapSense.c **** *
 478:.\Generated_Source\PSoC4/CapSense.c **** * Side Effects:
 479:.\Generated_Source\PSoC4/CapSense.c **** *  This function should be called after scans are completed.
 480:.\Generated_Source\PSoC4/CapSense.c **** *
 481:.\Generated_Source\PSoC4/CapSense.c **** *******************************************************************************/
 482:.\Generated_Source\PSoC4/CapSense.c **** void CapSense_Stop(void)
 483:.\Generated_Source\PSoC4/CapSense.c **** {
 195              		.loc 1 483 0
 196              		.cfi_startproc
 197 0000 08B5     		push	{r3, lr}
 198              		.cfi_def_cfa_offset 8
 199              		.cfi_offset 3, -8
 200              		.cfi_offset 14, -4
 484:.\Generated_Source\PSoC4/CapSense.c ****     /* Disable interrupt */
 485:.\Generated_Source\PSoC4/CapSense.c ****     CyIntDisable(CapSense_ISR_NUMBER);
 201              		.loc 1 485 0
 202 0002 0F20     		mov	r0, #15
 203 0004 FFF7FEFF 		bl	CyIntDisable
 204              	.LVL22:
 486:.\Generated_Source\PSoC4/CapSense.c **** 	
 487:.\Generated_Source\PSoC4/CapSense.c **** 	CapSense_CSD_CFG_REG &= ~(CapSense_CSD_CFG_SENSE_COMP_EN | CapSense_CSD_CFG_SENSE_EN);
 205              		.loc 1 487 0
 206 0008 064B     		ldr	r3, .L8
 207 000a 074A     		ldr	r2, .L8+4
 208 000c 1968     		ldr	r1, [r3]
 488:.\Generated_Source\PSoC4/CapSense.c **** 	
 489:.\Generated_Source\PSoC4/CapSense.c **** 	#if(CapSense_IDAC_CNT == 2u)
 490:.\Generated_Source\PSoC4/CapSense.c **** 		CapSense_CSD_CFG_REG &= ~(CapSense_CSD_CFG_ENABLE);
 491:.\Generated_Source\PSoC4/CapSense.c **** 	#endif /* (CapSense_IDAC_CNT == 2u) */
 492:.\Generated_Source\PSoC4/CapSense.c **** 
 493:.\Generated_Source\PSoC4/CapSense.c ****     /* Disable the Clocks */
 494:.\Generated_Source\PSoC4/CapSense.c ****     CapSense_SenseClk_Stop();
 495:.\Generated_Source\PSoC4/CapSense.c ****     CapSense_SampleClk_Stop();
 496:.\Generated_Source\PSoC4/CapSense.c **** }
 209              		.loc 1 496 0
 210              		@ sp needed
 487:.\Generated_Source\PSoC4/CapSense.c **** 	CapSense_CSD_CFG_REG &= ~(CapSense_CSD_CFG_SENSE_COMP_EN | CapSense_CSD_CFG_SENSE_EN);
 211              		.loc 1 487 0
 212 000e 0A40     		and	r2, r1
 213 0010 1A60     		str	r2, [r3]
 490:.\Generated_Source\PSoC4/CapSense.c **** 		CapSense_CSD_CFG_REG &= ~(CapSense_CSD_CFG_ENABLE);
 214              		.loc 1 490 0
 215 0012 1A68     		ldr	r2, [r3]
 216 0014 5200     		lsl	r2, r2, #1
 217 0016 5208     		lsr	r2, r2, #1
 218 0018 1A60     		str	r2, [r3]
 494:.\Generated_Source\PSoC4/CapSense.c ****     CapSense_SenseClk_Stop();
 219              		.loc 1 494 0
 220 001a FFF7FEFF 		bl	CapSense_SenseClk_Stop
ARM GAS  C:\Users\kevin\AppData\Local\Temp\ccEmeqeI.s 			page 14


 221              	.LVL23:
 495:.\Generated_Source\PSoC4/CapSense.c ****     CapSense_SampleClk_Stop();
 222              		.loc 1 495 0
 223 001e FFF7FEFF 		bl	CapSense_SampleClk_Stop
 224              	.LVL24:
 225              		.loc 1 496 0
 226 0022 08BD     		pop	{r3, pc}
 227              	.L9:
 228              		.align	2
 229              	.L8:
 230 0024 04000840 		.word	1074266116
 231 0028 FFEFF7FF 		.word	-528385
 232              		.cfi_endproc
 233              	.LFE37:
 234              		.size	CapSense_Stop, .-CapSense_Stop
 235              		.section	.text.CapSense_IsBusy,"ax",%progbits
 236              		.align	1
 237              		.global	CapSense_IsBusy
 238              		.code	16
 239              		.thumb_func
 240              		.type	CapSense_IsBusy, %function
 241              	CapSense_IsBusy:
 242              	.LFB42:
 497:.\Generated_Source\PSoC4/CapSense.c **** 
 498:.\Generated_Source\PSoC4/CapSense.c **** 
 499:.\Generated_Source\PSoC4/CapSense.c **** /*******************************************************************************
 500:.\Generated_Source\PSoC4/CapSense.c **** * Function Name: CapSense_FindNextSensor
 501:.\Generated_Source\PSoC4/CapSense.c **** ********************************************************************************
 502:.\Generated_Source\PSoC4/CapSense.c **** *
 503:.\Generated_Source\PSoC4/CapSense.c **** * Summary:
 504:.\Generated_Source\PSoC4/CapSense.c **** *  Finds the next sensor to scan. 
 505:.\Generated_Source\PSoC4/CapSense.c **** *
 506:.\Generated_Source\PSoC4/CapSense.c **** * Parameters:
 507:.\Generated_Source\PSoC4/CapSense.c **** *  snsIndex:  Current index of sensor.
 508:.\Generated_Source\PSoC4/CapSense.c **** *
 509:.\Generated_Source\PSoC4/CapSense.c **** * Return:
 510:.\Generated_Source\PSoC4/CapSense.c **** *  Returns the next sensor index to scan.
 511:.\Generated_Source\PSoC4/CapSense.c **** *
 512:.\Generated_Source\PSoC4/CapSense.c **** * Global Variables:
 513:.\Generated_Source\PSoC4/CapSense.c **** *  CapSense_sensorEnableMask[] - used to store bit masks of the enabled sensors.
 514:.\Generated_Source\PSoC4/CapSense.c **** *
 515:.\Generated_Source\PSoC4/CapSense.c **** * Side Effects:
 516:.\Generated_Source\PSoC4/CapSense.c **** *  This function affects the  current scanning and should not
 517:.\Generated_Source\PSoC4/CapSense.c **** *  be used outside the component.
 518:.\Generated_Source\PSoC4/CapSense.c **** *
 519:.\Generated_Source\PSoC4/CapSense.c **** *******************************************************************************/
 520:.\Generated_Source\PSoC4/CapSense.c **** uint8 CapSense_FindNextSensor(uint8 snsIndex)
 521:.\Generated_Source\PSoC4/CapSense.c **** {
 522:.\Generated_Source\PSoC4/CapSense.c ****     uint32 enableFlag;
 523:.\Generated_Source\PSoC4/CapSense.c ****     
 524:.\Generated_Source\PSoC4/CapSense.c ****     /* Check if sensor enabled */
 525:.\Generated_Source\PSoC4/CapSense.c ****     do
 526:.\Generated_Source\PSoC4/CapSense.c ****     {
 527:.\Generated_Source\PSoC4/CapSense.c ****         /* Proceed with next sensor */
 528:.\Generated_Source\PSoC4/CapSense.c ****         snsIndex++;
 529:.\Generated_Source\PSoC4/CapSense.c ****         if(snsIndex == CapSense_TOTAL_SENSOR_COUNT)
 530:.\Generated_Source\PSoC4/CapSense.c ****         {
ARM GAS  C:\Users\kevin\AppData\Local\Temp\ccEmeqeI.s 			page 15


 531:.\Generated_Source\PSoC4/CapSense.c ****             break;
 532:.\Generated_Source\PSoC4/CapSense.c ****         }
 533:.\Generated_Source\PSoC4/CapSense.c ****         enableFlag = CapSense_GetBitValue(CapSense_sensorEnableMask, (uint32)snsIndex);
 534:.\Generated_Source\PSoC4/CapSense.c ****     }    
 535:.\Generated_Source\PSoC4/CapSense.c ****     while(enableFlag == 0u);
 536:.\Generated_Source\PSoC4/CapSense.c ****     
 537:.\Generated_Source\PSoC4/CapSense.c ****     return ((uint8)snsIndex);
 538:.\Generated_Source\PSoC4/CapSense.c **** }
 539:.\Generated_Source\PSoC4/CapSense.c **** 
 540:.\Generated_Source\PSoC4/CapSense.c **** 
 541:.\Generated_Source\PSoC4/CapSense.c **** /*******************************************************************************
 542:.\Generated_Source\PSoC4/CapSense.c **** * Function Name: CapSense_ScanSensor
 543:.\Generated_Source\PSoC4/CapSense.c **** ********************************************************************************
 544:.\Generated_Source\PSoC4/CapSense.c **** *
 545:.\Generated_Source\PSoC4/CapSense.c **** * Summary:
 546:.\Generated_Source\PSoC4/CapSense.c **** *  Sets the scan settings and starts scanning a sensor. After scanning is complete,
 547:.\Generated_Source\PSoC4/CapSense.c **** *  the ISR copies the measured sensor raw data to the global raw sensor array. 
 548:.\Generated_Source\PSoC4/CapSense.c **** *  Use of the ISR ensures this function is non-blocking. 
 549:.\Generated_Source\PSoC4/CapSense.c **** *  Each sensor has a unique number within the sensor array. 
 550:.\Generated_Source\PSoC4/CapSense.c **** *  This number is assigned by the CapSense customizer in sequence.
 551:.\Generated_Source\PSoC4/CapSense.c **** *
 552:.\Generated_Source\PSoC4/CapSense.c **** * Parameters:
 553:.\Generated_Source\PSoC4/CapSense.c **** *  sensor:  Sensor number.
 554:.\Generated_Source\PSoC4/CapSense.c **** *
 555:.\Generated_Source\PSoC4/CapSense.c **** * Return:
 556:.\Generated_Source\PSoC4/CapSense.c **** *  None
 557:.\Generated_Source\PSoC4/CapSense.c **** *
 558:.\Generated_Source\PSoC4/CapSense.c **** * Global Variables:
 559:.\Generated_Source\PSoC4/CapSense.c **** *  CapSense_csdStatusVar - used to provide the status and mode of the scanning process. 
 560:.\Generated_Source\PSoC4/CapSense.c **** *  Sets the busy status(scan in progress) and mode of scan as single scan.
 561:.\Generated_Source\PSoC4/CapSense.c **** *  CapSense_sensorIndex - used to store a sensor scanning sensor number.
 562:.\Generated_Source\PSoC4/CapSense.c **** *  Sets to the provided sensor argument.
 563:.\Generated_Source\PSoC4/CapSense.c **** *
 564:.\Generated_Source\PSoC4/CapSense.c **** * Side Effects:
 565:.\Generated_Source\PSoC4/CapSense.c **** *  None
 566:.\Generated_Source\PSoC4/CapSense.c **** * 
 567:.\Generated_Source\PSoC4/CapSense.c **** *******************************************************************************/
 568:.\Generated_Source\PSoC4/CapSense.c **** void CapSense_ScanSensor(uint32 sensor)
 569:.\Generated_Source\PSoC4/CapSense.c **** {
 570:.\Generated_Source\PSoC4/CapSense.c ****     /* Clears status/control variable and set sensorIndex */
 571:.\Generated_Source\PSoC4/CapSense.c ****     CapSense_csdStatusVar = 0u;
 572:.\Generated_Source\PSoC4/CapSense.c ****     CapSense_sensorIndex = (uint8)sensor;
 573:.\Generated_Source\PSoC4/CapSense.c ****     
 574:.\Generated_Source\PSoC4/CapSense.c ****     /* Start of sensor scan */
 575:.\Generated_Source\PSoC4/CapSense.c ****     CapSense_csdStatusVar = (CapSense_SW_STS_BUSY | CapSense_SW_CTRL_SINGLE_SCAN);
 576:.\Generated_Source\PSoC4/CapSense.c ****     CapSense_PreScan(sensor);
 577:.\Generated_Source\PSoC4/CapSense.c **** }
 578:.\Generated_Source\PSoC4/CapSense.c **** 
 579:.\Generated_Source\PSoC4/CapSense.c **** 
 580:.\Generated_Source\PSoC4/CapSense.c **** #if(0u != CapSense_CSHL_API_GENERATE)
 581:.\Generated_Source\PSoC4/CapSense.c **** /*******************************************************************************
 582:.\Generated_Source\PSoC4/CapSense.c **** * Function Name: CapSense_ScanWidget
 583:.\Generated_Source\PSoC4/CapSense.c **** ********************************************************************************
 584:.\Generated_Source\PSoC4/CapSense.c **** *
 585:.\Generated_Source\PSoC4/CapSense.c **** * Summary:
 586:.\Generated_Source\PSoC4/CapSense.c **** *  Sets the scan settings and starts scanning a widget.
 587:.\Generated_Source\PSoC4/CapSense.c **** *
ARM GAS  C:\Users\kevin\AppData\Local\Temp\ccEmeqeI.s 			page 16


 588:.\Generated_Source\PSoC4/CapSense.c **** * Parameters:
 589:.\Generated_Source\PSoC4/CapSense.c **** *  uint32 widget: Widget number.
 590:.\Generated_Source\PSoC4/CapSense.c **** *
 591:.\Generated_Source\PSoC4/CapSense.c **** * Return:
 592:.\Generated_Source\PSoC4/CapSense.c **** *  None
 593:.\Generated_Source\PSoC4/CapSense.c **** *
 594:.\Generated_Source\PSoC4/CapSense.c **** * Global Variables:
 595:.\Generated_Source\PSoC4/CapSense.c **** *  CapSense_csdStatusVar - used to provide the status and mode of the scanning process. 
 596:.\Generated_Source\PSoC4/CapSense.c **** *  Sets the busy status(scan in progress) and clears the single scan mode.
 597:.\Generated_Source\PSoC4/CapSense.c **** *  CapSense_sensorIndex - used to store a sensor scanning sensor number.
 598:.\Generated_Source\PSoC4/CapSense.c **** *  Sets to 0xFF and provided to function CapSense_FindNextSensor or
 599:.\Generated_Source\PSoC4/CapSense.c **** *  CapSense_sensorEnableMask[] - used to store bit masks of the enabled sensors.
 600:.\Generated_Source\PSoC4/CapSense.c **** *  CapSense_sensorEnableMaskBackup[] - used to backup bit masks of the enabled
 601:.\Generated_Source\PSoC4/CapSense.c **** *   sensors.
 602:.\Generated_Source\PSoC4/CapSense.c **** *
 603:.\Generated_Source\PSoC4/CapSense.c **** * Side Effects:
 604:.\Generated_Source\PSoC4/CapSense.c **** *  None
 605:.\Generated_Source\PSoC4/CapSense.c **** * 
 606:.\Generated_Source\PSoC4/CapSense.c **** *******************************************************************************/
 607:.\Generated_Source\PSoC4/CapSense.c **** void CapSense_ScanWidget(uint32 widget)
 608:.\Generated_Source\PSoC4/CapSense.c **** {
 609:.\Generated_Source\PSoC4/CapSense.c ****     uint32 sensorsPerWidget;
 610:.\Generated_Source\PSoC4/CapSense.c ****     uint32 lastSensor;
 611:.\Generated_Source\PSoC4/CapSense.c ****     uint32 snsIndex;
 612:.\Generated_Source\PSoC4/CapSense.c **** 
 613:.\Generated_Source\PSoC4/CapSense.c **** 	/* Get first sensor in widget */
 614:.\Generated_Source\PSoC4/CapSense.c **** 	CapSense_sensorIndex = CapSense_rawDataIndex[widget];
 615:.\Generated_Source\PSoC4/CapSense.c **** 	
 616:.\Generated_Source\PSoC4/CapSense.c **** 	/* Get number of sensors in widget */
 617:.\Generated_Source\PSoC4/CapSense.c **** 	sensorsPerWidget = CapSense_numberOfSensors[widget];
 618:.\Generated_Source\PSoC4/CapSense.c **** 	
 619:.\Generated_Source\PSoC4/CapSense.c **** 	/* Check if generic Sensor */
 620:.\Generated_Source\PSoC4/CapSense.c **** 	if(sensorsPerWidget == 0u)
 621:.\Generated_Source\PSoC4/CapSense.c **** 	{
 622:.\Generated_Source\PSoC4/CapSense.c **** 		sensorsPerWidget = 1u;
 623:.\Generated_Source\PSoC4/CapSense.c **** 	}
 624:.\Generated_Source\PSoC4/CapSense.c **** 	
 625:.\Generated_Source\PSoC4/CapSense.c **** 	/* Get last sensor in widget */
 626:.\Generated_Source\PSoC4/CapSense.c **** 	lastSensor = (CapSense_rawDataIndex[widget] + sensorsPerWidget) - 1u;
 627:.\Generated_Source\PSoC4/CapSense.c **** 
 628:.\Generated_Source\PSoC4/CapSense.c **** 	/* Backup sensorEnableMask array */
 629:.\Generated_Source\PSoC4/CapSense.c **** 	for(snsIndex = 0u; snsIndex < CapSense_TOTAL_SENSOR_MASK; snsIndex++)
 630:.\Generated_Source\PSoC4/CapSense.c **** 	{
 631:.\Generated_Source\PSoC4/CapSense.c **** 		/* Backup sensorEnableMask array */
 632:.\Generated_Source\PSoC4/CapSense.c **** 		CapSense_sensorEnableMaskBackup[snsIndex] = CapSense_sensorEnableMask[snsIndex];
 633:.\Generated_Source\PSoC4/CapSense.c **** 	}
 634:.\Generated_Source\PSoC4/CapSense.c **** 
 635:.\Generated_Source\PSoC4/CapSense.c **** 	/* Update sensorEnableMask to scan the sensors that belong to widget */
 636:.\Generated_Source\PSoC4/CapSense.c **** 	for(snsIndex = 0u; snsIndex < CapSense_TOTAL_SENSOR_COUNT; snsIndex++)
 637:.\Generated_Source\PSoC4/CapSense.c **** 	{
 638:.\Generated_Source\PSoC4/CapSense.c **** 		/* Update sensorEnableMask array bits to scan the widget only */ 
 639:.\Generated_Source\PSoC4/CapSense.c **** 	    if((snsIndex >= CapSense_sensorIndex) && (snsIndex <= lastSensor))
 640:.\Generated_Source\PSoC4/CapSense.c **** 		{
 641:.\Generated_Source\PSoC4/CapSense.c **** 		    /* Set sensor bit to scan */
 642:.\Generated_Source\PSoC4/CapSense.c **** 			CapSense_SetBitValue(CapSense_sensorEnableMask, snsIndex, 1u);
 643:.\Generated_Source\PSoC4/CapSense.c **** 		}
 644:.\Generated_Source\PSoC4/CapSense.c **** 		else
ARM GAS  C:\Users\kevin\AppData\Local\Temp\ccEmeqeI.s 			page 17


 645:.\Generated_Source\PSoC4/CapSense.c **** 		{
 646:.\Generated_Source\PSoC4/CapSense.c **** 		    /* Reset sensor bit to do not scan */
 647:.\Generated_Source\PSoC4/CapSense.c **** 		    CapSense_SetBitValue(CapSense_sensorEnableMask, snsIndex, 0u);
 648:.\Generated_Source\PSoC4/CapSense.c **** 		}
 649:.\Generated_Source\PSoC4/CapSense.c **** 	}
 650:.\Generated_Source\PSoC4/CapSense.c **** 
 651:.\Generated_Source\PSoC4/CapSense.c ****     /* Check end of scan condition */
 652:.\Generated_Source\PSoC4/CapSense.c ****     if(CapSense_sensorIndex < CapSense_TOTAL_SENSOR_COUNT)
 653:.\Generated_Source\PSoC4/CapSense.c ****     {
 654:.\Generated_Source\PSoC4/CapSense.c **** 		/* Set widget busy bit in status/control variable*/ 
 655:.\Generated_Source\PSoC4/CapSense.c **** 		CapSense_csdStatusVar = (CapSense_SW_STS_BUSY | CapSense_SW_CTRL_WIDGET_SCAN);
 656:.\Generated_Source\PSoC4/CapSense.c **** 		/* Scan first sensor of widget*/ 
 657:.\Generated_Source\PSoC4/CapSense.c ****         CapSense_PreScan((uint32)CapSense_sensorIndex);
 658:.\Generated_Source\PSoC4/CapSense.c ****     }
 659:.\Generated_Source\PSoC4/CapSense.c **** }
 660:.\Generated_Source\PSoC4/CapSense.c **** #endif /* (0u != CapSense_CSHL_API_GENERATE) */
 661:.\Generated_Source\PSoC4/CapSense.c **** 
 662:.\Generated_Source\PSoC4/CapSense.c **** 
 663:.\Generated_Source\PSoC4/CapSense.c **** /*******************************************************************************
 664:.\Generated_Source\PSoC4/CapSense.c **** * Function Name: CapSense_ScanEnableWidgets
 665:.\Generated_Source\PSoC4/CapSense.c **** ********************************************************************************
 666:.\Generated_Source\PSoC4/CapSense.c **** *
 667:.\Generated_Source\PSoC4/CapSense.c **** * Summary:
 668:.\Generated_Source\PSoC4/CapSense.c **** *  This is the preferred method to scan all of the enabled widgets. 
 669:.\Generated_Source\PSoC4/CapSense.c **** *  The API starts scanning a sensor within the enabled widgets. 
 670:.\Generated_Source\PSoC4/CapSense.c **** *  The ISR continues scanning the sensors until all the enabled widgets are scanned. 
 671:.\Generated_Source\PSoC4/CapSense.c **** *  Use of the ISR ensures this function is non-blocking.
 672:.\Generated_Source\PSoC4/CapSense.c **** *  All the widgets are enabled by default except proximity widgets. 
 673:.\Generated_Source\PSoC4/CapSense.c **** *  The proximity widgets must be manually enabled as their long scan time 
 674:.\Generated_Source\PSoC4/CapSense.c **** *  is incompatible with a fast response required of other widget types.
 675:.\Generated_Source\PSoC4/CapSense.c **** *
 676:.\Generated_Source\PSoC4/CapSense.c **** * Parameters:
 677:.\Generated_Source\PSoC4/CapSense.c **** *  None
 678:.\Generated_Source\PSoC4/CapSense.c **** *
 679:.\Generated_Source\PSoC4/CapSense.c **** * Return:
 680:.\Generated_Source\PSoC4/CapSense.c **** *  None
 681:.\Generated_Source\PSoC4/CapSense.c **** *
 682:.\Generated_Source\PSoC4/CapSense.c **** * Global Variables:
 683:.\Generated_Source\PSoC4/CapSense.c **** *  CapSense_csdStatusVar - used to provide the status and mode of the scanning process. 
 684:.\Generated_Source\PSoC4/CapSense.c **** *  Sets the busy status(scan in progress) and clears the single scan mode.
 685:.\Generated_Source\PSoC4/CapSense.c **** *  CapSense_sensorIndex - used to store a sensor scanning sensor number.
 686:.\Generated_Source\PSoC4/CapSense.c **** *  Sets to 0xFF and provided to function CapSense_FindNextSensor or
 687:.\Generated_Source\PSoC4/CapSense.c **** *
 688:.\Generated_Source\PSoC4/CapSense.c **** * Side Effects:
 689:.\Generated_Source\PSoC4/CapSense.c **** *  None
 690:.\Generated_Source\PSoC4/CapSense.c **** * 
 691:.\Generated_Source\PSoC4/CapSense.c **** *******************************************************************************/
 692:.\Generated_Source\PSoC4/CapSense.c **** void CapSense_ScanEnabledWidgets(void)
 693:.\Generated_Source\PSoC4/CapSense.c **** {
 694:.\Generated_Source\PSoC4/CapSense.c ****     /* Clears status/control variable and set sensorIndex */
 695:.\Generated_Source\PSoC4/CapSense.c ****     CapSense_csdStatusVar = 0u;
 696:.\Generated_Source\PSoC4/CapSense.c ****     CapSense_sensorIndex = 0xFFu;
 697:.\Generated_Source\PSoC4/CapSense.c ****     
 698:.\Generated_Source\PSoC4/CapSense.c ****     /* Find next sensor */
 699:.\Generated_Source\PSoC4/CapSense.c ****     CapSense_sensorIndex = (uint8)CapSense_FindNextSensor(CapSense_sensorIndex);
 700:.\Generated_Source\PSoC4/CapSense.c **** 
 701:.\Generated_Source\PSoC4/CapSense.c ****     /* Check end of scan condition */
ARM GAS  C:\Users\kevin\AppData\Local\Temp\ccEmeqeI.s 			page 18


 702:.\Generated_Source\PSoC4/CapSense.c ****     if(CapSense_sensorIndex < CapSense_TOTAL_SENSOR_COUNT)
 703:.\Generated_Source\PSoC4/CapSense.c ****     {
 704:.\Generated_Source\PSoC4/CapSense.c ****         CapSense_csdStatusVar |= CapSense_SW_STS_BUSY;
 705:.\Generated_Source\PSoC4/CapSense.c ****         CapSense_PreScan((uint32)CapSense_sensorIndex);
 706:.\Generated_Source\PSoC4/CapSense.c ****     }
 707:.\Generated_Source\PSoC4/CapSense.c **** }
 708:.\Generated_Source\PSoC4/CapSense.c **** 
 709:.\Generated_Source\PSoC4/CapSense.c **** 
 710:.\Generated_Source\PSoC4/CapSense.c **** /*******************************************************************************
 711:.\Generated_Source\PSoC4/CapSense.c **** * Function Name: CapSense_IsBusy
 712:.\Generated_Source\PSoC4/CapSense.c **** ********************************************************************************
 713:.\Generated_Source\PSoC4/CapSense.c **** *
 714:.\Generated_Source\PSoC4/CapSense.c **** * Summary:
 715:.\Generated_Source\PSoC4/CapSense.c **** *  Returns the state of the CapSense component. 1 means that scanning in 
 716:.\Generated_Source\PSoC4/CapSense.c **** *  progress and 0 means that scanning is complete.
 717:.\Generated_Source\PSoC4/CapSense.c **** *
 718:.\Generated_Source\PSoC4/CapSense.c **** * Parameters:
 719:.\Generated_Source\PSoC4/CapSense.c **** *  None
 720:.\Generated_Source\PSoC4/CapSense.c **** *
 721:.\Generated_Source\PSoC4/CapSense.c **** * Return:
 722:.\Generated_Source\PSoC4/CapSense.c **** *  Returns the state of scanning. 1 - scanning in progress, 0 - scanning 
 723:.\Generated_Source\PSoC4/CapSense.c **** *  completed.
 724:.\Generated_Source\PSoC4/CapSense.c **** *
 725:.\Generated_Source\PSoC4/CapSense.c **** * Global Variables:
 726:.\Generated_Source\PSoC4/CapSense.c **** *  CapSense_csdStatusVar - used to provide the status and mode of the scanning process. 
 727:.\Generated_Source\PSoC4/CapSense.c **** *  Checks the busy status.
 728:.\Generated_Source\PSoC4/CapSense.c **** *
 729:.\Generated_Source\PSoC4/CapSense.c **** * Side Effects:
 730:.\Generated_Source\PSoC4/CapSense.c **** *  None
 731:.\Generated_Source\PSoC4/CapSense.c **** * 
 732:.\Generated_Source\PSoC4/CapSense.c **** *******************************************************************************/
 733:.\Generated_Source\PSoC4/CapSense.c **** uint32 CapSense_IsBusy(void)
 734:.\Generated_Source\PSoC4/CapSense.c **** {
 243              		.loc 1 734 0
 244              		.cfi_startproc
 735:.\Generated_Source\PSoC4/CapSense.c ****     return ((uint32)((0u != (CapSense_csdStatusVar & CapSense_SW_STS_BUSY)) ? 1u : 0u));
 245              		.loc 1 735 0
 246 0000 024B     		ldr	r3, .L11
 736:.\Generated_Source\PSoC4/CapSense.c **** }
 247              		.loc 1 736 0
 248              		@ sp needed
 735:.\Generated_Source\PSoC4/CapSense.c ****     return ((uint32)((0u != (CapSense_csdStatusVar & CapSense_SW_STS_BUSY)) ? 1u : 0u));
 249              		.loc 1 735 0
 250 0002 1878     		ldrb	r0, [r3]
 251 0004 0123     		mov	r3, #1
 252 0006 1840     		and	r0, r3
 253              		.loc 1 736 0
 254 0008 7047     		bx	lr
 255              	.L12:
 256 000a C046     		.align	2
 257              	.L11:
 258 000c 00000000 		.word	.LANCHOR0
 259              		.cfi_endproc
 260              	.LFE42:
 261              		.size	CapSense_IsBusy, .-CapSense_IsBusy
 262              		.section	.text.CapSense_ReadSensorRaw,"ax",%progbits
 263              		.align	1
ARM GAS  C:\Users\kevin\AppData\Local\Temp\ccEmeqeI.s 			page 19


 264              		.global	CapSense_ReadSensorRaw
 265              		.code	16
 266              		.thumb_func
 267              		.type	CapSense_ReadSensorRaw, %function
 268              	CapSense_ReadSensorRaw:
 269              	.LFB43:
 737:.\Generated_Source\PSoC4/CapSense.c **** 
 738:.\Generated_Source\PSoC4/CapSense.c **** 
 739:.\Generated_Source\PSoC4/CapSense.c **** /*******************************************************************************
 740:.\Generated_Source\PSoC4/CapSense.c **** * Function Name: CapSense_ReadSensorRaw
 741:.\Generated_Source\PSoC4/CapSense.c **** ********************************************************************************
 742:.\Generated_Source\PSoC4/CapSense.c **** *
 743:.\Generated_Source\PSoC4/CapSense.c **** * Summary:
 744:.\Generated_Source\PSoC4/CapSense.c **** *  Returns sensor raw data from the global CapSense_sensorRaw[ ] array. 
 745:.\Generated_Source\PSoC4/CapSense.c **** *  Each scan sensor has a unique number within the sensor array. 
 746:.\Generated_Source\PSoC4/CapSense.c **** *  This number is assigned by the CapSense customizer in sequence. 
 747:.\Generated_Source\PSoC4/CapSense.c **** *  Raw data can be used to perform calculations outside of the CapSense 
 748:.\Generated_Source\PSoC4/CapSense.c **** *  provided framework.
 749:.\Generated_Source\PSoC4/CapSense.c **** *
 750:.\Generated_Source\PSoC4/CapSense.c **** * Parameters:
 751:.\Generated_Source\PSoC4/CapSense.c **** *  sensor:  Sensor number.
 752:.\Generated_Source\PSoC4/CapSense.c **** *
 753:.\Generated_Source\PSoC4/CapSense.c **** * Return:
 754:.\Generated_Source\PSoC4/CapSense.c **** *  Returns the current raw data value for a defined sensor number.
 755:.\Generated_Source\PSoC4/CapSense.c **** *
 756:.\Generated_Source\PSoC4/CapSense.c **** * Global Variables:
 757:.\Generated_Source\PSoC4/CapSense.c **** *  CapSense_sensorRaw[] - used to store sensors raw data.
 758:.\Generated_Source\PSoC4/CapSense.c **** *
 759:.\Generated_Source\PSoC4/CapSense.c **** * Side Effects: 
 760:.\Generated_Source\PSoC4/CapSense.c **** *  None
 761:.\Generated_Source\PSoC4/CapSense.c **** *
 762:.\Generated_Source\PSoC4/CapSense.c **** *******************************************************************************/
 763:.\Generated_Source\PSoC4/CapSense.c **** uint16 CapSense_ReadSensorRaw(uint32 sensor)
 764:.\Generated_Source\PSoC4/CapSense.c **** {
 270              		.loc 1 764 0
 271              		.cfi_startproc
 272              	.LVL25:
 765:.\Generated_Source\PSoC4/CapSense.c ****     return CapSense_sensorRaw[sensor];
 273              		.loc 1 765 0
 274 0000 024B     		ldr	r3, .L14
 275 0002 4000     		lsl	r0, r0, #1
 276              	.LVL26:
 277 0004 0233     		add	r3, r3, #2
 278 0006 185A     		ldrh	r0, [r3, r0]
 766:.\Generated_Source\PSoC4/CapSense.c **** }
 279              		.loc 1 766 0
 280              		@ sp needed
 281 0008 7047     		bx	lr
 282              	.L15:
 283 000a C046     		.align	2
 284              	.L14:
 285 000c 00000000 		.word	.LANCHOR0
 286              		.cfi_endproc
 287              	.LFE43:
 288              		.size	CapSense_ReadSensorRaw, .-CapSense_ReadSensorRaw
 289              		.section	.text.CapSense_WriteSensorRaw,"ax",%progbits
 290              		.align	1
ARM GAS  C:\Users\kevin\AppData\Local\Temp\ccEmeqeI.s 			page 20


 291              		.global	CapSense_WriteSensorRaw
 292              		.code	16
 293              		.thumb_func
 294              		.type	CapSense_WriteSensorRaw, %function
 295              	CapSense_WriteSensorRaw:
 296              	.LFB44:
 767:.\Generated_Source\PSoC4/CapSense.c **** 
 768:.\Generated_Source\PSoC4/CapSense.c **** 
 769:.\Generated_Source\PSoC4/CapSense.c **** /*******************************************************************************
 770:.\Generated_Source\PSoC4/CapSense.c **** * Function Name: CapSense_WriteSensorRaw
 771:.\Generated_Source\PSoC4/CapSense.c **** ********************************************************************************
 772:.\Generated_Source\PSoC4/CapSense.c **** *
 773:.\Generated_Source\PSoC4/CapSense.c **** * Summary:
 774:.\Generated_Source\PSoC4/CapSense.c **** *  This API writes the raw count value passed as an argument to the sensor Raw count array.
 775:.\Generated_Source\PSoC4/CapSense.c **** *
 776:.\Generated_Source\PSoC4/CapSense.c **** * Parameters:
 777:.\Generated_Source\PSoC4/CapSense.c **** *  sensor:  Sensor number.
 778:.\Generated_Source\PSoC4/CapSense.c **** *  value: Raw count value.
 779:.\Generated_Source\PSoC4/CapSense.c **** *
 780:.\Generated_Source\PSoC4/CapSense.c **** * Global Variables:
 781:.\Generated_Source\PSoC4/CapSense.c **** *  CapSense_sensorRaw[] - used to store sensors raw data.
 782:.\Generated_Source\PSoC4/CapSense.c **** *
 783:.\Generated_Source\PSoC4/CapSense.c **** * Return:
 784:.\Generated_Source\PSoC4/CapSense.c **** *  None
 785:.\Generated_Source\PSoC4/CapSense.c **** *
 786:.\Generated_Source\PSoC4/CapSense.c **** * Side Effects: 
 787:.\Generated_Source\PSoC4/CapSense.c **** *  None
 788:.\Generated_Source\PSoC4/CapSense.c **** *
 789:.\Generated_Source\PSoC4/CapSense.c **** *******************************************************************************/
 790:.\Generated_Source\PSoC4/CapSense.c **** void CapSense_WriteSensorRaw(uint32 sensor, uint16 value)
 791:.\Generated_Source\PSoC4/CapSense.c **** {
 297              		.loc 1 791 0
 298              		.cfi_startproc
 299              	.LVL27:
 792:.\Generated_Source\PSoC4/CapSense.c **** 	CapSense_sensorRaw[sensor] = value;
 300              		.loc 1 792 0
 301 0000 024B     		ldr	r3, .L17
 302 0002 4000     		lsl	r0, r0, #1
 303              	.LVL28:
 304 0004 0233     		add	r3, r3, #2
 305 0006 C152     		strh	r1, [r0, r3]
 793:.\Generated_Source\PSoC4/CapSense.c **** }
 306              		.loc 1 793 0
 307              		@ sp needed
 308 0008 7047     		bx	lr
 309              	.L18:
 310 000a C046     		.align	2
 311              	.L17:
 312 000c 00000000 		.word	.LANCHOR0
 313              		.cfi_endproc
 314              	.LFE44:
 315              		.size	CapSense_WriteSensorRaw, .-CapSense_WriteSensorRaw
 316              		.section	.text.CapSense_GetScanResolution,"ax",%progbits
 317              		.align	1
 318              		.global	CapSense_GetScanResolution
 319              		.code	16
 320              		.thumb_func
ARM GAS  C:\Users\kevin\AppData\Local\Temp\ccEmeqeI.s 			page 21


 321              		.type	CapSense_GetScanResolution, %function
 322              	CapSense_GetScanResolution:
 323              	.LFB45:
 794:.\Generated_Source\PSoC4/CapSense.c **** 
 795:.\Generated_Source\PSoC4/CapSense.c **** 
 796:.\Generated_Source\PSoC4/CapSense.c **** #if (CapSense_TUNING_METHOD != CapSense__TUNING_NONE)
 797:.\Generated_Source\PSoC4/CapSense.c **** 	/*******************************************************************************
 798:.\Generated_Source\PSoC4/CapSense.c **** 	* Function Name: CapSense_SetScanResolution
 799:.\Generated_Source\PSoC4/CapSense.c **** 	********************************************************************************
 800:.\Generated_Source\PSoC4/CapSense.c **** 	*
 801:.\Generated_Source\PSoC4/CapSense.c **** 	* Summary:
 802:.\Generated_Source\PSoC4/CapSense.c **** 	*  Sets a value of the sensor scan resolution for a widget. 
 803:.\Generated_Source\PSoC4/CapSense.c **** 	*  The MIN resolution can be set 8-bit. The MAX Resolution can be set 16 bit.
 804:.\Generated_Source\PSoC4/CapSense.c **** 	*  This function is not available for the tuning mode "None".
 805:.\Generated_Source\PSoC4/CapSense.c **** 	*
 806:.\Generated_Source\PSoC4/CapSense.c **** 	* Parameters:
 807:.\Generated_Source\PSoC4/CapSense.c **** 	*  widget:     Widget index.
 808:.\Generated_Source\PSoC4/CapSense.c **** 	*  resolution: Represents the resolution value. The following defines which are available in the
 809:.\Generated_Source\PSoC4/CapSense.c **** 	*			   CapSense.h file should be used:
 810:.\Generated_Source\PSoC4/CapSense.c **** 	*			   CapSense_RESOLUTION_6_BITS
 811:.\Generated_Source\PSoC4/CapSense.c **** 	*			   CapSense_RESOLUTION_7_BITS
 812:.\Generated_Source\PSoC4/CapSense.c **** 	*			   CapSense_RESOLUTION_8_BITS
 813:.\Generated_Source\PSoC4/CapSense.c **** 	*			   CapSense_RESOLUTION_9_BITS
 814:.\Generated_Source\PSoC4/CapSense.c **** 	*			   CapSense_RESOLUTION_10_BITS
 815:.\Generated_Source\PSoC4/CapSense.c **** 	*			   CapSense_RESOLUTION_11_BITS
 816:.\Generated_Source\PSoC4/CapSense.c **** 	*			   CapSense_RESOLUTION_12_BITS
 817:.\Generated_Source\PSoC4/CapSense.c **** 	*			   CapSense_RESOLUTION_13_BITS
 818:.\Generated_Source\PSoC4/CapSense.c **** 	*			   CapSense_RESOLUTION_14_BITS
 819:.\Generated_Source\PSoC4/CapSense.c **** 	*			   CapSense_RESOLUTION_15_BITS
 820:.\Generated_Source\PSoC4/CapSense.c **** 	*			   CapSense_RESOLUTION_16_BITS
 821:.\Generated_Source\PSoC4/CapSense.c **** 	*
 822:.\Generated_Source\PSoC4/CapSense.c **** 	* Return:
 823:.\Generated_Source\PSoC4/CapSense.c **** 	*  None
 824:.\Generated_Source\PSoC4/CapSense.c **** 	*
 825:.\Generated_Source\PSoC4/CapSense.c **** 	* Global Variables:
 826:.\Generated_Source\PSoC4/CapSense.c **** 	*  CapSense_widgetResolution[] - used to store scan resolution of each widget.
 827:.\Generated_Source\PSoC4/CapSense.c **** 	*
 828:.\Generated_Source\PSoC4/CapSense.c **** 	* Side Effects: 
 829:.\Generated_Source\PSoC4/CapSense.c **** 	*  None
 830:.\Generated_Source\PSoC4/CapSense.c **** 	*
 831:.\Generated_Source\PSoC4/CapSense.c **** 	*******************************************************************************/
 832:.\Generated_Source\PSoC4/CapSense.c **** 	void CapSense_SetScanResolution(uint32 widget, uint32 resolution)
 833:.\Generated_Source\PSoC4/CapSense.c **** 	{ 
 834:.\Generated_Source\PSoC4/CapSense.c ****         CapSense_widgetResolution[widget] = resolution;
 835:.\Generated_Source\PSoC4/CapSense.c **** 	}
 836:.\Generated_Source\PSoC4/CapSense.c **** #endif /* (CapSense_TUNING_METHOD != CapSense__TUNING_NONE) */
 837:.\Generated_Source\PSoC4/CapSense.c **** 
 838:.\Generated_Source\PSoC4/CapSense.c **** 
 839:.\Generated_Source\PSoC4/CapSense.c **** /*******************************************************************************
 840:.\Generated_Source\PSoC4/CapSense.c **** * Function Name: CapSense_GetScanResolution
 841:.\Generated_Source\PSoC4/CapSense.c **** ********************************************************************************
 842:.\Generated_Source\PSoC4/CapSense.c **** *
 843:.\Generated_Source\PSoC4/CapSense.c **** * Summary:
 844:.\Generated_Source\PSoC4/CapSense.c **** *  Returns the resolution value for the appropriate sensor.
 845:.\Generated_Source\PSoC4/CapSense.c **** *  This function is not available for tuning mode "None".
 846:.\Generated_Source\PSoC4/CapSense.c **** *
 847:.\Generated_Source\PSoC4/CapSense.c **** * Parameters:
ARM GAS  C:\Users\kevin\AppData\Local\Temp\ccEmeqeI.s 			page 22


 848:.\Generated_Source\PSoC4/CapSense.c **** *  widget:     Widget index.
 849:.\Generated_Source\PSoC4/CapSense.c **** *
 850:.\Generated_Source\PSoC4/CapSense.c **** * Return:
 851:.\Generated_Source\PSoC4/CapSense.c **** *  resolution: Returns the resolution value for the appropriate sensor. 
 852:.\Generated_Source\PSoC4/CapSense.c **** *              The resolution values are defined in the CapSense.h file 
 853:.\Generated_Source\PSoC4/CapSense.c **** *              The defines are encountered below:
 854:.\Generated_Source\PSoC4/CapSense.c **** *			   CapSense_RESOLUTION_6_BITS
 855:.\Generated_Source\PSoC4/CapSense.c **** *			   CapSense_RESOLUTION_7_BITS
 856:.\Generated_Source\PSoC4/CapSense.c **** *			   CapSense_RESOLUTION_8_BITS
 857:.\Generated_Source\PSoC4/CapSense.c **** *			   CapSense_RESOLUTION_9_BITS
 858:.\Generated_Source\PSoC4/CapSense.c **** *			   CapSense_RESOLUTION_10_BITS
 859:.\Generated_Source\PSoC4/CapSense.c **** *			   CapSense_RESOLUTION_11_BITS
 860:.\Generated_Source\PSoC4/CapSense.c **** *			   CapSense_RESOLUTION_12_BITS
 861:.\Generated_Source\PSoC4/CapSense.c **** *			   CapSense_RESOLUTION_13_BITS
 862:.\Generated_Source\PSoC4/CapSense.c **** *			   CapSense_RESOLUTION_14_BITS
 863:.\Generated_Source\PSoC4/CapSense.c **** *			   CapSense_RESOLUTION_15_BITS
 864:.\Generated_Source\PSoC4/CapSense.c **** *			   CapSense_RESOLUTION_16_BITS
 865:.\Generated_Source\PSoC4/CapSense.c **** *
 866:.\Generated_Source\PSoC4/CapSense.c **** * Global Variables:
 867:.\Generated_Source\PSoC4/CapSense.c **** *  CapSense_widgetResolution[] - used to store scan resolution of every widget.
 868:.\Generated_Source\PSoC4/CapSense.c **** *
 869:.\Generated_Source\PSoC4/CapSense.c **** * Side Effects: 
 870:.\Generated_Source\PSoC4/CapSense.c **** *  None
 871:.\Generated_Source\PSoC4/CapSense.c **** *
 872:.\Generated_Source\PSoC4/CapSense.c **** *******************************************************************************/
 873:.\Generated_Source\PSoC4/CapSense.c **** uint32 CapSense_GetScanResolution(uint32 widget)
 874:.\Generated_Source\PSoC4/CapSense.c **** {
 324              		.loc 1 874 0
 325              		.cfi_startproc
 326              	.LVL29:
 875:.\Generated_Source\PSoC4/CapSense.c **** 	return(CapSense_widgetResolution[widget]);
 327              		.loc 1 875 0
 328 0000 014B     		ldr	r3, .L20
 329 0002 8000     		lsl	r0, r0, #2
 330              	.LVL30:
 331 0004 C058     		ldr	r0, [r0, r3]
 876:.\Generated_Source\PSoC4/CapSense.c **** }
 332              		.loc 1 876 0
 333              		@ sp needed
 334 0006 7047     		bx	lr
 335              	.L21:
 336              		.align	2
 337              	.L20:
 338 0008 00000000 		.word	.LANCHOR1
 339              		.cfi_endproc
 340              	.LFE45:
 341              		.size	CapSense_GetScanResolution, .-CapSense_GetScanResolution
 342              		.section	.text.CapSense_EnableSensor,"ax",%progbits
 343              		.align	1
 344              		.global	CapSense_EnableSensor
 345              		.code	16
 346              		.thumb_func
 347              		.type	CapSense_EnableSensor, %function
 348              	CapSense_EnableSensor:
 349              	.LFB47:
 877:.\Generated_Source\PSoC4/CapSense.c **** 
 878:.\Generated_Source\PSoC4/CapSense.c **** 
ARM GAS  C:\Users\kevin\AppData\Local\Temp\ccEmeqeI.s 			page 23


 879:.\Generated_Source\PSoC4/CapSense.c **** /*******************************************************************************
 880:.\Generated_Source\PSoC4/CapSense.c **** * Function Name: CapSense_ClearSensors
 881:.\Generated_Source\PSoC4/CapSense.c **** ********************************************************************************
 882:.\Generated_Source\PSoC4/CapSense.c **** *
 883:.\Generated_Source\PSoC4/CapSense.c **** * Summary:
 884:.\Generated_Source\PSoC4/CapSense.c **** *  Resets all the sensors to the non-sampling state by sequentially disconnecting
 885:.\Generated_Source\PSoC4/CapSense.c **** *  all the sensors from Analog MUX Bus and putting them to an inactive state.
 886:.\Generated_Source\PSoC4/CapSense.c **** *
 887:.\Generated_Source\PSoC4/CapSense.c **** * Parameters:
 888:.\Generated_Source\PSoC4/CapSense.c **** *  None
 889:.\Generated_Source\PSoC4/CapSense.c **** *
 890:.\Generated_Source\PSoC4/CapSense.c **** * Return:
 891:.\Generated_Source\PSoC4/CapSense.c **** *  None
 892:.\Generated_Source\PSoC4/CapSense.c **** *
 893:.\Generated_Source\PSoC4/CapSense.c **** * Global Variables:
 894:.\Generated_Source\PSoC4/CapSense.c **** *  None
 895:.\Generated_Source\PSoC4/CapSense.c **** *
 896:.\Generated_Source\PSoC4/CapSense.c **** * Side Effects: 
 897:.\Generated_Source\PSoC4/CapSense.c **** *  None
 898:.\Generated_Source\PSoC4/CapSense.c **** *
 899:.\Generated_Source\PSoC4/CapSense.c **** *******************************************************************************/
 900:.\Generated_Source\PSoC4/CapSense.c **** void CapSense_ClearSensors(void)
 901:.\Generated_Source\PSoC4/CapSense.c **** {
 902:.\Generated_Source\PSoC4/CapSense.c **** 	uint32 snsIndex;
 903:.\Generated_Source\PSoC4/CapSense.c **** 	
 904:.\Generated_Source\PSoC4/CapSense.c ****     for (snsIndex = 0u; snsIndex < CapSense_TOTAL_SENSOR_COUNT; snsIndex++)
 905:.\Generated_Source\PSoC4/CapSense.c ****     {
 906:.\Generated_Source\PSoC4/CapSense.c ****         CapSense_DisableScanSlot(snsIndex);
 907:.\Generated_Source\PSoC4/CapSense.c ****     }
 908:.\Generated_Source\PSoC4/CapSense.c **** }
 909:.\Generated_Source\PSoC4/CapSense.c **** 
 910:.\Generated_Source\PSoC4/CapSense.c **** 
 911:.\Generated_Source\PSoC4/CapSense.c **** #if (CapSense_IS_COMPLEX_SCANSLOTS)
 912:.\Generated_Source\PSoC4/CapSense.c ****     /*******************************************************************************
 913:.\Generated_Source\PSoC4/CapSense.c ****     * Function Name: CapSense_EnableScanSlot
 914:.\Generated_Source\PSoC4/CapSense.c ****     ********************************************************************************
 915:.\Generated_Source\PSoC4/CapSense.c ****     *
 916:.\Generated_Source\PSoC4/CapSense.c ****     * Summary:
 917:.\Generated_Source\PSoC4/CapSense.c ****     *  Configures the selected slot to measure during the next measurement 
 918:.\Generated_Source\PSoC4/CapSense.c ****     *  cycle. The corresponding pin/pins are set to Analog High-Z mode and 
 919:.\Generated_Source\PSoC4/CapSense.c ****     *  connected to the Analog Mux Bus. This also enables the comparator function.
 920:.\Generated_Source\PSoC4/CapSense.c ****     *
 921:.\Generated_Source\PSoC4/CapSense.c ****     * Parameters:
 922:.\Generated_Source\PSoC4/CapSense.c ****     *  slot:  Slot number.
 923:.\Generated_Source\PSoC4/CapSense.c ****     *
 924:.\Generated_Source\PSoC4/CapSense.c ****     * Return:
 925:.\Generated_Source\PSoC4/CapSense.c ****     *  None
 926:.\Generated_Source\PSoC4/CapSense.c ****     *
 927:.\Generated_Source\PSoC4/CapSense.c ****     * Global Constants:
 928:.\Generated_Source\PSoC4/CapSense.c ****     *  CapSense_portTable[]  - used to store the port number that pin 
 929:.\Generated_Source\PSoC4/CapSense.c ****     *  belongs to for each sensor.
 930:.\Generated_Source\PSoC4/CapSense.c ****     *  CapSense_maskTable[]  - used to store the pin within the port for 
 931:.\Generated_Source\PSoC4/CapSense.c ****     *  each sensor.
 932:.\Generated_Source\PSoC4/CapSense.c ****     *  CapSense_indexTable[] - used to store indexes of complex sensors.
 933:.\Generated_Source\PSoC4/CapSense.c ****     *  The offset and position in this array are stored in a port and mask table for 
 934:.\Generated_Source\PSoC4/CapSense.c ****     *  complex sensors.
 935:.\Generated_Source\PSoC4/CapSense.c ****     *  Bit 7 (msb) is used to define the sensor type: single or complex.
ARM GAS  C:\Users\kevin\AppData\Local\Temp\ccEmeqeI.s 			page 24


 936:.\Generated_Source\PSoC4/CapSense.c ****     *
 937:.\Generated_Source\PSoC4/CapSense.c **** 	* Side Effects: 
 938:.\Generated_Source\PSoC4/CapSense.c **** 	*  None
 939:.\Generated_Source\PSoC4/CapSense.c **** 	*
 940:.\Generated_Source\PSoC4/CapSense.c ****     *******************************************************************************/
 941:.\Generated_Source\PSoC4/CapSense.c ****     void CapSense_EnableScanSlot(uint32 slot)
 942:.\Generated_Source\PSoC4/CapSense.c ****     {
 943:.\Generated_Source\PSoC4/CapSense.c ****         uint8 j;
 944:.\Generated_Source\PSoC4/CapSense.c ****         uint8 snsNumber;
 945:.\Generated_Source\PSoC4/CapSense.c ****         const uint8 *index;
 946:.\Generated_Source\PSoC4/CapSense.c ****         /* Read sensor type: single or complex */
 947:.\Generated_Source\PSoC4/CapSense.c ****         uint8 snsType = CapSense_portTable[slot];
 948:.\Generated_Source\PSoC4/CapSense.c **** 
 949:.\Generated_Source\PSoC4/CapSense.c ****         /* Check if sensor is complex */
 950:.\Generated_Source\PSoC4/CapSense.c ****         if ((snsType & CapSense_COMPLEX_SS_FLAG) == 0u)
 951:.\Generated_Source\PSoC4/CapSense.c ****         {
 952:.\Generated_Source\PSoC4/CapSense.c ****             /* Enable sensor (single) */
 953:.\Generated_Source\PSoC4/CapSense.c ****             CapSense_EnableSensor(slot);
 954:.\Generated_Source\PSoC4/CapSense.c ****         }
 955:.\Generated_Source\PSoC4/CapSense.c ****         else
 956:.\Generated_Source\PSoC4/CapSense.c ****         {
 957:.\Generated_Source\PSoC4/CapSense.c ****             /* Enable complex sensor */
 958:.\Generated_Source\PSoC4/CapSense.c ****             snsType &= ~CapSense_COMPLEX_SS_FLAG;
 959:.\Generated_Source\PSoC4/CapSense.c ****             index = &CapSense_indexTable[snsType];
 960:.\Generated_Source\PSoC4/CapSense.c ****             snsNumber = CapSense_maskTable[slot];
 961:.\Generated_Source\PSoC4/CapSense.c ****                         
 962:.\Generated_Source\PSoC4/CapSense.c ****             for (j = 0u; j < snsNumber; j++)
 963:.\Generated_Source\PSoC4/CapSense.c ****             {
 964:.\Generated_Source\PSoC4/CapSense.c ****                 CapSense_EnableSensor(index[j]);
 965:.\Generated_Source\PSoC4/CapSense.c ****             }
 966:.\Generated_Source\PSoC4/CapSense.c ****         }
 967:.\Generated_Source\PSoC4/CapSense.c ****     }
 968:.\Generated_Source\PSoC4/CapSense.c ****     
 969:.\Generated_Source\PSoC4/CapSense.c ****     
 970:.\Generated_Source\PSoC4/CapSense.c ****     /*******************************************************************************
 971:.\Generated_Source\PSoC4/CapSense.c ****     * Function Name: CapSense_DisableScanSlot
 972:.\Generated_Source\PSoC4/CapSense.c ****     ********************************************************************************
 973:.\Generated_Source\PSoC4/CapSense.c ****     *
 974:.\Generated_Source\PSoC4/CapSense.c ****     * Summary:
 975:.\Generated_Source\PSoC4/CapSense.c ****     *  Disables the selected slot. The corresponding pin/pins is/are disconnected 
 976:.\Generated_Source\PSoC4/CapSense.c ****     *  from the Analog Mux Bus and connected to GND, High_Z or Shield electrode.
 977:.\Generated_Source\PSoC4/CapSense.c ****     *
 978:.\Generated_Source\PSoC4/CapSense.c ****     * Parameters:
 979:.\Generated_Source\PSoC4/CapSense.c ****     *  slot:  Slot number.
 980:.\Generated_Source\PSoC4/CapSense.c ****     *
 981:.\Generated_Source\PSoC4/CapSense.c ****     * Return:
 982:.\Generated_Source\PSoC4/CapSense.c ****     *  None
 983:.\Generated_Source\PSoC4/CapSense.c ****     *
 984:.\Generated_Source\PSoC4/CapSense.c ****     * Global Variables:
 985:.\Generated_Source\PSoC4/CapSense.c ****     *  CapSense_portTable[]  - used to store the port number that pin 
 986:.\Generated_Source\PSoC4/CapSense.c ****     *  belongs to for each sensor.
 987:.\Generated_Source\PSoC4/CapSense.c ****     *  CapSense_maskTable[]  - used to store the pin within the port for 
 988:.\Generated_Source\PSoC4/CapSense.c ****     *  each sensor.
 989:.\Generated_Source\PSoC4/CapSense.c ****     *  CapSense_indexTable[] - used to store indexes of complex sensors.
 990:.\Generated_Source\PSoC4/CapSense.c ****     *  The offset and position in this array are stored in a port and mask table for 
 991:.\Generated_Source\PSoC4/CapSense.c ****     *  complex sensors.
 992:.\Generated_Source\PSoC4/CapSense.c ****     *  7bit(msb) is used to define the sensor type: single or complex.
ARM GAS  C:\Users\kevin\AppData\Local\Temp\ccEmeqeI.s 			page 25


 993:.\Generated_Source\PSoC4/CapSense.c ****     *
 994:.\Generated_Source\PSoC4/CapSense.c **** 	* Side Effects: 
 995:.\Generated_Source\PSoC4/CapSense.c **** 	*  None
 996:.\Generated_Source\PSoC4/CapSense.c **** 	*
 997:.\Generated_Source\PSoC4/CapSense.c ****     *******************************************************************************/
 998:.\Generated_Source\PSoC4/CapSense.c ****     void CapSense_DisableScanSlot(uint32 slot)
 999:.\Generated_Source\PSoC4/CapSense.c ****     {
1000:.\Generated_Source\PSoC4/CapSense.c ****         uint8 j;
1001:.\Generated_Source\PSoC4/CapSense.c ****         uint8 snsNumber;
1002:.\Generated_Source\PSoC4/CapSense.c ****         const uint8 *index;
1003:.\Generated_Source\PSoC4/CapSense.c **** 
1004:.\Generated_Source\PSoC4/CapSense.c ****         /* Read sensor type: single or complex */
1005:.\Generated_Source\PSoC4/CapSense.c ****         uint8 snsType = CapSense_portTable[slot];
1006:.\Generated_Source\PSoC4/CapSense.c ****         
1007:.\Generated_Source\PSoC4/CapSense.c ****         /* Check if sensor is complex */
1008:.\Generated_Source\PSoC4/CapSense.c ****         if ((snsType & CapSense_COMPLEX_SS_FLAG) == 0u)
1009:.\Generated_Source\PSoC4/CapSense.c ****         {
1010:.\Generated_Source\PSoC4/CapSense.c ****             /* Disable sensor (single) */
1011:.\Generated_Source\PSoC4/CapSense.c ****             CapSense_DisableSensor(slot);
1012:.\Generated_Source\PSoC4/CapSense.c ****         }
1013:.\Generated_Source\PSoC4/CapSense.c ****         else
1014:.\Generated_Source\PSoC4/CapSense.c ****         {
1015:.\Generated_Source\PSoC4/CapSense.c ****             /* Disable complex sensor */
1016:.\Generated_Source\PSoC4/CapSense.c ****             snsType &= ~CapSense_COMPLEX_SS_FLAG;
1017:.\Generated_Source\PSoC4/CapSense.c ****             index = &CapSense_indexTable[snsType];
1018:.\Generated_Source\PSoC4/CapSense.c ****             snsNumber = CapSense_maskTable[slot];
1019:.\Generated_Source\PSoC4/CapSense.c ****                         
1020:.\Generated_Source\PSoC4/CapSense.c ****             for (j=0; j < snsNumber; j++)
1021:.\Generated_Source\PSoC4/CapSense.c ****             {
1022:.\Generated_Source\PSoC4/CapSense.c ****                 CapSense_DisableSensor(index[j]);
1023:.\Generated_Source\PSoC4/CapSense.c ****             }
1024:.\Generated_Source\PSoC4/CapSense.c ****         } 
1025:.\Generated_Source\PSoC4/CapSense.c ****     }
1026:.\Generated_Source\PSoC4/CapSense.c **** #endif  /* CapSense_IS_COMPLEX_SCANSLOTS */
1027:.\Generated_Source\PSoC4/CapSense.c **** 
1028:.\Generated_Source\PSoC4/CapSense.c **** 
1029:.\Generated_Source\PSoC4/CapSense.c **** /*******************************************************************************
1030:.\Generated_Source\PSoC4/CapSense.c **** * Function Name: CapSense_EnableSensor
1031:.\Generated_Source\PSoC4/CapSense.c **** ********************************************************************************
1032:.\Generated_Source\PSoC4/CapSense.c **** *
1033:.\Generated_Source\PSoC4/CapSense.c **** * Summary:
1034:.\Generated_Source\PSoC4/CapSense.c **** *  Configures the selected sensor to measure during the next measurement cycle.
1035:.\Generated_Source\PSoC4/CapSense.c **** *  The corresponding pins are set to Analog High-Z mode and connected to the
1036:.\Generated_Source\PSoC4/CapSense.c **** *  Analog Mux Bus. This also enables the comparator function.
1037:.\Generated_Source\PSoC4/CapSense.c **** *
1038:.\Generated_Source\PSoC4/CapSense.c **** * Parameters:
1039:.\Generated_Source\PSoC4/CapSense.c **** *  sensor:  Sensor number.
1040:.\Generated_Source\PSoC4/CapSense.c **** *
1041:.\Generated_Source\PSoC4/CapSense.c **** * Return:
1042:.\Generated_Source\PSoC4/CapSense.c **** *  None
1043:.\Generated_Source\PSoC4/CapSense.c **** *
1044:.\Generated_Source\PSoC4/CapSense.c **** * Global Variables:
1045:.\Generated_Source\PSoC4/CapSense.c **** *  CapSense_portTable[] - used to store the port number that pin 
1046:.\Generated_Source\PSoC4/CapSense.c **** *  belongs to for each sensor.
1047:.\Generated_Source\PSoC4/CapSense.c **** *  CapSense_pinShiftTbl[] - used to store position of pin that 
1048:.\Generated_Source\PSoC4/CapSense.c **** *  configured as sensor in port. 
1049:.\Generated_Source\PSoC4/CapSense.c **** *  CapSense_prtSelTbl[] - Contains pointers to the HSIOM 
ARM GAS  C:\Users\kevin\AppData\Local\Temp\ccEmeqeI.s 			page 26


1050:.\Generated_Source\PSoC4/CapSense.c **** *  registers for each port. 
1051:.\Generated_Source\PSoC4/CapSense.c **** *  CapSense_PrtCfgTb[] - Contains pointers to the port config 
1052:.\Generated_Source\PSoC4/CapSense.c **** *  registers for each port.
1053:.\Generated_Source\PSoC4/CapSense.c **** *
1054:.\Generated_Source\PSoC4/CapSense.c **** * Side Effects: 
1055:.\Generated_Source\PSoC4/CapSense.c **** *  None
1056:.\Generated_Source\PSoC4/CapSense.c **** *
1057:.\Generated_Source\PSoC4/CapSense.c **** *******************************************************************************/
1058:.\Generated_Source\PSoC4/CapSense.c **** __INLINE void CapSense_EnableSensor(uint32 sensor)
1059:.\Generated_Source\PSoC4/CapSense.c **** {
 350              		.loc 1 1059 0
 351              		.cfi_startproc
 352              	.LVL31:
 353 0000 70B5     		push	{r4, r5, r6, lr}
 354              		.cfi_def_cfa_offset 16
 355              		.cfi_offset 4, -16
 356              		.cfi_offset 5, -12
 357              		.cfi_offset 6, -8
 358              		.cfi_offset 14, -4
1060:.\Generated_Source\PSoC4/CapSense.c **** 	uint8  pinModeShift;
1061:.\Generated_Source\PSoC4/CapSense.c ****     uint8  pinHSIOMShift;
1062:.\Generated_Source\PSoC4/CapSense.c **** 	uint8 interruptState;
1063:.\Generated_Source\PSoC4/CapSense.c **** 	uint32 newRegisterValue;
1064:.\Generated_Source\PSoC4/CapSense.c ****     uint32 port;
1065:.\Generated_Source\PSoC4/CapSense.c **** 	
1066:.\Generated_Source\PSoC4/CapSense.c **** 	port = (uint32) CapSense_portTable[sensor];
 359              		.loc 1 1066 0
 360 0002 104C     		ldr	r4, .L23
1067:.\Generated_Source\PSoC4/CapSense.c ****     pinModeShift = CapSense_pinShiftTbl[sensor]  * CapSense_PC_PIN_CFG_SIZE;
1068:.\Generated_Source\PSoC4/CapSense.c ****     pinHSIOMShift = CapSense_pinShiftTbl[sensor] * CapSense_HSIOM_PIN_CFG_SIZE;
1069:.\Generated_Source\PSoC4/CapSense.c **** 
1070:.\Generated_Source\PSoC4/CapSense.c **** 	interruptState = CyEnterCriticalSection();
1071:.\Generated_Source\PSoC4/CapSense.c **** 	
1072:.\Generated_Source\PSoC4/CapSense.c **** 	newRegisterValue = *CapSense_prtSelTbl[port];
1073:.\Generated_Source\PSoC4/CapSense.c **** 	newRegisterValue &= ~(CapSense_CSD_HSIOM_MASK << pinHSIOMShift);
1074:.\Generated_Source\PSoC4/CapSense.c **** 	newRegisterValue |= (uint32)((uint32)CapSense_CSD_SENSE_PORT_MODE << pinHSIOMShift);
1075:.\Generated_Source\PSoC4/CapSense.c ****    
1076:.\Generated_Source\PSoC4/CapSense.c ****     *CapSense_prtCfgTbl[port] &= (uint32)~((uint32)CapSense_CSD_PIN_MODE_MASK << pinModeShift);
1077:.\Generated_Source\PSoC4/CapSense.c ****     *CapSense_prtSelTbl[port] = newRegisterValue;
1078:.\Generated_Source\PSoC4/CapSense.c **** 	
1079:.\Generated_Source\PSoC4/CapSense.c **** 	CyExitCriticalSection(interruptState);
1080:.\Generated_Source\PSoC4/CapSense.c **** }
 361              		.loc 1 1080 0
 362              		@ sp needed
1066:.\Generated_Source\PSoC4/CapSense.c **** 	port = (uint32) CapSense_portTable[sensor];
 363              		.loc 1 1066 0
 364 0004 2318     		add	r3, r4, r0
 365 0006 1E7B     		ldrb	r6, [r3, #12]
 366              	.LVL32:
1067:.\Generated_Source\PSoC4/CapSense.c ****     pinModeShift = CapSense_pinShiftTbl[sensor]  * CapSense_PC_PIN_CFG_SIZE;
 367              		.loc 1 1067 0
 368 0008 231C     		mov	r3, r4
 369 000a 0F33     		add	r3, r3, #15
1072:.\Generated_Source\PSoC4/CapSense.c **** 	newRegisterValue = *CapSense_prtSelTbl[port];
 370              		.loc 1 1072 0
 371 000c B600     		lsl	r6, r6, #2
 372              	.LVL33:
ARM GAS  C:\Users\kevin\AppData\Local\Temp\ccEmeqeI.s 			page 27


1067:.\Generated_Source\PSoC4/CapSense.c ****     pinModeShift = CapSense_pinShiftTbl[sensor]  * CapSense_PC_PIN_CFG_SIZE;
 373              		.loc 1 1067 0
 374 000e 1D5C     		ldrb	r5, [r3, r0]
 375              	.LVL34:
1072:.\Generated_Source\PSoC4/CapSense.c **** 	newRegisterValue = *CapSense_prtSelTbl[port];
 376              		.loc 1 1072 0
 377 0010 A419     		add	r4, r4, r6
 378              	.LVL35:
1070:.\Generated_Source\PSoC4/CapSense.c **** 	interruptState = CyEnterCriticalSection();
 379              		.loc 1 1070 0
 380 0012 FFF7FEFF 		bl	CyEnterCriticalSection
 381              	.LVL36:
1072:.\Generated_Source\PSoC4/CapSense.c **** 	newRegisterValue = *CapSense_prtSelTbl[port];
 382              		.loc 1 1072 0
 383 0016 6369     		ldr	r3, [r4, #20]
1068:.\Generated_Source\PSoC4/CapSense.c ****     pinHSIOMShift = CapSense_pinShiftTbl[sensor] * CapSense_HSIOM_PIN_CFG_SIZE;
 384              		.loc 1 1068 0
 385 0018 AA00     		lsl	r2, r5, #2
1072:.\Generated_Source\PSoC4/CapSense.c **** 	newRegisterValue = *CapSense_prtSelTbl[port];
 386              		.loc 1 1072 0
 387 001a 1968     		ldr	r1, [r3]
 388              	.LVL37:
1073:.\Generated_Source\PSoC4/CapSense.c **** 	newRegisterValue &= ~(CapSense_CSD_HSIOM_MASK << pinHSIOMShift);
 389              		.loc 1 1073 0
 390 001c D2B2     		uxtb	r2, r2
 391 001e 0F26     		mov	r6, #15
 392 0020 9640     		lsl	r6, r6, r2
 393 0022 B143     		bic	r1, r6
 394              	.LVL38:
1074:.\Generated_Source\PSoC4/CapSense.c **** 	newRegisterValue |= (uint32)((uint32)CapSense_CSD_SENSE_PORT_MODE << pinHSIOMShift);
 395              		.loc 1 1074 0
 396 0024 0426     		mov	r6, #4
 397 0026 9640     		lsl	r6, r6, r2
 398 0028 3143     		orr	r1, r6
 399              	.LVL39:
1067:.\Generated_Source\PSoC4/CapSense.c ****     pinModeShift = CapSense_pinShiftTbl[sensor]  * CapSense_PC_PIN_CFG_SIZE;
 400              		.loc 1 1067 0
 401 002a 0326     		mov	r6, #3
 402 002c 7543     		mul	r5, r6
 403              	.LVL40:
1076:.\Generated_Source\PSoC4/CapSense.c ****     *CapSense_prtCfgTbl[port] &= (uint32)~((uint32)CapSense_CSD_PIN_MODE_MASK << pinModeShift);
 404              		.loc 1 1076 0
 405 002e A26A     		ldr	r2, [r4, #40]
 406 0030 EDB2     		uxtb	r5, r5
 407 0032 1468     		ldr	r4, [r2]
 408 0034 0726     		mov	r6, #7
 409 0036 AE40     		lsl	r6, r6, r5
 410 0038 B443     		bic	r4, r6
 411 003a 1460     		str	r4, [r2]
1077:.\Generated_Source\PSoC4/CapSense.c ****     *CapSense_prtSelTbl[port] = newRegisterValue;
 412              		.loc 1 1077 0
 413 003c 1960     		str	r1, [r3]
1079:.\Generated_Source\PSoC4/CapSense.c **** 	CyExitCriticalSection(interruptState);
 414              		.loc 1 1079 0
 415 003e FFF7FEFF 		bl	CyExitCriticalSection
 416              	.LVL41:
 417              		.loc 1 1080 0
ARM GAS  C:\Users\kevin\AppData\Local\Temp\ccEmeqeI.s 			page 28


 418 0042 70BD     		pop	{r4, r5, r6, pc}
 419              	.L24:
 420              		.align	2
 421              	.L23:
 422 0044 00000000 		.word	.LANCHOR1
 423              		.cfi_endproc
 424              	.LFE47:
 425              		.size	CapSense_EnableSensor, .-CapSense_EnableSensor
 426              		.section	.text.CapSense_DisableSensor,"ax",%progbits
 427              		.align	1
 428              		.global	CapSense_DisableSensor
 429              		.code	16
 430              		.thumb_func
 431              		.type	CapSense_DisableSensor, %function
 432              	CapSense_DisableSensor:
 433              	.LFB48:
1081:.\Generated_Source\PSoC4/CapSense.c **** 
1082:.\Generated_Source\PSoC4/CapSense.c **** 
1083:.\Generated_Source\PSoC4/CapSense.c **** /*******************************************************************************
1084:.\Generated_Source\PSoC4/CapSense.c **** * Function Name: CapSense_DisableSensor
1085:.\Generated_Source\PSoC4/CapSense.c **** ********************************************************************************
1086:.\Generated_Source\PSoC4/CapSense.c **** *
1087:.\Generated_Source\PSoC4/CapSense.c **** * Summary:
1088:.\Generated_Source\PSoC4/CapSense.c **** *  Disables the selected sensor. The corresponding pin is disconnected from the
1089:.\Generated_Source\PSoC4/CapSense.c **** *  Analog Mux Bus and connected to GND, High_Z or Shield electrode.
1090:.\Generated_Source\PSoC4/CapSense.c **** *
1091:.\Generated_Source\PSoC4/CapSense.c **** * Parameters:
1092:.\Generated_Source\PSoC4/CapSense.c **** *  sensor:  Sensor number
1093:.\Generated_Source\PSoC4/CapSense.c **** *
1094:.\Generated_Source\PSoC4/CapSense.c **** * Return:
1095:.\Generated_Source\PSoC4/CapSense.c **** *  None
1096:.\Generated_Source\PSoC4/CapSense.c **** *
1097:.\Generated_Source\PSoC4/CapSense.c **** * Global Variables:
1098:.\Generated_Source\PSoC4/CapSense.c **** *  CapSense_portTable[] - used to store the port number that pin 
1099:.\Generated_Source\PSoC4/CapSense.c **** *  belongs to for each sensor.
1100:.\Generated_Source\PSoC4/CapSense.c **** *  CapSense_pinShiftTbl[] - used to store position of pin that 
1101:.\Generated_Source\PSoC4/CapSense.c **** *  configured as a sensor in the port. 
1102:.\Generated_Source\PSoC4/CapSense.c **** *  CapSense_prtSelTbl[] - Contains pointers to the HSIOM 
1103:.\Generated_Source\PSoC4/CapSense.c **** *  registers for each port. 
1104:.\Generated_Source\PSoC4/CapSense.c **** *  CapSense_PrtCfgTb[] - Contains pointers to the port config 
1105:.\Generated_Source\PSoC4/CapSense.c **** *  registers for each port.
1106:.\Generated_Source\PSoC4/CapSense.c **** *
1107:.\Generated_Source\PSoC4/CapSense.c **** * Side Effects: 
1108:.\Generated_Source\PSoC4/CapSense.c **** *  None
1109:.\Generated_Source\PSoC4/CapSense.c **** *
1110:.\Generated_Source\PSoC4/CapSense.c **** *******************************************************************************/
1111:.\Generated_Source\PSoC4/CapSense.c **** __INLINE void CapSense_DisableSensor(uint32 sensor)
1112:.\Generated_Source\PSoC4/CapSense.c **** {
 434              		.loc 1 1112 0
 435              		.cfi_startproc
 436              	.LVL42:
 437 0000 F8B5     		push	{r3, r4, r5, r6, r7, lr}
 438              		.cfi_def_cfa_offset 24
 439              		.cfi_offset 3, -24
 440              		.cfi_offset 4, -20
 441              		.cfi_offset 5, -16
 442              		.cfi_offset 6, -12
ARM GAS  C:\Users\kevin\AppData\Local\Temp\ccEmeqeI.s 			page 29


 443              		.cfi_offset 7, -8
 444              		.cfi_offset 14, -4
1113:.\Generated_Source\PSoC4/CapSense.c ****     uint8 interruptState;
1114:.\Generated_Source\PSoC4/CapSense.c **** 	uint32 newRegisterValue;
1115:.\Generated_Source\PSoC4/CapSense.c **** 	
1116:.\Generated_Source\PSoC4/CapSense.c ****     uint32 port = (uint32) CapSense_portTable[sensor];
 445              		.loc 1 1116 0
 446 0002 174B     		ldr	r3, .L28
1117:.\Generated_Source\PSoC4/CapSense.c ****     uint8  pinHSIOMShift = CapSense_pinShiftTbl[sensor] * CapSense_HSIOM_PIN_CFG_SIZE;
1118:.\Generated_Source\PSoC4/CapSense.c ****     uint8  pinModeShift = CapSense_pinShiftTbl[sensor]  * CapSense_PC_PIN_CFG_SIZE;
1119:.\Generated_Source\PSoC4/CapSense.c **** 
1120:.\Generated_Source\PSoC4/CapSense.c **** 	uint32 inactiveConnect = CapSense_SNS_HIZANALOG_CONNECT;
1121:.\Generated_Source\PSoC4/CapSense.c **** 	uint32 sensorState = CapSense_unscannedSnsDriveMode[sensor];
1122:.\Generated_Source\PSoC4/CapSense.c **** 
1123:.\Generated_Source\PSoC4/CapSense.c ****     *CapSense_prtSelTbl[port] &= ~(CapSense_CSD_HSIOM_MASK << pinHSIOMShift);
 447              		.loc 1 1123 0
 448 0004 0F26     		mov	r6, #15
1116:.\Generated_Source\PSoC4/CapSense.c ****     uint32 port = (uint32) CapSense_portTable[sensor];
 449              		.loc 1 1116 0
 450 0006 1A18     		add	r2, r3, r0
 451 0008 157B     		ldrb	r5, [r2, #12]
 452              	.LVL43:
1117:.\Generated_Source\PSoC4/CapSense.c ****     uint8  pinHSIOMShift = CapSense_pinShiftTbl[sensor] * CapSense_HSIOM_PIN_CFG_SIZE;
 453              		.loc 1 1117 0
 454 000a 1A1C     		mov	r2, r3
 455 000c 0F32     		add	r2, r2, #15
 456              		.loc 1 1123 0
 457 000e AD00     		lsl	r5, r5, #2
 458              	.LVL44:
1117:.\Generated_Source\PSoC4/CapSense.c ****     uint8  pinHSIOMShift = CapSense_pinShiftTbl[sensor] * CapSense_HSIOM_PIN_CFG_SIZE;
 459              		.loc 1 1117 0
 460 0010 145C     		ldrb	r4, [r2, r0]
 461              	.LVL45:
 462              		.loc 1 1123 0
 463 0012 5D19     		add	r5, r3, r5
1121:.\Generated_Source\PSoC4/CapSense.c **** 	uint32 sensorState = CapSense_unscannedSnsDriveMode[sensor];
 464              		.loc 1 1121 0
 465 0014 134A     		ldr	r2, .L28+4
 466              		.loc 1 1123 0
 467 0016 6B69     		ldr	r3, [r5, #20]
 468              	.LVL46:
1121:.\Generated_Source\PSoC4/CapSense.c **** 	uint32 sensorState = CapSense_unscannedSnsDriveMode[sensor];
 469              		.loc 1 1121 0
 470 0018 125C     		ldrb	r2, [r2, r0]
1117:.\Generated_Source\PSoC4/CapSense.c ****     uint8  pinHSIOMShift = CapSense_pinShiftTbl[sensor] * CapSense_HSIOM_PIN_CFG_SIZE;
 471              		.loc 1 1117 0
 472 001a A000     		lsl	r0, r4, #2
 473              	.LVL47:
 474              		.loc 1 1123 0
 475 001c 1968     		ldr	r1, [r3]
 476 001e C0B2     		uxtb	r0, r0
 477 0020 8640     		lsl	r6, r6, r0
 478 0022 B143     		bic	r1, r6
 479 0024 1960     		str	r1, [r3]
1118:.\Generated_Source\PSoC4/CapSense.c ****     uint8  pinModeShift = CapSense_pinShiftTbl[sensor]  * CapSense_PC_PIN_CFG_SIZE;
 480              		.loc 1 1118 0
 481 0026 0327     		mov	r7, #3
ARM GAS  C:\Users\kevin\AppData\Local\Temp\ccEmeqeI.s 			page 30


1120:.\Generated_Source\PSoC4/CapSense.c **** 	uint32 inactiveConnect = CapSense_SNS_HIZANALOG_CONNECT;
 482              		.loc 1 1120 0
 483 0028 531E     		sub	r3, r2, #1
1118:.\Generated_Source\PSoC4/CapSense.c ****     uint8  pinModeShift = CapSense_pinShiftTbl[sensor]  * CapSense_PC_PIN_CFG_SIZE;
 484              		.loc 1 1118 0
 485 002a 6743     		mul	r7, r4
1120:.\Generated_Source\PSoC4/CapSense.c **** 	uint32 inactiveConnect = CapSense_SNS_HIZANALOG_CONNECT;
 486              		.loc 1 1120 0
 487 002c 5A1E     		sub	r2, r3, #1
 488 002e 9341     		sbc	r3, r3, r2
 489 0030 5B42     		neg	r3, r3
1124:.\Generated_Source\PSoC4/CapSense.c **** 
1125:.\Generated_Source\PSoC4/CapSense.c **** 	#if(CapSense_IS_SHIELD_ENABLE != 0)
1126:.\Generated_Source\PSoC4/CapSense.c **** 	if(sensorState != (uint32)CapSense__SHIELD)
1127:.\Generated_Source\PSoC4/CapSense.c **** 	{
1128:.\Generated_Source\PSoC4/CapSense.c **** 	#else
1129:.\Generated_Source\PSoC4/CapSense.c **** 	    /* Connected to Ground if shield is disabled */
1130:.\Generated_Source\PSoC4/CapSense.c **** 	    if(sensorState == (uint32)CapSense__SHIELD)
1131:.\Generated_Source\PSoC4/CapSense.c **** 		{
1132:.\Generated_Source\PSoC4/CapSense.c **** 			sensorState = (uint32)CapSense__GROUND;
1133:.\Generated_Source\PSoC4/CapSense.c **** 		}
1134:.\Generated_Source\PSoC4/CapSense.c **** 	#endif /* (CapSense_IS_SHIELD_ENABLE) */
1135:.\Generated_Source\PSoC4/CapSense.c **** 	    if(sensorState != (uint32)CapSense__HIZ_ANALOG)
1136:.\Generated_Source\PSoC4/CapSense.c **** 		{   
1137:.\Generated_Source\PSoC4/CapSense.c **** 		    /* Connected to Ground */
1138:.\Generated_Source\PSoC4/CapSense.c **** 		    inactiveConnect = (uint32)CapSense_SNS_GROUND_CONNECT;
 490              		.loc 1 1138 0
 491 0032 0626     		mov	r6, #6
1120:.\Generated_Source\PSoC4/CapSense.c **** 	uint32 inactiveConnect = CapSense_SNS_HIZANALOG_CONNECT;
 492              		.loc 1 1120 0
 493 0034 1E40     		and	r6, r3
1139:.\Generated_Source\PSoC4/CapSense.c **** 		}
1140:.\Generated_Source\PSoC4/CapSense.c **** 		
1141:.\Generated_Source\PSoC4/CapSense.c ****         interruptState = CyEnterCriticalSection();
 494              		.loc 1 1141 0
 495 0036 FFF7FEFF 		bl	CyEnterCriticalSection
 496              	.LVL48:
1142:.\Generated_Source\PSoC4/CapSense.c **** 
1143:.\Generated_Source\PSoC4/CapSense.c ****         /* Set drive mode */
1144:.\Generated_Source\PSoC4/CapSense.c ****     	newRegisterValue = *CapSense_prtCfgTbl[port];
 497              		.loc 1 1144 0
 498 003a AB6A     		ldr	r3, [r5, #40]
1118:.\Generated_Source\PSoC4/CapSense.c ****     uint8  pinModeShift = CapSense_pinShiftTbl[sensor]  * CapSense_PC_PIN_CFG_SIZE;
 499              		.loc 1 1118 0
 500 003c FFB2     		uxtb	r7, r7
 501              	.LVL49:
 502              		.loc 1 1144 0
 503 003e 1A68     		ldr	r2, [r3]
 504              	.LVL50:
1145:.\Generated_Source\PSoC4/CapSense.c ****     	newRegisterValue &= ~(CapSense_CSD_PIN_MODE_MASK << pinModeShift);
 505              		.loc 1 1145 0
 506 0040 0721     		mov	r1, #7
 507 0042 B940     		lsl	r1, r1, r7
 508 0044 8A43     		bic	r2, r1
 509              	.LVL51:
1146:.\Generated_Source\PSoC4/CapSense.c ****     	newRegisterValue |=  (uint32)(inactiveConnect << pinModeShift);
 510              		.loc 1 1146 0
ARM GAS  C:\Users\kevin\AppData\Local\Temp\ccEmeqeI.s 			page 31


 511 0046 BE40     		lsl	r6, r6, r7
 512              	.LVL52:
 513 0048 1643     		orr	r6, r2
 514              	.LVL53:
1147:.\Generated_Source\PSoC4/CapSense.c ****         *CapSense_prtCfgTbl[port] =  newRegisterValue;
 515              		.loc 1 1147 0
 516 004a 1E60     		str	r6, [r3]
1148:.\Generated_Source\PSoC4/CapSense.c ****         
1149:.\Generated_Source\PSoC4/CapSense.c ****         CyExitCriticalSection(interruptState);
 517              		.loc 1 1149 0
 518 004c FFF7FEFF 		bl	CyExitCriticalSection
 519              	.LVL54:
1150:.\Generated_Source\PSoC4/CapSense.c **** 
1151:.\Generated_Source\PSoC4/CapSense.c ****     	*CapSense_prtDRTbl[port]  &=  (uint32)~(uint32)((uint32)1u << CapSense_pinShiftTbl[sensor]); 
 520              		.loc 1 1151 0
 521 0050 EB6B     		ldr	r3, [r5, #60]
 522 0052 0121     		mov	r1, #1
 523 0054 1A68     		ldr	r2, [r3]
 524 0056 A140     		lsl	r1, r1, r4
 525 0058 8A43     		bic	r2, r1
 526 005a 1A60     		str	r2, [r3]
1152:.\Generated_Source\PSoC4/CapSense.c **** 	#if(CapSense_IS_SHIELD_ENABLE != 0)
1153:.\Generated_Source\PSoC4/CapSense.c **** 	}
1154:.\Generated_Source\PSoC4/CapSense.c **** 	else
1155:.\Generated_Source\PSoC4/CapSense.c **** 	{
1156:.\Generated_Source\PSoC4/CapSense.c **** 		/* Connect to Shield */
1157:.\Generated_Source\PSoC4/CapSense.c **** 		*CapSense_prtSelTbl[port] |= (CapSense_CSD_SHIELD_PORT_MODE << pinHSIOMShift);
1158:.\Generated_Source\PSoC4/CapSense.c **** 	}
1159:.\Generated_Source\PSoC4/CapSense.c **** 	#endif /* (CapSense_IS_SHIELD_ENABLE) */
1160:.\Generated_Source\PSoC4/CapSense.c **** }
 527              		.loc 1 1160 0
 528              		@ sp needed
 529              	.LVL55:
 530              	.LVL56:
 531              	.LVL57:
 532 005c F8BD     		pop	{r3, r4, r5, r6, r7, pc}
 533              	.L29:
 534 005e C046     		.align	2
 535              	.L28:
 536 0060 00000000 		.word	.LANCHOR1
 537 0064 00000000 		.word	CapSense_unscannedSnsDriveMode
 538              		.cfi_endproc
 539              	.LFE48:
 540              		.size	CapSense_DisableSensor, .-CapSense_DisableSensor
 541              		.section	.text.CapSense_ClearSensors,"ax",%progbits
 542              		.align	1
 543              		.global	CapSense_ClearSensors
 544              		.code	16
 545              		.thumb_func
 546              		.type	CapSense_ClearSensors, %function
 547              	CapSense_ClearSensors:
 548              	.LFB46:
 901:.\Generated_Source\PSoC4/CapSense.c **** {
 549              		.loc 1 901 0
 550              		.cfi_startproc
 551              	.LVL58:
 552 0000 08B5     		push	{r3, lr}
ARM GAS  C:\Users\kevin\AppData\Local\Temp\ccEmeqeI.s 			page 32


 553              		.cfi_def_cfa_offset 8
 554              		.cfi_offset 3, -8
 555              		.cfi_offset 14, -4
 906:.\Generated_Source\PSoC4/CapSense.c ****         CapSense_DisableScanSlot(snsIndex);
 556              		.loc 1 906 0
 557 0002 0020     		mov	r0, #0
 558 0004 FFF7FEFF 		bl	CapSense_DisableSensor
 559              	.LVL59:
 560 0008 0120     		mov	r0, #1
 561 000a FFF7FEFF 		bl	CapSense_DisableSensor
 562              	.LVL60:
 563 000e 0220     		mov	r0, #2
 564 0010 FFF7FEFF 		bl	CapSense_DisableSensor
 565              	.LVL61:
 908:.\Generated_Source\PSoC4/CapSense.c **** }
 566              		.loc 1 908 0
 567              		@ sp needed
 568 0014 08BD     		pop	{r3, pc}
 569              		.cfi_endproc
 570              	.LFE46:
 571              		.size	CapSense_ClearSensors, .-CapSense_ClearSensors
 572              		.section	.text.CapSense_SetPinDriveMode,"ax",%progbits
 573              		.align	1
 574              		.global	CapSense_SetPinDriveMode
 575              		.code	16
 576              		.thumb_func
 577              		.type	CapSense_SetPinDriveMode, %function
 578              	CapSense_SetPinDriveMode:
 579              	.LFB51:
1161:.\Generated_Source\PSoC4/CapSense.c **** 
1162:.\Generated_Source\PSoC4/CapSense.c **** 
1163:.\Generated_Source\PSoC4/CapSense.c **** /*******************************************************************************
1164:.\Generated_Source\PSoC4/CapSense.c **** * Function Name: CapSense_SetDriveModeAllPins
1165:.\Generated_Source\PSoC4/CapSense.c **** ********************************************************************************
1166:.\Generated_Source\PSoC4/CapSense.c **** *
1167:.\Generated_Source\PSoC4/CapSense.c **** * Summary:
1168:.\Generated_Source\PSoC4/CapSense.c **** * This API sets the drive mode of port pins used by the CapSense
1169:.\Generated_Source\PSoC4/CapSense.c **** * component (sensors, guard, shield, shield tank and Cmod) to drive the 
1170:.\Generated_Source\PSoC4/CapSense.c **** * mode specified by the argument.
1171:.\Generated_Source\PSoC4/CapSense.c **** *
1172:.\Generated_Source\PSoC4/CapSense.c **** * Parameters:
1173:.\Generated_Source\PSoC4/CapSense.c **** *  driveMode:  Drive mode definition.
1174:.\Generated_Source\PSoC4/CapSense.c **** *
1175:.\Generated_Source\PSoC4/CapSense.c **** * Return:
1176:.\Generated_Source\PSoC4/CapSense.c **** *  None
1177:.\Generated_Source\PSoC4/CapSense.c **** *
1178:.\Generated_Source\PSoC4/CapSense.c **** * Global Variables:
1179:.\Generated_Source\PSoC4/CapSense.c **** *  CapSense_portTable[] - used to store the port number that pin 
1180:.\Generated_Source\PSoC4/CapSense.c **** *  belongs to for each sensor.
1181:.\Generated_Source\PSoC4/CapSense.c **** *  CapSense_pinShiftTbl[] - used to store position of pin that 
1182:.\Generated_Source\PSoC4/CapSense.c **** *  configured as a sensor in the port. 
1183:.\Generated_Source\PSoC4/CapSense.c **** *
1184:.\Generated_Source\PSoC4/CapSense.c **** * Side Effects: 
1185:.\Generated_Source\PSoC4/CapSense.c **** *  This API shall be called only after CapSense component is stopped.
1186:.\Generated_Source\PSoC4/CapSense.c **** *
1187:.\Generated_Source\PSoC4/CapSense.c **** *******************************************************************************/
1188:.\Generated_Source\PSoC4/CapSense.c **** void CapSense_SetDriveModeAllPins(uint32 driveMode)
ARM GAS  C:\Users\kevin\AppData\Local\Temp\ccEmeqeI.s 			page 33


1189:.\Generated_Source\PSoC4/CapSense.c **** {
1190:.\Generated_Source\PSoC4/CapSense.c **** 	uint8 curSensor;
1191:.\Generated_Source\PSoC4/CapSense.c **** 	#if (CapSense_IS_COMPLEX_SCANSLOTS)
1192:.\Generated_Source\PSoC4/CapSense.c **** 		uint8 snsNumber;
1193:.\Generated_Source\PSoC4/CapSense.c **** 		uint8 snsType;
1194:.\Generated_Source\PSoC4/CapSense.c **** 	#endif  /* CapSense_IS_COMPLEX_SCANSLOTS */
1195:.\Generated_Source\PSoC4/CapSense.c **** 	uint32 prtNumberTmp;
1196:.\Generated_Source\PSoC4/CapSense.c **** 	uint32 pinNumberTmp;
1197:.\Generated_Source\PSoC4/CapSense.c **** 
1198:.\Generated_Source\PSoC4/CapSense.c **** 	for(curSensor = 0u; curSensor < CapSense_TOTAL_SENSOR_COUNT; curSensor++)
1199:.\Generated_Source\PSoC4/CapSense.c **** 	{	
1200:.\Generated_Source\PSoC4/CapSense.c **** 		#if (CapSense_IS_COMPLEX_SCANSLOTS)
1201:.\Generated_Source\PSoC4/CapSense.c **** 			/* Read sensor type: single or complex */
1202:.\Generated_Source\PSoC4/CapSense.c **** 			snsType = CapSense_portTable[curSensor];
1203:.\Generated_Source\PSoC4/CapSense.c **** 		
1204:.\Generated_Source\PSoC4/CapSense.c **** 			/* Check if sensor is complex */
1205:.\Generated_Source\PSoC4/CapSense.c **** 			if ((snsType & CapSense_COMPLEX_SS_FLAG) == 0u)
1206:.\Generated_Source\PSoC4/CapSense.c **** 			{
1207:.\Generated_Source\PSoC4/CapSense.c **** 				/* The sensor is not complex */
1208:.\Generated_Source\PSoC4/CapSense.c **** 				snsNumber = curSensor;
1209:.\Generated_Source\PSoC4/CapSense.c **** 			}
1210:.\Generated_Source\PSoC4/CapSense.c **** 			else
1211:.\Generated_Source\PSoC4/CapSense.c **** 			{
1212:.\Generated_Source\PSoC4/CapSense.c **** 				/* Get dedicated sensor ID of the complex sensor */
1213:.\Generated_Source\PSoC4/CapSense.c **** 				snsType &= ~CapSense_COMPLEX_SS_FLAG;
1214:.\Generated_Source\PSoC4/CapSense.c **** 				snsNumber = CapSense_indexTable[snsType];
1215:.\Generated_Source\PSoC4/CapSense.c **** 			}
1216:.\Generated_Source\PSoC4/CapSense.c **** 
1217:.\Generated_Source\PSoC4/CapSense.c **** 			prtNumberTmp = CapSense_portTable[snsNumber];
1218:.\Generated_Source\PSoC4/CapSense.c **** 			pinNumberTmp = CapSense_pinShiftTbl[snsNumber];
1219:.\Generated_Source\PSoC4/CapSense.c **** 		#else
1220:.\Generated_Source\PSoC4/CapSense.c **** 			prtNumberTmp = CapSense_portTable[curSensor];
1221:.\Generated_Source\PSoC4/CapSense.c **** 			pinNumberTmp = CapSense_pinShiftTbl[curSensor];
1222:.\Generated_Source\PSoC4/CapSense.c **** 		#endif  /* CapSense_IS_COMPLEX_SCANSLOTS */
1223:.\Generated_Source\PSoC4/CapSense.c **** 	
1224:.\Generated_Source\PSoC4/CapSense.c **** 		CapSense_SetPinDriveMode(driveMode, pinNumberTmp, prtNumberTmp);
1225:.\Generated_Source\PSoC4/CapSense.c **** 	}
1226:.\Generated_Source\PSoC4/CapSense.c **** 	
1227:.\Generated_Source\PSoC4/CapSense.c **** 	CapSense_SetPinDriveMode(driveMode, (uint32)CapSense_CMOD_PIN_NUMBER, (uint32)CapSense_CMOD_PRT_NU
1228:.\Generated_Source\PSoC4/CapSense.c **** 	
1229:.\Generated_Source\PSoC4/CapSense.c **** 	#if(0u != CapSense_CSH_TANK_ENABLE)
1230:.\Generated_Source\PSoC4/CapSense.c **** 		CapSense_SetPinDriveMode(driveMode, (uint32)CapSense_CTANK_PIN_NUMBER, (uint32)CapSense_CTANK_PRT
1231:.\Generated_Source\PSoC4/CapSense.c **** 	#endif /* (0u != CapSense_CSH_TANK_ENABLE) */	
1232:.\Generated_Source\PSoC4/CapSense.c **** 	
1233:.\Generated_Source\PSoC4/CapSense.c **** 	#if(0u != CapSense_IS_SHIELD_ENABLE)
1234:.\Generated_Source\PSoC4/CapSense.c **** 		CapSense_SetPinDriveMode(driveMode, (uint32)CapSense_SHIELD_PIN_NUMBER, (uint32)CapSense_SHIELD_P
1235:.\Generated_Source\PSoC4/CapSense.c **** 	#endif /* (0u != CapSense_IS_SHIELD_ENABLE) */	
1236:.\Generated_Source\PSoC4/CapSense.c **** }
1237:.\Generated_Source\PSoC4/CapSense.c **** 
1238:.\Generated_Source\PSoC4/CapSense.c **** 
1239:.\Generated_Source\PSoC4/CapSense.c **** /*******************************************************************************
1240:.\Generated_Source\PSoC4/CapSense.c **** * Function Name: CapSense_RestoreDriveModeAllPins
1241:.\Generated_Source\PSoC4/CapSense.c **** ********************************************************************************
1242:.\Generated_Source\PSoC4/CapSense.c **** *
1243:.\Generated_Source\PSoC4/CapSense.c **** * Summary:
1244:.\Generated_Source\PSoC4/CapSense.c **** *  This API restores the drive for all the CapSense port pins to the original
1245:.\Generated_Source\PSoC4/CapSense.c **** *  state.
ARM GAS  C:\Users\kevin\AppData\Local\Temp\ccEmeqeI.s 			page 34


1246:.\Generated_Source\PSoC4/CapSense.c **** *
1247:.\Generated_Source\PSoC4/CapSense.c **** * Parameters:
1248:.\Generated_Source\PSoC4/CapSense.c **** *  None
1249:.\Generated_Source\PSoC4/CapSense.c **** *
1250:.\Generated_Source\PSoC4/CapSense.c **** * Return:
1251:.\Generated_Source\PSoC4/CapSense.c **** *  None
1252:.\Generated_Source\PSoC4/CapSense.c **** *
1253:.\Generated_Source\PSoC4/CapSense.c **** * Global Variables:
1254:.\Generated_Source\PSoC4/CapSense.c **** *  CapSense_prtSelTbl[] - Contains pointers to the HSIOM 
1255:.\Generated_Source\PSoC4/CapSense.c **** *  registers for each port. 
1256:.\Generated_Source\PSoC4/CapSense.c **** *
1257:.\Generated_Source\PSoC4/CapSense.c **** * Side Effects: 
1258:.\Generated_Source\PSoC4/CapSense.c **** *  This API is called only after the CapSense component is stopped.
1259:.\Generated_Source\PSoC4/CapSense.c **** *
1260:.\Generated_Source\PSoC4/CapSense.c **** *******************************************************************************/
1261:.\Generated_Source\PSoC4/CapSense.c **** void CapSense_RestoreDriveModeAllPins(void)
1262:.\Generated_Source\PSoC4/CapSense.c **** {
1263:.\Generated_Source\PSoC4/CapSense.c **** 	uint32 newRegisterValue;
1264:.\Generated_Source\PSoC4/CapSense.c **** 	
1265:.\Generated_Source\PSoC4/CapSense.c **** 	CapSense_SetDriveModeAllPins(CY_SYS_PINS_DM_ALG_HIZ);
1266:.\Generated_Source\PSoC4/CapSense.c **** 	
1267:.\Generated_Source\PSoC4/CapSense.c **** 	newRegisterValue = CapSense_CMOD_CONNECTION_REG; 
1268:.\Generated_Source\PSoC4/CapSense.c ****     newRegisterValue &= ~(CapSense_CSD_CMOD_CONNECTION_MASK);
1269:.\Generated_Source\PSoC4/CapSense.c ****     newRegisterValue |= CapSense_CSD_CMOD_TO_AMUXBUS_A;
1270:.\Generated_Source\PSoC4/CapSense.c ****     CapSense_CMOD_CONNECTION_REG = newRegisterValue;
1271:.\Generated_Source\PSoC4/CapSense.c **** 	
1272:.\Generated_Source\PSoC4/CapSense.c **** 	#if(0u != CapSense_CSH_TANK_ENABLE)
1273:.\Generated_Source\PSoC4/CapSense.c **** 		newRegisterValue = CapSense_CTANK_CONNECTION_REG;
1274:.\Generated_Source\PSoC4/CapSense.c ****         newRegisterValue &= ~(CapSense_CSD_CTANK_CONNECTION_MASK);
1275:.\Generated_Source\PSoC4/CapSense.c **** 		newRegisterValue |= CapSense_CSD_CTANK_TO_AMUXBUS_B;
1276:.\Generated_Source\PSoC4/CapSense.c ****         CapSense_CTANK_CONNECTION_REG = newRegisterValue;
1277:.\Generated_Source\PSoC4/CapSense.c **** 	#endif/* (0u != CapSense_CSH_TANK_ENABLE) */
1278:.\Generated_Source\PSoC4/CapSense.c **** 	
1279:.\Generated_Source\PSoC4/CapSense.c **** 	#if(0u != CapSense_IS_SHIELD_ENABLE)
1280:.\Generated_Source\PSoC4/CapSense.c **** 		newRegisterValue = *CapSense_prtSelTbl[CapSense_SHIELD_PORT_NUMBER];
1281:.\Generated_Source\PSoC4/CapSense.c ****         newRegisterValue &= ~(CapSense_CSD_HSIOM_MASK << ((uint32)CapSense_SHIELD_PIN_NUMBER * CapS
1282:.\Generated_Source\PSoC4/CapSense.c ****         newRegisterValue |= (CapSense_CSD_SHIELD_PORT_MODE << ((uint32)CapSense_SHIELD_PIN_NUMBER *
1283:.\Generated_Source\PSoC4/CapSense.c ****         *CapSense_prtSelTbl[CapSense_SHIELD_PORT_NUMBER] = newRegisterValue;
1284:.\Generated_Source\PSoC4/CapSense.c **** 	#endif /* (0u != CapSense_IS_SHIELD_ENABLE) */	
1285:.\Generated_Source\PSoC4/CapSense.c **** }
1286:.\Generated_Source\PSoC4/CapSense.c **** 
1287:.\Generated_Source\PSoC4/CapSense.c **** 
1288:.\Generated_Source\PSoC4/CapSense.c **** /*******************************************************************************
1289:.\Generated_Source\PSoC4/CapSense.c **** * Function Name: CapSense_SetPinDriveMode
1290:.\Generated_Source\PSoC4/CapSense.c **** ********************************************************************************
1291:.\Generated_Source\PSoC4/CapSense.c **** *
1292:.\Generated_Source\PSoC4/CapSense.c **** * Summary:
1293:.\Generated_Source\PSoC4/CapSense.c **** * This API sets the drive mode for the appropriate port/pin.
1294:.\Generated_Source\PSoC4/CapSense.c **** *
1295:.\Generated_Source\PSoC4/CapSense.c **** * Parameters:
1296:.\Generated_Source\PSoC4/CapSense.c **** *  driveMode:  Drive mode definition.
1297:.\Generated_Source\PSoC4/CapSense.c **** *  portNumber: contains port number (0, 1, 2).
1298:.\Generated_Source\PSoC4/CapSense.c **** *  pinNumber: contains pin number (0, 1, 2, ... , 7).
1299:.\Generated_Source\PSoC4/CapSense.c **** *
1300:.\Generated_Source\PSoC4/CapSense.c **** * Return:
1301:.\Generated_Source\PSoC4/CapSense.c **** *  None
1302:.\Generated_Source\PSoC4/CapSense.c **** *
ARM GAS  C:\Users\kevin\AppData\Local\Temp\ccEmeqeI.s 			page 35


1303:.\Generated_Source\PSoC4/CapSense.c **** * Global Variables:
1304:.\Generated_Source\PSoC4/CapSense.c **** *  CapSense_prtSelTbl[] - Contains pointers to the HSIOM 
1305:.\Generated_Source\PSoC4/CapSense.c **** *  registers for each port. 
1306:.\Generated_Source\PSoC4/CapSense.c **** *  CapSense_prtCfgTb[] - Contains pointers to the port config 
1307:.\Generated_Source\PSoC4/CapSense.c **** *  registers for each port.
1308:.\Generated_Source\PSoC4/CapSense.c **** *
1309:.\Generated_Source\PSoC4/CapSense.c **** * Side Effects: 
1310:.\Generated_Source\PSoC4/CapSense.c **** *  This API is called only after CapSense component is stopped.
1311:.\Generated_Source\PSoC4/CapSense.c **** *
1312:.\Generated_Source\PSoC4/CapSense.c **** *******************************************************************************/
1313:.\Generated_Source\PSoC4/CapSense.c **** void CapSense_SetPinDriveMode(uint32 driveMode, uint32 pinNumber, uint32 portNumber)
1314:.\Generated_Source\PSoC4/CapSense.c **** {	
 580              		.loc 1 1314 0
 581              		.cfi_startproc
 582              	.LVL62:
1315:.\Generated_Source\PSoC4/CapSense.c **** 	uint32  pinModeShift;
1316:.\Generated_Source\PSoC4/CapSense.c **** 	uint32 newRegisterValue;
1317:.\Generated_Source\PSoC4/CapSense.c **** 	
1318:.\Generated_Source\PSoC4/CapSense.c **** 	pinModeShift  = pinNumber * CapSense_PC_PIN_CFG_SIZE;
1319:.\Generated_Source\PSoC4/CapSense.c **** 	
1320:.\Generated_Source\PSoC4/CapSense.c **** 	newRegisterValue = *CapSense_prtCfgTbl[portNumber];
 583              		.loc 1 1320 0
 584 0000 074B     		ldr	r3, .L32
1314:.\Generated_Source\PSoC4/CapSense.c **** {	
 585              		.loc 1 1314 0
 586 0002 10B5     		push	{r4, lr}
 587              		.cfi_def_cfa_offset 8
 588              		.cfi_offset 4, -8
 589              		.cfi_offset 14, -4
 590              		.loc 1 1320 0
 591 0004 9200     		lsl	r2, r2, #2
 592              	.LVL63:
1318:.\Generated_Source\PSoC4/CapSense.c **** 	pinModeShift  = pinNumber * CapSense_PC_PIN_CFG_SIZE;
 593              		.loc 1 1318 0
 594 0006 0324     		mov	r4, #3
 595 0008 6143     		mul	r1, r4
 596              	.LVL64:
 597              		.loc 1 1320 0
 598 000a 9A18     		add	r2, r3, r2
 599 000c 936A     		ldr	r3, [r2, #40]
1321:.\Generated_Source\PSoC4/CapSense.c **** 	newRegisterValue &= ~(CapSense_CSD_PIN_MODE_MASK << pinModeShift);
 600              		.loc 1 1321 0
 601 000e 0724     		mov	r4, #7
1320:.\Generated_Source\PSoC4/CapSense.c **** 	newRegisterValue = *CapSense_prtCfgTbl[portNumber];
 602              		.loc 1 1320 0
 603 0010 1A68     		ldr	r2, [r3]
 604              	.LVL65:
 605              		.loc 1 1321 0
 606 0012 8C40     		lsl	r4, r4, r1
 607 0014 A243     		bic	r2, r4
 608              	.LVL66:
1322:.\Generated_Source\PSoC4/CapSense.c **** 	newRegisterValue |=  (uint32)((uint32)driveMode << pinModeShift);
 609              		.loc 1 1322 0
 610 0016 8840     		lsl	r0, r0, r1
 611              	.LVL67:
 612 0018 111C     		mov	r1, r2
 613              	.LVL68:
ARM GAS  C:\Users\kevin\AppData\Local\Temp\ccEmeqeI.s 			page 36


 614 001a 0143     		orr	r1, r0
 615              	.LVL69:
1323:.\Generated_Source\PSoC4/CapSense.c ****     *CapSense_prtCfgTbl[portNumber] =  newRegisterValue;
 616              		.loc 1 1323 0
 617 001c 1960     		str	r1, [r3]
1324:.\Generated_Source\PSoC4/CapSense.c **** }
 618              		.loc 1 1324 0
 619              		@ sp needed
 620 001e 10BD     		pop	{r4, pc}
 621              	.L33:
 622              		.align	2
 623              	.L32:
 624 0020 00000000 		.word	.LANCHOR1
 625              		.cfi_endproc
 626              	.LFE51:
 627              		.size	CapSense_SetPinDriveMode, .-CapSense_SetPinDriveMode
 628              		.section	.text.CapSense_SetDriveModeAllPins,"ax",%progbits
 629              		.align	1
 630              		.global	CapSense_SetDriveModeAllPins
 631              		.code	16
 632              		.thumb_func
 633              		.type	CapSense_SetDriveModeAllPins, %function
 634              	CapSense_SetDriveModeAllPins:
 635              	.LFB49:
1189:.\Generated_Source\PSoC4/CapSense.c **** {
 636              		.loc 1 1189 0
 637              		.cfi_startproc
 638              	.LVL70:
 639 0000 10B5     		push	{r4, lr}
 640              		.cfi_def_cfa_offset 8
 641              		.cfi_offset 4, -8
 642              		.cfi_offset 14, -4
1224:.\Generated_Source\PSoC4/CapSense.c **** 		CapSense_SetPinDriveMode(driveMode, pinNumberTmp, prtNumberTmp);
 643              		.loc 1 1224 0
 644 0002 0021     		mov	r1, #0
1189:.\Generated_Source\PSoC4/CapSense.c **** {
 645              		.loc 1 1189 0
 646 0004 041C     		mov	r4, r0
1224:.\Generated_Source\PSoC4/CapSense.c **** 		CapSense_SetPinDriveMode(driveMode, pinNumberTmp, prtNumberTmp);
 647              		.loc 1 1224 0
 648 0006 0122     		mov	r2, #1
 649 0008 FFF7FEFF 		bl	CapSense_SetPinDriveMode
 650              	.LVL71:
 651 000c 201C     		mov	r0, r4
 652 000e 0721     		mov	r1, #7
 653 0010 0122     		mov	r2, #1
 654 0012 FFF7FEFF 		bl	CapSense_SetPinDriveMode
 655              	.LVL72:
 656 0016 0021     		mov	r1, #0
 657 0018 201C     		mov	r0, r4
 658 001a 0A1C     		mov	r2, r1
 659 001c FFF7FEFF 		bl	CapSense_SetPinDriveMode
 660              	.LVL73:
1227:.\Generated_Source\PSoC4/CapSense.c **** 	CapSense_SetPinDriveMode(driveMode, (uint32)CapSense_CMOD_PIN_NUMBER, (uint32)CapSense_CMOD_PRT_NU
 661              		.loc 1 1227 0
 662 0020 201C     		mov	r0, r4
 663 0022 0221     		mov	r1, #2
ARM GAS  C:\Users\kevin\AppData\Local\Temp\ccEmeqeI.s 			page 37


 664 0024 0422     		mov	r2, #4
 665 0026 FFF7FEFF 		bl	CapSense_SetPinDriveMode
 666              	.LVL74:
1236:.\Generated_Source\PSoC4/CapSense.c **** }
 667              		.loc 1 1236 0
 668              		@ sp needed
 669              	.LVL75:
 670 002a 10BD     		pop	{r4, pc}
 671              		.cfi_endproc
 672              	.LFE49:
 673              		.size	CapSense_SetDriveModeAllPins, .-CapSense_SetDriveModeAllPins
 674              		.section	.text.CapSense_RestoreDriveModeAllPins,"ax",%progbits
 675              		.align	1
 676              		.global	CapSense_RestoreDriveModeAllPins
 677              		.code	16
 678              		.thumb_func
 679              		.type	CapSense_RestoreDriveModeAllPins, %function
 680              	CapSense_RestoreDriveModeAllPins:
 681              	.LFB50:
1262:.\Generated_Source\PSoC4/CapSense.c **** {
 682              		.loc 1 1262 0
 683              		.cfi_startproc
 684 0000 08B5     		push	{r3, lr}
 685              		.cfi_def_cfa_offset 8
 686              		.cfi_offset 3, -8
 687              		.cfi_offset 14, -4
1265:.\Generated_Source\PSoC4/CapSense.c **** 	CapSense_SetDriveModeAllPins(CY_SYS_PINS_DM_ALG_HIZ);
 688              		.loc 1 1265 0
 689 0002 0020     		mov	r0, #0
 690 0004 FFF7FEFF 		bl	CapSense_SetDriveModeAllPins
 691              	.LVL76:
1267:.\Generated_Source\PSoC4/CapSense.c **** 	newRegisterValue = CapSense_CMOD_CONNECTION_REG; 
 692              		.loc 1 1267 0
 693 0008 044B     		ldr	r3, .L36
1268:.\Generated_Source\PSoC4/CapSense.c ****     newRegisterValue &= ~(CapSense_CSD_CMOD_CONNECTION_MASK);
 694              		.loc 1 1268 0
 695 000a 054A     		ldr	r2, .L36+4
1267:.\Generated_Source\PSoC4/CapSense.c **** 	newRegisterValue = CapSense_CMOD_CONNECTION_REG; 
 696              		.loc 1 1267 0
 697 000c 1968     		ldr	r1, [r3]
 698              	.LVL77:
1285:.\Generated_Source\PSoC4/CapSense.c **** }
 699              		.loc 1 1285 0
 700              		@ sp needed
1268:.\Generated_Source\PSoC4/CapSense.c ****     newRegisterValue &= ~(CapSense_CSD_CMOD_CONNECTION_MASK);
 701              		.loc 1 1268 0
 702 000e 0A40     		and	r2, r1
 703              	.LVL78:
1269:.\Generated_Source\PSoC4/CapSense.c ****     newRegisterValue |= CapSense_CSD_CMOD_TO_AMUXBUS_A;
 704              		.loc 1 1269 0
 705 0010 C021     		mov	r1, #192
 706 0012 C900     		lsl	r1, r1, #3
 707 0014 0A43     		orr	r2, r1
 708              	.LVL79:
1270:.\Generated_Source\PSoC4/CapSense.c ****     CapSense_CMOD_CONNECTION_REG = newRegisterValue;
 709              		.loc 1 1270 0
 710 0016 1A60     		str	r2, [r3]
ARM GAS  C:\Users\kevin\AppData\Local\Temp\ccEmeqeI.s 			page 38


1285:.\Generated_Source\PSoC4/CapSense.c **** }
 711              		.loc 1 1285 0
 712 0018 08BD     		pop	{r3, pc}
 713              	.L37:
 714 001a C046     		.align	2
 715              	.L36:
 716 001c 10000140 		.word	1073807376
 717 0020 FFF0FFFF 		.word	-3841
 718              		.cfi_endproc
 719              	.LFE50:
 720              		.size	CapSense_RestoreDriveModeAllPins, .-CapSense_RestoreDriveModeAllPins
 721              		.section	.text.CapSense_PreScan,"ax",%progbits
 722              		.align	1
 723              		.global	CapSense_PreScan
 724              		.code	16
 725              		.thumb_func
 726              		.type	CapSense_PreScan, %function
 727              	CapSense_PreScan:
 728              	.LFB52:
1325:.\Generated_Source\PSoC4/CapSense.c **** 
1326:.\Generated_Source\PSoC4/CapSense.c **** 
1327:.\Generated_Source\PSoC4/CapSense.c **** /*******************************************************************************
1328:.\Generated_Source\PSoC4/CapSense.c **** * Function Name: CapSense_PreScan
1329:.\Generated_Source\PSoC4/CapSense.c **** ********************************************************************************
1330:.\Generated_Source\PSoC4/CapSense.c **** *
1331:.\Generated_Source\PSoC4/CapSense.c **** * Summary:
1332:.\Generated_Source\PSoC4/CapSense.c **** *  Sets required settings, enables a sensor, removes Vref from AMUX and starts the 
1333:.\Generated_Source\PSoC4/CapSense.c **** *  scanning process of the sensor.
1334:.\Generated_Source\PSoC4/CapSense.c **** *
1335:.\Generated_Source\PSoC4/CapSense.c **** * Parameters:
1336:.\Generated_Source\PSoC4/CapSense.c **** *  sensor:  Sensor number.
1337:.\Generated_Source\PSoC4/CapSense.c **** *
1338:.\Generated_Source\PSoC4/CapSense.c **** * Return:
1339:.\Generated_Source\PSoC4/CapSense.c **** *  None
1340:.\Generated_Source\PSoC4/CapSense.c **** *
1341:.\Generated_Source\PSoC4/CapSense.c **** * Global Variables:
1342:.\Generated_Source\PSoC4/CapSense.c **** * CapSense_widgetNumber[] - This array contains numbers of widgets for each sensor.
1343:.\Generated_Source\PSoC4/CapSense.c **** * CapSense_widgetResolution[] - Contains the widget resolution.
1344:.\Generated_Source\PSoC4/CapSense.c **** *
1345:.\Generated_Source\PSoC4/CapSense.c **** * Side Effects: 
1346:.\Generated_Source\PSoC4/CapSense.c **** *  None
1347:.\Generated_Source\PSoC4/CapSense.c **** *
1348:.\Generated_Source\PSoC4/CapSense.c **** *******************************************************************************/
1349:.\Generated_Source\PSoC4/CapSense.c **** void CapSense_PreScan(uint32 sensor)
1350:.\Generated_Source\PSoC4/CapSense.c **** {
 729              		.loc 1 1350 0
 730              		.cfi_startproc
 731              	.LVL80:
 732 0000 F8B5     		push	{r3, r4, r5, r6, r7, lr}
 733              		.cfi_def_cfa_offset 24
 734              		.cfi_offset 3, -24
 735              		.cfi_offset 4, -20
 736              		.cfi_offset 5, -16
 737              		.cfi_offset 6, -12
 738              		.cfi_offset 7, -8
 739              		.cfi_offset 14, -4
1351:.\Generated_Source\PSoC4/CapSense.c ****     uint8 widget;
ARM GAS  C:\Users\kevin\AppData\Local\Temp\ccEmeqeI.s 			page 39


1352:.\Generated_Source\PSoC4/CapSense.c ****     uint8 interruptState;
1353:.\Generated_Source\PSoC4/CapSense.c **** 	uint32 newRegValue;
1354:.\Generated_Source\PSoC4/CapSense.c **** 	uint32 counterResolution;
1355:.\Generated_Source\PSoC4/CapSense.c **** 	
1356:.\Generated_Source\PSoC4/CapSense.c **** 	#if(CapSense_PRS_OPTIONS == CapSense__PRS_AUTO)
1357:.\Generated_Source\PSoC4/CapSense.c **** 		uint8 senseClkDivMath;
1358:.\Generated_Source\PSoC4/CapSense.c **** 		uint8 sampleClkDivMath;
1359:.\Generated_Source\PSoC4/CapSense.c **** 	#endif /* (CapSense_PRS_OPTIONS == CapSense__PRS_AUTO) */	
1360:.\Generated_Source\PSoC4/CapSense.c **** 	
1361:.\Generated_Source\PSoC4/CapSense.c **** 	#if ((CapSense_TUNING_METHOD == CapSense__TUNING_AUTO) &&\
1362:.\Generated_Source\PSoC4/CapSense.c **** 		 (0 != CapSense_IS_OVERSAMPLING_EN))
1363:.\Generated_Source\PSoC4/CapSense.c **** 		uint32 oversamplingFactor;
1364:.\Generated_Source\PSoC4/CapSense.c **** 	#endif /* ((CapSense_TUNING_METHOD == CapSense__TUNING_AUTO) &&\
1365:.\Generated_Source\PSoC4/CapSense.c **** 	           (0 != CapSense_IS_OVERSAMPLING_EN)) */
1366:.\Generated_Source\PSoC4/CapSense.c **** 
1367:.\Generated_Source\PSoC4/CapSense.c ****     /* Define widget sensor belongs to */
1368:.\Generated_Source\PSoC4/CapSense.c ****     widget = CapSense_widgetNumber[sensor];
1369:.\Generated_Source\PSoC4/CapSense.c **** 
1370:.\Generated_Source\PSoC4/CapSense.c **** 	/* Recalculate Counter Resolution to MSB 16 bits */
1371:.\Generated_Source\PSoC4/CapSense.c **** 	counterResolution = CapSense_widgetResolution[widget];
 740              		.loc 1 1371 0
 741 0002 1F4D     		ldr	r5, .L39
1350:.\Generated_Source\PSoC4/CapSense.c **** {
 742              		.loc 1 1350 0
 743 0004 041C     		mov	r4, r0
1368:.\Generated_Source\PSoC4/CapSense.c ****     widget = CapSense_widgetNumber[sensor];
 744              		.loc 1 1368 0
 745 0006 2B1C     		mov	r3, r5
 746 0008 5033     		add	r3, r3, #80
 747              		.loc 1 1371 0
 748 000a 1B5C     		ldrb	r3, [r3, r0]
1372:.\Generated_Source\PSoC4/CapSense.c **** 	
1373:.\Generated_Source\PSoC4/CapSense.c **** 	#if ((CapSense_TUNING_METHOD == CapSense__TUNING_AUTO) &&\
1374:.\Generated_Source\PSoC4/CapSense.c **** 		 (0 != CapSense_IS_OVERSAMPLING_EN))
1375:.\Generated_Source\PSoC4/CapSense.c **** 	    oversamplingFactor = CapSense_GetBitValue(scanSpeedTbl, sensor);
1376:.\Generated_Source\PSoC4/CapSense.c **** 
1377:.\Generated_Source\PSoC4/CapSense.c **** 		if(counterResolution < CapSense_RESOLUTION_16_BITS)
1378:.\Generated_Source\PSoC4/CapSense.c **** 		{
1379:.\Generated_Source\PSoC4/CapSense.c **** 			counterResolution <<= oversamplingFactor;
1380:.\Generated_Source\PSoC4/CapSense.c **** 			counterResolution |= (uint32)(CapSense_RESOLUTION_8_BITS);
1381:.\Generated_Source\PSoC4/CapSense.c **** 		}
1382:.\Generated_Source\PSoC4/CapSense.c **** 	#endif /* ((CapSense_TUNING_METHOD == CapSense__TUNING_AUTO) &&\
1383:.\Generated_Source\PSoC4/CapSense.c **** 	           (0 != CapSense_IS_OVERSAMPLING_EN)) */
1384:.\Generated_Source\PSoC4/CapSense.c **** 	
1385:.\Generated_Source\PSoC4/CapSense.c **** 	#if (0u != CapSense_IS_M0S8PERI_BLOCK)
1386:.\Generated_Source\PSoC4/CapSense.c **** 		CapSense_SenseClk_Stop();
1387:.\Generated_Source\PSoC4/CapSense.c **** 		CapSense_SampleClk_Stop();
1388:.\Generated_Source\PSoC4/CapSense.c **** 	#endif /* (0u != CapSense_IS_M0S8PERI_BLOCK) */
1389:.\Generated_Source\PSoC4/CapSense.c **** 
1390:.\Generated_Source\PSoC4/CapSense.c **** 	#if (0u != CapSense_MULTIPLE_FREQUENCY_SET)
1391:.\Generated_Source\PSoC4/CapSense.c **** 		CapSense_SampleClk_SetDividerValue((uint16)CapSense_sampleClkDividerVal[sensor]);
 749              		.loc 1 1391 0
 750 000c 0021     		mov	r1, #0
1371:.\Generated_Source\PSoC4/CapSense.c **** 	counterResolution = CapSense_widgetResolution[widget];
 751              		.loc 1 1371 0
 752 000e 9B00     		lsl	r3, r3, #2
 753 0010 5E59     		ldr	r6, [r3, r5]
ARM GAS  C:\Users\kevin\AppData\Local\Temp\ccEmeqeI.s 			page 40


 754              	.LVL81:
 755              		.loc 1 1391 0
 756 0012 2B1C     		mov	r3, r5
 757 0014 5333     		add	r3, r3, #83
 758 0016 185C     		ldrb	r0, [r3, r0]
 759              	.LVL82:
1392:.\Generated_Source\PSoC4/CapSense.c **** 		CapSense_SenseClk_SetDividerValue((uint16)CapSense_senseClkDividerVal[sensor]);
 760              		.loc 1 1392 0
 761 0018 5635     		add	r5, r5, #86
1391:.\Generated_Source\PSoC4/CapSense.c **** 		CapSense_SampleClk_SetDividerValue((uint16)CapSense_sampleClkDividerVal[sensor]);
 762              		.loc 1 1391 0
 763 001a 0138     		sub	r0, r0, #1
 764 001c 80B2     		uxth	r0, r0
 765 001e FFF7FEFF 		bl	CapSense_SampleClk_SetFractionalDividerRegister
 766              	.LVL83:
 767              		.loc 1 1392 0
 768 0022 285D     		ldrb	r0, [r5, r4]
 769 0024 0021     		mov	r1, #0
 770 0026 0138     		sub	r0, r0, #1
 771 0028 80B2     		uxth	r0, r0
 772 002a FFF7FEFF 		bl	CapSense_SenseClk_SetFractionalDividerRegister
 773              	.LVL84:
1393:.\Generated_Source\PSoC4/CapSense.c **** 	#else
1394:.\Generated_Source\PSoC4/CapSense.c **** 		CapSense_SampleClk_SetDividerValue((uint16)CapSense_sampleClkDividerVal);
1395:.\Generated_Source\PSoC4/CapSense.c **** 		CapSense_SenseClk_SetDividerValue((uint16)CapSense_senseClkDividerVal);
1396:.\Generated_Source\PSoC4/CapSense.c **** 	#endif /* (0u != CapSense_MULTIPLE_FREQUENCY_SET) */
1397:.\Generated_Source\PSoC4/CapSense.c **** 
1398:.\Generated_Source\PSoC4/CapSense.c **** 	#if (0u != CapSense_IS_M0S8PERI_BLOCK)
1399:.\Generated_Source\PSoC4/CapSense.c **** 		CapSense_SampleClk_Start();
1400:.\Generated_Source\PSoC4/CapSense.c **** 		CapSense_SenseClk_StartEx(CapSense_SampleClk__DIV_ID);
1401:.\Generated_Source\PSoC4/CapSense.c **** 		
1402:.\Generated_Source\PSoC4/CapSense.c **** 		#if(CapSense_PRS_OPTIONS == CapSense__PRS_NONE)
1403:.\Generated_Source\PSoC4/CapSense.c **** 			CyIntDisable(CapSense_ISR_NUMBER);
1404:.\Generated_Source\PSoC4/CapSense.c **** 			CapSense_CSD_CNT_REG = CapSense_ONE_CYCLE;
1405:.\Generated_Source\PSoC4/CapSense.c **** 			while(0u != (CapSense_CSD_CNT_REG & CapSense_RESOLUTION_16_BITS))
1406:.\Generated_Source\PSoC4/CapSense.c **** 			{
1407:.\Generated_Source\PSoC4/CapSense.c **** 			/* Wait until scanning is complete */ 
1408:.\Generated_Source\PSoC4/CapSense.c **** 			}
1409:.\Generated_Source\PSoC4/CapSense.c **** 			CapSense_CSD_INTR_REG = 1u;
1410:.\Generated_Source\PSoC4/CapSense.c **** 			CyIntClearPending(CapSense_ISR_NUMBER);
1411:.\Generated_Source\PSoC4/CapSense.c **** 			CyIntEnable(CapSense_ISR_NUMBER); 
1412:.\Generated_Source\PSoC4/CapSense.c **** 		#endif /* CapSense_PRS_OPTIONS == CapSense__PRS_NONE */
1413:.\Generated_Source\PSoC4/CapSense.c **** 	#endif /* (0u != CapSense_IS_M0S8PERI_BLOCK) */
1414:.\Generated_Source\PSoC4/CapSense.c **** 
1415:.\Generated_Source\PSoC4/CapSense.c **** #if(CapSense_PRS_OPTIONS != CapSense__PRS_NONE)
1416:.\Generated_Source\PSoC4/CapSense.c **** 
1417:.\Generated_Source\PSoC4/CapSense.c **** 	#if(CapSense_TUNING_METHOD == CapSense__TUNING_AUTO)
1418:.\Generated_Source\PSoC4/CapSense.c **** 		if(CapSense_prescalersTuningDone != 0u)
1419:.\Generated_Source\PSoC4/CapSense.c **** 		{
1420:.\Generated_Source\PSoC4/CapSense.c **** 	#endif /* (CapSense_TUNING_METHOD == CapSense__TUNING_AUTO) */
1421:.\Generated_Source\PSoC4/CapSense.c **** 			
1422:.\Generated_Source\PSoC4/CapSense.c **** 			CyIntDisable(CapSense_ISR_NUMBER);
1423:.\Generated_Source\PSoC4/CapSense.c **** 			
1424:.\Generated_Source\PSoC4/CapSense.c **** 			newRegValue = CapSense_CSD_CFG_REG;
1425:.\Generated_Source\PSoC4/CapSense.c **** 			newRegValue |= CapSense_CSD_CFG_PRS_SELECT;
1426:.\Generated_Source\PSoC4/CapSense.c **** 			
1427:.\Generated_Source\PSoC4/CapSense.c **** 			#if(CapSense_PRS_OPTIONS == CapSense__PRS_AUTO)
ARM GAS  C:\Users\kevin\AppData\Local\Temp\ccEmeqeI.s 			page 41


1428:.\Generated_Source\PSoC4/CapSense.c **** 				
1429:.\Generated_Source\PSoC4/CapSense.c **** 				newRegValue &= ~(CapSense_PRS_MODE_MASK);
1430:.\Generated_Source\PSoC4/CapSense.c **** 				
1431:.\Generated_Source\PSoC4/CapSense.c **** 				#if (0u != CapSense_MULTIPLE_FREQUENCY_SET)
1432:.\Generated_Source\PSoC4/CapSense.c **** 					senseClkDivMath = CapSense_senseClkDividerVal[sensor];
1433:.\Generated_Source\PSoC4/CapSense.c **** 					sampleClkDivMath = CapSense_sampleClkDividerVal[sensor];
1434:.\Generated_Source\PSoC4/CapSense.c **** 				#else
1435:.\Generated_Source\PSoC4/CapSense.c **** 					senseClkDivMath = CapSense_senseClkDividerVal;
1436:.\Generated_Source\PSoC4/CapSense.c **** 					sampleClkDivMath = CapSense_sampleClkDividerVal;
1437:.\Generated_Source\PSoC4/CapSense.c **** 				#endif /* ( CapSense_MULTIPLE_FREQUENCY_SET) */
1438:.\Generated_Source\PSoC4/CapSense.c **** 				
1439:.\Generated_Source\PSoC4/CapSense.c **** 				#if(0u == CapSense_IS_M0S8PERI_BLOCK)
1440:.\Generated_Source\PSoC4/CapSense.c **** 					senseClkDivMath *= sampleClkDivMath;
1441:.\Generated_Source\PSoC4/CapSense.c **** 				#endif /* (0u == CapSense_IS_M0S8PERI_BLOCK) */	
1442:.\Generated_Source\PSoC4/CapSense.c **** 				
1443:.\Generated_Source\PSoC4/CapSense.c **** 				if((senseClkDivMath * CapSense_RESOLUTION_12_BITS) <
1444:.\Generated_Source\PSoC4/CapSense.c **** 				   (sampleClkDivMath * CapSense_widgetResolution[widget]))
1445:.\Generated_Source\PSoC4/CapSense.c **** 				{
1446:.\Generated_Source\PSoC4/CapSense.c **** 					newRegValue |= CapSense_CSD_PRS_12_BIT;
1447:.\Generated_Source\PSoC4/CapSense.c **** 				}
1448:.\Generated_Source\PSoC4/CapSense.c **** 			#endif /* (CapSense_PRS_OPTIONS == CapSense__PRS_AUTO) */
1449:.\Generated_Source\PSoC4/CapSense.c **** 			
1450:.\Generated_Source\PSoC4/CapSense.c **** 			CapSense_CSD_CFG_REG = newRegValue;
1451:.\Generated_Source\PSoC4/CapSense.c **** 			
1452:.\Generated_Source\PSoC4/CapSense.c **** 			CyIntEnable(CapSense_ISR_NUMBER);
1453:.\Generated_Source\PSoC4/CapSense.c **** 			
1454:.\Generated_Source\PSoC4/CapSense.c **** 	#if(CapSense_TUNING_METHOD == CapSense__TUNING_AUTO)	
1455:.\Generated_Source\PSoC4/CapSense.c **** 		}
1456:.\Generated_Source\PSoC4/CapSense.c **** 	#endif /* (CapSense_PRS_OPTIONS != CapSense__PRS_NONE) */
1457:.\Generated_Source\PSoC4/CapSense.c **** 
1458:.\Generated_Source\PSoC4/CapSense.c **** #endif /* (CapSense_PRS_OPTIONS == CapSense__PRS_NONE) */
1459:.\Generated_Source\PSoC4/CapSense.c **** 	
1460:.\Generated_Source\PSoC4/CapSense.c **** 	/* Set Idac Value */
1461:.\Generated_Source\PSoC4/CapSense.c **** 	CyIntDisable(CapSense_ISR_NUMBER);
 774              		.loc 1 1461 0
 775 002e 0F20     		mov	r0, #15
 776 0030 FFF7FEFF 		bl	CyIntDisable
 777              	.LVL85:
1462:.\Generated_Source\PSoC4/CapSense.c ****     newRegValue = CapSense_CSD_IDAC_REG;
 778              		.loc 1 1462 0
 779 0034 134B     		ldr	r3, .L39+4
1463:.\Generated_Source\PSoC4/CapSense.c ****  
1464:.\Generated_Source\PSoC4/CapSense.c **** #if (CapSense_IDAC_CNT == 1u)    
1465:.\Generated_Source\PSoC4/CapSense.c **** 	newRegValue &= ~(CapSense_CSD_IDAC1_DATA_MASK);
1466:.\Generated_Source\PSoC4/CapSense.c **** 	newRegValue |= CapSense_modulationIDAC[sensor];
1467:.\Generated_Source\PSoC4/CapSense.c **** #else
1468:.\Generated_Source\PSoC4/CapSense.c **** 	newRegValue &= ~(CapSense_CSD_IDAC1_DATA_MASK | CapSense_CSD_IDAC2_DATA_MASK);
1469:.\Generated_Source\PSoC4/CapSense.c **** 	newRegValue |= (CapSense_modulationIDAC[sensor] | 
 780              		.loc 1 1469 0
 781 0036 144A     		ldr	r2, .L39+8
1462:.\Generated_Source\PSoC4/CapSense.c ****     newRegValue = CapSense_CSD_IDAC_REG;
 782              		.loc 1 1462 0
 783 0038 1D68     		ldr	r5, [r3]
 784              	.LVL86:
1468:.\Generated_Source\PSoC4/CapSense.c **** 	newRegValue &= ~(CapSense_CSD_IDAC1_DATA_MASK | CapSense_CSD_IDAC2_DATA_MASK);
 785              		.loc 1 1468 0
 786 003a 1448     		ldr	r0, .L39+12
ARM GAS  C:\Users\kevin\AppData\Local\Temp\ccEmeqeI.s 			page 42


 787              		.loc 1 1469 0
 788 003c 115D     		ldrb	r1, [r2, r4]
1468:.\Generated_Source\PSoC4/CapSense.c **** 	newRegValue &= ~(CapSense_CSD_IDAC1_DATA_MASK | CapSense_CSD_IDAC2_DATA_MASK);
 789              		.loc 1 1468 0
 790 003e 2840     		and	r0, r5
 791              	.LVL87:
1470:.\Generated_Source\PSoC4/CapSense.c **** 							(uint32)((uint32)CapSense_compensationIDAC[sensor] <<
 792              		.loc 1 1470 0
 793 0040 0332     		add	r2, r2, #3
1469:.\Generated_Source\PSoC4/CapSense.c **** 	newRegValue |= (CapSense_modulationIDAC[sensor] | 
 794              		.loc 1 1469 0
 795 0042 0843     		orr	r0, r1
 796              	.LVL88:
 797              		.loc 1 1470 0
 798 0044 115D     		ldrb	r1, [r2, r4]
1469:.\Generated_Source\PSoC4/CapSense.c **** 	newRegValue |= (CapSense_modulationIDAC[sensor] | 
 799              		.loc 1 1469 0
 800 0046 021C     		mov	r2, r0
 801              		.loc 1 1470 0
 802 0048 0904     		lsl	r1, r1, #16
1469:.\Generated_Source\PSoC4/CapSense.c **** 	newRegValue |= (CapSense_modulationIDAC[sensor] | 
 803              		.loc 1 1469 0
 804 004a 0A43     		orr	r2, r1
 805              	.LVL89:
1471:.\Generated_Source\PSoC4/CapSense.c **** 							CapSense_CSD_IDAC2_DATA_OFFSET));                               
1472:.\Generated_Source\PSoC4/CapSense.c **** #endif /* (CapSense_IDAC_CNT == 1u) */
1473:.\Generated_Source\PSoC4/CapSense.c **** 	
1474:.\Generated_Source\PSoC4/CapSense.c **** 	CapSense_CSD_IDAC_REG = newRegValue;
1475:.\Generated_Source\PSoC4/CapSense.c **** 
1476:.\Generated_Source\PSoC4/CapSense.c **** #if(CapSense_CMOD_PREGARGE_OPTION == CapSense__CAPPRIOBUF)
1477:.\Generated_Source\PSoC4/CapSense.c **** 	newRegValue = CapSense_CMOD_CONNECTION_REG;
1478:.\Generated_Source\PSoC4/CapSense.c **** 	newRegValue &= ~(CapSense_CSD_CMOD_CONNECTION_MASK);
1479:.\Generated_Source\PSoC4/CapSense.c **** 	newRegValue |= CapSense_CSD_CMOD_TO_AMUXBUS_A;
1480:.\Generated_Source\PSoC4/CapSense.c **** 	CapSense_CMOD_CONNECTION_REG = newRegValue;
1481:.\Generated_Source\PSoC4/CapSense.c **** 	
1482:.\Generated_Source\PSoC4/CapSense.c **** 	newRegValue = CapSense_CMOD_PORT_PC_REG;
1483:.\Generated_Source\PSoC4/CapSense.c **** 	newRegValue &= ~(CapSense_CSD_CMOD_PC_MASK);
1484:.\Generated_Source\PSoC4/CapSense.c **** 	newRegValue |= CapSense_CMOD_PC_HIGH_Z_MODE;
1485:.\Generated_Source\PSoC4/CapSense.c **** 	CapSense_CMOD_PORT_PC_REG = newRegValue;
1486:.\Generated_Source\PSoC4/CapSense.c **** #endif /* (CapSense_CMOD_PREGARGE_OPTION == CapSense__CAPPRIOBUF) */
1487:.\Generated_Source\PSoC4/CapSense.c **** 
1488:.\Generated_Source\PSoC4/CapSense.c ****     /* Disconnect Vref Buffer from AMUX */
1489:.\Generated_Source\PSoC4/CapSense.c **** 	newRegValue = CapSense_CSD_CFG_REG;
 806              		.loc 1 1489 0
 807 004c 104D     		ldr	r5, .L39+16
1474:.\Generated_Source\PSoC4/CapSense.c **** 	CapSense_CSD_IDAC_REG = newRegValue;
 808              		.loc 1 1474 0
 809 004e 1A60     		str	r2, [r3]
 810              		.loc 1 1489 0
 811 0050 2F68     		ldr	r7, [r5]
 812              	.LVL90:
1490:.\Generated_Source\PSoC4/CapSense.c **** 	newRegValue &= ~(CapSense_PRECHARGE_CONFIG_MASK);
 813              		.loc 1 1490 0
 814 0052 104B     		ldr	r3, .L39+20
1491:.\Generated_Source\PSoC4/CapSense.c **** 	newRegValue |= CapSense_CTANK_PRECHARGE_CONFIG;
1492:.\Generated_Source\PSoC4/CapSense.c **** 	
1493:.\Generated_Source\PSoC4/CapSense.c **** 	CyIntEnable(CapSense_ISR_NUMBER);
ARM GAS  C:\Users\kevin\AppData\Local\Temp\ccEmeqeI.s 			page 43


 815              		.loc 1 1493 0
 816 0054 0F20     		mov	r0, #15
1490:.\Generated_Source\PSoC4/CapSense.c **** 	newRegValue &= ~(CapSense_PRECHARGE_CONFIG_MASK);
 817              		.loc 1 1490 0
 818 0056 1F40     		and	r7, r3
 819              	.LVL91:
1491:.\Generated_Source\PSoC4/CapSense.c **** 	newRegValue |= CapSense_CTANK_PRECHARGE_CONFIG;
 820              		.loc 1 1491 0
 821 0058 0F4B     		ldr	r3, .L39+24
1494:.\Generated_Source\PSoC4/CapSense.c **** 	
1495:.\Generated_Source\PSoC4/CapSense.c ****     /* Enable Sensor */
1496:.\Generated_Source\PSoC4/CapSense.c ****     CapSense_EnableScanSlot(sensor);
1497:.\Generated_Source\PSoC4/CapSense.c ****     
1498:.\Generated_Source\PSoC4/CapSense.c **** 	interruptState = CyEnterCriticalSection();
1499:.\Generated_Source\PSoC4/CapSense.c **** 	CapSense_CSD_CFG_REG = newRegValue;
1500:.\Generated_Source\PSoC4/CapSense.c **** 	
1501:.\Generated_Source\PSoC4/CapSense.c **** 	/* `#START CapSense_PreSettlingDelay_Debug` */
1502:.\Generated_Source\PSoC4/CapSense.c **** 
1503:.\Generated_Source\PSoC4/CapSense.c **** 	/* `#END` */
1504:.\Generated_Source\PSoC4/CapSense.c **** 	
1505:.\Generated_Source\PSoC4/CapSense.c **** 	CyDelayCycles(CapSense_GLITCH_ELIMINATION_CYCLES);
1506:.\Generated_Source\PSoC4/CapSense.c **** 	
1507:.\Generated_Source\PSoC4/CapSense.c **** 	/* `#START CapSense_PreScan_Debug` */
1508:.\Generated_Source\PSoC4/CapSense.c **** 
1509:.\Generated_Source\PSoC4/CapSense.c **** 	/* `#END` */
1510:.\Generated_Source\PSoC4/CapSense.c **** 	
1511:.\Generated_Source\PSoC4/CapSense.c ****     CapSense_CSD_CNT_REG = counterResolution;
1512:.\Generated_Source\PSoC4/CapSense.c ****     CyExitCriticalSection(interruptState);
1513:.\Generated_Source\PSoC4/CapSense.c **** }
 822              		.loc 1 1513 0
 823              		@ sp needed
1491:.\Generated_Source\PSoC4/CapSense.c **** 	newRegValue |= CapSense_CTANK_PRECHARGE_CONFIG;
 824              		.loc 1 1491 0
 825 005a 1F43     		orr	r7, r3
 826              	.LVL92:
1493:.\Generated_Source\PSoC4/CapSense.c **** 	CyIntEnable(CapSense_ISR_NUMBER);
 827              		.loc 1 1493 0
 828 005c FFF7FEFF 		bl	CyIntEnable
 829              	.LVL93:
1496:.\Generated_Source\PSoC4/CapSense.c ****     CapSense_EnableScanSlot(sensor);
 830              		.loc 1 1496 0
 831 0060 201C     		mov	r0, r4
 832 0062 FFF7FEFF 		bl	CapSense_EnableSensor
 833              	.LVL94:
1498:.\Generated_Source\PSoC4/CapSense.c **** 	interruptState = CyEnterCriticalSection();
 834              		.loc 1 1498 0
 835 0066 FFF7FEFF 		bl	CyEnterCriticalSection
 836              	.LVL95:
1499:.\Generated_Source\PSoC4/CapSense.c **** 	CapSense_CSD_CFG_REG = newRegValue;
 837              		.loc 1 1499 0
 838 006a 2F60     		str	r7, [r5]
1498:.\Generated_Source\PSoC4/CapSense.c **** 	interruptState = CyEnterCriticalSection();
 839              		.loc 1 1498 0
 840 006c 041C     		mov	r4, r0
 841              	.LVL96:
1505:.\Generated_Source\PSoC4/CapSense.c **** 	CyDelayCycles(CapSense_GLITCH_ELIMINATION_CYCLES);
 842              		.loc 1 1505 0
ARM GAS  C:\Users\kevin\AppData\Local\Temp\ccEmeqeI.s 			page 44


 843 006e 0020     		mov	r0, #0
 844              	.LVL97:
 845 0070 FFF7FEFF 		bl	CyDelayCycles
 846              	.LVL98:
1511:.\Generated_Source\PSoC4/CapSense.c ****     CapSense_CSD_CNT_REG = counterResolution;
 847              		.loc 1 1511 0
 848 0074 094B     		ldr	r3, .L39+28
1512:.\Generated_Source\PSoC4/CapSense.c ****     CyExitCriticalSection(interruptState);
 849              		.loc 1 1512 0
 850 0076 201C     		mov	r0, r4
1511:.\Generated_Source\PSoC4/CapSense.c ****     CapSense_CSD_CNT_REG = counterResolution;
 851              		.loc 1 1511 0
 852 0078 1E60     		str	r6, [r3]
1512:.\Generated_Source\PSoC4/CapSense.c ****     CyExitCriticalSection(interruptState);
 853              		.loc 1 1512 0
 854 007a FFF7FEFF 		bl	CyExitCriticalSection
 855              	.LVL99:
 856              	.LVL100:
 857              	.LVL101:
 858              	.LVL102:
 859              		.loc 1 1513 0
 860 007e F8BD     		pop	{r3, r4, r5, r6, r7, pc}
 861              	.L40:
 862              		.align	2
 863              	.L39:
 864 0080 00000000 		.word	.LANCHOR1
 865 0084 08000840 		.word	1074266120
 866 0088 00000000 		.word	.LANCHOR2
 867 008c 00FF80FF 		.word	-8323328
 868 0090 04000840 		.word	1074266116
 869 0094 FF1FDFFF 		.word	-2154497
 870 0098 20002000 		.word	2097184
 871 009c 0C000840 		.word	1074266124
 872              		.cfi_endproc
 873              	.LFE52:
 874              		.size	CapSense_PreScan, .-CapSense_PreScan
 875              		.section	.text.CapSense_ScanSensor,"ax",%progbits
 876              		.align	1
 877              		.global	CapSense_ScanSensor
 878              		.code	16
 879              		.thumb_func
 880              		.type	CapSense_ScanSensor, %function
 881              	CapSense_ScanSensor:
 882              	.LFB39:
 569:.\Generated_Source\PSoC4/CapSense.c **** {
 883              		.loc 1 569 0
 884              		.cfi_startproc
 885              	.LVL103:
 886 0000 08B5     		push	{r3, lr}
 887              		.cfi_def_cfa_offset 8
 888              		.cfi_offset 3, -8
 889              		.cfi_offset 14, -4
 571:.\Generated_Source\PSoC4/CapSense.c ****     CapSense_csdStatusVar = 0u;
 890              		.loc 1 571 0
 891 0002 054B     		ldr	r3, .L42
 892 0004 0022     		mov	r2, #0
 893 0006 1A70     		strb	r2, [r3]
ARM GAS  C:\Users\kevin\AppData\Local\Temp\ccEmeqeI.s 			page 45


 572:.\Generated_Source\PSoC4/CapSense.c ****     CapSense_sensorIndex = (uint8)sensor;
 894              		.loc 1 572 0
 895 0008 C2B2     		uxtb	r2, r0
 896 000a 1A72     		strb	r2, [r3, #8]
 575:.\Generated_Source\PSoC4/CapSense.c ****     CapSense_csdStatusVar = (CapSense_SW_STS_BUSY | CapSense_SW_CTRL_SINGLE_SCAN);
 897              		.loc 1 575 0
 898 000c 8122     		mov	r2, #129
 899 000e 1A70     		strb	r2, [r3]
 577:.\Generated_Source\PSoC4/CapSense.c **** }
 900              		.loc 1 577 0
 901              		@ sp needed
 576:.\Generated_Source\PSoC4/CapSense.c ****     CapSense_PreScan(sensor);
 902              		.loc 1 576 0
 903 0010 FFF7FEFF 		bl	CapSense_PreScan
 904              	.LVL104:
 577:.\Generated_Source\PSoC4/CapSense.c **** }
 905              		.loc 1 577 0
 906 0014 08BD     		pop	{r3, pc}
 907              	.L43:
 908 0016 C046     		.align	2
 909              	.L42:
 910 0018 00000000 		.word	.LANCHOR0
 911              		.cfi_endproc
 912              	.LFE39:
 913              		.size	CapSense_ScanSensor, .-CapSense_ScanSensor
 914              		.section	.text.CapSense_PostScan,"ax",%progbits
 915              		.align	1
 916              		.global	CapSense_PostScan
 917              		.code	16
 918              		.thumb_func
 919              		.type	CapSense_PostScan, %function
 920              	CapSense_PostScan:
 921              	.LFB53:
1514:.\Generated_Source\PSoC4/CapSense.c **** 
1515:.\Generated_Source\PSoC4/CapSense.c **** 
1516:.\Generated_Source\PSoC4/CapSense.c **** /*******************************************************************************
1517:.\Generated_Source\PSoC4/CapSense.c **** * Function Name: CapSense_PostScan
1518:.\Generated_Source\PSoC4/CapSense.c **** ********************************************************************************
1519:.\Generated_Source\PSoC4/CapSense.c **** *
1520:.\Generated_Source\PSoC4/CapSense.c **** * Summary:
1521:.\Generated_Source\PSoC4/CapSense.c **** *  Stores the results of measurement in the CapSense_sensorRaw[] array,
1522:.\Generated_Source\PSoC4/CapSense.c **** *  sets the scanning sensor in the non-sampling state, turns off Idac(Current Source IDAC),
1523:.\Generated_Source\PSoC4/CapSense.c **** *  disconnects the IDAC(Sink mode), and applies Vref on AMUX.
1524:.\Generated_Source\PSoC4/CapSense.c **** *
1525:.\Generated_Source\PSoC4/CapSense.c **** * Parameters:
1526:.\Generated_Source\PSoC4/CapSense.c **** *  sensor:  Sensor number.
1527:.\Generated_Source\PSoC4/CapSense.c **** *
1528:.\Generated_Source\PSoC4/CapSense.c **** * Return:
1529:.\Generated_Source\PSoC4/CapSense.c **** *  None
1530:.\Generated_Source\PSoC4/CapSense.c **** *
1531:.\Generated_Source\PSoC4/CapSense.c **** * Global Variables:
1532:.\Generated_Source\PSoC4/CapSense.c **** *  CapSense_sensorRaw[] - used to store sensors raw data.
1533:.\Generated_Source\PSoC4/CapSense.c **** *
1534:.\Generated_Source\PSoC4/CapSense.c **** * Side Effects: 
1535:.\Generated_Source\PSoC4/CapSense.c **** *  None
1536:.\Generated_Source\PSoC4/CapSense.c **** *
1537:.\Generated_Source\PSoC4/CapSense.c **** *******************************************************************************/
ARM GAS  C:\Users\kevin\AppData\Local\Temp\ccEmeqeI.s 			page 46


1538:.\Generated_Source\PSoC4/CapSense.c **** void CapSense_PostScan(uint32 sensor)
1539:.\Generated_Source\PSoC4/CapSense.c **** {	
 922              		.loc 1 1539 0
 923              		.cfi_startproc
 924              	.LVL105:
 925 0000 08B5     		push	{r3, lr}
 926              		.cfi_def_cfa_offset 8
 927              		.cfi_offset 3, -8
 928              		.cfi_offset 14, -4
1540:.\Generated_Source\PSoC4/CapSense.c **** 	uint32 newRegValue;
1541:.\Generated_Source\PSoC4/CapSense.c **** #if ((CapSense_TUNING_METHOD == CapSense__TUNING_AUTO) &&\
1542:.\Generated_Source\PSoC4/CapSense.c **** 	 (0 != CapSense_IS_OVERSAMPLING_EN))
1543:.\Generated_Source\PSoC4/CapSense.c ****     uint32 oversamplingFactor;
1544:.\Generated_Source\PSoC4/CapSense.c ****     uint32 widget;
1545:.\Generated_Source\PSoC4/CapSense.c **** #endif /* ((CapSense_TUNING_METHOD == CapSense__TUNING_AUTO) &&\
1546:.\Generated_Source\PSoC4/CapSense.c **** 		   (0 != CapSense_IS_OVERSAMPLING_EN)) */	
1547:.\Generated_Source\PSoC4/CapSense.c **** 
1548:.\Generated_Source\PSoC4/CapSense.c **** 	/* `#START CapSense_PostScan_Debug` */
1549:.\Generated_Source\PSoC4/CapSense.c **** 
1550:.\Generated_Source\PSoC4/CapSense.c **** 	/* `#END` */
1551:.\Generated_Source\PSoC4/CapSense.c **** 
1552:.\Generated_Source\PSoC4/CapSense.c **** 
1553:.\Generated_Source\PSoC4/CapSense.c ****     /* Read SlotResult from Raw Counter */
1554:.\Generated_Source\PSoC4/CapSense.c ****     CapSense_sensorRaw[sensor]  = (uint16)CapSense_CSD_CNT_REG;
 929              		.loc 1 1554 0
 930 0002 0E4B     		ldr	r3, .L45
 931 0004 4200     		lsl	r2, r0, #1
 932 0006 1968     		ldr	r1, [r3]
 933 0008 0D4B     		ldr	r3, .L45+4
1555:.\Generated_Source\PSoC4/CapSense.c **** 	
1556:.\Generated_Source\PSoC4/CapSense.c **** #if ((CapSense_TUNING_METHOD == CapSense__TUNING_AUTO) &&\
1557:.\Generated_Source\PSoC4/CapSense.c **** 	 (0 != CapSense_IS_OVERSAMPLING_EN))
1558:.\Generated_Source\PSoC4/CapSense.c **** 	widget = CapSense_widgetNumber[sensor];
1559:.\Generated_Source\PSoC4/CapSense.c **** 	if(CapSense_widgetResolution[widget] < CapSense_RESOLUTION_16_BITS)
1560:.\Generated_Source\PSoC4/CapSense.c **** 	{
1561:.\Generated_Source\PSoC4/CapSense.c **** 		oversamplingFactor = CapSense_GetBitValue(scanSpeedTbl, sensor);
1562:.\Generated_Source\PSoC4/CapSense.c **** 		CapSense_sensorRaw[sensor] >>= oversamplingFactor;
1563:.\Generated_Source\PSoC4/CapSense.c **** 	}
1564:.\Generated_Source\PSoC4/CapSense.c **** #endif /* ((CapSense_TUNING_METHOD == CapSense__TUNING_AUTO) &&\
1565:.\Generated_Source\PSoC4/CapSense.c **** 		   (0 != CapSense_IS_OVERSAMPLING_EN)) */
1566:.\Generated_Source\PSoC4/CapSense.c **** 
1567:.\Generated_Source\PSoC4/CapSense.c ****     /* Disable Sensor */
1568:.\Generated_Source\PSoC4/CapSense.c ****     CapSense_DisableScanSlot(sensor);
1569:.\Generated_Source\PSoC4/CapSense.c **** 
1570:.\Generated_Source\PSoC4/CapSense.c **** 	CyIntDisable(CapSense_ISR_NUMBER);
1571:.\Generated_Source\PSoC4/CapSense.c **** 	
1572:.\Generated_Source\PSoC4/CapSense.c **** #if(CapSense_CMOD_PREGARGE_OPTION == CapSense__CAPPRIOBUF)
1573:.\Generated_Source\PSoC4/CapSense.c **** 	newRegValue = CapSense_CMOD_CONNECTION_REG;
1574:.\Generated_Source\PSoC4/CapSense.c **** 	newRegValue &= ~(CapSense_CSD_CMOD_CONNECTION_MASK);
1575:.\Generated_Source\PSoC4/CapSense.c **** 	newRegValue |= CapSense_CSD_CMOD_TO_AMUXBUS_B;
1576:.\Generated_Source\PSoC4/CapSense.c **** 	CapSense_CMOD_CONNECTION_REG = newRegValue;
1577:.\Generated_Source\PSoC4/CapSense.c **** 	
1578:.\Generated_Source\PSoC4/CapSense.c **** 	newRegValue = CapSense_CMOD_PORT_PC_REG;
1579:.\Generated_Source\PSoC4/CapSense.c **** 	newRegValue &= ~(CapSense_CSD_CMOD_PC_MASK);
1580:.\Generated_Source\PSoC4/CapSense.c **** 	newRegValue |= CapSense_CMOD_PC_STRONG_MODE;
1581:.\Generated_Source\PSoC4/CapSense.c **** 	CapSense_CMOD_PORT_PC_REG = newRegValue;
1582:.\Generated_Source\PSoC4/CapSense.c **** 		
ARM GAS  C:\Users\kevin\AppData\Local\Temp\ccEmeqeI.s 			page 47


1583:.\Generated_Source\PSoC4/CapSense.c **** 	newRegValue = CapSense_CMOD_PORT_DR_REG;
1584:.\Generated_Source\PSoC4/CapSense.c ****     newRegValue &= ~(CapSense_CMOD_DR_MASK);
1585:.\Generated_Source\PSoC4/CapSense.c **** 	newRegValue |= CapSense_CMOD_DR_CONFIG;
1586:.\Generated_Source\PSoC4/CapSense.c ****     CapSense_CMOD_PORT_DR_REG = newRegValue;    
1587:.\Generated_Source\PSoC4/CapSense.c **** #endif /* (CapSense_CMOD_PREGARGE_OPTION == CapSense__CAPPRIOBUF) */
1588:.\Generated_Source\PSoC4/CapSense.c **** 	
1589:.\Generated_Source\PSoC4/CapSense.c **** 	/* Connect Vref Buffer to AMUX bus  */
1590:.\Generated_Source\PSoC4/CapSense.c **** 	newRegValue = CapSense_CSD_CFG_REG;
1591:.\Generated_Source\PSoC4/CapSense.c **** 	newRegValue &= ~(CapSense_PRECHARGE_CONFIG_MASK);
1592:.\Generated_Source\PSoC4/CapSense.c **** 	newRegValue |= CapSense_CMOD_PRECHARGE_CONFIG;
1593:.\Generated_Source\PSoC4/CapSense.c **** 	CapSense_CSD_CFG_REG = newRegValue;
1594:.\Generated_Source\PSoC4/CapSense.c **** 
1595:.\Generated_Source\PSoC4/CapSense.c **** 	/* Set Idac Value = 0 */
1596:.\Generated_Source\PSoC4/CapSense.c **** #if (CapSense_IDAC_CNT == 1u)   
1597:.\Generated_Source\PSoC4/CapSense.c **** 	CapSense_CSD_IDAC_REG &= ~(CapSense_CSD_IDAC1_DATA_MASK);
1598:.\Generated_Source\PSoC4/CapSense.c **** #else
1599:.\Generated_Source\PSoC4/CapSense.c **** 	CapSense_CSD_IDAC_REG &= ~(CapSense_CSD_IDAC1_DATA_MASK | CapSense_CSD_IDAC2_DATA_MASK);          
1600:.\Generated_Source\PSoC4/CapSense.c **** #endif /* (CapSense_IDAC_CNT == 1u) */
1601:.\Generated_Source\PSoC4/CapSense.c **** 
1602:.\Generated_Source\PSoC4/CapSense.c **** 	CyIntEnable(CapSense_ISR_NUMBER);
1603:.\Generated_Source\PSoC4/CapSense.c **** }
 934              		.loc 1 1603 0
 935              		@ sp needed
1554:.\Generated_Source\PSoC4/CapSense.c ****     CapSense_sensorRaw[sensor]  = (uint16)CapSense_CSD_CNT_REG;
 936              		.loc 1 1554 0
 937 000a 0233     		add	r3, r3, #2
 938 000c D152     		strh	r1, [r2, r3]
1568:.\Generated_Source\PSoC4/CapSense.c ****     CapSense_DisableScanSlot(sensor);
 939              		.loc 1 1568 0
 940 000e FFF7FEFF 		bl	CapSense_DisableSensor
 941              	.LVL106:
1570:.\Generated_Source\PSoC4/CapSense.c **** 	CyIntDisable(CapSense_ISR_NUMBER);
 942              		.loc 1 1570 0
 943 0012 0F20     		mov	r0, #15
 944 0014 FFF7FEFF 		bl	CyIntDisable
 945              	.LVL107:
1590:.\Generated_Source\PSoC4/CapSense.c **** 	newRegValue = CapSense_CSD_CFG_REG;
 946              		.loc 1 1590 0
 947 0018 0A4B     		ldr	r3, .L45+8
1591:.\Generated_Source\PSoC4/CapSense.c **** 	newRegValue &= ~(CapSense_PRECHARGE_CONFIG_MASK);
 948              		.loc 1 1591 0
 949 001a 0B4A     		ldr	r2, .L45+12
1590:.\Generated_Source\PSoC4/CapSense.c **** 	newRegValue = CapSense_CSD_CFG_REG;
 950              		.loc 1 1590 0
 951 001c 1968     		ldr	r1, [r3]
 952              	.LVL108:
1602:.\Generated_Source\PSoC4/CapSense.c **** 	CyIntEnable(CapSense_ISR_NUMBER);
 953              		.loc 1 1602 0
 954 001e 0F20     		mov	r0, #15
1591:.\Generated_Source\PSoC4/CapSense.c **** 	newRegValue &= ~(CapSense_PRECHARGE_CONFIG_MASK);
 955              		.loc 1 1591 0
 956 0020 0A40     		and	r2, r1
 957              	.LVL109:
1592:.\Generated_Source\PSoC4/CapSense.c **** 	newRegValue |= CapSense_CMOD_PRECHARGE_CONFIG;
 958              		.loc 1 1592 0
 959 0022 A021     		mov	r1, #160
 960 0024 0902     		lsl	r1, r1, #8
ARM GAS  C:\Users\kevin\AppData\Local\Temp\ccEmeqeI.s 			page 48


 961 0026 0A43     		orr	r2, r1
 962              	.LVL110:
1593:.\Generated_Source\PSoC4/CapSense.c **** 	CapSense_CSD_CFG_REG = newRegValue;
 963              		.loc 1 1593 0
 964 0028 1A60     		str	r2, [r3]
1599:.\Generated_Source\PSoC4/CapSense.c **** 	CapSense_CSD_IDAC_REG &= ~(CapSense_CSD_IDAC1_DATA_MASK | CapSense_CSD_IDAC2_DATA_MASK);          
 965              		.loc 1 1599 0
 966 002a 084B     		ldr	r3, .L45+16
 967 002c 084A     		ldr	r2, .L45+20
 968              	.LVL111:
 969 002e 1968     		ldr	r1, [r3]
 970 0030 0A40     		and	r2, r1
 971 0032 1A60     		str	r2, [r3]
 972              	.LVL112:
1602:.\Generated_Source\PSoC4/CapSense.c **** 	CyIntEnable(CapSense_ISR_NUMBER);
 973              		.loc 1 1602 0
 974 0034 FFF7FEFF 		bl	CyIntEnable
 975              	.LVL113:
 976              		.loc 1 1603 0
 977 0038 08BD     		pop	{r3, pc}
 978              	.L46:
 979 003a C046     		.align	2
 980              	.L45:
 981 003c 0C000840 		.word	1074266124
 982 0040 00000000 		.word	.LANCHOR0
 983 0044 04000840 		.word	1074266116
 984 0048 FF1FDFFF 		.word	-2154497
 985 004c 08000840 		.word	1074266120
 986 0050 00FF80FF 		.word	-8323328
 987              		.cfi_endproc
 988              	.LFE53:
 989              		.size	CapSense_PostScan, .-CapSense_PostScan
 990              		.section	.text.CapSense_EnableShieldElectrode,"ax",%progbits
 991              		.align	1
 992              		.global	CapSense_EnableShieldElectrode
 993              		.code	16
 994              		.thumb_func
 995              		.type	CapSense_EnableShieldElectrode, %function
 996              	CapSense_EnableShieldElectrode:
 997              	.LFB54:
1604:.\Generated_Source\PSoC4/CapSense.c **** 
1605:.\Generated_Source\PSoC4/CapSense.c **** 
1606:.\Generated_Source\PSoC4/CapSense.c **** /*******************************************************************************
1607:.\Generated_Source\PSoC4/CapSense.c **** * Function Name: CapSense_EnableShieldElectrode
1608:.\Generated_Source\PSoC4/CapSense.c **** ********************************************************************************
1609:.\Generated_Source\PSoC4/CapSense.c **** *
1610:.\Generated_Source\PSoC4/CapSense.c **** * Summary:
1611:.\Generated_Source\PSoC4/CapSense.c **** *  This API enables or disables the shield electrode on a specified port pin.
1612:.\Generated_Source\PSoC4/CapSense.c **** *
1613:.\Generated_Source\PSoC4/CapSense.c **** * Parameters:
1614:.\Generated_Source\PSoC4/CapSense.c **** *  portNumber: contains the shield electrode port number (0, 1, 2).
1615:.\Generated_Source\PSoC4/CapSense.c **** *  pinNumber: contains the shield electrode pin number (0, 1, 2, ... , 7).
1616:.\Generated_Source\PSoC4/CapSense.c **** *
1617:.\Generated_Source\PSoC4/CapSense.c **** * Return:
1618:.\Generated_Source\PSoC4/CapSense.c **** *  None
1619:.\Generated_Source\PSoC4/CapSense.c **** *
1620:.\Generated_Source\PSoC4/CapSense.c **** * Global Variables:
ARM GAS  C:\Users\kevin\AppData\Local\Temp\ccEmeqeI.s 			page 49


1621:.\Generated_Source\PSoC4/CapSense.c **** *  CapSense_prtCfgTbl[] - Contains pointers to the port config registers for each port.
1622:.\Generated_Source\PSoC4/CapSense.c **** *  CapSense_prtSelTbl[] - Contains pointers to the HSIOM registers for each port.
1623:.\Generated_Source\PSoC4/CapSense.c **** *
1624:.\Generated_Source\PSoC4/CapSense.c **** * Side Effects: 
1625:.\Generated_Source\PSoC4/CapSense.c **** *  None
1626:.\Generated_Source\PSoC4/CapSense.c **** *
1627:.\Generated_Source\PSoC4/CapSense.c **** *******************************************************************************/
1628:.\Generated_Source\PSoC4/CapSense.c **** void CapSense_EnableShieldElectrode(uint32 pinNumber, uint32 portNumber)
1629:.\Generated_Source\PSoC4/CapSense.c **** {
 998              		.loc 1 1629 0
 999              		.cfi_startproc
 1000              	.LVL114:
1630:.\Generated_Source\PSoC4/CapSense.c **** 	uint32 newRegValue;
1631:.\Generated_Source\PSoC4/CapSense.c **** 	
1632:.\Generated_Source\PSoC4/CapSense.c **** 	*CapSense_prtCfgTbl[portNumber] &= ~(CapSense_CSD_PIN_MODE_MASK << (pinNumber * CapSense_PC_PIN_CF
 1001              		.loc 1 1632 0
 1002 0000 0B4B     		ldr	r3, .L48
1629:.\Generated_Source\PSoC4/CapSense.c **** {
 1003              		.loc 1 1629 0
 1004 0002 30B5     		push	{r4, r5, lr}
 1005              		.cfi_def_cfa_offset 12
 1006              		.cfi_offset 4, -12
 1007              		.cfi_offset 5, -8
 1008              		.cfi_offset 14, -4
 1009              		.loc 1 1632 0
 1010 0004 8900     		lsl	r1, r1, #2
 1011              	.LVL115:
 1012 0006 0324     		mov	r4, #3
 1013 0008 5918     		add	r1, r3, r1
 1014 000a 4443     		mul	r4, r0
 1015 000c 8B6A     		ldr	r3, [r1, #40]
 1016 000e 0725     		mov	r5, #7
 1017 0010 1A68     		ldr	r2, [r3]
 1018 0012 A540     		lsl	r5, r5, r4
 1019 0014 AA43     		bic	r2, r5
 1020 0016 1A60     		str	r2, [r3]
1633:.\Generated_Source\PSoC4/CapSense.c **** 	newRegValue = *CapSense_prtSelTbl[portNumber];
 1021              		.loc 1 1633 0
 1022 0018 4B69     		ldr	r3, [r1, #20]
1634:.\Generated_Source\PSoC4/CapSense.c ****     newRegValue &= ~(CapSense_CSD_HSIOM_MASK << (pinNumber * CapSense_HSIOM_PIN_CFG_SIZE));
 1023              		.loc 1 1634 0
 1024 001a 8000     		lsl	r0, r0, #2
 1025              	.LVL116:
1633:.\Generated_Source\PSoC4/CapSense.c **** 	newRegValue = *CapSense_prtSelTbl[portNumber];
 1026              		.loc 1 1633 0
 1027 001c 1A68     		ldr	r2, [r3]
 1028              	.LVL117:
 1029              		.loc 1 1634 0
 1030 001e 0F21     		mov	r1, #15
 1031 0020 8140     		lsl	r1, r1, r0
 1032 0022 8A43     		bic	r2, r1
 1033              	.LVL118:
1635:.\Generated_Source\PSoC4/CapSense.c ****     newRegValue |= (CapSense_CSD_SHIELD_PORT_MODE << (pinNumber * CapSense_HSIOM_PIN_CFG_SIZE));
 1034              		.loc 1 1635 0
 1035 0024 0521     		mov	r1, #5
 1036 0026 8140     		lsl	r1, r1, r0
 1037 0028 081C     		mov	r0, r1
ARM GAS  C:\Users\kevin\AppData\Local\Temp\ccEmeqeI.s 			page 50


 1038 002a 1043     		orr	r0, r2
 1039              	.LVL119:
1636:.\Generated_Source\PSoC4/CapSense.c ****     *CapSense_prtSelTbl[portNumber] = newRegValue;
 1040              		.loc 1 1636 0
 1041 002c 1860     		str	r0, [r3]
1637:.\Generated_Source\PSoC4/CapSense.c **** }
 1042              		.loc 1 1637 0
 1043              		@ sp needed
 1044 002e 30BD     		pop	{r4, r5, pc}
 1045              	.L49:
 1046              		.align	2
 1047              	.L48:
 1048 0030 00000000 		.word	.LANCHOR1
 1049              		.cfi_endproc
 1050              	.LFE54:
 1051              		.size	CapSense_EnableShieldElectrode, .-CapSense_EnableShieldElectrode
 1052              		.section	.text.CapSense_SetShieldDelay,"ax",%progbits
 1053              		.align	1
 1054              		.global	CapSense_SetShieldDelay
 1055              		.code	16
 1056              		.thumb_func
 1057              		.type	CapSense_SetShieldDelay, %function
 1058              	CapSense_SetShieldDelay:
 1059              	.LFB55:
1638:.\Generated_Source\PSoC4/CapSense.c **** 
1639:.\Generated_Source\PSoC4/CapSense.c **** 
1640:.\Generated_Source\PSoC4/CapSense.c **** /*******************************************************************************
1641:.\Generated_Source\PSoC4/CapSense.c **** * Function Name: CapSense_SetShieldDelay
1642:.\Generated_Source\PSoC4/CapSense.c **** ********************************************************************************
1643:.\Generated_Source\PSoC4/CapSense.c **** *
1644:.\Generated_Source\PSoC4/CapSense.c **** * Summary:
1645:.\Generated_Source\PSoC4/CapSense.c **** *  This API sets a shield delay.
1646:.\Generated_Source\PSoC4/CapSense.c **** *
1647:.\Generated_Source\PSoC4/CapSense.c **** * Parameters:
1648:.\Generated_Source\PSoC4/CapSense.c **** *  delay:  shield delay value:
1649:.\Generated_Source\PSoC4/CapSense.c **** *                               0 - no delay
1650:.\Generated_Source\PSoC4/CapSense.c **** *                               1 - 1 cycle delay
1651:.\Generated_Source\PSoC4/CapSense.c **** *                               2 - 2 cycles delay
1652:.\Generated_Source\PSoC4/CapSense.c **** *
1653:.\Generated_Source\PSoC4/CapSense.c **** * Return:
1654:.\Generated_Source\PSoC4/CapSense.c **** *  None
1655:.\Generated_Source\PSoC4/CapSense.c **** *
1656:.\Generated_Source\PSoC4/CapSense.c **** * Global Variables:
1657:.\Generated_Source\PSoC4/CapSense.c **** *  None
1658:.\Generated_Source\PSoC4/CapSense.c **** *
1659:.\Generated_Source\PSoC4/CapSense.c **** * Side Effects: 
1660:.\Generated_Source\PSoC4/CapSense.c **** *  None
1661:.\Generated_Source\PSoC4/CapSense.c **** *
1662:.\Generated_Source\PSoC4/CapSense.c **** *******************************************************************************/
1663:.\Generated_Source\PSoC4/CapSense.c **** void CapSense_SetShieldDelay(uint32 delay)
1664:.\Generated_Source\PSoC4/CapSense.c **** {
 1060              		.loc 1 1664 0
 1061              		.cfi_startproc
 1062              	.LVL120:
1665:.\Generated_Source\PSoC4/CapSense.c ****     uint32 newRegValue;
1666:.\Generated_Source\PSoC4/CapSense.c ****     
1667:.\Generated_Source\PSoC4/CapSense.c ****     delay &= 0x03u;
ARM GAS  C:\Users\kevin\AppData\Local\Temp\ccEmeqeI.s 			page 51


1668:.\Generated_Source\PSoC4/CapSense.c ****     
1669:.\Generated_Source\PSoC4/CapSense.c ****     newRegValue = CapSense_CSD_CFG_REG;
 1063              		.loc 1 1669 0
 1064 0000 034B     		ldr	r3, .L51
1667:.\Generated_Source\PSoC4/CapSense.c ****     delay &= 0x03u;
 1065              		.loc 1 1667 0
 1066 0002 0321     		mov	r1, #3
 1067              		.loc 1 1669 0
 1068 0004 1A68     		ldr	r2, [r3]
 1069              	.LVL121:
1667:.\Generated_Source\PSoC4/CapSense.c ****     delay &= 0x03u;
 1070              		.loc 1 1667 0
 1071 0006 0840     		and	r0, r1
 1072              	.LVL122:
1670:.\Generated_Source\PSoC4/CapSense.c ****     newRegValue &= (uint32)(~(uint32)CapSense_SHIELD_DELAY);    
1671:.\Generated_Source\PSoC4/CapSense.c ****     newRegValue |= (delay << CapSense_CSD_CFG_SHIELD_DELAY_POS);    
 1073              		.loc 1 1671 0
 1074 0008 4002     		lsl	r0, r0, #9
 1075              	.LVL123:
 1076 000a 1043     		orr	r0, r2
 1077              	.LVL124:
1672:.\Generated_Source\PSoC4/CapSense.c ****     CapSense_CSD_CFG_REG = newRegValue;
 1078              		.loc 1 1672 0
 1079 000c 1860     		str	r0, [r3]
1673:.\Generated_Source\PSoC4/CapSense.c **** }
 1080              		.loc 1 1673 0
 1081              		@ sp needed
 1082 000e 7047     		bx	lr
 1083              	.L52:
 1084              		.align	2
 1085              	.L51:
 1086 0010 04000840 		.word	1074266116
 1087              		.cfi_endproc
 1088              	.LFE55:
 1089              		.size	CapSense_SetShieldDelay, .-CapSense_SetShieldDelay
 1090              		.section	.text.CapSense_Init,"ax",%progbits
 1091              		.align	1
 1092              		.global	CapSense_Init
 1093              		.code	16
 1094              		.thumb_func
 1095              		.type	CapSense_Init, %function
 1096              	CapSense_Init:
 1097              	.LFB33:
 182:.\Generated_Source\PSoC4/CapSense.c **** {   
 1098              		.loc 1 182 0
 1099              		.cfi_startproc
 1100              	.LVL125:
 1101 0000 10B5     		push	{r4, lr}
 1102              		.cfi_def_cfa_offset 8
 1103              		.cfi_offset 4, -8
 1104              		.cfi_offset 14, -4
 215:.\Generated_Source\PSoC4/CapSense.c **** 		CapSense_unscannedSnsDriveMode[curSensor] = CapSense_CONNECT_INACTIVE_SNS;
 1105              		.loc 1 215 0
 1106 0002 064B     		ldr	r3, .L54
 1107 0004 0024     		mov	r4, #0
 1108 0006 1C70     		strb	r4, [r3]
 1109              	.LVL126:
ARM GAS  C:\Users\kevin\AppData\Local\Temp\ccEmeqeI.s 			page 52


 1110 0008 5C70     		strb	r4, [r3, #1]
 1111              	.LVL127:
 1112 000a 9C70     		strb	r4, [r3, #2]
 1113              	.LVL128:
 218:.\Generated_Source\PSoC4/CapSense.c **** 	CapSense_CsdHwBlockInit();
 1114              		.loc 1 218 0
 1115 000c FFF7FEFF 		bl	CapSense_CsdHwBlockInit
 1116              	.LVL129:
 219:.\Generated_Source\PSoC4/CapSense.c ****     CapSense_SetShieldDelay(CapSense_SHIELD_DELAY );
 1117              		.loc 1 219 0
 1118 0010 201C     		mov	r0, r4
 1119 0012 FFF7FEFF 		bl	CapSense_SetShieldDelay
 1120              	.LVL130:
 223:.\Generated_Source\PSoC4/CapSense.c **** }
 1121              		.loc 1 223 0
 1122              		@ sp needed
 222:.\Generated_Source\PSoC4/CapSense.c ****     CapSense_ClearSensors();
 1123              		.loc 1 222 0
 1124 0016 FFF7FEFF 		bl	CapSense_ClearSensors
 1125              	.LVL131:
 223:.\Generated_Source\PSoC4/CapSense.c **** }
 1126              		.loc 1 223 0
 1127 001a 10BD     		pop	{r4, pc}
 1128              	.L55:
 1129              		.align	2
 1130              	.L54:
 1131 001c 00000000 		.word	CapSense_unscannedSnsDriveMode
 1132              		.cfi_endproc
 1133              	.LFE33:
 1134              		.size	CapSense_Init, .-CapSense_Init
 1135              		.section	.text.CapSense_ReadCurrentScanningSensor,"ax",%progbits
 1136              		.align	1
 1137              		.global	CapSense_ReadCurrentScanningSensor
 1138              		.code	16
 1139              		.thumb_func
 1140              		.type	CapSense_ReadCurrentScanningSensor, %function
 1141              	CapSense_ReadCurrentScanningSensor:
 1142              	.LFB56:
1674:.\Generated_Source\PSoC4/CapSense.c **** 
1675:.\Generated_Source\PSoC4/CapSense.c **** 
1676:.\Generated_Source\PSoC4/CapSense.c **** /*******************************************************************************
1677:.\Generated_Source\PSoC4/CapSense.c **** * Function Name: CapSense_ReadCurrentScanningSensor
1678:.\Generated_Source\PSoC4/CapSense.c **** ********************************************************************************
1679:.\Generated_Source\PSoC4/CapSense.c **** *
1680:.\Generated_Source\PSoC4/CapSense.c **** * Summary:
1681:.\Generated_Source\PSoC4/CapSense.c **** *  This API returns scanning sensor number when sensor scan is in progress. 
1682:.\Generated_Source\PSoC4/CapSense.c **** *  When sensor scan is completed the API returns 
1683:.\Generated_Source\PSoC4/CapSense.c **** *  $INSTANCE_NAME`_NOT_SENSOR (0xFFFFFFFF) (when no sensor is scanned).
1684:.\Generated_Source\PSoC4/CapSense.c **** *
1685:.\Generated_Source\PSoC4/CapSense.c **** * Parameters:
1686:.\Generated_Source\PSoC4/CapSense.c **** *	None.
1687:.\Generated_Source\PSoC4/CapSense.c **** *
1688:.\Generated_Source\PSoC4/CapSense.c **** * Return:
1689:.\Generated_Source\PSoC4/CapSense.c **** *  Returns Sensor number if sensor is being scanned and 
1690:.\Generated_Source\PSoC4/CapSense.c **** *  $INSTANCE_NAME`_NOT_SENSOR (0xFFFFFFFF) if scanning is complete.
1691:.\Generated_Source\PSoC4/CapSense.c **** *
1692:.\Generated_Source\PSoC4/CapSense.c **** * Global Variables:
ARM GAS  C:\Users\kevin\AppData\Local\Temp\ccEmeqeI.s 			page 53


1693:.\Generated_Source\PSoC4/CapSense.c **** *  CapSense_sensorIndex - the sensor number is being scanned.
1694:.\Generated_Source\PSoC4/CapSense.c **** *
1695:.\Generated_Source\PSoC4/CapSense.c **** * Side Effects: 
1696:.\Generated_Source\PSoC4/CapSense.c **** *  None
1697:.\Generated_Source\PSoC4/CapSense.c **** *
1698:.\Generated_Source\PSoC4/CapSense.c **** *******************************************************************************/
1699:.\Generated_Source\PSoC4/CapSense.c **** uint32 CapSense_ReadCurrentScanningSensor(void)
1700:.\Generated_Source\PSoC4/CapSense.c **** {
 1143              		.loc 1 1700 0
 1144              		.cfi_startproc
1701:.\Generated_Source\PSoC4/CapSense.c ****     return ((uint32)(( 0u != (CapSense_csdStatusVar & CapSense_SW_STS_BUSY)) ? 
 1145              		.loc 1 1701 0
 1146 0000 044B     		ldr	r3, .L60
 1147 0002 1A78     		ldrb	r2, [r3]
 1148 0004 D107     		lsl	r1, r2, #31
 1149 0006 02D5     		bpl	.L58
 1150              		.loc 1 1701 0 is_stmt 0 discriminator 1
 1151 0008 187A     		ldrb	r0, [r3, #8]
 1152 000a C0B2     		uxtb	r0, r0
 1153 000c 01E0     		b	.L57
 1154              	.L58:
 1155              		.loc 1 1701 0
 1156 000e 0120     		mov	r0, #1
 1157 0010 4042     		neg	r0, r0
 1158              	.L57:
1702:.\Generated_Source\PSoC4/CapSense.c ****                      CapSense_sensorIndex : CapSense_NOT_SENSOR));
1703:.\Generated_Source\PSoC4/CapSense.c **** }
 1159              		.loc 1 1703 0 is_stmt 1 discriminator 3
 1160              		@ sp needed
 1161 0012 7047     		bx	lr
 1162              	.L61:
 1163              		.align	2
 1164              	.L60:
 1165 0014 00000000 		.word	.LANCHOR0
 1166              		.cfi_endproc
 1167              	.LFE56:
 1168              		.size	CapSense_ReadCurrentScanningSensor, .-CapSense_ReadCurrentScanningSensor
 1169              		.section	.text.CapSense_GetBitValue,"ax",%progbits
 1170              		.align	1
 1171              		.global	CapSense_GetBitValue
 1172              		.code	16
 1173              		.thumb_func
 1174              		.type	CapSense_GetBitValue, %function
 1175              	CapSense_GetBitValue:
 1176              	.LFB57:
1704:.\Generated_Source\PSoC4/CapSense.c **** 
1705:.\Generated_Source\PSoC4/CapSense.c **** 
1706:.\Generated_Source\PSoC4/CapSense.c **** /*******************************************************************************
1707:.\Generated_Source\PSoC4/CapSense.c **** * Function Name: CapSense_GetBitValue
1708:.\Generated_Source\PSoC4/CapSense.c **** ********************************************************************************
1709:.\Generated_Source\PSoC4/CapSense.c **** *
1710:.\Generated_Source\PSoC4/CapSense.c **** * Summary:
1711:.\Generated_Source\PSoC4/CapSense.c **** *  The API returns a bit status of the bit in the table array which contains the masks.
1712:.\Generated_Source\PSoC4/CapSense.c **** * 
1713:.\Generated_Source\PSoC4/CapSense.c **** * Parameters:
1714:.\Generated_Source\PSoC4/CapSense.c **** *  table[] - array with bit masks.
1715:.\Generated_Source\PSoC4/CapSense.c **** *  position - position of bit in the table[] array.
ARM GAS  C:\Users\kevin\AppData\Local\Temp\ccEmeqeI.s 			page 54


1716:.\Generated_Source\PSoC4/CapSense.c **** *
1717:.\Generated_Source\PSoC4/CapSense.c **** * Return:
1718:.\Generated_Source\PSoC4/CapSense.c **** *  0 - bit is not set; 1 - bit is set.
1719:.\Generated_Source\PSoC4/CapSense.c **** *
1720:.\Generated_Source\PSoC4/CapSense.c **** * Global Variables:
1721:.\Generated_Source\PSoC4/CapSense.c **** *  None
1722:.\Generated_Source\PSoC4/CapSense.c **** *
1723:.\Generated_Source\PSoC4/CapSense.c **** * Side Effects:
1724:.\Generated_Source\PSoC4/CapSense.c **** *  None
1725:.\Generated_Source\PSoC4/CapSense.c **** *
1726:.\Generated_Source\PSoC4/CapSense.c **** *******************************************************************************/
1727:.\Generated_Source\PSoC4/CapSense.c **** uint32 CapSense_GetBitValue(const uint8 table[], uint32 position)
1728:.\Generated_Source\PSoC4/CapSense.c **** {
 1177              		.loc 1 1728 0
 1178              		.cfi_startproc
 1179              	.LVL132:
1729:.\Generated_Source\PSoC4/CapSense.c ****     uint32 offset;
1730:.\Generated_Source\PSoC4/CapSense.c **** 	uint8 enMask;
1731:.\Generated_Source\PSoC4/CapSense.c **** 	
1732:.\Generated_Source\PSoC4/CapSense.c **** 	/* position is divided by 8 to calculate the element of the 
1733:.\Generated_Source\PSoC4/CapSense.c **** 	   table[] array that contains the enable bit 
1734:.\Generated_Source\PSoC4/CapSense.c **** 	   for an appropriate sensor.
1735:.\Generated_Source\PSoC4/CapSense.c **** 	*/
1736:.\Generated_Source\PSoC4/CapSense.c **** 	offset = (position >> 3u);
1737:.\Generated_Source\PSoC4/CapSense.c **** 	
1738:.\Generated_Source\PSoC4/CapSense.c **** 	/* The enMask calculation for the appropriate sensor. Operation (position & 0x07u) 
1739:.\Generated_Source\PSoC4/CapSense.c **** 	   intends to calculate the enable bit offset for the 8-bit element of the 
1740:.\Generated_Source\PSoC4/CapSense.c **** 	   table[] array.
1741:.\Generated_Source\PSoC4/CapSense.c **** 	*/
1742:.\Generated_Source\PSoC4/CapSense.c **** 	enMask = 0x01u << (position & 0x07u);
 1180              		.loc 1 1742 0
 1181 0000 0723     		mov	r3, #7
 1182 0002 0B40     		and	r3, r1
1736:.\Generated_Source\PSoC4/CapSense.c **** 	offset = (position >> 3u);
 1183              		.loc 1 1736 0
 1184 0004 C908     		lsr	r1, r1, #3
 1185              	.LVL133:
1743:.\Generated_Source\PSoC4/CapSense.c ****     
1744:.\Generated_Source\PSoC4/CapSense.c ****     return ((0u !=(table[offset] & enMask)) ? 1Lu : 0Lu);
 1186              		.loc 1 1744 0
 1187 0006 405C     		ldrb	r0, [r0, r1]
 1188              	.LVL134:
1742:.\Generated_Source\PSoC4/CapSense.c **** 	enMask = 0x01u << (position & 0x07u);
 1189              		.loc 1 1742 0
 1190 0008 0122     		mov	r2, #1
 1191 000a 9A40     		lsl	r2, r2, r3
 1192              		.loc 1 1744 0
 1193 000c 1040     		and	r0, r2
 1194 000e 431E     		sub	r3, r0, #1
 1195 0010 9841     		sbc	r0, r0, r3
1745:.\Generated_Source\PSoC4/CapSense.c **** }
 1196              		.loc 1 1745 0
 1197              		@ sp needed
 1198 0012 7047     		bx	lr
 1199              		.cfi_endproc
 1200              	.LFE57:
 1201              		.size	CapSense_GetBitValue, .-CapSense_GetBitValue
ARM GAS  C:\Users\kevin\AppData\Local\Temp\ccEmeqeI.s 			page 55


 1202              		.section	.text.CapSense_FindNextSensor,"ax",%progbits
 1203              		.align	1
 1204              		.global	CapSense_FindNextSensor
 1205              		.code	16
 1206              		.thumb_func
 1207              		.type	CapSense_FindNextSensor, %function
 1208              	CapSense_FindNextSensor:
 1209              	.LFB38:
 521:.\Generated_Source\PSoC4/CapSense.c **** {
 1210              		.loc 1 521 0
 1211              		.cfi_startproc
 1212              	.LVL135:
 1213 0000 10B5     		push	{r4, lr}
 1214              		.cfi_def_cfa_offset 8
 1215              		.cfi_offset 4, -8
 1216              		.cfi_offset 14, -4
 1217 0002 041C     		mov	r4, r0
 1218              	.LVL136:
 1219              	.L65:
 528:.\Generated_Source\PSoC4/CapSense.c ****         snsIndex++;
 1220              		.loc 1 528 0
 1221 0004 0134     		add	r4, r4, #1
 1222              	.LVL137:
 1223 0006 E4B2     		uxtb	r4, r4
 1224              	.LVL138:
 529:.\Generated_Source\PSoC4/CapSense.c ****         if(snsIndex == CapSense_TOTAL_SENSOR_COUNT)
 1225              		.loc 1 529 0
 1226 0008 032C     		cmp	r4, #3
 1227 000a 06D0     		beq	.L64
 533:.\Generated_Source\PSoC4/CapSense.c ****         enableFlag = CapSense_GetBitValue(CapSense_sensorEnableMask, (uint32)snsIndex);
 1228              		.loc 1 533 0
 1229 000c 0448     		ldr	r0, .L69
 1230 000e 211C     		mov	r1, r4
 1231 0010 0630     		add	r0, r0, #6
 1232 0012 FFF7FEFF 		bl	CapSense_GetBitValue
 1233              	.LVL139:
 535:.\Generated_Source\PSoC4/CapSense.c ****     while(enableFlag == 0u);
 1234              		.loc 1 535 0
 1235 0016 0028     		cmp	r0, #0
 1236 0018 F4D0     		beq	.L65
 1237              	.LVL140:
 1238              	.L64:
 538:.\Generated_Source\PSoC4/CapSense.c **** }
 1239              		.loc 1 538 0
 1240 001a 201C     		mov	r0, r4
 1241              		@ sp needed
 1242              	.LVL141:
 1243 001c 10BD     		pop	{r4, pc}
 1244              	.L70:
 1245 001e C046     		.align	2
 1246              	.L69:
 1247 0020 00000000 		.word	.LANCHOR2
 1248              		.cfi_endproc
 1249              	.LFE38:
 1250              		.size	CapSense_FindNextSensor, .-CapSense_FindNextSensor
 1251              		.section	.text.CapSense_ScanEnabledWidgets,"ax",%progbits
 1252              		.align	1
ARM GAS  C:\Users\kevin\AppData\Local\Temp\ccEmeqeI.s 			page 56


 1253              		.global	CapSense_ScanEnabledWidgets
 1254              		.code	16
 1255              		.thumb_func
 1256              		.type	CapSense_ScanEnabledWidgets, %function
 1257              	CapSense_ScanEnabledWidgets:
 1258              	.LFB41:
 693:.\Generated_Source\PSoC4/CapSense.c **** {
 1259              		.loc 1 693 0
 1260              		.cfi_startproc
 1261 0000 10B5     		push	{r4, lr}
 1262              		.cfi_def_cfa_offset 8
 1263              		.cfi_offset 4, -8
 1264              		.cfi_offset 14, -4
 695:.\Generated_Source\PSoC4/CapSense.c ****     CapSense_csdStatusVar = 0u;
 1265              		.loc 1 695 0
 1266 0002 0B4C     		ldr	r4, .L73
 1267 0004 0023     		mov	r3, #0
 1268 0006 2370     		strb	r3, [r4]
 696:.\Generated_Source\PSoC4/CapSense.c ****     CapSense_sensorIndex = 0xFFu;
 1269              		.loc 1 696 0
 1270 0008 FF23     		mov	r3, #255
 1271 000a 2372     		strb	r3, [r4, #8]
 699:.\Generated_Source\PSoC4/CapSense.c ****     CapSense_sensorIndex = (uint8)CapSense_FindNextSensor(CapSense_sensorIndex);
 1272              		.loc 1 699 0
 1273 000c 207A     		ldrb	r0, [r4, #8]
 1274 000e C0B2     		uxtb	r0, r0
 1275 0010 FFF7FEFF 		bl	CapSense_FindNextSensor
 1276              	.LVL142:
 1277 0014 2072     		strb	r0, [r4, #8]
 702:.\Generated_Source\PSoC4/CapSense.c ****     if(CapSense_sensorIndex < CapSense_TOTAL_SENSOR_COUNT)
 1278              		.loc 1 702 0
 1279 0016 237A     		ldrb	r3, [r4, #8]
 1280 0018 022B     		cmp	r3, #2
 1281 001a 07D8     		bhi	.L71
 704:.\Generated_Source\PSoC4/CapSense.c ****         CapSense_csdStatusVar |= CapSense_SW_STS_BUSY;
 1282              		.loc 1 704 0
 1283 001c 2378     		ldrb	r3, [r4]
 1284 001e 0122     		mov	r2, #1
 1285 0020 1343     		orr	r3, r2
 1286 0022 2370     		strb	r3, [r4]
 705:.\Generated_Source\PSoC4/CapSense.c ****         CapSense_PreScan((uint32)CapSense_sensorIndex);
 1287              		.loc 1 705 0
 1288 0024 207A     		ldrb	r0, [r4, #8]
 1289 0026 C0B2     		uxtb	r0, r0
 1290 0028 FFF7FEFF 		bl	CapSense_PreScan
 1291              	.LVL143:
 1292              	.L71:
 707:.\Generated_Source\PSoC4/CapSense.c **** }
 1293              		.loc 1 707 0
 1294              		@ sp needed
 1295 002c 10BD     		pop	{r4, pc}
 1296              	.L74:
 1297 002e C046     		.align	2
 1298              	.L73:
 1299 0030 00000000 		.word	.LANCHOR0
 1300              		.cfi_endproc
 1301              	.LFE41:
ARM GAS  C:\Users\kevin\AppData\Local\Temp\ccEmeqeI.s 			page 57


 1302              		.size	CapSense_ScanEnabledWidgets, .-CapSense_ScanEnabledWidgets
 1303              		.section	.text.CapSense_SetBitValue,"ax",%progbits
 1304              		.align	1
 1305              		.global	CapSense_SetBitValue
 1306              		.code	16
 1307              		.thumb_func
 1308              		.type	CapSense_SetBitValue, %function
 1309              	CapSense_SetBitValue:
 1310              	.LFB58:
1746:.\Generated_Source\PSoC4/CapSense.c **** 
1747:.\Generated_Source\PSoC4/CapSense.c **** 
1748:.\Generated_Source\PSoC4/CapSense.c **** /*******************************************************************************
1749:.\Generated_Source\PSoC4/CapSense.c **** * Function Name: CapSense_SetBitValue
1750:.\Generated_Source\PSoC4/CapSense.c **** ********************************************************************************
1751:.\Generated_Source\PSoC4/CapSense.c **** *
1752:.\Generated_Source\PSoC4/CapSense.c **** * Summary:
1753:.\Generated_Source\PSoC4/CapSense.c **** *  The API sets a bit status of the bit in the table array which contains masks.
1754:.\Generated_Source\PSoC4/CapSense.c **** * 
1755:.\Generated_Source\PSoC4/CapSense.c **** * Parameters:
1756:.\Generated_Source\PSoC4/CapSense.c **** *  table[] - array with bit masks.
1757:.\Generated_Source\PSoC4/CapSense.c **** *  position - position of bit in the table[] array.
1758:.\Generated_Source\PSoC4/CapSense.c **** *  value: 0 - bit is not set; 1 - bit is set.
1759:.\Generated_Source\PSoC4/CapSense.c **** *
1760:.\Generated_Source\PSoC4/CapSense.c **** * Return:
1761:.\Generated_Source\PSoC4/CapSense.c **** *  None
1762:.\Generated_Source\PSoC4/CapSense.c **** *
1763:.\Generated_Source\PSoC4/CapSense.c **** * Global Variables:
1764:.\Generated_Source\PSoC4/CapSense.c **** *  None
1765:.\Generated_Source\PSoC4/CapSense.c **** *
1766:.\Generated_Source\PSoC4/CapSense.c **** * Side Effects:
1767:.\Generated_Source\PSoC4/CapSense.c **** *  None
1768:.\Generated_Source\PSoC4/CapSense.c **** *
1769:.\Generated_Source\PSoC4/CapSense.c **** *******************************************************************************/
1770:.\Generated_Source\PSoC4/CapSense.c **** void CapSense_SetBitValue(uint8 table[], uint32 position, uint32 value)
1771:.\Generated_Source\PSoC4/CapSense.c **** {
 1311              		.loc 1 1771 0
 1312              		.cfi_startproc
 1313              	.LVL144:
 1314 0000 10B5     		push	{r4, lr}
 1315              		.cfi_def_cfa_offset 8
 1316              		.cfi_offset 4, -8
 1317              		.cfi_offset 14, -4
1772:.\Generated_Source\PSoC4/CapSense.c ****     uint32 offset;
1773:.\Generated_Source\PSoC4/CapSense.c **** 	uint8 enMask;
1774:.\Generated_Source\PSoC4/CapSense.c **** 	
1775:.\Generated_Source\PSoC4/CapSense.c **** 	/* position is divided by 8 to calculate the element of the 
1776:.\Generated_Source\PSoC4/CapSense.c **** 	   table[] array that contains the enable bit 
1777:.\Generated_Source\PSoC4/CapSense.c **** 	   for an appropriate sensor.
1778:.\Generated_Source\PSoC4/CapSense.c **** 	*/
1779:.\Generated_Source\PSoC4/CapSense.c **** 	offset = (position >> 3u);
1780:.\Generated_Source\PSoC4/CapSense.c **** 	
1781:.\Generated_Source\PSoC4/CapSense.c **** 	/* The enMask calculation for the appropriate sensor. Operation (position & 0x07u) 
1782:.\Generated_Source\PSoC4/CapSense.c **** 	   intends to calculate the enable bit offset for the 8-bit element of the 
1783:.\Generated_Source\PSoC4/CapSense.c **** 	   table[] array.
1784:.\Generated_Source\PSoC4/CapSense.c **** 	*/
1785:.\Generated_Source\PSoC4/CapSense.c **** 	enMask = 0x01u << (position & 0x07u);
 1318              		.loc 1 1785 0
ARM GAS  C:\Users\kevin\AppData\Local\Temp\ccEmeqeI.s 			page 58


 1319 0002 0724     		mov	r4, #7
1779:.\Generated_Source\PSoC4/CapSense.c **** 	offset = (position >> 3u);
 1320              		.loc 1 1779 0
 1321 0004 CB08     		lsr	r3, r1, #3
 1322              	.LVL145:
 1323              		.loc 1 1785 0
 1324 0006 2140     		and	r1, r4
 1325              	.LVL146:
 1326 0008 0124     		mov	r4, #1
 1327 000a 8C40     		lsl	r4, r4, r1
 1328 000c C018     		add	r0, r0, r3
 1329              	.LVL147:
 1330 000e E1B2     		uxtb	r1, r4
 1331              	.LVL148:
1786:.\Generated_Source\PSoC4/CapSense.c **** 	
1787:.\Generated_Source\PSoC4/CapSense.c **** 	if(0u != value)
1788:.\Generated_Source\PSoC4/CapSense.c **** 	{
1789:.\Generated_Source\PSoC4/CapSense.c **** 		table[offset] |= enMask;
 1332              		.loc 1 1789 0
 1333 0010 0378     		ldrb	r3, [r0]
 1334              	.LVL149:
1787:.\Generated_Source\PSoC4/CapSense.c **** 	if(0u != value)
 1335              		.loc 1 1787 0
 1336 0012 002A     		cmp	r2, #0
 1337 0014 02D0     		beq	.L76
 1338              		.loc 1 1789 0
 1339 0016 1943     		orr	r1, r3
 1340 0018 0170     		strb	r1, [r0]
 1341 001a 01E0     		b	.L75
 1342              	.L76:
1790:.\Generated_Source\PSoC4/CapSense.c **** 	}
1791:.\Generated_Source\PSoC4/CapSense.c **** 	else
1792:.\Generated_Source\PSoC4/CapSense.c **** 	{
1793:.\Generated_Source\PSoC4/CapSense.c **** 		table[offset] &= (uint8)~(enMask);
 1343              		.loc 1 1793 0
 1344 001c 8B43     		bic	r3, r1
 1345 001e 0370     		strb	r3, [r0]
 1346              	.L75:
1794:.\Generated_Source\PSoC4/CapSense.c **** 	}
1795:.\Generated_Source\PSoC4/CapSense.c **** }
 1347              		.loc 1 1795 0
 1348              		@ sp needed
 1349              	.LVL150:
 1350 0020 10BD     		pop	{r4, pc}
 1351              		.cfi_endproc
 1352              	.LFE58:
 1353              		.size	CapSense_SetBitValue, .-CapSense_SetBitValue
 1354              		.section	.text.CapSense_ScanWidget,"ax",%progbits
 1355              		.align	1
 1356              		.global	CapSense_ScanWidget
 1357              		.code	16
 1358              		.thumb_func
 1359              		.type	CapSense_ScanWidget, %function
 1360              	CapSense_ScanWidget:
 1361              	.LFB40:
 608:.\Generated_Source\PSoC4/CapSense.c **** {
 1362              		.loc 1 608 0
ARM GAS  C:\Users\kevin\AppData\Local\Temp\ccEmeqeI.s 			page 59


 1363              		.cfi_startproc
 1364              	.LVL151:
 1365 0000 F8B5     		push	{r3, r4, r5, r6, r7, lr}
 1366              		.cfi_def_cfa_offset 24
 1367              		.cfi_offset 3, -24
 1368              		.cfi_offset 4, -20
 1369              		.cfi_offset 5, -16
 1370              		.cfi_offset 6, -12
 1371              		.cfi_offset 7, -8
 1372              		.cfi_offset 14, -4
 614:.\Generated_Source\PSoC4/CapSense.c **** 	CapSense_sensorIndex = CapSense_rawDataIndex[widget];
 1373              		.loc 1 614 0
 1374 0002 144B     		ldr	r3, .L87
 1375 0004 144D     		ldr	r5, .L87+4
 1376 0006 1F5C     		ldrb	r7, [r3, r0]
 617:.\Generated_Source\PSoC4/CapSense.c **** 	sensorsPerWidget = CapSense_numberOfSensors[widget];
 1377              		.loc 1 617 0
 1378 0008 144B     		ldr	r3, .L87+8
 614:.\Generated_Source\PSoC4/CapSense.c **** 	CapSense_sensorIndex = CapSense_rawDataIndex[widget];
 1379              		.loc 1 614 0
 1380 000a 2F72     		strb	r7, [r5, #8]
 617:.\Generated_Source\PSoC4/CapSense.c **** 	sensorsPerWidget = CapSense_numberOfSensors[widget];
 1381              		.loc 1 617 0
 1382 000c 1B5C     		ldrb	r3, [r3, r0]
 1383              	.LVL152:
 620:.\Generated_Source\PSoC4/CapSense.c **** 	if(sensorsPerWidget == 0u)
 1384              		.loc 1 620 0
 1385 000e 002B     		cmp	r3, #0
 1386 0010 00D1     		bne	.L79
 622:.\Generated_Source\PSoC4/CapSense.c **** 		sensorsPerWidget = 1u;
 1387              		.loc 1 622 0
 1388 0012 0123     		mov	r3, #1
 1389              	.LVL153:
 1390              	.L79:
 632:.\Generated_Source\PSoC4/CapSense.c **** 		CapSense_sensorEnableMaskBackup[snsIndex] = CapSense_sensorEnableMask[snsIndex];
 1391              		.loc 1 632 0
 1392 0014 124E     		ldr	r6, .L87+12
 626:.\Generated_Source\PSoC4/CapSense.c **** 	lastSensor = (CapSense_rawDataIndex[widget] + sensorsPerWidget) - 1u;
 1393              		.loc 1 626 0
 1394 0016 013F     		sub	r7, r7, #1
 1395 0018 FF18     		add	r7, r7, r3
 1396              	.LVL154:
 632:.\Generated_Source\PSoC4/CapSense.c **** 		CapSense_sensorEnableMaskBackup[snsIndex] = CapSense_sensorEnableMask[snsIndex];
 1397              		.loc 1 632 0
 1398 001a B279     		ldrb	r2, [r6, #6]
 1399 001c 114B     		ldr	r3, .L87+16
 1400              	.LVL155:
 1401 001e 0024     		mov	r4, #0
 1402 0020 1A70     		strb	r2, [r3]
 1403              	.LVL156:
 1404              	.L83:
 639:.\Generated_Source\PSoC4/CapSense.c **** 	    if((snsIndex >= CapSense_sensorIndex) && (snsIndex <= lastSensor))
 1405              		.loc 1 639 0
 1406 0022 2B7A     		ldrb	r3, [r5, #8]
 642:.\Generated_Source\PSoC4/CapSense.c **** 			CapSense_SetBitValue(CapSense_sensorEnableMask, snsIndex, 1u);
 1407              		.loc 1 642 0
 1408 0024 B01D     		add	r0, r6, #6
ARM GAS  C:\Users\kevin\AppData\Local\Temp\ccEmeqeI.s 			page 60


 1409 0026 211E     		sub	r1, r4, #0
 639:.\Generated_Source\PSoC4/CapSense.c **** 	    if((snsIndex >= CapSense_sensorIndex) && (snsIndex <= lastSensor))
 1410              		.loc 1 639 0
 1411 0028 9942     		cmp	r1, r3
 1412 002a 02D3     		bcc	.L80
 642:.\Generated_Source\PSoC4/CapSense.c **** 			CapSense_SetBitValue(CapSense_sensorEnableMask, snsIndex, 1u);
 1413              		.loc 1 642 0 discriminator 1
 1414 002c 0122     		mov	r2, #1
 639:.\Generated_Source\PSoC4/CapSense.c **** 	    if((snsIndex >= CapSense_sensorIndex) && (snsIndex <= lastSensor))
 1415              		.loc 1 639 0 discriminator 1
 1416 002e BC42     		cmp	r4, r7
 1417 0030 00D9     		bls	.L86
 1418              	.L80:
 647:.\Generated_Source\PSoC4/CapSense.c **** 		    CapSense_SetBitValue(CapSense_sensorEnableMask, snsIndex, 0u);
 1419              		.loc 1 647 0
 1420 0032 0022     		mov	r2, #0
 1421              	.L86:
 636:.\Generated_Source\PSoC4/CapSense.c **** 	for(snsIndex = 0u; snsIndex < CapSense_TOTAL_SENSOR_COUNT; snsIndex++)
 1422              		.loc 1 636 0
 1423 0034 0134     		add	r4, r4, #1
 1424              	.LVL157:
 647:.\Generated_Source\PSoC4/CapSense.c **** 		    CapSense_SetBitValue(CapSense_sensorEnableMask, snsIndex, 0u);
 1425              		.loc 1 647 0
 1426 0036 FFF7FEFF 		bl	CapSense_SetBitValue
 1427              	.LVL158:
 636:.\Generated_Source\PSoC4/CapSense.c **** 	for(snsIndex = 0u; snsIndex < CapSense_TOTAL_SENSOR_COUNT; snsIndex++)
 1428              		.loc 1 636 0
 1429 003a 032C     		cmp	r4, #3
 1430 003c F1D1     		bne	.L83
 652:.\Generated_Source\PSoC4/CapSense.c ****     if(CapSense_sensorIndex < CapSense_TOTAL_SENSOR_COUNT)
 1431              		.loc 1 652 0
 1432 003e 2B7A     		ldrb	r3, [r5, #8]
 1433 0040 022B     		cmp	r3, #2
 1434 0042 05D8     		bhi	.L78
 655:.\Generated_Source\PSoC4/CapSense.c **** 		CapSense_csdStatusVar = (CapSense_SW_STS_BUSY | CapSense_SW_CTRL_WIDGET_SCAN);
 1435              		.loc 1 655 0
 1436 0044 4123     		mov	r3, #65
 1437 0046 2B70     		strb	r3, [r5]
 657:.\Generated_Source\PSoC4/CapSense.c ****         CapSense_PreScan((uint32)CapSense_sensorIndex);
 1438              		.loc 1 657 0
 1439 0048 287A     		ldrb	r0, [r5, #8]
 1440 004a C0B2     		uxtb	r0, r0
 1441 004c FFF7FEFF 		bl	CapSense_PreScan
 1442              	.LVL159:
 1443              	.L78:
 659:.\Generated_Source\PSoC4/CapSense.c **** }
 1444              		.loc 1 659 0
 1445              		@ sp needed
 1446              	.LVL160:
 1447              	.LVL161:
 1448 0050 F8BD     		pop	{r3, r4, r5, r6, r7, pc}
 1449              	.L88:
 1450 0052 C046     		.align	2
 1451              	.L87:
 1452 0054 00000000 		.word	CapSense_rawDataIndex
 1453 0058 00000000 		.word	.LANCHOR0
 1454 005c 00000000 		.word	CapSense_numberOfSensors
ARM GAS  C:\Users\kevin\AppData\Local\Temp\ccEmeqeI.s 			page 61


 1455 0060 00000000 		.word	.LANCHOR2
 1456 0064 00000000 		.word	CapSense_sensorEnableMaskBackup
 1457              		.cfi_endproc
 1458              	.LFE40:
 1459              		.size	CapSense_ScanWidget, .-CapSense_ScanWidget
 1460              		.section	.text.CapSense_GetSenseClkDivider,"ax",%progbits
 1461              		.align	1
 1462              		.global	CapSense_GetSenseClkDivider
 1463              		.code	16
 1464              		.thumb_func
 1465              		.type	CapSense_GetSenseClkDivider, %function
 1466              	CapSense_GetSenseClkDivider:
 1467              	.LFB59:
1796:.\Generated_Source\PSoC4/CapSense.c **** 
1797:.\Generated_Source\PSoC4/CapSense.c **** 
1798:.\Generated_Source\PSoC4/CapSense.c **** 
1799:.\Generated_Source\PSoC4/CapSense.c **** /*******************************************************************************
1800:.\Generated_Source\PSoC4/CapSense.c **** * Function Name: CapSense_GetSenseClkDivider
1801:.\Generated_Source\PSoC4/CapSense.c **** ********************************************************************************
1802:.\Generated_Source\PSoC4/CapSense.c **** *
1803:.\Generated_Source\PSoC4/CapSense.c **** * Summary:
1804:.\Generated_Source\PSoC4/CapSense.c **** *  This API returns a value of the sense clock divider for the  sensor.
1805:.\Generated_Source\PSoC4/CapSense.c **** *
1806:.\Generated_Source\PSoC4/CapSense.c **** * Parameters:
1807:.\Generated_Source\PSoC4/CapSense.c **** *  sensor: sensor index. The index value can be 
1808:.\Generated_Source\PSoC4/CapSense.c **** *  from 0 to (CapSense_TOTAL_SENSOR_COUNT-1).
1809:.\Generated_Source\PSoC4/CapSense.c **** *
1810:.\Generated_Source\PSoC4/CapSense.c **** * Return:
1811:.\Generated_Source\PSoC4/CapSense.c **** *  This API returns the sense clock divider of the sensor. 
1812:.\Generated_Source\PSoC4/CapSense.c **** *
1813:.\Generated_Source\PSoC4/CapSense.c **** * Global Variables:
1814:.\Generated_Source\PSoC4/CapSense.c **** *  CapSense_senseClkDividerVal[] - stores the sense clock divider values.
1815:.\Generated_Source\PSoC4/CapSense.c **** * 
1816:.\Generated_Source\PSoC4/CapSense.c **** * Side Effects:
1817:.\Generated_Source\PSoC4/CapSense.c **** *  None
1818:.\Generated_Source\PSoC4/CapSense.c **** *
1819:.\Generated_Source\PSoC4/CapSense.c **** *******************************************************************************/
1820:.\Generated_Source\PSoC4/CapSense.c **** uint32 CapSense_GetSenseClkDivider(uint32 sensor)
1821:.\Generated_Source\PSoC4/CapSense.c **** {
 1468              		.loc 1 1821 0
 1469              		.cfi_startproc
 1470              	.LVL162:
1822:.\Generated_Source\PSoC4/CapSense.c **** 	#if(0u != CapSense_MULTIPLE_FREQUENCY_SET)
1823:.\Generated_Source\PSoC4/CapSense.c **** 		return((uint32)CapSense_senseClkDividerVal[sensor]);
 1471              		.loc 1 1823 0
 1472 0000 014B     		ldr	r3, .L90
1824:.\Generated_Source\PSoC4/CapSense.c **** 	#else
1825:.\Generated_Source\PSoC4/CapSense.c **** 		return((uint32)CapSense_senseClkDividerVal);
1826:.\Generated_Source\PSoC4/CapSense.c **** 	#endif /* (0u != CapSense_MULTIPLE_FREQUENCY_SET) */
1827:.\Generated_Source\PSoC4/CapSense.c **** }
 1473              		.loc 1 1827 0
 1474              		@ sp needed
1823:.\Generated_Source\PSoC4/CapSense.c **** 		return((uint32)CapSense_senseClkDividerVal[sensor]);
 1475              		.loc 1 1823 0
 1476 0002 5633     		add	r3, r3, #86
 1477 0004 185C     		ldrb	r0, [r3, r0]
 1478              	.LVL163:
ARM GAS  C:\Users\kevin\AppData\Local\Temp\ccEmeqeI.s 			page 62


 1479              		.loc 1 1827 0
 1480 0006 7047     		bx	lr
 1481              	.L91:
 1482              		.align	2
 1483              	.L90:
 1484 0008 00000000 		.word	.LANCHOR1
 1485              		.cfi_endproc
 1486              	.LFE59:
 1487              		.size	CapSense_GetSenseClkDivider, .-CapSense_GetSenseClkDivider
 1488              		.section	.text.CapSense_GetModulatorClkDivider,"ax",%progbits
 1489              		.align	1
 1490              		.global	CapSense_GetModulatorClkDivider
 1491              		.code	16
 1492              		.thumb_func
 1493              		.type	CapSense_GetModulatorClkDivider, %function
 1494              	CapSense_GetModulatorClkDivider:
 1495              	.LFB60:
1828:.\Generated_Source\PSoC4/CapSense.c **** 
1829:.\Generated_Source\PSoC4/CapSense.c **** #if (CapSense_TUNING_METHOD != CapSense__TUNING_NONE)
1830:.\Generated_Source\PSoC4/CapSense.c **** 	/*******************************************************************************
1831:.\Generated_Source\PSoC4/CapSense.c **** 	* Function Name: CapSense_SetSenseClkDivider
1832:.\Generated_Source\PSoC4/CapSense.c **** 	********************************************************************************
1833:.\Generated_Source\PSoC4/CapSense.c **** 	*
1834:.\Generated_Source\PSoC4/CapSense.c **** 	* Summary:
1835:.\Generated_Source\PSoC4/CapSense.c **** 	*  This API sets a value of the sense clock divider for the  sensor. 
1836:.\Generated_Source\PSoC4/CapSense.c **** 	*
1837:.\Generated_Source\PSoC4/CapSense.c **** 	* Parameters:
1838:.\Generated_Source\PSoC4/CapSense.c **** 	*  sensor:  Sensor index.
1839:.\Generated_Source\PSoC4/CapSense.c **** 	*  senseClk: represents the sense clock value.
1840:.\Generated_Source\PSoC4/CapSense.c **** 	*
1841:.\Generated_Source\PSoC4/CapSense.c **** 	* Return:
1842:.\Generated_Source\PSoC4/CapSense.c **** 	*  None.
1843:.\Generated_Source\PSoC4/CapSense.c **** 	*
1844:.\Generated_Source\PSoC4/CapSense.c **** 	* Global Variables:
1845:.\Generated_Source\PSoC4/CapSense.c **** 	*  CapSense_senseClkDividerVal[] - stores the sense clock divider values.
1846:.\Generated_Source\PSoC4/CapSense.c **** 	* 
1847:.\Generated_Source\PSoC4/CapSense.c **** 	* Side Effects:
1848:.\Generated_Source\PSoC4/CapSense.c **** 	*  None
1849:.\Generated_Source\PSoC4/CapSense.c **** 	*
1850:.\Generated_Source\PSoC4/CapSense.c **** 	*******************************************************************************/
1851:.\Generated_Source\PSoC4/CapSense.c **** 	void CapSense_SetSenseClkDivider(uint32 sensor, uint32 senseClk)
1852:.\Generated_Source\PSoC4/CapSense.c **** 	{
1853:.\Generated_Source\PSoC4/CapSense.c **** 		#if(0u != CapSense_MULTIPLE_FREQUENCY_SET)
1854:.\Generated_Source\PSoC4/CapSense.c **** 			CapSense_senseClkDividerVal[sensor] = (uint8)senseClk;
1855:.\Generated_Source\PSoC4/CapSense.c **** 		#else
1856:.\Generated_Source\PSoC4/CapSense.c **** 			CapSense_senseClkDividerVal = (uint8)senseClk;
1857:.\Generated_Source\PSoC4/CapSense.c **** 		#endif /* (0u != CapSense_MULTIPLE_FREQUENCY_SET) */
1858:.\Generated_Source\PSoC4/CapSense.c **** 	}
1859:.\Generated_Source\PSoC4/CapSense.c **** #endif /* (CapSense_TUNING_METHOD != CapSense__TUNING_NONE) */
1860:.\Generated_Source\PSoC4/CapSense.c **** 
1861:.\Generated_Source\PSoC4/CapSense.c **** 
1862:.\Generated_Source\PSoC4/CapSense.c **** /*******************************************************************************
1863:.\Generated_Source\PSoC4/CapSense.c **** * Function Name: CapSense_GetModulatorClkDivider
1864:.\Generated_Source\PSoC4/CapSense.c **** ********************************************************************************
1865:.\Generated_Source\PSoC4/CapSense.c **** *
1866:.\Generated_Source\PSoC4/CapSense.c **** * Summary:
1867:.\Generated_Source\PSoC4/CapSense.c **** *  This API returns a value of the modulator sample clock divider for the  sensor.
ARM GAS  C:\Users\kevin\AppData\Local\Temp\ccEmeqeI.s 			page 63


1868:.\Generated_Source\PSoC4/CapSense.c **** *
1869:.\Generated_Source\PSoC4/CapSense.c **** * Parameters:
1870:.\Generated_Source\PSoC4/CapSense.c **** *  sensor: sensor index. The value of index can be 
1871:.\Generated_Source\PSoC4/CapSense.c **** *  from 0 to (CapSense_TOTAL_SENSOR_COUNT-1).
1872:.\Generated_Source\PSoC4/CapSense.c **** *
1873:.\Generated_Source\PSoC4/CapSense.c **** * Return:
1874:.\Generated_Source\PSoC4/CapSense.c **** *  This API returns the modulator sample clock divider for the  sensor.
1875:.\Generated_Source\PSoC4/CapSense.c **** *
1876:.\Generated_Source\PSoC4/CapSense.c **** * Global Variables:
1877:.\Generated_Source\PSoC4/CapSense.c **** *  CapSense_sampleClkDividerVal[] - stores the modulator sample divider values.
1878:.\Generated_Source\PSoC4/CapSense.c **** * 
1879:.\Generated_Source\PSoC4/CapSense.c **** * Side Effects:
1880:.\Generated_Source\PSoC4/CapSense.c **** *  None
1881:.\Generated_Source\PSoC4/CapSense.c **** *
1882:.\Generated_Source\PSoC4/CapSense.c **** *******************************************************************************/
1883:.\Generated_Source\PSoC4/CapSense.c **** uint32 CapSense_GetModulatorClkDivider(uint32 sensor)
1884:.\Generated_Source\PSoC4/CapSense.c **** {
 1496              		.loc 1 1884 0
 1497              		.cfi_startproc
 1498              	.LVL164:
1885:.\Generated_Source\PSoC4/CapSense.c **** 	#if(0u != CapSense_MULTIPLE_FREQUENCY_SET)
1886:.\Generated_Source\PSoC4/CapSense.c **** 		return((uint32)CapSense_sampleClkDividerVal[sensor]);
 1499              		.loc 1 1886 0
 1500 0000 014B     		ldr	r3, .L93
1887:.\Generated_Source\PSoC4/CapSense.c **** 	#else
1888:.\Generated_Source\PSoC4/CapSense.c **** 		return((uint32)CapSense_sampleClkDividerVal);
1889:.\Generated_Source\PSoC4/CapSense.c **** 	#endif /* (0u != CapSense_MULTIPLE_FREQUENCY_SET) */
1890:.\Generated_Source\PSoC4/CapSense.c **** }
 1501              		.loc 1 1890 0
 1502              		@ sp needed
1886:.\Generated_Source\PSoC4/CapSense.c **** 		return((uint32)CapSense_sampleClkDividerVal[sensor]);
 1503              		.loc 1 1886 0
 1504 0002 5333     		add	r3, r3, #83
 1505 0004 185C     		ldrb	r0, [r3, r0]
 1506              	.LVL165:
 1507              		.loc 1 1890 0
 1508 0006 7047     		bx	lr
 1509              	.L94:
 1510              		.align	2
 1511              	.L93:
 1512 0008 00000000 		.word	.LANCHOR1
 1513              		.cfi_endproc
 1514              	.LFE60:
 1515              		.size	CapSense_GetModulatorClkDivider, .-CapSense_GetModulatorClkDivider
 1516              		.section	.text.CapSense_GetModulationIDAC,"ax",%progbits
 1517              		.align	1
 1518              		.global	CapSense_GetModulationIDAC
 1519              		.code	16
 1520              		.thumb_func
 1521              		.type	CapSense_GetModulationIDAC, %function
 1522              	CapSense_GetModulationIDAC:
 1523              	.LFB61:
1891:.\Generated_Source\PSoC4/CapSense.c **** 
1892:.\Generated_Source\PSoC4/CapSense.c **** #if (CapSense_TUNING_METHOD != CapSense__TUNING_NONE)
1893:.\Generated_Source\PSoC4/CapSense.c **** 	/*******************************************************************************
1894:.\Generated_Source\PSoC4/CapSense.c **** 	* Function Name: CapSense_SetModulatorClkDivider
1895:.\Generated_Source\PSoC4/CapSense.c **** 	********************************************************************************
ARM GAS  C:\Users\kevin\AppData\Local\Temp\ccEmeqeI.s 			page 64


1896:.\Generated_Source\PSoC4/CapSense.c **** 	*
1897:.\Generated_Source\PSoC4/CapSense.c **** 	* Summary:
1898:.\Generated_Source\PSoC4/CapSense.c **** 	*  This API sets a value of the modulator sample clock divider for the  sensor.
1899:.\Generated_Source\PSoC4/CapSense.c **** 	*
1900:.\Generated_Source\PSoC4/CapSense.c **** 	* Parameters:
1901:.\Generated_Source\PSoC4/CapSense.c **** 	*  sensor:  Sensor index.
1902:.\Generated_Source\PSoC4/CapSense.c **** 	*  modulatorClk: represents the modulator sample clock value.
1903:.\Generated_Source\PSoC4/CapSense.c **** 	*
1904:.\Generated_Source\PSoC4/CapSense.c **** 	* Return:
1905:.\Generated_Source\PSoC4/CapSense.c **** 	*  None.
1906:.\Generated_Source\PSoC4/CapSense.c **** 	*
1907:.\Generated_Source\PSoC4/CapSense.c **** 	* Global Variables:
1908:.\Generated_Source\PSoC4/CapSense.c **** 	*  CapSense_sampleClkDividerVal[] - stores the modulator sample divider values.
1909:.\Generated_Source\PSoC4/CapSense.c **** 	* 
1910:.\Generated_Source\PSoC4/CapSense.c **** 	* Side Effects:
1911:.\Generated_Source\PSoC4/CapSense.c **** 	*  None
1912:.\Generated_Source\PSoC4/CapSense.c **** 	*
1913:.\Generated_Source\PSoC4/CapSense.c **** 	*******************************************************************************/
1914:.\Generated_Source\PSoC4/CapSense.c **** 	void CapSense_SetModulatorClkDivider(uint32 sensor, uint32 modulatorClk)
1915:.\Generated_Source\PSoC4/CapSense.c **** 	{
1916:.\Generated_Source\PSoC4/CapSense.c **** 		#if(0u != CapSense_MULTIPLE_FREQUENCY_SET)
1917:.\Generated_Source\PSoC4/CapSense.c **** 			CapSense_sampleClkDividerVal[sensor] = (uint8)modulatorClk;
1918:.\Generated_Source\PSoC4/CapSense.c **** 		#else
1919:.\Generated_Source\PSoC4/CapSense.c **** 			CapSense_sampleClkDividerVal = (uint8)modulatorClk;
1920:.\Generated_Source\PSoC4/CapSense.c **** 		#endif /* (0u != CapSense_MULTIPLE_FREQUENCY_SET) */
1921:.\Generated_Source\PSoC4/CapSense.c **** 	}
1922:.\Generated_Source\PSoC4/CapSense.c **** #endif /* (CapSense_TUNING_METHOD != CapSense__TUNING_NONE) */
1923:.\Generated_Source\PSoC4/CapSense.c **** 
1924:.\Generated_Source\PSoC4/CapSense.c **** /*******************************************************************************
1925:.\Generated_Source\PSoC4/CapSense.c **** * Function Name: CapSense_GetModulationIDAC
1926:.\Generated_Source\PSoC4/CapSense.c **** ********************************************************************************
1927:.\Generated_Source\PSoC4/CapSense.c **** *
1928:.\Generated_Source\PSoC4/CapSense.c **** * Summary:
1929:.\Generated_Source\PSoC4/CapSense.c **** *  This API returns a value of the modulation IDAC for the  sensor.
1930:.\Generated_Source\PSoC4/CapSense.c **** *
1931:.\Generated_Source\PSoC4/CapSense.c **** * Parameters:
1932:.\Generated_Source\PSoC4/CapSense.c **** *  sensor: sensor index. The index value can be 
1933:.\Generated_Source\PSoC4/CapSense.c **** *  from 0 to (CapSense_TOTAL_SENSOR_COUNT-1).
1934:.\Generated_Source\PSoC4/CapSense.c **** *
1935:.\Generated_Source\PSoC4/CapSense.c **** * Return:
1936:.\Generated_Source\PSoC4/CapSense.c **** *  This API returns the modulation IDAC of the sensor. 
1937:.\Generated_Source\PSoC4/CapSense.c **** *
1938:.\Generated_Source\PSoC4/CapSense.c **** * Global Variables:
1939:.\Generated_Source\PSoC4/CapSense.c **** *  CapSense_modulationIDAC[] - stores modulation IDAC values.
1940:.\Generated_Source\PSoC4/CapSense.c **** * 
1941:.\Generated_Source\PSoC4/CapSense.c **** * Side Effects:
1942:.\Generated_Source\PSoC4/CapSense.c **** *  None
1943:.\Generated_Source\PSoC4/CapSense.c **** *
1944:.\Generated_Source\PSoC4/CapSense.c **** *******************************************************************************/
1945:.\Generated_Source\PSoC4/CapSense.c **** uint32 CapSense_GetModulationIDAC(uint32 sensor)
1946:.\Generated_Source\PSoC4/CapSense.c **** {
 1524              		.loc 1 1946 0
 1525              		.cfi_startproc
 1526              	.LVL166:
1947:.\Generated_Source\PSoC4/CapSense.c **** 		return((uint32)CapSense_modulationIDAC[sensor]);
 1527              		.loc 1 1947 0
 1528 0000 014B     		ldr	r3, .L96
ARM GAS  C:\Users\kevin\AppData\Local\Temp\ccEmeqeI.s 			page 65


1948:.\Generated_Source\PSoC4/CapSense.c **** }
 1529              		.loc 1 1948 0
 1530              		@ sp needed
1947:.\Generated_Source\PSoC4/CapSense.c **** 		return((uint32)CapSense_modulationIDAC[sensor]);
 1531              		.loc 1 1947 0
 1532 0002 185C     		ldrb	r0, [r3, r0]
 1533              	.LVL167:
 1534              		.loc 1 1948 0
 1535 0004 7047     		bx	lr
 1536              	.L97:
 1537 0006 C046     		.align	2
 1538              	.L96:
 1539 0008 00000000 		.word	.LANCHOR2
 1540              		.cfi_endproc
 1541              	.LFE61:
 1542              		.size	CapSense_GetModulationIDAC, .-CapSense_GetModulationIDAC
 1543              		.section	.text.CapSense_GetCompensationIDAC,"ax",%progbits
 1544              		.align	1
 1545              		.global	CapSense_GetCompensationIDAC
 1546              		.code	16
 1547              		.thumb_func
 1548              		.type	CapSense_GetCompensationIDAC, %function
 1549              	CapSense_GetCompensationIDAC:
 1550              	.LFB62:
1949:.\Generated_Source\PSoC4/CapSense.c **** 
1950:.\Generated_Source\PSoC4/CapSense.c **** #if (CapSense_TUNING_METHOD != CapSense__TUNING_NONE)
1951:.\Generated_Source\PSoC4/CapSense.c **** 	/*******************************************************************************
1952:.\Generated_Source\PSoC4/CapSense.c **** 	* Function Name: CapSense_SetModulationIDAC
1953:.\Generated_Source\PSoC4/CapSense.c **** 	********************************************************************************
1954:.\Generated_Source\PSoC4/CapSense.c **** 	*
1955:.\Generated_Source\PSoC4/CapSense.c **** 	* Summary:
1956:.\Generated_Source\PSoC4/CapSense.c **** 	*  This API sets a value of the modulation IDAC for the  sensor.
1957:.\Generated_Source\PSoC4/CapSense.c **** 	*
1958:.\Generated_Source\PSoC4/CapSense.c **** 	* Parameters:
1959:.\Generated_Source\PSoC4/CapSense.c **** 	*  sensor:  Sensor index.
1960:.\Generated_Source\PSoC4/CapSense.c **** 	*  compIdacValue: represents the modulation IDAC data register value.
1961:.\Generated_Source\PSoC4/CapSense.c **** 	*
1962:.\Generated_Source\PSoC4/CapSense.c **** 	* Return:
1963:.\Generated_Source\PSoC4/CapSense.c **** 	*  None.
1964:.\Generated_Source\PSoC4/CapSense.c **** 	*
1965:.\Generated_Source\PSoC4/CapSense.c **** 	* Global Variables:
1966:.\Generated_Source\PSoC4/CapSense.c **** 	*  CapSense_modulationIDAC[] - array with modulation IDAC values
1967:.\Generated_Source\PSoC4/CapSense.c **** 	* 
1968:.\Generated_Source\PSoC4/CapSense.c **** 	* Side Effects:
1969:.\Generated_Source\PSoC4/CapSense.c **** 	*  None
1970:.\Generated_Source\PSoC4/CapSense.c **** 	*
1971:.\Generated_Source\PSoC4/CapSense.c **** 	*******************************************************************************/
1972:.\Generated_Source\PSoC4/CapSense.c **** 	void CapSense_SetModulationIDAC(uint32 sensor, uint32 modIdacValue)
1973:.\Generated_Source\PSoC4/CapSense.c **** 	{
1974:.\Generated_Source\PSoC4/CapSense.c **** 		CapSense_modulationIDAC[sensor] = (uint8)modIdacValue;
1975:.\Generated_Source\PSoC4/CapSense.c **** 	}
1976:.\Generated_Source\PSoC4/CapSense.c **** #endif /* (CapSense_TUNING_METHOD != CapSense__TUNING_NONE) */
1977:.\Generated_Source\PSoC4/CapSense.c **** 
1978:.\Generated_Source\PSoC4/CapSense.c **** 
1979:.\Generated_Source\PSoC4/CapSense.c **** #if(CapSense_IDAC_CNT > 1u)
1980:.\Generated_Source\PSoC4/CapSense.c **** 	/*******************************************************************************
1981:.\Generated_Source\PSoC4/CapSense.c **** 	* Function Name: CapSense_GetCompensationIDAC
ARM GAS  C:\Users\kevin\AppData\Local\Temp\ccEmeqeI.s 			page 66


1982:.\Generated_Source\PSoC4/CapSense.c **** 	********************************************************************************
1983:.\Generated_Source\PSoC4/CapSense.c **** 	*
1984:.\Generated_Source\PSoC4/CapSense.c **** 	* Summary:
1985:.\Generated_Source\PSoC4/CapSense.c **** 	*  This API returns a value of the compensation IDAC for the  sensor.
1986:.\Generated_Source\PSoC4/CapSense.c **** 	*
1987:.\Generated_Source\PSoC4/CapSense.c **** 	* Parameters:
1988:.\Generated_Source\PSoC4/CapSense.c **** 	*  sensor: sensor index. The index value can be 
1989:.\Generated_Source\PSoC4/CapSense.c **** 	*  from 0 to (CapSense_TOTAL_SENSOR_COUNT-1).
1990:.\Generated_Source\PSoC4/CapSense.c **** 	*
1991:.\Generated_Source\PSoC4/CapSense.c **** 	* Return:
1992:.\Generated_Source\PSoC4/CapSense.c **** 	*  This API returns the compensation IDAC of the sensor. 
1993:.\Generated_Source\PSoC4/CapSense.c **** 	*
1994:.\Generated_Source\PSoC4/CapSense.c **** 	* Global Variables:
1995:.\Generated_Source\PSoC4/CapSense.c **** 	*  CapSense_compensationIDAC[] - stores the compensation IDAC values.
1996:.\Generated_Source\PSoC4/CapSense.c **** 	* 
1997:.\Generated_Source\PSoC4/CapSense.c **** 	* Side Effects:
1998:.\Generated_Source\PSoC4/CapSense.c **** 	*  None
1999:.\Generated_Source\PSoC4/CapSense.c **** 	*
2000:.\Generated_Source\PSoC4/CapSense.c **** 	*******************************************************************************/
2001:.\Generated_Source\PSoC4/CapSense.c **** 	uint32 CapSense_GetCompensationIDAC(uint32 sensor)
2002:.\Generated_Source\PSoC4/CapSense.c **** 	{
 1551              		.loc 1 2002 0
 1552              		.cfi_startproc
 1553              	.LVL168:
2003:.\Generated_Source\PSoC4/CapSense.c **** 		return((uint32)CapSense_compensationIDAC[sensor]);
 1554              		.loc 1 2003 0
 1555 0000 014B     		ldr	r3, .L99
2004:.\Generated_Source\PSoC4/CapSense.c **** 	}
 1556              		.loc 1 2004 0
 1557              		@ sp needed
2003:.\Generated_Source\PSoC4/CapSense.c **** 		return((uint32)CapSense_compensationIDAC[sensor]);
 1558              		.loc 1 2003 0
 1559 0002 0333     		add	r3, r3, #3
 1560 0004 185C     		ldrb	r0, [r3, r0]
 1561              	.LVL169:
 1562              		.loc 1 2004 0
 1563 0006 7047     		bx	lr
 1564              	.L100:
 1565              		.align	2
 1566              	.L99:
 1567 0008 00000000 		.word	.LANCHOR2
 1568              		.cfi_endproc
 1569              	.LFE62:
 1570              		.size	CapSense_GetCompensationIDAC, .-CapSense_GetCompensationIDAC
 1571              		.section	.text.CapSense_GetIDACRange,"ax",%progbits
 1572              		.align	1
 1573              		.global	CapSense_GetIDACRange
 1574              		.code	16
 1575              		.thumb_func
 1576              		.type	CapSense_GetIDACRange, %function
 1577              	CapSense_GetIDACRange:
 1578              	.LFB63:
2005:.\Generated_Source\PSoC4/CapSense.c **** #endif /* (CapSense_IDAC_CNT > 1u) */
2006:.\Generated_Source\PSoC4/CapSense.c **** 
2007:.\Generated_Source\PSoC4/CapSense.c **** 
2008:.\Generated_Source\PSoC4/CapSense.c **** #if((CapSense_TUNING_METHOD != CapSense__TUNING_NONE) && (CapSense_IDAC_CNT > 1u))
2009:.\Generated_Source\PSoC4/CapSense.c **** 	/*******************************************************************************
ARM GAS  C:\Users\kevin\AppData\Local\Temp\ccEmeqeI.s 			page 67


2010:.\Generated_Source\PSoC4/CapSense.c **** 	* Function Name: CapSense_SetCompensationIDAC
2011:.\Generated_Source\PSoC4/CapSense.c **** 	********************************************************************************
2012:.\Generated_Source\PSoC4/CapSense.c **** 	*
2013:.\Generated_Source\PSoC4/CapSense.c **** 	* Summary:
2014:.\Generated_Source\PSoC4/CapSense.c **** 	*  This API sets a value of compensation IDAC for the  sensor.
2015:.\Generated_Source\PSoC4/CapSense.c **** 	*
2016:.\Generated_Source\PSoC4/CapSense.c **** 	* Parameters:
2017:.\Generated_Source\PSoC4/CapSense.c **** 	*  sensor:  Sensor index.
2018:.\Generated_Source\PSoC4/CapSense.c **** 	*  compIdacValue: represents the compensation IDAC data register value.
2019:.\Generated_Source\PSoC4/CapSense.c **** 	*
2020:.\Generated_Source\PSoC4/CapSense.c **** 	* Return:
2021:.\Generated_Source\PSoC4/CapSense.c **** 	*  None.
2022:.\Generated_Source\PSoC4/CapSense.c **** 	*
2023:.\Generated_Source\PSoC4/CapSense.c **** 	* Global Variables:
2024:.\Generated_Source\PSoC4/CapSense.c **** 	*  CapSense_compensationIDAC[] - an array with compensation IDAC values
2025:.\Generated_Source\PSoC4/CapSense.c **** 	* 
2026:.\Generated_Source\PSoC4/CapSense.c **** 	* Side Effects:
2027:.\Generated_Source\PSoC4/CapSense.c **** 	*  None
2028:.\Generated_Source\PSoC4/CapSense.c **** 	*
2029:.\Generated_Source\PSoC4/CapSense.c **** 	*******************************************************************************/
2030:.\Generated_Source\PSoC4/CapSense.c **** 	void CapSense_SetCompensationIDAC(uint32 sensor, uint32 compIdacValue)
2031:.\Generated_Source\PSoC4/CapSense.c **** 	{
2032:.\Generated_Source\PSoC4/CapSense.c **** 		CapSense_compensationIDAC[sensor] = (uint8)compIdacValue;
2033:.\Generated_Source\PSoC4/CapSense.c **** 	}
2034:.\Generated_Source\PSoC4/CapSense.c **** #endif /* ((CapSense_TUNING_METHOD != CapSense__TUNING_NONE) && (CapSense_IDAC_CNT > 1u)) */
2035:.\Generated_Source\PSoC4/CapSense.c **** 
2036:.\Generated_Source\PSoC4/CapSense.c **** /*******************************************************************************
2037:.\Generated_Source\PSoC4/CapSense.c **** * Function Name: CapSense_GetIDACRange
2038:.\Generated_Source\PSoC4/CapSense.c **** ********************************************************************************
2039:.\Generated_Source\PSoC4/CapSense.c **** *
2040:.\Generated_Source\PSoC4/CapSense.c **** * Summary:
2041:.\Generated_Source\PSoC4/CapSense.c **** *  This API returns a value that indicates the IDAC range used by the 
2042:.\Generated_Source\PSoC4/CapSense.c **** *  component to scan sensors. The IDAC range is common for all the sensors.
2043:.\Generated_Source\PSoC4/CapSense.c **** *
2044:.\Generated_Source\PSoC4/CapSense.c **** * Parameters:
2045:.\Generated_Source\PSoC4/CapSense.c **** *  None
2046:.\Generated_Source\PSoC4/CapSense.c **** *
2047:.\Generated_Source\PSoC4/CapSense.c **** * Return:
2048:.\Generated_Source\PSoC4/CapSense.c **** *  This API Returns a value that indicates the IDAC range:
2049:.\Generated_Source\PSoC4/CapSense.c **** *      0 - IDAC range set to 4x
2050:.\Generated_Source\PSoC4/CapSense.c **** *      1 - IDAC range set to 8x
2051:.\Generated_Source\PSoC4/CapSense.c **** *
2052:.\Generated_Source\PSoC4/CapSense.c **** * Global Variables:
2053:.\Generated_Source\PSoC4/CapSense.c **** *  None
2054:.\Generated_Source\PSoC4/CapSense.c **** * 
2055:.\Generated_Source\PSoC4/CapSense.c **** * Side Effects:
2056:.\Generated_Source\PSoC4/CapSense.c **** *  None
2057:.\Generated_Source\PSoC4/CapSense.c **** *
2058:.\Generated_Source\PSoC4/CapSense.c **** *******************************************************************************/
2059:.\Generated_Source\PSoC4/CapSense.c **** uint32 CapSense_GetIDACRange(void)
2060:.\Generated_Source\PSoC4/CapSense.c **** {
 1579              		.loc 1 2060 0
 1580              		.cfi_startproc
2061:.\Generated_Source\PSoC4/CapSense.c **** 	return((0u != (CapSense_CSD_IDAC_REG & CapSense_CSD_IDAC1_RANGE_8X)) ? 1uL : 0uL);
 1581              		.loc 1 2061 0
 1582 0000 024B     		ldr	r3, .L102
2062:.\Generated_Source\PSoC4/CapSense.c **** }
ARM GAS  C:\Users\kevin\AppData\Local\Temp\ccEmeqeI.s 			page 68


 1583              		.loc 1 2062 0
 1584              		@ sp needed
2061:.\Generated_Source\PSoC4/CapSense.c **** 	return((0u != (CapSense_CSD_IDAC_REG & CapSense_CSD_IDAC1_RANGE_8X)) ? 1uL : 0uL);
 1585              		.loc 1 2061 0
 1586 0002 1868     		ldr	r0, [r3]
 1587 0004 4005     		lsl	r0, r0, #21
 1588 0006 C00F     		lsr	r0, r0, #31
 1589              		.loc 1 2062 0
 1590 0008 7047     		bx	lr
 1591              	.L103:
 1592 000a C046     		.align	2
 1593              	.L102:
 1594 000c 08000840 		.word	1074266120
 1595              		.cfi_endproc
 1596              	.LFE63:
 1597              		.size	CapSense_GetIDACRange, .-CapSense_GetIDACRange
 1598              		.section	.text.CapSense_GetSensorRaw,"ax",%progbits
 1599              		.align	1
 1600              		.global	CapSense_GetSensorRaw
 1601              		.code	16
 1602              		.thumb_func
 1603              		.type	CapSense_GetSensorRaw, %function
 1604              	CapSense_GetSensorRaw:
 1605              	.LFB64:
2063:.\Generated_Source\PSoC4/CapSense.c **** 
2064:.\Generated_Source\PSoC4/CapSense.c **** #if (CapSense_TUNING_METHOD != CapSense__TUNING_NONE)
2065:.\Generated_Source\PSoC4/CapSense.c **** 	/*******************************************************************************
2066:.\Generated_Source\PSoC4/CapSense.c **** 	* Function Name: CapSense_SetIDACRange
2067:.\Generated_Source\PSoC4/CapSense.c **** 	********************************************************************************
2068:.\Generated_Source\PSoC4/CapSense.c **** 	*
2069:.\Generated_Source\PSoC4/CapSense.c **** 	* Summary:
2070:.\Generated_Source\PSoC4/CapSense.c **** 	*  This API sets the IDAC range to the 4x (1.2uA/bit) or 8x (2.4uA/bit) mode.
2071:.\Generated_Source\PSoC4/CapSense.c ****     *  The IDAC range is common for all the sensors and common for the modulation and 
2072:.\Generated_Source\PSoC4/CapSense.c **** 	*  compensation IDACs.
2073:.\Generated_Source\PSoC4/CapSense.c **** 	*
2074:.\Generated_Source\PSoC4/CapSense.c **** 	* Parameters:
2075:.\Generated_Source\PSoC4/CapSense.c **** 	*  iDacRange:  represents value for IDAC range 
2076:.\Generated_Source\PSoC4/CapSense.c **** 	*  0 -  IDAC range set to 4x (1.2uA/bit)
2077:.\Generated_Source\PSoC4/CapSense.c **** 	*  1 or >1 - IDAC range set to 8x (2.4uA/bit)
2078:.\Generated_Source\PSoC4/CapSense.c **** 	*
2079:.\Generated_Source\PSoC4/CapSense.c **** 	* Return:
2080:.\Generated_Source\PSoC4/CapSense.c **** 	*  None.
2081:.\Generated_Source\PSoC4/CapSense.c **** 	*
2082:.\Generated_Source\PSoC4/CapSense.c **** 	* Global Variables:
2083:.\Generated_Source\PSoC4/CapSense.c **** 	*  None
2084:.\Generated_Source\PSoC4/CapSense.c **** 	* 
2085:.\Generated_Source\PSoC4/CapSense.c **** 	* Side Effects:
2086:.\Generated_Source\PSoC4/CapSense.c **** 	*  None
2087:.\Generated_Source\PSoC4/CapSense.c **** 	*
2088:.\Generated_Source\PSoC4/CapSense.c **** 	*******************************************************************************/
2089:.\Generated_Source\PSoC4/CapSense.c **** 	void CapSense_SetIDACRange(uint32 iDacRange)
2090:.\Generated_Source\PSoC4/CapSense.c **** 	{
2091:.\Generated_Source\PSoC4/CapSense.c **** 	    if(iDacRange != 0u)
2092:.\Generated_Source\PSoC4/CapSense.c **** 		{
2093:.\Generated_Source\PSoC4/CapSense.c **** 		    /*  IDAC range = 8x (2.4uA/bit) */ 
2094:.\Generated_Source\PSoC4/CapSense.c **** 		    CapSense_CSD_IDAC_REG |= (CapSense_CSD_IDAC1_RANGE_8X |\
2095:.\Generated_Source\PSoC4/CapSense.c **** 											  CapSense_CSD_IDAC2_RANGE_8X);
ARM GAS  C:\Users\kevin\AppData\Local\Temp\ccEmeqeI.s 			page 69


2096:.\Generated_Source\PSoC4/CapSense.c **** 		}
2097:.\Generated_Source\PSoC4/CapSense.c **** 		else
2098:.\Generated_Source\PSoC4/CapSense.c **** 		{
2099:.\Generated_Source\PSoC4/CapSense.c **** 		    /*  IDAC range = 4x (1.2uA/bit) */ 
2100:.\Generated_Source\PSoC4/CapSense.c **** 		    /*  IDAC range = 8x (2.4uA/bit) */ 
2101:.\Generated_Source\PSoC4/CapSense.c **** 		    CapSense_CSD_IDAC_REG &= ~(CapSense_CSD_IDAC1_RANGE_8X |\
2102:.\Generated_Source\PSoC4/CapSense.c **** 											   CapSense_CSD_IDAC2_RANGE_8X);
2103:.\Generated_Source\PSoC4/CapSense.c **** 		}
2104:.\Generated_Source\PSoC4/CapSense.c **** 	}
2105:.\Generated_Source\PSoC4/CapSense.c **** #endif /* (CapSense_TUNING_METHOD != CapSense__TUNING_NONE) */
2106:.\Generated_Source\PSoC4/CapSense.c **** 
2107:.\Generated_Source\PSoC4/CapSense.c **** 
2108:.\Generated_Source\PSoC4/CapSense.c **** #if((0u != CapSense_AUTOCALIBRATION_ENABLE) || (CapSense_TUNING_METHOD == CapSense__TUNING_AUTO))
2109:.\Generated_Source\PSoC4/CapSense.c **** 	/*******************************************************************************
2110:.\Generated_Source\PSoC4/CapSense.c **** 	* Function Name: CapSense_GetSensorRaw
2111:.\Generated_Source\PSoC4/CapSense.c **** 	********************************************************************************
2112:.\Generated_Source\PSoC4/CapSense.c **** 	*
2113:.\Generated_Source\PSoC4/CapSense.c **** 	* Summary:
2114:.\Generated_Source\PSoC4/CapSense.c **** 	*  The API updates and gets uprated raw data from the sensor.
2115:.\Generated_Source\PSoC4/CapSense.c **** 	*
2116:.\Generated_Source\PSoC4/CapSense.c **** 	* Parameters:
2117:.\Generated_Source\PSoC4/CapSense.c **** 	*  sensor - Sensor number.
2118:.\Generated_Source\PSoC4/CapSense.c **** 	*
2119:.\Generated_Source\PSoC4/CapSense.c **** 	* Return:
2120:.\Generated_Source\PSoC4/CapSense.c **** 	*  Returns the current raw data value for a defined sensor number.
2121:.\Generated_Source\PSoC4/CapSense.c **** 	*
2122:.\Generated_Source\PSoC4/CapSense.c **** 	* Global Variables:
2123:.\Generated_Source\PSoC4/CapSense.c **** 	*  None
2124:.\Generated_Source\PSoC4/CapSense.c **** 	*
2125:.\Generated_Source\PSoC4/CapSense.c **** 	* Side Effects:
2126:.\Generated_Source\PSoC4/CapSense.c **** 	*  None
2127:.\Generated_Source\PSoC4/CapSense.c **** 	*
2128:.\Generated_Source\PSoC4/CapSense.c **** 	*******************************************************************************/
2129:.\Generated_Source\PSoC4/CapSense.c **** 	uint16  CapSense_GetSensorRaw(uint32 sensor)
2130:.\Generated_Source\PSoC4/CapSense.c **** 	{
 1606              		.loc 1 2130 0
 1607              		.cfi_startproc
 1608              	.LVL170:
 1609 0000 10B5     		push	{r4, lr}
 1610              		.cfi_def_cfa_offset 8
 1611              		.cfi_offset 4, -8
 1612              		.cfi_offset 14, -4
 1613              		.loc 1 2130 0
 1614 0002 041C     		mov	r4, r0
2131:.\Generated_Source\PSoC4/CapSense.c **** 		uint32 curSample;
2132:.\Generated_Source\PSoC4/CapSense.c **** 		uint32 avgVal = 0u;
2133:.\Generated_Source\PSoC4/CapSense.c **** 		
2134:.\Generated_Source\PSoC4/CapSense.c **** 		for(curSample = 0u; curSample < CapSense_AVG_SAMPLES_NUM; curSample++)
2135:.\Generated_Source\PSoC4/CapSense.c **** 		{
2136:.\Generated_Source\PSoC4/CapSense.c **** 	    
2137:.\Generated_Source\PSoC4/CapSense.c **** 			CapSense_ScanSensor((uint32)sensor);
 1615              		.loc 1 2137 0
 1616 0004 FFF7FEFF 		bl	CapSense_ScanSensor
 1617              	.LVL171:
 1618              	.L106:
 1619              	.LBB6:
 1620              	.LBB7:
ARM GAS  C:\Users\kevin\AppData\Local\Temp\ccEmeqeI.s 			page 70


 735:.\Generated_Source\PSoC4/CapSense.c ****     return ((uint32)((0u != (CapSense_csdStatusVar & CapSense_SW_STS_BUSY)) ? 1u : 0u));
 1621              		.loc 1 735 0 discriminator 1
 1622 0008 034B     		ldr	r3, .L107
 1623 000a 1A78     		ldrb	r2, [r3]
 1624              	.LBE7:
 1625              	.LBE6:
2138:.\Generated_Source\PSoC4/CapSense.c **** 		    while(CapSense_IsBusy() == 1u)
 1626              		.loc 1 2138 0 discriminator 1
 1627 000c D107     		lsl	r1, r2, #31
 1628 000e FBD4     		bmi	.L106
 1629              	.LVL172:
 1630              	.LBB8:
 1631              	.LBB9:
 765:.\Generated_Source\PSoC4/CapSense.c ****     return CapSense_sensorRaw[sensor];
 1632              		.loc 1 765 0
 1633 0010 0233     		add	r3, r3, #2
 1634 0012 6400     		lsl	r4, r4, #1
 1635              	.LVL173:
 1636              	.LBE9:
 1637              	.LBE8:
2139:.\Generated_Source\PSoC4/CapSense.c **** 			{
2140:.\Generated_Source\PSoC4/CapSense.c **** 				/* Wait while sensor is busy */
2141:.\Generated_Source\PSoC4/CapSense.c **** 			}
2142:.\Generated_Source\PSoC4/CapSense.c **** 			avgVal += CapSense_ReadSensorRaw((uint32)sensor);
2143:.\Generated_Source\PSoC4/CapSense.c **** 		}
2144:.\Generated_Source\PSoC4/CapSense.c **** 	    
2145:.\Generated_Source\PSoC4/CapSense.c **** 	    return((uint16)(avgVal / CapSense_AVG_SAMPLES_NUM));
 1638              		.loc 1 2145 0
 1639 0014 185B     		ldrh	r0, [r3, r4]
2146:.\Generated_Source\PSoC4/CapSense.c **** 	}
 1640              		.loc 1 2146 0
 1641              		@ sp needed
 1642 0016 10BD     		pop	{r4, pc}
 1643              	.L108:
 1644              		.align	2
 1645              	.L107:
 1646 0018 00000000 		.word	.LANCHOR0
 1647              		.cfi_endproc
 1648              	.LFE64:
 1649              		.size	CapSense_GetSensorRaw, .-CapSense_GetSensorRaw
 1650              		.section	.text.CapSense_CalibrateSensor,"ax",%progbits
 1651              		.align	1
 1652              		.global	CapSense_CalibrateSensor
 1653              		.code	16
 1654              		.thumb_func
 1655              		.type	CapSense_CalibrateSensor, %function
 1656              	CapSense_CalibrateSensor:
 1657              	.LFB65:
2147:.\Generated_Source\PSoC4/CapSense.c **** #endif /* ((0u != CapSense_AUTOCALIBRATION_ENABLE) && (CapSense_TUNING_METHOD == CapSense__TUNING_A
2148:.\Generated_Source\PSoC4/CapSense.c **** 
2149:.\Generated_Source\PSoC4/CapSense.c **** 
2150:.\Generated_Source\PSoC4/CapSense.c **** #if((0u != CapSense_AUTOCALIBRATION_ENABLE) && (CapSense_TUNING_METHOD != CapSense__TUNING_AUTO))
2151:.\Generated_Source\PSoC4/CapSense.c **** 	/*******************************************************************************
2152:.\Generated_Source\PSoC4/CapSense.c **** 	* Function Name: CapSense_CalibrateSensor
2153:.\Generated_Source\PSoC4/CapSense.c **** 	********************************************************************************
2154:.\Generated_Source\PSoC4/CapSense.c **** 	*
2155:.\Generated_Source\PSoC4/CapSense.c **** 	* Summary:
ARM GAS  C:\Users\kevin\AppData\Local\Temp\ccEmeqeI.s 			page 71


2156:.\Generated_Source\PSoC4/CapSense.c **** 	*  Computes the one sensor IDAC value, which provides the raw signal on
2157:.\Generated_Source\PSoC4/CapSense.c **** 	*  a specified level, with a specified prescaler, speed, and resolution.
2158:.\Generated_Source\PSoC4/CapSense.c **** 	*
2159:.\Generated_Source\PSoC4/CapSense.c **** 	* Parameters:
2160:.\Generated_Source\PSoC4/CapSense.c **** 	*  sensor - Sensor Number.
2161:.\Generated_Source\PSoC4/CapSense.c **** 	*
2162:.\Generated_Source\PSoC4/CapSense.c **** 	*  rawLevel -  Raw data level which should be reached during the calibration
2163:.\Generated_Source\PSoC4/CapSense.c **** 	*              procedure.
2164:.\Generated_Source\PSoC4/CapSense.c **** 	*
2165:.\Generated_Source\PSoC4/CapSense.c **** 	*  idacLevelsTbl - Pointer to the modulatorIdac data register configuration table.            
2166:.\Generated_Source\PSoC4/CapSense.c **** 	*
2167:.\Generated_Source\PSoC4/CapSense.c **** 	* Return:       
2168:.\Generated_Source\PSoC4/CapSense.c **** 	*  None
2169:.\Generated_Source\PSoC4/CapSense.c **** 	*
2170:.\Generated_Source\PSoC4/CapSense.c **** 	*******************************************************************************/
2171:.\Generated_Source\PSoC4/CapSense.c **** 	void CapSense_CalibrateSensor(uint32 sensor, uint32 rawLevel, uint8 idacLevelsTbl[])
2172:.\Generated_Source\PSoC4/CapSense.c **** 	{
 1658              		.loc 1 2172 0
 1659              		.cfi_startproc
 1660              	.LVL174:
 1661 0000 F7B5     		push	{r0, r1, r2, r4, r5, r6, r7, lr}
 1662              		.cfi_def_cfa_offset 32
 1663              		.cfi_offset 0, -32
 1664              		.cfi_offset 1, -28
 1665              		.cfi_offset 2, -24
 1666              		.cfi_offset 4, -20
 1667              		.cfi_offset 5, -16
 1668              		.cfi_offset 6, -12
 1669              		.cfi_offset 7, -8
 1670              		.cfi_offset 14, -4
2173:.\Generated_Source\PSoC4/CapSense.c **** 		uint8 mask;
2174:.\Generated_Source\PSoC4/CapSense.c **** 		uint16 rawData;
2175:.\Generated_Source\PSoC4/CapSense.c **** 		
2176:.\Generated_Source\PSoC4/CapSense.c **** 		rawData = 0u;
2177:.\Generated_Source\PSoC4/CapSense.c **** 		
2178:.\Generated_Source\PSoC4/CapSense.c **** 		mask = 0x80u;
2179:.\Generated_Source\PSoC4/CapSense.c **** 		/* Init IDAC for null Channel */
2180:.\Generated_Source\PSoC4/CapSense.c **** 		idacLevelsTbl[sensor] = 0x00u;
 1671              		.loc 1 2180 0
 1672 0002 0023     		mov	r3, #0
 1673 0004 1418     		add	r4, r2, r0
2172:.\Generated_Source\PSoC4/CapSense.c **** 	{
 1674              		.loc 1 2172 0
 1675 0006 071C     		mov	r7, r0
 1676 0008 0191     		str	r1, [sp, #4]
 1677              		.loc 1 2180 0
 1678 000a 2370     		strb	r3, [r4]
 1679 000c 0826     		mov	r6, #8
2178:.\Generated_Source\PSoC4/CapSense.c **** 		mask = 0x80u;
 1680              		.loc 1 2178 0
 1681 000e 8025     		mov	r5, #128
 1682              	.LVL175:
 1683              	.L112:
2181:.\Generated_Source\PSoC4/CapSense.c **** 		
2182:.\Generated_Source\PSoC4/CapSense.c **** 		do
2183:.\Generated_Source\PSoC4/CapSense.c **** 		{
2184:.\Generated_Source\PSoC4/CapSense.c **** 		    /* Set bit for null Channel */
ARM GAS  C:\Users\kevin\AppData\Local\Temp\ccEmeqeI.s 			page 72


2185:.\Generated_Source\PSoC4/CapSense.c **** 			idacLevelsTbl[sensor] |= mask;
 1684              		.loc 1 2185 0
 1685 0010 2378     		ldrb	r3, [r4]
2186:.\Generated_Source\PSoC4/CapSense.c **** 
2187:.\Generated_Source\PSoC4/CapSense.c **** 	        /* Scan null Channel and get Rawdata */
2188:.\Generated_Source\PSoC4/CapSense.c **** 			rawData = CapSense_GetSensorRaw(sensor);
 1686              		.loc 1 2188 0
 1687 0012 381C     		mov	r0, r7
2185:.\Generated_Source\PSoC4/CapSense.c **** 			idacLevelsTbl[sensor] |= mask;
 1688              		.loc 1 2185 0
 1689 0014 2B43     		orr	r3, r5
 1690 0016 2370     		strb	r3, [r4]
 1691              		.loc 1 2188 0
 1692 0018 FFF7FEFF 		bl	CapSense_GetSensorRaw
 1693              	.LVL176:
2189:.\Generated_Source\PSoC4/CapSense.c **** 			
2190:.\Generated_Source\PSoC4/CapSense.c **** 			/* Decrease IDAC until Rawdata reaches rawLevel */ 
2191:.\Generated_Source\PSoC4/CapSense.c **** 			if(rawData < rawLevel)
 1694              		.loc 1 2191 0
 1695 001c 019B     		ldr	r3, [sp, #4]
 1696 001e 9842     		cmp	r0, r3
 1697 0020 02D2     		bcs	.L110
2192:.\Generated_Source\PSoC4/CapSense.c **** 			{
2193:.\Generated_Source\PSoC4/CapSense.c **** 			    /* Reset bit for null Channel  */ 
2194:.\Generated_Source\PSoC4/CapSense.c **** 				idacLevelsTbl[sensor] &= (uint8)~mask;
 1698              		.loc 1 2194 0
 1699 0022 2378     		ldrb	r3, [r4]
 1700 0024 AB43     		bic	r3, r5
 1701 0026 2370     		strb	r3, [r4]
 1702              	.L110:
 1703 0028 013E     		sub	r6, r6, #1
2195:.\Generated_Source\PSoC4/CapSense.c **** 			}
2196:.\Generated_Source\PSoC4/CapSense.c **** 			
2197:.\Generated_Source\PSoC4/CapSense.c **** 			mask >>= 1u;
 1704              		.loc 1 2197 0
 1705 002a 6D08     		lsr	r5, r5, #1
 1706              	.LVL177:
2198:.\Generated_Source\PSoC4/CapSense.c **** 		}
2199:.\Generated_Source\PSoC4/CapSense.c **** 		while(mask > 0u);
 1707              		.loc 1 2199 0
 1708 002c 002E     		cmp	r6, #0
 1709 002e EFD1     		bne	.L112
2200:.\Generated_Source\PSoC4/CapSense.c **** 		
2201:.\Generated_Source\PSoC4/CapSense.c **** 	}
 1710              		.loc 1 2201 0
 1711              		@ sp needed
 1712              	.LVL178:
 1713              	.LVL179:
 1714 0030 F7BD     		pop	{r0, r1, r2, r4, r5, r6, r7, pc}
 1715              		.cfi_endproc
 1716              	.LFE65:
 1717              		.size	CapSense_CalibrateSensor, .-CapSense_CalibrateSensor
 1718              		.global	__aeabi_uidiv
 1719              		.section	.text.CapSense_Start,"ax",%progbits
 1720              		.align	1
 1721              		.global	CapSense_Start
 1722              		.code	16
ARM GAS  C:\Users\kevin\AppData\Local\Temp\ccEmeqeI.s 			page 73


 1723              		.thumb_func
 1724              		.type	CapSense_Start, %function
 1725              	CapSense_Start:
 1726              	.LFB36:
 391:.\Generated_Source\PSoC4/CapSense.c **** {
 1727              		.loc 1 391 0
 1728              		.cfi_startproc
 1729 0000 70B5     		push	{r4, r5, r6, lr}
 1730              		.cfi_def_cfa_offset 16
 1731              		.cfi_offset 4, -16
 1732              		.cfi_offset 5, -12
 1733              		.cfi_offset 6, -8
 1734              		.cfi_offset 14, -4
 401:.\Generated_Source\PSoC4/CapSense.c ****     if (CapSense_initVar == 0u)
 1735              		.loc 1 401 0
 1736 0002 1F4C     		ldr	r4, .L119
 1737 0004 637A     		ldrb	r3, [r4, #9]
 1738 0006 002B     		cmp	r3, #0
 1739 0008 03D1     		bne	.L114
 403:.\Generated_Source\PSoC4/CapSense.c ****         CapSense_Init();
 1740              		.loc 1 403 0
 1741 000a FFF7FEFF 		bl	CapSense_Init
 1742              	.LVL180:
 404:.\Generated_Source\PSoC4/CapSense.c ****         CapSense_initVar = 1u;
 1743              		.loc 1 404 0
 1744 000e 0123     		mov	r3, #1
 1745 0010 6372     		strb	r3, [r4, #9]
 1746              	.L114:
 406:.\Generated_Source\PSoC4/CapSense.c ****     CapSense_Enable();
 1747              		.loc 1 406 0
 1748 0012 FFF7FEFF 		bl	CapSense_Enable
 1749              	.LVL181:
 418:.\Generated_Source\PSoC4/CapSense.c **** 				CapSense_CSD_IDAC_REG &= ~(CapSense_CSD_IDAC2_MODE_MASK);	
 1750              		.loc 1 418 0
 1751 0016 1B4B     		ldr	r3, .L119+4
 1752 0018 1B4A     		ldr	r2, .L119+8
 1753 001a 1968     		ldr	r1, [r3]
 421:.\Generated_Source\PSoC4/CapSense.c **** 			for(curSensor = 0u; curSensor < CapSense_TOTAL_SCANSLOT_COUNT; curSensor++)
 1754              		.loc 1 421 0
 1755 001c 0024     		mov	r4, #0
 418:.\Generated_Source\PSoC4/CapSense.c **** 				CapSense_CSD_IDAC_REG &= ~(CapSense_CSD_IDAC2_MODE_MASK);	
 1756              		.loc 1 418 0
 1757 001e 0A40     		and	r2, r1
 1758 0020 1A60     		str	r2, [r3]
 1759              	.LVL182:
 1760 0022 1D1C     		mov	r5, r3
 1761              	.LVL183:
 1762              	.L116:
 424:.\Generated_Source\PSoC4/CapSense.c **** 				rawLevel = CapSense_widgetResolution[widget] >> CapSense_RESOLUTION_OFFSET;
 1763              		.loc 1 424 0 discriminator 2
 1764 0024 194B     		ldr	r3, .L119+12
 427:.\Generated_Source\PSoC4/CapSense.c **** 				rawLevel = (rawLevel * 85u) / 100u;
 1765              		.loc 1 427 0 discriminator 2
 1766 0026 6421     		mov	r1, #100
 423:.\Generated_Source\PSoC4/CapSense.c **** 				widget = CapSense_widgetNumber[curSensor];
 1767              		.loc 1 423 0 discriminator 2
 1768 0028 1A1C     		mov	r2, r3
ARM GAS  C:\Users\kevin\AppData\Local\Temp\ccEmeqeI.s 			page 74


 1769 002a 5032     		add	r2, r2, #80
 1770 002c A25C     		ldrb	r2, [r4, r2]
 424:.\Generated_Source\PSoC4/CapSense.c **** 				rawLevel = CapSense_widgetResolution[widget] >> CapSense_RESOLUTION_OFFSET;
 1771              		.loc 1 424 0 discriminator 2
 1772 002e 9200     		lsl	r2, r2, #2
 1773 0030 D058     		ldr	r0, [r2, r3]
 427:.\Generated_Source\PSoC4/CapSense.c **** 				rawLevel = (rawLevel * 85u) / 100u;
 1774              		.loc 1 427 0 discriminator 2
 1775 0032 5523     		mov	r3, #85
 424:.\Generated_Source\PSoC4/CapSense.c **** 				rawLevel = CapSense_widgetResolution[widget] >> CapSense_RESOLUTION_OFFSET;
 1776              		.loc 1 424 0 discriminator 2
 1777 0034 000C     		lsr	r0, r0, #16
 427:.\Generated_Source\PSoC4/CapSense.c **** 				rawLevel = (rawLevel * 85u) / 100u;
 1778              		.loc 1 427 0 discriminator 2
 1779 0036 5843     		mul	r0, r3
 1780              	.LVL184:
 1781 0038 FFF7FEFF 		bl	__aeabi_uidiv
 1782              	.LVL185:
 429:.\Generated_Source\PSoC4/CapSense.c **** 				CapSense_CalibrateSensor(curSensor, rawLevel, CapSense_modulationIDAC);
 1783              		.loc 1 429 0 discriminator 2
 1784 003c 144E     		ldr	r6, .L119+16
 427:.\Generated_Source\PSoC4/CapSense.c **** 				rawLevel = (rawLevel * 85u) / 100u;
 1785              		.loc 1 427 0 discriminator 2
 1786 003e 011C     		mov	r1, r0
 429:.\Generated_Source\PSoC4/CapSense.c **** 				CapSense_CalibrateSensor(curSensor, rawLevel, CapSense_modulationIDAC);
 1787              		.loc 1 429 0 discriminator 2
 1788 0040 321C     		mov	r2, r6
 1789 0042 201C     		mov	r0, r4
 421:.\Generated_Source\PSoC4/CapSense.c **** 			for(curSensor = 0u; curSensor < CapSense_TOTAL_SCANSLOT_COUNT; curSensor++)
 1790              		.loc 1 421 0 discriminator 2
 1791 0044 0134     		add	r4, r4, #1
 1792              	.LVL186:
 429:.\Generated_Source\PSoC4/CapSense.c **** 				CapSense_CalibrateSensor(curSensor, rawLevel, CapSense_modulationIDAC);
 1793              		.loc 1 429 0 discriminator 2
 1794 0046 FFF7FEFF 		bl	CapSense_CalibrateSensor
 1795              	.LVL187:
 1796 004a 321C     		mov	r2, r6
 421:.\Generated_Source\PSoC4/CapSense.c **** 			for(curSensor = 0u; curSensor < CapSense_TOTAL_SCANSLOT_COUNT; curSensor++)
 1797              		.loc 1 421 0 discriminator 2
 1798 004c 032C     		cmp	r4, #3
 1799 004e E9D1     		bne	.L116
 421:.\Generated_Source\PSoC4/CapSense.c **** 			for(curSensor = 0u; curSensor < CapSense_TOTAL_SCANSLOT_COUNT; curSensor++)
 1800              		.loc 1 421 0 is_stmt 0
 1801 0050 0023     		mov	r3, #0
 1802              	.LVL188:
 1803              	.L118:
 439:.\Generated_Source\PSoC4/CapSense.c **** 					CapSense_compensationIDAC[curSensor] = CapSense_modulationIDAC[curSensor] / 2u;
 1804              		.loc 1 439 0 is_stmt 1 discriminator 2
 1805 0052 D15C     		ldrb	r1, [r2, r3]
 1806 0054 D01C     		add	r0, r2, #3
 1807 0056 4C08     		lsr	r4, r1, #1
 440:.\Generated_Source\PSoC4/CapSense.c **** 					CapSense_modulationIDAC[curSensor] = (CapSense_modulationIDAC[curSensor] + 1u) / 2u;
 1808              		.loc 1 440 0 discriminator 2
 1809 0058 0131     		add	r1, r1, #1
 1810 005a 4908     		lsr	r1, r1, #1
 439:.\Generated_Source\PSoC4/CapSense.c **** 					CapSense_compensationIDAC[curSensor] = CapSense_modulationIDAC[curSensor] / 2u;
 1811              		.loc 1 439 0 discriminator 2
ARM GAS  C:\Users\kevin\AppData\Local\Temp\ccEmeqeI.s 			page 75


 1812 005c 1C54     		strb	r4, [r3, r0]
 440:.\Generated_Source\PSoC4/CapSense.c **** 					CapSense_modulationIDAC[curSensor] = (CapSense_modulationIDAC[curSensor] + 1u) / 2u;
 1813              		.loc 1 440 0 discriminator 2
 1814 005e D154     		strb	r1, [r2, r3]
 437:.\Generated_Source\PSoC4/CapSense.c **** 				for(curSensor = 0u; curSensor < CapSense_TOTAL_SCANSLOT_COUNT; curSensor++)
 1815              		.loc 1 437 0 discriminator 2
 1816 0060 0133     		add	r3, r3, #1
 1817              	.LVL189:
 1818 0062 032B     		cmp	r3, #3
 1819 0064 F5D1     		bne	.L118
 442:.\Generated_Source\PSoC4/CapSense.c **** 				CapSense_CSD_IDAC_REG |= CapSense_CSD_IDAC2_MODE_FIXED;
 1820              		.loc 1 442 0
 1821 0066 2A68     		ldr	r2, [r5]
 1822 0068 8023     		mov	r3, #128
 1823              	.LVL190:
 1824 006a 5B04     		lsl	r3, r3, #17
 1825 006c 1343     		orr	r3, r2
 1826 006e 2B60     		str	r3, [r5]
 455:.\Generated_Source\PSoC4/CapSense.c **** 	CapSense_CSD_CFG_REG |= CapSense_CSD_CFG_SENSE_INSEL;
 1827              		.loc 1 455 0
 1828 0070 084B     		ldr	r3, .L119+20
 1829 0072 8022     		mov	r2, #128
 1830 0074 1968     		ldr	r1, [r3]
 1831 0076 D203     		lsl	r2, r2, #15
 1832 0078 0A43     		orr	r2, r1
 1833 007a 1A60     		str	r2, [r3]
 456:.\Generated_Source\PSoC4/CapSense.c **** }
 1834              		.loc 1 456 0
 1835              		@ sp needed
 1836 007c 70BD     		pop	{r4, r5, r6, pc}
 1837              	.L120:
 1838 007e C046     		.align	2
 1839              	.L119:
 1840 0080 00000000 		.word	.LANCHOR0
 1841 0084 08000840 		.word	1074266120
 1842 0088 FFFFFFFC 		.word	-50331649
 1843 008c 00000000 		.word	.LANCHOR1
 1844 0090 00000000 		.word	.LANCHOR2
 1845 0094 04000840 		.word	1074266116
 1846              		.cfi_endproc
 1847              	.LFE36:
 1848              		.size	CapSense_Start, .-CapSense_Start
 1849              		.section	.text.CapSense_SetUnscannedSensorState,"ax",%progbits
 1850              		.align	1
 1851              		.global	CapSense_SetUnscannedSensorState
 1852              		.code	16
 1853              		.thumb_func
 1854              		.type	CapSense_SetUnscannedSensorState, %function
 1855              	CapSense_SetUnscannedSensorState:
 1856              	.LFB66:
2202:.\Generated_Source\PSoC4/CapSense.c **** #endif /* ((0u != CapSense_AUTOCALIBRATION_ENABLE) && (CapSense_TUNING_METHOD != CapSense__TUNING_A
2203:.\Generated_Source\PSoC4/CapSense.c **** 
2204:.\Generated_Source\PSoC4/CapSense.c **** 
2205:.\Generated_Source\PSoC4/CapSense.c **** /*******************************************************************************
2206:.\Generated_Source\PSoC4/CapSense.c **** * Function Name: CapSense_SetUnscannedSensorState
2207:.\Generated_Source\PSoC4/CapSense.c **** ********************************************************************************
2208:.\Generated_Source\PSoC4/CapSense.c **** *
ARM GAS  C:\Users\kevin\AppData\Local\Temp\ccEmeqeI.s 			page 76


2209:.\Generated_Source\PSoC4/CapSense.c **** * Summary:
2210:.\Generated_Source\PSoC4/CapSense.c **** *  This API sets a state for un-scanned sensors. 
2211:.\Generated_Source\PSoC4/CapSense.c **** *  It is possible to set the state to Ground, High-Z, or the shield electrode. 
2212:.\Generated_Source\PSoC4/CapSense.c **** *  The un-scanned sensor can be connected to a shield electrode only if the shield is 
2213:.\Generated_Source\PSoC4/CapSense.c **** *  enabled. If the shield is disabled and this API is called with the parameter which
2214:.\Generated_Source\PSoC4/CapSense.c **** *  indicates the shield state, the un-scanned sensor will be connected to Ground.
2215:.\Generated_Source\PSoC4/CapSense.c **** *
2216:.\Generated_Source\PSoC4/CapSense.c **** * Parameters:
2217:.\Generated_Source\PSoC4/CapSense.c **** *  sensor - Sensor Number.
2218:.\Generated_Source\PSoC4/CapSense.c **** *  sensorState: This parameter indicates un-scanned sensor state:
2219:.\Generated_Source\PSoC4/CapSense.c **** *
2220:.\Generated_Source\PSoC4/CapSense.c **** *     CapSense__GROUND 0
2221:.\Generated_Source\PSoC4/CapSense.c **** *     CapSense__HIZ_ANALOG 1
2222:.\Generated_Source\PSoC4/CapSense.c **** *     CapSense__SHIELD 2
2223:.\Generated_Source\PSoC4/CapSense.c **** *
2224:.\Generated_Source\PSoC4/CapSense.c **** * Return:
2225:.\Generated_Source\PSoC4/CapSense.c **** *  None.
2226:.\Generated_Source\PSoC4/CapSense.c **** *
2227:.\Generated_Source\PSoC4/CapSense.c **** * Global Variables:
2228:.\Generated_Source\PSoC4/CapSense.c **** *  CapSense_unscannedSnsDriveMode[] - used to store the state for
2229:.\Generated_Source\PSoC4/CapSense.c **** *  un-scanned sensors.
2230:.\Generated_Source\PSoC4/CapSense.c **** * 
2231:.\Generated_Source\PSoC4/CapSense.c **** * Side Effects:
2232:.\Generated_Source\PSoC4/CapSense.c **** *  None
2233:.\Generated_Source\PSoC4/CapSense.c **** *
2234:.\Generated_Source\PSoC4/CapSense.c **** *******************************************************************************/
2235:.\Generated_Source\PSoC4/CapSense.c **** void CapSense_SetUnscannedSensorState(uint32 sensor, uint32 sensorState)
2236:.\Generated_Source\PSoC4/CapSense.c **** {
 1857              		.loc 1 2236 0
 1858              		.cfi_startproc
 1859              	.LVL191:
2237:.\Generated_Source\PSoC4/CapSense.c ****     CapSense_unscannedSnsDriveMode[sensor] = (uint8)sensorState;	
 1860              		.loc 1 2237 0
 1861 0000 014B     		ldr	r3, .L122
2238:.\Generated_Source\PSoC4/CapSense.c **** }
 1862              		.loc 1 2238 0
 1863              		@ sp needed
2237:.\Generated_Source\PSoC4/CapSense.c ****     CapSense_unscannedSnsDriveMode[sensor] = (uint8)sensorState;	
 1864              		.loc 1 2237 0
 1865 0002 1954     		strb	r1, [r3, r0]
 1866              		.loc 1 2238 0
 1867 0004 7047     		bx	lr
 1868              	.L123:
 1869 0006 C046     		.align	2
 1870              	.L122:
 1871 0008 00000000 		.word	CapSense_unscannedSnsDriveMode
 1872              		.cfi_endproc
 1873              	.LFE66:
 1874              		.size	CapSense_SetUnscannedSensorState, .-CapSense_SetUnscannedSensorState
 1875              		.global	CapSense_prtDRTbl
 1876              		.global	CapSense_prtCfgTbl
 1877              		.global	CapSense_prtSelTbl
 1878              		.global	CapSense_widgetNumber
 1879              		.global	CapSense_sampleClkDividerVal
 1880              		.global	CapSense_senseClkDividerVal
 1881              		.global	CapSense_widgetResolution
 1882              		.global	CapSense_compensationIDAC
ARM GAS  C:\Users\kevin\AppData\Local\Temp\ccEmeqeI.s 			page 77


 1883              		.global	CapSense_modulationIDAC
 1884              		.global	CapSense_pinShiftTbl
 1885              		.global	CapSense_maskTable
 1886              		.global	CapSense_portTable
 1887              		.global	CapSense_pcTable
 1888              		.global	CapSense_sensorEnableMask
 1889              		.comm	CapSense_sensorEnableMaskBackup,1,1
 1890              		.comm	CapSense_unscannedSnsDriveMode,3,1
 1891              		.comm	CapSense_csdTrim1,1,1
 1892              		.global	CapSense_sensorRaw
 1893              		.global	CapSense_sensorIndex
 1894              		.global	CapSense_csdStatusVar
 1895              		.section	.rodata
 1896              		.align	2
 1897              		.set	.LANCHOR1,. + 0
 1898              		.type	CapSense_widgetResolution, %object
 1899              		.size	CapSense_widgetResolution, 12
 1900              	CapSense_widgetResolution:
 1901 0000 0000FF03 		.word	67043328
 1902 0004 0000FF03 		.word	67043328
 1903 0008 0000FF03 		.word	67043328
 1904              		.type	CapSense_portTable, %object
 1905              		.size	CapSense_portTable, 3
 1906              	CapSense_portTable:
 1907 000c 01       		.byte	1
 1908 000d 01       		.byte	1
 1909 000e 00       		.byte	0
 1910              		.type	CapSense_pinShiftTbl, %object
 1911              		.size	CapSense_pinShiftTbl, 3
 1912              	CapSense_pinShiftTbl:
 1913 000f 00       		.byte	0
 1914 0010 07       		.byte	7
 1915 0011 00       		.byte	0
 1916 0012 0000     		.space	2
 1917              		.type	CapSense_prtSelTbl, %object
 1918              		.size	CapSense_prtSelTbl, 20
 1919              	CapSense_prtSelTbl:
 1920 0014 00000140 		.word	1073807360
 1921 0018 04000140 		.word	1073807364
 1922 001c 08000140 		.word	1073807368
 1923 0020 0C000140 		.word	1073807372
 1924 0024 10000140 		.word	1073807376
 1925              		.type	CapSense_prtCfgTbl, %object
 1926              		.size	CapSense_prtCfgTbl, 20
 1927              	CapSense_prtCfgTbl:
 1928 0028 08000440 		.word	1074003976
 1929 002c 08010440 		.word	1074004232
 1930 0030 08020440 		.word	1074004488
 1931 0034 08030440 		.word	1074004744
 1932 0038 08040440 		.word	1074005000
 1933              		.type	CapSense_prtDRTbl, %object
 1934              		.size	CapSense_prtDRTbl, 20
 1935              	CapSense_prtDRTbl:
 1936 003c 00000440 		.word	1074003968
 1937 0040 00010440 		.word	1074004224
 1938 0044 00020440 		.word	1074004480
 1939 0048 00030440 		.word	1074004736
ARM GAS  C:\Users\kevin\AppData\Local\Temp\ccEmeqeI.s 			page 78


 1940 004c 00040440 		.word	1074004992
 1941              		.type	CapSense_widgetNumber, %object
 1942              		.size	CapSense_widgetNumber, 3
 1943              	CapSense_widgetNumber:
 1944 0050 00       		.byte	0
 1945 0051 01       		.byte	1
 1946 0052 02       		.byte	2
 1947              		.type	CapSense_sampleClkDividerVal, %object
 1948              		.size	CapSense_sampleClkDividerVal, 3
 1949              	CapSense_sampleClkDividerVal:
 1950 0053 02       		.byte	2
 1951 0054 02       		.byte	2
 1952 0055 02       		.byte	2
 1953              		.type	CapSense_senseClkDividerVal, %object
 1954              		.size	CapSense_senseClkDividerVal, 3
 1955              	CapSense_senseClkDividerVal:
 1956 0056 01       		.byte	1
 1957 0057 01       		.byte	1
 1958 0058 01       		.byte	1
 1959 0059 000000   		.space	3
 1960              		.type	CapSense_maskTable, %object
 1961              		.size	CapSense_maskTable, 12
 1962              	CapSense_maskTable:
 1963 005c 01000000 		.word	1
 1964 0060 80000000 		.word	128
 1965 0064 01000000 		.word	1
 1966              		.data
 1967              		.align	2
 1968              		.set	.LANCHOR2,. + 0
 1969              		.type	CapSense_modulationIDAC, %object
 1970              		.size	CapSense_modulationIDAC, 3
 1971              	CapSense_modulationIDAC:
 1972 0000 1C       		.byte	28
 1973 0001 2D       		.byte	45
 1974 0002 23       		.byte	35
 1975              		.type	CapSense_compensationIDAC, %object
 1976              		.size	CapSense_compensationIDAC, 3
 1977              	CapSense_compensationIDAC:
 1978 0003 1C       		.byte	28
 1979 0004 2C       		.byte	44
 1980 0005 23       		.byte	35
 1981              		.type	CapSense_sensorEnableMask, %object
 1982              		.size	CapSense_sensorEnableMask, 1
 1983              	CapSense_sensorEnableMask:
 1984 0006 07       		.byte	7
 1985 0007 00       		.space	1
 1986              		.type	CapSense_pcTable, %object
 1987              		.size	CapSense_pcTable, 12
 1988              	CapSense_pcTable:
 1989 0008 08010440 		.word	1074004232
 1990 000c 08010440 		.word	1074004232
 1991 0010 08000440 		.word	1074003976
 1992              		.bss
 1993              		.align	1
 1994              		.set	.LANCHOR0,. + 0
 1995              		.type	CapSense_csdStatusVar, %object
 1996              		.size	CapSense_csdStatusVar, 1
ARM GAS  C:\Users\kevin\AppData\Local\Temp\ccEmeqeI.s 			page 79


 1997              	CapSense_csdStatusVar:
 1998 0000 00       		.space	1
 1999 0001 00       		.space	1
 2000              		.type	CapSense_sensorRaw, %object
 2001              		.size	CapSense_sensorRaw, 6
 2002              	CapSense_sensorRaw:
 2003 0002 00000000 		.space	6
 2003      0000
 2004              		.type	CapSense_sensorIndex, %object
 2005              		.size	CapSense_sensorIndex, 1
 2006              	CapSense_sensorIndex:
 2007 0008 00       		.space	1
 2008              		.type	CapSense_initVar.5173, %object
 2009              		.size	CapSense_initVar.5173, 1
 2010              	CapSense_initVar.5173:
 2011 0009 00       		.space	1
 2012              		.text
 2013              	.Letext0:
 2014              		.file 2 ".\\Generated_Source\\PSoC4\\cytypes.h"
 2015              		.file 3 ".\\Generated_Source\\PSoC4\\CapSense_CSHL.h"
 2016              		.file 4 ".\\Generated_Source\\PSoC4\\CyLib.h"
 2017              		.file 5 ".\\Generated_Source\\PSoC4\\CapSense_SenseClk.h"
 2018              		.file 6 ".\\Generated_Source\\PSoC4\\CapSense_SampleClk.h"
 2019              		.section	.debug_info,"",%progbits
 2020              	.Ldebug_info0:
 2021 0000 450F0000 		.4byte	0xf45
 2022 0004 0400     		.2byte	0x4
 2023 0006 00000000 		.4byte	.Ldebug_abbrev0
 2024 000a 04       		.byte	0x4
 2025 000b 01       		.uleb128 0x1
 2026 000c F6060000 		.4byte	.LASF121
 2027 0010 01       		.byte	0x1
 2028 0011 C7050000 		.4byte	.LASF122
 2029 0015 6D050000 		.4byte	.LASF123
 2030 0019 00000000 		.4byte	.Ldebug_ranges0+0
 2031 001d 00000000 		.4byte	0
 2032 0021 00000000 		.4byte	.Ldebug_line0
 2033 0025 02       		.uleb128 0x2
 2034 0026 04       		.byte	0x4
 2035 0027 07       		.byte	0x7
 2036 0028 32030000 		.4byte	.LASF0
 2037 002c 02       		.uleb128 0x2
 2038 002d 01       		.byte	0x1
 2039 002e 06       		.byte	0x6
 2040 002f 8B010000 		.4byte	.LASF1
 2041 0033 02       		.uleb128 0x2
 2042 0034 01       		.byte	0x1
 2043 0035 08       		.byte	0x8
 2044 0036 08060000 		.4byte	.LASF2
 2045 003a 02       		.uleb128 0x2
 2046 003b 02       		.byte	0x2
 2047 003c 05       		.byte	0x5
 2048 003d 4B060000 		.4byte	.LASF3
 2049 0041 02       		.uleb128 0x2
 2050 0042 02       		.byte	0x2
 2051 0043 07       		.byte	0x7
 2052 0044 C5030000 		.4byte	.LASF4
ARM GAS  C:\Users\kevin\AppData\Local\Temp\ccEmeqeI.s 			page 80


 2053 0048 02       		.uleb128 0x2
 2054 0049 04       		.byte	0x4
 2055 004a 05       		.byte	0x5
 2056 004b F6010000 		.4byte	.LASF5
 2057 004f 02       		.uleb128 0x2
 2058 0050 04       		.byte	0x4
 2059 0051 07       		.byte	0x7
 2060 0052 5E030000 		.4byte	.LASF6
 2061 0056 02       		.uleb128 0x2
 2062 0057 08       		.byte	0x8
 2063 0058 05       		.byte	0x5
 2064 0059 1E020000 		.4byte	.LASF7
 2065 005d 02       		.uleb128 0x2
 2066 005e 08       		.byte	0x8
 2067 005f 07       		.byte	0x7
 2068 0060 E1000000 		.4byte	.LASF8
 2069 0064 03       		.uleb128 0x3
 2070 0065 04       		.byte	0x4
 2071 0066 05       		.byte	0x5
 2072 0067 696E7400 		.ascii	"int\000"
 2073 006b 04       		.uleb128 0x4
 2074 006c 18020000 		.4byte	.LASF9
 2075 0070 02       		.byte	0x2
 2076 0071 A1       		.byte	0xa1
 2077 0072 33000000 		.4byte	0x33
 2078 0076 04       		.uleb128 0x4
 2079 0077 27000000 		.4byte	.LASF10
 2080 007b 02       		.byte	0x2
 2081 007c A2       		.byte	0xa2
 2082 007d 41000000 		.4byte	0x41
 2083 0081 04       		.uleb128 0x4
 2084 0082 B0010000 		.4byte	.LASF11
 2085 0086 02       		.byte	0x2
 2086 0087 A3       		.byte	0xa3
 2087 0088 4F000000 		.4byte	0x4f
 2088 008c 02       		.uleb128 0x2
 2089 008d 04       		.byte	0x4
 2090 008e 04       		.byte	0x4
 2091 008f 67050000 		.4byte	.LASF12
 2092 0093 02       		.uleb128 0x2
 2093 0094 08       		.byte	0x8
 2094 0095 04       		.byte	0x4
 2095 0096 0B090000 		.4byte	.LASF13
 2096 009a 02       		.uleb128 0x2
 2097 009b 01       		.byte	0x1
 2098 009c 08       		.byte	0x8
 2099 009d D9060000 		.4byte	.LASF14
 2100 00a1 05       		.uleb128 0x5
 2101 00a2 EB050000 		.4byte	.LASF15
 2102 00a6 02       		.byte	0x2
 2103 00a7 4B01     		.2byte	0x14b
 2104 00a9 AD000000 		.4byte	0xad
 2105 00ad 06       		.uleb128 0x6
 2106 00ae 6B000000 		.4byte	0x6b
 2107 00b2 05       		.uleb128 0x5
 2108 00b3 78040000 		.4byte	.LASF16
 2109 00b7 02       		.byte	0x2
ARM GAS  C:\Users\kevin\AppData\Local\Temp\ccEmeqeI.s 			page 81


 2110 00b8 4D01     		.2byte	0x14d
 2111 00ba BE000000 		.4byte	0xbe
 2112 00be 06       		.uleb128 0x6
 2113 00bf 81000000 		.4byte	0x81
 2114 00c3 05       		.uleb128 0x5
 2115 00c4 DE060000 		.4byte	.LASF17
 2116 00c8 02       		.byte	0x2
 2117 00c9 5D01     		.2byte	0x15d
 2118 00cb CF000000 		.4byte	0xcf
 2119 00cf 07       		.uleb128 0x7
 2120 00d0 04       		.byte	0x4
 2121 00d1 D5000000 		.4byte	0xd5
 2122 00d5 08       		.uleb128 0x8
 2123 00d6 02       		.uleb128 0x2
 2124 00d7 04       		.byte	0x4
 2125 00d8 07       		.byte	0x7
 2126 00d9 B9040000 		.4byte	.LASF18
 2127 00dd 07       		.uleb128 0x7
 2128 00de 04       		.byte	0x4
 2129 00df 6B000000 		.4byte	0x6b
 2130 00e3 07       		.uleb128 0x7
 2131 00e4 04       		.byte	0x4
 2132 00e5 E9000000 		.4byte	0xe9
 2133 00e9 09       		.uleb128 0x9
 2134 00ea 6B000000 		.4byte	0x6b
 2135 00ee 0A       		.uleb128 0xa
 2136 00ef 46090000 		.4byte	.LASF118
 2137 00f3 01       		.byte	0x1
 2138 00f4 DD02     		.2byte	0x2dd
 2139 00f6 81000000 		.4byte	0x81
 2140 00fa 01       		.byte	0x1
 2141 00fb 0B       		.uleb128 0xb
 2142 00fc 96020000 		.4byte	.LASF107
 2143 0100 01       		.byte	0x1
 2144 0101 FB02     		.2byte	0x2fb
 2145 0103 76000000 		.4byte	0x76
 2146 0107 01       		.byte	0x1
 2147 0108 19010000 		.4byte	0x119
 2148 010c 0C       		.uleb128 0xc
 2149 010d 04040000 		.4byte	.LASF24
 2150 0111 01       		.byte	0x1
 2151 0112 FB02     		.2byte	0x2fb
 2152 0114 81000000 		.4byte	0x81
 2153 0118 00       		.byte	0
 2154 0119 0D       		.uleb128 0xd
 2155 011a AD030000 		.4byte	.LASF19
 2156 011e 01       		.byte	0x1
 2157 011f F6       		.byte	0xf6
 2158 0120 00000000 		.4byte	.LFB34
 2159 0124 78000000 		.4byte	.LFE34-.LFB34
 2160 0128 01       		.uleb128 0x1
 2161 0129 9C       		.byte	0x9c
 2162 012a 7B010000 		.4byte	0x17b
 2163 012e 0E       		.uleb128 0xe
 2164 012f 0C020000 		.4byte	.LASF21
 2165 0133 01       		.byte	0x1
 2166 0134 F8       		.byte	0xf8
ARM GAS  C:\Users\kevin\AppData\Local\Temp\ccEmeqeI.s 			page 82


 2167 0135 81000000 		.4byte	0x81
 2168 0139 00000000 		.4byte	.LLST0
 2169 013d 0F       		.uleb128 0xf
 2170 013e 3C000000 		.4byte	.LVL10
 2171 0142 850E0000 		.4byte	0xe85
 2172 0146 51010000 		.4byte	0x151
 2173 014a 10       		.uleb128 0x10
 2174 014b 01       		.uleb128 0x1
 2175 014c 50       		.byte	0x50
 2176 014d 02       		.uleb128 0x2
 2177 014e 74       		.byte	0x74
 2178 014f 00       		.sleb128 0
 2179 0150 00       		.byte	0
 2180 0151 0F       		.uleb128 0xf
 2181 0152 44000000 		.4byte	.LVL11
 2182 0156 960E0000 		.4byte	0xe96
 2183 015a 65010000 		.4byte	0x165
 2184 015e 10       		.uleb128 0x10
 2185 015f 01       		.uleb128 0x1
 2186 0160 50       		.byte	0x50
 2187 0161 02       		.uleb128 0x2
 2188 0162 74       		.byte	0x74
 2189 0163 00       		.sleb128 0
 2190 0164 00       		.byte	0
 2191 0165 11       		.uleb128 0x11
 2192 0166 4C000000 		.4byte	.LVL12
 2193 016a B00E0000 		.4byte	0xeb0
 2194 016e 10       		.uleb128 0x10
 2195 016f 01       		.uleb128 0x1
 2196 0170 51       		.byte	0x51
 2197 0171 01       		.uleb128 0x1
 2198 0172 33       		.byte	0x33
 2199 0173 10       		.uleb128 0x10
 2200 0174 01       		.uleb128 0x1
 2201 0175 50       		.byte	0x50
 2202 0176 02       		.uleb128 0x2
 2203 0177 74       		.byte	0x74
 2204 0178 00       		.sleb128 0
 2205 0179 00       		.byte	0
 2206 017a 00       		.byte	0
 2207 017b 12       		.uleb128 0x12
 2208 017c 5B010000 		.4byte	.LASF20
 2209 0180 01       		.byte	0x1
 2210 0181 4B01     		.2byte	0x14b
 2211 0183 00000000 		.4byte	.LFB35
 2212 0187 3C000000 		.4byte	.LFE35-.LFB35
 2213 018b 01       		.uleb128 0x1
 2214 018c 9C       		.byte	0x9c
 2215 018d 05020000 		.4byte	0x205
 2216 0191 13       		.uleb128 0x13
 2217 0192 0C020000 		.4byte	.LASF21
 2218 0196 01       		.byte	0x1
 2219 0197 4D01     		.2byte	0x14d
 2220 0199 81000000 		.4byte	0x81
 2221 019d 5F000000 		.4byte	.LLST1
 2222 01a1 14       		.uleb128 0x14
 2223 01a2 06000000 		.4byte	.LVL13
ARM GAS  C:\Users\kevin\AppData\Local\Temp\ccEmeqeI.s 			page 83


 2224 01a6 C60E0000 		.4byte	0xec6
 2225 01aa 14       		.uleb128 0x14
 2226 01ab 0A000000 		.4byte	.LVL14
 2227 01af CD0E0000 		.4byte	0xecd
 2228 01b3 0F       		.uleb128 0xf
 2229 01b4 12000000 		.4byte	.LVL15
 2230 01b8 D40E0000 		.4byte	0xed4
 2231 01bc CB010000 		.4byte	0x1cb
 2232 01c0 10       		.uleb128 0x10
 2233 01c1 01       		.uleb128 0x1
 2234 01c2 51       		.byte	0x51
 2235 01c3 01       		.uleb128 0x1
 2236 01c4 30       		.byte	0x30
 2237 01c5 10       		.uleb128 0x10
 2238 01c6 01       		.uleb128 0x1
 2239 01c7 50       		.byte	0x50
 2240 01c8 01       		.uleb128 0x1
 2241 01c9 30       		.byte	0x30
 2242 01ca 00       		.byte	0
 2243 01cb 0F       		.uleb128 0xf
 2244 01cc 1A000000 		.4byte	.LVL16
 2245 01d0 EA0E0000 		.4byte	0xeea
 2246 01d4 E3010000 		.4byte	0x1e3
 2247 01d8 10       		.uleb128 0x10
 2248 01d9 01       		.uleb128 0x1
 2249 01da 51       		.byte	0x51
 2250 01db 01       		.uleb128 0x1
 2251 01dc 30       		.byte	0x30
 2252 01dd 10       		.uleb128 0x10
 2253 01de 01       		.uleb128 0x1
 2254 01df 50       		.byte	0x50
 2255 01e0 01       		.uleb128 0x1
 2256 01e1 30       		.byte	0x30
 2257 01e2 00       		.byte	0
 2258 01e3 14       		.uleb128 0x14
 2259 01e4 1E000000 		.4byte	.LVL17
 2260 01e8 000F0000 		.4byte	0xf00
 2261 01ec 14       		.uleb128 0x14
 2262 01ed 22000000 		.4byte	.LVL18
 2263 01f1 070F0000 		.4byte	0xf07
 2264 01f5 11       		.uleb128 0x11
 2265 01f6 32000000 		.4byte	.LVL21
 2266 01fa 0E0F0000 		.4byte	0xf0e
 2267 01fe 10       		.uleb128 0x10
 2268 01ff 01       		.uleb128 0x1
 2269 0200 50       		.byte	0x50
 2270 0201 01       		.uleb128 0x1
 2271 0202 3F       		.byte	0x3f
 2272 0203 00       		.byte	0
 2273 0204 00       		.byte	0
 2274 0205 12       		.uleb128 0x12
 2275 0206 F8040000 		.4byte	.LASF22
 2276 020a 01       		.byte	0x1
 2277 020b E201     		.2byte	0x1e2
 2278 020d 00000000 		.4byte	.LFB37
 2279 0211 2C000000 		.4byte	.LFE37-.LFB37
 2280 0215 01       		.uleb128 0x1
ARM GAS  C:\Users\kevin\AppData\Local\Temp\ccEmeqeI.s 			page 84


 2281 0216 9C       		.byte	0x9c
 2282 0217 41020000 		.4byte	0x241
 2283 021b 0F       		.uleb128 0xf
 2284 021c 08000000 		.4byte	.LVL22
 2285 0220 850E0000 		.4byte	0xe85
 2286 0224 2E020000 		.4byte	0x22e
 2287 0228 10       		.uleb128 0x10
 2288 0229 01       		.uleb128 0x1
 2289 022a 50       		.byte	0x50
 2290 022b 01       		.uleb128 0x1
 2291 022c 3F       		.byte	0x3f
 2292 022d 00       		.byte	0
 2293 022e 14       		.uleb128 0x14
 2294 022f 1E000000 		.4byte	.LVL23
 2295 0233 C60E0000 		.4byte	0xec6
 2296 0237 14       		.uleb128 0x14
 2297 0238 22000000 		.4byte	.LVL24
 2298 023c CD0E0000 		.4byte	0xecd
 2299 0240 00       		.byte	0
 2300 0241 15       		.uleb128 0x15
 2301 0242 EE000000 		.4byte	0xee
 2302 0246 00000000 		.4byte	.LFB42
 2303 024a 10000000 		.4byte	.LFE42-.LFB42
 2304 024e 01       		.uleb128 0x1
 2305 024f 9C       		.byte	0x9c
 2306 0250 16       		.uleb128 0x16
 2307 0251 FB000000 		.4byte	0xfb
 2308 0255 00000000 		.4byte	.LFB43
 2309 0259 10000000 		.4byte	.LFE43-.LFB43
 2310 025d 01       		.uleb128 0x1
 2311 025e 9C       		.byte	0x9c
 2312 025f 6D020000 		.4byte	0x26d
 2313 0263 17       		.uleb128 0x17
 2314 0264 0C010000 		.4byte	0x10c
 2315 0268 72000000 		.4byte	.LLST2
 2316 026c 00       		.byte	0
 2317 026d 12       		.uleb128 0x12
 2318 026e E6070000 		.4byte	.LASF23
 2319 0272 01       		.byte	0x1
 2320 0273 1603     		.2byte	0x316
 2321 0275 00000000 		.4byte	.LFB44
 2322 0279 10000000 		.4byte	.LFE44-.LFB44
 2323 027d 01       		.uleb128 0x1
 2324 027e 9C       		.byte	0x9c
 2325 027f A2020000 		.4byte	0x2a2
 2326 0283 18       		.uleb128 0x18
 2327 0284 04040000 		.4byte	.LASF24
 2328 0288 01       		.byte	0x1
 2329 0289 1603     		.2byte	0x316
 2330 028b 81000000 		.4byte	0x81
 2331 028f 93000000 		.4byte	.LLST3
 2332 0293 19       		.uleb128 0x19
 2333 0294 00030000 		.4byte	.LASF25
 2334 0298 01       		.byte	0x1
 2335 0299 1603     		.2byte	0x316
 2336 029b 76000000 		.4byte	0x76
 2337 029f 01       		.uleb128 0x1
ARM GAS  C:\Users\kevin\AppData\Local\Temp\ccEmeqeI.s 			page 85


 2338 02a0 51       		.byte	0x51
 2339 02a1 00       		.byte	0
 2340 02a2 1A       		.uleb128 0x1a
 2341 02a3 C6000000 		.4byte	.LASF54
 2342 02a7 01       		.byte	0x1
 2343 02a8 6903     		.2byte	0x369
 2344 02aa 81000000 		.4byte	0x81
 2345 02ae 00000000 		.4byte	.LFB45
 2346 02b2 0C000000 		.4byte	.LFE45-.LFB45
 2347 02b6 01       		.uleb128 0x1
 2348 02b7 9C       		.byte	0x9c
 2349 02b8 CD020000 		.4byte	0x2cd
 2350 02bc 18       		.uleb128 0x18
 2351 02bd 55060000 		.4byte	.LASF26
 2352 02c1 01       		.byte	0x1
 2353 02c2 6903     		.2byte	0x369
 2354 02c4 81000000 		.4byte	0x81
 2355 02c8 B4000000 		.4byte	.LLST4
 2356 02cc 00       		.byte	0
 2357 02cd 12       		.uleb128 0x12
 2358 02ce 58020000 		.4byte	.LASF27
 2359 02d2 01       		.byte	0x1
 2360 02d3 2204     		.2byte	0x422
 2361 02d5 00000000 		.4byte	.LFB47
 2362 02d9 48000000 		.4byte	.LFE47-.LFB47
 2363 02dd 01       		.uleb128 0x1
 2364 02de 9C       		.byte	0x9c
 2365 02df 56030000 		.4byte	0x356
 2366 02e3 18       		.uleb128 0x18
 2367 02e4 04040000 		.4byte	.LASF24
 2368 02e8 01       		.byte	0x1
 2369 02e9 2204     		.2byte	0x422
 2370 02eb 81000000 		.4byte	0x81
 2371 02ef D5000000 		.4byte	.LLST5
 2372 02f3 13       		.uleb128 0x13
 2373 02f4 6B010000 		.4byte	.LASF28
 2374 02f8 01       		.byte	0x1
 2375 02f9 2404     		.2byte	0x424
 2376 02fb 6B000000 		.4byte	0x6b
 2377 02ff F6000000 		.4byte	.LLST6
 2378 0303 13       		.uleb128 0x13
 2379 0304 16060000 		.4byte	.LASF29
 2380 0308 01       		.byte	0x1
 2381 0309 2504     		.2byte	0x425
 2382 030b 6B000000 		.4byte	0x6b
 2383 030f 25010000 		.4byte	.LLST7
 2384 0313 13       		.uleb128 0x13
 2385 0314 B7010000 		.4byte	.LASF30
 2386 0318 01       		.byte	0x1
 2387 0319 2604     		.2byte	0x426
 2388 031b 6B000000 		.4byte	0x6b
 2389 031f 54010000 		.4byte	.LLST8
 2390 0323 13       		.uleb128 0x13
 2391 0324 42080000 		.4byte	.LASF31
 2392 0328 01       		.byte	0x1
 2393 0329 2704     		.2byte	0x427
 2394 032b 81000000 		.4byte	0x81
ARM GAS  C:\Users\kevin\AppData\Local\Temp\ccEmeqeI.s 			page 86


 2395 032f 67010000 		.4byte	.LLST9
 2396 0333 13       		.uleb128 0x13
 2397 0334 E6020000 		.4byte	.LASF32
 2398 0338 01       		.byte	0x1
 2399 0339 2804     		.2byte	0x428
 2400 033b 81000000 		.4byte	0x81
 2401 033f 7A010000 		.4byte	.LLST10
 2402 0343 14       		.uleb128 0x14
 2403 0344 16000000 		.4byte	.LVL36
 2404 0348 1F0F0000 		.4byte	0xf1f
 2405 034c 14       		.uleb128 0x14
 2406 034d 42000000 		.4byte	.LVL41
 2407 0351 2A0F0000 		.4byte	0xf2a
 2408 0355 00       		.byte	0
 2409 0356 12       		.uleb128 0x12
 2410 0357 12080000 		.4byte	.LASF33
 2411 035b 01       		.byte	0x1
 2412 035c 5704     		.2byte	0x457
 2413 035e 00000000 		.4byte	.LFB48
 2414 0362 68000000 		.4byte	.LFE48-.LFB48
 2415 0366 01       		.uleb128 0x1
 2416 0367 9C       		.byte	0x9c
 2417 0368 FB030000 		.4byte	0x3fb
 2418 036c 18       		.uleb128 0x18
 2419 036d 04040000 		.4byte	.LASF24
 2420 0371 01       		.byte	0x1
 2421 0372 5704     		.2byte	0x457
 2422 0374 81000000 		.4byte	0x81
 2423 0378 D5010000 		.4byte	.LLST11
 2424 037c 13       		.uleb128 0x13
 2425 037d B7010000 		.4byte	.LASF30
 2426 0381 01       		.byte	0x1
 2427 0382 5904     		.2byte	0x459
 2428 0384 6B000000 		.4byte	0x6b
 2429 0388 F6010000 		.4byte	.LLST12
 2430 038c 13       		.uleb128 0x13
 2431 038d 42080000 		.4byte	.LASF31
 2432 0391 01       		.byte	0x1
 2433 0392 5A04     		.2byte	0x45a
 2434 0394 81000000 		.4byte	0x81
 2435 0398 09020000 		.4byte	.LLST13
 2436 039c 13       		.uleb128 0x13
 2437 039d E6020000 		.4byte	.LASF32
 2438 03a1 01       		.byte	0x1
 2439 03a2 5C04     		.2byte	0x45c
 2440 03a4 81000000 		.4byte	0x81
 2441 03a8 27020000 		.4byte	.LLST14
 2442 03ac 13       		.uleb128 0x13
 2443 03ad 16060000 		.4byte	.LASF29
 2444 03b1 01       		.byte	0x1
 2445 03b2 5D04     		.2byte	0x45d
 2446 03b4 6B000000 		.4byte	0x6b
 2447 03b8 82020000 		.4byte	.LLST15
 2448 03bc 13       		.uleb128 0x13
 2449 03bd 6B010000 		.4byte	.LASF28
 2450 03c1 01       		.byte	0x1
 2451 03c2 5E04     		.2byte	0x45e
ARM GAS  C:\Users\kevin\AppData\Local\Temp\ccEmeqeI.s 			page 87


 2452 03c4 6B000000 		.4byte	0x6b
 2453 03c8 B1020000 		.4byte	.LLST16
 2454 03cc 13       		.uleb128 0x13
 2455 03cd 2C020000 		.4byte	.LASF34
 2456 03d1 01       		.byte	0x1
 2457 03d2 6004     		.2byte	0x460
 2458 03d4 81000000 		.4byte	0x81
 2459 03d8 DF020000 		.4byte	.LLST17
 2460 03dc 1B       		.uleb128 0x1b
 2461 03dd AD020000 		.4byte	.LASF59
 2462 03e1 01       		.byte	0x1
 2463 03e2 6104     		.2byte	0x461
 2464 03e4 81000000 		.4byte	0x81
 2465 03e8 14       		.uleb128 0x14
 2466 03e9 3A000000 		.4byte	.LVL48
 2467 03ed 1F0F0000 		.4byte	0xf1f
 2468 03f1 14       		.uleb128 0x14
 2469 03f2 50000000 		.4byte	.LVL54
 2470 03f6 2A0F0000 		.4byte	0xf2a
 2471 03fa 00       		.byte	0
 2472 03fb 12       		.uleb128 0x12
 2473 03fc 48030000 		.4byte	.LASF35
 2474 0400 01       		.byte	0x1
 2475 0401 8403     		.2byte	0x384
 2476 0403 00000000 		.4byte	.LFB46
 2477 0407 16000000 		.4byte	.LFE46-.LFB46
 2478 040b 01       		.uleb128 0x1
 2479 040c 9C       		.byte	0x9c
 2480 040d 57040000 		.4byte	0x457
 2481 0411 13       		.uleb128 0x13
 2482 0412 5D000000 		.4byte	.LASF36
 2483 0416 01       		.byte	0x1
 2484 0417 8603     		.2byte	0x386
 2485 0419 81000000 		.4byte	0x81
 2486 041d F2020000 		.4byte	.LLST18
 2487 0421 0F       		.uleb128 0xf
 2488 0422 08000000 		.4byte	.LVL59
 2489 0426 56030000 		.4byte	0x356
 2490 042a 34040000 		.4byte	0x434
 2491 042e 10       		.uleb128 0x10
 2492 042f 01       		.uleb128 0x1
 2493 0430 50       		.byte	0x50
 2494 0431 01       		.uleb128 0x1
 2495 0432 30       		.byte	0x30
 2496 0433 00       		.byte	0
 2497 0434 0F       		.uleb128 0xf
 2498 0435 0E000000 		.4byte	.LVL60
 2499 0439 56030000 		.4byte	0x356
 2500 043d 47040000 		.4byte	0x447
 2501 0441 10       		.uleb128 0x10
 2502 0442 01       		.uleb128 0x1
 2503 0443 50       		.byte	0x50
 2504 0444 01       		.uleb128 0x1
 2505 0445 31       		.byte	0x31
 2506 0446 00       		.byte	0
 2507 0447 11       		.uleb128 0x11
 2508 0448 14000000 		.4byte	.LVL61
ARM GAS  C:\Users\kevin\AppData\Local\Temp\ccEmeqeI.s 			page 88


 2509 044c 56030000 		.4byte	0x356
 2510 0450 10       		.uleb128 0x10
 2511 0451 01       		.uleb128 0x1
 2512 0452 50       		.byte	0x50
 2513 0453 01       		.uleb128 0x1
 2514 0454 32       		.byte	0x32
 2515 0455 00       		.byte	0
 2516 0456 00       		.byte	0
 2517 0457 12       		.uleb128 0x12
 2518 0458 97010000 		.4byte	.LASF37
 2519 045c 01       		.byte	0x1
 2520 045d 2105     		.2byte	0x521
 2521 045f 00000000 		.4byte	.LFB51
 2522 0463 24000000 		.4byte	.LFE51-.LFB51
 2523 0467 01       		.uleb128 0x1
 2524 0468 9C       		.byte	0x9c
 2525 0469 BE040000 		.4byte	0x4be
 2526 046d 18       		.uleb128 0x18
 2527 046e E2040000 		.4byte	.LASF38
 2528 0472 01       		.byte	0x1
 2529 0473 2105     		.2byte	0x521
 2530 0475 81000000 		.4byte	0x81
 2531 0479 2A030000 		.4byte	.LLST19
 2532 047d 18       		.uleb128 0x18
 2533 047e 9A070000 		.4byte	.LASF39
 2534 0482 01       		.byte	0x1
 2535 0483 2105     		.2byte	0x521
 2536 0485 81000000 		.4byte	0x81
 2537 0489 4B030000 		.4byte	.LLST20
 2538 048d 18       		.uleb128 0x18
 2539 048e 25040000 		.4byte	.LASF40
 2540 0492 01       		.byte	0x1
 2541 0493 2105     		.2byte	0x521
 2542 0495 81000000 		.4byte	0x81
 2543 0499 6C030000 		.4byte	.LLST21
 2544 049d 13       		.uleb128 0x13
 2545 049e 6B010000 		.4byte	.LASF28
 2546 04a2 01       		.byte	0x1
 2547 04a3 2305     		.2byte	0x523
 2548 04a5 81000000 		.4byte	0x81
 2549 04a9 8D030000 		.4byte	.LLST22
 2550 04ad 13       		.uleb128 0x13
 2551 04ae 42080000 		.4byte	.LASF31
 2552 04b2 01       		.byte	0x1
 2553 04b3 2405     		.2byte	0x524
 2554 04b5 81000000 		.4byte	0x81
 2555 04b9 BF030000 		.4byte	.LLST23
 2556 04bd 00       		.byte	0
 2557 04be 12       		.uleb128 0x12
 2558 04bf D8030000 		.4byte	.LASF41
 2559 04c3 01       		.byte	0x1
 2560 04c4 A404     		.2byte	0x4a4
 2561 04c6 00000000 		.4byte	.LFB49
 2562 04ca 2C000000 		.4byte	.LFE49-.LFB49
 2563 04ce 01       		.uleb128 0x1
 2564 04cf 9C       		.byte	0x9c
 2565 04d0 89050000 		.4byte	0x589
ARM GAS  C:\Users\kevin\AppData\Local\Temp\ccEmeqeI.s 			page 89


 2566 04d4 18       		.uleb128 0x18
 2567 04d5 E2040000 		.4byte	.LASF38
 2568 04d9 01       		.byte	0x1
 2569 04da A404     		.2byte	0x4a4
 2570 04dc 81000000 		.4byte	0x81
 2571 04e0 DD030000 		.4byte	.LLST24
 2572 04e4 13       		.uleb128 0x13
 2573 04e5 00000000 		.4byte	.LASF42
 2574 04e9 01       		.byte	0x1
 2575 04ea A604     		.2byte	0x4a6
 2576 04ec 6B000000 		.4byte	0x6b
 2577 04f0 09040000 		.4byte	.LLST25
 2578 04f4 13       		.uleb128 0x13
 2579 04f5 11030000 		.4byte	.LASF43
 2580 04f9 01       		.byte	0x1
 2581 04fa AB04     		.2byte	0x4ab
 2582 04fc 81000000 		.4byte	0x81
 2583 0500 41040000 		.4byte	.LLST26
 2584 0504 13       		.uleb128 0x13
 2585 0505 24060000 		.4byte	.LASF44
 2586 0509 01       		.byte	0x1
 2587 050a AC04     		.2byte	0x4ac
 2588 050c 81000000 		.4byte	0x81
 2589 0510 61040000 		.4byte	.LLST27
 2590 0514 0F       		.uleb128 0xf
 2591 0515 0C000000 		.4byte	.LVL71
 2592 0519 57040000 		.4byte	0x457
 2593 051d 32050000 		.4byte	0x532
 2594 0521 10       		.uleb128 0x10
 2595 0522 01       		.uleb128 0x1
 2596 0523 52       		.byte	0x52
 2597 0524 01       		.uleb128 0x1
 2598 0525 31       		.byte	0x31
 2599 0526 10       		.uleb128 0x10
 2600 0527 01       		.uleb128 0x1
 2601 0528 51       		.byte	0x51
 2602 0529 01       		.uleb128 0x1
 2603 052a 30       		.byte	0x30
 2604 052b 10       		.uleb128 0x10
 2605 052c 01       		.uleb128 0x1
 2606 052d 50       		.byte	0x50
 2607 052e 02       		.uleb128 0x2
 2608 052f 74       		.byte	0x74
 2609 0530 00       		.sleb128 0
 2610 0531 00       		.byte	0
 2611 0532 0F       		.uleb128 0xf
 2612 0533 16000000 		.4byte	.LVL72
 2613 0537 57040000 		.4byte	0x457
 2614 053b 50050000 		.4byte	0x550
 2615 053f 10       		.uleb128 0x10
 2616 0540 01       		.uleb128 0x1
 2617 0541 52       		.byte	0x52
 2618 0542 01       		.uleb128 0x1
 2619 0543 31       		.byte	0x31
 2620 0544 10       		.uleb128 0x10
 2621 0545 01       		.uleb128 0x1
 2622 0546 51       		.byte	0x51
ARM GAS  C:\Users\kevin\AppData\Local\Temp\ccEmeqeI.s 			page 90


 2623 0547 01       		.uleb128 0x1
 2624 0548 37       		.byte	0x37
 2625 0549 10       		.uleb128 0x10
 2626 054a 01       		.uleb128 0x1
 2627 054b 50       		.byte	0x50
 2628 054c 02       		.uleb128 0x2
 2629 054d 74       		.byte	0x74
 2630 054e 00       		.sleb128 0
 2631 054f 00       		.byte	0
 2632 0550 0F       		.uleb128 0xf
 2633 0551 20000000 		.4byte	.LVL73
 2634 0555 57040000 		.4byte	0x457
 2635 0559 6E050000 		.4byte	0x56e
 2636 055d 10       		.uleb128 0x10
 2637 055e 01       		.uleb128 0x1
 2638 055f 52       		.byte	0x52
 2639 0560 01       		.uleb128 0x1
 2640 0561 30       		.byte	0x30
 2641 0562 10       		.uleb128 0x10
 2642 0563 01       		.uleb128 0x1
 2643 0564 51       		.byte	0x51
 2644 0565 01       		.uleb128 0x1
 2645 0566 30       		.byte	0x30
 2646 0567 10       		.uleb128 0x10
 2647 0568 01       		.uleb128 0x1
 2648 0569 50       		.byte	0x50
 2649 056a 02       		.uleb128 0x2
 2650 056b 74       		.byte	0x74
 2651 056c 00       		.sleb128 0
 2652 056d 00       		.byte	0
 2653 056e 11       		.uleb128 0x11
 2654 056f 2A000000 		.4byte	.LVL74
 2655 0573 57040000 		.4byte	0x457
 2656 0577 10       		.uleb128 0x10
 2657 0578 01       		.uleb128 0x1
 2658 0579 52       		.byte	0x52
 2659 057a 01       		.uleb128 0x1
 2660 057b 34       		.byte	0x34
 2661 057c 10       		.uleb128 0x10
 2662 057d 01       		.uleb128 0x1
 2663 057e 51       		.byte	0x51
 2664 057f 01       		.uleb128 0x1
 2665 0580 32       		.byte	0x32
 2666 0581 10       		.uleb128 0x10
 2667 0582 01       		.uleb128 0x1
 2668 0583 50       		.byte	0x50
 2669 0584 02       		.uleb128 0x2
 2670 0585 74       		.byte	0x74
 2671 0586 00       		.sleb128 0
 2672 0587 00       		.byte	0
 2673 0588 00       		.byte	0
 2674 0589 12       		.uleb128 0x12
 2675 058a 34010000 		.4byte	.LASF45
 2676 058e 01       		.byte	0x1
 2677 058f ED04     		.2byte	0x4ed
 2678 0591 00000000 		.4byte	.LFB50
 2679 0595 24000000 		.4byte	.LFE50-.LFB50
ARM GAS  C:\Users\kevin\AppData\Local\Temp\ccEmeqeI.s 			page 91


 2680 0599 01       		.uleb128 0x1
 2681 059a 9C       		.byte	0x9c
 2682 059b BF050000 		.4byte	0x5bf
 2683 059f 13       		.uleb128 0x13
 2684 05a0 42080000 		.4byte	.LASF31
 2685 05a4 01       		.byte	0x1
 2686 05a5 EF04     		.2byte	0x4ef
 2687 05a7 81000000 		.4byte	0x81
 2688 05ab 8D040000 		.4byte	.LLST28
 2689 05af 11       		.uleb128 0x11
 2690 05b0 08000000 		.4byte	.LVL76
 2691 05b4 BE040000 		.4byte	0x4be
 2692 05b8 10       		.uleb128 0x10
 2693 05b9 01       		.uleb128 0x1
 2694 05ba 50       		.byte	0x50
 2695 05bb 01       		.uleb128 0x1
 2696 05bc 30       		.byte	0x30
 2697 05bd 00       		.byte	0
 2698 05be 00       		.byte	0
 2699 05bf 12       		.uleb128 0x12
 2700 05c0 69080000 		.4byte	.LASF46
 2701 05c4 01       		.byte	0x1
 2702 05c5 4505     		.2byte	0x545
 2703 05c7 00000000 		.4byte	.LFB52
 2704 05cb A0000000 		.4byte	.LFE52-.LFB52
 2705 05cf 01       		.uleb128 0x1
 2706 05d0 9C       		.byte	0x9c
 2707 05d1 D5060000 		.4byte	0x6d5
 2708 05d5 18       		.uleb128 0x18
 2709 05d6 04040000 		.4byte	.LASF24
 2710 05da 01       		.byte	0x1
 2711 05db 4505     		.2byte	0x545
 2712 05dd 81000000 		.4byte	0x81
 2713 05e1 AB040000 		.4byte	.LLST29
 2714 05e5 13       		.uleb128 0x13
 2715 05e6 55060000 		.4byte	.LASF26
 2716 05ea 01       		.byte	0x1
 2717 05eb 4705     		.2byte	0x547
 2718 05ed 6B000000 		.4byte	0x6b
 2719 05f1 D7040000 		.4byte	.LLST30
 2720 05f5 13       		.uleb128 0x13
 2721 05f6 B7010000 		.4byte	.LASF30
 2722 05fa 01       		.byte	0x1
 2723 05fb 4805     		.2byte	0x548
 2724 05fd 6B000000 		.4byte	0x6b
 2725 0601 16050000 		.4byte	.LLST31
 2726 0605 13       		.uleb128 0x13
 2727 0606 0C020000 		.4byte	.LASF21
 2728 060a 01       		.byte	0x1
 2729 060b 4905     		.2byte	0x549
 2730 060d 81000000 		.4byte	0x81
 2731 0611 34050000 		.4byte	.LLST32
 2732 0615 13       		.uleb128 0x13
 2733 0616 6E020000 		.4byte	.LASF47
 2734 061a 01       		.byte	0x1
 2735 061b 4A05     		.2byte	0x54a
 2736 061d 81000000 		.4byte	0x81
ARM GAS  C:\Users\kevin\AppData\Local\Temp\ccEmeqeI.s 			page 92


 2737 0621 83050000 		.4byte	.LLST33
 2738 0625 0F       		.uleb128 0xf
 2739 0626 22000000 		.4byte	.LVL83
 2740 062a D40E0000 		.4byte	0xed4
 2741 062e 4B060000 		.4byte	0x64b
 2742 0632 10       		.uleb128 0x10
 2743 0633 01       		.uleb128 0x1
 2744 0634 51       		.byte	0x51
 2745 0635 01       		.uleb128 0x1
 2746 0636 30       		.byte	0x30
 2747 0637 10       		.uleb128 0x10
 2748 0638 01       		.uleb128 0x1
 2749 0639 50       		.byte	0x50
 2750 063a 0F       		.uleb128 0xf
 2751 063b 74       		.byte	0x74
 2752 063c 00       		.sleb128 0
 2753 063d 03       		.byte	0x3
 2754 063e 53000000 		.4byte	.LANCHOR1+83
 2755 0642 22       		.byte	0x22
 2756 0643 94       		.byte	0x94
 2757 0644 01       		.byte	0x1
 2758 0645 08       		.byte	0x8
 2759 0646 FF       		.byte	0xff
 2760 0647 1A       		.byte	0x1a
 2761 0648 31       		.byte	0x31
 2762 0649 1C       		.byte	0x1c
 2763 064a 00       		.byte	0
 2764 064b 0F       		.uleb128 0xf
 2765 064c 2E000000 		.4byte	.LVL84
 2766 0650 EA0E0000 		.4byte	0xeea
 2767 0654 6E060000 		.4byte	0x66e
 2768 0658 10       		.uleb128 0x10
 2769 0659 01       		.uleb128 0x1
 2770 065a 51       		.byte	0x51
 2771 065b 01       		.uleb128 0x1
 2772 065c 30       		.byte	0x30
 2773 065d 10       		.uleb128 0x10
 2774 065e 01       		.uleb128 0x1
 2775 065f 50       		.byte	0x50
 2776 0660 0C       		.uleb128 0xc
 2777 0661 75       		.byte	0x75
 2778 0662 00       		.sleb128 0
 2779 0663 74       		.byte	0x74
 2780 0664 00       		.sleb128 0
 2781 0665 22       		.byte	0x22
 2782 0666 94       		.byte	0x94
 2783 0667 01       		.byte	0x1
 2784 0668 08       		.byte	0x8
 2785 0669 FF       		.byte	0xff
 2786 066a 1A       		.byte	0x1a
 2787 066b 31       		.byte	0x31
 2788 066c 1C       		.byte	0x1c
 2789 066d 00       		.byte	0
 2790 066e 0F       		.uleb128 0xf
 2791 066f 34000000 		.4byte	.LVL85
 2792 0673 850E0000 		.4byte	0xe85
 2793 0677 81060000 		.4byte	0x681
ARM GAS  C:\Users\kevin\AppData\Local\Temp\ccEmeqeI.s 			page 93


 2794 067b 10       		.uleb128 0x10
 2795 067c 01       		.uleb128 0x1
 2796 067d 50       		.byte	0x50
 2797 067e 01       		.uleb128 0x1
 2798 067f 3F       		.byte	0x3f
 2799 0680 00       		.byte	0
 2800 0681 0F       		.uleb128 0xf
 2801 0682 60000000 		.4byte	.LVL93
 2802 0686 0E0F0000 		.4byte	0xf0e
 2803 068a 94060000 		.4byte	0x694
 2804 068e 10       		.uleb128 0x10
 2805 068f 01       		.uleb128 0x1
 2806 0690 50       		.byte	0x50
 2807 0691 01       		.uleb128 0x1
 2808 0692 3F       		.byte	0x3f
 2809 0693 00       		.byte	0
 2810 0694 0F       		.uleb128 0xf
 2811 0695 66000000 		.4byte	.LVL94
 2812 0699 CD020000 		.4byte	0x2cd
 2813 069d A8060000 		.4byte	0x6a8
 2814 06a1 10       		.uleb128 0x10
 2815 06a2 01       		.uleb128 0x1
 2816 06a3 50       		.byte	0x50
 2817 06a4 02       		.uleb128 0x2
 2818 06a5 74       		.byte	0x74
 2819 06a6 00       		.sleb128 0
 2820 06a7 00       		.byte	0
 2821 06a8 14       		.uleb128 0x14
 2822 06a9 6A000000 		.4byte	.LVL95
 2823 06ad 1F0F0000 		.4byte	0xf1f
 2824 06b1 0F       		.uleb128 0xf
 2825 06b2 74000000 		.4byte	.LVL98
 2826 06b6 3B0F0000 		.4byte	0xf3b
 2827 06ba C4060000 		.4byte	0x6c4
 2828 06be 10       		.uleb128 0x10
 2829 06bf 01       		.uleb128 0x1
 2830 06c0 50       		.byte	0x50
 2831 06c1 01       		.uleb128 0x1
 2832 06c2 30       		.byte	0x30
 2833 06c3 00       		.byte	0
 2834 06c4 11       		.uleb128 0x11
 2835 06c5 7E000000 		.4byte	.LVL99
 2836 06c9 2A0F0000 		.4byte	0xf2a
 2837 06cd 10       		.uleb128 0x10
 2838 06ce 01       		.uleb128 0x1
 2839 06cf 50       		.byte	0x50
 2840 06d0 02       		.uleb128 0x2
 2841 06d1 74       		.byte	0x74
 2842 06d2 00       		.sleb128 0
 2843 06d3 00       		.byte	0
 2844 06d4 00       		.byte	0
 2845 06d5 12       		.uleb128 0x12
 2846 06d6 1E030000 		.4byte	.LASF48
 2847 06da 01       		.byte	0x1
 2848 06db 3802     		.2byte	0x238
 2849 06dd 00000000 		.4byte	.LFB39
 2850 06e1 1C000000 		.4byte	.LFE39-.LFB39
ARM GAS  C:\Users\kevin\AppData\Local\Temp\ccEmeqeI.s 			page 94


 2851 06e5 01       		.uleb128 0x1
 2852 06e6 9C       		.byte	0x9c
 2853 06e7 0D070000 		.4byte	0x70d
 2854 06eb 18       		.uleb128 0x18
 2855 06ec 04040000 		.4byte	.LASF24
 2856 06f0 01       		.byte	0x1
 2857 06f1 3802     		.2byte	0x238
 2858 06f3 81000000 		.4byte	0x81
 2859 06f7 B6050000 		.4byte	.LLST34
 2860 06fb 11       		.uleb128 0x11
 2861 06fc 14000000 		.4byte	.LVL104
 2862 0700 BF050000 		.4byte	0x5bf
 2863 0704 10       		.uleb128 0x10
 2864 0705 01       		.uleb128 0x1
 2865 0706 50       		.byte	0x50
 2866 0707 03       		.uleb128 0x3
 2867 0708 F3       		.byte	0xf3
 2868 0709 01       		.uleb128 0x1
 2869 070a 50       		.byte	0x50
 2870 070b 00       		.byte	0
 2871 070c 00       		.byte	0
 2872 070d 12       		.uleb128 0x12
 2873 070e C1070000 		.4byte	.LASF49
 2874 0712 01       		.byte	0x1
 2875 0713 0206     		.2byte	0x602
 2876 0715 00000000 		.4byte	.LFB53
 2877 0719 54000000 		.4byte	.LFE53-.LFB53
 2878 071d 01       		.uleb128 0x1
 2879 071e 9C       		.byte	0x9c
 2880 071f 7B070000 		.4byte	0x77b
 2881 0723 18       		.uleb128 0x18
 2882 0724 04040000 		.4byte	.LASF24
 2883 0728 01       		.byte	0x1
 2884 0729 0206     		.2byte	0x602
 2885 072b 81000000 		.4byte	0x81
 2886 072f D7050000 		.4byte	.LLST35
 2887 0733 13       		.uleb128 0x13
 2888 0734 0C020000 		.4byte	.LASF21
 2889 0738 01       		.byte	0x1
 2890 0739 0406     		.2byte	0x604
 2891 073b 81000000 		.4byte	0x81
 2892 073f F8050000 		.4byte	.LLST36
 2893 0743 0F       		.uleb128 0xf
 2894 0744 12000000 		.4byte	.LVL106
 2895 0748 56030000 		.4byte	0x356
 2896 074c 58070000 		.4byte	0x758
 2897 0750 10       		.uleb128 0x10
 2898 0751 01       		.uleb128 0x1
 2899 0752 50       		.byte	0x50
 2900 0753 03       		.uleb128 0x3
 2901 0754 F3       		.byte	0xf3
 2902 0755 01       		.uleb128 0x1
 2903 0756 50       		.byte	0x50
 2904 0757 00       		.byte	0
 2905 0758 0F       		.uleb128 0xf
 2906 0759 18000000 		.4byte	.LVL107
 2907 075d 850E0000 		.4byte	0xe85
ARM GAS  C:\Users\kevin\AppData\Local\Temp\ccEmeqeI.s 			page 95


 2908 0761 6B070000 		.4byte	0x76b
 2909 0765 10       		.uleb128 0x10
 2910 0766 01       		.uleb128 0x1
 2911 0767 50       		.byte	0x50
 2912 0768 01       		.uleb128 0x1
 2913 0769 3F       		.byte	0x3f
 2914 076a 00       		.byte	0
 2915 076b 11       		.uleb128 0x11
 2916 076c 38000000 		.4byte	.LVL113
 2917 0770 0E0F0000 		.4byte	0xf0e
 2918 0774 10       		.uleb128 0x10
 2919 0775 01       		.uleb128 0x1
 2920 0776 50       		.byte	0x50
 2921 0777 01       		.uleb128 0x1
 2922 0778 3F       		.byte	0x3f
 2923 0779 00       		.byte	0
 2924 077a 00       		.byte	0
 2925 077b 12       		.uleb128 0x12
 2926 077c 9B080000 		.4byte	.LASF50
 2927 0780 01       		.byte	0x1
 2928 0781 5C06     		.2byte	0x65c
 2929 0783 00000000 		.4byte	.LFB54
 2930 0787 34000000 		.4byte	.LFE54-.LFB54
 2931 078b 01       		.uleb128 0x1
 2932 078c 9C       		.byte	0x9c
 2933 078d C2070000 		.4byte	0x7c2
 2934 0791 18       		.uleb128 0x18
 2935 0792 9A070000 		.4byte	.LASF39
 2936 0796 01       		.byte	0x1
 2937 0797 5C06     		.2byte	0x65c
 2938 0799 81000000 		.4byte	0x81
 2939 079d 25060000 		.4byte	.LLST37
 2940 07a1 18       		.uleb128 0x18
 2941 07a2 25040000 		.4byte	.LASF40
 2942 07a6 01       		.byte	0x1
 2943 07a7 5C06     		.2byte	0x65c
 2944 07a9 81000000 		.4byte	0x81
 2945 07ad 46060000 		.4byte	.LLST38
 2946 07b1 13       		.uleb128 0x13
 2947 07b2 0C020000 		.4byte	.LASF21
 2948 07b6 01       		.byte	0x1
 2949 07b7 5E06     		.2byte	0x65e
 2950 07b9 81000000 		.4byte	0x81
 2951 07bd 67060000 		.4byte	.LLST39
 2952 07c1 00       		.byte	0
 2953 07c2 12       		.uleb128 0x12
 2954 07c3 12090000 		.4byte	.LASF51
 2955 07c7 01       		.byte	0x1
 2956 07c8 7F06     		.2byte	0x67f
 2957 07ca 00000000 		.4byte	.LFB55
 2958 07ce 14000000 		.4byte	.LFE55-.LFB55
 2959 07d2 01       		.uleb128 0x1
 2960 07d3 9C       		.byte	0x9c
 2961 07d4 F9070000 		.4byte	0x7f9
 2962 07d8 18       		.uleb128 0x18
 2963 07d9 55010000 		.4byte	.LASF52
 2964 07dd 01       		.byte	0x1
ARM GAS  C:\Users\kevin\AppData\Local\Temp\ccEmeqeI.s 			page 96


 2965 07de 7F06     		.2byte	0x67f
 2966 07e0 81000000 		.4byte	0x81
 2967 07e4 85060000 		.4byte	.LLST40
 2968 07e8 13       		.uleb128 0x13
 2969 07e9 0C020000 		.4byte	.LASF21
 2970 07ed 01       		.byte	0x1
 2971 07ee 8106     		.2byte	0x681
 2972 07f0 81000000 		.4byte	0x81
 2973 07f4 C2060000 		.4byte	.LLST41
 2974 07f8 00       		.byte	0
 2975 07f9 0D       		.uleb128 0xd
 2976 07fa 7A080000 		.4byte	.LASF53
 2977 07fe 01       		.byte	0x1
 2978 07ff B5       		.byte	0xb5
 2979 0800 00000000 		.4byte	.LFB33
 2980 0804 20000000 		.4byte	.LFE33-.LFB33
 2981 0808 01       		.uleb128 0x1
 2982 0809 9C       		.byte	0x9c
 2983 080a 44080000 		.4byte	0x844
 2984 080e 0E       		.uleb128 0xe
 2985 080f 00000000 		.4byte	.LASF42
 2986 0813 01       		.byte	0x1
 2987 0814 B7       		.byte	0xb7
 2988 0815 81000000 		.4byte	0x81
 2989 0819 E0060000 		.4byte	.LLST42
 2990 081d 14       		.uleb128 0x14
 2991 081e 10000000 		.4byte	.LVL129
 2992 0822 19010000 		.4byte	0x119
 2993 0826 0F       		.uleb128 0xf
 2994 0827 16000000 		.4byte	.LVL130
 2995 082b C2070000 		.4byte	0x7c2
 2996 082f 3A080000 		.4byte	0x83a
 2997 0833 10       		.uleb128 0x10
 2998 0834 01       		.uleb128 0x1
 2999 0835 50       		.byte	0x50
 3000 0836 02       		.uleb128 0x2
 3001 0837 74       		.byte	0x74
 3002 0838 00       		.sleb128 0
 3003 0839 00       		.byte	0
 3004 083a 14       		.uleb128 0x14
 3005 083b 1A000000 		.4byte	.LVL131
 3006 083f FB030000 		.4byte	0x3fb
 3007 0843 00       		.byte	0
 3008 0844 1C       		.uleb128 0x1c
 3009 0845 78060000 		.4byte	.LASF72
 3010 0849 01       		.byte	0x1
 3011 084a A306     		.2byte	0x6a3
 3012 084c 81000000 		.4byte	0x81
 3013 0850 00000000 		.4byte	.LFB56
 3014 0854 18000000 		.4byte	.LFE56-.LFB56
 3015 0858 01       		.uleb128 0x1
 3016 0859 9C       		.byte	0x9c
 3017 085a 1A       		.uleb128 0x1a
 3018 085b BA080000 		.4byte	.LASF55
 3019 085f 01       		.byte	0x1
 3020 0860 BF06     		.2byte	0x6bf
 3021 0862 81000000 		.4byte	0x81
ARM GAS  C:\Users\kevin\AppData\Local\Temp\ccEmeqeI.s 			page 97


 3022 0866 00000000 		.4byte	.LFB57
 3023 086a 14000000 		.4byte	.LFE57-.LFB57
 3024 086e 01       		.uleb128 0x1
 3025 086f 9C       		.byte	0x9c
 3026 0870 B1080000 		.4byte	0x8b1
 3027 0874 18       		.uleb128 0x18
 3028 0875 5C060000 		.4byte	.LASF56
 3029 0879 01       		.byte	0x1
 3030 087a BF06     		.2byte	0x6bf
 3031 087c E3000000 		.4byte	0xe3
 3032 0880 18070000 		.4byte	.LLST43
 3033 0884 18       		.uleb128 0x18
 3034 0885 3F030000 		.4byte	.LASF57
 3035 0889 01       		.byte	0x1
 3036 088a BF06     		.2byte	0x6bf
 3037 088c 81000000 		.4byte	0x81
 3038 0890 39070000 		.4byte	.LLST44
 3039 0894 13       		.uleb128 0x13
 3040 0895 DF020000 		.4byte	.LASF58
 3041 0899 01       		.byte	0x1
 3042 089a C106     		.2byte	0x6c1
 3043 089c 81000000 		.4byte	0x81
 3044 08a0 5A070000 		.4byte	.LLST45
 3045 08a4 1B       		.uleb128 0x1b
 3046 08a5 B2040000 		.4byte	.LASF60
 3047 08a9 01       		.byte	0x1
 3048 08aa C206     		.2byte	0x6c2
 3049 08ac 6B000000 		.4byte	0x6b
 3050 08b0 00       		.byte	0
 3051 08b1 1A       		.uleb128 0x1a
 3052 08b2 F0050000 		.4byte	.LASF61
 3053 08b6 01       		.byte	0x1
 3054 08b7 0802     		.2byte	0x208
 3055 08b9 6B000000 		.4byte	0x6b
 3056 08bd 00000000 		.4byte	.LFB38
 3057 08c1 24000000 		.4byte	.LFE38-.LFB38
 3058 08c5 01       		.uleb128 0x1
 3059 08c6 9C       		.byte	0x9c
 3060 08c7 05090000 		.4byte	0x905
 3061 08cb 18       		.uleb128 0x18
 3062 08cc 5D000000 		.4byte	.LASF36
 3063 08d0 01       		.byte	0x1
 3064 08d1 0802     		.2byte	0x208
 3065 08d3 6B000000 		.4byte	0x6b
 3066 08d7 7C070000 		.4byte	.LLST46
 3067 08db 13       		.uleb128 0x13
 3068 08dc EB060000 		.4byte	.LASF62
 3069 08e0 01       		.byte	0x1
 3070 08e1 0A02     		.2byte	0x20a
 3071 08e3 81000000 		.4byte	0x81
 3072 08e7 BD070000 		.4byte	.LLST47
 3073 08eb 11       		.uleb128 0x11
 3074 08ec 16000000 		.4byte	.LVL139
 3075 08f0 5A080000 		.4byte	0x85a
 3076 08f4 10       		.uleb128 0x10
 3077 08f5 01       		.uleb128 0x1
 3078 08f6 51       		.byte	0x51
ARM GAS  C:\Users\kevin\AppData\Local\Temp\ccEmeqeI.s 			page 98


 3079 08f7 02       		.uleb128 0x2
 3080 08f8 74       		.byte	0x74
 3081 08f9 00       		.sleb128 0
 3082 08fa 10       		.uleb128 0x10
 3083 08fb 01       		.uleb128 0x1
 3084 08fc 50       		.byte	0x50
 3085 08fd 05       		.uleb128 0x5
 3086 08fe 03       		.byte	0x3
 3087 08ff 06000000 		.4byte	.LANCHOR2+6
 3088 0903 00       		.byte	0
 3089 0904 00       		.byte	0
 3090 0905 12       		.uleb128 0x12
 3091 0906 CF080000 		.4byte	.LASF63
 3092 090a 01       		.byte	0x1
 3093 090b B402     		.2byte	0x2b4
 3094 090d 00000000 		.4byte	.LFB41
 3095 0911 34000000 		.4byte	.LFE41-.LFB41
 3096 0915 01       		.uleb128 0x1
 3097 0916 9C       		.byte	0x9c
 3098 0917 2E090000 		.4byte	0x92e
 3099 091b 14       		.uleb128 0x14
 3100 091c 14000000 		.4byte	.LVL142
 3101 0920 B1080000 		.4byte	0x8b1
 3102 0924 14       		.uleb128 0x14
 3103 0925 2C000000 		.4byte	.LVL143
 3104 0929 BF050000 		.4byte	0x5bf
 3105 092d 00       		.byte	0
 3106 092e 12       		.uleb128 0x12
 3107 092f 3C020000 		.4byte	.LASF64
 3108 0933 01       		.byte	0x1
 3109 0934 EA06     		.2byte	0x6ea
 3110 0936 00000000 		.4byte	.LFB58
 3111 093a 22000000 		.4byte	.LFE58-.LFB58
 3112 093e 01       		.uleb128 0x1
 3113 093f 9C       		.byte	0x9c
 3114 0940 93090000 		.4byte	0x993
 3115 0944 18       		.uleb128 0x18
 3116 0945 5C060000 		.4byte	.LASF56
 3117 0949 01       		.byte	0x1
 3118 094a EA06     		.2byte	0x6ea
 3119 094c DD000000 		.4byte	0xdd
 3120 0950 D0070000 		.4byte	.LLST48
 3121 0954 18       		.uleb128 0x18
 3122 0955 3F030000 		.4byte	.LASF57
 3123 0959 01       		.byte	0x1
 3124 095a EA06     		.2byte	0x6ea
 3125 095c 81000000 		.4byte	0x81
 3126 0960 F1070000 		.4byte	.LLST49
 3127 0964 19       		.uleb128 0x19
 3128 0965 00030000 		.4byte	.LASF25
 3129 0969 01       		.byte	0x1
 3130 096a EA06     		.2byte	0x6ea
 3131 096c 81000000 		.4byte	0x81
 3132 0970 01       		.uleb128 0x1
 3133 0971 52       		.byte	0x52
 3134 0972 13       		.uleb128 0x13
 3135 0973 DF020000 		.4byte	.LASF58
ARM GAS  C:\Users\kevin\AppData\Local\Temp\ccEmeqeI.s 			page 99


 3136 0977 01       		.byte	0x1
 3137 0978 EC06     		.2byte	0x6ec
 3138 097a 81000000 		.4byte	0x81
 3139 097e 12080000 		.4byte	.LLST50
 3140 0982 13       		.uleb128 0x13
 3141 0983 B2040000 		.4byte	.LASF60
 3142 0987 01       		.byte	0x1
 3143 0988 ED06     		.2byte	0x6ed
 3144 098a 6B000000 		.4byte	0x6b
 3145 098e 35080000 		.4byte	.LLST51
 3146 0992 00       		.byte	0
 3147 0993 12       		.uleb128 0x12
 3148 0994 FE070000 		.4byte	.LASF65
 3149 0998 01       		.byte	0x1
 3150 0999 5F02     		.2byte	0x25f
 3151 099b 00000000 		.4byte	.LFB40
 3152 099f 68000000 		.4byte	.LFE40-.LFB40
 3153 09a3 01       		.uleb128 0x1
 3154 09a4 9C       		.byte	0x9c
 3155 09a5 FC090000 		.4byte	0x9fc
 3156 09a9 18       		.uleb128 0x18
 3157 09aa 55060000 		.4byte	.LASF26
 3158 09ae 01       		.byte	0x1
 3159 09af 5F02     		.2byte	0x25f
 3160 09b1 81000000 		.4byte	0x81
 3161 09b5 5A080000 		.4byte	.LLST52
 3162 09b9 13       		.uleb128 0x13
 3163 09ba 9B060000 		.4byte	.LASF66
 3164 09be 01       		.byte	0x1
 3165 09bf 6102     		.2byte	0x261
 3166 09c1 81000000 		.4byte	0x81
 3167 09c5 7B080000 		.4byte	.LLST53
 3168 09c9 13       		.uleb128 0x13
 3169 09ca 06030000 		.4byte	.LASF67
 3170 09ce 01       		.byte	0x1
 3171 09cf 6202     		.2byte	0x262
 3172 09d1 81000000 		.4byte	0x81
 3173 09d5 8E080000 		.4byte	.LLST54
 3174 09d9 13       		.uleb128 0x13
 3175 09da 5D000000 		.4byte	.LASF36
 3176 09de 01       		.byte	0x1
 3177 09df 6302     		.2byte	0x263
 3178 09e1 81000000 		.4byte	0x81
 3179 09e5 A1080000 		.4byte	.LLST55
 3180 09e9 14       		.uleb128 0x14
 3181 09ea 3A000000 		.4byte	.LVL158
 3182 09ee 2E090000 		.4byte	0x92e
 3183 09f2 14       		.uleb128 0x14
 3184 09f3 50000000 		.4byte	.LVL159
 3185 09f7 BF050000 		.4byte	0x5bf
 3186 09fb 00       		.byte	0
 3187 09fc 1A       		.uleb128 0x1a
 3188 09fd 2A090000 		.4byte	.LASF68
 3189 0a01 01       		.byte	0x1
 3190 0a02 1C07     		.2byte	0x71c
 3191 0a04 81000000 		.4byte	0x81
 3192 0a08 00000000 		.4byte	.LFB59
ARM GAS  C:\Users\kevin\AppData\Local\Temp\ccEmeqeI.s 			page 100


 3193 0a0c 0C000000 		.4byte	.LFE59-.LFB59
 3194 0a10 01       		.uleb128 0x1
 3195 0a11 9C       		.byte	0x9c
 3196 0a12 270A0000 		.4byte	0xa27
 3197 0a16 18       		.uleb128 0x18
 3198 0a17 04040000 		.4byte	.LASF24
 3199 0a1b 01       		.byte	0x1
 3200 0a1c 1C07     		.2byte	0x71c
 3201 0a1e 81000000 		.4byte	0x81
 3202 0a22 E3080000 		.4byte	.LLST56
 3203 0a26 00       		.byte	0
 3204 0a27 1A       		.uleb128 0x1a
 3205 0a28 EB080000 		.4byte	.LASF69
 3206 0a2c 01       		.byte	0x1
 3207 0a2d 5B07     		.2byte	0x75b
 3208 0a2f 81000000 		.4byte	0x81
 3209 0a33 00000000 		.4byte	.LFB60
 3210 0a37 0C000000 		.4byte	.LFE60-.LFB60
 3211 0a3b 01       		.uleb128 0x1
 3212 0a3c 9C       		.byte	0x9c
 3213 0a3d 520A0000 		.4byte	0xa52
 3214 0a41 18       		.uleb128 0x18
 3215 0a42 04040000 		.4byte	.LASF24
 3216 0a46 01       		.byte	0x1
 3217 0a47 5B07     		.2byte	0x75b
 3218 0a49 81000000 		.4byte	0x81
 3219 0a4d 04090000 		.4byte	.LLST57
 3220 0a51 00       		.byte	0
 3221 0a52 1A       		.uleb128 0x1a
 3222 0a53 AB000000 		.4byte	.LASF70
 3223 0a57 01       		.byte	0x1
 3224 0a58 9907     		.2byte	0x799
 3225 0a5a 81000000 		.4byte	0x81
 3226 0a5e 00000000 		.4byte	.LFB61
 3227 0a62 0C000000 		.4byte	.LFE61-.LFB61
 3228 0a66 01       		.uleb128 0x1
 3229 0a67 9C       		.byte	0x9c
 3230 0a68 7D0A0000 		.4byte	0xa7d
 3231 0a6c 18       		.uleb128 0x18
 3232 0a6d 04040000 		.4byte	.LASF24
 3233 0a71 01       		.byte	0x1
 3234 0a72 9907     		.2byte	0x799
 3235 0a74 81000000 		.4byte	0x81
 3236 0a78 25090000 		.4byte	.LLST58
 3237 0a7c 00       		.byte	0
 3238 0a7d 1A       		.uleb128 0x1a
 3239 0a7e 17010000 		.4byte	.LASF71
 3240 0a82 01       		.byte	0x1
 3241 0a83 D107     		.2byte	0x7d1
 3242 0a85 81000000 		.4byte	0x81
 3243 0a89 00000000 		.4byte	.LFB62
 3244 0a8d 0C000000 		.4byte	.LFE62-.LFB62
 3245 0a91 01       		.uleb128 0x1
 3246 0a92 9C       		.byte	0x9c
 3247 0a93 A80A0000 		.4byte	0xaa8
 3248 0a97 18       		.uleb128 0x18
 3249 0a98 04040000 		.4byte	.LASF24
ARM GAS  C:\Users\kevin\AppData\Local\Temp\ccEmeqeI.s 			page 101


 3250 0a9c 01       		.byte	0x1
 3251 0a9d D107     		.2byte	0x7d1
 3252 0a9f 81000000 		.4byte	0x81
 3253 0aa3 46090000 		.4byte	.LLST59
 3254 0aa7 00       		.byte	0
 3255 0aa8 1C       		.uleb128 0x1c
 3256 0aa9 95000000 		.4byte	.LASF73
 3257 0aad 01       		.byte	0x1
 3258 0aae 0B08     		.2byte	0x80b
 3259 0ab0 81000000 		.4byte	0x81
 3260 0ab4 00000000 		.4byte	.LFB63
 3261 0ab8 10000000 		.4byte	.LFE63-.LFB63
 3262 0abc 01       		.uleb128 0x1
 3263 0abd 9C       		.byte	0x9c
 3264 0abe 1A       		.uleb128 0x1a
 3265 0abf 53080000 		.4byte	.LASF74
 3266 0ac3 01       		.byte	0x1
 3267 0ac4 5108     		.2byte	0x851
 3268 0ac6 76000000 		.4byte	0x76
 3269 0aca 00000000 		.4byte	.LFB64
 3270 0ace 1C000000 		.4byte	.LFE64-.LFB64
 3271 0ad2 01       		.uleb128 0x1
 3272 0ad3 9C       		.byte	0x9c
 3273 0ad4 470B0000 		.4byte	0xb47
 3274 0ad8 18       		.uleb128 0x18
 3275 0ad9 04040000 		.4byte	.LASF24
 3276 0add 01       		.byte	0x1
 3277 0ade 5108     		.2byte	0x851
 3278 0ae0 81000000 		.4byte	0x81
 3279 0ae4 67090000 		.4byte	.LLST60
 3280 0ae8 13       		.uleb128 0x13
 3281 0ae9 AC060000 		.4byte	.LASF75
 3282 0aed 01       		.byte	0x1
 3283 0aee 5308     		.2byte	0x853
 3284 0af0 81000000 		.4byte	0x81
 3285 0af4 93090000 		.4byte	.LLST61
 3286 0af8 13       		.uleb128 0x13
 3287 0af9 51020000 		.4byte	.LASF76
 3288 0afd 01       		.byte	0x1
 3289 0afe 5408     		.2byte	0x854
 3290 0b00 81000000 		.4byte	0x81
 3291 0b04 B3090000 		.4byte	.LLST62
 3292 0b08 1D       		.uleb128 0x1d
 3293 0b09 EE000000 		.4byte	0xee
 3294 0b0d 08000000 		.4byte	.LBB6
 3295 0b11 04000000 		.4byte	.LBE6-.LBB6
 3296 0b15 01       		.byte	0x1
 3297 0b16 5A08     		.2byte	0x85a
 3298 0b18 1E       		.uleb128 0x1e
 3299 0b19 FB000000 		.4byte	0xfb
 3300 0b1d 10000000 		.4byte	.LBB8
 3301 0b21 04000000 		.4byte	.LBE8-.LBB8
 3302 0b25 01       		.byte	0x1
 3303 0b26 5E08     		.2byte	0x85e
 3304 0b28 360B0000 		.4byte	0xb36
 3305 0b2c 17       		.uleb128 0x17
 3306 0b2d 0C010000 		.4byte	0x10c
ARM GAS  C:\Users\kevin\AppData\Local\Temp\ccEmeqeI.s 			page 102


 3307 0b31 FE090000 		.4byte	.LLST63
 3308 0b35 00       		.byte	0
 3309 0b36 11       		.uleb128 0x11
 3310 0b37 08000000 		.4byte	.LVL171
 3311 0b3b D5060000 		.4byte	0x6d5
 3312 0b3f 10       		.uleb128 0x10
 3313 0b40 01       		.uleb128 0x1
 3314 0b41 50       		.byte	0x50
 3315 0b42 02       		.uleb128 0x2
 3316 0b43 74       		.byte	0x74
 3317 0b44 00       		.sleb128 0
 3318 0b45 00       		.byte	0
 3319 0b46 00       		.byte	0
 3320 0b47 12       		.uleb128 0x12
 3321 0b48 29080000 		.4byte	.LASF77
 3322 0b4c 01       		.byte	0x1
 3323 0b4d 7B08     		.2byte	0x87b
 3324 0b4f 00000000 		.4byte	.LFB65
 3325 0b53 32000000 		.4byte	.LFE65-.LFB65
 3326 0b57 01       		.uleb128 0x1
 3327 0b58 9C       		.byte	0x9c
 3328 0b59 BE0B0000 		.4byte	0xbbe
 3329 0b5d 18       		.uleb128 0x18
 3330 0b5e 04040000 		.4byte	.LASF24
 3331 0b62 01       		.byte	0x1
 3332 0b63 7B08     		.2byte	0x87b
 3333 0b65 81000000 		.4byte	0x81
 3334 0b69 1F0A0000 		.4byte	.LLST64
 3335 0b6d 18       		.uleb128 0x18
 3336 0b6e D0060000 		.4byte	.LASF78
 3337 0b72 01       		.byte	0x1
 3338 0b73 7B08     		.2byte	0x87b
 3339 0b75 81000000 		.4byte	0x81
 3340 0b79 4B0A0000 		.4byte	.LLST65
 3341 0b7d 18       		.uleb128 0x18
 3342 0b7e B3070000 		.4byte	.LASF79
 3343 0b82 01       		.byte	0x1
 3344 0b83 7B08     		.2byte	0x87b
 3345 0b85 DD000000 		.4byte	0xdd
 3346 0b89 6A0A0000 		.4byte	.LLST66
 3347 0b8d 13       		.uleb128 0x13
 3348 0b8e DA020000 		.4byte	.LASF80
 3349 0b92 01       		.byte	0x1
 3350 0b93 7D08     		.2byte	0x87d
 3351 0b95 6B000000 		.4byte	0x6b
 3352 0b99 8B0A0000 		.4byte	.LLST67
 3353 0b9d 13       		.uleb128 0x13
 3354 0b9e 44000000 		.4byte	.LASF81
 3355 0ba2 01       		.byte	0x1
 3356 0ba3 7E08     		.2byte	0x87e
 3357 0ba5 76000000 		.4byte	0x76
 3358 0ba9 AB0A0000 		.4byte	.LLST68
 3359 0bad 11       		.uleb128 0x11
 3360 0bae 1C000000 		.4byte	.LVL176
 3361 0bb2 BE0A0000 		.4byte	0xabe
 3362 0bb6 10       		.uleb128 0x10
 3363 0bb7 01       		.uleb128 0x1
ARM GAS  C:\Users\kevin\AppData\Local\Temp\ccEmeqeI.s 			page 103


 3364 0bb8 50       		.byte	0x50
 3365 0bb9 02       		.uleb128 0x2
 3366 0bba 77       		.byte	0x77
 3367 0bbb 00       		.sleb128 0
 3368 0bbc 00       		.byte	0
 3369 0bbd 00       		.byte	0
 3370 0bbe 1F       		.uleb128 0x1f
 3371 0bbf A4070000 		.4byte	.LASF82
 3372 0bc3 01       		.byte	0x1
 3373 0bc4 8601     		.2byte	0x186
 3374 0bc6 00000000 		.4byte	.LFB36
 3375 0bca 98000000 		.4byte	.LFE36-.LFB36
 3376 0bce 01       		.uleb128 0x1
 3377 0bcf 9C       		.byte	0x9c
 3378 0bd0 3F0C0000 		.4byte	0xc3f
 3379 0bd4 20       		.uleb128 0x20
 3380 0bd5 1E050000 		.4byte	.LASF83
 3381 0bd9 01       		.byte	0x1
 3382 0bda 8901     		.2byte	0x189
 3383 0bdc 6B000000 		.4byte	0x6b
 3384 0be0 05       		.uleb128 0x5
 3385 0be1 03       		.byte	0x3
 3386 0be2 09000000 		.4byte	CapSense_initVar.5173
 3387 0be6 13       		.uleb128 0x13
 3388 0be7 00000000 		.4byte	.LASF42
 3389 0beb 01       		.byte	0x1
 3390 0bec 8C01     		.2byte	0x18c
 3391 0bee 81000000 		.4byte	0x81
 3392 0bf2 CA0A0000 		.4byte	.LLST69
 3393 0bf6 13       		.uleb128 0x13
 3394 0bf7 D0060000 		.4byte	.LASF78
 3395 0bfb 01       		.byte	0x1
 3396 0bfc 8D01     		.2byte	0x18d
 3397 0bfe 81000000 		.4byte	0x81
 3398 0c02 170B0000 		.4byte	.LLST70
 3399 0c06 13       		.uleb128 0x13
 3400 0c07 55060000 		.4byte	.LASF26
 3401 0c0b 01       		.byte	0x1
 3402 0c0c 8E01     		.2byte	0x18e
 3403 0c0e 81000000 		.4byte	0x81
 3404 0c12 E50B0000 		.4byte	.LLST71
 3405 0c16 14       		.uleb128 0x14
 3406 0c17 0E000000 		.4byte	.LVL180
 3407 0c1b F9070000 		.4byte	0x7f9
 3408 0c1f 14       		.uleb128 0x14
 3409 0c20 16000000 		.4byte	.LVL181
 3410 0c24 7B010000 		.4byte	0x17b
 3411 0c28 11       		.uleb128 0x11
 3412 0c29 4A000000 		.4byte	.LVL187
 3413 0c2d 470B0000 		.4byte	0xb47
 3414 0c31 10       		.uleb128 0x10
 3415 0c32 01       		.uleb128 0x1
 3416 0c33 52       		.byte	0x52
 3417 0c34 02       		.uleb128 0x2
 3418 0c35 76       		.byte	0x76
 3419 0c36 00       		.sleb128 0
 3420 0c37 10       		.uleb128 0x10
ARM GAS  C:\Users\kevin\AppData\Local\Temp\ccEmeqeI.s 			page 104


 3421 0c38 01       		.uleb128 0x1
 3422 0c39 50       		.byte	0x50
 3423 0c3a 02       		.uleb128 0x2
 3424 0c3b 74       		.byte	0x74
 3425 0c3c 7F       		.sleb128 -1
 3426 0c3d 00       		.byte	0
 3427 0c3e 00       		.byte	0
 3428 0c3f 12       		.uleb128 0x12
 3429 0c40 B9020000 		.4byte	.LASF84
 3430 0c44 01       		.byte	0x1
 3431 0c45 BB08     		.2byte	0x8bb
 3432 0c47 00000000 		.4byte	.LFB66
 3433 0c4b 0C000000 		.4byte	.LFE66-.LFB66
 3434 0c4f 01       		.uleb128 0x1
 3435 0c50 9C       		.byte	0x9c
 3436 0c51 720C0000 		.4byte	0xc72
 3437 0c55 19       		.uleb128 0x19
 3438 0c56 04040000 		.4byte	.LASF24
 3439 0c5a 01       		.byte	0x1
 3440 0c5b BB08     		.2byte	0x8bb
 3441 0c5d 81000000 		.4byte	0x81
 3442 0c61 01       		.uleb128 0x1
 3443 0c62 50       		.byte	0x50
 3444 0c63 19       		.uleb128 0x19
 3445 0c64 AD020000 		.4byte	.LASF59
 3446 0c68 01       		.byte	0x1
 3447 0c69 BB08     		.2byte	0x8bb
 3448 0c6b 81000000 		.4byte	0x81
 3449 0c6f 01       		.uleb128 0x1
 3450 0c70 51       		.byte	0x51
 3451 0c71 00       		.byte	0
 3452 0c72 21       		.uleb128 0x21
 3453 0c73 72070000 		.4byte	.LASF85
 3454 0c77 01       		.byte	0x1
 3455 0c78 2C       		.byte	0x2c
 3456 0c79 AD000000 		.4byte	0xad
 3457 0c7d 05       		.uleb128 0x5
 3458 0c7e 03       		.byte	0x3
 3459 0c7f 00000000 		.4byte	CapSense_csdStatusVar
 3460 0c83 21       		.uleb128 0x21
 3461 0c84 EB020000 		.4byte	.LASF86
 3462 0c88 01       		.byte	0x1
 3463 0c89 2D       		.byte	0x2d
 3464 0c8a AD000000 		.4byte	0xad
 3465 0c8e 05       		.uleb128 0x5
 3466 0c8f 03       		.byte	0x3
 3467 0c90 00000000 		.4byte	CapSense_sensorIndex
 3468 0c94 22       		.uleb128 0x22
 3469 0c95 76000000 		.4byte	0x76
 3470 0c99 A40C0000 		.4byte	0xca4
 3471 0c9d 23       		.uleb128 0x23
 3472 0c9e D6000000 		.4byte	0xd6
 3473 0ca2 02       		.byte	0x2
 3474 0ca3 00       		.byte	0
 3475 0ca4 21       		.uleb128 0x21
 3476 0ca5 88080000 		.4byte	.LASF87
 3477 0ca9 01       		.byte	0x1
ARM GAS  C:\Users\kevin\AppData\Local\Temp\ccEmeqeI.s 			page 105


 3478 0caa 30       		.byte	0x30
 3479 0cab 940C0000 		.4byte	0xc94
 3480 0caf 05       		.uleb128 0x5
 3481 0cb0 03       		.byte	0x3
 3482 0cb1 00000000 		.4byte	CapSense_sensorRaw
 3483 0cb5 22       		.uleb128 0x22
 3484 0cb6 6B000000 		.4byte	0x6b
 3485 0cba C50C0000 		.4byte	0xcc5
 3486 0cbe 23       		.uleb128 0x23
 3487 0cbf D6000000 		.4byte	0xd6
 3488 0cc3 02       		.byte	0x2
 3489 0cc4 00       		.byte	0
 3490 0cc5 21       		.uleb128 0x21
 3491 0cc6 F8000000 		.4byte	.LASF88
 3492 0cca 01       		.byte	0x1
 3493 0ccb 3A       		.byte	0x3a
 3494 0ccc B50C0000 		.4byte	0xcb5
 3495 0cd0 05       		.uleb128 0x5
 3496 0cd1 03       		.byte	0x3
 3497 0cd2 00000000 		.4byte	CapSense_unscannedSnsDriveMode
 3498 0cd6 22       		.uleb128 0x22
 3499 0cd7 6B000000 		.4byte	0x6b
 3500 0cdb E60C0000 		.4byte	0xce6
 3501 0cdf 23       		.uleb128 0x23
 3502 0ce0 D6000000 		.4byte	0xd6
 3503 0ce4 00       		.byte	0
 3504 0ce5 00       		.byte	0
 3505 0ce6 21       		.uleb128 0x21
 3506 0ce7 C2040000 		.4byte	.LASF89
 3507 0ceb 01       		.byte	0x1
 3508 0cec 3D       		.byte	0x3d
 3509 0ced D60C0000 		.4byte	0xcd6
 3510 0cf1 05       		.uleb128 0x5
 3511 0cf2 03       		.byte	0x3
 3512 0cf3 00000000 		.4byte	CapSense_sensorEnableMaskBackup
 3513 0cf7 21       		.uleb128 0x21
 3514 0cf8 0B040000 		.4byte	.LASF90
 3515 0cfc 01       		.byte	0x1
 3516 0cfd 40       		.byte	0x40
 3517 0cfe D60C0000 		.4byte	0xcd6
 3518 0d02 05       		.uleb128 0x5
 3519 0d03 03       		.byte	0x3
 3520 0d04 00000000 		.4byte	CapSense_sensorEnableMask
 3521 0d08 21       		.uleb128 0x21
 3522 0d09 7E040000 		.4byte	.LASF91
 3523 0d0d 01       		.byte	0x1
 3524 0d0e 5B       		.byte	0x5b
 3525 0d0f B50C0000 		.4byte	0xcb5
 3526 0d13 05       		.uleb128 0x5
 3527 0d14 03       		.byte	0x3
 3528 0d15 00000000 		.4byte	CapSense_modulationIDAC
 3529 0d19 21       		.uleb128 0x21
 3530 0d1a B6060000 		.4byte	.LASF92
 3531 0d1e 01       		.byte	0x1
 3532 0d1f 5E       		.byte	0x5e
 3533 0d20 B50C0000 		.4byte	0xcb5
 3534 0d24 05       		.uleb128 0x5
ARM GAS  C:\Users\kevin\AppData\Local\Temp\ccEmeqeI.s 			page 106


 3535 0d25 03       		.byte	0x3
 3536 0d26 00000000 		.4byte	CapSense_compensationIDAC
 3537 0d2a 22       		.uleb128 0x22
 3538 0d2b 81000000 		.4byte	0x81
 3539 0d2f 3A0D0000 		.4byte	0xd3a
 3540 0d33 23       		.uleb128 0x23
 3541 0d34 D6000000 		.4byte	0xd6
 3542 0d38 02       		.byte	0x2
 3543 0d39 00       		.byte	0
 3544 0d3a 21       		.uleb128 0x21
 3545 0d3b 31060000 		.4byte	.LASF93
 3546 0d3f 01       		.byte	0x1
 3547 0d40 62       		.byte	0x62
 3548 0d41 4B0D0000 		.4byte	0xd4b
 3549 0d45 05       		.uleb128 0x5
 3550 0d46 03       		.byte	0x3
 3551 0d47 00000000 		.4byte	CapSense_widgetResolution
 3552 0d4b 09       		.uleb128 0x9
 3553 0d4c 2A0D0000 		.4byte	0xd2a
 3554 0d50 21       		.uleb128 0x21
 3555 0d51 96040000 		.4byte	.LASF94
 3556 0d55 01       		.byte	0x1
 3557 0d56 68       		.byte	0x68
 3558 0d57 610D0000 		.4byte	0xd61
 3559 0d5b 05       		.uleb128 0x5
 3560 0d5c 03       		.byte	0x3
 3561 0d5d 00000000 		.4byte	CapSense_senseClkDividerVal
 3562 0d61 09       		.uleb128 0x9
 3563 0d62 B50C0000 		.4byte	0xcb5
 3564 0d66 21       		.uleb128 0x21
 3565 0d67 0A000000 		.4byte	.LASF95
 3566 0d6b 01       		.byte	0x1
 3567 0d6c 6B       		.byte	0x6b
 3568 0d6d 770D0000 		.4byte	0xd77
 3569 0d71 05       		.uleb128 0x5
 3570 0d72 03       		.byte	0x3
 3571 0d73 00000000 		.4byte	CapSense_sampleClkDividerVal
 3572 0d77 09       		.uleb128 0x9
 3573 0d78 B50C0000 		.4byte	0xcb5
 3574 0d7c 21       		.uleb128 0x21
 3575 0d7d 80020000 		.4byte	.LASF96
 3576 0d81 01       		.byte	0x1
 3577 0d82 70       		.byte	0x70
 3578 0d83 8D0D0000 		.4byte	0xd8d
 3579 0d87 05       		.uleb128 0x5
 3580 0d88 03       		.byte	0x3
 3581 0d89 00000000 		.4byte	CapSense_widgetNumber
 3582 0d8d 09       		.uleb128 0x9
 3583 0d8e B50C0000 		.4byte	0xcb5
 3584 0d92 22       		.uleb128 0x22
 3585 0d93 A20D0000 		.4byte	0xda2
 3586 0d97 A20D0000 		.4byte	0xda2
 3587 0d9b 23       		.uleb128 0x23
 3588 0d9c D6000000 		.4byte	0xd6
 3589 0da0 04       		.byte	0x4
 3590 0da1 00       		.byte	0
 3591 0da2 07       		.uleb128 0x7
ARM GAS  C:\Users\kevin\AppData\Local\Temp\ccEmeqeI.s 			page 107


 3592 0da3 04       		.byte	0x4
 3593 0da4 A80D0000 		.4byte	0xda8
 3594 0da8 06       		.uleb128 0x6
 3595 0da9 4F000000 		.4byte	0x4f
 3596 0dad 21       		.uleb128 0x21
 3597 0dae 78010000 		.4byte	.LASF97
 3598 0db2 01       		.byte	0x1
 3599 0db3 78       		.byte	0x78
 3600 0db4 BE0D0000 		.4byte	0xdbe
 3601 0db8 05       		.uleb128 0x5
 3602 0db9 03       		.byte	0x3
 3603 0dba 00000000 		.4byte	CapSense_prtSelTbl
 3604 0dbe 09       		.uleb128 0x9
 3605 0dbf 920D0000 		.4byte	0xd92
 3606 0dc3 21       		.uleb128 0x21
 3607 0dc4 D3070000 		.4byte	.LASF98
 3608 0dc8 01       		.byte	0x1
 3609 0dc9 85       		.byte	0x85
 3610 0dca D40D0000 		.4byte	0xdd4
 3611 0dce 05       		.uleb128 0x5
 3612 0dcf 03       		.byte	0x3
 3613 0dd0 00000000 		.4byte	CapSense_prtCfgTbl
 3614 0dd4 09       		.uleb128 0x9
 3615 0dd5 920D0000 		.4byte	0xd92
 3616 0dd9 21       		.uleb128 0x21
 3617 0dda 88070000 		.4byte	.LASF99
 3618 0dde 01       		.byte	0x1
 3619 0ddf 92       		.byte	0x92
 3620 0de0 EA0D0000 		.4byte	0xdea
 3621 0de4 05       		.uleb128 0x5
 3622 0de5 03       		.byte	0x3
 3623 0de6 00000000 		.4byte	CapSense_prtDRTbl
 3624 0dea 09       		.uleb128 0x9
 3625 0deb 920D0000 		.4byte	0xd92
 3626 0def 22       		.uleb128 0x22
 3627 0df0 A20D0000 		.4byte	0xda2
 3628 0df4 FF0D0000 		.4byte	0xdff
 3629 0df8 23       		.uleb128 0x23
 3630 0df9 D6000000 		.4byte	0xd6
 3631 0dfd 02       		.byte	0x2
 3632 0dfe 00       		.byte	0
 3633 0dff 21       		.uleb128 0x21
 3634 0e00 4C000000 		.4byte	.LASF100
 3635 0e04 01       		.byte	0x1
 3636 0e05 43       		.byte	0x43
 3637 0e06 EF0D0000 		.4byte	0xdef
 3638 0e0a 05       		.uleb128 0x5
 3639 0e0b 03       		.byte	0x3
 3640 0e0c 00000000 		.4byte	CapSense_pcTable
 3641 0e10 21       		.uleb128 0x21
 3642 0e11 83030000 		.4byte	.LASF101
 3643 0e15 01       		.byte	0x1
 3644 0e16 49       		.byte	0x49
 3645 0e17 210E0000 		.4byte	0xe21
 3646 0e1b 05       		.uleb128 0x5
 3647 0e1c 03       		.byte	0x3
 3648 0e1d 00000000 		.4byte	CapSense_portTable
ARM GAS  C:\Users\kevin\AppData\Local\Temp\ccEmeqeI.s 			page 108


 3649 0e21 09       		.uleb128 0x9
 3650 0e22 B50C0000 		.4byte	0xcb5
 3651 0e26 21       		.uleb128 0x21
 3652 0e27 70030000 		.4byte	.LASF102
 3653 0e2b 01       		.byte	0x1
 3654 0e2c 4F       		.byte	0x4f
 3655 0e2d 370E0000 		.4byte	0xe37
 3656 0e31 05       		.uleb128 0x5
 3657 0e32 03       		.byte	0x3
 3658 0e33 00000000 		.4byte	CapSense_maskTable
 3659 0e37 09       		.uleb128 0x9
 3660 0e38 2A0D0000 		.4byte	0xd2a
 3661 0e3c 21       		.uleb128 0x21
 3662 0e3d 52050000 		.4byte	.LASF103
 3663 0e41 01       		.byte	0x1
 3664 0e42 55       		.byte	0x55
 3665 0e43 4D0E0000 		.4byte	0xe4d
 3666 0e47 05       		.uleb128 0x5
 3667 0e48 03       		.byte	0x3
 3668 0e49 00000000 		.4byte	CapSense_pinShiftTbl
 3669 0e4d 09       		.uleb128 0x9
 3670 0e4e B50C0000 		.4byte	0xcb5
 3671 0e52 24       		.uleb128 0x24
 3672 0e53 62060000 		.4byte	.LASF104
 3673 0e57 03       		.byte	0x3
 3674 0e58 3C01     		.2byte	0x13c
 3675 0e5a 5E0E0000 		.4byte	0xe5e
 3676 0e5e 09       		.uleb128 0x9
 3677 0e5f B50C0000 		.4byte	0xcb5
 3678 0e63 24       		.uleb128 0x24
 3679 0e64 56090000 		.4byte	.LASF105
 3680 0e68 03       		.byte	0x3
 3681 0e69 3D01     		.2byte	0x13d
 3682 0e6b 6F0E0000 		.4byte	0xe6f
 3683 0e6f 09       		.uleb128 0x9
 3684 0e70 B50C0000 		.4byte	0xcb5
 3685 0e74 21       		.uleb128 0x21
 3686 0e75 2F050000 		.4byte	.LASF106
 3687 0e79 01       		.byte	0x1
 3688 0e7a 36       		.byte	0x36
 3689 0e7b 6B000000 		.4byte	0x6b
 3690 0e7f 05       		.uleb128 0x5
 3691 0e80 03       		.byte	0x3
 3692 0e81 00000000 		.4byte	CapSense_csdTrim1
 3693 0e85 25       		.uleb128 0x25
 3694 0e86 FF010000 		.4byte	.LASF109
 3695 0e8a 04       		.byte	0x4
 3696 0e8b 72       		.byte	0x72
 3697 0e8c 960E0000 		.4byte	0xe96
 3698 0e90 26       		.uleb128 0x26
 3699 0e91 6B000000 		.4byte	0x6b
 3700 0e95 00       		.byte	0
 3701 0e96 27       		.uleb128 0x27
 3702 0e97 F5030000 		.4byte	.LASF108
 3703 0e9b 04       		.byte	0x4
 3704 0e9c 6A       		.byte	0x6a
 3705 0e9d C3000000 		.4byte	0xc3
ARM GAS  C:\Users\kevin\AppData\Local\Temp\ccEmeqeI.s 			page 109


 3706 0ea1 B00E0000 		.4byte	0xeb0
 3707 0ea5 26       		.uleb128 0x26
 3708 0ea6 6B000000 		.4byte	0x6b
 3709 0eaa 26       		.uleb128 0x26
 3710 0eab C3000000 		.4byte	0xc3
 3711 0eaf 00       		.byte	0
 3712 0eb0 25       		.uleb128 0x25
 3713 0eb1 41050000 		.4byte	.LASF110
 3714 0eb5 04       		.byte	0x4
 3715 0eb6 6D       		.byte	0x6d
 3716 0eb7 C60E0000 		.4byte	0xec6
 3717 0ebb 26       		.uleb128 0x26
 3718 0ebc 6B000000 		.4byte	0x6b
 3719 0ec0 26       		.uleb128 0x26
 3720 0ec1 6B000000 		.4byte	0x6b
 3721 0ec5 00       		.byte	0
 3722 0ec6 28       		.uleb128 0x28
 3723 0ec7 C6010000 		.4byte	.LASF111
 3724 0ecb 05       		.byte	0x5
 3725 0ecc 27       		.byte	0x27
 3726 0ecd 28       		.uleb128 0x28
 3727 0ece 30040000 		.4byte	.LASF112
 3728 0ed2 06       		.byte	0x6
 3729 0ed3 27       		.byte	0x27
 3730 0ed4 25       		.uleb128 0x25
 3731 0ed5 48040000 		.4byte	.LASF113
 3732 0ed9 06       		.byte	0x6
 3733 0eda 29       		.byte	0x29
 3734 0edb EA0E0000 		.4byte	0xeea
 3735 0edf 26       		.uleb128 0x26
 3736 0ee0 76000000 		.4byte	0x76
 3737 0ee4 26       		.uleb128 0x26
 3738 0ee5 6B000000 		.4byte	0x6b
 3739 0ee9 00       		.byte	0
 3740 0eea 25       		.uleb128 0x25
 3741 0eeb 66000000 		.4byte	.LASF114
 3742 0eef 05       		.byte	0x5
 3743 0ef0 29       		.byte	0x29
 3744 0ef1 000F0000 		.4byte	0xf00
 3745 0ef5 26       		.uleb128 0x26
 3746 0ef6 76000000 		.4byte	0x76
 3747 0efa 26       		.uleb128 0x26
 3748 0efb 6B000000 		.4byte	0x6b
 3749 0eff 00       		.byte	0
 3750 0f00 28       		.uleb128 0x28
 3751 0f01 06050000 		.4byte	.LASF115
 3752 0f05 05       		.byte	0x5
 3753 0f06 23       		.byte	0x23
 3754 0f07 28       		.uleb128 0x28
 3755 0f08 DD010000 		.4byte	.LASF116
 3756 0f0c 06       		.byte	0x6
 3757 0f0d 23       		.byte	0x23
 3758 0f0e 25       		.uleb128 0x25
 3759 0f0f EC040000 		.4byte	.LASF117
 3760 0f13 04       		.byte	0x4
 3761 0f14 70       		.byte	0x70
 3762 0f15 1F0F0000 		.4byte	0xf1f
ARM GAS  C:\Users\kevin\AppData\Local\Temp\ccEmeqeI.s 			page 110


 3763 0f19 26       		.uleb128 0x26
 3764 0f1a 6B000000 		.4byte	0x6b
 3765 0f1e 00       		.byte	0
 3766 0f1f 29       		.uleb128 0x29
 3767 0f20 96030000 		.4byte	.LASF119
 3768 0f24 04       		.byte	0x4
 3769 0f25 82       		.byte	0x82
 3770 0f26 6B000000 		.4byte	0x6b
 3771 0f2a 25       		.uleb128 0x25
 3772 0f2b 2E000000 		.4byte	.LASF120
 3773 0f2f 04       		.byte	0x4
 3774 0f30 83       		.byte	0x83
 3775 0f31 3B0F0000 		.4byte	0xf3b
 3776 0f35 26       		.uleb128 0x26
 3777 0f36 6B000000 		.4byte	0x6b
 3778 0f3a 00       		.byte	0
 3779 0f3b 2A       		.uleb128 0x2a
 3780 0f3c B9050000 		.4byte	.LASF124
 3781 0f40 04       		.byte	0x4
 3782 0f41 7E       		.byte	0x7e
 3783 0f42 26       		.uleb128 0x26
 3784 0f43 81000000 		.4byte	0x81
 3785 0f47 00       		.byte	0
 3786 0f48 00       		.byte	0
 3787              		.section	.debug_abbrev,"",%progbits
 3788              	.Ldebug_abbrev0:
 3789 0000 01       		.uleb128 0x1
 3790 0001 11       		.uleb128 0x11
 3791 0002 01       		.byte	0x1
 3792 0003 25       		.uleb128 0x25
 3793 0004 0E       		.uleb128 0xe
 3794 0005 13       		.uleb128 0x13
 3795 0006 0B       		.uleb128 0xb
 3796 0007 03       		.uleb128 0x3
 3797 0008 0E       		.uleb128 0xe
 3798 0009 1B       		.uleb128 0x1b
 3799 000a 0E       		.uleb128 0xe
 3800 000b 55       		.uleb128 0x55
 3801 000c 17       		.uleb128 0x17
 3802 000d 11       		.uleb128 0x11
 3803 000e 01       		.uleb128 0x1
 3804 000f 10       		.uleb128 0x10
 3805 0010 17       		.uleb128 0x17
 3806 0011 00       		.byte	0
 3807 0012 00       		.byte	0
 3808 0013 02       		.uleb128 0x2
 3809 0014 24       		.uleb128 0x24
 3810 0015 00       		.byte	0
 3811 0016 0B       		.uleb128 0xb
 3812 0017 0B       		.uleb128 0xb
 3813 0018 3E       		.uleb128 0x3e
 3814 0019 0B       		.uleb128 0xb
 3815 001a 03       		.uleb128 0x3
 3816 001b 0E       		.uleb128 0xe
 3817 001c 00       		.byte	0
 3818 001d 00       		.byte	0
 3819 001e 03       		.uleb128 0x3
ARM GAS  C:\Users\kevin\AppData\Local\Temp\ccEmeqeI.s 			page 111


 3820 001f 24       		.uleb128 0x24
 3821 0020 00       		.byte	0
 3822 0021 0B       		.uleb128 0xb
 3823 0022 0B       		.uleb128 0xb
 3824 0023 3E       		.uleb128 0x3e
 3825 0024 0B       		.uleb128 0xb
 3826 0025 03       		.uleb128 0x3
 3827 0026 08       		.uleb128 0x8
 3828 0027 00       		.byte	0
 3829 0028 00       		.byte	0
 3830 0029 04       		.uleb128 0x4
 3831 002a 16       		.uleb128 0x16
 3832 002b 00       		.byte	0
 3833 002c 03       		.uleb128 0x3
 3834 002d 0E       		.uleb128 0xe
 3835 002e 3A       		.uleb128 0x3a
 3836 002f 0B       		.uleb128 0xb
 3837 0030 3B       		.uleb128 0x3b
 3838 0031 0B       		.uleb128 0xb
 3839 0032 49       		.uleb128 0x49
 3840 0033 13       		.uleb128 0x13
 3841 0034 00       		.byte	0
 3842 0035 00       		.byte	0
 3843 0036 05       		.uleb128 0x5
 3844 0037 16       		.uleb128 0x16
 3845 0038 00       		.byte	0
 3846 0039 03       		.uleb128 0x3
 3847 003a 0E       		.uleb128 0xe
 3848 003b 3A       		.uleb128 0x3a
 3849 003c 0B       		.uleb128 0xb
 3850 003d 3B       		.uleb128 0x3b
 3851 003e 05       		.uleb128 0x5
 3852 003f 49       		.uleb128 0x49
 3853 0040 13       		.uleb128 0x13
 3854 0041 00       		.byte	0
 3855 0042 00       		.byte	0
 3856 0043 06       		.uleb128 0x6
 3857 0044 35       		.uleb128 0x35
 3858 0045 00       		.byte	0
 3859 0046 49       		.uleb128 0x49
 3860 0047 13       		.uleb128 0x13
 3861 0048 00       		.byte	0
 3862 0049 00       		.byte	0
 3863 004a 07       		.uleb128 0x7
 3864 004b 0F       		.uleb128 0xf
 3865 004c 00       		.byte	0
 3866 004d 0B       		.uleb128 0xb
 3867 004e 0B       		.uleb128 0xb
 3868 004f 49       		.uleb128 0x49
 3869 0050 13       		.uleb128 0x13
 3870 0051 00       		.byte	0
 3871 0052 00       		.byte	0
 3872 0053 08       		.uleb128 0x8
 3873 0054 15       		.uleb128 0x15
 3874 0055 00       		.byte	0
 3875 0056 27       		.uleb128 0x27
 3876 0057 19       		.uleb128 0x19
ARM GAS  C:\Users\kevin\AppData\Local\Temp\ccEmeqeI.s 			page 112


 3877 0058 00       		.byte	0
 3878 0059 00       		.byte	0
 3879 005a 09       		.uleb128 0x9
 3880 005b 26       		.uleb128 0x26
 3881 005c 00       		.byte	0
 3882 005d 49       		.uleb128 0x49
 3883 005e 13       		.uleb128 0x13
 3884 005f 00       		.byte	0
 3885 0060 00       		.byte	0
 3886 0061 0A       		.uleb128 0xa
 3887 0062 2E       		.uleb128 0x2e
 3888 0063 00       		.byte	0
 3889 0064 3F       		.uleb128 0x3f
 3890 0065 19       		.uleb128 0x19
 3891 0066 03       		.uleb128 0x3
 3892 0067 0E       		.uleb128 0xe
 3893 0068 3A       		.uleb128 0x3a
 3894 0069 0B       		.uleb128 0xb
 3895 006a 3B       		.uleb128 0x3b
 3896 006b 05       		.uleb128 0x5
 3897 006c 27       		.uleb128 0x27
 3898 006d 19       		.uleb128 0x19
 3899 006e 49       		.uleb128 0x49
 3900 006f 13       		.uleb128 0x13
 3901 0070 20       		.uleb128 0x20
 3902 0071 0B       		.uleb128 0xb
 3903 0072 00       		.byte	0
 3904 0073 00       		.byte	0
 3905 0074 0B       		.uleb128 0xb
 3906 0075 2E       		.uleb128 0x2e
 3907 0076 01       		.byte	0x1
 3908 0077 3F       		.uleb128 0x3f
 3909 0078 19       		.uleb128 0x19
 3910 0079 03       		.uleb128 0x3
 3911 007a 0E       		.uleb128 0xe
 3912 007b 3A       		.uleb128 0x3a
 3913 007c 0B       		.uleb128 0xb
 3914 007d 3B       		.uleb128 0x3b
 3915 007e 05       		.uleb128 0x5
 3916 007f 27       		.uleb128 0x27
 3917 0080 19       		.uleb128 0x19
 3918 0081 49       		.uleb128 0x49
 3919 0082 13       		.uleb128 0x13
 3920 0083 20       		.uleb128 0x20
 3921 0084 0B       		.uleb128 0xb
 3922 0085 01       		.uleb128 0x1
 3923 0086 13       		.uleb128 0x13
 3924 0087 00       		.byte	0
 3925 0088 00       		.byte	0
 3926 0089 0C       		.uleb128 0xc
 3927 008a 05       		.uleb128 0x5
 3928 008b 00       		.byte	0
 3929 008c 03       		.uleb128 0x3
 3930 008d 0E       		.uleb128 0xe
 3931 008e 3A       		.uleb128 0x3a
 3932 008f 0B       		.uleb128 0xb
 3933 0090 3B       		.uleb128 0x3b
ARM GAS  C:\Users\kevin\AppData\Local\Temp\ccEmeqeI.s 			page 113


 3934 0091 05       		.uleb128 0x5
 3935 0092 49       		.uleb128 0x49
 3936 0093 13       		.uleb128 0x13
 3937 0094 00       		.byte	0
 3938 0095 00       		.byte	0
 3939 0096 0D       		.uleb128 0xd
 3940 0097 2E       		.uleb128 0x2e
 3941 0098 01       		.byte	0x1
 3942 0099 3F       		.uleb128 0x3f
 3943 009a 19       		.uleb128 0x19
 3944 009b 03       		.uleb128 0x3
 3945 009c 0E       		.uleb128 0xe
 3946 009d 3A       		.uleb128 0x3a
 3947 009e 0B       		.uleb128 0xb
 3948 009f 3B       		.uleb128 0x3b
 3949 00a0 0B       		.uleb128 0xb
 3950 00a1 27       		.uleb128 0x27
 3951 00a2 19       		.uleb128 0x19
 3952 00a3 11       		.uleb128 0x11
 3953 00a4 01       		.uleb128 0x1
 3954 00a5 12       		.uleb128 0x12
 3955 00a6 06       		.uleb128 0x6
 3956 00a7 40       		.uleb128 0x40
 3957 00a8 18       		.uleb128 0x18
 3958 00a9 9742     		.uleb128 0x2117
 3959 00ab 19       		.uleb128 0x19
 3960 00ac 01       		.uleb128 0x1
 3961 00ad 13       		.uleb128 0x13
 3962 00ae 00       		.byte	0
 3963 00af 00       		.byte	0
 3964 00b0 0E       		.uleb128 0xe
 3965 00b1 34       		.uleb128 0x34
 3966 00b2 00       		.byte	0
 3967 00b3 03       		.uleb128 0x3
 3968 00b4 0E       		.uleb128 0xe
 3969 00b5 3A       		.uleb128 0x3a
 3970 00b6 0B       		.uleb128 0xb
 3971 00b7 3B       		.uleb128 0x3b
 3972 00b8 0B       		.uleb128 0xb
 3973 00b9 49       		.uleb128 0x49
 3974 00ba 13       		.uleb128 0x13
 3975 00bb 02       		.uleb128 0x2
 3976 00bc 17       		.uleb128 0x17
 3977 00bd 00       		.byte	0
 3978 00be 00       		.byte	0
 3979 00bf 0F       		.uleb128 0xf
 3980 00c0 898201   		.uleb128 0x4109
 3981 00c3 01       		.byte	0x1
 3982 00c4 11       		.uleb128 0x11
 3983 00c5 01       		.uleb128 0x1
 3984 00c6 31       		.uleb128 0x31
 3985 00c7 13       		.uleb128 0x13
 3986 00c8 01       		.uleb128 0x1
 3987 00c9 13       		.uleb128 0x13
 3988 00ca 00       		.byte	0
 3989 00cb 00       		.byte	0
 3990 00cc 10       		.uleb128 0x10
ARM GAS  C:\Users\kevin\AppData\Local\Temp\ccEmeqeI.s 			page 114


 3991 00cd 8A8201   		.uleb128 0x410a
 3992 00d0 00       		.byte	0
 3993 00d1 02       		.uleb128 0x2
 3994 00d2 18       		.uleb128 0x18
 3995 00d3 9142     		.uleb128 0x2111
 3996 00d5 18       		.uleb128 0x18
 3997 00d6 00       		.byte	0
 3998 00d7 00       		.byte	0
 3999 00d8 11       		.uleb128 0x11
 4000 00d9 898201   		.uleb128 0x4109
 4001 00dc 01       		.byte	0x1
 4002 00dd 11       		.uleb128 0x11
 4003 00de 01       		.uleb128 0x1
 4004 00df 31       		.uleb128 0x31
 4005 00e0 13       		.uleb128 0x13
 4006 00e1 00       		.byte	0
 4007 00e2 00       		.byte	0
 4008 00e3 12       		.uleb128 0x12
 4009 00e4 2E       		.uleb128 0x2e
 4010 00e5 01       		.byte	0x1
 4011 00e6 3F       		.uleb128 0x3f
 4012 00e7 19       		.uleb128 0x19
 4013 00e8 03       		.uleb128 0x3
 4014 00e9 0E       		.uleb128 0xe
 4015 00ea 3A       		.uleb128 0x3a
 4016 00eb 0B       		.uleb128 0xb
 4017 00ec 3B       		.uleb128 0x3b
 4018 00ed 05       		.uleb128 0x5
 4019 00ee 27       		.uleb128 0x27
 4020 00ef 19       		.uleb128 0x19
 4021 00f0 11       		.uleb128 0x11
 4022 00f1 01       		.uleb128 0x1
 4023 00f2 12       		.uleb128 0x12
 4024 00f3 06       		.uleb128 0x6
 4025 00f4 40       		.uleb128 0x40
 4026 00f5 18       		.uleb128 0x18
 4027 00f6 9742     		.uleb128 0x2117
 4028 00f8 19       		.uleb128 0x19
 4029 00f9 01       		.uleb128 0x1
 4030 00fa 13       		.uleb128 0x13
 4031 00fb 00       		.byte	0
 4032 00fc 00       		.byte	0
 4033 00fd 13       		.uleb128 0x13
 4034 00fe 34       		.uleb128 0x34
 4035 00ff 00       		.byte	0
 4036 0100 03       		.uleb128 0x3
 4037 0101 0E       		.uleb128 0xe
 4038 0102 3A       		.uleb128 0x3a
 4039 0103 0B       		.uleb128 0xb
 4040 0104 3B       		.uleb128 0x3b
 4041 0105 05       		.uleb128 0x5
 4042 0106 49       		.uleb128 0x49
 4043 0107 13       		.uleb128 0x13
 4044 0108 02       		.uleb128 0x2
 4045 0109 17       		.uleb128 0x17
 4046 010a 00       		.byte	0
 4047 010b 00       		.byte	0
ARM GAS  C:\Users\kevin\AppData\Local\Temp\ccEmeqeI.s 			page 115


 4048 010c 14       		.uleb128 0x14
 4049 010d 898201   		.uleb128 0x4109
 4050 0110 00       		.byte	0
 4051 0111 11       		.uleb128 0x11
 4052 0112 01       		.uleb128 0x1
 4053 0113 31       		.uleb128 0x31
 4054 0114 13       		.uleb128 0x13
 4055 0115 00       		.byte	0
 4056 0116 00       		.byte	0
 4057 0117 15       		.uleb128 0x15
 4058 0118 2E       		.uleb128 0x2e
 4059 0119 00       		.byte	0
 4060 011a 31       		.uleb128 0x31
 4061 011b 13       		.uleb128 0x13
 4062 011c 11       		.uleb128 0x11
 4063 011d 01       		.uleb128 0x1
 4064 011e 12       		.uleb128 0x12
 4065 011f 06       		.uleb128 0x6
 4066 0120 40       		.uleb128 0x40
 4067 0121 18       		.uleb128 0x18
 4068 0122 9742     		.uleb128 0x2117
 4069 0124 19       		.uleb128 0x19
 4070 0125 00       		.byte	0
 4071 0126 00       		.byte	0
 4072 0127 16       		.uleb128 0x16
 4073 0128 2E       		.uleb128 0x2e
 4074 0129 01       		.byte	0x1
 4075 012a 31       		.uleb128 0x31
 4076 012b 13       		.uleb128 0x13
 4077 012c 11       		.uleb128 0x11
 4078 012d 01       		.uleb128 0x1
 4079 012e 12       		.uleb128 0x12
 4080 012f 06       		.uleb128 0x6
 4081 0130 40       		.uleb128 0x40
 4082 0131 18       		.uleb128 0x18
 4083 0132 9742     		.uleb128 0x2117
 4084 0134 19       		.uleb128 0x19
 4085 0135 01       		.uleb128 0x1
 4086 0136 13       		.uleb128 0x13
 4087 0137 00       		.byte	0
 4088 0138 00       		.byte	0
 4089 0139 17       		.uleb128 0x17
 4090 013a 05       		.uleb128 0x5
 4091 013b 00       		.byte	0
 4092 013c 31       		.uleb128 0x31
 4093 013d 13       		.uleb128 0x13
 4094 013e 02       		.uleb128 0x2
 4095 013f 17       		.uleb128 0x17
 4096 0140 00       		.byte	0
 4097 0141 00       		.byte	0
 4098 0142 18       		.uleb128 0x18
 4099 0143 05       		.uleb128 0x5
 4100 0144 00       		.byte	0
 4101 0145 03       		.uleb128 0x3
 4102 0146 0E       		.uleb128 0xe
 4103 0147 3A       		.uleb128 0x3a
 4104 0148 0B       		.uleb128 0xb
ARM GAS  C:\Users\kevin\AppData\Local\Temp\ccEmeqeI.s 			page 116


 4105 0149 3B       		.uleb128 0x3b
 4106 014a 05       		.uleb128 0x5
 4107 014b 49       		.uleb128 0x49
 4108 014c 13       		.uleb128 0x13
 4109 014d 02       		.uleb128 0x2
 4110 014e 17       		.uleb128 0x17
 4111 014f 00       		.byte	0
 4112 0150 00       		.byte	0
 4113 0151 19       		.uleb128 0x19
 4114 0152 05       		.uleb128 0x5
 4115 0153 00       		.byte	0
 4116 0154 03       		.uleb128 0x3
 4117 0155 0E       		.uleb128 0xe
 4118 0156 3A       		.uleb128 0x3a
 4119 0157 0B       		.uleb128 0xb
 4120 0158 3B       		.uleb128 0x3b
 4121 0159 05       		.uleb128 0x5
 4122 015a 49       		.uleb128 0x49
 4123 015b 13       		.uleb128 0x13
 4124 015c 02       		.uleb128 0x2
 4125 015d 18       		.uleb128 0x18
 4126 015e 00       		.byte	0
 4127 015f 00       		.byte	0
 4128 0160 1A       		.uleb128 0x1a
 4129 0161 2E       		.uleb128 0x2e
 4130 0162 01       		.byte	0x1
 4131 0163 3F       		.uleb128 0x3f
 4132 0164 19       		.uleb128 0x19
 4133 0165 03       		.uleb128 0x3
 4134 0166 0E       		.uleb128 0xe
 4135 0167 3A       		.uleb128 0x3a
 4136 0168 0B       		.uleb128 0xb
 4137 0169 3B       		.uleb128 0x3b
 4138 016a 05       		.uleb128 0x5
 4139 016b 27       		.uleb128 0x27
 4140 016c 19       		.uleb128 0x19
 4141 016d 49       		.uleb128 0x49
 4142 016e 13       		.uleb128 0x13
 4143 016f 11       		.uleb128 0x11
 4144 0170 01       		.uleb128 0x1
 4145 0171 12       		.uleb128 0x12
 4146 0172 06       		.uleb128 0x6
 4147 0173 40       		.uleb128 0x40
 4148 0174 18       		.uleb128 0x18
 4149 0175 9742     		.uleb128 0x2117
 4150 0177 19       		.uleb128 0x19
 4151 0178 01       		.uleb128 0x1
 4152 0179 13       		.uleb128 0x13
 4153 017a 00       		.byte	0
 4154 017b 00       		.byte	0
 4155 017c 1B       		.uleb128 0x1b
 4156 017d 34       		.uleb128 0x34
 4157 017e 00       		.byte	0
 4158 017f 03       		.uleb128 0x3
 4159 0180 0E       		.uleb128 0xe
 4160 0181 3A       		.uleb128 0x3a
 4161 0182 0B       		.uleb128 0xb
ARM GAS  C:\Users\kevin\AppData\Local\Temp\ccEmeqeI.s 			page 117


 4162 0183 3B       		.uleb128 0x3b
 4163 0184 05       		.uleb128 0x5
 4164 0185 49       		.uleb128 0x49
 4165 0186 13       		.uleb128 0x13
 4166 0187 00       		.byte	0
 4167 0188 00       		.byte	0
 4168 0189 1C       		.uleb128 0x1c
 4169 018a 2E       		.uleb128 0x2e
 4170 018b 00       		.byte	0
 4171 018c 3F       		.uleb128 0x3f
 4172 018d 19       		.uleb128 0x19
 4173 018e 03       		.uleb128 0x3
 4174 018f 0E       		.uleb128 0xe
 4175 0190 3A       		.uleb128 0x3a
 4176 0191 0B       		.uleb128 0xb
 4177 0192 3B       		.uleb128 0x3b
 4178 0193 05       		.uleb128 0x5
 4179 0194 27       		.uleb128 0x27
 4180 0195 19       		.uleb128 0x19
 4181 0196 49       		.uleb128 0x49
 4182 0197 13       		.uleb128 0x13
 4183 0198 11       		.uleb128 0x11
 4184 0199 01       		.uleb128 0x1
 4185 019a 12       		.uleb128 0x12
 4186 019b 06       		.uleb128 0x6
 4187 019c 40       		.uleb128 0x40
 4188 019d 18       		.uleb128 0x18
 4189 019e 9742     		.uleb128 0x2117
 4190 01a0 19       		.uleb128 0x19
 4191 01a1 00       		.byte	0
 4192 01a2 00       		.byte	0
 4193 01a3 1D       		.uleb128 0x1d
 4194 01a4 1D       		.uleb128 0x1d
 4195 01a5 00       		.byte	0
 4196 01a6 31       		.uleb128 0x31
 4197 01a7 13       		.uleb128 0x13
 4198 01a8 11       		.uleb128 0x11
 4199 01a9 01       		.uleb128 0x1
 4200 01aa 12       		.uleb128 0x12
 4201 01ab 06       		.uleb128 0x6
 4202 01ac 58       		.uleb128 0x58
 4203 01ad 0B       		.uleb128 0xb
 4204 01ae 59       		.uleb128 0x59
 4205 01af 05       		.uleb128 0x5
 4206 01b0 00       		.byte	0
 4207 01b1 00       		.byte	0
 4208 01b2 1E       		.uleb128 0x1e
 4209 01b3 1D       		.uleb128 0x1d
 4210 01b4 01       		.byte	0x1
 4211 01b5 31       		.uleb128 0x31
 4212 01b6 13       		.uleb128 0x13
 4213 01b7 11       		.uleb128 0x11
 4214 01b8 01       		.uleb128 0x1
 4215 01b9 12       		.uleb128 0x12
 4216 01ba 06       		.uleb128 0x6
 4217 01bb 58       		.uleb128 0x58
 4218 01bc 0B       		.uleb128 0xb
ARM GAS  C:\Users\kevin\AppData\Local\Temp\ccEmeqeI.s 			page 118


 4219 01bd 59       		.uleb128 0x59
 4220 01be 05       		.uleb128 0x5
 4221 01bf 01       		.uleb128 0x1
 4222 01c0 13       		.uleb128 0x13
 4223 01c1 00       		.byte	0
 4224 01c2 00       		.byte	0
 4225 01c3 1F       		.uleb128 0x1f
 4226 01c4 2E       		.uleb128 0x2e
 4227 01c5 01       		.byte	0x1
 4228 01c6 3F       		.uleb128 0x3f
 4229 01c7 19       		.uleb128 0x19
 4230 01c8 03       		.uleb128 0x3
 4231 01c9 0E       		.uleb128 0xe
 4232 01ca 3A       		.uleb128 0x3a
 4233 01cb 0B       		.uleb128 0xb
 4234 01cc 3B       		.uleb128 0x3b
 4235 01cd 05       		.uleb128 0x5
 4236 01ce 27       		.uleb128 0x27
 4237 01cf 19       		.uleb128 0x19
 4238 01d0 11       		.uleb128 0x11
 4239 01d1 01       		.uleb128 0x1
 4240 01d2 12       		.uleb128 0x12
 4241 01d3 06       		.uleb128 0x6
 4242 01d4 40       		.uleb128 0x40
 4243 01d5 18       		.uleb128 0x18
 4244 01d6 9642     		.uleb128 0x2116
 4245 01d8 19       		.uleb128 0x19
 4246 01d9 01       		.uleb128 0x1
 4247 01da 13       		.uleb128 0x13
 4248 01db 00       		.byte	0
 4249 01dc 00       		.byte	0
 4250 01dd 20       		.uleb128 0x20
 4251 01de 34       		.uleb128 0x34
 4252 01df 00       		.byte	0
 4253 01e0 03       		.uleb128 0x3
 4254 01e1 0E       		.uleb128 0xe
 4255 01e2 3A       		.uleb128 0x3a
 4256 01e3 0B       		.uleb128 0xb
 4257 01e4 3B       		.uleb128 0x3b
 4258 01e5 05       		.uleb128 0x5
 4259 01e6 49       		.uleb128 0x49
 4260 01e7 13       		.uleb128 0x13
 4261 01e8 02       		.uleb128 0x2
 4262 01e9 18       		.uleb128 0x18
 4263 01ea 00       		.byte	0
 4264 01eb 00       		.byte	0
 4265 01ec 21       		.uleb128 0x21
 4266 01ed 34       		.uleb128 0x34
 4267 01ee 00       		.byte	0
 4268 01ef 03       		.uleb128 0x3
 4269 01f0 0E       		.uleb128 0xe
 4270 01f1 3A       		.uleb128 0x3a
 4271 01f2 0B       		.uleb128 0xb
 4272 01f3 3B       		.uleb128 0x3b
 4273 01f4 0B       		.uleb128 0xb
 4274 01f5 49       		.uleb128 0x49
 4275 01f6 13       		.uleb128 0x13
ARM GAS  C:\Users\kevin\AppData\Local\Temp\ccEmeqeI.s 			page 119


 4276 01f7 3F       		.uleb128 0x3f
 4277 01f8 19       		.uleb128 0x19
 4278 01f9 02       		.uleb128 0x2
 4279 01fa 18       		.uleb128 0x18
 4280 01fb 00       		.byte	0
 4281 01fc 00       		.byte	0
 4282 01fd 22       		.uleb128 0x22
 4283 01fe 01       		.uleb128 0x1
 4284 01ff 01       		.byte	0x1
 4285 0200 49       		.uleb128 0x49
 4286 0201 13       		.uleb128 0x13
 4287 0202 01       		.uleb128 0x1
 4288 0203 13       		.uleb128 0x13
 4289 0204 00       		.byte	0
 4290 0205 00       		.byte	0
 4291 0206 23       		.uleb128 0x23
 4292 0207 21       		.uleb128 0x21
 4293 0208 00       		.byte	0
 4294 0209 49       		.uleb128 0x49
 4295 020a 13       		.uleb128 0x13
 4296 020b 2F       		.uleb128 0x2f
 4297 020c 0B       		.uleb128 0xb
 4298 020d 00       		.byte	0
 4299 020e 00       		.byte	0
 4300 020f 24       		.uleb128 0x24
 4301 0210 34       		.uleb128 0x34
 4302 0211 00       		.byte	0
 4303 0212 03       		.uleb128 0x3
 4304 0213 0E       		.uleb128 0xe
 4305 0214 3A       		.uleb128 0x3a
 4306 0215 0B       		.uleb128 0xb
 4307 0216 3B       		.uleb128 0x3b
 4308 0217 05       		.uleb128 0x5
 4309 0218 49       		.uleb128 0x49
 4310 0219 13       		.uleb128 0x13
 4311 021a 3F       		.uleb128 0x3f
 4312 021b 19       		.uleb128 0x19
 4313 021c 3C       		.uleb128 0x3c
 4314 021d 19       		.uleb128 0x19
 4315 021e 00       		.byte	0
 4316 021f 00       		.byte	0
 4317 0220 25       		.uleb128 0x25
 4318 0221 2E       		.uleb128 0x2e
 4319 0222 01       		.byte	0x1
 4320 0223 3F       		.uleb128 0x3f
 4321 0224 19       		.uleb128 0x19
 4322 0225 03       		.uleb128 0x3
 4323 0226 0E       		.uleb128 0xe
 4324 0227 3A       		.uleb128 0x3a
 4325 0228 0B       		.uleb128 0xb
 4326 0229 3B       		.uleb128 0x3b
 4327 022a 0B       		.uleb128 0xb
 4328 022b 27       		.uleb128 0x27
 4329 022c 19       		.uleb128 0x19
 4330 022d 3C       		.uleb128 0x3c
 4331 022e 19       		.uleb128 0x19
 4332 022f 01       		.uleb128 0x1
ARM GAS  C:\Users\kevin\AppData\Local\Temp\ccEmeqeI.s 			page 120


 4333 0230 13       		.uleb128 0x13
 4334 0231 00       		.byte	0
 4335 0232 00       		.byte	0
 4336 0233 26       		.uleb128 0x26
 4337 0234 05       		.uleb128 0x5
 4338 0235 00       		.byte	0
 4339 0236 49       		.uleb128 0x49
 4340 0237 13       		.uleb128 0x13
 4341 0238 00       		.byte	0
 4342 0239 00       		.byte	0
 4343 023a 27       		.uleb128 0x27
 4344 023b 2E       		.uleb128 0x2e
 4345 023c 01       		.byte	0x1
 4346 023d 3F       		.uleb128 0x3f
 4347 023e 19       		.uleb128 0x19
 4348 023f 03       		.uleb128 0x3
 4349 0240 0E       		.uleb128 0xe
 4350 0241 3A       		.uleb128 0x3a
 4351 0242 0B       		.uleb128 0xb
 4352 0243 3B       		.uleb128 0x3b
 4353 0244 0B       		.uleb128 0xb
 4354 0245 27       		.uleb128 0x27
 4355 0246 19       		.uleb128 0x19
 4356 0247 49       		.uleb128 0x49
 4357 0248 13       		.uleb128 0x13
 4358 0249 3C       		.uleb128 0x3c
 4359 024a 19       		.uleb128 0x19
 4360 024b 01       		.uleb128 0x1
 4361 024c 13       		.uleb128 0x13
 4362 024d 00       		.byte	0
 4363 024e 00       		.byte	0
 4364 024f 28       		.uleb128 0x28
 4365 0250 2E       		.uleb128 0x2e
 4366 0251 00       		.byte	0
 4367 0252 3F       		.uleb128 0x3f
 4368 0253 19       		.uleb128 0x19
 4369 0254 03       		.uleb128 0x3
 4370 0255 0E       		.uleb128 0xe
 4371 0256 3A       		.uleb128 0x3a
 4372 0257 0B       		.uleb128 0xb
 4373 0258 3B       		.uleb128 0x3b
 4374 0259 0B       		.uleb128 0xb
 4375 025a 27       		.uleb128 0x27
 4376 025b 19       		.uleb128 0x19
 4377 025c 3C       		.uleb128 0x3c
 4378 025d 19       		.uleb128 0x19
 4379 025e 00       		.byte	0
 4380 025f 00       		.byte	0
 4381 0260 29       		.uleb128 0x29
 4382 0261 2E       		.uleb128 0x2e
 4383 0262 00       		.byte	0
 4384 0263 3F       		.uleb128 0x3f
 4385 0264 19       		.uleb128 0x19
 4386 0265 03       		.uleb128 0x3
 4387 0266 0E       		.uleb128 0xe
 4388 0267 3A       		.uleb128 0x3a
 4389 0268 0B       		.uleb128 0xb
ARM GAS  C:\Users\kevin\AppData\Local\Temp\ccEmeqeI.s 			page 121


 4390 0269 3B       		.uleb128 0x3b
 4391 026a 0B       		.uleb128 0xb
 4392 026b 27       		.uleb128 0x27
 4393 026c 19       		.uleb128 0x19
 4394 026d 49       		.uleb128 0x49
 4395 026e 13       		.uleb128 0x13
 4396 026f 3C       		.uleb128 0x3c
 4397 0270 19       		.uleb128 0x19
 4398 0271 00       		.byte	0
 4399 0272 00       		.byte	0
 4400 0273 2A       		.uleb128 0x2a
 4401 0274 2E       		.uleb128 0x2e
 4402 0275 01       		.byte	0x1
 4403 0276 3F       		.uleb128 0x3f
 4404 0277 19       		.uleb128 0x19
 4405 0278 03       		.uleb128 0x3
 4406 0279 0E       		.uleb128 0xe
 4407 027a 3A       		.uleb128 0x3a
 4408 027b 0B       		.uleb128 0xb
 4409 027c 3B       		.uleb128 0x3b
 4410 027d 0B       		.uleb128 0xb
 4411 027e 27       		.uleb128 0x27
 4412 027f 19       		.uleb128 0x19
 4413 0280 3C       		.uleb128 0x3c
 4414 0281 19       		.uleb128 0x19
 4415 0282 00       		.byte	0
 4416 0283 00       		.byte	0
 4417 0284 00       		.byte	0
 4418              		.section	.debug_loc,"",%progbits
 4419              	.Ldebug_loc0:
 4420              	.LLST0:
 4421 0000 06000000 		.4byte	.LVL0
 4422 0004 12000000 		.4byte	.LVL1
 4423 0008 0600     		.2byte	0x6
 4424 000a 71       		.byte	0x71
 4425 000b 00       		.sleb128 0
 4426 000c 08       		.byte	0x8
 4427 000d F0       		.byte	0xf0
 4428 000e 1A       		.byte	0x1a
 4429 000f 9F       		.byte	0x9f
 4430 0010 16000000 		.4byte	.LVL2
 4431 0014 1A000000 		.4byte	.LVL3
 4432 0018 0100     		.2byte	0x1
 4433 001a 51       		.byte	0x51
 4434 001b 1A000000 		.4byte	.LVL3
 4435 001f 1E000000 		.4byte	.LVL4
 4436 0023 0100     		.2byte	0x1
 4437 0025 52       		.byte	0x52
 4438 0026 1E000000 		.4byte	.LVL4
 4439 002a 20000000 		.4byte	.LVL5
 4440 002e 0200     		.2byte	0x2
 4441 0030 73       		.byte	0x73
 4442 0031 00       		.sleb128 0
 4443 0032 20000000 		.4byte	.LVL5
 4444 0036 22000000 		.4byte	.LVL6
 4445 003a 0500     		.2byte	0x5
 4446 003c 0C       		.byte	0xc
ARM GAS  C:\Users\kevin\AppData\Local\Temp\ccEmeqeI.s 			page 122


 4447 003d 00FF0840 		.4byte	0x4008ff00
 4448 0041 2E000000 		.4byte	.LVL7
 4449 0045 30000000 		.4byte	.LVL8
 4450 0049 0100     		.2byte	0x1
 4451 004b 51       		.byte	0x51
 4452 004c 30000000 		.4byte	.LVL8
 4453 0050 3B000000 		.4byte	.LVL10-1
 4454 0054 0100     		.2byte	0x1
 4455 0056 52       		.byte	0x52
 4456 0057 00000000 		.4byte	0
 4457 005b 00000000 		.4byte	0
 4458              	.LLST1:
 4459 005f 28000000 		.4byte	.LVL19
 4460 0063 31000000 		.4byte	.LVL21-1
 4461 0067 0100     		.2byte	0x1
 4462 0069 52       		.byte	0x52
 4463 006a 00000000 		.4byte	0
 4464 006e 00000000 		.4byte	0
 4465              	.LLST2:
 4466 0072 00000000 		.4byte	.LVL25
 4467 0076 04000000 		.4byte	.LVL26
 4468 007a 0100     		.2byte	0x1
 4469 007c 50       		.byte	0x50
 4470 007d 04000000 		.4byte	.LVL26
 4471 0081 10000000 		.4byte	.LFE43
 4472 0085 0400     		.2byte	0x4
 4473 0087 F3       		.byte	0xf3
 4474 0088 01       		.uleb128 0x1
 4475 0089 50       		.byte	0x50
 4476 008a 9F       		.byte	0x9f
 4477 008b 00000000 		.4byte	0
 4478 008f 00000000 		.4byte	0
 4479              	.LLST3:
 4480 0093 00000000 		.4byte	.LVL27
 4481 0097 04000000 		.4byte	.LVL28
 4482 009b 0100     		.2byte	0x1
 4483 009d 50       		.byte	0x50
 4484 009e 04000000 		.4byte	.LVL28
 4485 00a2 10000000 		.4byte	.LFE44
 4486 00a6 0400     		.2byte	0x4
 4487 00a8 F3       		.byte	0xf3
 4488 00a9 01       		.uleb128 0x1
 4489 00aa 50       		.byte	0x50
 4490 00ab 9F       		.byte	0x9f
 4491 00ac 00000000 		.4byte	0
 4492 00b0 00000000 		.4byte	0
 4493              	.LLST4:
 4494 00b4 00000000 		.4byte	.LVL29
 4495 00b8 04000000 		.4byte	.LVL30
 4496 00bc 0100     		.2byte	0x1
 4497 00be 50       		.byte	0x50
 4498 00bf 04000000 		.4byte	.LVL30
 4499 00c3 0C000000 		.4byte	.LFE45
 4500 00c7 0400     		.2byte	0x4
 4501 00c9 F3       		.byte	0xf3
 4502 00ca 01       		.uleb128 0x1
 4503 00cb 50       		.byte	0x50
ARM GAS  C:\Users\kevin\AppData\Local\Temp\ccEmeqeI.s 			page 123


 4504 00cc 9F       		.byte	0x9f
 4505 00cd 00000000 		.4byte	0
 4506 00d1 00000000 		.4byte	0
 4507              	.LLST5:
 4508 00d5 00000000 		.4byte	.LVL31
 4509 00d9 15000000 		.4byte	.LVL36-1
 4510 00dd 0100     		.2byte	0x1
 4511 00df 50       		.byte	0x50
 4512 00e0 15000000 		.4byte	.LVL36-1
 4513 00e4 48000000 		.4byte	.LFE47
 4514 00e8 0400     		.2byte	0x4
 4515 00ea F3       		.byte	0xf3
 4516 00eb 01       		.uleb128 0x1
 4517 00ec 50       		.byte	0x50
 4518 00ed 9F       		.byte	0x9f
 4519 00ee 00000000 		.4byte	0
 4520 00f2 00000000 		.4byte	0
 4521              	.LLST6:
 4522 00f6 10000000 		.4byte	.LVL34
 4523 00fa 2E000000 		.4byte	.LVL40
 4524 00fe 0500     		.2byte	0x5
 4525 0100 75       		.byte	0x75
 4526 0101 00       		.sleb128 0
 4527 0102 33       		.byte	0x33
 4528 0103 1E       		.byte	0x1e
 4529 0104 9F       		.byte	0x9f
 4530 0105 2E000000 		.4byte	.LVL40
 4531 0109 48000000 		.4byte	.LFE47
 4532 010d 0E00     		.2byte	0xe
 4533 010f F3       		.byte	0xf3
 4534 0110 01       		.uleb128 0x1
 4535 0111 50       		.byte	0x50
 4536 0112 03       		.byte	0x3
 4537 0113 0F000000 		.4byte	.LANCHOR1+15
 4538 0117 22       		.byte	0x22
 4539 0118 94       		.byte	0x94
 4540 0119 01       		.byte	0x1
 4541 011a 33       		.byte	0x33
 4542 011b 1E       		.byte	0x1e
 4543 011c 9F       		.byte	0x9f
 4544 011d 00000000 		.4byte	0
 4545 0121 00000000 		.4byte	0
 4546              	.LLST7:
 4547 0125 10000000 		.4byte	.LVL34
 4548 0129 2E000000 		.4byte	.LVL40
 4549 012d 0500     		.2byte	0x5
 4550 012f 75       		.byte	0x75
 4551 0130 00       		.sleb128 0
 4552 0131 32       		.byte	0x32
 4553 0132 24       		.byte	0x24
 4554 0133 9F       		.byte	0x9f
 4555 0134 2E000000 		.4byte	.LVL40
 4556 0138 48000000 		.4byte	.LFE47
 4557 013c 0E00     		.2byte	0xe
 4558 013e F3       		.byte	0xf3
 4559 013f 01       		.uleb128 0x1
 4560 0140 50       		.byte	0x50
ARM GAS  C:\Users\kevin\AppData\Local\Temp\ccEmeqeI.s 			page 124


 4561 0141 03       		.byte	0x3
 4562 0142 0F000000 		.4byte	.LANCHOR1+15
 4563 0146 22       		.byte	0x22
 4564 0147 94       		.byte	0x94
 4565 0148 01       		.byte	0x1
 4566 0149 32       		.byte	0x32
 4567 014a 24       		.byte	0x24
 4568 014b 9F       		.byte	0x9f
 4569 014c 00000000 		.4byte	0
 4570 0150 00000000 		.4byte	0
 4571              	.LLST8:
 4572 0154 16000000 		.4byte	.LVL36
 4573 0158 41000000 		.4byte	.LVL41-1
 4574 015c 0100     		.2byte	0x1
 4575 015e 50       		.byte	0x50
 4576 015f 00000000 		.4byte	0
 4577 0163 00000000 		.4byte	0
 4578              	.LLST9:
 4579 0167 1C000000 		.4byte	.LVL37
 4580 016b 41000000 		.4byte	.LVL41-1
 4581 016f 0100     		.2byte	0x1
 4582 0171 51       		.byte	0x51
 4583 0172 00000000 		.4byte	0
 4584 0176 00000000 		.4byte	0
 4585              	.LLST10:
 4586 017a 08000000 		.4byte	.LVL32
 4587 017e 0E000000 		.4byte	.LVL33
 4588 0182 0100     		.2byte	0x1
 4589 0184 56       		.byte	0x56
 4590 0185 0E000000 		.4byte	.LVL33
 4591 0189 12000000 		.4byte	.LVL35
 4592 018d 0D00     		.2byte	0xd
 4593 018f 74       		.byte	0x74
 4594 0190 00       		.sleb128 0
 4595 0191 70       		.byte	0x70
 4596 0192 00       		.sleb128 0
 4597 0193 22       		.byte	0x22
 4598 0194 23       		.byte	0x23
 4599 0195 0C       		.uleb128 0xc
 4600 0196 94       		.byte	0x94
 4601 0197 01       		.byte	0x1
 4602 0198 08       		.byte	0x8
 4603 0199 FF       		.byte	0xff
 4604 019a 1A       		.byte	0x1a
 4605 019b 9F       		.byte	0x9f
 4606 019c 12000000 		.4byte	.LVL35
 4607 01a0 15000000 		.4byte	.LVL36-1
 4608 01a4 0E00     		.2byte	0xe
 4609 01a6 70       		.byte	0x70
 4610 01a7 00       		.sleb128 0
 4611 01a8 03       		.byte	0x3
 4612 01a9 0C000000 		.4byte	.LANCHOR1+12
 4613 01ad 22       		.byte	0x22
 4614 01ae 94       		.byte	0x94
 4615 01af 01       		.byte	0x1
 4616 01b0 08       		.byte	0x8
 4617 01b1 FF       		.byte	0xff
ARM GAS  C:\Users\kevin\AppData\Local\Temp\ccEmeqeI.s 			page 125


 4618 01b2 1A       		.byte	0x1a
 4619 01b3 9F       		.byte	0x9f
 4620 01b4 15000000 		.4byte	.LVL36-1
 4621 01b8 48000000 		.4byte	.LFE47
 4622 01bc 0F00     		.2byte	0xf
 4623 01be F3       		.byte	0xf3
 4624 01bf 01       		.uleb128 0x1
 4625 01c0 50       		.byte	0x50
 4626 01c1 03       		.byte	0x3
 4627 01c2 0C000000 		.4byte	.LANCHOR1+12
 4628 01c6 22       		.byte	0x22
 4629 01c7 94       		.byte	0x94
 4630 01c8 01       		.byte	0x1
 4631 01c9 08       		.byte	0x8
 4632 01ca FF       		.byte	0xff
 4633 01cb 1A       		.byte	0x1a
 4634 01cc 9F       		.byte	0x9f
 4635 01cd 00000000 		.4byte	0
 4636 01d1 00000000 		.4byte	0
 4637              	.LLST11:
 4638 01d5 00000000 		.4byte	.LVL42
 4639 01d9 1C000000 		.4byte	.LVL47
 4640 01dd 0100     		.2byte	0x1
 4641 01df 50       		.byte	0x50
 4642 01e0 1C000000 		.4byte	.LVL47
 4643 01e4 68000000 		.4byte	.LFE48
 4644 01e8 0400     		.2byte	0x4
 4645 01ea F3       		.byte	0xf3
 4646 01eb 01       		.uleb128 0x1
 4647 01ec 50       		.byte	0x50
 4648 01ed 9F       		.byte	0x9f
 4649 01ee 00000000 		.4byte	0
 4650 01f2 00000000 		.4byte	0
 4651              	.LLST12:
 4652 01f6 3E000000 		.4byte	.LVL49
 4653 01fa 4F000000 		.4byte	.LVL54-1
 4654 01fe 0100     		.2byte	0x1
 4655 0200 50       		.byte	0x50
 4656 0201 00000000 		.4byte	0
 4657 0205 00000000 		.4byte	0
 4658              	.LLST13:
 4659 0209 40000000 		.4byte	.LVL50
 4660 020d 4A000000 		.4byte	.LVL53
 4661 0211 0100     		.2byte	0x1
 4662 0213 52       		.byte	0x52
 4663 0214 4A000000 		.4byte	.LVL53
 4664 0218 5C000000 		.4byte	.LVL56
 4665 021c 0100     		.2byte	0x1
 4666 021e 56       		.byte	0x56
 4667 021f 00000000 		.4byte	0
 4668 0223 00000000 		.4byte	0
 4669              	.LLST14:
 4670 0227 0A000000 		.4byte	.LVL43
 4671 022b 10000000 		.4byte	.LVL44
 4672 022f 0100     		.2byte	0x1
 4673 0231 55       		.byte	0x55
 4674 0232 10000000 		.4byte	.LVL44
ARM GAS  C:\Users\kevin\AppData\Local\Temp\ccEmeqeI.s 			page 126


 4675 0236 18000000 		.4byte	.LVL46
 4676 023a 0D00     		.2byte	0xd
 4677 023c 73       		.byte	0x73
 4678 023d 00       		.sleb128 0
 4679 023e 70       		.byte	0x70
 4680 023f 00       		.sleb128 0
 4681 0240 22       		.byte	0x22
 4682 0241 23       		.byte	0x23
 4683 0242 0C       		.uleb128 0xc
 4684 0243 94       		.byte	0x94
 4685 0244 01       		.byte	0x1
 4686 0245 08       		.byte	0x8
 4687 0246 FF       		.byte	0xff
 4688 0247 1A       		.byte	0x1a
 4689 0248 9F       		.byte	0x9f
 4690 0249 18000000 		.4byte	.LVL46
 4691 024d 1C000000 		.4byte	.LVL47
 4692 0251 0E00     		.2byte	0xe
 4693 0253 70       		.byte	0x70
 4694 0254 00       		.sleb128 0
 4695 0255 03       		.byte	0x3
 4696 0256 0C000000 		.4byte	.LANCHOR1+12
 4697 025a 22       		.byte	0x22
 4698 025b 94       		.byte	0x94
 4699 025c 01       		.byte	0x1
 4700 025d 08       		.byte	0x8
 4701 025e FF       		.byte	0xff
 4702 025f 1A       		.byte	0x1a
 4703 0260 9F       		.byte	0x9f
 4704 0261 1C000000 		.4byte	.LVL47
 4705 0265 68000000 		.4byte	.LFE48
 4706 0269 0F00     		.2byte	0xf
 4707 026b F3       		.byte	0xf3
 4708 026c 01       		.uleb128 0x1
 4709 026d 50       		.byte	0x50
 4710 026e 03       		.byte	0x3
 4711 026f 0C000000 		.4byte	.LANCHOR1+12
 4712 0273 22       		.byte	0x22
 4713 0274 94       		.byte	0x94
 4714 0275 01       		.byte	0x1
 4715 0276 08       		.byte	0x8
 4716 0277 FF       		.byte	0xff
 4717 0278 1A       		.byte	0x1a
 4718 0279 9F       		.byte	0x9f
 4719 027a 00000000 		.4byte	0
 4720 027e 00000000 		.4byte	0
 4721              	.LLST15:
 4722 0282 12000000 		.4byte	.LVL45
 4723 0286 5C000000 		.4byte	.LVL55
 4724 028a 0500     		.2byte	0x5
 4725 028c 74       		.byte	0x74
 4726 028d 00       		.sleb128 0
 4727 028e 32       		.byte	0x32
 4728 028f 24       		.byte	0x24
 4729 0290 9F       		.byte	0x9f
 4730 0291 5C000000 		.4byte	.LVL55
 4731 0295 68000000 		.4byte	.LFE48
ARM GAS  C:\Users\kevin\AppData\Local\Temp\ccEmeqeI.s 			page 127


 4732 0299 0E00     		.2byte	0xe
 4733 029b F3       		.byte	0xf3
 4734 029c 01       		.uleb128 0x1
 4735 029d 50       		.byte	0x50
 4736 029e 03       		.byte	0x3
 4737 029f 0F000000 		.4byte	.LANCHOR1+15
 4738 02a3 22       		.byte	0x22
 4739 02a4 94       		.byte	0x94
 4740 02a5 01       		.byte	0x1
 4741 02a6 32       		.byte	0x32
 4742 02a7 24       		.byte	0x24
 4743 02a8 9F       		.byte	0x9f
 4744 02a9 00000000 		.4byte	0
 4745 02ad 00000000 		.4byte	0
 4746              	.LLST16:
 4747 02b1 3E000000 		.4byte	.LVL49
 4748 02b5 5C000000 		.4byte	.LVL57
 4749 02b9 0100     		.2byte	0x1
 4750 02bb 57       		.byte	0x57
 4751 02bc 5C000000 		.4byte	.LVL57
 4752 02c0 68000000 		.4byte	.LFE48
 4753 02c4 1100     		.2byte	0x11
 4754 02c6 F3       		.byte	0xf3
 4755 02c7 01       		.uleb128 0x1
 4756 02c8 50       		.byte	0x50
 4757 02c9 03       		.byte	0x3
 4758 02ca 0F000000 		.4byte	.LANCHOR1+15
 4759 02ce 22       		.byte	0x22
 4760 02cf 94       		.byte	0x94
 4761 02d0 01       		.byte	0x1
 4762 02d1 08       		.byte	0x8
 4763 02d2 FF       		.byte	0xff
 4764 02d3 1A       		.byte	0x1a
 4765 02d4 33       		.byte	0x33
 4766 02d5 1E       		.byte	0x1e
 4767 02d6 9F       		.byte	0x9f
 4768 02d7 00000000 		.4byte	0
 4769 02db 00000000 		.4byte	0
 4770              	.LLST17:
 4771 02df 3E000000 		.4byte	.LVL49
 4772 02e3 48000000 		.4byte	.LVL52
 4773 02e7 0100     		.2byte	0x1
 4774 02e9 56       		.byte	0x56
 4775 02ea 00000000 		.4byte	0
 4776 02ee 00000000 		.4byte	0
 4777              	.LLST18:
 4778 02f2 00000000 		.4byte	.LVL58
 4779 02f6 08000000 		.4byte	.LVL59
 4780 02fa 0200     		.2byte	0x2
 4781 02fc 30       		.byte	0x30
 4782 02fd 9F       		.byte	0x9f
 4783 02fe 08000000 		.4byte	.LVL59
 4784 0302 0E000000 		.4byte	.LVL60
 4785 0306 0200     		.2byte	0x2
 4786 0308 31       		.byte	0x31
 4787 0309 9F       		.byte	0x9f
 4788 030a 0E000000 		.4byte	.LVL60
ARM GAS  C:\Users\kevin\AppData\Local\Temp\ccEmeqeI.s 			page 128


 4789 030e 14000000 		.4byte	.LVL61
 4790 0312 0200     		.2byte	0x2
 4791 0314 32       		.byte	0x32
 4792 0315 9F       		.byte	0x9f
 4793 0316 14000000 		.4byte	.LVL61
 4794 031a 16000000 		.4byte	.LFE46
 4795 031e 0200     		.2byte	0x2
 4796 0320 33       		.byte	0x33
 4797 0321 9F       		.byte	0x9f
 4798 0322 00000000 		.4byte	0
 4799 0326 00000000 		.4byte	0
 4800              	.LLST19:
 4801 032a 00000000 		.4byte	.LVL62
 4802 032e 18000000 		.4byte	.LVL67
 4803 0332 0100     		.2byte	0x1
 4804 0334 50       		.byte	0x50
 4805 0335 18000000 		.4byte	.LVL67
 4806 0339 24000000 		.4byte	.LFE51
 4807 033d 0400     		.2byte	0x4
 4808 033f F3       		.byte	0xf3
 4809 0340 01       		.uleb128 0x1
 4810 0341 50       		.byte	0x50
 4811 0342 9F       		.byte	0x9f
 4812 0343 00000000 		.4byte	0
 4813 0347 00000000 		.4byte	0
 4814              	.LLST20:
 4815 034b 00000000 		.4byte	.LVL62
 4816 034f 0A000000 		.4byte	.LVL64
 4817 0353 0100     		.2byte	0x1
 4818 0355 51       		.byte	0x51
 4819 0356 0A000000 		.4byte	.LVL64
 4820 035a 24000000 		.4byte	.LFE51
 4821 035e 0400     		.2byte	0x4
 4822 0360 F3       		.byte	0xf3
 4823 0361 01       		.uleb128 0x1
 4824 0362 51       		.byte	0x51
 4825 0363 9F       		.byte	0x9f
 4826 0364 00000000 		.4byte	0
 4827 0368 00000000 		.4byte	0
 4828              	.LLST21:
 4829 036c 00000000 		.4byte	.LVL62
 4830 0370 06000000 		.4byte	.LVL63
 4831 0374 0100     		.2byte	0x1
 4832 0376 52       		.byte	0x52
 4833 0377 06000000 		.4byte	.LVL63
 4834 037b 24000000 		.4byte	.LFE51
 4835 037f 0400     		.2byte	0x4
 4836 0381 F3       		.byte	0xf3
 4837 0382 01       		.uleb128 0x1
 4838 0383 52       		.byte	0x52
 4839 0384 9F       		.byte	0x9f
 4840 0385 00000000 		.4byte	0
 4841 0389 00000000 		.4byte	0
 4842              	.LLST22:
 4843 038d 00000000 		.4byte	.LVL62
 4844 0391 0A000000 		.4byte	.LVL64
 4845 0395 0500     		.2byte	0x5
ARM GAS  C:\Users\kevin\AppData\Local\Temp\ccEmeqeI.s 			page 129


 4846 0397 71       		.byte	0x71
 4847 0398 00       		.sleb128 0
 4848 0399 33       		.byte	0x33
 4849 039a 1E       		.byte	0x1e
 4850 039b 9F       		.byte	0x9f
 4851 039c 0A000000 		.4byte	.LVL64
 4852 03a0 1A000000 		.4byte	.LVL68
 4853 03a4 0100     		.2byte	0x1
 4854 03a6 51       		.byte	0x51
 4855 03a7 1A000000 		.4byte	.LVL68
 4856 03ab 24000000 		.4byte	.LFE51
 4857 03af 0600     		.2byte	0x6
 4858 03b1 F3       		.byte	0xf3
 4859 03b2 01       		.uleb128 0x1
 4860 03b3 51       		.byte	0x51
 4861 03b4 33       		.byte	0x33
 4862 03b5 1E       		.byte	0x1e
 4863 03b6 9F       		.byte	0x9f
 4864 03b7 00000000 		.4byte	0
 4865 03bb 00000000 		.4byte	0
 4866              	.LLST23:
 4867 03bf 12000000 		.4byte	.LVL65
 4868 03c3 1C000000 		.4byte	.LVL69
 4869 03c7 0100     		.2byte	0x1
 4870 03c9 52       		.byte	0x52
 4871 03ca 1C000000 		.4byte	.LVL69
 4872 03ce 24000000 		.4byte	.LFE51
 4873 03d2 0100     		.2byte	0x1
 4874 03d4 51       		.byte	0x51
 4875 03d5 00000000 		.4byte	0
 4876 03d9 00000000 		.4byte	0
 4877              	.LLST24:
 4878 03dd 00000000 		.4byte	.LVL70
 4879 03e1 0B000000 		.4byte	.LVL71-1
 4880 03e5 0100     		.2byte	0x1
 4881 03e7 50       		.byte	0x50
 4882 03e8 0B000000 		.4byte	.LVL71-1
 4883 03ec 2A000000 		.4byte	.LVL75
 4884 03f0 0100     		.2byte	0x1
 4885 03f2 54       		.byte	0x54
 4886 03f3 2A000000 		.4byte	.LVL75
 4887 03f7 2C000000 		.4byte	.LFE49
 4888 03fb 0400     		.2byte	0x4
 4889 03fd F3       		.byte	0xf3
 4890 03fe 01       		.uleb128 0x1
 4891 03ff 50       		.byte	0x50
 4892 0400 9F       		.byte	0x9f
 4893 0401 00000000 		.4byte	0
 4894 0405 00000000 		.4byte	0
 4895              	.LLST25:
 4896 0409 00000000 		.4byte	.LVL70
 4897 040d 0C000000 		.4byte	.LVL71
 4898 0411 0200     		.2byte	0x2
 4899 0413 30       		.byte	0x30
 4900 0414 9F       		.byte	0x9f
 4901 0415 0C000000 		.4byte	.LVL71
 4902 0419 16000000 		.4byte	.LVL72
ARM GAS  C:\Users\kevin\AppData\Local\Temp\ccEmeqeI.s 			page 130


 4903 041d 0200     		.2byte	0x2
 4904 041f 31       		.byte	0x31
 4905 0420 9F       		.byte	0x9f
 4906 0421 16000000 		.4byte	.LVL72
 4907 0425 20000000 		.4byte	.LVL73
 4908 0429 0200     		.2byte	0x2
 4909 042b 32       		.byte	0x32
 4910 042c 9F       		.byte	0x9f
 4911 042d 20000000 		.4byte	.LVL73
 4912 0431 2C000000 		.4byte	.LFE49
 4913 0435 0200     		.2byte	0x2
 4914 0437 33       		.byte	0x33
 4915 0438 9F       		.byte	0x9f
 4916 0439 00000000 		.4byte	0
 4917 043d 00000000 		.4byte	0
 4918              	.LLST26:
 4919 0441 00000000 		.4byte	.LVL70
 4920 0445 16000000 		.4byte	.LVL72
 4921 0449 0200     		.2byte	0x2
 4922 044b 31       		.byte	0x31
 4923 044c 9F       		.byte	0x9f
 4924 044d 16000000 		.4byte	.LVL72
 4925 0451 2C000000 		.4byte	.LFE49
 4926 0455 0200     		.2byte	0x2
 4927 0457 30       		.byte	0x30
 4928 0458 9F       		.byte	0x9f
 4929 0459 00000000 		.4byte	0
 4930 045d 00000000 		.4byte	0
 4931              	.LLST27:
 4932 0461 00000000 		.4byte	.LVL70
 4933 0465 0C000000 		.4byte	.LVL71
 4934 0469 0200     		.2byte	0x2
 4935 046b 30       		.byte	0x30
 4936 046c 9F       		.byte	0x9f
 4937 046d 0C000000 		.4byte	.LVL71
 4938 0471 16000000 		.4byte	.LVL72
 4939 0475 0200     		.2byte	0x2
 4940 0477 37       		.byte	0x37
 4941 0478 9F       		.byte	0x9f
 4942 0479 16000000 		.4byte	.LVL72
 4943 047d 2C000000 		.4byte	.LFE49
 4944 0481 0200     		.2byte	0x2
 4945 0483 30       		.byte	0x30
 4946 0484 9F       		.byte	0x9f
 4947 0485 00000000 		.4byte	0
 4948 0489 00000000 		.4byte	0
 4949              	.LLST28:
 4950 048d 0E000000 		.4byte	.LVL77
 4951 0491 10000000 		.4byte	.LVL78
 4952 0495 0100     		.2byte	0x1
 4953 0497 51       		.byte	0x51
 4954 0498 10000000 		.4byte	.LVL78
 4955 049c 24000000 		.4byte	.LFE50
 4956 04a0 0100     		.2byte	0x1
 4957 04a2 52       		.byte	0x52
 4958 04a3 00000000 		.4byte	0
 4959 04a7 00000000 		.4byte	0
ARM GAS  C:\Users\kevin\AppData\Local\Temp\ccEmeqeI.s 			page 131


 4960              	.LLST29:
 4961 04ab 00000000 		.4byte	.LVL80
 4962 04af 18000000 		.4byte	.LVL82
 4963 04b3 0100     		.2byte	0x1
 4964 04b5 50       		.byte	0x50
 4965 04b6 18000000 		.4byte	.LVL82
 4966 04ba 6E000000 		.4byte	.LVL96
 4967 04be 0100     		.2byte	0x1
 4968 04c0 54       		.byte	0x54
 4969 04c1 6E000000 		.4byte	.LVL96
 4970 04c5 A0000000 		.4byte	.LFE52
 4971 04c9 0400     		.2byte	0x4
 4972 04cb F3       		.byte	0xf3
 4973 04cc 01       		.uleb128 0x1
 4974 04cd 50       		.byte	0x50
 4975 04ce 9F       		.byte	0x9f
 4976 04cf 00000000 		.4byte	0
 4977 04d3 00000000 		.4byte	0
 4978              	.LLST30:
 4979 04d7 00000000 		.4byte	.LVL80
 4980 04db 18000000 		.4byte	.LVL82
 4981 04df 0800     		.2byte	0x8
 4982 04e1 70       		.byte	0x70
 4983 04e2 00       		.sleb128 0
 4984 04e3 03       		.byte	0x3
 4985 04e4 00000000 		.4byte	CapSense_widgetNumber
 4986 04e8 22       		.byte	0x22
 4987 04e9 18000000 		.4byte	.LVL82
 4988 04ed 6E000000 		.4byte	.LVL96
 4989 04f1 0800     		.2byte	0x8
 4990 04f3 74       		.byte	0x74
 4991 04f4 00       		.sleb128 0
 4992 04f5 03       		.byte	0x3
 4993 04f6 00000000 		.4byte	CapSense_widgetNumber
 4994 04fa 22       		.byte	0x22
 4995 04fb 6E000000 		.4byte	.LVL96
 4996 04ff A0000000 		.4byte	.LFE52
 4997 0503 0900     		.2byte	0x9
 4998 0505 F3       		.byte	0xf3
 4999 0506 01       		.uleb128 0x1
 5000 0507 50       		.byte	0x50
 5001 0508 03       		.byte	0x3
 5002 0509 00000000 		.4byte	CapSense_widgetNumber
 5003 050d 22       		.byte	0x22
 5004 050e 00000000 		.4byte	0
 5005 0512 00000000 		.4byte	0
 5006              	.LLST31:
 5007 0516 6E000000 		.4byte	.LVL96
 5008 051a 70000000 		.4byte	.LVL97
 5009 051e 0100     		.2byte	0x1
 5010 0520 50       		.byte	0x50
 5011 0521 70000000 		.4byte	.LVL97
 5012 0525 7E000000 		.4byte	.LVL100
 5013 0529 0100     		.2byte	0x1
 5014 052b 54       		.byte	0x54
 5015 052c 00000000 		.4byte	0
 5016 0530 00000000 		.4byte	0
ARM GAS  C:\Users\kevin\AppData\Local\Temp\ccEmeqeI.s 			page 132


 5017              	.LLST32:
 5018 0534 3A000000 		.4byte	.LVL86
 5019 0538 40000000 		.4byte	.LVL87
 5020 053c 0900     		.2byte	0x9
 5021 053e 75       		.byte	0x75
 5022 053f 00       		.sleb128 0
 5023 0540 11       		.byte	0x11
 5024 0541 80FE837C 		.sleb128 -8323328
 5025 0545 1A       		.byte	0x1a
 5026 0546 9F       		.byte	0x9f
 5027 0547 40000000 		.4byte	.LVL87
 5028 054b 44000000 		.4byte	.LVL88
 5029 054f 0100     		.2byte	0x1
 5030 0551 50       		.byte	0x50
 5031 0552 44000000 		.4byte	.LVL88
 5032 0556 4C000000 		.4byte	.LVL89
 5033 055a 0900     		.2byte	0x9
 5034 055c 75       		.byte	0x75
 5035 055d 00       		.sleb128 0
 5036 055e 11       		.byte	0x11
 5037 055f 80FE837C 		.sleb128 -8323328
 5038 0563 1A       		.byte	0x1a
 5039 0564 9F       		.byte	0x9f
 5040 0565 4C000000 		.4byte	.LVL89
 5041 0569 52000000 		.4byte	.LVL90
 5042 056d 0100     		.2byte	0x1
 5043 056f 52       		.byte	0x52
 5044 0570 52000000 		.4byte	.LVL90
 5045 0574 7E000000 		.4byte	.LVL102
 5046 0578 0100     		.2byte	0x1
 5047 057a 57       		.byte	0x57
 5048 057b 00000000 		.4byte	0
 5049 057f 00000000 		.4byte	0
 5050              	.LLST33:
 5051 0583 12000000 		.4byte	.LVL81
 5052 0587 7E000000 		.4byte	.LVL101
 5053 058b 0100     		.2byte	0x1
 5054 058d 56       		.byte	0x56
 5055 058e 7E000000 		.4byte	.LVL101
 5056 0592 A0000000 		.4byte	.LFE52
 5057 0596 1600     		.2byte	0x16
 5058 0598 F3       		.byte	0xf3
 5059 0599 01       		.uleb128 0x1
 5060 059a 50       		.byte	0x50
 5061 059b 03       		.byte	0x3
 5062 059c 50000000 		.4byte	.LANCHOR1+80
 5063 05a0 22       		.byte	0x22
 5064 05a1 94       		.byte	0x94
 5065 05a2 01       		.byte	0x1
 5066 05a3 08       		.byte	0x8
 5067 05a4 FF       		.byte	0xff
 5068 05a5 1A       		.byte	0x1a
 5069 05a6 32       		.byte	0x32
 5070 05a7 24       		.byte	0x24
 5071 05a8 03       		.byte	0x3
 5072 05a9 00000000 		.4byte	.LANCHOR1
 5073 05ad 22       		.byte	0x22
ARM GAS  C:\Users\kevin\AppData\Local\Temp\ccEmeqeI.s 			page 133


 5074 05ae 00000000 		.4byte	0
 5075 05b2 00000000 		.4byte	0
 5076              	.LLST34:
 5077 05b6 00000000 		.4byte	.LVL103
 5078 05ba 13000000 		.4byte	.LVL104-1
 5079 05be 0100     		.2byte	0x1
 5080 05c0 50       		.byte	0x50
 5081 05c1 13000000 		.4byte	.LVL104-1
 5082 05c5 1C000000 		.4byte	.LFE39
 5083 05c9 0400     		.2byte	0x4
 5084 05cb F3       		.byte	0xf3
 5085 05cc 01       		.uleb128 0x1
 5086 05cd 50       		.byte	0x50
 5087 05ce 9F       		.byte	0x9f
 5088 05cf 00000000 		.4byte	0
 5089 05d3 00000000 		.4byte	0
 5090              	.LLST35:
 5091 05d7 00000000 		.4byte	.LVL105
 5092 05db 11000000 		.4byte	.LVL106-1
 5093 05df 0100     		.2byte	0x1
 5094 05e1 50       		.byte	0x50
 5095 05e2 11000000 		.4byte	.LVL106-1
 5096 05e6 54000000 		.4byte	.LFE53
 5097 05ea 0400     		.2byte	0x4
 5098 05ec F3       		.byte	0xf3
 5099 05ed 01       		.uleb128 0x1
 5100 05ee 50       		.byte	0x50
 5101 05ef 9F       		.byte	0x9f
 5102 05f0 00000000 		.4byte	0
 5103 05f4 00000000 		.4byte	0
 5104              	.LLST36:
 5105 05f8 1E000000 		.4byte	.LVL108
 5106 05fc 22000000 		.4byte	.LVL109
 5107 0600 0100     		.2byte	0x1
 5108 0602 51       		.byte	0x51
 5109 0603 22000000 		.4byte	.LVL109
 5110 0607 2E000000 		.4byte	.LVL111
 5111 060b 0100     		.2byte	0x1
 5112 060d 52       		.byte	0x52
 5113 060e 2E000000 		.4byte	.LVL111
 5114 0612 34000000 		.4byte	.LVL112
 5115 0616 0500     		.2byte	0x5
 5116 0618 0C       		.byte	0xc
 5117 0619 04000840 		.4byte	0x40080004
 5118 061d 00000000 		.4byte	0
 5119 0621 00000000 		.4byte	0
 5120              	.LLST37:
 5121 0625 00000000 		.4byte	.LVL114
 5122 0629 1C000000 		.4byte	.LVL116
 5123 062d 0100     		.2byte	0x1
 5124 062f 50       		.byte	0x50
 5125 0630 1C000000 		.4byte	.LVL116
 5126 0634 34000000 		.4byte	.LFE54
 5127 0638 0400     		.2byte	0x4
 5128 063a F3       		.byte	0xf3
 5129 063b 01       		.uleb128 0x1
 5130 063c 50       		.byte	0x50
ARM GAS  C:\Users\kevin\AppData\Local\Temp\ccEmeqeI.s 			page 134


 5131 063d 9F       		.byte	0x9f
 5132 063e 00000000 		.4byte	0
 5133 0642 00000000 		.4byte	0
 5134              	.LLST38:
 5135 0646 00000000 		.4byte	.LVL114
 5136 064a 06000000 		.4byte	.LVL115
 5137 064e 0100     		.2byte	0x1
 5138 0650 51       		.byte	0x51
 5139 0651 06000000 		.4byte	.LVL115
 5140 0655 34000000 		.4byte	.LFE54
 5141 0659 0400     		.2byte	0x4
 5142 065b F3       		.byte	0xf3
 5143 065c 01       		.uleb128 0x1
 5144 065d 51       		.byte	0x51
 5145 065e 9F       		.byte	0x9f
 5146 065f 00000000 		.4byte	0
 5147 0663 00000000 		.4byte	0
 5148              	.LLST39:
 5149 0667 1E000000 		.4byte	.LVL117
 5150 066b 2C000000 		.4byte	.LVL119
 5151 066f 0100     		.2byte	0x1
 5152 0671 52       		.byte	0x52
 5153 0672 2C000000 		.4byte	.LVL119
 5154 0676 34000000 		.4byte	.LFE54
 5155 067a 0100     		.2byte	0x1
 5156 067c 50       		.byte	0x50
 5157 067d 00000000 		.4byte	0
 5158 0681 00000000 		.4byte	0
 5159              	.LLST40:
 5160 0685 00000000 		.4byte	.LVL120
 5161 0689 00000000 		.4byte	.LVL120
 5162 068d 0100     		.2byte	0x1
 5163 068f 50       		.byte	0x50
 5164 0690 00000000 		.4byte	.LVL120
 5165 0694 08000000 		.4byte	.LVL122
 5166 0698 0500     		.2byte	0x5
 5167 069a 70       		.byte	0x70
 5168 069b 00       		.sleb128 0
 5169 069c 33       		.byte	0x33
 5170 069d 1A       		.byte	0x1a
 5171 069e 9F       		.byte	0x9f
 5172 069f 08000000 		.4byte	.LVL122
 5173 06a3 0A000000 		.4byte	.LVL123
 5174 06a7 0100     		.2byte	0x1
 5175 06a9 50       		.byte	0x50
 5176 06aa 0A000000 		.4byte	.LVL123
 5177 06ae 14000000 		.4byte	.LFE55
 5178 06b2 0600     		.2byte	0x6
 5179 06b4 F3       		.byte	0xf3
 5180 06b5 01       		.uleb128 0x1
 5181 06b6 50       		.byte	0x50
 5182 06b7 33       		.byte	0x33
 5183 06b8 1A       		.byte	0x1a
 5184 06b9 9F       		.byte	0x9f
 5185 06ba 00000000 		.4byte	0
 5186 06be 00000000 		.4byte	0
 5187              	.LLST41:
ARM GAS  C:\Users\kevin\AppData\Local\Temp\ccEmeqeI.s 			page 135


 5188 06c2 06000000 		.4byte	.LVL121
 5189 06c6 0C000000 		.4byte	.LVL124
 5190 06ca 0100     		.2byte	0x1
 5191 06cc 52       		.byte	0x52
 5192 06cd 0C000000 		.4byte	.LVL124
 5193 06d1 14000000 		.4byte	.LFE55
 5194 06d5 0100     		.2byte	0x1
 5195 06d7 50       		.byte	0x50
 5196 06d8 00000000 		.4byte	0
 5197 06dc 00000000 		.4byte	0
 5198              	.LLST42:
 5199 06e0 00000000 		.4byte	.LVL125
 5200 06e4 08000000 		.4byte	.LVL126
 5201 06e8 0200     		.2byte	0x2
 5202 06ea 30       		.byte	0x30
 5203 06eb 9F       		.byte	0x9f
 5204 06ec 08000000 		.4byte	.LVL126
 5205 06f0 0A000000 		.4byte	.LVL127
 5206 06f4 0200     		.2byte	0x2
 5207 06f6 31       		.byte	0x31
 5208 06f7 9F       		.byte	0x9f
 5209 06f8 0A000000 		.4byte	.LVL127
 5210 06fc 0C000000 		.4byte	.LVL128
 5211 0700 0200     		.2byte	0x2
 5212 0702 32       		.byte	0x32
 5213 0703 9F       		.byte	0x9f
 5214 0704 0C000000 		.4byte	.LVL128
 5215 0708 20000000 		.4byte	.LFE33
 5216 070c 0200     		.2byte	0x2
 5217 070e 33       		.byte	0x33
 5218 070f 9F       		.byte	0x9f
 5219 0710 00000000 		.4byte	0
 5220 0714 00000000 		.4byte	0
 5221              	.LLST43:
 5222 0718 00000000 		.4byte	.LVL132
 5223 071c 08000000 		.4byte	.LVL134
 5224 0720 0100     		.2byte	0x1
 5225 0722 50       		.byte	0x50
 5226 0723 08000000 		.4byte	.LVL134
 5227 0727 14000000 		.4byte	.LFE57
 5228 072b 0400     		.2byte	0x4
 5229 072d F3       		.byte	0xf3
 5230 072e 01       		.uleb128 0x1
 5231 072f 50       		.byte	0x50
 5232 0730 9F       		.byte	0x9f
 5233 0731 00000000 		.4byte	0
 5234 0735 00000000 		.4byte	0
 5235              	.LLST44:
 5236 0739 00000000 		.4byte	.LVL132
 5237 073d 06000000 		.4byte	.LVL133
 5238 0741 0100     		.2byte	0x1
 5239 0743 51       		.byte	0x51
 5240 0744 06000000 		.4byte	.LVL133
 5241 0748 14000000 		.4byte	.LFE57
 5242 074c 0400     		.2byte	0x4
 5243 074e F3       		.byte	0xf3
 5244 074f 01       		.uleb128 0x1
ARM GAS  C:\Users\kevin\AppData\Local\Temp\ccEmeqeI.s 			page 136


 5245 0750 51       		.byte	0x51
 5246 0751 9F       		.byte	0x9f
 5247 0752 00000000 		.4byte	0
 5248 0756 00000000 		.4byte	0
 5249              	.LLST45:
 5250 075a 00000000 		.4byte	.LVL132
 5251 075e 06000000 		.4byte	.LVL133
 5252 0762 0500     		.2byte	0x5
 5253 0764 71       		.byte	0x71
 5254 0765 00       		.sleb128 0
 5255 0766 33       		.byte	0x33
 5256 0767 25       		.byte	0x25
 5257 0768 9F       		.byte	0x9f
 5258 0769 06000000 		.4byte	.LVL133
 5259 076d 14000000 		.4byte	.LFE57
 5260 0771 0100     		.2byte	0x1
 5261 0773 51       		.byte	0x51
 5262 0774 00000000 		.4byte	0
 5263 0778 00000000 		.4byte	0
 5264              	.LLST46:
 5265 077c 00000000 		.4byte	.LVL135
 5266 0780 04000000 		.4byte	.LVL136
 5267 0784 0100     		.2byte	0x1
 5268 0786 50       		.byte	0x50
 5269 0787 04000000 		.4byte	.LVL136
 5270 078b 06000000 		.4byte	.LVL137
 5271 078f 0100     		.2byte	0x1
 5272 0791 54       		.byte	0x54
 5273 0792 06000000 		.4byte	.LVL137
 5274 0796 08000000 		.4byte	.LVL138
 5275 079a 0300     		.2byte	0x3
 5276 079c 74       		.byte	0x74
 5277 079d 7F       		.sleb128 -1
 5278 079e 9F       		.byte	0x9f
 5279 079f 08000000 		.4byte	.LVL138
 5280 07a3 1C000000 		.4byte	.LVL141
 5281 07a7 0100     		.2byte	0x1
 5282 07a9 54       		.byte	0x54
 5283 07aa 1C000000 		.4byte	.LVL141
 5284 07ae 24000000 		.4byte	.LFE38
 5285 07b2 0100     		.2byte	0x1
 5286 07b4 50       		.byte	0x50
 5287 07b5 00000000 		.4byte	0
 5288 07b9 00000000 		.4byte	0
 5289              	.LLST47:
 5290 07bd 16000000 		.4byte	.LVL139
 5291 07c1 1A000000 		.4byte	.LVL140
 5292 07c5 0100     		.2byte	0x1
 5293 07c7 50       		.byte	0x50
 5294 07c8 00000000 		.4byte	0
 5295 07cc 00000000 		.4byte	0
 5296              	.LLST48:
 5297 07d0 00000000 		.4byte	.LVL144
 5298 07d4 0E000000 		.4byte	.LVL147
 5299 07d8 0100     		.2byte	0x1
 5300 07da 50       		.byte	0x50
 5301 07db 0E000000 		.4byte	.LVL147
ARM GAS  C:\Users\kevin\AppData\Local\Temp\ccEmeqeI.s 			page 137


 5302 07df 22000000 		.4byte	.LFE58
 5303 07e3 0400     		.2byte	0x4
 5304 07e5 F3       		.byte	0xf3
 5305 07e6 01       		.uleb128 0x1
 5306 07e7 50       		.byte	0x50
 5307 07e8 9F       		.byte	0x9f
 5308 07e9 00000000 		.4byte	0
 5309 07ed 00000000 		.4byte	0
 5310              	.LLST49:
 5311 07f1 00000000 		.4byte	.LVL144
 5312 07f5 08000000 		.4byte	.LVL146
 5313 07f9 0100     		.2byte	0x1
 5314 07fb 51       		.byte	0x51
 5315 07fc 08000000 		.4byte	.LVL146
 5316 0800 22000000 		.4byte	.LFE58
 5317 0804 0400     		.2byte	0x4
 5318 0806 F3       		.byte	0xf3
 5319 0807 01       		.uleb128 0x1
 5320 0808 51       		.byte	0x51
 5321 0809 9F       		.byte	0x9f
 5322 080a 00000000 		.4byte	0
 5323 080e 00000000 		.4byte	0
 5324              	.LLST50:
 5325 0812 06000000 		.4byte	.LVL145
 5326 0816 12000000 		.4byte	.LVL149
 5327 081a 0100     		.2byte	0x1
 5328 081c 53       		.byte	0x53
 5329 081d 12000000 		.4byte	.LVL149
 5330 0821 22000000 		.4byte	.LFE58
 5331 0825 0600     		.2byte	0x6
 5332 0827 F3       		.byte	0xf3
 5333 0828 01       		.uleb128 0x1
 5334 0829 51       		.byte	0x51
 5335 082a 33       		.byte	0x33
 5336 082b 25       		.byte	0x25
 5337 082c 9F       		.byte	0x9f
 5338 082d 00000000 		.4byte	0
 5339 0831 00000000 		.4byte	0
 5340              	.LLST51:
 5341 0835 10000000 		.4byte	.LVL148
 5342 0839 20000000 		.4byte	.LVL150
 5343 083d 0100     		.2byte	0x1
 5344 083f 54       		.byte	0x54
 5345 0840 20000000 		.4byte	.LVL150
 5346 0844 22000000 		.4byte	.LFE58
 5347 0848 0800     		.2byte	0x8
 5348 084a 31       		.byte	0x31
 5349 084b F3       		.byte	0xf3
 5350 084c 01       		.uleb128 0x1
 5351 084d 51       		.byte	0x51
 5352 084e 37       		.byte	0x37
 5353 084f 1A       		.byte	0x1a
 5354 0850 24       		.byte	0x24
 5355 0851 9F       		.byte	0x9f
 5356 0852 00000000 		.4byte	0
 5357 0856 00000000 		.4byte	0
 5358              	.LLST52:
ARM GAS  C:\Users\kevin\AppData\Local\Temp\ccEmeqeI.s 			page 138


 5359 085a 00000000 		.4byte	.LVL151
 5360 085e 22000000 		.4byte	.LVL156
 5361 0862 0100     		.2byte	0x1
 5362 0864 50       		.byte	0x50
 5363 0865 22000000 		.4byte	.LVL156
 5364 0869 68000000 		.4byte	.LFE40
 5365 086d 0400     		.2byte	0x4
 5366 086f F3       		.byte	0xf3
 5367 0870 01       		.uleb128 0x1
 5368 0871 50       		.byte	0x50
 5369 0872 9F       		.byte	0x9f
 5370 0873 00000000 		.4byte	0
 5371 0877 00000000 		.4byte	0
 5372              	.LLST53:
 5373 087b 0E000000 		.4byte	.LVL152
 5374 087f 1E000000 		.4byte	.LVL155
 5375 0883 0100     		.2byte	0x1
 5376 0885 53       		.byte	0x53
 5377 0886 00000000 		.4byte	0
 5378 088a 00000000 		.4byte	0
 5379              	.LLST54:
 5380 088e 1A000000 		.4byte	.LVL154
 5381 0892 50000000 		.4byte	.LVL161
 5382 0896 0100     		.2byte	0x1
 5383 0898 57       		.byte	0x57
 5384 0899 00000000 		.4byte	0
 5385 089d 00000000 		.4byte	0
 5386              	.LLST55:
 5387 08a1 1A000000 		.4byte	.LVL154
 5388 08a5 22000000 		.4byte	.LVL156
 5389 08a9 0200     		.2byte	0x2
 5390 08ab 30       		.byte	0x30
 5391 08ac 9F       		.byte	0x9f
 5392 08ad 22000000 		.4byte	.LVL156
 5393 08b1 36000000 		.4byte	.LVL157
 5394 08b5 0100     		.2byte	0x1
 5395 08b7 54       		.byte	0x54
 5396 08b8 36000000 		.4byte	.LVL157
 5397 08bc 39000000 		.4byte	.LVL158-1
 5398 08c0 0100     		.2byte	0x1
 5399 08c2 51       		.byte	0x51
 5400 08c3 39000000 		.4byte	.LVL158-1
 5401 08c7 3A000000 		.4byte	.LVL158
 5402 08cb 0300     		.2byte	0x3
 5403 08cd 74       		.byte	0x74
 5404 08ce 7F       		.sleb128 -1
 5405 08cf 9F       		.byte	0x9f
 5406 08d0 3A000000 		.4byte	.LVL158
 5407 08d4 50000000 		.4byte	.LVL160
 5408 08d8 0100     		.2byte	0x1
 5409 08da 54       		.byte	0x54
 5410 08db 00000000 		.4byte	0
 5411 08df 00000000 		.4byte	0
 5412              	.LLST56:
 5413 08e3 00000000 		.4byte	.LVL162
 5414 08e7 06000000 		.4byte	.LVL163
 5415 08eb 0100     		.2byte	0x1
ARM GAS  C:\Users\kevin\AppData\Local\Temp\ccEmeqeI.s 			page 139


 5416 08ed 50       		.byte	0x50
 5417 08ee 06000000 		.4byte	.LVL163
 5418 08f2 0C000000 		.4byte	.LFE59
 5419 08f6 0400     		.2byte	0x4
 5420 08f8 F3       		.byte	0xf3
 5421 08f9 01       		.uleb128 0x1
 5422 08fa 50       		.byte	0x50
 5423 08fb 9F       		.byte	0x9f
 5424 08fc 00000000 		.4byte	0
 5425 0900 00000000 		.4byte	0
 5426              	.LLST57:
 5427 0904 00000000 		.4byte	.LVL164
 5428 0908 06000000 		.4byte	.LVL165
 5429 090c 0100     		.2byte	0x1
 5430 090e 50       		.byte	0x50
 5431 090f 06000000 		.4byte	.LVL165
 5432 0913 0C000000 		.4byte	.LFE60
 5433 0917 0400     		.2byte	0x4
 5434 0919 F3       		.byte	0xf3
 5435 091a 01       		.uleb128 0x1
 5436 091b 50       		.byte	0x50
 5437 091c 9F       		.byte	0x9f
 5438 091d 00000000 		.4byte	0
 5439 0921 00000000 		.4byte	0
 5440              	.LLST58:
 5441 0925 00000000 		.4byte	.LVL166
 5442 0929 04000000 		.4byte	.LVL167
 5443 092d 0100     		.2byte	0x1
 5444 092f 50       		.byte	0x50
 5445 0930 04000000 		.4byte	.LVL167
 5446 0934 0C000000 		.4byte	.LFE61
 5447 0938 0400     		.2byte	0x4
 5448 093a F3       		.byte	0xf3
 5449 093b 01       		.uleb128 0x1
 5450 093c 50       		.byte	0x50
 5451 093d 9F       		.byte	0x9f
 5452 093e 00000000 		.4byte	0
 5453 0942 00000000 		.4byte	0
 5454              	.LLST59:
 5455 0946 00000000 		.4byte	.LVL168
 5456 094a 06000000 		.4byte	.LVL169
 5457 094e 0100     		.2byte	0x1
 5458 0950 50       		.byte	0x50
 5459 0951 06000000 		.4byte	.LVL169
 5460 0955 0C000000 		.4byte	.LFE62
 5461 0959 0400     		.2byte	0x4
 5462 095b F3       		.byte	0xf3
 5463 095c 01       		.uleb128 0x1
 5464 095d 50       		.byte	0x50
 5465 095e 9F       		.byte	0x9f
 5466 095f 00000000 		.4byte	0
 5467 0963 00000000 		.4byte	0
 5468              	.LLST60:
 5469 0967 00000000 		.4byte	.LVL170
 5470 096b 07000000 		.4byte	.LVL171-1
 5471 096f 0100     		.2byte	0x1
 5472 0971 50       		.byte	0x50
ARM GAS  C:\Users\kevin\AppData\Local\Temp\ccEmeqeI.s 			page 140


 5473 0972 07000000 		.4byte	.LVL171-1
 5474 0976 14000000 		.4byte	.LVL173
 5475 097a 0100     		.2byte	0x1
 5476 097c 54       		.byte	0x54
 5477 097d 14000000 		.4byte	.LVL173
 5478 0981 1C000000 		.4byte	.LFE64
 5479 0985 0400     		.2byte	0x4
 5480 0987 F3       		.byte	0xf3
 5481 0988 01       		.uleb128 0x1
 5482 0989 50       		.byte	0x50
 5483 098a 9F       		.byte	0x9f
 5484 098b 00000000 		.4byte	0
 5485 098f 00000000 		.4byte	0
 5486              	.LLST61:
 5487 0993 00000000 		.4byte	.LVL170
 5488 0997 10000000 		.4byte	.LVL172
 5489 099b 0200     		.2byte	0x2
 5490 099d 30       		.byte	0x30
 5491 099e 9F       		.byte	0x9f
 5492 099f 10000000 		.4byte	.LVL172
 5493 09a3 1C000000 		.4byte	.LFE64
 5494 09a7 0200     		.2byte	0x2
 5495 09a9 31       		.byte	0x31
 5496 09aa 9F       		.byte	0x9f
 5497 09ab 00000000 		.4byte	0
 5498 09af 00000000 		.4byte	0
 5499              	.LLST62:
 5500 09b3 00000000 		.4byte	.LVL170
 5501 09b7 10000000 		.4byte	.LVL172
 5502 09bb 0200     		.2byte	0x2
 5503 09bd 30       		.byte	0x30
 5504 09be 9F       		.byte	0x9f
 5505 09bf 10000000 		.4byte	.LVL172
 5506 09c3 14000000 		.4byte	.LVL173
 5507 09c7 1100     		.2byte	0x11
 5508 09c9 74       		.byte	0x74
 5509 09ca 00       		.sleb128 0
 5510 09cb 31       		.byte	0x31
 5511 09cc 24       		.byte	0x24
 5512 09cd 03       		.byte	0x3
 5513 09ce 00000000 		.4byte	CapSense_sensorRaw
 5514 09d2 22       		.byte	0x22
 5515 09d3 94       		.byte	0x94
 5516 09d4 02       		.byte	0x2
 5517 09d5 0A       		.byte	0xa
 5518 09d6 FFFF     		.2byte	0xffff
 5519 09d8 1A       		.byte	0x1a
 5520 09d9 9F       		.byte	0x9f
 5521 09da 14000000 		.4byte	.LVL173
 5522 09de 1C000000 		.4byte	.LFE64
 5523 09e2 1200     		.2byte	0x12
 5524 09e4 F3       		.byte	0xf3
 5525 09e5 01       		.uleb128 0x1
 5526 09e6 50       		.byte	0x50
 5527 09e7 31       		.byte	0x31
 5528 09e8 24       		.byte	0x24
 5529 09e9 03       		.byte	0x3
ARM GAS  C:\Users\kevin\AppData\Local\Temp\ccEmeqeI.s 			page 141


 5530 09ea 00000000 		.4byte	CapSense_sensorRaw
 5531 09ee 22       		.byte	0x22
 5532 09ef 94       		.byte	0x94
 5533 09f0 02       		.byte	0x2
 5534 09f1 0A       		.byte	0xa
 5535 09f2 FFFF     		.2byte	0xffff
 5536 09f4 1A       		.byte	0x1a
 5537 09f5 9F       		.byte	0x9f
 5538 09f6 00000000 		.4byte	0
 5539 09fa 00000000 		.4byte	0
 5540              	.LLST63:
 5541 09fe 10000000 		.4byte	.LVL172
 5542 0a02 14000000 		.4byte	.LVL173
 5543 0a06 0100     		.2byte	0x1
 5544 0a08 54       		.byte	0x54
 5545 0a09 14000000 		.4byte	.LVL173
 5546 0a0d 1C000000 		.4byte	.LFE64
 5547 0a11 0400     		.2byte	0x4
 5548 0a13 F3       		.byte	0xf3
 5549 0a14 01       		.uleb128 0x1
 5550 0a15 50       		.byte	0x50
 5551 0a16 9F       		.byte	0x9f
 5552 0a17 00000000 		.4byte	0
 5553 0a1b 00000000 		.4byte	0
 5554              	.LLST64:
 5555 0a1f 00000000 		.4byte	.LVL174
 5556 0a23 10000000 		.4byte	.LVL175
 5557 0a27 0100     		.2byte	0x1
 5558 0a29 50       		.byte	0x50
 5559 0a2a 10000000 		.4byte	.LVL175
 5560 0a2e 30000000 		.4byte	.LVL179
 5561 0a32 0100     		.2byte	0x1
 5562 0a34 57       		.byte	0x57
 5563 0a35 30000000 		.4byte	.LVL179
 5564 0a39 32000000 		.4byte	.LFE65
 5565 0a3d 0400     		.2byte	0x4
 5566 0a3f F3       		.byte	0xf3
 5567 0a40 01       		.uleb128 0x1
 5568 0a41 50       		.byte	0x50
 5569 0a42 9F       		.byte	0x9f
 5570 0a43 00000000 		.4byte	0
 5571 0a47 00000000 		.4byte	0
 5572              	.LLST65:
 5573 0a4b 00000000 		.4byte	.LVL174
 5574 0a4f 10000000 		.4byte	.LVL175
 5575 0a53 0100     		.2byte	0x1
 5576 0a55 51       		.byte	0x51
 5577 0a56 10000000 		.4byte	.LVL175
 5578 0a5a 32000000 		.4byte	.LFE65
 5579 0a5e 0200     		.2byte	0x2
 5580 0a60 7D       		.byte	0x7d
 5581 0a61 04       		.sleb128 4
 5582 0a62 00000000 		.4byte	0
 5583 0a66 00000000 		.4byte	0
 5584              	.LLST66:
 5585 0a6a 00000000 		.4byte	.LVL174
 5586 0a6e 10000000 		.4byte	.LVL175
ARM GAS  C:\Users\kevin\AppData\Local\Temp\ccEmeqeI.s 			page 142


 5587 0a72 0100     		.2byte	0x1
 5588 0a74 52       		.byte	0x52
 5589 0a75 10000000 		.4byte	.LVL175
 5590 0a79 32000000 		.4byte	.LFE65
 5591 0a7d 0400     		.2byte	0x4
 5592 0a7f F3       		.byte	0xf3
 5593 0a80 01       		.uleb128 0x1
 5594 0a81 52       		.byte	0x52
 5595 0a82 9F       		.byte	0x9f
 5596 0a83 00000000 		.4byte	0
 5597 0a87 00000000 		.4byte	0
 5598              	.LLST67:
 5599 0a8b 00000000 		.4byte	.LVL174
 5600 0a8f 10000000 		.4byte	.LVL175
 5601 0a93 0300     		.2byte	0x3
 5602 0a95 09       		.byte	0x9
 5603 0a96 80       		.byte	0x80
 5604 0a97 9F       		.byte	0x9f
 5605 0a98 10000000 		.4byte	.LVL175
 5606 0a9c 30000000 		.4byte	.LVL178
 5607 0aa0 0100     		.2byte	0x1
 5608 0aa2 55       		.byte	0x55
 5609 0aa3 00000000 		.4byte	0
 5610 0aa7 00000000 		.4byte	0
 5611              	.LLST68:
 5612 0aab 00000000 		.4byte	.LVL174
 5613 0aaf 10000000 		.4byte	.LVL175
 5614 0ab3 0200     		.2byte	0x2
 5615 0ab5 30       		.byte	0x30
 5616 0ab6 9F       		.byte	0x9f
 5617 0ab7 1C000000 		.4byte	.LVL176
 5618 0abb 32000000 		.4byte	.LFE65
 5619 0abf 0100     		.2byte	0x1
 5620 0ac1 50       		.byte	0x50
 5621 0ac2 00000000 		.4byte	0
 5622 0ac6 00000000 		.4byte	0
 5623              	.LLST69:
 5624 0aca 22000000 		.4byte	.LVL182
 5625 0ace 24000000 		.4byte	.LVL183
 5626 0ad2 0200     		.2byte	0x2
 5627 0ad4 30       		.byte	0x30
 5628 0ad5 9F       		.byte	0x9f
 5629 0ad6 24000000 		.4byte	.LVL183
 5630 0ada 46000000 		.4byte	.LVL186
 5631 0ade 0100     		.2byte	0x1
 5632 0ae0 54       		.byte	0x54
 5633 0ae1 46000000 		.4byte	.LVL186
 5634 0ae5 49000000 		.4byte	.LVL187-1
 5635 0ae9 0100     		.2byte	0x1
 5636 0aeb 50       		.byte	0x50
 5637 0aec 49000000 		.4byte	.LVL187-1
 5638 0af0 4A000000 		.4byte	.LVL187
 5639 0af4 0300     		.2byte	0x3
 5640 0af6 74       		.byte	0x74
 5641 0af7 7F       		.sleb128 -1
 5642 0af8 9F       		.byte	0x9f
 5643 0af9 4A000000 		.4byte	.LVL187
ARM GAS  C:\Users\kevin\AppData\Local\Temp\ccEmeqeI.s 			page 143


 5644 0afd 52000000 		.4byte	.LVL188
 5645 0b01 0100     		.2byte	0x1
 5646 0b03 54       		.byte	0x54
 5647 0b04 52000000 		.4byte	.LVL188
 5648 0b08 6A000000 		.4byte	.LVL190
 5649 0b0c 0100     		.2byte	0x1
 5650 0b0e 53       		.byte	0x53
 5651 0b0f 00000000 		.4byte	0
 5652 0b13 00000000 		.4byte	0
 5653              	.LLST70:
 5654 0b17 24000000 		.4byte	.LVL183
 5655 0b1b 38000000 		.4byte	.LVL184
 5656 0b1f 1900     		.2byte	0x19
 5657 0b21 74       		.byte	0x74
 5658 0b22 00       		.sleb128 0
 5659 0b23 03       		.byte	0x3
 5660 0b24 00000000 		.4byte	CapSense_widgetNumber
 5661 0b28 22       		.byte	0x22
 5662 0b29 94       		.byte	0x94
 5663 0b2a 01       		.byte	0x1
 5664 0b2b 08       		.byte	0x8
 5665 0b2c FF       		.byte	0xff
 5666 0b2d 1A       		.byte	0x1a
 5667 0b2e 32       		.byte	0x32
 5668 0b2f 24       		.byte	0x24
 5669 0b30 03       		.byte	0x3
 5670 0b31 00000000 		.4byte	CapSense_widgetResolution
 5671 0b35 22       		.byte	0x22
 5672 0b36 06       		.byte	0x6
 5673 0b37 40       		.byte	0x40
 5674 0b38 25       		.byte	0x25
 5675 0b39 9F       		.byte	0x9f
 5676 0b3a 38000000 		.4byte	.LVL184
 5677 0b3e 3B000000 		.4byte	.LVL185-1
 5678 0b42 0C00     		.2byte	0xc
 5679 0b44 70       		.byte	0x70
 5680 0b45 00       		.sleb128 0
 5681 0b46 F7       		.byte	0xf7
 5682 0b47 25       		.uleb128 0x25
 5683 0b48 08       		.byte	0x8
 5684 0b49 64       		.byte	0x64
 5685 0b4a F7       		.byte	0xf7
 5686 0b4b 25       		.uleb128 0x25
 5687 0b4c 1B       		.byte	0x1b
 5688 0b4d F7       		.byte	0xf7
 5689 0b4e 00       		.uleb128 0
 5690 0b4f 9F       		.byte	0x9f
 5691 0b50 3B000000 		.4byte	.LVL185-1
 5692 0b54 46000000 		.4byte	.LVL186
 5693 0b58 2500     		.2byte	0x25
 5694 0b5a 74       		.byte	0x74
 5695 0b5b 00       		.sleb128 0
 5696 0b5c 03       		.byte	0x3
 5697 0b5d 50000000 		.4byte	.LANCHOR1+80
 5698 0b61 22       		.byte	0x22
 5699 0b62 94       		.byte	0x94
 5700 0b63 01       		.byte	0x1
ARM GAS  C:\Users\kevin\AppData\Local\Temp\ccEmeqeI.s 			page 144


 5701 0b64 08       		.byte	0x8
 5702 0b65 FF       		.byte	0xff
 5703 0b66 1A       		.byte	0x1a
 5704 0b67 32       		.byte	0x32
 5705 0b68 24       		.byte	0x24
 5706 0b69 03       		.byte	0x3
 5707 0b6a 00000000 		.4byte	.LANCHOR1
 5708 0b6e 22       		.byte	0x22
 5709 0b6f 06       		.byte	0x6
 5710 0b70 40       		.byte	0x40
 5711 0b71 25       		.byte	0x25
 5712 0b72 08       		.byte	0x8
 5713 0b73 55       		.byte	0x55
 5714 0b74 1E       		.byte	0x1e
 5715 0b75 F7       		.byte	0xf7
 5716 0b76 25       		.uleb128 0x25
 5717 0b77 08       		.byte	0x8
 5718 0b78 64       		.byte	0x64
 5719 0b79 F7       		.byte	0xf7
 5720 0b7a 25       		.uleb128 0x25
 5721 0b7b 1B       		.byte	0x1b
 5722 0b7c F7       		.byte	0xf7
 5723 0b7d 00       		.uleb128 0
 5724 0b7e 9F       		.byte	0x9f
 5725 0b7f 46000000 		.4byte	.LVL186
 5726 0b83 49000000 		.4byte	.LVL187-1
 5727 0b87 2500     		.2byte	0x25
 5728 0b89 70       		.byte	0x70
 5729 0b8a 00       		.sleb128 0
 5730 0b8b 03       		.byte	0x3
 5731 0b8c 50000000 		.4byte	.LANCHOR1+80
 5732 0b90 22       		.byte	0x22
 5733 0b91 94       		.byte	0x94
 5734 0b92 01       		.byte	0x1
 5735 0b93 08       		.byte	0x8
 5736 0b94 FF       		.byte	0xff
 5737 0b95 1A       		.byte	0x1a
 5738 0b96 32       		.byte	0x32
 5739 0b97 24       		.byte	0x24
 5740 0b98 03       		.byte	0x3
 5741 0b99 00000000 		.4byte	.LANCHOR1
 5742 0b9d 22       		.byte	0x22
 5743 0b9e 06       		.byte	0x6
 5744 0b9f 40       		.byte	0x40
 5745 0ba0 25       		.byte	0x25
 5746 0ba1 08       		.byte	0x8
 5747 0ba2 55       		.byte	0x55
 5748 0ba3 1E       		.byte	0x1e
 5749 0ba4 F7       		.byte	0xf7
 5750 0ba5 25       		.uleb128 0x25
 5751 0ba6 08       		.byte	0x8
 5752 0ba7 64       		.byte	0x64
 5753 0ba8 F7       		.byte	0xf7
 5754 0ba9 25       		.uleb128 0x25
 5755 0baa 1B       		.byte	0x1b
 5756 0bab F7       		.byte	0xf7
 5757 0bac 00       		.uleb128 0
ARM GAS  C:\Users\kevin\AppData\Local\Temp\ccEmeqeI.s 			page 145


 5758 0bad 9F       		.byte	0x9f
 5759 0bae 49000000 		.4byte	.LVL187-1
 5760 0bb2 52000000 		.4byte	.LVL188
 5761 0bb6 2500     		.2byte	0x25
 5762 0bb8 74       		.byte	0x74
 5763 0bb9 00       		.sleb128 0
 5764 0bba 03       		.byte	0x3
 5765 0bbb 4F000000 		.4byte	.LANCHOR1+79
 5766 0bbf 22       		.byte	0x22
 5767 0bc0 94       		.byte	0x94
 5768 0bc1 01       		.byte	0x1
 5769 0bc2 08       		.byte	0x8
 5770 0bc3 FF       		.byte	0xff
 5771 0bc4 1A       		.byte	0x1a
 5772 0bc5 32       		.byte	0x32
 5773 0bc6 24       		.byte	0x24
 5774 0bc7 03       		.byte	0x3
 5775 0bc8 00000000 		.4byte	.LANCHOR1
 5776 0bcc 22       		.byte	0x22
 5777 0bcd 06       		.byte	0x6
 5778 0bce 40       		.byte	0x40
 5779 0bcf 25       		.byte	0x25
 5780 0bd0 08       		.byte	0x8
 5781 0bd1 55       		.byte	0x55
 5782 0bd2 1E       		.byte	0x1e
 5783 0bd3 F7       		.byte	0xf7
 5784 0bd4 25       		.uleb128 0x25
 5785 0bd5 08       		.byte	0x8
 5786 0bd6 64       		.byte	0x64
 5787 0bd7 F7       		.byte	0xf7
 5788 0bd8 25       		.uleb128 0x25
 5789 0bd9 1B       		.byte	0x1b
 5790 0bda F7       		.byte	0xf7
 5791 0bdb 00       		.uleb128 0
 5792 0bdc 9F       		.byte	0x9f
 5793 0bdd 00000000 		.4byte	0
 5794 0be1 00000000 		.4byte	0
 5795              	.LLST71:
 5796 0be5 24000000 		.4byte	.LVL183
 5797 0be9 46000000 		.4byte	.LVL186
 5798 0bed 0E00     		.2byte	0xe
 5799 0bef 74       		.byte	0x74
 5800 0bf0 00       		.sleb128 0
 5801 0bf1 03       		.byte	0x3
 5802 0bf2 00000000 		.4byte	CapSense_widgetNumber
 5803 0bf6 22       		.byte	0x22
 5804 0bf7 94       		.byte	0x94
 5805 0bf8 01       		.byte	0x1
 5806 0bf9 08       		.byte	0x8
 5807 0bfa FF       		.byte	0xff
 5808 0bfb 1A       		.byte	0x1a
 5809 0bfc 9F       		.byte	0x9f
 5810 0bfd 46000000 		.4byte	.LVL186
 5811 0c01 49000000 		.4byte	.LVL187-1
 5812 0c05 0E00     		.2byte	0xe
 5813 0c07 70       		.byte	0x70
 5814 0c08 00       		.sleb128 0
ARM GAS  C:\Users\kevin\AppData\Local\Temp\ccEmeqeI.s 			page 146


 5815 0c09 03       		.byte	0x3
 5816 0c0a 00000000 		.4byte	CapSense_widgetNumber
 5817 0c0e 22       		.byte	0x22
 5818 0c0f 94       		.byte	0x94
 5819 0c10 01       		.byte	0x1
 5820 0c11 08       		.byte	0x8
 5821 0c12 FF       		.byte	0xff
 5822 0c13 1A       		.byte	0x1a
 5823 0c14 9F       		.byte	0x9f
 5824 0c15 49000000 		.4byte	.LVL187-1
 5825 0c19 52000000 		.4byte	.LVL188
 5826 0c1d 0E00     		.2byte	0xe
 5827 0c1f 74       		.byte	0x74
 5828 0c20 00       		.sleb128 0
 5829 0c21 03       		.byte	0x3
 5830 0c22 FFFFFFFF 		.4byte	CapSense_widgetNumber-1
 5831 0c26 22       		.byte	0x22
 5832 0c27 94       		.byte	0x94
 5833 0c28 01       		.byte	0x1
 5834 0c29 08       		.byte	0x8
 5835 0c2a FF       		.byte	0xff
 5836 0c2b 1A       		.byte	0x1a
 5837 0c2c 9F       		.byte	0x9f
 5838 0c2d 00000000 		.4byte	0
 5839 0c31 00000000 		.4byte	0
 5840              		.section	.debug_aranges,"",%progbits
 5841 0000 24010000 		.4byte	0x124
 5842 0004 0200     		.2byte	0x2
 5843 0006 00000000 		.4byte	.Ldebug_info0
 5844 000a 04       		.byte	0x4
 5845 000b 00       		.byte	0
 5846 000c 0000     		.2byte	0
 5847 000e 0000     		.2byte	0
 5848 0010 00000000 		.4byte	.LFB34
 5849 0014 78000000 		.4byte	.LFE34-.LFB34
 5850 0018 00000000 		.4byte	.LFB35
 5851 001c 3C000000 		.4byte	.LFE35-.LFB35
 5852 0020 00000000 		.4byte	.LFB37
 5853 0024 2C000000 		.4byte	.LFE37-.LFB37
 5854 0028 00000000 		.4byte	.LFB42
 5855 002c 10000000 		.4byte	.LFE42-.LFB42
 5856 0030 00000000 		.4byte	.LFB43
 5857 0034 10000000 		.4byte	.LFE43-.LFB43
 5858 0038 00000000 		.4byte	.LFB44
 5859 003c 10000000 		.4byte	.LFE44-.LFB44
 5860 0040 00000000 		.4byte	.LFB45
 5861 0044 0C000000 		.4byte	.LFE45-.LFB45
 5862 0048 00000000 		.4byte	.LFB47
 5863 004c 48000000 		.4byte	.LFE47-.LFB47
 5864 0050 00000000 		.4byte	.LFB48
 5865 0054 68000000 		.4byte	.LFE48-.LFB48
 5866 0058 00000000 		.4byte	.LFB46
 5867 005c 16000000 		.4byte	.LFE46-.LFB46
 5868 0060 00000000 		.4byte	.LFB51
 5869 0064 24000000 		.4byte	.LFE51-.LFB51
 5870 0068 00000000 		.4byte	.LFB49
 5871 006c 2C000000 		.4byte	.LFE49-.LFB49
ARM GAS  C:\Users\kevin\AppData\Local\Temp\ccEmeqeI.s 			page 147


 5872 0070 00000000 		.4byte	.LFB50
 5873 0074 24000000 		.4byte	.LFE50-.LFB50
 5874 0078 00000000 		.4byte	.LFB52
 5875 007c A0000000 		.4byte	.LFE52-.LFB52
 5876 0080 00000000 		.4byte	.LFB39
 5877 0084 1C000000 		.4byte	.LFE39-.LFB39
 5878 0088 00000000 		.4byte	.LFB53
 5879 008c 54000000 		.4byte	.LFE53-.LFB53
 5880 0090 00000000 		.4byte	.LFB54
 5881 0094 34000000 		.4byte	.LFE54-.LFB54
 5882 0098 00000000 		.4byte	.LFB55
 5883 009c 14000000 		.4byte	.LFE55-.LFB55
 5884 00a0 00000000 		.4byte	.LFB33
 5885 00a4 20000000 		.4byte	.LFE33-.LFB33
 5886 00a8 00000000 		.4byte	.LFB56
 5887 00ac 18000000 		.4byte	.LFE56-.LFB56
 5888 00b0 00000000 		.4byte	.LFB57
 5889 00b4 14000000 		.4byte	.LFE57-.LFB57
 5890 00b8 00000000 		.4byte	.LFB38
 5891 00bc 24000000 		.4byte	.LFE38-.LFB38
 5892 00c0 00000000 		.4byte	.LFB41
 5893 00c4 34000000 		.4byte	.LFE41-.LFB41
 5894 00c8 00000000 		.4byte	.LFB58
 5895 00cc 22000000 		.4byte	.LFE58-.LFB58
 5896 00d0 00000000 		.4byte	.LFB40
 5897 00d4 68000000 		.4byte	.LFE40-.LFB40
 5898 00d8 00000000 		.4byte	.LFB59
 5899 00dc 0C000000 		.4byte	.LFE59-.LFB59
 5900 00e0 00000000 		.4byte	.LFB60
 5901 00e4 0C000000 		.4byte	.LFE60-.LFB60
 5902 00e8 00000000 		.4byte	.LFB61
 5903 00ec 0C000000 		.4byte	.LFE61-.LFB61
 5904 00f0 00000000 		.4byte	.LFB62
 5905 00f4 0C000000 		.4byte	.LFE62-.LFB62
 5906 00f8 00000000 		.4byte	.LFB63
 5907 00fc 10000000 		.4byte	.LFE63-.LFB63
 5908 0100 00000000 		.4byte	.LFB64
 5909 0104 1C000000 		.4byte	.LFE64-.LFB64
 5910 0108 00000000 		.4byte	.LFB65
 5911 010c 32000000 		.4byte	.LFE65-.LFB65
 5912 0110 00000000 		.4byte	.LFB36
 5913 0114 98000000 		.4byte	.LFE36-.LFB36
 5914 0118 00000000 		.4byte	.LFB66
 5915 011c 0C000000 		.4byte	.LFE66-.LFB66
 5916 0120 00000000 		.4byte	0
 5917 0124 00000000 		.4byte	0
 5918              		.section	.debug_ranges,"",%progbits
 5919              	.Ldebug_ranges0:
 5920 0000 00000000 		.4byte	.LFB34
 5921 0004 78000000 		.4byte	.LFE34
 5922 0008 00000000 		.4byte	.LFB35
 5923 000c 3C000000 		.4byte	.LFE35
 5924 0010 00000000 		.4byte	.LFB37
 5925 0014 2C000000 		.4byte	.LFE37
 5926 0018 00000000 		.4byte	.LFB42
 5927 001c 10000000 		.4byte	.LFE42
 5928 0020 00000000 		.4byte	.LFB43
ARM GAS  C:\Users\kevin\AppData\Local\Temp\ccEmeqeI.s 			page 148


 5929 0024 10000000 		.4byte	.LFE43
 5930 0028 00000000 		.4byte	.LFB44
 5931 002c 10000000 		.4byte	.LFE44
 5932 0030 00000000 		.4byte	.LFB45
 5933 0034 0C000000 		.4byte	.LFE45
 5934 0038 00000000 		.4byte	.LFB47
 5935 003c 48000000 		.4byte	.LFE47
 5936 0040 00000000 		.4byte	.LFB48
 5937 0044 68000000 		.4byte	.LFE48
 5938 0048 00000000 		.4byte	.LFB46
 5939 004c 16000000 		.4byte	.LFE46
 5940 0050 00000000 		.4byte	.LFB51
 5941 0054 24000000 		.4byte	.LFE51
 5942 0058 00000000 		.4byte	.LFB49
 5943 005c 2C000000 		.4byte	.LFE49
 5944 0060 00000000 		.4byte	.LFB50
 5945 0064 24000000 		.4byte	.LFE50
 5946 0068 00000000 		.4byte	.LFB52
 5947 006c A0000000 		.4byte	.LFE52
 5948 0070 00000000 		.4byte	.LFB39
 5949 0074 1C000000 		.4byte	.LFE39
 5950 0078 00000000 		.4byte	.LFB53
 5951 007c 54000000 		.4byte	.LFE53
 5952 0080 00000000 		.4byte	.LFB54
 5953 0084 34000000 		.4byte	.LFE54
 5954 0088 00000000 		.4byte	.LFB55
 5955 008c 14000000 		.4byte	.LFE55
 5956 0090 00000000 		.4byte	.LFB33
 5957 0094 20000000 		.4byte	.LFE33
 5958 0098 00000000 		.4byte	.LFB56
 5959 009c 18000000 		.4byte	.LFE56
 5960 00a0 00000000 		.4byte	.LFB57
 5961 00a4 14000000 		.4byte	.LFE57
 5962 00a8 00000000 		.4byte	.LFB38
 5963 00ac 24000000 		.4byte	.LFE38
 5964 00b0 00000000 		.4byte	.LFB41
 5965 00b4 34000000 		.4byte	.LFE41
 5966 00b8 00000000 		.4byte	.LFB58
 5967 00bc 22000000 		.4byte	.LFE58
 5968 00c0 00000000 		.4byte	.LFB40
 5969 00c4 68000000 		.4byte	.LFE40
 5970 00c8 00000000 		.4byte	.LFB59
 5971 00cc 0C000000 		.4byte	.LFE59
 5972 00d0 00000000 		.4byte	.LFB60
 5973 00d4 0C000000 		.4byte	.LFE60
 5974 00d8 00000000 		.4byte	.LFB61
 5975 00dc 0C000000 		.4byte	.LFE61
 5976 00e0 00000000 		.4byte	.LFB62
 5977 00e4 0C000000 		.4byte	.LFE62
 5978 00e8 00000000 		.4byte	.LFB63
 5979 00ec 10000000 		.4byte	.LFE63
 5980 00f0 00000000 		.4byte	.LFB64
 5981 00f4 1C000000 		.4byte	.LFE64
 5982 00f8 00000000 		.4byte	.LFB65
 5983 00fc 32000000 		.4byte	.LFE65
 5984 0100 00000000 		.4byte	.LFB36
 5985 0104 98000000 		.4byte	.LFE36
ARM GAS  C:\Users\kevin\AppData\Local\Temp\ccEmeqeI.s 			page 149


 5986 0108 00000000 		.4byte	.LFB66
 5987 010c 0C000000 		.4byte	.LFE66
 5988 0110 00000000 		.4byte	0
 5989 0114 00000000 		.4byte	0
 5990              		.section	.debug_line,"",%progbits
 5991              	.Ldebug_line0:
 5992 0000 09050000 		.section	.debug_str,"MS",%progbits,1
 5992      02009400 
 5992      00000201 
 5992      FB0E0D00 
 5992      01010101 
 5993              	.LASF42:
 5994 0000 63757253 		.ascii	"curSensor\000"
 5994      656E736F 
 5994      7200
 5995              	.LASF95:
 5996 000a 43617053 		.ascii	"CapSense_sampleClkDividerVal\000"
 5996      656E7365 
 5996      5F73616D 
 5996      706C6543 
 5996      6C6B4469 
 5997              	.LASF10:
 5998 0027 75696E74 		.ascii	"uint16\000"
 5998      313600
 5999              	.LASF120:
 6000 002e 43794578 		.ascii	"CyExitCriticalSection\000"
 6000      69744372 
 6000      69746963 
 6000      616C5365 
 6000      6374696F 
 6001              	.LASF81:
 6002 0044 72617744 		.ascii	"rawData\000"
 6002      61746100 
 6003              	.LASF100:
 6004 004c 43617053 		.ascii	"CapSense_pcTable\000"
 6004      656E7365 
 6004      5F706354 
 6004      61626C65 
 6004      00
 6005              	.LASF36:
 6006 005d 736E7349 		.ascii	"snsIndex\000"
 6006      6E646578 
 6006      00
 6007              	.LASF114:
 6008 0066 43617053 		.ascii	"CapSense_SenseClk_SetFractionalDividerRegister\000"
 6008      656E7365 
 6008      5F53656E 
 6008      7365436C 
 6008      6B5F5365 
 6009              	.LASF73:
 6010 0095 43617053 		.ascii	"CapSense_GetIDACRange\000"
 6010      656E7365 
 6010      5F476574 
 6010      49444143 
 6010      52616E67 
 6011              	.LASF70:
 6012 00ab 43617053 		.ascii	"CapSense_GetModulationIDAC\000"
ARM GAS  C:\Users\kevin\AppData\Local\Temp\ccEmeqeI.s 			page 150


 6012      656E7365 
 6012      5F476574 
 6012      4D6F6475 
 6012      6C617469 
 6013              	.LASF54:
 6014 00c6 43617053 		.ascii	"CapSense_GetScanResolution\000"
 6014      656E7365 
 6014      5F476574 
 6014      5363616E 
 6014      5265736F 
 6015              	.LASF8:
 6016 00e1 6C6F6E67 		.ascii	"long long unsigned int\000"
 6016      206C6F6E 
 6016      6720756E 
 6016      7369676E 
 6016      65642069 
 6017              	.LASF88:
 6018 00f8 43617053 		.ascii	"CapSense_unscannedSnsDriveMode\000"
 6018      656E7365 
 6018      5F756E73 
 6018      63616E6E 
 6018      6564536E 
 6019              	.LASF71:
 6020 0117 43617053 		.ascii	"CapSense_GetCompensationIDAC\000"
 6020      656E7365 
 6020      5F476574 
 6020      436F6D70 
 6020      656E7361 
 6021              	.LASF45:
 6022 0134 43617053 		.ascii	"CapSense_RestoreDriveModeAllPins\000"
 6022      656E7365 
 6022      5F526573 
 6022      746F7265 
 6022      44726976 
 6023              	.LASF52:
 6024 0155 64656C61 		.ascii	"delay\000"
 6024      7900
 6025              	.LASF20:
 6026 015b 43617053 		.ascii	"CapSense_Enable\000"
 6026      656E7365 
 6026      5F456E61 
 6026      626C6500 
 6027              	.LASF28:
 6028 016b 70696E4D 		.ascii	"pinModeShift\000"
 6028      6F646553 
 6028      68696674 
 6028      00
 6029              	.LASF97:
 6030 0178 43617053 		.ascii	"CapSense_prtSelTbl\000"
 6030      656E7365 
 6030      5F707274 
 6030      53656C54 
 6030      626C00
 6031              	.LASF1:
 6032 018b 7369676E 		.ascii	"signed char\000"
 6032      65642063 
 6032      68617200 
ARM GAS  C:\Users\kevin\AppData\Local\Temp\ccEmeqeI.s 			page 151


 6033              	.LASF37:
 6034 0197 43617053 		.ascii	"CapSense_SetPinDriveMode\000"
 6034      656E7365 
 6034      5F536574 
 6034      50696E44 
 6034      72697665 
 6035              	.LASF11:
 6036 01b0 75696E74 		.ascii	"uint32\000"
 6036      333200
 6037              	.LASF30:
 6038 01b7 696E7465 		.ascii	"interruptState\000"
 6038      72727570 
 6038      74537461 
 6038      746500
 6039              	.LASF111:
 6040 01c6 43617053 		.ascii	"CapSense_SenseClk_Stop\000"
 6040      656E7365 
 6040      5F53656E 
 6040      7365436C 
 6040      6B5F5374 
 6041              	.LASF116:
 6042 01dd 43617053 		.ascii	"CapSense_SampleClk_Start\000"
 6042      656E7365 
 6042      5F53616D 
 6042      706C6543 
 6042      6C6B5F53 
 6043              	.LASF5:
 6044 01f6 6C6F6E67 		.ascii	"long int\000"
 6044      20696E74 
 6044      00
 6045              	.LASF109:
 6046 01ff 4379496E 		.ascii	"CyIntDisable\000"
 6046      74446973 
 6046      61626C65 
 6046      00
 6047              	.LASF21:
 6048 020c 6E657752 		.ascii	"newRegValue\000"
 6048      65675661 
 6048      6C756500 
 6049              	.LASF9:
 6050 0218 75696E74 		.ascii	"uint8\000"
 6050      3800
 6051              	.LASF7:
 6052 021e 6C6F6E67 		.ascii	"long long int\000"
 6052      206C6F6E 
 6052      6720696E 
 6052      7400
 6053              	.LASF34:
 6054 022c 696E6163 		.ascii	"inactiveConnect\000"
 6054      74697665 
 6054      436F6E6E 
 6054      65637400 
 6055              	.LASF64:
 6056 023c 43617053 		.ascii	"CapSense_SetBitValue\000"
 6056      656E7365 
 6056      5F536574 
 6056      42697456 
ARM GAS  C:\Users\kevin\AppData\Local\Temp\ccEmeqeI.s 			page 152


 6056      616C7565 
 6057              	.LASF76:
 6058 0251 61766756 		.ascii	"avgVal\000"
 6058      616C00
 6059              	.LASF27:
 6060 0258 43617053 		.ascii	"CapSense_EnableSensor\000"
 6060      656E7365 
 6060      5F456E61 
 6060      626C6553 
 6060      656E736F 
 6061              	.LASF47:
 6062 026e 636F756E 		.ascii	"counterResolution\000"
 6062      74657252 
 6062      65736F6C 
 6062      7574696F 
 6062      6E00
 6063              	.LASF96:
 6064 0280 43617053 		.ascii	"CapSense_widgetNumber\000"
 6064      656E7365 
 6064      5F776964 
 6064      6765744E 
 6064      756D6265 
 6065              	.LASF107:
 6066 0296 43617053 		.ascii	"CapSense_ReadSensorRaw\000"
 6066      656E7365 
 6066      5F526561 
 6066      6453656E 
 6066      736F7252 
 6067              	.LASF59:
 6068 02ad 73656E73 		.ascii	"sensorState\000"
 6068      6F725374 
 6068      61746500 
 6069              	.LASF84:
 6070 02b9 43617053 		.ascii	"CapSense_SetUnscannedSensorState\000"
 6070      656E7365 
 6070      5F536574 
 6070      556E7363 
 6070      616E6E65 
 6071              	.LASF80:
 6072 02da 6D61736B 		.ascii	"mask\000"
 6072      00
 6073              	.LASF58:
 6074 02df 6F666673 		.ascii	"offset\000"
 6074      657400
 6075              	.LASF32:
 6076 02e6 706F7274 		.ascii	"port\000"
 6076      00
 6077              	.LASF86:
 6078 02eb 43617053 		.ascii	"CapSense_sensorIndex\000"
 6078      656E7365 
 6078      5F73656E 
 6078      736F7249 
 6078      6E646578 
 6079              	.LASF25:
 6080 0300 76616C75 		.ascii	"value\000"
 6080      6500
 6081              	.LASF67:
ARM GAS  C:\Users\kevin\AppData\Local\Temp\ccEmeqeI.s 			page 153


 6082 0306 6C617374 		.ascii	"lastSensor\000"
 6082      53656E73 
 6082      6F7200
 6083              	.LASF43:
 6084 0311 7072744E 		.ascii	"prtNumberTmp\000"
 6084      756D6265 
 6084      72546D70 
 6084      00
 6085              	.LASF48:
 6086 031e 43617053 		.ascii	"CapSense_ScanSensor\000"
 6086      656E7365 
 6086      5F536361 
 6086      6E53656E 
 6086      736F7200 
 6087              	.LASF0:
 6088 0332 756E7369 		.ascii	"unsigned int\000"
 6088      676E6564 
 6088      20696E74 
 6088      00
 6089              	.LASF57:
 6090 033f 706F7369 		.ascii	"position\000"
 6090      74696F6E 
 6090      00
 6091              	.LASF35:
 6092 0348 43617053 		.ascii	"CapSense_ClearSensors\000"
 6092      656E7365 
 6092      5F436C65 
 6092      61725365 
 6092      6E736F72 
 6093              	.LASF6:
 6094 035e 6C6F6E67 		.ascii	"long unsigned int\000"
 6094      20756E73 
 6094      69676E65 
 6094      6420696E 
 6094      7400
 6095              	.LASF102:
 6096 0370 43617053 		.ascii	"CapSense_maskTable\000"
 6096      656E7365 
 6096      5F6D6173 
 6096      6B546162 
 6096      6C6500
 6097              	.LASF101:
 6098 0383 43617053 		.ascii	"CapSense_portTable\000"
 6098      656E7365 
 6098      5F706F72 
 6098      74546162 
 6098      6C6500
 6099              	.LASF119:
 6100 0396 4379456E 		.ascii	"CyEnterCriticalSection\000"
 6100      74657243 
 6100      72697469 
 6100      63616C53 
 6100      65637469 
 6101              	.LASF19:
 6102 03ad 43617053 		.ascii	"CapSense_CsdHwBlockInit\000"
 6102      656E7365 
 6102      5F437364 
ARM GAS  C:\Users\kevin\AppData\Local\Temp\ccEmeqeI.s 			page 154


 6102      4877426C 
 6102      6F636B49 
 6103              	.LASF4:
 6104 03c5 73686F72 		.ascii	"short unsigned int\000"
 6104      7420756E 
 6104      7369676E 
 6104      65642069 
 6104      6E7400
 6105              	.LASF41:
 6106 03d8 43617053 		.ascii	"CapSense_SetDriveModeAllPins\000"
 6106      656E7365 
 6106      5F536574 
 6106      44726976 
 6106      654D6F64 
 6107              	.LASF108:
 6108 03f5 4379496E 		.ascii	"CyIntSetVector\000"
 6108      74536574 
 6108      56656374 
 6108      6F7200
 6109              	.LASF24:
 6110 0404 73656E73 		.ascii	"sensor\000"
 6110      6F7200
 6111              	.LASF90:
 6112 040b 43617053 		.ascii	"CapSense_sensorEnableMask\000"
 6112      656E7365 
 6112      5F73656E 
 6112      736F7245 
 6112      6E61626C 
 6113              	.LASF40:
 6114 0425 706F7274 		.ascii	"portNumber\000"
 6114      4E756D62 
 6114      657200
 6115              	.LASF112:
 6116 0430 43617053 		.ascii	"CapSense_SampleClk_Stop\000"
 6116      656E7365 
 6116      5F53616D 
 6116      706C6543 
 6116      6C6B5F53 
 6117              	.LASF113:
 6118 0448 43617053 		.ascii	"CapSense_SampleClk_SetFractionalDividerRegister\000"
 6118      656E7365 
 6118      5F53616D 
 6118      706C6543 
 6118      6C6B5F53 
 6119              	.LASF16:
 6120 0478 72656733 		.ascii	"reg32\000"
 6120      3200
 6121              	.LASF91:
 6122 047e 43617053 		.ascii	"CapSense_modulationIDAC\000"
 6122      656E7365 
 6122      5F6D6F64 
 6122      756C6174 
 6122      696F6E49 
 6123              	.LASF94:
 6124 0496 43617053 		.ascii	"CapSense_senseClkDividerVal\000"
 6124      656E7365 
 6124      5F73656E 
ARM GAS  C:\Users\kevin\AppData\Local\Temp\ccEmeqeI.s 			page 155


 6124      7365436C 
 6124      6B446976 
 6125              	.LASF60:
 6126 04b2 656E4D61 		.ascii	"enMask\000"
 6126      736B00
 6127              	.LASF18:
 6128 04b9 73697A65 		.ascii	"sizetype\000"
 6128      74797065 
 6128      00
 6129              	.LASF89:
 6130 04c2 43617053 		.ascii	"CapSense_sensorEnableMaskBackup\000"
 6130      656E7365 
 6130      5F73656E 
 6130      736F7245 
 6130      6E61626C 
 6131              	.LASF38:
 6132 04e2 64726976 		.ascii	"driveMode\000"
 6132      654D6F64 
 6132      6500
 6133              	.LASF117:
 6134 04ec 4379496E 		.ascii	"CyIntEnable\000"
 6134      74456E61 
 6134      626C6500 
 6135              	.LASF22:
 6136 04f8 43617053 		.ascii	"CapSense_Stop\000"
 6136      656E7365 
 6136      5F53746F 
 6136      7000
 6137              	.LASF115:
 6138 0506 43617053 		.ascii	"CapSense_SenseClk_Start\000"
 6138      656E7365 
 6138      5F53656E 
 6138      7365436C 
 6138      6B5F5374 
 6139              	.LASF83:
 6140 051e 43617053 		.ascii	"CapSense_initVar\000"
 6140      656E7365 
 6140      5F696E69 
 6140      74566172 
 6140      00
 6141              	.LASF106:
 6142 052f 43617053 		.ascii	"CapSense_csdTrim1\000"
 6142      656E7365 
 6142      5F637364 
 6142      5472696D 
 6142      3100
 6143              	.LASF110:
 6144 0541 4379496E 		.ascii	"CyIntSetPriority\000"
 6144      74536574 
 6144      5072696F 
 6144      72697479 
 6144      00
 6145              	.LASF103:
 6146 0552 43617053 		.ascii	"CapSense_pinShiftTbl\000"
 6146      656E7365 
 6146      5F70696E 
 6146      53686966 
ARM GAS  C:\Users\kevin\AppData\Local\Temp\ccEmeqeI.s 			page 156


 6146      7454626C 
 6147              	.LASF12:
 6148 0567 666C6F61 		.ascii	"float\000"
 6148      7400
 6149              	.LASF123:
 6150 056d 443A5C77 		.ascii	"D:\\wifi_work\\450B_code\\new_board\\newboard_0527_"
 6150      6966695F 
 6150      776F726B 
 6150      5C343530 
 6150      425F636F 
 6151 059c 626F6F74 		.ascii	"boot\\UART_Bootloadable.cydsn\000"
 6151      5C554152 
 6151      545F426F 
 6151      6F746C6F 
 6151      61646162 
 6152              	.LASF124:
 6153 05b9 43794465 		.ascii	"CyDelayCycles\000"
 6153      6C617943 
 6153      79636C65 
 6153      7300
 6154              	.LASF122:
 6155 05c7 2E5C4765 		.ascii	".\\Generated_Source\\PSoC4\\CapSense.c\000"
 6155      6E657261 
 6155      7465645F 
 6155      536F7572 
 6155      63655C50 
 6156              	.LASF15:
 6157 05eb 72656738 		.ascii	"reg8\000"
 6157      00
 6158              	.LASF61:
 6159 05f0 43617053 		.ascii	"CapSense_FindNextSensor\000"
 6159      656E7365 
 6159      5F46696E 
 6159      644E6578 
 6159      7453656E 
 6160              	.LASF2:
 6161 0608 756E7369 		.ascii	"unsigned char\000"
 6161      676E6564 
 6161      20636861 
 6161      7200
 6162              	.LASF29:
 6163 0616 70696E48 		.ascii	"pinHSIOMShift\000"
 6163      53494F4D 
 6163      53686966 
 6163      7400
 6164              	.LASF44:
 6165 0624 70696E4E 		.ascii	"pinNumberTmp\000"
 6165      756D6265 
 6165      72546D70 
 6165      00
 6166              	.LASF93:
 6167 0631 43617053 		.ascii	"CapSense_widgetResolution\000"
 6167      656E7365 
 6167      5F776964 
 6167      67657452 
 6167      65736F6C 
 6168              	.LASF3:
ARM GAS  C:\Users\kevin\AppData\Local\Temp\ccEmeqeI.s 			page 157


 6169 064b 73686F72 		.ascii	"short int\000"
 6169      7420696E 
 6169      7400
 6170              	.LASF26:
 6171 0655 77696467 		.ascii	"widget\000"
 6171      657400
 6172              	.LASF56:
 6173 065c 7461626C 		.ascii	"table\000"
 6173      6500
 6174              	.LASF104:
 6175 0662 43617053 		.ascii	"CapSense_rawDataIndex\000"
 6175      656E7365 
 6175      5F726177 
 6175      44617461 
 6175      496E6465 
 6176              	.LASF72:
 6177 0678 43617053 		.ascii	"CapSense_ReadCurrentScanningSensor\000"
 6177      656E7365 
 6177      5F526561 
 6177      64437572 
 6177      72656E74 
 6178              	.LASF66:
 6179 069b 73656E73 		.ascii	"sensorsPerWidget\000"
 6179      6F727350 
 6179      65725769 
 6179      64676574 
 6179      00
 6180              	.LASF75:
 6181 06ac 63757253 		.ascii	"curSample\000"
 6181      616D706C 
 6181      6500
 6182              	.LASF92:
 6183 06b6 43617053 		.ascii	"CapSense_compensationIDAC\000"
 6183      656E7365 
 6183      5F636F6D 
 6183      70656E73 
 6183      6174696F 
 6184              	.LASF78:
 6185 06d0 7261774C 		.ascii	"rawLevel\000"
 6185      6576656C 
 6185      00
 6186              	.LASF14:
 6187 06d9 63686172 		.ascii	"char\000"
 6187      00
 6188              	.LASF17:
 6189 06de 63796973 		.ascii	"cyisraddress\000"
 6189      72616464 
 6189      72657373 
 6189      00
 6190              	.LASF62:
 6191 06eb 656E6162 		.ascii	"enableFlag\000"
 6191      6C65466C 
 6191      616700
 6192              	.LASF121:
 6193 06f6 474E5520 		.ascii	"GNU C 4.8.4 20140526 (release) [ARM/embedded-4_8-br"
 6193      4320342E 
 6193      382E3420 
ARM GAS  C:\Users\kevin\AppData\Local\Temp\ccEmeqeI.s 			page 158


 6193      32303134 
 6193      30353236 
 6194 0729 616E6368 		.ascii	"anch revision 211358] -mcpu=cortex-m0 -mthumb -g -O"
 6194      20726576 
 6194      6973696F 
 6194      6E203231 
 6194      31333538 
 6195 075c 73202D66 		.ascii	"s -ffunction-sections\000"
 6195      66756E63 
 6195      74696F6E 
 6195      2D736563 
 6195      74696F6E 
 6196              	.LASF85:
 6197 0772 43617053 		.ascii	"CapSense_csdStatusVar\000"
 6197      656E7365 
 6197      5F637364 
 6197      53746174 
 6197      75735661 
 6198              	.LASF99:
 6199 0788 43617053 		.ascii	"CapSense_prtDRTbl\000"
 6199      656E7365 
 6199      5F707274 
 6199      44525462 
 6199      6C00
 6200              	.LASF39:
 6201 079a 70696E4E 		.ascii	"pinNumber\000"
 6201      756D6265 
 6201      7200
 6202              	.LASF82:
 6203 07a4 43617053 		.ascii	"CapSense_Start\000"
 6203      656E7365 
 6203      5F537461 
 6203      727400
 6204              	.LASF79:
 6205 07b3 69646163 		.ascii	"idacLevelsTbl\000"
 6205      4C657665 
 6205      6C735462 
 6205      6C00
 6206              	.LASF49:
 6207 07c1 43617053 		.ascii	"CapSense_PostScan\000"
 6207      656E7365 
 6207      5F506F73 
 6207      74536361 
 6207      6E00
 6208              	.LASF98:
 6209 07d3 43617053 		.ascii	"CapSense_prtCfgTbl\000"
 6209      656E7365 
 6209      5F707274 
 6209      43666754 
 6209      626C00
 6210              	.LASF23:
 6211 07e6 43617053 		.ascii	"CapSense_WriteSensorRaw\000"
 6211      656E7365 
 6211      5F577269 
 6211      74655365 
 6211      6E736F72 
 6212              	.LASF65:
ARM GAS  C:\Users\kevin\AppData\Local\Temp\ccEmeqeI.s 			page 159


 6213 07fe 43617053 		.ascii	"CapSense_ScanWidget\000"
 6213      656E7365 
 6213      5F536361 
 6213      6E576964 
 6213      67657400 
 6214              	.LASF33:
 6215 0812 43617053 		.ascii	"CapSense_DisableSensor\000"
 6215      656E7365 
 6215      5F446973 
 6215      61626C65 
 6215      53656E73 
 6216              	.LASF77:
 6217 0829 43617053 		.ascii	"CapSense_CalibrateSensor\000"
 6217      656E7365 
 6217      5F43616C 
 6217      69627261 
 6217      74655365 
 6218              	.LASF31:
 6219 0842 6E657752 		.ascii	"newRegisterValue\000"
 6219      65676973 
 6219      74657256 
 6219      616C7565 
 6219      00
 6220              	.LASF74:
 6221 0853 43617053 		.ascii	"CapSense_GetSensorRaw\000"
 6221      656E7365 
 6221      5F476574 
 6221      53656E73 
 6221      6F725261 
 6222              	.LASF46:
 6223 0869 43617053 		.ascii	"CapSense_PreScan\000"
 6223      656E7365 
 6223      5F507265 
 6223      5363616E 
 6223      00
 6224              	.LASF53:
 6225 087a 43617053 		.ascii	"CapSense_Init\000"
 6225      656E7365 
 6225      5F496E69 
 6225      7400
 6226              	.LASF87:
 6227 0888 43617053 		.ascii	"CapSense_sensorRaw\000"
 6227      656E7365 
 6227      5F73656E 
 6227      736F7252 
 6227      617700
 6228              	.LASF50:
 6229 089b 43617053 		.ascii	"CapSense_EnableShieldElectrode\000"
 6229      656E7365 
 6229      5F456E61 
 6229      626C6553 
 6229      6869656C 
 6230              	.LASF55:
 6231 08ba 43617053 		.ascii	"CapSense_GetBitValue\000"
 6231      656E7365 
 6231      5F476574 
 6231      42697456 
ARM GAS  C:\Users\kevin\AppData\Local\Temp\ccEmeqeI.s 			page 160


 6231      616C7565 
 6232              	.LASF63:
 6233 08cf 43617053 		.ascii	"CapSense_ScanEnabledWidgets\000"
 6233      656E7365 
 6233      5F536361 
 6233      6E456E61 
 6233      626C6564 
 6234              	.LASF69:
 6235 08eb 43617053 		.ascii	"CapSense_GetModulatorClkDivider\000"
 6235      656E7365 
 6235      5F476574 
 6235      4D6F6475 
 6235      6C61746F 
 6236              	.LASF13:
 6237 090b 646F7562 		.ascii	"double\000"
 6237      6C6500
 6238              	.LASF51:
 6239 0912 43617053 		.ascii	"CapSense_SetShieldDelay\000"
 6239      656E7365 
 6239      5F536574 
 6239      53686965 
 6239      6C644465 
 6240              	.LASF68:
 6241 092a 43617053 		.ascii	"CapSense_GetSenseClkDivider\000"
 6241      656E7365 
 6241      5F476574 
 6241      53656E73 
 6241      65436C6B 
 6242              	.LASF118:
 6243 0946 43617053 		.ascii	"CapSense_IsBusy\000"
 6243      656E7365 
 6243      5F497342 
 6243      75737900 
 6244              	.LASF105:
 6245 0956 43617053 		.ascii	"CapSense_numberOfSensors\000"
 6245      656E7365 
 6245      5F6E756D 
 6245      6265724F 
 6245      6653656E 
 6246              		.ident	"GCC: (GNU Tools for ARM Embedded Processors) 4.8.4 20140526 (release) [ARM/embedded-4_8-br
