ARM GAS  C:\Users\kevin\AppData\Local\Temp\ccCzthOk.s 			page 1


   1              		.cpu cortex-m0
   2              		.fpu softvfp
   3              		.eabi_attribute 20, 1
   4              		.eabi_attribute 21, 1
   5              		.eabi_attribute 23, 3
   6              		.eabi_attribute 24, 1
   7              		.eabi_attribute 25, 1
   8              		.eabi_attribute 26, 1
   9              		.eabi_attribute 30, 4
  10              		.eabi_attribute 34, 0
  11              		.eabi_attribute 18, 4
  12              		.code	16
  13              		.file	"CapSense_CSHL.c"
  14              		.text
  15              	.Ltext0:
  16              		.cfi_sections	.debug_frame
  17              		.section	.text.CapSense_BaseInit,"ax",%progbits
  18              		.align	1
  19              		.global	CapSense_BaseInit
  20              		.code	16
  21              		.thumb_func
  22              		.type	CapSense_BaseInit, %function
  23              	CapSense_BaseInit:
  24              	.LFB33:
  25              		.file 1 ".\\Generated_Source\\PSoC4\\CapSense_CSHL.c"
   1:.\Generated_Source\PSoC4/CapSense_CSHL.c **** /*******************************************************************************
   2:.\Generated_Source\PSoC4/CapSense_CSHL.c **** * File Name: CapSense_CSHL.c
   3:.\Generated_Source\PSoC4/CapSense_CSHL.c **** * Version 2.10
   4:.\Generated_Source\PSoC4/CapSense_CSHL.c **** *
   5:.\Generated_Source\PSoC4/CapSense_CSHL.c **** * Description:
   6:.\Generated_Source\PSoC4/CapSense_CSHL.c **** *  This file provides the source code to the High Level APIs for the CapSesne
   7:.\Generated_Source\PSoC4/CapSense_CSHL.c **** *  CSD component.
   8:.\Generated_Source\PSoC4/CapSense_CSHL.c **** *
   9:.\Generated_Source\PSoC4/CapSense_CSHL.c **** * Note:
  10:.\Generated_Source\PSoC4/CapSense_CSHL.c **** *
  11:.\Generated_Source\PSoC4/CapSense_CSHL.c **** ********************************************************************************
  12:.\Generated_Source\PSoC4/CapSense_CSHL.c **** * Copyright 2014, Cypress Semiconductor Corporation.  All rights reserved.
  13:.\Generated_Source\PSoC4/CapSense_CSHL.c **** * You may use this file only in accordance with the license, terms, conditions,
  14:.\Generated_Source\PSoC4/CapSense_CSHL.c **** * disclaimers, and limitations in the end user license agreement accompanying
  15:.\Generated_Source\PSoC4/CapSense_CSHL.c **** * the software package with which this file was provided.
  16:.\Generated_Source\PSoC4/CapSense_CSHL.c **** *******************************************************************************/
  17:.\Generated_Source\PSoC4/CapSense_CSHL.c **** 
  18:.\Generated_Source\PSoC4/CapSense_CSHL.c **** #include "CapSense_CSHL.h"
  19:.\Generated_Source\PSoC4/CapSense_CSHL.c **** #include "CapSense_PVT.h"
  20:.\Generated_Source\PSoC4/CapSense_CSHL.c **** 
  21:.\Generated_Source\PSoC4/CapSense_CSHL.c **** /* SmartSense functions */
  22:.\Generated_Source\PSoC4/CapSense_CSHL.c **** #if (CapSense_TUNING_METHOD == CapSense__TUNING_AUTO)
  23:.\Generated_Source\PSoC4/CapSense_CSHL.c ****     extern void CapSense_UpdateThresholds(uint32 sensor);
  24:.\Generated_Source\PSoC4/CapSense_CSHL.c **** #endif /* (CapSense_TUNING_METHOD == CapSense__TUNING_AUTO) */
  25:.\Generated_Source\PSoC4/CapSense_CSHL.c **** 
  26:.\Generated_Source\PSoC4/CapSense_CSHL.c **** /* Storage of filters data */
  27:.\Generated_Source\PSoC4/CapSense_CSHL.c **** #if ( (0u != (CapSense_RAW_FILTER_MASK & CapSense_MEDIAN_FILTER)) || \
  28:.\Generated_Source\PSoC4/CapSense_CSHL.c ****       (0u != (CapSense_RAW_FILTER_MASK & CapSense_AVERAGING_FILTER)) )
  29:.\Generated_Source\PSoC4/CapSense_CSHL.c **** 
  30:.\Generated_Source\PSoC4/CapSense_CSHL.c ****     uint16 CapSense_rawFilterData1[CapSense_TOTAL_SENSOR_COUNT];
  31:.\Generated_Source\PSoC4/CapSense_CSHL.c ****     uint16 CapSense_rawFilterData2[CapSense_TOTAL_SENSOR_COUNT];
  32:.\Generated_Source\PSoC4/CapSense_CSHL.c **** 
ARM GAS  C:\Users\kevin\AppData\Local\Temp\ccCzthOk.s 			page 2


  33:.\Generated_Source\PSoC4/CapSense_CSHL.c **** #elif ( (0u != (CapSense_RAW_FILTER_MASK & CapSense_IIR2_FILTER))   || \
  34:.\Generated_Source\PSoC4/CapSense_CSHL.c ****         (0u != (CapSense_RAW_FILTER_MASK & CapSense_IIR4_FILTER))   || \
  35:.\Generated_Source\PSoC4/CapSense_CSHL.c ****         (0u != (CapSense_RAW_FILTER_MASK & CapSense_JITTER_FILTER)) || \
  36:.\Generated_Source\PSoC4/CapSense_CSHL.c ****         (0u != (CapSense_RAW_FILTER_MASK & CapSense_IIR8_FILTER))   || \
  37:.\Generated_Source\PSoC4/CapSense_CSHL.c ****         (0u != (CapSense_RAW_FILTER_MASK & CapSense_IIR16_FILTER)) )
  38:.\Generated_Source\PSoC4/CapSense_CSHL.c ****         
  39:.\Generated_Source\PSoC4/CapSense_CSHL.c ****     uint16 CapSense_rawFilterData1[CapSense_TOTAL_SENSOR_COUNT];
  40:.\Generated_Source\PSoC4/CapSense_CSHL.c **** #endif  /* ( (CapSense_RAW_FILTER_MASK & CapSense_MEDIAN_FILTER) || \
  41:.\Generated_Source\PSoC4/CapSense_CSHL.c ****         *    (CapSense_RAW_FILTER_MASK & CapSense_AVERAGING_FILTER) )
  42:.\Generated_Source\PSoC4/CapSense_CSHL.c ****         */
  43:.\Generated_Source\PSoC4/CapSense_CSHL.c **** 
  44:.\Generated_Source\PSoC4/CapSense_CSHL.c **** extern uint16 CapSense_sensorRaw[CapSense_TOTAL_SENSOR_COUNT];
  45:.\Generated_Source\PSoC4/CapSense_CSHL.c **** extern uint8 CapSense_sensorEnableMask[CapSense_TOTAL_SENSOR_MASK];
  46:.\Generated_Source\PSoC4/CapSense_CSHL.c **** extern const uint8 CapSense_widgetNumber[CapSense_TOTAL_SENSOR_COUNT];
  47:.\Generated_Source\PSoC4/CapSense_CSHL.c **** 
  48:.\Generated_Source\PSoC4/CapSense_CSHL.c **** #if (CapSense_TUNING_METHOD != CapSense__TUNING_NONE)
  49:.\Generated_Source\PSoC4/CapSense_CSHL.c **** 	extern uint32 CapSense_widgetResolution[CapSense_RESOLUTIONS_TBL_SIZE];	
  50:.\Generated_Source\PSoC4/CapSense_CSHL.c **** #endif /* (CapSense_TUNING_METHOD != CapSense__TUNING_NONE) */
  51:.\Generated_Source\PSoC4/CapSense_CSHL.c **** 
  52:.\Generated_Source\PSoC4/CapSense_CSHL.c **** uint16 CapSense_sensorBaseline[CapSense_TOTAL_SENSOR_COUNT] = {0u};
  53:.\Generated_Source\PSoC4/CapSense_CSHL.c **** uint8 CapSense_sensorBaselineLow[CapSense_TOTAL_SENSOR_COUNT] = {0u};
  54:.\Generated_Source\PSoC4/CapSense_CSHL.c **** uint8 CapSense_sensorSignal[CapSense_TOTAL_SENSOR_COUNT] = {0u};
  55:.\Generated_Source\PSoC4/CapSense_CSHL.c **** uint8 CapSense_sensorOnMask[CapSense_TOTAL_SENSOR_MASK] = {0u};
  56:.\Generated_Source\PSoC4/CapSense_CSHL.c **** 
  57:.\Generated_Source\PSoC4/CapSense_CSHL.c **** uint8 CapSense_lowBaselineResetCnt[CapSense_TOTAL_SENSOR_COUNT];
  58:.\Generated_Source\PSoC4/CapSense_CSHL.c **** uint8 CapSense_lowBaselineReset[CapSense_TOTAL_SENSOR_COUNT] = {
  59:.\Generated_Source\PSoC4/CapSense_CSHL.c ****     5u, 5u, 5u, 
  60:.\Generated_Source\PSoC4/CapSense_CSHL.c **** };
  61:.\Generated_Source\PSoC4/CapSense_CSHL.c **** 
  62:.\Generated_Source\PSoC4/CapSense_CSHL.c **** 
  63:.\Generated_Source\PSoC4/CapSense_CSHL.c **** 
  64:.\Generated_Source\PSoC4/CapSense_CSHL.c **** #if (CapSense_TUNING_METHOD == CapSense__TUNING_AUTO)
  65:.\Generated_Source\PSoC4/CapSense_CSHL.c **** 	extern CapSense_CONFIG_TYPE_P4_v2_10 CapSense_config;
  66:.\Generated_Source\PSoC4/CapSense_CSHL.c **** #endif  /* (CapSense_TUNING_METHOD == CapSense__TUNING_AUTO) */
  67:.\Generated_Source\PSoC4/CapSense_CSHL.c **** 
  68:.\Generated_Source\PSoC4/CapSense_CSHL.c **** #if (CapSense_RAW_FILTER_MASK != 0u)
  69:.\Generated_Source\PSoC4/CapSense_CSHL.c **** uint8 CapSense_enableRawFilters = CapSense_RAW_FILTERS_ENABLED;
  70:.\Generated_Source\PSoC4/CapSense_CSHL.c **** #endif  /* (CapSense_RAW_FILTER_MASK != 0u) */
  71:.\Generated_Source\PSoC4/CapSense_CSHL.c **** 
  72:.\Generated_Source\PSoC4/CapSense_CSHL.c **** /* Generated by Customizer */
  73:.\Generated_Source\PSoC4/CapSense_CSHL.c **** const uint8 CapSense_fingerThreshold[] = {
  74:.\Generated_Source\PSoC4/CapSense_CSHL.c ****     130u, 130u, 130u, 
  75:.\Generated_Source\PSoC4/CapSense_CSHL.c **** };
  76:.\Generated_Source\PSoC4/CapSense_CSHL.c **** 
  77:.\Generated_Source\PSoC4/CapSense_CSHL.c **** const uint8 CapSense_noiseThreshold[] = {
  78:.\Generated_Source\PSoC4/CapSense_CSHL.c ****     40u, 40u, 40u, 
  79:.\Generated_Source\PSoC4/CapSense_CSHL.c **** };
  80:.\Generated_Source\PSoC4/CapSense_CSHL.c **** 
  81:.\Generated_Source\PSoC4/CapSense_CSHL.c **** const uint8 CapSense_hysteresis[] = {
  82:.\Generated_Source\PSoC4/CapSense_CSHL.c ****     10u, 10u, 10u, 
  83:.\Generated_Source\PSoC4/CapSense_CSHL.c **** };
  84:.\Generated_Source\PSoC4/CapSense_CSHL.c **** 
  85:.\Generated_Source\PSoC4/CapSense_CSHL.c **** const uint8 CapSense_debounce[] = {
  86:.\Generated_Source\PSoC4/CapSense_CSHL.c ****     5u, 5u, 5u, 
  87:.\Generated_Source\PSoC4/CapSense_CSHL.c **** };
  88:.\Generated_Source\PSoC4/CapSense_CSHL.c **** 
  89:.\Generated_Source\PSoC4/CapSense_CSHL.c **** static uint8 CapSense_debounceCounter[] = {
ARM GAS  C:\Users\kevin\AppData\Local\Temp\ccCzthOk.s 			page 3


  90:.\Generated_Source\PSoC4/CapSense_CSHL.c ****     0u, 0u, 0u, 0u, 
  91:.\Generated_Source\PSoC4/CapSense_CSHL.c **** };
  92:.\Generated_Source\PSoC4/CapSense_CSHL.c **** 
  93:.\Generated_Source\PSoC4/CapSense_CSHL.c **** const uint8 CapSense_rawDataIndex[] = {
  94:.\Generated_Source\PSoC4/CapSense_CSHL.c ****     0u, /* Button0__BTN */
  95:.\Generated_Source\PSoC4/CapSense_CSHL.c ****     1u, /* Button1__BTN */
  96:.\Generated_Source\PSoC4/CapSense_CSHL.c ****     2u, /* Button2__BTN */
  97:.\Generated_Source\PSoC4/CapSense_CSHL.c **** };
  98:.\Generated_Source\PSoC4/CapSense_CSHL.c **** 
  99:.\Generated_Source\PSoC4/CapSense_CSHL.c **** const uint8 CapSense_numberOfSensors[] = {
 100:.\Generated_Source\PSoC4/CapSense_CSHL.c ****     1u, /* Button0__BTN */
 101:.\Generated_Source\PSoC4/CapSense_CSHL.c ****     1u, /* Button1__BTN */
 102:.\Generated_Source\PSoC4/CapSense_CSHL.c ****     1u, /* Button2__BTN */
 103:.\Generated_Source\PSoC4/CapSense_CSHL.c **** };
 104:.\Generated_Source\PSoC4/CapSense_CSHL.c **** 
 105:.\Generated_Source\PSoC4/CapSense_CSHL.c **** 
 106:.\Generated_Source\PSoC4/CapSense_CSHL.c **** 
 107:.\Generated_Source\PSoC4/CapSense_CSHL.c **** 
 108:.\Generated_Source\PSoC4/CapSense_CSHL.c **** /*******************************************************************************
 109:.\Generated_Source\PSoC4/CapSense_CSHL.c **** * Function Name: CapSense_BaseInit
 110:.\Generated_Source\PSoC4/CapSense_CSHL.c **** ********************************************************************************
 111:.\Generated_Source\PSoC4/CapSense_CSHL.c **** *
 112:.\Generated_Source\PSoC4/CapSense_CSHL.c **** * Summary:
 113:.\Generated_Source\PSoC4/CapSense_CSHL.c **** *  Loads the CapSense_sensorBaseline[sensor] array element with an 
 114:.\Generated_Source\PSoC4/CapSense_CSHL.c **** *  initial value which is equal to the raw count value. 
 115:.\Generated_Source\PSoC4/CapSense_CSHL.c **** *  Resets to zero CapSense_sensorBaselineLow[sensor] and 
 116:.\Generated_Source\PSoC4/CapSense_CSHL.c **** *  CapSense_sensorSignal[sensor] array element.
 117:.\Generated_Source\PSoC4/CapSense_CSHL.c **** *  Loads the CapSense_rawFilterData2[sensor] and 
 118:.\Generated_Source\PSoC4/CapSense_CSHL.c **** *  CapSense_rawFilterData2[sensor] array element with an 
 119:.\Generated_Source\PSoC4/CapSense_CSHL.c **** *  initial value which is equal to the raw count value if the raw data filter is enabled.
 120:.\Generated_Source\PSoC4/CapSense_CSHL.c **** *
 121:.\Generated_Source\PSoC4/CapSense_CSHL.c **** * Parameters:
 122:.\Generated_Source\PSoC4/CapSense_CSHL.c **** *  sensor:  Sensor number.
 123:.\Generated_Source\PSoC4/CapSense_CSHL.c **** *
 124:.\Generated_Source\PSoC4/CapSense_CSHL.c **** * Return:
 125:.\Generated_Source\PSoC4/CapSense_CSHL.c **** *  None
 126:.\Generated_Source\PSoC4/CapSense_CSHL.c **** *
 127:.\Generated_Source\PSoC4/CapSense_CSHL.c **** * Global Variables:
 128:.\Generated_Source\PSoC4/CapSense_CSHL.c **** *  CapSense_sensorBaseline[]    - used to store the baseline value.
 129:.\Generated_Source\PSoC4/CapSense_CSHL.c **** *  CapSense_sensorBaselineLow[] - used to store the fraction byte of 
 130:.\Generated_Source\PSoC4/CapSense_CSHL.c **** *  the baseline value.
 131:.\Generated_Source\PSoC4/CapSense_CSHL.c **** *  CapSense_sensorSignal[]      - used to store a difference between 
 132:.\Generated_Source\PSoC4/CapSense_CSHL.c **** *  the current value of raw data and the previous value of the baseline.
 133:.\Generated_Source\PSoC4/CapSense_CSHL.c **** *  CapSense_rawFilterData1[]    - used to store a previous sample of 
 134:.\Generated_Source\PSoC4/CapSense_CSHL.c **** *  any enabled raw data filter.
 135:.\Generated_Source\PSoC4/CapSense_CSHL.c **** *  CapSense_rawFilterData2[]    - used to store before a previous sample
 136:.\Generated_Source\PSoC4/CapSense_CSHL.c **** *  of the enabled raw data filter. Required only for median or average filters.
 137:.\Generated_Source\PSoC4/CapSense_CSHL.c **** *
 138:.\Generated_Source\PSoC4/CapSense_CSHL.c **** * Side Effects:
 139:.\Generated_Source\PSoC4/CapSense_CSHL.c **** *  None
 140:.\Generated_Source\PSoC4/CapSense_CSHL.c **** * 
 141:.\Generated_Source\PSoC4/CapSense_CSHL.c **** *******************************************************************************/
 142:.\Generated_Source\PSoC4/CapSense_CSHL.c **** void CapSense_BaseInit(uint32 sensor)
 143:.\Generated_Source\PSoC4/CapSense_CSHL.c **** {
  26              		.loc 1 143 0
  27              		.cfi_startproc
  28              	.LVL0:
ARM GAS  C:\Users\kevin\AppData\Local\Temp\ccCzthOk.s 			page 4


 144:.\Generated_Source\PSoC4/CapSense_CSHL.c ****     #if ((CapSense_TOTAL_BUTTONS_COUNT) || (CapSense_TOTAL_MATRIX_BUTTONS_COUNT) || \
 145:.\Generated_Source\PSoC4/CapSense_CSHL.c ****          (CapSense_TOTAL_GENERICS_COUNT))
 146:.\Generated_Source\PSoC4/CapSense_CSHL.c ****         uint8 widget = CapSense_widgetNumber[sensor];
  29              		.loc 1 146 0
  30 0000 0A4B     		ldr	r3, .L2
 143:.\Generated_Source\PSoC4/CapSense_CSHL.c **** {
  31              		.loc 1 143 0
  32 0002 70B5     		push	{r4, r5, r6, lr}
  33              		.cfi_def_cfa_offset 16
  34              		.cfi_offset 4, -16
  35              		.cfi_offset 5, -12
  36              		.cfi_offset 6, -8
  37              		.cfi_offset 14, -4
  38              		.loc 1 146 0
  39 0004 1C5C     		ldrb	r4, [r3, r0]
  40              	.LVL1:
 147:.\Generated_Source\PSoC4/CapSense_CSHL.c ****     #endif /* ((CapSense_TOTAL_MATRIX_BUTTONS_COUNT) || (CapSense_TOTAL_MATRIX_BUTTONS_COUNT)) */
 148:.\Generated_Source\PSoC4/CapSense_CSHL.c ****     
 149:.\Generated_Source\PSoC4/CapSense_CSHL.c ****     #if (CapSense_TOTAL_MATRIX_BUTTONS_COUNT)
 150:.\Generated_Source\PSoC4/CapSense_CSHL.c ****         uint8 debounceIndex;
 151:.\Generated_Source\PSoC4/CapSense_CSHL.c ****     #endif  /* (CapSense_TOTAL_MATRIX_BUTTONS_COUNT) */
 152:.\Generated_Source\PSoC4/CapSense_CSHL.c ****     
 153:.\Generated_Source\PSoC4/CapSense_CSHL.c ****     #if (CapSense_TOTAL_GENERICS_COUNT)
 154:.\Generated_Source\PSoC4/CapSense_CSHL.c ****         /* Exclude generic widget */
 155:.\Generated_Source\PSoC4/CapSense_CSHL.c ****         if(widget < CapSense_END_OF_WIDGETS_INDEX)
 156:.\Generated_Source\PSoC4/CapSense_CSHL.c ****         {
 157:.\Generated_Source\PSoC4/CapSense_CSHL.c ****     #endif  /* CapSense_TOTAL_GENERICS_COUNT */
 158:.\Generated_Source\PSoC4/CapSense_CSHL.c ****     
 159:.\Generated_Source\PSoC4/CapSense_CSHL.c ****     /* Initialize Baseline */
 160:.\Generated_Source\PSoC4/CapSense_CSHL.c ****     CapSense_sensorBaseline[sensor] = CapSense_sensorRaw[sensor];
  41              		.loc 1 160 0
  42 0006 0A4B     		ldr	r3, .L2+4
  43              	.LVL2:
  44 0008 4200     		lsl	r2, r0, #1
  45 000a D15A     		ldrh	r1, [r2, r3]
  46 000c 094B     		ldr	r3, .L2+8
 161:.\Generated_Source\PSoC4/CapSense_CSHL.c ****     CapSense_sensorBaselineLow[sensor] = 0u;
  47              		.loc 1 161 0
  48 000e 0025     		mov	r5, #0
  49 0010 9E1D     		add	r6, r3, #6
  50 0012 3554     		strb	r5, [r6, r0]
 162:.\Generated_Source\PSoC4/CapSense_CSHL.c ****     CapSense_sensorSignal[sensor] = 0u;
  51              		.loc 1 162 0
  52 0014 1E1C     		mov	r6, r3
  53 0016 0936     		add	r6, r6, #9
  54 0018 3554     		strb	r5, [r6, r0]
 163:.\Generated_Source\PSoC4/CapSense_CSHL.c ****         
 164:.\Generated_Source\PSoC4/CapSense_CSHL.c ****     CapSense_debounceCounter[widget] =  CapSense_debounce[widget];
  55              		.loc 1 164 0
  56 001a 0748     		ldr	r0, .L2+12
  57              	.LVL3:
 160:.\Generated_Source\PSoC4/CapSense_CSHL.c ****     CapSense_sensorBaseline[sensor] = CapSense_sensorRaw[sensor];
  58              		.loc 1 160 0
  59 001c D152     		strh	r1, [r2, r3]
  60              		.loc 1 164 0
  61 001e 005D     		ldrb	r0, [r0, r4]
  62 0020 1B19     		add	r3, r3, r4
ARM GAS  C:\Users\kevin\AppData\Local\Temp\ccCzthOk.s 			page 5


  63 0022 1873     		strb	r0, [r3, #12]
 165:.\Generated_Source\PSoC4/CapSense_CSHL.c **** 
 166:.\Generated_Source\PSoC4/CapSense_CSHL.c ****     
 167:.\Generated_Source\PSoC4/CapSense_CSHL.c ****     #if ((0u != (CapSense_RAW_FILTER_MASK & CapSense_MEDIAN_FILTER)) ||\
 168:.\Generated_Source\PSoC4/CapSense_CSHL.c ****          (0u != (CapSense_RAW_FILTER_MASK & CapSense_AVERAGING_FILTER)))
 169:.\Generated_Source\PSoC4/CapSense_CSHL.c **** 
 170:.\Generated_Source\PSoC4/CapSense_CSHL.c ****         CapSense_rawFilterData1[sensor] = CapSense_sensorRaw[sensor];
 171:.\Generated_Source\PSoC4/CapSense_CSHL.c ****         CapSense_rawFilterData2[sensor] = CapSense_sensorRaw[sensor];
 172:.\Generated_Source\PSoC4/CapSense_CSHL.c ****     
 173:.\Generated_Source\PSoC4/CapSense_CSHL.c ****     #elif ((CapSense_RAW_FILTER_MASK & CapSense_IIR2_FILTER) ||\
 174:.\Generated_Source\PSoC4/CapSense_CSHL.c ****            (CapSense_RAW_FILTER_MASK & CapSense_IIR4_FILTER) ||\
 175:.\Generated_Source\PSoC4/CapSense_CSHL.c ****            (CapSense_RAW_FILTER_MASK & CapSense_JITTER_FILTER) ||\
 176:.\Generated_Source\PSoC4/CapSense_CSHL.c ****            (CapSense_RAW_FILTER_MASK & CapSense_IIR8_FILTER) ||\
 177:.\Generated_Source\PSoC4/CapSense_CSHL.c ****            (CapSense_RAW_FILTER_MASK & CapSense_IIR16_FILTER))
 178:.\Generated_Source\PSoC4/CapSense_CSHL.c ****             
 179:.\Generated_Source\PSoC4/CapSense_CSHL.c ****         CapSense_rawFilterData1[sensor] = CapSense_sensorRaw[sensor];
  64              		.loc 1 179 0
  65 0024 054B     		ldr	r3, .L2+16
 180:.\Generated_Source\PSoC4/CapSense_CSHL.c ****     
 181:.\Generated_Source\PSoC4/CapSense_CSHL.c ****     #else
 182:.\Generated_Source\PSoC4/CapSense_CSHL.c ****         /* No Raw filters */
 183:.\Generated_Source\PSoC4/CapSense_CSHL.c ****     #endif  /* ((CapSense_RAW_FILTER_MASK & CapSense_MEDIAN_FILTER) || \
 184:.\Generated_Source\PSoC4/CapSense_CSHL.c ****             *   (CapSense_RAW_FILTER_MASK & CapSense_AVERAGING_FILTER))
 185:.\Generated_Source\PSoC4/CapSense_CSHL.c ****             */
 186:.\Generated_Source\PSoC4/CapSense_CSHL.c ****     
 187:.\Generated_Source\PSoC4/CapSense_CSHL.c ****     #if (CapSense_TOTAL_GENERICS_COUNT)
 188:.\Generated_Source\PSoC4/CapSense_CSHL.c ****         /* Exclude generic widget */
 189:.\Generated_Source\PSoC4/CapSense_CSHL.c ****         }
 190:.\Generated_Source\PSoC4/CapSense_CSHL.c ****     #endif  /* CapSense_TOTAL_GENERICS_COUNT */
 191:.\Generated_Source\PSoC4/CapSense_CSHL.c **** }
  66              		.loc 1 191 0
  67              		@ sp needed
 179:.\Generated_Source\PSoC4/CapSense_CSHL.c ****         CapSense_rawFilterData1[sensor] = CapSense_sensorRaw[sensor];
  68              		.loc 1 179 0
  69 0026 D152     		strh	r1, [r2, r3]
  70              	.LVL4:
  71              		.loc 1 191 0
  72 0028 70BD     		pop	{r4, r5, r6, pc}
  73              	.L3:
  74 002a C046     		.align	2
  75              	.L2:
  76 002c 00000000 		.word	CapSense_widgetNumber
  77 0030 00000000 		.word	CapSense_sensorRaw
  78 0034 00000000 		.word	.LANCHOR0
  79 0038 00000000 		.word	.LANCHOR1
  80 003c 00000000 		.word	CapSense_rawFilterData1
  81              		.cfi_endproc
  82              	.LFE33:
  83              		.size	CapSense_BaseInit, .-CapSense_BaseInit
  84              		.section	.text.CapSense_InitializeSensorBaseline,"ax",%progbits
  85              		.align	1
  86              		.global	CapSense_InitializeSensorBaseline
  87              		.code	16
  88              		.thumb_func
  89              		.type	CapSense_InitializeSensorBaseline, %function
  90              	CapSense_InitializeSensorBaseline:
  91              	.LFB34:
ARM GAS  C:\Users\kevin\AppData\Local\Temp\ccCzthOk.s 			page 6


 192:.\Generated_Source\PSoC4/CapSense_CSHL.c **** 
 193:.\Generated_Source\PSoC4/CapSense_CSHL.c **** 
 194:.\Generated_Source\PSoC4/CapSense_CSHL.c **** /*******************************************************************************
 195:.\Generated_Source\PSoC4/CapSense_CSHL.c **** * Function Name: CapSense_InitializeSensorBaseline
 196:.\Generated_Source\PSoC4/CapSense_CSHL.c **** ********************************************************************************
 197:.\Generated_Source\PSoC4/CapSense_CSHL.c **** *
 198:.\Generated_Source\PSoC4/CapSense_CSHL.c **** * Summary:
 199:.\Generated_Source\PSoC4/CapSense_CSHL.c **** *  Loads the CapSense_sensorBaseline[sensor] array element with an 
 200:.\Generated_Source\PSoC4/CapSense_CSHL.c **** *  initial value by scanning the selected sensor (one channel design) or a pair 
 201:.\Generated_Source\PSoC4/CapSense_CSHL.c **** *  of sensors (two channels designs). The raw count value is copied into the 
 202:.\Generated_Source\PSoC4/CapSense_CSHL.c **** *  baseline array for each sensor. The raw data filters are initialized if 
 203:.\Generated_Source\PSoC4/CapSense_CSHL.c **** *  enabled.
 204:.\Generated_Source\PSoC4/CapSense_CSHL.c **** *
 205:.\Generated_Source\PSoC4/CapSense_CSHL.c **** * Parameters:
 206:.\Generated_Source\PSoC4/CapSense_CSHL.c **** *  sensor:  Sensor number.
 207:.\Generated_Source\PSoC4/CapSense_CSHL.c **** *
 208:.\Generated_Source\PSoC4/CapSense_CSHL.c **** * Return:
 209:.\Generated_Source\PSoC4/CapSense_CSHL.c **** *  None
 210:.\Generated_Source\PSoC4/CapSense_CSHL.c **** *
 211:.\Generated_Source\PSoC4/CapSense_CSHL.c **** * Global Variables:
 212:.\Generated_Source\PSoC4/CapSense_CSHL.c **** *  None
 213:.\Generated_Source\PSoC4/CapSense_CSHL.c **** *
 214:.\Generated_Source\PSoC4/CapSense_CSHL.c **** * Side Effects:
 215:.\Generated_Source\PSoC4/CapSense_CSHL.c **** *  None
 216:.\Generated_Source\PSoC4/CapSense_CSHL.c **** * 
 217:.\Generated_Source\PSoC4/CapSense_CSHL.c **** *******************************************************************************/
 218:.\Generated_Source\PSoC4/CapSense_CSHL.c **** void CapSense_InitializeSensorBaseline(uint32 sensor)
 219:.\Generated_Source\PSoC4/CapSense_CSHL.c **** {
  92              		.loc 1 219 0
  93              		.cfi_startproc
  94              	.LVL5:
  95 0000 10B5     		push	{r4, lr}
  96              		.cfi_def_cfa_offset 8
  97              		.cfi_offset 4, -8
  98              		.cfi_offset 14, -4
  99              		.loc 1 219 0
 100 0002 041C     		mov	r4, r0
 220:.\Generated_Source\PSoC4/CapSense_CSHL.c ****     /* Scan sensor */
 221:.\Generated_Source\PSoC4/CapSense_CSHL.c ****     CapSense_ScanSensor(sensor);
 101              		.loc 1 221 0
 102 0004 FFF7FEFF 		bl	CapSense_ScanSensor
 103              	.LVL6:
 104              	.L6:
 222:.\Generated_Source\PSoC4/CapSense_CSHL.c ****     while(CapSense_IsBusy() != 0u)
 105              		.loc 1 222 0 discriminator 1
 106 0008 FFF7FEFF 		bl	CapSense_IsBusy
 107              	.LVL7:
 108 000c 0028     		cmp	r0, #0
 109 000e FBD1     		bne	.L6
 223:.\Generated_Source\PSoC4/CapSense_CSHL.c ****     {
 224:.\Generated_Source\PSoC4/CapSense_CSHL.c ****         /* Wait while sensor is busy */
 225:.\Generated_Source\PSoC4/CapSense_CSHL.c ****     }
 226:.\Generated_Source\PSoC4/CapSense_CSHL.c ****     
 227:.\Generated_Source\PSoC4/CapSense_CSHL.c ****     /* Initialize Baseline, Signal and debounce counters */       
 228:.\Generated_Source\PSoC4/CapSense_CSHL.c ****     CapSense_BaseInit(sensor);
 110              		.loc 1 228 0
 111 0010 201C     		mov	r0, r4
ARM GAS  C:\Users\kevin\AppData\Local\Temp\ccCzthOk.s 			page 7


 112 0012 FFF7FEFF 		bl	CapSense_BaseInit
 113              	.LVL8:
 229:.\Generated_Source\PSoC4/CapSense_CSHL.c **** }
 114              		.loc 1 229 0
 115              		@ sp needed
 116              	.LVL9:
 117 0016 10BD     		pop	{r4, pc}
 118              		.cfi_endproc
 119              	.LFE34:
 120              		.size	CapSense_InitializeSensorBaseline, .-CapSense_InitializeSensorBaseline
 121              		.section	.text.CapSense_InitializeAllBaselines,"ax",%progbits
 122              		.align	1
 123              		.global	CapSense_InitializeAllBaselines
 124              		.code	16
 125              		.thumb_func
 126              		.type	CapSense_InitializeAllBaselines, %function
 127              	CapSense_InitializeAllBaselines:
 128              	.LFB35:
 230:.\Generated_Source\PSoC4/CapSense_CSHL.c **** 
 231:.\Generated_Source\PSoC4/CapSense_CSHL.c **** 
 232:.\Generated_Source\PSoC4/CapSense_CSHL.c **** /*******************************************************************************
 233:.\Generated_Source\PSoC4/CapSense_CSHL.c **** * Function Name: CapSense_InitializeAllBaselines
 234:.\Generated_Source\PSoC4/CapSense_CSHL.c **** ********************************************************************************
 235:.\Generated_Source\PSoC4/CapSense_CSHL.c **** *
 236:.\Generated_Source\PSoC4/CapSense_CSHL.c **** * Summary:
 237:.\Generated_Source\PSoC4/CapSense_CSHL.c **** *  Uses the CapSense_InitializeSensorBaseline function to load the 
 238:.\Generated_Source\PSoC4/CapSense_CSHL.c **** *  CapSense_sensorBaseline[] array with an initial values by scanning 
 239:.\Generated_Source\PSoC4/CapSense_CSHL.c **** *  all the sensors. The raw count values are copied into the baseline array for 
 240:.\Generated_Source\PSoC4/CapSense_CSHL.c **** *  all the sensors. The raw data filters are initialized if enabled.
 241:.\Generated_Source\PSoC4/CapSense_CSHL.c **** *
 242:.\Generated_Source\PSoC4/CapSense_CSHL.c **** * Parameters:
 243:.\Generated_Source\PSoC4/CapSense_CSHL.c **** *  None
 244:.\Generated_Source\PSoC4/CapSense_CSHL.c **** *
 245:.\Generated_Source\PSoC4/CapSense_CSHL.c **** * Return:
 246:.\Generated_Source\PSoC4/CapSense_CSHL.c **** *  None
 247:.\Generated_Source\PSoC4/CapSense_CSHL.c **** *
 248:.\Generated_Source\PSoC4/CapSense_CSHL.c **** * Global Variables:
 249:.\Generated_Source\PSoC4/CapSense_CSHL.c **** *  None
 250:.\Generated_Source\PSoC4/CapSense_CSHL.c **** *
 251:.\Generated_Source\PSoC4/CapSense_CSHL.c **** * Side Effects:
 252:.\Generated_Source\PSoC4/CapSense_CSHL.c **** *  None
 253:.\Generated_Source\PSoC4/CapSense_CSHL.c **** * 
 254:.\Generated_Source\PSoC4/CapSense_CSHL.c **** *******************************************************************************/
 255:.\Generated_Source\PSoC4/CapSense_CSHL.c **** void CapSense_InitializeAllBaselines(void)
 256:.\Generated_Source\PSoC4/CapSense_CSHL.c **** {
 129              		.loc 1 256 0
 130              		.cfi_startproc
 131              	.LVL10:
 132 0000 08B5     		push	{r3, lr}
 133              		.cfi_def_cfa_offset 8
 134              		.cfi_offset 3, -8
 135              		.cfi_offset 14, -4
 257:.\Generated_Source\PSoC4/CapSense_CSHL.c ****     uint32 i;
 258:.\Generated_Source\PSoC4/CapSense_CSHL.c ****     
 259:.\Generated_Source\PSoC4/CapSense_CSHL.c **** 	for(i = 0u; i < CapSense_TOTAL_SCANSLOT_COUNT; i++)
 260:.\Generated_Source\PSoC4/CapSense_CSHL.c **** 	{
 261:.\Generated_Source\PSoC4/CapSense_CSHL.c ****     	CapSense_InitializeSensorBaseline(i);
ARM GAS  C:\Users\kevin\AppData\Local\Temp\ccCzthOk.s 			page 8


 136              		.loc 1 261 0
 137 0002 0020     		mov	r0, #0
 138 0004 FFF7FEFF 		bl	CapSense_InitializeSensorBaseline
 139              	.LVL11:
 140 0008 0120     		mov	r0, #1
 141 000a FFF7FEFF 		bl	CapSense_InitializeSensorBaseline
 142              	.LVL12:
 143 000e 0220     		mov	r0, #2
 144 0010 FFF7FEFF 		bl	CapSense_InitializeSensorBaseline
 145              	.LVL13:
 262:.\Generated_Source\PSoC4/CapSense_CSHL.c **** 	}
 263:.\Generated_Source\PSoC4/CapSense_CSHL.c **** }
 146              		.loc 1 263 0
 147              		@ sp needed
 148 0014 08BD     		pop	{r3, pc}
 149              		.cfi_endproc
 150              	.LFE35:
 151              		.size	CapSense_InitializeAllBaselines, .-CapSense_InitializeAllBaselines
 152              		.section	.text.CapSense_InitializeEnabledBaselines,"ax",%progbits
 153              		.align	1
 154              		.global	CapSense_InitializeEnabledBaselines
 155              		.code	16
 156              		.thumb_func
 157              		.type	CapSense_InitializeEnabledBaselines, %function
 158              	CapSense_InitializeEnabledBaselines:
 159              	.LFB36:
 264:.\Generated_Source\PSoC4/CapSense_CSHL.c **** 
 265:.\Generated_Source\PSoC4/CapSense_CSHL.c **** 
 266:.\Generated_Source\PSoC4/CapSense_CSHL.c **** /*******************************************************************************
 267:.\Generated_Source\PSoC4/CapSense_CSHL.c **** * Function Name: CapSense_InitializeEnabledBaselines
 268:.\Generated_Source\PSoC4/CapSense_CSHL.c **** ********************************************************************************
 269:.\Generated_Source\PSoC4/CapSense_CSHL.c **** *
 270:.\Generated_Source\PSoC4/CapSense_CSHL.c **** * Summary:
 271:.\Generated_Source\PSoC4/CapSense_CSHL.c **** *  Scans all the enabled widgets and the raw count values are copied into the 
 272:.\Generated_Source\PSoC4/CapSense_CSHL.c **** *  baseline array for all the sensors enabled in the scanning process. The baselines 
 273:.\Generated_Source\PSoC4/CapSense_CSHL.c **** *  are initialized with zero values for sensors disabled from the scanning process. 
 274:.\Generated_Source\PSoC4/CapSense_CSHL.c **** *  The raw data filters are initialized if enabled.
 275:.\Generated_Source\PSoC4/CapSense_CSHL.c **** *
 276:.\Generated_Source\PSoC4/CapSense_CSHL.c **** * Parameters:
 277:.\Generated_Source\PSoC4/CapSense_CSHL.c **** *  None
 278:.\Generated_Source\PSoC4/CapSense_CSHL.c **** *
 279:.\Generated_Source\PSoC4/CapSense_CSHL.c **** * Return:
 280:.\Generated_Source\PSoC4/CapSense_CSHL.c **** *  None
 281:.\Generated_Source\PSoC4/CapSense_CSHL.c **** *
 282:.\Generated_Source\PSoC4/CapSense_CSHL.c **** * Global Variables:
 283:.\Generated_Source\PSoC4/CapSense_CSHL.c **** *  CapSense_sensorRaw[] - used to store the sensors raw data.
 284:.\Generated_Source\PSoC4/CapSense_CSHL.c **** *  CapSense_sensorEnableMask[ ] - used to store bit masks of the enabled sensors.
 285:.\Generated_Source\PSoC4/CapSense_CSHL.c **** *
 286:.\Generated_Source\PSoC4/CapSense_CSHL.c **** * Side Effects:
 287:.\Generated_Source\PSoC4/CapSense_CSHL.c **** *  None
 288:.\Generated_Source\PSoC4/CapSense_CSHL.c **** * 
 289:.\Generated_Source\PSoC4/CapSense_CSHL.c **** *******************************************************************************/
 290:.\Generated_Source\PSoC4/CapSense_CSHL.c **** void CapSense_InitializeEnabledBaselines(void)
 291:.\Generated_Source\PSoC4/CapSense_CSHL.c **** {
 160              		.loc 1 291 0
 161              		.cfi_startproc
 162 0000 10B5     		push	{r4, lr}
ARM GAS  C:\Users\kevin\AppData\Local\Temp\ccCzthOk.s 			page 9


 163              		.cfi_def_cfa_offset 8
 164              		.cfi_offset 4, -8
 165              		.cfi_offset 14, -4
 292:.\Generated_Source\PSoC4/CapSense_CSHL.c ****     uint32 i;
 293:.\Generated_Source\PSoC4/CapSense_CSHL.c ****     uint32 isSensorEnabled;
 294:.\Generated_Source\PSoC4/CapSense_CSHL.c ****     
 295:.\Generated_Source\PSoC4/CapSense_CSHL.c ****     CapSense_ScanEnabledWidgets();
 166              		.loc 1 295 0
 167 0002 FFF7FEFF 		bl	CapSense_ScanEnabledWidgets
 168              	.LVL14:
 169              	.L11:
 296:.\Generated_Source\PSoC4/CapSense_CSHL.c ****     while(CapSense_IsBusy() != 0u)
 170              		.loc 1 296 0 discriminator 1
 171 0006 FFF7FEFF 		bl	CapSense_IsBusy
 172              	.LVL15:
 173 000a 0028     		cmp	r0, #0
 174 000c FBD1     		bne	.L11
 175              		.loc 1 296 0 is_stmt 0
 176 000e 041C     		mov	r4, r0
 177              	.L14:
 178              	.LVL16:
 297:.\Generated_Source\PSoC4/CapSense_CSHL.c ****     {
 298:.\Generated_Source\PSoC4/CapSense_CSHL.c ****         /* Wait while sensor is busy */
 299:.\Generated_Source\PSoC4/CapSense_CSHL.c ****     }
 300:.\Generated_Source\PSoC4/CapSense_CSHL.c ****     
 301:.\Generated_Source\PSoC4/CapSense_CSHL.c ****     for(i = 0u; i < CapSense_TOTAL_SENSOR_COUNT; i++)
 302:.\Generated_Source\PSoC4/CapSense_CSHL.c ****     {
 303:.\Generated_Source\PSoC4/CapSense_CSHL.c ****         isSensorEnabled = CapSense_GetBitValue(CapSense_sensorEnableMask, i);
 179              		.loc 1 303 0 is_stmt 1
 180 0010 0648     		ldr	r0, .L18
 181 0012 211C     		mov	r1, r4
 182 0014 FFF7FEFF 		bl	CapSense_GetBitValue
 183              	.LVL17:
 304:.\Generated_Source\PSoC4/CapSense_CSHL.c ****         
 305:.\Generated_Source\PSoC4/CapSense_CSHL.c ****         /* Clear raw data if sensor is disabled from scanning process */
 306:.\Generated_Source\PSoC4/CapSense_CSHL.c ****         if(isSensorEnabled != 0u)
 184              		.loc 1 306 0
 185 0018 0028     		cmp	r0, #0
 186 001a 02D0     		beq	.L12
 307:.\Generated_Source\PSoC4/CapSense_CSHL.c ****         {
 308:.\Generated_Source\PSoC4/CapSense_CSHL.c ****             /* Initialize baselines */
 309:.\Generated_Source\PSoC4/CapSense_CSHL.c ****             CapSense_BaseInit(i);
 187              		.loc 1 309 0
 188 001c 201C     		mov	r0, r4
 189              	.LVL18:
 190 001e FFF7FEFF 		bl	CapSense_BaseInit
 191              	.LVL19:
 192              	.L12:
 301:.\Generated_Source\PSoC4/CapSense_CSHL.c ****     for(i = 0u; i < CapSense_TOTAL_SENSOR_COUNT; i++)
 193              		.loc 1 301 0
 194 0022 0134     		add	r4, r4, #1
 195              	.LVL20:
 196 0024 032C     		cmp	r4, #3
 197 0026 F3D1     		bne	.L14
 310:.\Generated_Source\PSoC4/CapSense_CSHL.c ****         }
 311:.\Generated_Source\PSoC4/CapSense_CSHL.c ****     }
 312:.\Generated_Source\PSoC4/CapSense_CSHL.c **** }  
ARM GAS  C:\Users\kevin\AppData\Local\Temp\ccCzthOk.s 			page 10


 198              		.loc 1 312 0
 199              		@ sp needed
 200              	.LVL21:
 201 0028 10BD     		pop	{r4, pc}
 202              	.L19:
 203 002a C046     		.align	2
 204              	.L18:
 205 002c 00000000 		.word	CapSense_sensorEnableMask
 206              		.cfi_endproc
 207              	.LFE36:
 208              		.size	CapSense_InitializeEnabledBaselines, .-CapSense_InitializeEnabledBaselines
 209              		.section	.text.CapSense_UpdateBaselineNoThreshold,"ax",%progbits
 210              		.align	1
 211              		.global	CapSense_UpdateBaselineNoThreshold
 212              		.code	16
 213              		.thumb_func
 214              		.type	CapSense_UpdateBaselineNoThreshold, %function
 215              	CapSense_UpdateBaselineNoThreshold:
 216              	.LFB37:
 313:.\Generated_Source\PSoC4/CapSense_CSHL.c **** 
 314:.\Generated_Source\PSoC4/CapSense_CSHL.c **** 
 315:.\Generated_Source\PSoC4/CapSense_CSHL.c **** /*******************************************************************************
 316:.\Generated_Source\PSoC4/CapSense_CSHL.c **** * Function Name: CapSense_UpdateBaselineNoThreshold
 317:.\Generated_Source\PSoC4/CapSense_CSHL.c **** ********************************************************************************
 318:.\Generated_Source\PSoC4/CapSense_CSHL.c **** *
 319:.\Generated_Source\PSoC4/CapSense_CSHL.c **** * Summary:
 320:.\Generated_Source\PSoC4/CapSense_CSHL.c **** *  Updates the CapSense_sensorBaseline[sensor] array element using the 
 321:.\Generated_Source\PSoC4/CapSense_CSHL.c **** *  LP filter with k = 256. The signal calculates the difference of count by 
 322:.\Generated_Source\PSoC4/CapSense_CSHL.c **** *  subtracting the previous baseline from the current raw count value and stores
 323:.\Generated_Source\PSoC4/CapSense_CSHL.c **** *  it in CapSense_sensorSignal[sensor]. 
 324:.\Generated_Source\PSoC4/CapSense_CSHL.c **** *  If the auto reset option is enabled, the baseline updated regards the noise threshold. 
 325:.\Generated_Source\PSoC4/CapSense_CSHL.c **** *  If the auto reset option is disabled, the baseline stops updating; baseline is loaded 
 326:.\Generated_Source\PSoC4/CapSense_CSHL.c **** *  with a raw count value if a signal is greater than zero and if signal is less 
 327:.\Generated_Source\PSoC4/CapSense_CSHL.c **** *  than noise threshold.
 328:.\Generated_Source\PSoC4/CapSense_CSHL.c **** *  Raw data filters are applied to the values if enabled before baseline 
 329:.\Generated_Source\PSoC4/CapSense_CSHL.c **** *  calculation.
 330:.\Generated_Source\PSoC4/CapSense_CSHL.c **** *
 331:.\Generated_Source\PSoC4/CapSense_CSHL.c **** *  This API does not update the thresholds in the Smartsense Mode.
 332:.\Generated_Source\PSoC4/CapSense_CSHL.c **** *
 333:.\Generated_Source\PSoC4/CapSense_CSHL.c **** * Parameters:
 334:.\Generated_Source\PSoC4/CapSense_CSHL.c **** *  sensor:  Sensor number.
 335:.\Generated_Source\PSoC4/CapSense_CSHL.c **** *
 336:.\Generated_Source\PSoC4/CapSense_CSHL.c **** * Return:
 337:.\Generated_Source\PSoC4/CapSense_CSHL.c **** *  None
 338:.\Generated_Source\PSoC4/CapSense_CSHL.c **** *
 339:.\Generated_Source\PSoC4/CapSense_CSHL.c **** * Global Variables:
 340:.\Generated_Source\PSoC4/CapSense_CSHL.c **** *  CapSense_widgetNumber[]  - stores widget numbers.
 341:.\Generated_Source\PSoC4/CapSense_CSHL.c **** *  CapSense_sensorBaseline[]    - used to store baseline value.
 342:.\Generated_Source\PSoC4/CapSense_CSHL.c **** *  CapSense_sensorBaselineLow[] - used to store fraction byte of 
 343:.\Generated_Source\PSoC4/CapSense_CSHL.c **** *  baseline value.
 344:.\Generated_Source\PSoC4/CapSense_CSHL.c **** *  CapSense_sensorSignal[]      - used to store difference between 
 345:.\Generated_Source\PSoC4/CapSense_CSHL.c **** *  current value of raw data and previous value of baseline.
 346:.\Generated_Source\PSoC4/CapSense_CSHL.c **** *  CapSense_rawFilterData1[]    - used to store previous sample of 
 347:.\Generated_Source\PSoC4/CapSense_CSHL.c **** *  any enabled raw data filter.
 348:.\Generated_Source\PSoC4/CapSense_CSHL.c **** *  CapSense_rawFilterData2[]    - used to store before previous sample
 349:.\Generated_Source\PSoC4/CapSense_CSHL.c **** *  of enabled raw data filter. Only required for median or average filters.
 350:.\Generated_Source\PSoC4/CapSense_CSHL.c **** * 
ARM GAS  C:\Users\kevin\AppData\Local\Temp\ccCzthOk.s 			page 11


 351:.\Generated_Source\PSoC4/CapSense_CSHL.c **** * Side Effects:
 352:.\Generated_Source\PSoC4/CapSense_CSHL.c **** *  None
 353:.\Generated_Source\PSoC4/CapSense_CSHL.c **** * 
 354:.\Generated_Source\PSoC4/CapSense_CSHL.c **** *******************************************************************************/
 355:.\Generated_Source\PSoC4/CapSense_CSHL.c **** void CapSense_UpdateBaselineNoThreshold(uint32 sensor)
 356:.\Generated_Source\PSoC4/CapSense_CSHL.c **** {
 217              		.loc 1 356 0
 218              		.cfi_startproc
 219              	.LVL22:
 357:.\Generated_Source\PSoC4/CapSense_CSHL.c ****     uint32 calc;
 358:.\Generated_Source\PSoC4/CapSense_CSHL.c **** 	uint32 sign;
 359:.\Generated_Source\PSoC4/CapSense_CSHL.c ****     uint16 tempRaw;
 360:.\Generated_Source\PSoC4/CapSense_CSHL.c ****     uint16 filteredRawData;
 361:.\Generated_Source\PSoC4/CapSense_CSHL.c ****     uint8 widget = CapSense_widgetNumber[sensor];
 220              		.loc 1 361 0
 221 0000 2D4B     		ldr	r3, .L40
 356:.\Generated_Source\PSoC4/CapSense_CSHL.c **** {
 222              		.loc 1 356 0
 223 0002 F7B5     		push	{r0, r1, r2, r4, r5, r6, r7, lr}
 224              		.cfi_def_cfa_offset 32
 225              		.cfi_offset 0, -32
 226              		.cfi_offset 1, -28
 227              		.cfi_offset 2, -24
 228              		.cfi_offset 4, -20
 229              		.cfi_offset 5, -16
 230              		.cfi_offset 6, -12
 231              		.cfi_offset 7, -8
 232              		.cfi_offset 14, -4
 362:.\Generated_Source\PSoC4/CapSense_CSHL.c ****     uint8 noiseThreshold = CapSense_noiseThreshold[widget];
 233              		.loc 1 362 0
 234 0004 2D4A     		ldr	r2, .L40+4
 235 0006 1B5C     		ldrb	r3, [r3, r0]
 236 0008 0332     		add	r2, r2, #3
 237 000a D35C     		ldrb	r3, [r2, r3]
 356:.\Generated_Source\PSoC4/CapSense_CSHL.c **** {
 238              		.loc 1 356 0
 239 000c 041C     		mov	r4, r0
 363:.\Generated_Source\PSoC4/CapSense_CSHL.c ****     
 364:.\Generated_Source\PSoC4/CapSense_CSHL.c ****     #if (CapSense_TOTAL_GENERICS_COUNT)
 365:.\Generated_Source\PSoC4/CapSense_CSHL.c ****         /* Exclude generic widget */
 366:.\Generated_Source\PSoC4/CapSense_CSHL.c ****         if(widget < CapSense_END_OF_WIDGETS_INDEX)
 367:.\Generated_Source\PSoC4/CapSense_CSHL.c ****         {
 368:.\Generated_Source\PSoC4/CapSense_CSHL.c ****     #endif  /* CapSense_TOTAL_GENERICS_COUNT */
 369:.\Generated_Source\PSoC4/CapSense_CSHL.c ****     
 370:.\Generated_Source\PSoC4/CapSense_CSHL.c ****     filteredRawData = CapSense_sensorRaw[sensor];
 240              		.loc 1 370 0
 241 000e 4200     		lsl	r2, r0, #1
 371:.\Generated_Source\PSoC4/CapSense_CSHL.c **** 
 372:.\Generated_Source\PSoC4/CapSense_CSHL.c **** 	#if (CapSense_RAW_FILTER_MASK != 0u)
 373:.\Generated_Source\PSoC4/CapSense_CSHL.c **** 	if(CapSense_enableRawFilters != 0u)
 242              		.loc 1 373 0
 243 0010 2B48     		ldr	r0, .L40+8
 244              	.LVL23:
 362:.\Generated_Source\PSoC4/CapSense_CSHL.c ****     uint8 noiseThreshold = CapSense_noiseThreshold[widget];
 245              		.loc 1 362 0
 246 0012 0193     		str	r3, [sp, #4]
 247              	.LVL24:
ARM GAS  C:\Users\kevin\AppData\Local\Temp\ccCzthOk.s 			page 12


 248              		.loc 1 373 0
 249 0014 0178     		ldrb	r1, [r0]
 370:.\Generated_Source\PSoC4/CapSense_CSHL.c ****     filteredRawData = CapSense_sensorRaw[sensor];
 250              		.loc 1 370 0
 251 0016 2B4B     		ldr	r3, .L40+12
 252 0018 D35A     		ldrh	r3, [r2, r3]
 253              	.LVL25:
 254              		.loc 1 373 0
 255 001a 0029     		cmp	r1, #0
 256 001c 06D0     		beq	.L21
 257              	.LVL26:
 374:.\Generated_Source\PSoC4/CapSense_CSHL.c **** 	{
 375:.\Generated_Source\PSoC4/CapSense_CSHL.c **** 		#if (CapSense_RAW_FILTER_MASK & CapSense_MEDIAN_FILTER)
 376:.\Generated_Source\PSoC4/CapSense_CSHL.c **** 			tempRaw = filteredRawData;
 377:.\Generated_Source\PSoC4/CapSense_CSHL.c **** 			filteredRawData = CapSense_MedianFilter(filteredRawData, CapSense_rawFilterData1[sensor], 
 378:.\Generated_Source\PSoC4/CapSense_CSHL.c **** 															CapSense_rawFilterData2[sensor]);
 379:.\Generated_Source\PSoC4/CapSense_CSHL.c **** 			CapSense_rawFilterData2[sensor] = CapSense_rawFilterData1[sensor];
 380:.\Generated_Source\PSoC4/CapSense_CSHL.c **** 			CapSense_rawFilterData1[sensor] = tempRaw;
 381:.\Generated_Source\PSoC4/CapSense_CSHL.c **** 			
 382:.\Generated_Source\PSoC4/CapSense_CSHL.c **** 		#elif (CapSense_RAW_FILTER_MASK & CapSense_AVERAGING_FILTER)
 383:.\Generated_Source\PSoC4/CapSense_CSHL.c **** 			tempRaw = filteredRawData;
 384:.\Generated_Source\PSoC4/CapSense_CSHL.c **** 			filteredRawData = CapSense_AveragingFilter(filteredRawData, CapSense_rawFilterData1[sensor],
 385:.\Generated_Source\PSoC4/CapSense_CSHL.c **** 															   CapSense_rawFilterData2[sensor]);
 386:.\Generated_Source\PSoC4/CapSense_CSHL.c **** 			CapSense_rawFilterData2[sensor] = CapSense_rawFilterData1[sensor];
 387:.\Generated_Source\PSoC4/CapSense_CSHL.c **** 			CapSense_rawFilterData1[sensor] = tempRaw;
 388:.\Generated_Source\PSoC4/CapSense_CSHL.c **** 			
 389:.\Generated_Source\PSoC4/CapSense_CSHL.c **** 		#elif (CapSense_RAW_FILTER_MASK & CapSense_IIR2_FILTER)
 390:.\Generated_Source\PSoC4/CapSense_CSHL.c **** 			filteredRawData = CapSense_IIR2Filter(filteredRawData, CapSense_rawFilterData1[sensor]);
 391:.\Generated_Source\PSoC4/CapSense_CSHL.c **** 			CapSense_rawFilterData1[sensor] = filteredRawData;
 392:.\Generated_Source\PSoC4/CapSense_CSHL.c **** 			
 393:.\Generated_Source\PSoC4/CapSense_CSHL.c **** 		#elif (CapSense_RAW_FILTER_MASK & CapSense_IIR4_FILTER)
 394:.\Generated_Source\PSoC4/CapSense_CSHL.c **** 			filteredRawData = CapSense_IIR4Filter(filteredRawData, CapSense_rawFilterData1[sensor]);
 258              		.loc 1 394 0
 259 001e 2A49     		ldr	r1, .L40+16
 260              	.LBB8:
 261              	.LBB9:
 395:.\Generated_Source\PSoC4/CapSense_CSHL.c **** 			CapSense_rawFilterData1[sensor] = filteredRawData;
 396:.\Generated_Source\PSoC4/CapSense_CSHL.c **** 				
 397:.\Generated_Source\PSoC4/CapSense_CSHL.c **** 		#elif (CapSense_RAW_FILTER_MASK & CapSense_JITTER_FILTER)
 398:.\Generated_Source\PSoC4/CapSense_CSHL.c **** 			filteredRawData = CapSense_JitterFilter(filteredRawData, CapSense_rawFilterData1[sensor]);
 399:.\Generated_Source\PSoC4/CapSense_CSHL.c **** 			CapSense_rawFilterData1[sensor] = filteredRawData;
 400:.\Generated_Source\PSoC4/CapSense_CSHL.c **** 			
 401:.\Generated_Source\PSoC4/CapSense_CSHL.c **** 		#elif (CapSense_RAW_FILTER_MASK & CapSense_IIR8_FILTER)
 402:.\Generated_Source\PSoC4/CapSense_CSHL.c **** 			filteredRawData = CapSense_IIR8Filter(filteredRawData, CapSense_rawFilterData1[sensor]);
 403:.\Generated_Source\PSoC4/CapSense_CSHL.c **** 			CapSense_rawFilterData1[sensor] = filteredRawData;
 404:.\Generated_Source\PSoC4/CapSense_CSHL.c **** 			
 405:.\Generated_Source\PSoC4/CapSense_CSHL.c **** 		#elif (CapSense_RAW_FILTER_MASK & CapSense_IIR16_FILTER)
 406:.\Generated_Source\PSoC4/CapSense_CSHL.c **** 			filteredRawData = CapSense_IIR16Filter(filteredRawData, CapSense_rawFilterData1[sensor]);
 407:.\Generated_Source\PSoC4/CapSense_CSHL.c **** 			CapSense_rawFilterData1[sensor] = filteredRawData;
 408:.\Generated_Source\PSoC4/CapSense_CSHL.c **** 			
 409:.\Generated_Source\PSoC4/CapSense_CSHL.c **** 		#else
 410:.\Generated_Source\PSoC4/CapSense_CSHL.c **** 			/* No Raw filters */
 411:.\Generated_Source\PSoC4/CapSense_CSHL.c **** 		#endif  /* (CapSense_RAW_FILTER_MASK & CapSense_MEDIAN_FILTER) */
 412:.\Generated_Source\PSoC4/CapSense_CSHL.c **** 	}
 413:.\Generated_Source\PSoC4/CapSense_CSHL.c **** 	#endif  /* (CapSense_RAW_FILTER_MASK != 0u) */
 414:.\Generated_Source\PSoC4/CapSense_CSHL.c **** 	
 415:.\Generated_Source\PSoC4/CapSense_CSHL.c **** 	#if (CapSense_TUNING_METHOD == CapSense__TUNING_AUTO)
ARM GAS  C:\Users\kevin\AppData\Local\Temp\ccCzthOk.s 			page 13


 416:.\Generated_Source\PSoC4/CapSense_CSHL.c **** 	    MeasureNoiseEnvelope_P4_v2_10(&CapSense_config, (uint8)sensor, CapSense_sensorRaw);
 417:.\Generated_Source\PSoC4/CapSense_CSHL.c **** 	#endif /* (CapSense_TUNING_METHOD == CapSense__TUNING_AUTO) */
 418:.\Generated_Source\PSoC4/CapSense_CSHL.c **** 
 419:.\Generated_Source\PSoC4/CapSense_CSHL.c ****     /* Baseline calculation */
 420:.\Generated_Source\PSoC4/CapSense_CSHL.c ****     /* Calculate difference RawData[cur] - Baseline[prev] */
 421:.\Generated_Source\PSoC4/CapSense_CSHL.c ****     if(filteredRawData >= CapSense_sensorBaseline[sensor])
 422:.\Generated_Source\PSoC4/CapSense_CSHL.c ****     {
 423:.\Generated_Source\PSoC4/CapSense_CSHL.c **** 		CapSense_lowBaselineResetCnt[sensor] = 0u;	
 424:.\Generated_Source\PSoC4/CapSense_CSHL.c ****         tempRaw = filteredRawData - CapSense_sensorBaseline[sensor];
 425:.\Generated_Source\PSoC4/CapSense_CSHL.c ****         sign = 1u;    /* Positive difference - Calculate the Signal */
 426:.\Generated_Source\PSoC4/CapSense_CSHL.c ****     }
 427:.\Generated_Source\PSoC4/CapSense_CSHL.c ****     else
 428:.\Generated_Source\PSoC4/CapSense_CSHL.c ****     {
 429:.\Generated_Source\PSoC4/CapSense_CSHL.c ****         tempRaw = CapSense_sensorBaseline[sensor] - filteredRawData;
 430:.\Generated_Source\PSoC4/CapSense_CSHL.c ****         sign = 0u;    /* Negative difference - Do NOT calculate the Signal */
 431:.\Generated_Source\PSoC4/CapSense_CSHL.c ****     }
 432:.\Generated_Source\PSoC4/CapSense_CSHL.c **** 
 433:.\Generated_Source\PSoC4/CapSense_CSHL.c **** 	#if (CapSense_TUNING_METHOD != CapSense__TUNING_NONE)
 434:.\Generated_Source\PSoC4/CapSense_CSHL.c **** 	if((sign == 0u) && (tempRaw > (uint16) CapSense_negativeNoiseThreshold[widget]))
 435:.\Generated_Source\PSoC4/CapSense_CSHL.c **** 	#else
 436:.\Generated_Source\PSoC4/CapSense_CSHL.c **** 	if((sign == 0u) && (tempRaw > (uint16) CapSense_NEGATIVE_NOISE_THRESHOLD))
 437:.\Generated_Source\PSoC4/CapSense_CSHL.c **** 	#endif /* (CapSense_TUNING_METHOD != CapSense__TUNING_NONE) */ 
 438:.\Generated_Source\PSoC4/CapSense_CSHL.c ****     {
 439:.\Generated_Source\PSoC4/CapSense_CSHL.c ****         if(CapSense_lowBaselineResetCnt[sensor] >= CapSense_lowBaselineReset[sensor])
 440:.\Generated_Source\PSoC4/CapSense_CSHL.c ****         {
 441:.\Generated_Source\PSoC4/CapSense_CSHL.c ****             CapSense_BaseInit(sensor);
 442:.\Generated_Source\PSoC4/CapSense_CSHL.c ****             CapSense_lowBaselineResetCnt[sensor] = 0u;
 443:.\Generated_Source\PSoC4/CapSense_CSHL.c ****         }
 444:.\Generated_Source\PSoC4/CapSense_CSHL.c ****         else
 445:.\Generated_Source\PSoC4/CapSense_CSHL.c ****         {
 446:.\Generated_Source\PSoC4/CapSense_CSHL.c ****             CapSense_lowBaselineResetCnt[sensor]++;
 447:.\Generated_Source\PSoC4/CapSense_CSHL.c ****         }
 448:.\Generated_Source\PSoC4/CapSense_CSHL.c ****     }
 449:.\Generated_Source\PSoC4/CapSense_CSHL.c ****     else
 450:.\Generated_Source\PSoC4/CapSense_CSHL.c ****     {
 451:.\Generated_Source\PSoC4/CapSense_CSHL.c ****         #if (CapSense_AUTO_RESET == CapSense_AUTO_RESET_DISABLE)
 452:.\Generated_Source\PSoC4/CapSense_CSHL.c **** 		#if (CapSense_TUNING_METHOD != CapSense__TUNING_NONE)			
 453:.\Generated_Source\PSoC4/CapSense_CSHL.c **** 			/* Update Baseline if lower than noiseThreshold */
 454:.\Generated_Source\PSoC4/CapSense_CSHL.c **** 			if ( (tempRaw <= noiseThreshold) || 
 455:.\Generated_Source\PSoC4/CapSense_CSHL.c **** 			 ((tempRaw < (uint16) CapSense_negativeNoiseThreshold[widget])
 456:.\Generated_Source\PSoC4/CapSense_CSHL.c **** 			   && (sign == 0u)))
 457:.\Generated_Source\PSoC4/CapSense_CSHL.c **** 			{
 458:.\Generated_Source\PSoC4/CapSense_CSHL.c **** 		#else
 459:.\Generated_Source\PSoC4/CapSense_CSHL.c **** 			/* Update Baseline if lower than noiseThreshold */
 460:.\Generated_Source\PSoC4/CapSense_CSHL.c **** 			if ( (tempRaw <= noiseThreshold) || 
 461:.\Generated_Source\PSoC4/CapSense_CSHL.c **** 				 ((tempRaw < (uint16) CapSense_NEGATIVE_NOISE_THRESHOLD)
 462:.\Generated_Source\PSoC4/CapSense_CSHL.c **** 				   && (sign == 0u)))
 463:.\Generated_Source\PSoC4/CapSense_CSHL.c **** 			{
 464:.\Generated_Source\PSoC4/CapSense_CSHL.c **** 		#endif /* (CapSense_TUNING_METHOD != CapSense__TUNING_NONE) */ 
 465:.\Generated_Source\PSoC4/CapSense_CSHL.c ****         #endif /* (CapSense_AUTO_RESET == CapSense_AUTO_RESET_DISABLE) */
 466:.\Generated_Source\PSoC4/CapSense_CSHL.c ****                 /* Make full Baseline 23 bits */
 467:.\Generated_Source\PSoC4/CapSense_CSHL.c ****                 calc = (uint32) CapSense_sensorBaseline[sensor] << 8u;
 468:.\Generated_Source\PSoC4/CapSense_CSHL.c ****                 calc |= (uint32) CapSense_sensorBaselineLow[sensor];
 469:.\Generated_Source\PSoC4/CapSense_CSHL.c **** 
 470:.\Generated_Source\PSoC4/CapSense_CSHL.c ****                 /* Add Raw Data to Baseline */
 471:.\Generated_Source\PSoC4/CapSense_CSHL.c ****                 calc += filteredRawData;
 472:.\Generated_Source\PSoC4/CapSense_CSHL.c **** 
ARM GAS  C:\Users\kevin\AppData\Local\Temp\ccCzthOk.s 			page 14


 473:.\Generated_Source\PSoC4/CapSense_CSHL.c ****                 /* Sub the high Baseline */
 474:.\Generated_Source\PSoC4/CapSense_CSHL.c ****                 calc -= CapSense_sensorBaseline[sensor];
 475:.\Generated_Source\PSoC4/CapSense_CSHL.c **** 
 476:.\Generated_Source\PSoC4/CapSense_CSHL.c ****                 /* Put Baseline and BaselineLow */
 477:.\Generated_Source\PSoC4/CapSense_CSHL.c ****                 CapSense_sensorBaseline[sensor] = ((uint16) (calc >> 8u));
 478:.\Generated_Source\PSoC4/CapSense_CSHL.c ****                 CapSense_sensorBaselineLow[sensor] = ((uint8) calc);
 479:.\Generated_Source\PSoC4/CapSense_CSHL.c **** 
 480:.\Generated_Source\PSoC4/CapSense_CSHL.c ****                 CapSense_lowBaselineResetCnt[sensor] = 0u;
 481:.\Generated_Source\PSoC4/CapSense_CSHL.c ****         #if (CapSense_AUTO_RESET == CapSense_AUTO_RESET_DISABLE)
 482:.\Generated_Source\PSoC4/CapSense_CSHL.c ****             }
 483:.\Generated_Source\PSoC4/CapSense_CSHL.c ****         #endif /* (CapSense_AUTO_RESET == CapSense_AUTO_RESET_DISABLE) */
 484:.\Generated_Source\PSoC4/CapSense_CSHL.c ****     }
 485:.\Generated_Source\PSoC4/CapSense_CSHL.c **** 
 486:.\Generated_Source\PSoC4/CapSense_CSHL.c ****     /* Calculate Signal if positive difference > noiseThreshold */
 487:.\Generated_Source\PSoC4/CapSense_CSHL.c ****     if((tempRaw > (uint16) noiseThreshold) && (sign != 0u))
 488:.\Generated_Source\PSoC4/CapSense_CSHL.c ****     {
 489:.\Generated_Source\PSoC4/CapSense_CSHL.c ****         #if (CapSense_SIGNAL_SIZE == CapSense_SIGNAL_SIZE_UINT8)
 490:.\Generated_Source\PSoC4/CapSense_CSHL.c ****             /* Over flow defence for uint8 */
 491:.\Generated_Source\PSoC4/CapSense_CSHL.c ****             if (tempRaw > 0xFFu)
 492:.\Generated_Source\PSoC4/CapSense_CSHL.c ****             {
 493:.\Generated_Source\PSoC4/CapSense_CSHL.c ****                 CapSense_sensorSignal[sensor] = 0xFFu;
 494:.\Generated_Source\PSoC4/CapSense_CSHL.c ****             }    
 495:.\Generated_Source\PSoC4/CapSense_CSHL.c ****             else 
 496:.\Generated_Source\PSoC4/CapSense_CSHL.c ****             {
 497:.\Generated_Source\PSoC4/CapSense_CSHL.c ****                 CapSense_sensorSignal[sensor] = ((uint8) tempRaw);
 498:.\Generated_Source\PSoC4/CapSense_CSHL.c ****             }
 499:.\Generated_Source\PSoC4/CapSense_CSHL.c ****         #else
 500:.\Generated_Source\PSoC4/CapSense_CSHL.c ****             CapSense_sensorSignal[sensor] = ((uint16) tempRaw);
 501:.\Generated_Source\PSoC4/CapSense_CSHL.c ****         #endif  /* (CapSense_SIGNAL_SIZE == CapSense_SIGNAL_SIZE_UINT8) */
 502:.\Generated_Source\PSoC4/CapSense_CSHL.c ****     }
 503:.\Generated_Source\PSoC4/CapSense_CSHL.c ****     else
 504:.\Generated_Source\PSoC4/CapSense_CSHL.c ****     {
 505:.\Generated_Source\PSoC4/CapSense_CSHL.c ****         /* Signal is zero */
 506:.\Generated_Source\PSoC4/CapSense_CSHL.c ****         CapSense_sensorSignal[sensor] = 0u;
 507:.\Generated_Source\PSoC4/CapSense_CSHL.c ****     }
 508:.\Generated_Source\PSoC4/CapSense_CSHL.c **** 
 509:.\Generated_Source\PSoC4/CapSense_CSHL.c ****     #if (CapSense_TOTAL_GENERICS_COUNT)
 510:.\Generated_Source\PSoC4/CapSense_CSHL.c ****         /* Exclude generic widget */
 511:.\Generated_Source\PSoC4/CapSense_CSHL.c ****         }
 512:.\Generated_Source\PSoC4/CapSense_CSHL.c ****     #endif  /* CapSense_TOTAL_GENERICS_COUNT */
 513:.\Generated_Source\PSoC4/CapSense_CSHL.c **** }
 514:.\Generated_Source\PSoC4/CapSense_CSHL.c **** 
 515:.\Generated_Source\PSoC4/CapSense_CSHL.c **** 
 516:.\Generated_Source\PSoC4/CapSense_CSHL.c **** /*******************************************************************************
 517:.\Generated_Source\PSoC4/CapSense_CSHL.c **** * Function Name: CapSense_UpdateSensorBaseline
 518:.\Generated_Source\PSoC4/CapSense_CSHL.c **** ********************************************************************************
 519:.\Generated_Source\PSoC4/CapSense_CSHL.c **** *
 520:.\Generated_Source\PSoC4/CapSense_CSHL.c **** * Summary:
 521:.\Generated_Source\PSoC4/CapSense_CSHL.c **** *  Updates the CapSense_sensorBaseline[sensor] array element using the 
 522:.\Generated_Source\PSoC4/CapSense_CSHL.c **** *  LP filter with k = 256. The signal calculates the difference of count by 
 523:.\Generated_Source\PSoC4/CapSense_CSHL.c **** *  subtracting the previous baseline from the current raw count value and stores
 524:.\Generated_Source\PSoC4/CapSense_CSHL.c **** *  it in CapSense_sensorSignal[sensor]. 
 525:.\Generated_Source\PSoC4/CapSense_CSHL.c **** *  If the auto reset option is enabled, the baseline updated regards the noise threshold. 
 526:.\Generated_Source\PSoC4/CapSense_CSHL.c **** *  If the auto reset option is disabled, the baseline stops updating. 
 527:.\Generated_Source\PSoC4/CapSense_CSHL.c **** *  Baseline is loaded with raw count value if a signal is greater than zero and  
 528:.\Generated_Source\PSoC4/CapSense_CSHL.c **** *  if signal is less than noise threshold.
 529:.\Generated_Source\PSoC4/CapSense_CSHL.c **** *  Raw data filters are applied to the values if enabled before baseline 
ARM GAS  C:\Users\kevin\AppData\Local\Temp\ccCzthOk.s 			page 15


 530:.\Generated_Source\PSoC4/CapSense_CSHL.c **** *  calculation.
 531:.\Generated_Source\PSoC4/CapSense_CSHL.c **** *  This API updates the thresholds in the Smartsense Mode.
 532:.\Generated_Source\PSoC4/CapSense_CSHL.c **** *
 533:.\Generated_Source\PSoC4/CapSense_CSHL.c **** * Parameters:
 534:.\Generated_Source\PSoC4/CapSense_CSHL.c **** *  sensor:  Sensor number.
 535:.\Generated_Source\PSoC4/CapSense_CSHL.c **** *
 536:.\Generated_Source\PSoC4/CapSense_CSHL.c **** * Return:
 537:.\Generated_Source\PSoC4/CapSense_CSHL.c **** *  None
 538:.\Generated_Source\PSoC4/CapSense_CSHL.c **** *
 539:.\Generated_Source\PSoC4/CapSense_CSHL.c **** * Global Variables:
 540:.\Generated_Source\PSoC4/CapSense_CSHL.c **** *  CapSense_widgetNumber[]  - stores widget numbers.
 541:.\Generated_Source\PSoC4/CapSense_CSHL.c **** * 
 542:.\Generated_Source\PSoC4/CapSense_CSHL.c **** * Side Effects:
 543:.\Generated_Source\PSoC4/CapSense_CSHL.c **** *  None
 544:.\Generated_Source\PSoC4/CapSense_CSHL.c **** * 
 545:.\Generated_Source\PSoC4/CapSense_CSHL.c **** *******************************************************************************/
 546:.\Generated_Source\PSoC4/CapSense_CSHL.c ****  void CapSense_UpdateSensorBaseline(uint32 sensor)
 547:.\Generated_Source\PSoC4/CapSense_CSHL.c **** {
 548:.\Generated_Source\PSoC4/CapSense_CSHL.c ****     #if (CapSense_TOTAL_GENERICS_COUNT)
 549:.\Generated_Source\PSoC4/CapSense_CSHL.c **** 		uint32 widget;
 550:.\Generated_Source\PSoC4/CapSense_CSHL.c **** 		
 551:.\Generated_Source\PSoC4/CapSense_CSHL.c **** 		widget = CapSense_widgetNumber[sensor];
 552:.\Generated_Source\PSoC4/CapSense_CSHL.c **** 	
 553:.\Generated_Source\PSoC4/CapSense_CSHL.c ****         /* Exclude generic widget */
 554:.\Generated_Source\PSoC4/CapSense_CSHL.c ****         if(widget < CapSense_END_OF_WIDGETS_INDEX)
 555:.\Generated_Source\PSoC4/CapSense_CSHL.c ****         {
 556:.\Generated_Source\PSoC4/CapSense_CSHL.c ****     #endif  /* CapSense_TOTAL_GENERICS_COUNT */
 557:.\Generated_Source\PSoC4/CapSense_CSHL.c **** 
 558:.\Generated_Source\PSoC4/CapSense_CSHL.c ****     #if (CapSense_TUNING_METHOD == CapSense__TUNING_AUTO)
 559:.\Generated_Source\PSoC4/CapSense_CSHL.c ****     	CapSense_UpdateThresholds(sensor);
 560:.\Generated_Source\PSoC4/CapSense_CSHL.c ****     #endif /* (CapSense_TUNING_METHOD == CapSense__TUNING_AUTO) */
 561:.\Generated_Source\PSoC4/CapSense_CSHL.c **** 
 562:.\Generated_Source\PSoC4/CapSense_CSHL.c ****     CapSense_UpdateBaselineNoThreshold(sensor);
 563:.\Generated_Source\PSoC4/CapSense_CSHL.c ****     
 564:.\Generated_Source\PSoC4/CapSense_CSHL.c ****     #if (CapSense_TOTAL_GENERICS_COUNT)
 565:.\Generated_Source\PSoC4/CapSense_CSHL.c ****         /* Exclude generic widget */
 566:.\Generated_Source\PSoC4/CapSense_CSHL.c ****         }
 567:.\Generated_Source\PSoC4/CapSense_CSHL.c ****     #endif  /* CapSense_TOTAL_GENERICS_COUNT */
 568:.\Generated_Source\PSoC4/CapSense_CSHL.c **** }
 569:.\Generated_Source\PSoC4/CapSense_CSHL.c **** 
 570:.\Generated_Source\PSoC4/CapSense_CSHL.c **** 
 571:.\Generated_Source\PSoC4/CapSense_CSHL.c **** /*******************************************************************************
 572:.\Generated_Source\PSoC4/CapSense_CSHL.c **** * Function Name: CapSense_UpdateEnabledBaselines
 573:.\Generated_Source\PSoC4/CapSense_CSHL.c **** ********************************************************************************
 574:.\Generated_Source\PSoC4/CapSense_CSHL.c **** *
 575:.\Generated_Source\PSoC4/CapSense_CSHL.c **** * Summary:
 576:.\Generated_Source\PSoC4/CapSense_CSHL.c **** *  Checks CapSense_sensorEnableMask[] array and calls the 
 577:.\Generated_Source\PSoC4/CapSense_CSHL.c **** *  CapSense_UpdateSensorBaseline function to update the baselines 
 578:.\Generated_Source\PSoC4/CapSense_CSHL.c **** *  for the enabled sensors.
 579:.\Generated_Source\PSoC4/CapSense_CSHL.c **** *
 580:.\Generated_Source\PSoC4/CapSense_CSHL.c **** * Parameters:
 581:.\Generated_Source\PSoC4/CapSense_CSHL.c **** *  None
 582:.\Generated_Source\PSoC4/CapSense_CSHL.c **** *
 583:.\Generated_Source\PSoC4/CapSense_CSHL.c **** * Return:
 584:.\Generated_Source\PSoC4/CapSense_CSHL.c **** *  None
 585:.\Generated_Source\PSoC4/CapSense_CSHL.c **** *
 586:.\Generated_Source\PSoC4/CapSense_CSHL.c **** * Global Variables:
ARM GAS  C:\Users\kevin\AppData\Local\Temp\ccCzthOk.s 			page 16


 587:.\Generated_Source\PSoC4/CapSense_CSHL.c **** *  CapSense_sensorEnableMask[] - used to store the sensor scanning 
 588:.\Generated_Source\PSoC4/CapSense_CSHL.c **** *  state.
 589:.\Generated_Source\PSoC4/CapSense_CSHL.c **** *  CapSense_sensorEnableMask[0] contains the masked bits for sensors 
 590:.\Generated_Source\PSoC4/CapSense_CSHL.c **** *   0 through 7 (sensor 0 is bit 0, sensor 1 is bit 1).
 591:.\Generated_Source\PSoC4/CapSense_CSHL.c **** *  CapSense_sensorEnableMask[1] contains the masked bits for 
 592:.\Generated_Source\PSoC4/CapSense_CSHL.c **** *  sensors 8 through 15 (if needed), and so on.
 593:.\Generated_Source\PSoC4/CapSense_CSHL.c **** *  0 - sensor doesn't scan by CapSense_ScanEnabledWidgets().
 594:.\Generated_Source\PSoC4/CapSense_CSHL.c **** *  1 - sensor scans by CapSense_ScanEnabledWidgets().
 595:.\Generated_Source\PSoC4/CapSense_CSHL.c **** * 
 596:.\Generated_Source\PSoC4/CapSense_CSHL.c **** * Side Effects:
 597:.\Generated_Source\PSoC4/CapSense_CSHL.c **** *  None
 598:.\Generated_Source\PSoC4/CapSense_CSHL.c **** * 
 599:.\Generated_Source\PSoC4/CapSense_CSHL.c **** *******************************************************************************/
 600:.\Generated_Source\PSoC4/CapSense_CSHL.c ****  void CapSense_UpdateEnabledBaselines(void)
 601:.\Generated_Source\PSoC4/CapSense_CSHL.c **** {
 602:.\Generated_Source\PSoC4/CapSense_CSHL.c ****     uint32 i;
 603:.\Generated_Source\PSoC4/CapSense_CSHL.c ****     uint32 isSensorEnabled;
 604:.\Generated_Source\PSoC4/CapSense_CSHL.c ****     
 605:.\Generated_Source\PSoC4/CapSense_CSHL.c ****     for(i = 0u; i < CapSense_TOTAL_SENSOR_COUNT; i++)
 606:.\Generated_Source\PSoC4/CapSense_CSHL.c ****     {
 607:.\Generated_Source\PSoC4/CapSense_CSHL.c ****         isSensorEnabled = CapSense_GetBitValue(CapSense_sensorEnableMask, i);
 608:.\Generated_Source\PSoC4/CapSense_CSHL.c ****         
 609:.\Generated_Source\PSoC4/CapSense_CSHL.c ****         if(0u != isSensorEnabled)
 610:.\Generated_Source\PSoC4/CapSense_CSHL.c ****         {
 611:.\Generated_Source\PSoC4/CapSense_CSHL.c ****             CapSense_UpdateSensorBaseline(i);
 612:.\Generated_Source\PSoC4/CapSense_CSHL.c ****         }
 613:.\Generated_Source\PSoC4/CapSense_CSHL.c ****     }
 614:.\Generated_Source\PSoC4/CapSense_CSHL.c **** }
 615:.\Generated_Source\PSoC4/CapSense_CSHL.c **** 
 616:.\Generated_Source\PSoC4/CapSense_CSHL.c **** /*******************************************************************************
 617:.\Generated_Source\PSoC4/CapSense_CSHL.c **** * Function Name: CapSense_UpdateWidgetBaseline
 618:.\Generated_Source\PSoC4/CapSense_CSHL.c **** ********************************************************************************
 619:.\Generated_Source\PSoC4/CapSense_CSHL.c **** *
 620:.\Generated_Source\PSoC4/CapSense_CSHL.c **** * Summary:
 621:.\Generated_Source\PSoC4/CapSense_CSHL.c **** *  Checks CapSense_sensorEnableMask[] array and calls the 
 622:.\Generated_Source\PSoC4/CapSense_CSHL.c **** *  CapSense_UpdateSensorBaseline function to update the baselines 
 623:.\Generated_Source\PSoC4/CapSense_CSHL.c **** *  for the enabled sensors that belong to widget.
 624:.\Generated_Source\PSoC4/CapSense_CSHL.c **** *
 625:.\Generated_Source\PSoC4/CapSense_CSHL.c **** * Parameters:
 626:.\Generated_Source\PSoC4/CapSense_CSHL.c **** *  widget:  Widget number.
 627:.\Generated_Source\PSoC4/CapSense_CSHL.c **** *
 628:.\Generated_Source\PSoC4/CapSense_CSHL.c **** * Return:
 629:.\Generated_Source\PSoC4/CapSense_CSHL.c **** *  None
 630:.\Generated_Source\PSoC4/CapSense_CSHL.c **** *
 631:.\Generated_Source\PSoC4/CapSense_CSHL.c **** * Global Variables:
 632:.\Generated_Source\PSoC4/CapSense_CSHL.c **** *  CapSense_sensorEnableMask[] - used to store the sensor scanning 
 633:.\Generated_Source\PSoC4/CapSense_CSHL.c **** *  state.
 634:.\Generated_Source\PSoC4/CapSense_CSHL.c **** *  CapSense_sensorEnableMask[0] contains the masked bits for sensors 
 635:.\Generated_Source\PSoC4/CapSense_CSHL.c **** *   0 through 7 (sensor 0 is bit 0, sensor 1 is bit 1).
 636:.\Generated_Source\PSoC4/CapSense_CSHL.c **** *  CapSense_sensorEnableMask[1] contains the masked bits for 
 637:.\Generated_Source\PSoC4/CapSense_CSHL.c **** *  sensors 8 through 15 (if needed), and so on.
 638:.\Generated_Source\PSoC4/CapSense_CSHL.c **** *  0 - sensor doesn't scan by CapSense_ScanEnabledWidgets().
 639:.\Generated_Source\PSoC4/CapSense_CSHL.c **** *  1 - sensor scans by CapSense_ScanEnabledWidgets().
 640:.\Generated_Source\PSoC4/CapSense_CSHL.c **** * 
 641:.\Generated_Source\PSoC4/CapSense_CSHL.c **** * Side Effects:
 642:.\Generated_Source\PSoC4/CapSense_CSHL.c **** *  None
 643:.\Generated_Source\PSoC4/CapSense_CSHL.c **** * 
ARM GAS  C:\Users\kevin\AppData\Local\Temp\ccCzthOk.s 			page 17


 644:.\Generated_Source\PSoC4/CapSense_CSHL.c **** *******************************************************************************/
 645:.\Generated_Source\PSoC4/CapSense_CSHL.c **** void CapSense_UpdateWidgetBaseline(uint32 widget)
 646:.\Generated_Source\PSoC4/CapSense_CSHL.c **** {
 647:.\Generated_Source\PSoC4/CapSense_CSHL.c ****     uint32 sensorsPerWidget;
 648:.\Generated_Source\PSoC4/CapSense_CSHL.c ****     uint32 firstSensor;
 649:.\Generated_Source\PSoC4/CapSense_CSHL.c ****     uint32 lastSensor;
 650:.\Generated_Source\PSoC4/CapSense_CSHL.c ****     uint32 i;
 651:.\Generated_Source\PSoC4/CapSense_CSHL.c ****     uint32 isSensorEnabled;
 652:.\Generated_Source\PSoC4/CapSense_CSHL.c ****     
 653:.\Generated_Source\PSoC4/CapSense_CSHL.c **** 	/* Get number of sensors in widget */
 654:.\Generated_Source\PSoC4/CapSense_CSHL.c **** 	sensorsPerWidget = CapSense_numberOfSensors[widget];
 655:.\Generated_Source\PSoC4/CapSense_CSHL.c **** 
 656:.\Generated_Source\PSoC4/CapSense_CSHL.c **** 	/* Get first sensor in widget */
 657:.\Generated_Source\PSoC4/CapSense_CSHL.c **** 	firstSensor = CapSense_rawDataIndex[widget];
 658:.\Generated_Source\PSoC4/CapSense_CSHL.c **** 	
 659:.\Generated_Source\PSoC4/CapSense_CSHL.c **** 	/* Get last sensor in widget */
 660:.\Generated_Source\PSoC4/CapSense_CSHL.c **** 	lastSensor = (CapSense_rawDataIndex[widget] + sensorsPerWidget);
 661:.\Generated_Source\PSoC4/CapSense_CSHL.c **** 	
 662:.\Generated_Source\PSoC4/CapSense_CSHL.c ****     for(i = firstSensor; i < lastSensor; i++)
 663:.\Generated_Source\PSoC4/CapSense_CSHL.c ****     {
 664:.\Generated_Source\PSoC4/CapSense_CSHL.c ****         isSensorEnabled = CapSense_GetBitValue(CapSense_sensorEnableMask, i);
 665:.\Generated_Source\PSoC4/CapSense_CSHL.c ****         
 666:.\Generated_Source\PSoC4/CapSense_CSHL.c ****         if(0u != isSensorEnabled)
 667:.\Generated_Source\PSoC4/CapSense_CSHL.c ****         {
 668:.\Generated_Source\PSoC4/CapSense_CSHL.c ****             CapSense_UpdateSensorBaseline(i);
 669:.\Generated_Source\PSoC4/CapSense_CSHL.c ****         }
 670:.\Generated_Source\PSoC4/CapSense_CSHL.c ****     }
 671:.\Generated_Source\PSoC4/CapSense_CSHL.c **** }
 672:.\Generated_Source\PSoC4/CapSense_CSHL.c **** 
 673:.\Generated_Source\PSoC4/CapSense_CSHL.c **** 
 674:.\Generated_Source\PSoC4/CapSense_CSHL.c **** /*******************************************************************************
 675:.\Generated_Source\PSoC4/CapSense_CSHL.c **** * Function Name: CapSense_GetBaselineData
 676:.\Generated_Source\PSoC4/CapSense_CSHL.c **** ********************************************************************************
 677:.\Generated_Source\PSoC4/CapSense_CSHL.c **** *
 678:.\Generated_Source\PSoC4/CapSense_CSHL.c **** * Summary:
 679:.\Generated_Source\PSoC4/CapSense_CSHL.c **** *  This function reads the sensor baseline from the component.
 680:.\Generated_Source\PSoC4/CapSense_CSHL.c **** *
 681:.\Generated_Source\PSoC4/CapSense_CSHL.c **** * Parameters:
 682:.\Generated_Source\PSoC4/CapSense_CSHL.c **** *  sensor:  Sensor number.
 683:.\Generated_Source\PSoC4/CapSense_CSHL.c **** *
 684:.\Generated_Source\PSoC4/CapSense_CSHL.c **** * Return:
 685:.\Generated_Source\PSoC4/CapSense_CSHL.c **** *  This API returns the baseline value of the sensor indicated by an argument.
 686:.\Generated_Source\PSoC4/CapSense_CSHL.c **** *
 687:.\Generated_Source\PSoC4/CapSense_CSHL.c **** * Global Variables:
 688:.\Generated_Source\PSoC4/CapSense_CSHL.c **** *  CapSense_sensorBaseline[] - the array with an initial values by scanning
 689:.\Generated_Source\PSoC4/CapSense_CSHL.c **** * 
 690:.\Generated_Source\PSoC4/CapSense_CSHL.c **** * Side Effects:
 691:.\Generated_Source\PSoC4/CapSense_CSHL.c **** *  None
 692:.\Generated_Source\PSoC4/CapSense_CSHL.c **** *
 693:.\Generated_Source\PSoC4/CapSense_CSHL.c **** *******************************************************************************/
 694:.\Generated_Source\PSoC4/CapSense_CSHL.c **** uint16 CapSense_GetBaselineData(uint32 sensor)
 695:.\Generated_Source\PSoC4/CapSense_CSHL.c **** {
 696:.\Generated_Source\PSoC4/CapSense_CSHL.c **** 	return (CapSense_sensorBaseline[sensor]);
 697:.\Generated_Source\PSoC4/CapSense_CSHL.c **** }
 698:.\Generated_Source\PSoC4/CapSense_CSHL.c **** 
 699:.\Generated_Source\PSoC4/CapSense_CSHL.c **** 
 700:.\Generated_Source\PSoC4/CapSense_CSHL.c **** /*******************************************************************************
ARM GAS  C:\Users\kevin\AppData\Local\Temp\ccCzthOk.s 			page 18


 701:.\Generated_Source\PSoC4/CapSense_CSHL.c **** * Function Name: CapSense_SetBaselineData
 702:.\Generated_Source\PSoC4/CapSense_CSHL.c **** ********************************************************************************
 703:.\Generated_Source\PSoC4/CapSense_CSHL.c **** *
 704:.\Generated_Source\PSoC4/CapSense_CSHL.c **** * Summary:
 705:.\Generated_Source\PSoC4/CapSense_CSHL.c **** *  This API writes the data value passed as an argument to the sensor baseline array.
 706:.\Generated_Source\PSoC4/CapSense_CSHL.c **** *
 707:.\Generated_Source\PSoC4/CapSense_CSHL.c **** * Parameters:
 708:.\Generated_Source\PSoC4/CapSense_CSHL.c **** *  sensor:  Sensor number.
 709:.\Generated_Source\PSoC4/CapSense_CSHL.c **** *  data:    Sensor baseline.
 710:.\Generated_Source\PSoC4/CapSense_CSHL.c **** *
 711:.\Generated_Source\PSoC4/CapSense_CSHL.c **** * Return:
 712:.\Generated_Source\PSoC4/CapSense_CSHL.c **** *  None.
 713:.\Generated_Source\PSoC4/CapSense_CSHL.c **** *
 714:.\Generated_Source\PSoC4/CapSense_CSHL.c **** * Global Variables:
 715:.\Generated_Source\PSoC4/CapSense_CSHL.c **** *  CapSense_sensorBaseline[] - the array with initial values by scanning
 716:.\Generated_Source\PSoC4/CapSense_CSHL.c **** * 
 717:.\Generated_Source\PSoC4/CapSense_CSHL.c **** * Side Effects:
 718:.\Generated_Source\PSoC4/CapSense_CSHL.c **** *  None
 719:.\Generated_Source\PSoC4/CapSense_CSHL.c **** *
 720:.\Generated_Source\PSoC4/CapSense_CSHL.c **** *******************************************************************************/
 721:.\Generated_Source\PSoC4/CapSense_CSHL.c **** void CapSense_SetBaselineData(uint32 sensor, uint16 data)
 722:.\Generated_Source\PSoC4/CapSense_CSHL.c **** {
 723:.\Generated_Source\PSoC4/CapSense_CSHL.c **** 	CapSense_sensorBaseline[sensor] = data;
 724:.\Generated_Source\PSoC4/CapSense_CSHL.c **** }
 725:.\Generated_Source\PSoC4/CapSense_CSHL.c **** 
 726:.\Generated_Source\PSoC4/CapSense_CSHL.c **** 
 727:.\Generated_Source\PSoC4/CapSense_CSHL.c **** /*******************************************************************************
 728:.\Generated_Source\PSoC4/CapSense_CSHL.c **** * Function Name: CapSense_GetDiffCountData
 729:.\Generated_Source\PSoC4/CapSense_CSHL.c **** ********************************************************************************
 730:.\Generated_Source\PSoC4/CapSense_CSHL.c **** *
 731:.\Generated_Source\PSoC4/CapSense_CSHL.c **** * Summary:
 732:.\Generated_Source\PSoC4/CapSense_CSHL.c **** *  This function returns the Sensor Signal from the component.
 733:.\Generated_Source\PSoC4/CapSense_CSHL.c **** *
 734:.\Generated_Source\PSoC4/CapSense_CSHL.c **** * Parameters:
 735:.\Generated_Source\PSoC4/CapSense_CSHL.c **** *  sensor:  Sensor number.
 736:.\Generated_Source\PSoC4/CapSense_CSHL.c **** *
 737:.\Generated_Source\PSoC4/CapSense_CSHL.c **** * Return:
 738:.\Generated_Source\PSoC4/CapSense_CSHL.c **** *  This API returns the difference count value of the sensor indicated by the 
 739:.\Generated_Source\PSoC4/CapSense_CSHL.c **** *  argument. 
 740:.\Generated_Source\PSoC4/CapSense_CSHL.c **** *
 741:.\Generated_Source\PSoC4/CapSense_CSHL.c **** * Global Variables:
 742:.\Generated_Source\PSoC4/CapSense_CSHL.c **** *  CapSense_sensorSignal[] - the array with difference counts for sensors
 743:.\Generated_Source\PSoC4/CapSense_CSHL.c **** * 
 744:.\Generated_Source\PSoC4/CapSense_CSHL.c **** * Side Effects:
 745:.\Generated_Source\PSoC4/CapSense_CSHL.c **** *  None
 746:.\Generated_Source\PSoC4/CapSense_CSHL.c **** *
 747:.\Generated_Source\PSoC4/CapSense_CSHL.c **** *******************************************************************************/
 748:.\Generated_Source\PSoC4/CapSense_CSHL.c **** uint8 CapSense_GetDiffCountData(uint32 sensor)
 749:.\Generated_Source\PSoC4/CapSense_CSHL.c **** {
 750:.\Generated_Source\PSoC4/CapSense_CSHL.c **** 	return (CapSense_sensorSignal[sensor]);
 751:.\Generated_Source\PSoC4/CapSense_CSHL.c **** }
 752:.\Generated_Source\PSoC4/CapSense_CSHL.c **** 
 753:.\Generated_Source\PSoC4/CapSense_CSHL.c **** 
 754:.\Generated_Source\PSoC4/CapSense_CSHL.c **** /*******************************************************************************
 755:.\Generated_Source\PSoC4/CapSense_CSHL.c **** * Function Name: CapSense_SetDiffCountData
 756:.\Generated_Source\PSoC4/CapSense_CSHL.c **** ********************************************************************************
 757:.\Generated_Source\PSoC4/CapSense_CSHL.c **** *
ARM GAS  C:\Users\kevin\AppData\Local\Temp\ccCzthOk.s 			page 19


 758:.\Generated_Source\PSoC4/CapSense_CSHL.c **** * Summary:
 759:.\Generated_Source\PSoC4/CapSense_CSHL.c **** *  This API writes the data value passed as an argument to the sensor signal array.
 760:.\Generated_Source\PSoC4/CapSense_CSHL.c **** *
 761:.\Generated_Source\PSoC4/CapSense_CSHL.c **** * Parameters:
 762:.\Generated_Source\PSoC4/CapSense_CSHL.c **** *  sensor:  Sensor number.
 763:.\Generated_Source\PSoC4/CapSense_CSHL.c **** *  value:   Sensor signal.
 764:.\Generated_Source\PSoC4/CapSense_CSHL.c **** *
 765:.\Generated_Source\PSoC4/CapSense_CSHL.c **** * Return:
 766:.\Generated_Source\PSoC4/CapSense_CSHL.c **** *  None. 
 767:.\Generated_Source\PSoC4/CapSense_CSHL.c **** *
 768:.\Generated_Source\PSoC4/CapSense_CSHL.c **** * Global Variables:
 769:.\Generated_Source\PSoC4/CapSense_CSHL.c **** *  CapSense_sensorSignal[] - the array with difference counts for sensors
 770:.\Generated_Source\PSoC4/CapSense_CSHL.c **** * 
 771:.\Generated_Source\PSoC4/CapSense_CSHL.c **** * Side Effects:
 772:.\Generated_Source\PSoC4/CapSense_CSHL.c **** *  None
 773:.\Generated_Source\PSoC4/CapSense_CSHL.c **** *
 774:.\Generated_Source\PSoC4/CapSense_CSHL.c **** *******************************************************************************/
 775:.\Generated_Source\PSoC4/CapSense_CSHL.c **** void CapSense_SetDiffCountData(uint32 sensor, uint8 value)
 776:.\Generated_Source\PSoC4/CapSense_CSHL.c **** {
 777:.\Generated_Source\PSoC4/CapSense_CSHL.c ****     CapSense_sensorSignal[sensor] = value;
 778:.\Generated_Source\PSoC4/CapSense_CSHL.c **** }
 779:.\Generated_Source\PSoC4/CapSense_CSHL.c **** 
 780:.\Generated_Source\PSoC4/CapSense_CSHL.c **** 
 781:.\Generated_Source\PSoC4/CapSense_CSHL.c **** /*******************************************************************************
 782:.\Generated_Source\PSoC4/CapSense_CSHL.c **** * Function Name: CapSense_GetFingerThreshold
 783:.\Generated_Source\PSoC4/CapSense_CSHL.c **** ********************************************************************************
 784:.\Generated_Source\PSoC4/CapSense_CSHL.c **** *
 785:.\Generated_Source\PSoC4/CapSense_CSHL.c **** * Summary:
 786:.\Generated_Source\PSoC4/CapSense_CSHL.c **** *  This function reads the finger threshold from the component.
 787:.\Generated_Source\PSoC4/CapSense_CSHL.c **** *
 788:.\Generated_Source\PSoC4/CapSense_CSHL.c **** * Parameters:
 789:.\Generated_Source\PSoC4/CapSense_CSHL.c **** *  widget:  widget number.
 790:.\Generated_Source\PSoC4/CapSense_CSHL.c **** *
 791:.\Generated_Source\PSoC4/CapSense_CSHL.c **** * Return:
 792:.\Generated_Source\PSoC4/CapSense_CSHL.c **** *  This API returns the finger threshold of the widget indicated by the argument. 
 793:.\Generated_Source\PSoC4/CapSense_CSHL.c **** *
 794:.\Generated_Source\PSoC4/CapSense_CSHL.c **** * Global Variables:
 795:.\Generated_Source\PSoC4/CapSense_CSHL.c **** *  CapSense_fingerThreshold[] - This array contains the level of signal 
 796:.\Generated_Source\PSoC4/CapSense_CSHL.c **** *  for each widget that is determined if a finger is present on the widget.
 797:.\Generated_Source\PSoC4/CapSense_CSHL.c **** *
 798:.\Generated_Source\PSoC4/CapSense_CSHL.c **** * Side Effects:
 799:.\Generated_Source\PSoC4/CapSense_CSHL.c **** *  None
 800:.\Generated_Source\PSoC4/CapSense_CSHL.c **** *
 801:.\Generated_Source\PSoC4/CapSense_CSHL.c **** *******************************************************************************/
 802:.\Generated_Source\PSoC4/CapSense_CSHL.c **** uint8 CapSense_GetFingerThreshold(uint32 widget)
 803:.\Generated_Source\PSoC4/CapSense_CSHL.c **** {
 804:.\Generated_Source\PSoC4/CapSense_CSHL.c **** 	return(CapSense_fingerThreshold[widget]);
 805:.\Generated_Source\PSoC4/CapSense_CSHL.c **** }
 806:.\Generated_Source\PSoC4/CapSense_CSHL.c **** 
 807:.\Generated_Source\PSoC4/CapSense_CSHL.c **** 
 808:.\Generated_Source\PSoC4/CapSense_CSHL.c **** /*******************************************************************************
 809:.\Generated_Source\PSoC4/CapSense_CSHL.c **** * Function Name: CapSense_GetNoiseThreshold
 810:.\Generated_Source\PSoC4/CapSense_CSHL.c **** ********************************************************************************
 811:.\Generated_Source\PSoC4/CapSense_CSHL.c **** *
 812:.\Generated_Source\PSoC4/CapSense_CSHL.c **** * Summary:
 813:.\Generated_Source\PSoC4/CapSense_CSHL.c **** *  This function reads the noise threshold from the component.
 814:.\Generated_Source\PSoC4/CapSense_CSHL.c **** *
ARM GAS  C:\Users\kevin\AppData\Local\Temp\ccCzthOk.s 			page 20


 815:.\Generated_Source\PSoC4/CapSense_CSHL.c **** * Parameters:
 816:.\Generated_Source\PSoC4/CapSense_CSHL.c **** *  widget:  widget number.
 817:.\Generated_Source\PSoC4/CapSense_CSHL.c **** *
 818:.\Generated_Source\PSoC4/CapSense_CSHL.c **** * Return:
 819:.\Generated_Source\PSoC4/CapSense_CSHL.c **** *  This API returns the noise threshold of the widget indicated by the argument. 
 820:.\Generated_Source\PSoC4/CapSense_CSHL.c **** *
 821:.\Generated_Source\PSoC4/CapSense_CSHL.c **** * Global Variables:
 822:.\Generated_Source\PSoC4/CapSense_CSHL.c **** *  CapSense_noiseThreshold[] - This array contains the level of signal 
 823:.\Generated_Source\PSoC4/CapSense_CSHL.c **** *  for each widget that determines the level of noise in the capacitive scan.
 824:.\Generated_Source\PSoC4/CapSense_CSHL.c **** * 
 825:.\Generated_Source\PSoC4/CapSense_CSHL.c **** * Side Effects:
 826:.\Generated_Source\PSoC4/CapSense_CSHL.c **** *  None
 827:.\Generated_Source\PSoC4/CapSense_CSHL.c **** *
 828:.\Generated_Source\PSoC4/CapSense_CSHL.c **** *******************************************************************************/
 829:.\Generated_Source\PSoC4/CapSense_CSHL.c **** uint8 CapSense_GetNoiseThreshold(uint32 widget)
 830:.\Generated_Source\PSoC4/CapSense_CSHL.c **** {
 831:.\Generated_Source\PSoC4/CapSense_CSHL.c **** 	return (CapSense_noiseThreshold[widget]);
 832:.\Generated_Source\PSoC4/CapSense_CSHL.c **** }
 833:.\Generated_Source\PSoC4/CapSense_CSHL.c **** 
 834:.\Generated_Source\PSoC4/CapSense_CSHL.c **** 
 835:.\Generated_Source\PSoC4/CapSense_CSHL.c **** /*******************************************************************************
 836:.\Generated_Source\PSoC4/CapSense_CSHL.c **** * Function Name: CapSense_GetFingerHysteresis
 837:.\Generated_Source\PSoC4/CapSense_CSHL.c **** ********************************************************************************
 838:.\Generated_Source\PSoC4/CapSense_CSHL.c **** *
 839:.\Generated_Source\PSoC4/CapSense_CSHL.c **** * Summary:
 840:.\Generated_Source\PSoC4/CapSense_CSHL.c **** *  This function reads the Hysteresis value from the component.
 841:.\Generated_Source\PSoC4/CapSense_CSHL.c **** *
 842:.\Generated_Source\PSoC4/CapSense_CSHL.c **** * Parameters:
 843:.\Generated_Source\PSoC4/CapSense_CSHL.c **** *  widget:  widget number.
 844:.\Generated_Source\PSoC4/CapSense_CSHL.c **** *
 845:.\Generated_Source\PSoC4/CapSense_CSHL.c **** * Return:
 846:.\Generated_Source\PSoC4/CapSense_CSHL.c **** *  This API returns the Hysteresis of the widget indicated by the argument. 
 847:.\Generated_Source\PSoC4/CapSense_CSHL.c **** *
 848:.\Generated_Source\PSoC4/CapSense_CSHL.c **** * Global Variables:
 849:.\Generated_Source\PSoC4/CapSense_CSHL.c **** *  CapSense_hysteresis[] - This array contains the hysteresis value 
 850:.\Generated_Source\PSoC4/CapSense_CSHL.c **** *   for each widget.
 851:.\Generated_Source\PSoC4/CapSense_CSHL.c **** *  CapSense_widgetNumberSld - structure with dynamic sliders' parameters.
 852:.\Generated_Source\PSoC4/CapSense_CSHL.c **** *
 853:.\Generated_Source\PSoC4/CapSense_CSHL.c **** * Side Effects:
 854:.\Generated_Source\PSoC4/CapSense_CSHL.c **** *  None
 855:.\Generated_Source\PSoC4/CapSense_CSHL.c **** *
 856:.\Generated_Source\PSoC4/CapSense_CSHL.c **** *******************************************************************************/
 857:.\Generated_Source\PSoC4/CapSense_CSHL.c **** uint8 CapSense_GetFingerHysteresis(uint32 widget)
 858:.\Generated_Source\PSoC4/CapSense_CSHL.c **** {
 859:.\Generated_Source\PSoC4/CapSense_CSHL.c **** 	return(CapSense_hysteresis[widget]);
 860:.\Generated_Source\PSoC4/CapSense_CSHL.c **** }
 861:.\Generated_Source\PSoC4/CapSense_CSHL.c **** 
 862:.\Generated_Source\PSoC4/CapSense_CSHL.c **** 
 863:.\Generated_Source\PSoC4/CapSense_CSHL.c **** /*******************************************************************************
 864:.\Generated_Source\PSoC4/CapSense_CSHL.c **** * Function Name: CapSense_GetNegativeNoiseThreshold
 865:.\Generated_Source\PSoC4/CapSense_CSHL.c **** ********************************************************************************
 866:.\Generated_Source\PSoC4/CapSense_CSHL.c **** *
 867:.\Generated_Source\PSoC4/CapSense_CSHL.c **** * Summary:
 868:.\Generated_Source\PSoC4/CapSense_CSHL.c **** *  This function reads the negative noise threshold from the component.
 869:.\Generated_Source\PSoC4/CapSense_CSHL.c **** *
 870:.\Generated_Source\PSoC4/CapSense_CSHL.c **** * Parameters: 
 871:.\Generated_Source\PSoC4/CapSense_CSHL.c **** *  None.
ARM GAS  C:\Users\kevin\AppData\Local\Temp\ccCzthOk.s 			page 21


 872:.\Generated_Source\PSoC4/CapSense_CSHL.c **** *
 873:.\Generated_Source\PSoC4/CapSense_CSHL.c **** * Return Value: 
 874:.\Generated_Source\PSoC4/CapSense_CSHL.c **** *  This API returns the negative noise threshold
 875:.\Generated_Source\PSoC4/CapSense_CSHL.c **** *
 876:.\Generated_Source\PSoC4/CapSense_CSHL.c **** * Global Variables:
 877:.\Generated_Source\PSoC4/CapSense_CSHL.c **** *  CapSense_negativeNoiseThreshold - This variable specifies the negative 
 878:.\Generated_Source\PSoC4/CapSense_CSHL.c **** *   difference between the raw count and baseline levels for Baseline resetting
 879:.\Generated_Source\PSoC4/CapSense_CSHL.c **** *   to the raw count level.
 880:.\Generated_Source\PSoC4/CapSense_CSHL.c **** * 
 881:.\Generated_Source\PSoC4/CapSense_CSHL.c **** * Side Effects:
 882:.\Generated_Source\PSoC4/CapSense_CSHL.c **** *  None
 883:.\Generated_Source\PSoC4/CapSense_CSHL.c **** *
 884:.\Generated_Source\PSoC4/CapSense_CSHL.c **** *******************************************************************************/
 885:.\Generated_Source\PSoC4/CapSense_CSHL.c **** uint8 CapSense_GetNegativeNoiseThreshold(uint32 widget)
 886:.\Generated_Source\PSoC4/CapSense_CSHL.c **** {
 887:.\Generated_Source\PSoC4/CapSense_CSHL.c **** #if (CapSense_TUNING_METHOD != CapSense__TUNING_NONE)
 888:.\Generated_Source\PSoC4/CapSense_CSHL.c **** 	return(CapSense_negativeNoiseThreshold[widget]);
 889:.\Generated_Source\PSoC4/CapSense_CSHL.c **** #else
 890:.\Generated_Source\PSoC4/CapSense_CSHL.c **** 	return(CapSense_NEGATIVE_NOISE_THRESHOLD);
 891:.\Generated_Source\PSoC4/CapSense_CSHL.c **** #endif /* (CapSense_TUNING_METHOD != CapSense__TUNING_NONE) */ 
 892:.\Generated_Source\PSoC4/CapSense_CSHL.c **** }
 893:.\Generated_Source\PSoC4/CapSense_CSHL.c **** 
 894:.\Generated_Source\PSoC4/CapSense_CSHL.c **** 
 895:.\Generated_Source\PSoC4/CapSense_CSHL.c **** #if(CapSense_TUNING_METHOD != CapSense__TUNING_NONE)
 896:.\Generated_Source\PSoC4/CapSense_CSHL.c **** 	/*******************************************************************************
 897:.\Generated_Source\PSoC4/CapSense_CSHL.c **** 	* Function Name: CapSense_SetFingerThreshold
 898:.\Generated_Source\PSoC4/CapSense_CSHL.c **** 	********************************************************************************
 899:.\Generated_Source\PSoC4/CapSense_CSHL.c **** 	*
 900:.\Generated_Source\PSoC4/CapSense_CSHL.c **** 	* Summary:
 901:.\Generated_Source\PSoC4/CapSense_CSHL.c **** 	*  This API sets the finger threshold value for a widget. 
 902:.\Generated_Source\PSoC4/CapSense_CSHL.c **** 	*
 903:.\Generated_Source\PSoC4/CapSense_CSHL.c **** 	* Parameters: 
 904:.\Generated_Source\PSoC4/CapSense_CSHL.c **** 	*  sensorNumber:  widget index. 
 905:.\Generated_Source\PSoC4/CapSense_CSHL.c **** 	*  value:  Finger threshold value for the widget.
 906:.\Generated_Source\PSoC4/CapSense_CSHL.c **** 	*
 907:.\Generated_Source\PSoC4/CapSense_CSHL.c **** 	* Return Value: 
 908:.\Generated_Source\PSoC4/CapSense_CSHL.c **** 	*  None
 909:.\Generated_Source\PSoC4/CapSense_CSHL.c **** 	*
 910:.\Generated_Source\PSoC4/CapSense_CSHL.c **** 	* Global Variables:
 911:.\Generated_Source\PSoC4/CapSense_CSHL.c **** 	*  CapSense_fingerThreshold[] - This array contains the level of signal 
 912:.\Generated_Source\PSoC4/CapSense_CSHL.c **** 	*   for each widget that determines if a finger is present on the widget.
 913:.\Generated_Source\PSoC4/CapSense_CSHL.c **** 	* 
 914:.\Generated_Source\PSoC4/CapSense_CSHL.c **** 	* Side Effects:
 915:.\Generated_Source\PSoC4/CapSense_CSHL.c **** 	*  None
 916:.\Generated_Source\PSoC4/CapSense_CSHL.c **** 	*
 917:.\Generated_Source\PSoC4/CapSense_CSHL.c **** 	*******************************************************************************/
 918:.\Generated_Source\PSoC4/CapSense_CSHL.c **** 	void CapSense_SetFingerThreshold(uint32 widget, uint8 value)
 919:.\Generated_Source\PSoC4/CapSense_CSHL.c **** 	{	
 920:.\Generated_Source\PSoC4/CapSense_CSHL.c **** 		CapSense_fingerThreshold[widget] = value;
 921:.\Generated_Source\PSoC4/CapSense_CSHL.c **** 	}
 922:.\Generated_Source\PSoC4/CapSense_CSHL.c **** 
 923:.\Generated_Source\PSoC4/CapSense_CSHL.c **** 
 924:.\Generated_Source\PSoC4/CapSense_CSHL.c **** 	/*******************************************************************************
 925:.\Generated_Source\PSoC4/CapSense_CSHL.c **** 	* Function Name: CapSense_SetNoiseThreshold
 926:.\Generated_Source\PSoC4/CapSense_CSHL.c **** 	********************************************************************************
 927:.\Generated_Source\PSoC4/CapSense_CSHL.c **** 	*
 928:.\Generated_Source\PSoC4/CapSense_CSHL.c **** 	* Summary:
ARM GAS  C:\Users\kevin\AppData\Local\Temp\ccCzthOk.s 			page 22


 929:.\Generated_Source\PSoC4/CapSense_CSHL.c **** 	*  This API sets the Noise Threshold value for each widget.
 930:.\Generated_Source\PSoC4/CapSense_CSHL.c **** 	*
 931:.\Generated_Source\PSoC4/CapSense_CSHL.c **** 	* Parameters:
 932:.\Generated_Source\PSoC4/CapSense_CSHL.c **** 	*  widget:  Sensor index number.
 933:.\Generated_Source\PSoC4/CapSense_CSHL.c **** 	*  value:   Noise Threshold value for widget.
 934:.\Generated_Source\PSoC4/CapSense_CSHL.c **** 	*
 935:.\Generated_Source\PSoC4/CapSense_CSHL.c **** 	* Return Value: 
 936:.\Generated_Source\PSoC4/CapSense_CSHL.c **** 	*  None
 937:.\Generated_Source\PSoC4/CapSense_CSHL.c **** 	*
 938:.\Generated_Source\PSoC4/CapSense_CSHL.c **** 	* Global Variables:
 939:.\Generated_Source\PSoC4/CapSense_CSHL.c **** 	*  CapSense_noiseThreshold[] - This array contains the level of signal 
 940:.\Generated_Source\PSoC4/CapSense_CSHL.c **** 	*   for each widget that determines the level of noise in the capacitive scan.
 941:.\Generated_Source\PSoC4/CapSense_CSHL.c **** 	* 
 942:.\Generated_Source\PSoC4/CapSense_CSHL.c **** 	* Side Effects:
 943:.\Generated_Source\PSoC4/CapSense_CSHL.c **** 	*  None
 944:.\Generated_Source\PSoC4/CapSense_CSHL.c **** 	*
 945:.\Generated_Source\PSoC4/CapSense_CSHL.c **** 	*******************************************************************************/
 946:.\Generated_Source\PSoC4/CapSense_CSHL.c **** 	void CapSense_SetNoiseThreshold(uint32 widget, uint8 value)
 947:.\Generated_Source\PSoC4/CapSense_CSHL.c **** 	{
 948:.\Generated_Source\PSoC4/CapSense_CSHL.c **** 		CapSense_noiseThreshold[widget] = value;
 949:.\Generated_Source\PSoC4/CapSense_CSHL.c **** 	}
 950:.\Generated_Source\PSoC4/CapSense_CSHL.c **** 
 951:.\Generated_Source\PSoC4/CapSense_CSHL.c **** 
 952:.\Generated_Source\PSoC4/CapSense_CSHL.c **** 	/*******************************************************************************
 953:.\Generated_Source\PSoC4/CapSense_CSHL.c **** 	* Function Name: CapSense_SetFingerHysteresis
 954:.\Generated_Source\PSoC4/CapSense_CSHL.c **** 	********************************************************************************
 955:.\Generated_Source\PSoC4/CapSense_CSHL.c **** 	*
 956:.\Generated_Source\PSoC4/CapSense_CSHL.c **** 	* Summary:
 957:.\Generated_Source\PSoC4/CapSense_CSHL.c **** 	*  This API sets the Hysteresis value of a widget
 958:.\Generated_Source\PSoC4/CapSense_CSHL.c **** 	*
 959:.\Generated_Source\PSoC4/CapSense_CSHL.c **** 	* Parameters: 
 960:.\Generated_Source\PSoC4/CapSense_CSHL.c **** 	*  value:  Hysteresis value for widgets.
 961:.\Generated_Source\PSoC4/CapSense_CSHL.c **** 	*  widget:  widget number
 962:.\Generated_Source\PSoC4/CapSense_CSHL.c **** 	*
 963:.\Generated_Source\PSoC4/CapSense_CSHL.c **** 	* Return Value: 
 964:.\Generated_Source\PSoC4/CapSense_CSHL.c **** 	*  None
 965:.\Generated_Source\PSoC4/CapSense_CSHL.c **** 	*
 966:.\Generated_Source\PSoC4/CapSense_CSHL.c **** 	* Global Variables:
 967:.\Generated_Source\PSoC4/CapSense_CSHL.c **** 	*  CapSense_hysteresis[] - This array contains the hysteresis value for each widget.
 968:.\Generated_Source\PSoC4/CapSense_CSHL.c **** 	*  CapSense_widgetNumberSld - structure with dynamic sliders' parameters.
 969:.\Generated_Source\PSoC4/CapSense_CSHL.c **** 	*
 970:.\Generated_Source\PSoC4/CapSense_CSHL.c **** 	* Side Effects:
 971:.\Generated_Source\PSoC4/CapSense_CSHL.c **** 	*  None
 972:.\Generated_Source\PSoC4/CapSense_CSHL.c **** 	*
 973:.\Generated_Source\PSoC4/CapSense_CSHL.c **** 	*******************************************************************************/
 974:.\Generated_Source\PSoC4/CapSense_CSHL.c **** 	void CapSense_SetFingerHysteresis(uint32 widget, uint8 value)
 975:.\Generated_Source\PSoC4/CapSense_CSHL.c **** 	{
 976:.\Generated_Source\PSoC4/CapSense_CSHL.c **** 		CapSense_hysteresis[widget] = value;
 977:.\Generated_Source\PSoC4/CapSense_CSHL.c **** 	}
 978:.\Generated_Source\PSoC4/CapSense_CSHL.c **** 
 979:.\Generated_Source\PSoC4/CapSense_CSHL.c **** 
 980:.\Generated_Source\PSoC4/CapSense_CSHL.c **** 	/*******************************************************************************
 981:.\Generated_Source\PSoC4/CapSense_CSHL.c **** 	* Function Name: CapSense_SetNegativeNoiseThreshold
 982:.\Generated_Source\PSoC4/CapSense_CSHL.c **** 	********************************************************************************
 983:.\Generated_Source\PSoC4/CapSense_CSHL.c **** 	*
 984:.\Generated_Source\PSoC4/CapSense_CSHL.c **** 	* Summary:
 985:.\Generated_Source\PSoC4/CapSense_CSHL.c **** 	*  This API sets the Negative Noise Threshold value of a widget
ARM GAS  C:\Users\kevin\AppData\Local\Temp\ccCzthOk.s 			page 23


 986:.\Generated_Source\PSoC4/CapSense_CSHL.c **** 	*
 987:.\Generated_Source\PSoC4/CapSense_CSHL.c **** 	* Parameters: 
 988:.\Generated_Source\PSoC4/CapSense_CSHL.c **** 	*  value:  Negative Noise Threshold value for widgets.
 989:.\Generated_Source\PSoC4/CapSense_CSHL.c **** 	*  widget: widget number
 990:.\Generated_Source\PSoC4/CapSense_CSHL.c **** 	*
 991:.\Generated_Source\PSoC4/CapSense_CSHL.c **** 	* Return Value: 
 992:.\Generated_Source\PSoC4/CapSense_CSHL.c **** 	*  None
 993:.\Generated_Source\PSoC4/CapSense_CSHL.c **** 	*
 994:.\Generated_Source\PSoC4/CapSense_CSHL.c **** 	* Global Variables:
 995:.\Generated_Source\PSoC4/CapSense_CSHL.c **** 	*  CapSense_negativeNoiseThreshold  - This parameter specifies the negative 
 996:.\Generated_Source\PSoC4/CapSense_CSHL.c **** 	*   difference between the raw count and baseline levels for Baseline resetting to 
 997:.\Generated_Source\PSoC4/CapSense_CSHL.c **** 	*   the raw count level.
 998:.\Generated_Source\PSoC4/CapSense_CSHL.c **** 	* 
 999:.\Generated_Source\PSoC4/CapSense_CSHL.c **** 	* Side Effects:
1000:.\Generated_Source\PSoC4/CapSense_CSHL.c **** 	*  None
1001:.\Generated_Source\PSoC4/CapSense_CSHL.c **** 	*
1002:.\Generated_Source\PSoC4/CapSense_CSHL.c **** 	*******************************************************************************/
1003:.\Generated_Source\PSoC4/CapSense_CSHL.c **** 	void CapSense_SetNegativeNoiseThreshold(uint32 widget, uint8 value)
1004:.\Generated_Source\PSoC4/CapSense_CSHL.c **** 	{
1005:.\Generated_Source\PSoC4/CapSense_CSHL.c **** 		CapSense_negativeNoiseThreshold[widget] = value;
1006:.\Generated_Source\PSoC4/CapSense_CSHL.c **** 	}
1007:.\Generated_Source\PSoC4/CapSense_CSHL.c **** 
1008:.\Generated_Source\PSoC4/CapSense_CSHL.c **** 
1009:.\Generated_Source\PSoC4/CapSense_CSHL.c **** 	/*******************************************************************************
1010:.\Generated_Source\PSoC4/CapSense_CSHL.c **** 	* Function Name: CapSense_SetDebounce
1011:.\Generated_Source\PSoC4/CapSense_CSHL.c **** 	********************************************************************************
1012:.\Generated_Source\PSoC4/CapSense_CSHL.c **** 	*
1013:.\Generated_Source\PSoC4/CapSense_CSHL.c **** 	* Summary:
1014:.\Generated_Source\PSoC4/CapSense_CSHL.c **** 	*  This API sets the debounce value for a widget.
1015:.\Generated_Source\PSoC4/CapSense_CSHL.c **** 	*
1016:.\Generated_Source\PSoC4/CapSense_CSHL.c **** 	* Parameters: 
1017:.\Generated_Source\PSoC4/CapSense_CSHL.c **** 	*  value:  Debounce value for widget.
1018:.\Generated_Source\PSoC4/CapSense_CSHL.c **** 	*  widget: widget index.
1019:.\Generated_Source\PSoC4/CapSense_CSHL.c **** 	*
1020:.\Generated_Source\PSoC4/CapSense_CSHL.c **** 	* Return Value: 
1021:.\Generated_Source\PSoC4/CapSense_CSHL.c **** 	*  None
1022:.\Generated_Source\PSoC4/CapSense_CSHL.c **** 	*
1023:.\Generated_Source\PSoC4/CapSense_CSHL.c **** 	* Global Variables:
1024:.\Generated_Source\PSoC4/CapSense_CSHL.c **** 	*  CapSense_debounce[] - This array contains the debounce value for each widget.
1025:.\Generated_Source\PSoC4/CapSense_CSHL.c **** 	*  CapSense_widgetNumberSld - structure with dynamic sliders' parameters.
1026:.\Generated_Source\PSoC4/CapSense_CSHL.c **** 	*
1027:.\Generated_Source\PSoC4/CapSense_CSHL.c **** 	* Side Effects:
1028:.\Generated_Source\PSoC4/CapSense_CSHL.c **** 	*  None
1029:.\Generated_Source\PSoC4/CapSense_CSHL.c **** 	*
1030:.\Generated_Source\PSoC4/CapSense_CSHL.c **** 	*******************************************************************************/
1031:.\Generated_Source\PSoC4/CapSense_CSHL.c **** 	void CapSense_SetDebounce(uint32 widget, uint8 value)
1032:.\Generated_Source\PSoC4/CapSense_CSHL.c **** 	{
1033:.\Generated_Source\PSoC4/CapSense_CSHL.c **** 		CapSense_debounce[widget] = value;
1034:.\Generated_Source\PSoC4/CapSense_CSHL.c **** 	}
1035:.\Generated_Source\PSoC4/CapSense_CSHL.c **** 
1036:.\Generated_Source\PSoC4/CapSense_CSHL.c **** 
1037:.\Generated_Source\PSoC4/CapSense_CSHL.c **** 	/*******************************************************************************
1038:.\Generated_Source\PSoC4/CapSense_CSHL.c **** 	* Function Name: CapSense_SetLowBaselineReset
1039:.\Generated_Source\PSoC4/CapSense_CSHL.c **** 	********************************************************************************
1040:.\Generated_Source\PSoC4/CapSense_CSHL.c **** 	*
1041:.\Generated_Source\PSoC4/CapSense_CSHL.c **** 	* Summary:
1042:.\Generated_Source\PSoC4/CapSense_CSHL.c **** 	*  This API sets the low baseline reset threshold value for the sensor.
ARM GAS  C:\Users\kevin\AppData\Local\Temp\ccCzthOk.s 			page 24


1043:.\Generated_Source\PSoC4/CapSense_CSHL.c **** 	*
1044:.\Generated_Source\PSoC4/CapSense_CSHL.c **** 	* Parameters: 
1045:.\Generated_Source\PSoC4/CapSense_CSHL.c **** 	*  value: low baseline reset threshold value.
1046:.\Generated_Source\PSoC4/CapSense_CSHL.c **** 	*  sensor: Sensor index.
1047:.\Generated_Source\PSoC4/CapSense_CSHL.c **** 	*
1048:.\Generated_Source\PSoC4/CapSense_CSHL.c **** 	* Return Value: 
1049:.\Generated_Source\PSoC4/CapSense_CSHL.c **** 	*  None
1050:.\Generated_Source\PSoC4/CapSense_CSHL.c **** 	*
1051:.\Generated_Source\PSoC4/CapSense_CSHL.c **** 	* Global Variables:
1052:.\Generated_Source\PSoC4/CapSense_CSHL.c **** 	*  CapSense_lowBaselineReset[] - This array contains the Baseline update 
1053:.\Generated_Source\PSoC4/CapSense_CSHL.c **** 	*  threshold value for each sensor.
1054:.\Generated_Source\PSoC4/CapSense_CSHL.c **** 	* 
1055:.\Generated_Source\PSoC4/CapSense_CSHL.c **** 	* Side Effects:
1056:.\Generated_Source\PSoC4/CapSense_CSHL.c **** 	*  None
1057:.\Generated_Source\PSoC4/CapSense_CSHL.c **** 	*
1058:.\Generated_Source\PSoC4/CapSense_CSHL.c **** 	*******************************************************************************/
1059:.\Generated_Source\PSoC4/CapSense_CSHL.c **** 	void CapSense_SetLowBaselineReset(uint32 sensor, uint8 value)
1060:.\Generated_Source\PSoC4/CapSense_CSHL.c **** 	{
1061:.\Generated_Source\PSoC4/CapSense_CSHL.c **** 		CapSense_lowBaselineReset[sensor] = value;
1062:.\Generated_Source\PSoC4/CapSense_CSHL.c **** 	}
1063:.\Generated_Source\PSoC4/CapSense_CSHL.c **** #endif /* (CapSense_TUNING_METHOD != CapSense__TUNING_NONE) */
1064:.\Generated_Source\PSoC4/CapSense_CSHL.c **** 
1065:.\Generated_Source\PSoC4/CapSense_CSHL.c **** 
1066:.\Generated_Source\PSoC4/CapSense_CSHL.c **** /*******************************************************************************
1067:.\Generated_Source\PSoC4/CapSense_CSHL.c **** * Function Name: CapSense_CheckIsSensorActive
1068:.\Generated_Source\PSoC4/CapSense_CSHL.c **** ********************************************************************************
1069:.\Generated_Source\PSoC4/CapSense_CSHL.c **** *
1070:.\Generated_Source\PSoC4/CapSense_CSHL.c **** * Summary:
1071:.\Generated_Source\PSoC4/CapSense_CSHL.c **** *  Compares the CapSense_sensorSignal[sensor] array element to the finger
1072:.\Generated_Source\PSoC4/CapSense_CSHL.c **** *  threshold of the widget it belongs to. The hysteresis and debounce are taken into 
1073:.\Generated_Source\PSoC4/CapSense_CSHL.c **** *  account. The hysteresis is added or subtracted from the finger threshold 
1074:.\Generated_Source\PSoC4/CapSense_CSHL.c **** *  based on whether the sensor is currently active. 
1075:.\Generated_Source\PSoC4/CapSense_CSHL.c **** *  If the sensor is active, the threshold is lowered by the hysteresis amount.
1076:.\Generated_Source\PSoC4/CapSense_CSHL.c **** *  If the sensor is inactive, the threshold is raised by the hysteresis amount.
1077:.\Generated_Source\PSoC4/CapSense_CSHL.c **** *  The debounce counter is added to the sensor active transition.
1078:.\Generated_Source\PSoC4/CapSense_CSHL.c **** *  This function updates the CapSense_sensorOnMask[] array element.
1079:.\Generated_Source\PSoC4/CapSense_CSHL.c **** *
1080:.\Generated_Source\PSoC4/CapSense_CSHL.c **** * Parameters:
1081:.\Generated_Source\PSoC4/CapSense_CSHL.c **** *  sensor:  Sensor number.
1082:.\Generated_Source\PSoC4/CapSense_CSHL.c **** *
1083:.\Generated_Source\PSoC4/CapSense_CSHL.c **** * Return:
1084:.\Generated_Source\PSoC4/CapSense_CSHL.c **** *  Returns sensor state 1 if active, 0 if not active.
1085:.\Generated_Source\PSoC4/CapSense_CSHL.c **** *
1086:.\Generated_Source\PSoC4/CapSense_CSHL.c **** * Global Variables:
1087:.\Generated_Source\PSoC4/CapSense_CSHL.c **** *  CapSense_sensorSignal[] - used to store the difference between 
1088:.\Generated_Source\PSoC4/CapSense_CSHL.c **** *  the current value of raw data and a previous value of the baseline.
1089:.\Generated_Source\PSoC4/CapSense_CSHL.c **** *  CapSense_debounceCounter[]   - used to store the current debounce 
1090:.\Generated_Source\PSoC4/CapSense_CSHL.c **** *  counter of the sensor. the widget which have this parameter are buttons, matrix 
1091:.\Generated_Source\PSoC4/CapSense_CSHL.c **** *  buttons, proximity, and guard. All other widgets don't have the  debounce parameter
1092:.\Generated_Source\PSoC4/CapSense_CSHL.c **** *  and use the last element of this array with value 0 (it means no debounce).
1093:.\Generated_Source\PSoC4/CapSense_CSHL.c **** *  CapSense_sensorOnMask[] - used to store the sensors on/off state.
1094:.\Generated_Source\PSoC4/CapSense_CSHL.c **** *  CapSense_sensorOnMask[0] contains the masked bits for sensors 
1095:.\Generated_Source\PSoC4/CapSense_CSHL.c **** *   0 through 7 (sensor 0 is bit 0, sensor 1 is bit 1).
1096:.\Generated_Source\PSoC4/CapSense_CSHL.c **** *  CapSense_sensorEnableMask[1] contains the masked bits for 
1097:.\Generated_Source\PSoC4/CapSense_CSHL.c **** *  sensors 8 through 15 (if needed), and so on.
1098:.\Generated_Source\PSoC4/CapSense_CSHL.c **** *  0 - sensor is inactive.
1099:.\Generated_Source\PSoC4/CapSense_CSHL.c **** *  1 - sensor is active.
ARM GAS  C:\Users\kevin\AppData\Local\Temp\ccCzthOk.s 			page 25


1100:.\Generated_Source\PSoC4/CapSense_CSHL.c **** * 
1101:.\Generated_Source\PSoC4/CapSense_CSHL.c **** * Side Effects:
1102:.\Generated_Source\PSoC4/CapSense_CSHL.c **** *  None
1103:.\Generated_Source\PSoC4/CapSense_CSHL.c **** *
1104:.\Generated_Source\PSoC4/CapSense_CSHL.c **** *******************************************************************************/
1105:.\Generated_Source\PSoC4/CapSense_CSHL.c **** uint32 CapSense_CheckIsSensorActive(uint32 sensor)
1106:.\Generated_Source\PSoC4/CapSense_CSHL.c **** {	
1107:.\Generated_Source\PSoC4/CapSense_CSHL.c **** 	uint8 widget;
1108:.\Generated_Source\PSoC4/CapSense_CSHL.c **** 	uint8 debounce;
1109:.\Generated_Source\PSoC4/CapSense_CSHL.c **** 	uint8 debounceIndex;
1110:.\Generated_Source\PSoC4/CapSense_CSHL.c **** 
1111:.\Generated_Source\PSoC4/CapSense_CSHL.c **** 	uint8 fingerThreshold;
1112:.\Generated_Source\PSoC4/CapSense_CSHL.c **** 	uint8 hysteresis;
1113:.\Generated_Source\PSoC4/CapSense_CSHL.c **** 	
1114:.\Generated_Source\PSoC4/CapSense_CSHL.c **** 	
1115:.\Generated_Source\PSoC4/CapSense_CSHL.c ****     /* Prepare to find debounce counter index */
1116:.\Generated_Source\PSoC4/CapSense_CSHL.c ****     widget = CapSense_widgetNumber[sensor];
1117:.\Generated_Source\PSoC4/CapSense_CSHL.c **** 	
1118:.\Generated_Source\PSoC4/CapSense_CSHL.c ****     fingerThreshold = CapSense_fingerThreshold[widget];
1119:.\Generated_Source\PSoC4/CapSense_CSHL.c **** 	hysteresis = CapSense_hysteresis[widget];
1120:.\Generated_Source\PSoC4/CapSense_CSHL.c **** 	debounce = CapSense_debounce[widget];	
1121:.\Generated_Source\PSoC4/CapSense_CSHL.c **** 	
1122:.\Generated_Source\PSoC4/CapSense_CSHL.c **** 	    debounceIndex = widget;
1123:.\Generated_Source\PSoC4/CapSense_CSHL.c **** 
1124:.\Generated_Source\PSoC4/CapSense_CSHL.c **** 	
1125:.\Generated_Source\PSoC4/CapSense_CSHL.c ****     /* Was on */
1126:.\Generated_Source\PSoC4/CapSense_CSHL.c ****     if (0u != CapSense_GetBitValue(CapSense_sensorOnMask, sensor))
1127:.\Generated_Source\PSoC4/CapSense_CSHL.c ****     {
1128:.\Generated_Source\PSoC4/CapSense_CSHL.c ****         /* Hysteresis minus */
1129:.\Generated_Source\PSoC4/CapSense_CSHL.c ****         if (CapSense_sensorSignal[sensor] < (fingerThreshold - hysteresis))
1130:.\Generated_Source\PSoC4/CapSense_CSHL.c ****         {
1131:.\Generated_Source\PSoC4/CapSense_CSHL.c **** 	   		CapSense_SetBitValue(CapSense_sensorOnMask, sensor, 0u);
1132:.\Generated_Source\PSoC4/CapSense_CSHL.c **** 			/* Sensor inactive - reset Debounce counter */
1133:.\Generated_Source\PSoC4/CapSense_CSHL.c ****             CapSense_debounceCounter[debounceIndex] = debounce;
1134:.\Generated_Source\PSoC4/CapSense_CSHL.c ****         }
1135:.\Generated_Source\PSoC4/CapSense_CSHL.c ****     }
1136:.\Generated_Source\PSoC4/CapSense_CSHL.c ****     else    /* Was off */
1137:.\Generated_Source\PSoC4/CapSense_CSHL.c ****     {
1138:.\Generated_Source\PSoC4/CapSense_CSHL.c ****         /* Hysteresis plus */
1139:.\Generated_Source\PSoC4/CapSense_CSHL.c ****         if (CapSense_sensorSignal[sensor] >= (fingerThreshold + hysteresis))
1140:.\Generated_Source\PSoC4/CapSense_CSHL.c ****         {
1141:.\Generated_Source\PSoC4/CapSense_CSHL.c **** 			CapSense_debounceCounter[debounceIndex]--;
1142:.\Generated_Source\PSoC4/CapSense_CSHL.c ****             /* Sensor active, decrement debounce counter */
1143:.\Generated_Source\PSoC4/CapSense_CSHL.c ****             if(CapSense_debounceCounter[debounceIndex] == 0u)
1144:.\Generated_Source\PSoC4/CapSense_CSHL.c ****             {
1145:.\Generated_Source\PSoC4/CapSense_CSHL.c ****                 CapSense_SetBitValue(CapSense_sensorOnMask, sensor, 1u); 
1146:.\Generated_Source\PSoC4/CapSense_CSHL.c ****             }
1147:.\Generated_Source\PSoC4/CapSense_CSHL.c ****         }
1148:.\Generated_Source\PSoC4/CapSense_CSHL.c ****         else
1149:.\Generated_Source\PSoC4/CapSense_CSHL.c ****         {
1150:.\Generated_Source\PSoC4/CapSense_CSHL.c ****             /* Sensor inactive - reset Debounce counter */
1151:.\Generated_Source\PSoC4/CapSense_CSHL.c ****             CapSense_debounceCounter[debounceIndex] = debounce;
1152:.\Generated_Source\PSoC4/CapSense_CSHL.c ****         }
1153:.\Generated_Source\PSoC4/CapSense_CSHL.c ****     }
1154:.\Generated_Source\PSoC4/CapSense_CSHL.c ****     
1155:.\Generated_Source\PSoC4/CapSense_CSHL.c ****     return ((uint32)((0u != CapSense_GetBitValue(CapSense_sensorOnMask, sensor)) ? 1u : 0u));
1156:.\Generated_Source\PSoC4/CapSense_CSHL.c **** }
ARM GAS  C:\Users\kevin\AppData\Local\Temp\ccCzthOk.s 			page 26


1157:.\Generated_Source\PSoC4/CapSense_CSHL.c **** 
1158:.\Generated_Source\PSoC4/CapSense_CSHL.c **** 
1159:.\Generated_Source\PSoC4/CapSense_CSHL.c **** /*******************************************************************************
1160:.\Generated_Source\PSoC4/CapSense_CSHL.c **** * Function Name: CapSense_CheckIsWidgetActive
1161:.\Generated_Source\PSoC4/CapSense_CSHL.c **** ********************************************************************************
1162:.\Generated_Source\PSoC4/CapSense_CSHL.c **** *
1163:.\Generated_Source\PSoC4/CapSense_CSHL.c **** * Summary:
1164:.\Generated_Source\PSoC4/CapSense_CSHL.c **** *  Compares the CapSense_sensorSignal[] array element to the finger threshold of 
1165:.\Generated_Source\PSoC4/CapSense_CSHL.c **** * the widget it belongs to. The hysteresis and debounce are taken into account. 
1166:.\Generated_Source\PSoC4/CapSense_CSHL.c **** * The hysteresis is added or subtracted from the finger threshold based on whether
1167:.\Generated_Source\PSoC4/CapSense_CSHL.c **** *  the sensor is currently active. If the sensor is active, the threshold is 
1168:.\Generated_Source\PSoC4/CapSense_CSHL.c **** *  lowered by the hysteresis amount. If the sensor is inactive, the threshold 
1169:.\Generated_Source\PSoC4/CapSense_CSHL.c **** *  is raised by the hysteresis amount. 
1170:.\Generated_Source\PSoC4/CapSense_CSHL.c **** * The debounce counter added to the sensor active transition. 
1171:.\Generated_Source\PSoC4/CapSense_CSHL.c **** * This function updates CapSense_sensorOnMask[] array element
1172:.\Generated_Source\PSoC4/CapSense_CSHL.c **** *
1173:.\Generated_Source\PSoC4/CapSense_CSHL.c **** * Parameters:
1174:.\Generated_Source\PSoC4/CapSense_CSHL.c **** *  widget:  widget number.
1175:.\Generated_Source\PSoC4/CapSense_CSHL.c **** *
1176:.\Generated_Source\PSoC4/CapSense_CSHL.c **** * Return:
1177:.\Generated_Source\PSoC4/CapSense_CSHL.c **** *  Returns widget sensor state 1 if one or more sensors within widget is/are 
1178:.\Generated_Source\PSoC4/CapSense_CSHL.c **** *  active, 0 if all sensors within widget are inactive.
1179:.\Generated_Source\PSoC4/CapSense_CSHL.c **** *
1180:.\Generated_Source\PSoC4/CapSense_CSHL.c **** * Global Variables:
1181:.\Generated_Source\PSoC4/CapSense_CSHL.c **** *  rawDataIndex[]: Contains the  1st sensor position in the widget
1182:.\Generated_Source\PSoC4/CapSense_CSHL.c **** * 
1183:.\Generated_Source\PSoC4/CapSense_CSHL.c **** * Side Effects:
1184:.\Generated_Source\PSoC4/CapSense_CSHL.c **** *  None
1185:.\Generated_Source\PSoC4/CapSense_CSHL.c **** *
1186:.\Generated_Source\PSoC4/CapSense_CSHL.c **** *******************************************************************************/
1187:.\Generated_Source\PSoC4/CapSense_CSHL.c **** uint32 CapSense_CheckIsWidgetActive(uint32 widget)
1188:.\Generated_Source\PSoC4/CapSense_CSHL.c **** {
1189:.\Generated_Source\PSoC4/CapSense_CSHL.c ****     uint32 rawIndex = (uint32)CapSense_rawDataIndex[widget];
1190:.\Generated_Source\PSoC4/CapSense_CSHL.c ****     uint32 numOfSensors = (uint32)CapSense_numberOfSensors[widget] + rawIndex;
1191:.\Generated_Source\PSoC4/CapSense_CSHL.c ****     uint32 state = 0u;
1192:.\Generated_Source\PSoC4/CapSense_CSHL.c **** 
1193:.\Generated_Source\PSoC4/CapSense_CSHL.c ****     /* Check all sensors of widget */
1194:.\Generated_Source\PSoC4/CapSense_CSHL.c ****     do
1195:.\Generated_Source\PSoC4/CapSense_CSHL.c ****     {
1196:.\Generated_Source\PSoC4/CapSense_CSHL.c ****         if(CapSense_CheckIsSensorActive((uint32)rawIndex) != 0u)
1197:.\Generated_Source\PSoC4/CapSense_CSHL.c ****         {
1198:.\Generated_Source\PSoC4/CapSense_CSHL.c ****             state = CapSense_SENSOR_IS_ACTIVE;
1199:.\Generated_Source\PSoC4/CapSense_CSHL.c ****         }
1200:.\Generated_Source\PSoC4/CapSense_CSHL.c ****         rawIndex++;
1201:.\Generated_Source\PSoC4/CapSense_CSHL.c ****     }
1202:.\Generated_Source\PSoC4/CapSense_CSHL.c ****     while(rawIndex < numOfSensors);
1203:.\Generated_Source\PSoC4/CapSense_CSHL.c ****     
1204:.\Generated_Source\PSoC4/CapSense_CSHL.c **** 
1205:.\Generated_Source\PSoC4/CapSense_CSHL.c ****     
1206:.\Generated_Source\PSoC4/CapSense_CSHL.c ****     return state;
1207:.\Generated_Source\PSoC4/CapSense_CSHL.c **** }
1208:.\Generated_Source\PSoC4/CapSense_CSHL.c **** 
1209:.\Generated_Source\PSoC4/CapSense_CSHL.c **** 
1210:.\Generated_Source\PSoC4/CapSense_CSHL.c **** /*******************************************************************************
1211:.\Generated_Source\PSoC4/CapSense_CSHL.c **** * Function Name: CapSense_CheckIsAnyWidgetActive
1212:.\Generated_Source\PSoC4/CapSense_CSHL.c **** ********************************************************************************
1213:.\Generated_Source\PSoC4/CapSense_CSHL.c **** *
ARM GAS  C:\Users\kevin\AppData\Local\Temp\ccCzthOk.s 			page 27


1214:.\Generated_Source\PSoC4/CapSense_CSHL.c **** * Summary:
1215:.\Generated_Source\PSoC4/CapSense_CSHL.c **** *  Compares all the sensors of the CapSense_Signal[] array to their finger 
1216:.\Generated_Source\PSoC4/CapSense_CSHL.c **** *  threshold. Calls CapSense_CheckIsWidgetActive() for each widget so 
1217:.\Generated_Source\PSoC4/CapSense_CSHL.c **** *  the CapSense_sensorOnMask[] array is up to date after calling this 
1218:.\Generated_Source\PSoC4/CapSense_CSHL.c **** *  function.
1219:.\Generated_Source\PSoC4/CapSense_CSHL.c **** *
1220:.\Generated_Source\PSoC4/CapSense_CSHL.c **** * Parameters:
1221:.\Generated_Source\PSoC4/CapSense_CSHL.c **** *  widget:  widget number.
1222:.\Generated_Source\PSoC4/CapSense_CSHL.c **** *
1223:.\Generated_Source\PSoC4/CapSense_CSHL.c **** * Return:
1224:.\Generated_Source\PSoC4/CapSense_CSHL.c **** *  Returns 1 if any widget is active, 0 none of widgets are active.
1225:.\Generated_Source\PSoC4/CapSense_CSHL.c **** *
1226:.\Generated_Source\PSoC4/CapSense_CSHL.c **** * Global Variables:
1227:.\Generated_Source\PSoC4/CapSense_CSHL.c **** *  None
1228:.\Generated_Source\PSoC4/CapSense_CSHL.c **** * 
1229:.\Generated_Source\PSoC4/CapSense_CSHL.c **** * Side Effects:
1230:.\Generated_Source\PSoC4/CapSense_CSHL.c **** *  None
1231:.\Generated_Source\PSoC4/CapSense_CSHL.c **** *
1232:.\Generated_Source\PSoC4/CapSense_CSHL.c **** *******************************************************************************/
1233:.\Generated_Source\PSoC4/CapSense_CSHL.c **** uint32 CapSense_CheckIsAnyWidgetActive(void)
1234:.\Generated_Source\PSoC4/CapSense_CSHL.c **** {
1235:.\Generated_Source\PSoC4/CapSense_CSHL.c **** 
1236:.\Generated_Source\PSoC4/CapSense_CSHL.c **** 	    uint32 i;
1237:.\Generated_Source\PSoC4/CapSense_CSHL.c ****     uint32 state = 0u;
1238:.\Generated_Source\PSoC4/CapSense_CSHL.c ****     
1239:.\Generated_Source\PSoC4/CapSense_CSHL.c ****     for(i = 0u; i < CapSense_TOTAL_WIDGET_COUNT; i++)
1240:.\Generated_Source\PSoC4/CapSense_CSHL.c ****     {
1241:.\Generated_Source\PSoC4/CapSense_CSHL.c ****         if (CapSense_CheckIsWidgetActive(i) != 0u)
1242:.\Generated_Source\PSoC4/CapSense_CSHL.c ****         {
1243:.\Generated_Source\PSoC4/CapSense_CSHL.c ****             state = CapSense_WIDGET_IS_ACTIVE;
1244:.\Generated_Source\PSoC4/CapSense_CSHL.c ****         }
1245:.\Generated_Source\PSoC4/CapSense_CSHL.c ****     }
1246:.\Generated_Source\PSoC4/CapSense_CSHL.c ****     
1247:.\Generated_Source\PSoC4/CapSense_CSHL.c **** 
1248:.\Generated_Source\PSoC4/CapSense_CSHL.c **** 
1249:.\Generated_Source\PSoC4/CapSense_CSHL.c ****     return state;
1250:.\Generated_Source\PSoC4/CapSense_CSHL.c **** }
1251:.\Generated_Source\PSoC4/CapSense_CSHL.c **** 
1252:.\Generated_Source\PSoC4/CapSense_CSHL.c **** 
1253:.\Generated_Source\PSoC4/CapSense_CSHL.c **** /*******************************************************************************
1254:.\Generated_Source\PSoC4/CapSense_CSHL.c **** * Function Name: CapSense_EnableWidget
1255:.\Generated_Source\PSoC4/CapSense_CSHL.c **** ********************************************************************************
1256:.\Generated_Source\PSoC4/CapSense_CSHL.c **** *
1257:.\Generated_Source\PSoC4/CapSense_CSHL.c **** * Summary:
1258:.\Generated_Source\PSoC4/CapSense_CSHL.c **** *  Enables all the widget elements (sensors) to the scanning process.
1259:.\Generated_Source\PSoC4/CapSense_CSHL.c **** *
1260:.\Generated_Source\PSoC4/CapSense_CSHL.c **** * Parameters:
1261:.\Generated_Source\PSoC4/CapSense_CSHL.c **** *  widget:  widget number.
1262:.\Generated_Source\PSoC4/CapSense_CSHL.c **** *
1263:.\Generated_Source\PSoC4/CapSense_CSHL.c **** * Return:
1264:.\Generated_Source\PSoC4/CapSense_CSHL.c **** *  None
1265:.\Generated_Source\PSoC4/CapSense_CSHL.c **** *
1266:.\Generated_Source\PSoC4/CapSense_CSHL.c **** * Global Variables:
1267:.\Generated_Source\PSoC4/CapSense_CSHL.c **** *  CapSense_sensorEnableMask[] - used to store the sensor scanning 
1268:.\Generated_Source\PSoC4/CapSense_CSHL.c **** *  state.
1269:.\Generated_Source\PSoC4/CapSense_CSHL.c **** *  CapSense_sensorEnableMask[0] contains the masked bits for sensors 
1270:.\Generated_Source\PSoC4/CapSense_CSHL.c **** *  0 through 7 (sensor 0 is bit 0, sensor 1 is bit 1).
ARM GAS  C:\Users\kevin\AppData\Local\Temp\ccCzthOk.s 			page 28


1271:.\Generated_Source\PSoC4/CapSense_CSHL.c **** *  CapSense_sensorEnableMask[1] contains the masked bits for 
1272:.\Generated_Source\PSoC4/CapSense_CSHL.c **** *  sensors 8 through 15 (if needed), and so on.
1273:.\Generated_Source\PSoC4/CapSense_CSHL.c **** *  0 - sensor doesn't scan by CapSense_ScanEnabledWidgets().
1274:.\Generated_Source\PSoC4/CapSense_CSHL.c **** *  1 - sensor scans by CapSense_ScanEnabledWidgets().
1275:.\Generated_Source\PSoC4/CapSense_CSHL.c **** * 
1276:.\Generated_Source\PSoC4/CapSense_CSHL.c **** * Side Effects:
1277:.\Generated_Source\PSoC4/CapSense_CSHL.c **** *  None
1278:.\Generated_Source\PSoC4/CapSense_CSHL.c **** *
1279:.\Generated_Source\PSoC4/CapSense_CSHL.c **** *******************************************************************************/
1280:.\Generated_Source\PSoC4/CapSense_CSHL.c **** void CapSense_EnableWidget(uint32 widget)
1281:.\Generated_Source\PSoC4/CapSense_CSHL.c **** {
1282:.\Generated_Source\PSoC4/CapSense_CSHL.c **** 
1283:.\Generated_Source\PSoC4/CapSense_CSHL.c ****     uint8 rawIndex = CapSense_rawDataIndex[widget];
1284:.\Generated_Source\PSoC4/CapSense_CSHL.c ****     uint8 numOfSensors = CapSense_numberOfSensors[widget] + rawIndex;
1285:.\Generated_Source\PSoC4/CapSense_CSHL.c ****     
1286:.\Generated_Source\PSoC4/CapSense_CSHL.c ****     /* Enable all sensors of widget */
1287:.\Generated_Source\PSoC4/CapSense_CSHL.c ****     do
1288:.\Generated_Source\PSoC4/CapSense_CSHL.c ****     {
1289:.\Generated_Source\PSoC4/CapSense_CSHL.c ****         CapSense_SetBitValue(CapSense_sensorEnableMask, (uint32)rawIndex, 1u);
1290:.\Generated_Source\PSoC4/CapSense_CSHL.c ****         rawIndex++;
1291:.\Generated_Source\PSoC4/CapSense_CSHL.c ****     }
1292:.\Generated_Source\PSoC4/CapSense_CSHL.c ****     while(rawIndex < numOfSensors);
1293:.\Generated_Source\PSoC4/CapSense_CSHL.c **** }
1294:.\Generated_Source\PSoC4/CapSense_CSHL.c **** 
1295:.\Generated_Source\PSoC4/CapSense_CSHL.c **** 
1296:.\Generated_Source\PSoC4/CapSense_CSHL.c **** /*******************************************************************************
1297:.\Generated_Source\PSoC4/CapSense_CSHL.c **** * Function Name: CapSense_DisableWidget
1298:.\Generated_Source\PSoC4/CapSense_CSHL.c **** ********************************************************************************
1299:.\Generated_Source\PSoC4/CapSense_CSHL.c **** *
1300:.\Generated_Source\PSoC4/CapSense_CSHL.c **** * Summary:
1301:.\Generated_Source\PSoC4/CapSense_CSHL.c **** *  Disables all the widget elements (sensors) from the scanning process.
1302:.\Generated_Source\PSoC4/CapSense_CSHL.c **** *
1303:.\Generated_Source\PSoC4/CapSense_CSHL.c **** * Parameters:
1304:.\Generated_Source\PSoC4/CapSense_CSHL.c **** *  widget:  widget number.
1305:.\Generated_Source\PSoC4/CapSense_CSHL.c **** *
1306:.\Generated_Source\PSoC4/CapSense_CSHL.c **** * Return:
1307:.\Generated_Source\PSoC4/CapSense_CSHL.c **** *  None
1308:.\Generated_Source\PSoC4/CapSense_CSHL.c **** *
1309:.\Generated_Source\PSoC4/CapSense_CSHL.c **** * Global Variables:
1310:.\Generated_Source\PSoC4/CapSense_CSHL.c **** *  CapSense_sensorEnableMask[] - used to store the sensor scanning 
1311:.\Generated_Source\PSoC4/CapSense_CSHL.c **** *  state.
1312:.\Generated_Source\PSoC4/CapSense_CSHL.c **** *  CapSense_sensorEnableMask[0] contains the masked bits for sensors 
1313:.\Generated_Source\PSoC4/CapSense_CSHL.c **** *  0 through 7 (sensor 0 is bit 0, sensor 1 is bit 1).
1314:.\Generated_Source\PSoC4/CapSense_CSHL.c **** *  CapSense_sensorEnableMask[1] contains the masked bits for 
1315:.\Generated_Source\PSoC4/CapSense_CSHL.c **** *  sensors 8 through 15 (if needed), and so on.
1316:.\Generated_Source\PSoC4/CapSense_CSHL.c **** *  0 - sensor isn't scanned by CapSense_ScanEnabledWidgets().
1317:.\Generated_Source\PSoC4/CapSense_CSHL.c **** *  1 - sensor is scanned by CapSense_ScanEnabledWidgets().
1318:.\Generated_Source\PSoC4/CapSense_CSHL.c **** * 
1319:.\Generated_Source\PSoC4/CapSense_CSHL.c **** * Side Effects:
1320:.\Generated_Source\PSoC4/CapSense_CSHL.c **** *  None
1321:.\Generated_Source\PSoC4/CapSense_CSHL.c **** *
1322:.\Generated_Source\PSoC4/CapSense_CSHL.c **** *******************************************************************************/
1323:.\Generated_Source\PSoC4/CapSense_CSHL.c **** void CapSense_DisableWidget(uint32 widget)
1324:.\Generated_Source\PSoC4/CapSense_CSHL.c **** {
1325:.\Generated_Source\PSoC4/CapSense_CSHL.c ****     uint8 rawIndex = CapSense_rawDataIndex[widget];
1326:.\Generated_Source\PSoC4/CapSense_CSHL.c ****     uint8 numOfSensors = CapSense_numberOfSensors[widget] + rawIndex;
1327:.\Generated_Source\PSoC4/CapSense_CSHL.c ****    
ARM GAS  C:\Users\kevin\AppData\Local\Temp\ccCzthOk.s 			page 29


1328:.\Generated_Source\PSoC4/CapSense_CSHL.c ****     /* Disable all sensors of widget */
1329:.\Generated_Source\PSoC4/CapSense_CSHL.c ****     do
1330:.\Generated_Source\PSoC4/CapSense_CSHL.c ****     {
1331:.\Generated_Source\PSoC4/CapSense_CSHL.c **** 
1332:.\Generated_Source\PSoC4/CapSense_CSHL.c ****         CapSense_SetBitValue(CapSense_sensorEnableMask, (uint32)rawIndex, 0u);
1333:.\Generated_Source\PSoC4/CapSense_CSHL.c ****         rawIndex++;
1334:.\Generated_Source\PSoC4/CapSense_CSHL.c ****     }
1335:.\Generated_Source\PSoC4/CapSense_CSHL.c ****     while(rawIndex < numOfSensors);
1336:.\Generated_Source\PSoC4/CapSense_CSHL.c **** }
1337:.\Generated_Source\PSoC4/CapSense_CSHL.c **** 
1338:.\Generated_Source\PSoC4/CapSense_CSHL.c **** 
1339:.\Generated_Source\PSoC4/CapSense_CSHL.c **** #if(CapSense_TOTAL_CENTROIDS_BASIC_COUNT)
1340:.\Generated_Source\PSoC4/CapSense_CSHL.c ****     /*******************************************************************************
1341:.\Generated_Source\PSoC4/CapSense_CSHL.c ****     * Function Name: CapSense_FindMaximum
1342:.\Generated_Source\PSoC4/CapSense_CSHL.c ****     ********************************************************************************
1343:.\Generated_Source\PSoC4/CapSense_CSHL.c ****     *
1344:.\Generated_Source\PSoC4/CapSense_CSHL.c ****     * Summary:
1345:.\Generated_Source\PSoC4/CapSense_CSHL.c ****     *  Finds the index of the maximum element within a defined centroid. Checks 
1346:.\Generated_Source\PSoC4/CapSense_CSHL.c ****     *  CapSense_sensorSignal[] within a defined centroid and 
1347:.\Generated_Source\PSoC4/CapSense_CSHL.c ****     *  returns the index of the maximum element. The values below the finger threshold are 
1348:.\Generated_Source\PSoC4/CapSense_CSHL.c ****     *  ignored.
1349:.\Generated_Source\PSoC4/CapSense_CSHL.c ****     *  The centroid is defined by offset of the first element and a number of elements - count.
1350:.\Generated_Source\PSoC4/CapSense_CSHL.c ****     *  The diplexed centroid requires at least two consecutive elements above
1351:.\Generated_Source\PSoC4/CapSense_CSHL.c ****     *  FingerThreshold to find the index of the maximum element.
1352:.\Generated_Source\PSoC4/CapSense_CSHL.c ****     * 
1353:.\Generated_Source\PSoC4/CapSense_CSHL.c ****     * Parameters:
1354:.\Generated_Source\PSoC4/CapSense_CSHL.c ****     *  offset:  Start index of centroid in CapSense_sensorSignal[] array.
1355:.\Generated_Source\PSoC4/CapSense_CSHL.c ****     *  count:   number of elements within centroid.
1356:.\Generated_Source\PSoC4/CapSense_CSHL.c ****     *  fingerThreshold:  Finger threshold.
1357:.\Generated_Source\PSoC4/CapSense_CSHL.c ****     *  diplex:   pointer to diplex table.
1358:.\Generated_Source\PSoC4/CapSense_CSHL.c ****     * 
1359:.\Generated_Source\PSoC4/CapSense_CSHL.c ****     * Return:
1360:.\Generated_Source\PSoC4/CapSense_CSHL.c ****     *  Returns the index of the maximum element within a defined centroid.
1361:.\Generated_Source\PSoC4/CapSense_CSHL.c ****     *  If the index of the maximum element isn't found it returns 0xFF.
1362:.\Generated_Source\PSoC4/CapSense_CSHL.c **** 	*
1363:.\Generated_Source\PSoC4/CapSense_CSHL.c **** 	* Global Variables:
1364:.\Generated_Source\PSoC4/CapSense_CSHL.c **** 	*  CapSense_startOfSlider[] - contains the index of the first slider element
1365:.\Generated_Source\PSoC4/CapSense_CSHL.c **** 	* 
1366:.\Generated_Source\PSoC4/CapSense_CSHL.c **** 	* Side Effects: 
1367:.\Generated_Source\PSoC4/CapSense_CSHL.c **** 	*  None
1368:.\Generated_Source\PSoC4/CapSense_CSHL.c **** 	* 
1369:.\Generated_Source\PSoC4/CapSense_CSHL.c ****     *******************************************************************************/
1370:.\Generated_Source\PSoC4/CapSense_CSHL.c **** 	#if (CapSense_IS_DIPLEX_SLIDER)
1371:.\Generated_Source\PSoC4/CapSense_CSHL.c **** 		uint8 CapSense_FindMaximum(uint8 offset, uint8 count, uint8 fingerThreshold, const uint8 *diplex)
1372:.\Generated_Source\PSoC4/CapSense_CSHL.c **** 	#else 
1373:.\Generated_Source\PSoC4/CapSense_CSHL.c **** 		uint8 CapSense_FindMaximum(uint8 offset, uint8 count, uint8 fingerThreshold)
1374:.\Generated_Source\PSoC4/CapSense_CSHL.c **** 	#endif /* (CapSense_IS_DIPLEX_SLIDER) */
1375:.\Generated_Source\PSoC4/CapSense_CSHL.c ****     {
1376:.\Generated_Source\PSoC4/CapSense_CSHL.c ****         uint8 i;
1377:.\Generated_Source\PSoC4/CapSense_CSHL.c ****         #if (CapSense_IS_DIPLEX_SLIDER)        
1378:.\Generated_Source\PSoC4/CapSense_CSHL.c ****             uint8 curPos = 0u;
1379:.\Generated_Source\PSoC4/CapSense_CSHL.c ****             /* No centroid at Start */
1380:.\Generated_Source\PSoC4/CapSense_CSHL.c ****             uint8 curCntrdSize = 0u;
1381:.\Generated_Source\PSoC4/CapSense_CSHL.c ****             uint8 curCtrdStartPos = CapSense_MAXIMUM_CENTROID;
1382:.\Generated_Source\PSoC4/CapSense_CSHL.c ****             /* Biggest centroid is zero */
1383:.\Generated_Source\PSoC4/CapSense_CSHL.c ****             uint8 biggestCtrdSize = 0u;
1384:.\Generated_Source\PSoC4/CapSense_CSHL.c ****             uint8 biggestCtrdStartPos = 0u;
ARM GAS  C:\Users\kevin\AppData\Local\Temp\ccCzthOk.s 			page 30


1385:.\Generated_Source\PSoC4/CapSense_CSHL.c ****         #endif /* (CapSense_IS_DIPLEX_SLIDER) */
1386:.\Generated_Source\PSoC4/CapSense_CSHL.c ****         uint8 maximum = CapSense_MAXIMUM_CENTROID;
1387:.\Generated_Source\PSoC4/CapSense_CSHL.c **** 		
1388:.\Generated_Source\PSoC4/CapSense_CSHL.c ****         uint8 temp = 0u;
1389:.\Generated_Source\PSoC4/CapSense_CSHL.c ****         uint8 *startOfSlider = &CapSense_sensorSignal[offset];
1390:.\Generated_Source\PSoC4/CapSense_CSHL.c **** 
1391:.\Generated_Source\PSoC4/CapSense_CSHL.c ****         #if (CapSense_IS_DIPLEX_SLIDER)        
1392:.\Generated_Source\PSoC4/CapSense_CSHL.c ****             if(diplex != 0u)
1393:.\Generated_Source\PSoC4/CapSense_CSHL.c ****             {
1394:.\Generated_Source\PSoC4/CapSense_CSHL.c ****                 /* Initialize */
1395:.\Generated_Source\PSoC4/CapSense_CSHL.c ****                 i = 0u;
1396:.\Generated_Source\PSoC4/CapSense_CSHL.c ****                 
1397:.\Generated_Source\PSoC4/CapSense_CSHL.c ****                 /* Make slider x2 as Diplexed */
1398:.\Generated_Source\PSoC4/CapSense_CSHL.c ****                 count <<= 1u;
1399:.\Generated_Source\PSoC4/CapSense_CSHL.c ****                 while(1u)
1400:.\Generated_Source\PSoC4/CapSense_CSHL.c ****                 { 
1401:.\Generated_Source\PSoC4/CapSense_CSHL.c ****                     if (startOfSlider[curPos] > 0u)    /* Looking for centroids */
1402:.\Generated_Source\PSoC4/CapSense_CSHL.c ****                     {
1403:.\Generated_Source\PSoC4/CapSense_CSHL.c ****                         if (curCtrdStartPos == CapSense_MAXIMUM_CENTROID)
1404:.\Generated_Source\PSoC4/CapSense_CSHL.c ****                         {
1405:.\Generated_Source\PSoC4/CapSense_CSHL.c ****                             /* Start of centroid */
1406:.\Generated_Source\PSoC4/CapSense_CSHL.c ****                             curCtrdStartPos = i;
1407:.\Generated_Source\PSoC4/CapSense_CSHL.c ****                             curCntrdSize++;
1408:.\Generated_Source\PSoC4/CapSense_CSHL.c ****                         }
1409:.\Generated_Source\PSoC4/CapSense_CSHL.c ****                         else
1410:.\Generated_Source\PSoC4/CapSense_CSHL.c ****                         {
1411:.\Generated_Source\PSoC4/CapSense_CSHL.c ****                             curCntrdSize++;
1412:.\Generated_Source\PSoC4/CapSense_CSHL.c ****                         }
1413:.\Generated_Source\PSoC4/CapSense_CSHL.c ****                     }
1414:.\Generated_Source\PSoC4/CapSense_CSHL.c ****                     else   /* Select biggest and indicate zero start */
1415:.\Generated_Source\PSoC4/CapSense_CSHL.c ****                     {          
1416:.\Generated_Source\PSoC4/CapSense_CSHL.c ****                         if(curCntrdSize > 0u)
1417:.\Generated_Source\PSoC4/CapSense_CSHL.c ****                         {
1418:.\Generated_Source\PSoC4/CapSense_CSHL.c ****                             /* We are at the end of current */
1419:.\Generated_Source\PSoC4/CapSense_CSHL.c ****                             if(curCntrdSize > biggestCtrdSize)
1420:.\Generated_Source\PSoC4/CapSense_CSHL.c ****                             {
1421:.\Generated_Source\PSoC4/CapSense_CSHL.c ****                                 biggestCtrdSize = curCntrdSize;
1422:.\Generated_Source\PSoC4/CapSense_CSHL.c ****                                 biggestCtrdStartPos = curCtrdStartPos;
1423:.\Generated_Source\PSoC4/CapSense_CSHL.c ****                             }
1424:.\Generated_Source\PSoC4/CapSense_CSHL.c ****                             
1425:.\Generated_Source\PSoC4/CapSense_CSHL.c ****                             curCntrdSize = 0u;
1426:.\Generated_Source\PSoC4/CapSense_CSHL.c ****                             curCtrdStartPos = CapSense_MAXIMUM_CENTROID;
1427:.\Generated_Source\PSoC4/CapSense_CSHL.c ****                         }
1428:.\Generated_Source\PSoC4/CapSense_CSHL.c ****                     }
1429:.\Generated_Source\PSoC4/CapSense_CSHL.c ****                     
1430:.\Generated_Source\PSoC4/CapSense_CSHL.c ****                     i++; 
1431:.\Generated_Source\PSoC4/CapSense_CSHL.c ****                     curPos = diplex[i];
1432:.\Generated_Source\PSoC4/CapSense_CSHL.c ****                     if(i == count)
1433:.\Generated_Source\PSoC4/CapSense_CSHL.c ****                     {
1434:.\Generated_Source\PSoC4/CapSense_CSHL.c ****                         break;
1435:.\Generated_Source\PSoC4/CapSense_CSHL.c ****                     }            
1436:.\Generated_Source\PSoC4/CapSense_CSHL.c ****                 }
1437:.\Generated_Source\PSoC4/CapSense_CSHL.c ****                     
1438:.\Generated_Source\PSoC4/CapSense_CSHL.c ****                     /* Find biggest centroid if two are same size, last one wins
1439:.\Generated_Source\PSoC4/CapSense_CSHL.c ****                        We are at the end of current */
1440:.\Generated_Source\PSoC4/CapSense_CSHL.c ****                 if (curCntrdSize >= biggestCtrdSize) 
1441:.\Generated_Source\PSoC4/CapSense_CSHL.c ****                 {
ARM GAS  C:\Users\kevin\AppData\Local\Temp\ccCzthOk.s 			page 31


1442:.\Generated_Source\PSoC4/CapSense_CSHL.c ****                     biggestCtrdSize = curCntrdSize;
1443:.\Generated_Source\PSoC4/CapSense_CSHL.c ****                     biggestCtrdStartPos = curCtrdStartPos;
1444:.\Generated_Source\PSoC4/CapSense_CSHL.c ****                 }
1445:.\Generated_Source\PSoC4/CapSense_CSHL.c ****             }
1446:.\Generated_Source\PSoC4/CapSense_CSHL.c ****             else
1447:.\Generated_Source\PSoC4/CapSense_CSHL.c ****             {
1448:.\Generated_Source\PSoC4/CapSense_CSHL.c ****                 /* Without diplexing */ 
1449:.\Generated_Source\PSoC4/CapSense_CSHL.c ****                 biggestCtrdSize = count;
1450:.\Generated_Source\PSoC4/CapSense_CSHL.c ****             }
1451:.\Generated_Source\PSoC4/CapSense_CSHL.c ****                         
1452:.\Generated_Source\PSoC4/CapSense_CSHL.c **** 
1453:.\Generated_Source\PSoC4/CapSense_CSHL.c ****             /* Check centroid size */
1454:.\Generated_Source\PSoC4/CapSense_CSHL.c ****             #if (CapSense_IS_NON_DIPLEX_SLIDER)
1455:.\Generated_Source\PSoC4/CapSense_CSHL.c ****                 if((biggestCtrdSize >= 2u) || ((biggestCtrdSize == 1u) && (diplex == 0u)))
1456:.\Generated_Source\PSoC4/CapSense_CSHL.c ****             #else                    
1457:.\Generated_Source\PSoC4/CapSense_CSHL.c ****                 if(biggestCtrdSize >= 2u)
1458:.\Generated_Source\PSoC4/CapSense_CSHL.c ****             #endif /* (CapSense_IS_NON_DIPLEX_SLIDER) */
1459:.\Generated_Source\PSoC4/CapSense_CSHL.c ****                 {
1460:.\Generated_Source\PSoC4/CapSense_CSHL.c ****                     for (i = biggestCtrdStartPos; i < (biggestCtrdStartPos + biggestCtrdSize); i++)
1461:.\Generated_Source\PSoC4/CapSense_CSHL.c ****                     {
1462:.\Generated_Source\PSoC4/CapSense_CSHL.c ****                         #if (CapSense_IS_DIPLEX_SLIDER && CapSense_IS_NON_DIPLEX_SLIDER)
1463:.\Generated_Source\PSoC4/CapSense_CSHL.c ****                             if (diplex == 0u)
1464:.\Generated_Source\PSoC4/CapSense_CSHL.c ****                             {
1465:.\Generated_Source\PSoC4/CapSense_CSHL.c ****                                 curPos = i;
1466:.\Generated_Source\PSoC4/CapSense_CSHL.c ****                             }
1467:.\Generated_Source\PSoC4/CapSense_CSHL.c ****                             else
1468:.\Generated_Source\PSoC4/CapSense_CSHL.c ****                             {
1469:.\Generated_Source\PSoC4/CapSense_CSHL.c ****                                 curPos = diplex[i];
1470:.\Generated_Source\PSoC4/CapSense_CSHL.c ****                             }                    
1471:.\Generated_Source\PSoC4/CapSense_CSHL.c ****                         #elif (CapSense_IS_DIPLEX_SLIDER)                    
1472:.\Generated_Source\PSoC4/CapSense_CSHL.c ****                             curPos = diplex[i];                    
1473:.\Generated_Source\PSoC4/CapSense_CSHL.c ****                         #endif /* (CapSense_IS_DIPLEX_SLIDER && CapSense_IS_NON_DIPLEX_SLIDER) */
1474:.\Generated_Source\PSoC4/CapSense_CSHL.c ****                         /* Looking for greater element within centroid */
1475:.\Generated_Source\PSoC4/CapSense_CSHL.c ****                         if(startOfSlider[curPos] > fingerThreshold)
1476:.\Generated_Source\PSoC4/CapSense_CSHL.c ****                         {
1477:.\Generated_Source\PSoC4/CapSense_CSHL.c ****                             if(startOfSlider[curPos] > temp)
1478:.\Generated_Source\PSoC4/CapSense_CSHL.c ****                             {
1479:.\Generated_Source\PSoC4/CapSense_CSHL.c ****                                 maximum = i;
1480:.\Generated_Source\PSoC4/CapSense_CSHL.c ****                                 temp = startOfSlider[curPos];
1481:.\Generated_Source\PSoC4/CapSense_CSHL.c ****                             }
1482:.\Generated_Source\PSoC4/CapSense_CSHL.c ****                         }
1483:.\Generated_Source\PSoC4/CapSense_CSHL.c ****                     }
1484:.\Generated_Source\PSoC4/CapSense_CSHL.c ****                 } 
1485:.\Generated_Source\PSoC4/CapSense_CSHL.c ****         #else
1486:.\Generated_Source\PSoC4/CapSense_CSHL.c ****             for (i = 0u; i < count; i++)
1487:.\Generated_Source\PSoC4/CapSense_CSHL.c ****             {                      
1488:.\Generated_Source\PSoC4/CapSense_CSHL.c ****                 /* Looking for greater element within centroid */
1489:.\Generated_Source\PSoC4/CapSense_CSHL.c ****                 if(startOfSlider[i] > fingerThreshold)
1490:.\Generated_Source\PSoC4/CapSense_CSHL.c ****                 {
1491:.\Generated_Source\PSoC4/CapSense_CSHL.c ****                     if(startOfSlider[i] > temp)
1492:.\Generated_Source\PSoC4/CapSense_CSHL.c ****                     {
1493:.\Generated_Source\PSoC4/CapSense_CSHL.c ****                         maximum = i;
1494:.\Generated_Source\PSoC4/CapSense_CSHL.c ****                         temp = startOfSlider[i];
1495:.\Generated_Source\PSoC4/CapSense_CSHL.c ****                     }
1496:.\Generated_Source\PSoC4/CapSense_CSHL.c ****                 }
1497:.\Generated_Source\PSoC4/CapSense_CSHL.c ****             }    
1498:.\Generated_Source\PSoC4/CapSense_CSHL.c ****         #endif /* (CapSense_IS_DIPLEX_SLIDER) */
ARM GAS  C:\Users\kevin\AppData\Local\Temp\ccCzthOk.s 			page 32


1499:.\Generated_Source\PSoC4/CapSense_CSHL.c ****         return (maximum);
1500:.\Generated_Source\PSoC4/CapSense_CSHL.c ****     }
1501:.\Generated_Source\PSoC4/CapSense_CSHL.c ****     
1502:.\Generated_Source\PSoC4/CapSense_CSHL.c ****     
1503:.\Generated_Source\PSoC4/CapSense_CSHL.c ****     /*******************************************************************************
1504:.\Generated_Source\PSoC4/CapSense_CSHL.c ****     * Function Name: CapSense_CalcCentroid
1505:.\Generated_Source\PSoC4/CapSense_CSHL.c ****     ********************************************************************************
1506:.\Generated_Source\PSoC4/CapSense_CSHL.c ****     *
1507:.\Generated_Source\PSoC4/CapSense_CSHL.c ****     * Summary:
1508:.\Generated_Source\PSoC4/CapSense_CSHL.c ****     *  Returns a position value calculated according to the index of the maximum element and API
1509:.\Generated_Source\PSoC4/CapSense_CSHL.c ****     *  resolution.
1510:.\Generated_Source\PSoC4/CapSense_CSHL.c ****     *
1511:.\Generated_Source\PSoC4/CapSense_CSHL.c ****     * Parameters:
1512:.\Generated_Source\PSoC4/CapSense_CSHL.c ****     *  type:  widget type.
1513:.\Generated_Source\PSoC4/CapSense_CSHL.c ****     *  diplex:  pointer to diplex table.
1514:.\Generated_Source\PSoC4/CapSense_CSHL.c ****     *  maximum:  Index of maximum element within centroid.
1515:.\Generated_Source\PSoC4/CapSense_CSHL.c ****     *  offset:   Start index of centroid in CapSense_sensorSignal[] array.
1516:.\Generated_Source\PSoC4/CapSense_CSHL.c ****     *  count:    Number of elements within centroid.
1517:.\Generated_Source\PSoC4/CapSense_CSHL.c ****     *  resolution:  multiplicator calculated according to centroid type and
1518:.\Generated_Source\PSoC4/CapSense_CSHL.c ****     *  API resolution.
1519:.\Generated_Source\PSoC4/CapSense_CSHL.c ****     *  noiseThreshold:  Noise threshold.
1520:.\Generated_Source\PSoC4/CapSense_CSHL.c ****     * 
1521:.\Generated_Source\PSoC4/CapSense_CSHL.c ****     * Return:
1522:.\Generated_Source\PSoC4/CapSense_CSHL.c ****     *  Returns a position value of the slider.
1523:.\Generated_Source\PSoC4/CapSense_CSHL.c **** 	*
1524:.\Generated_Source\PSoC4/CapSense_CSHL.c **** 	* Side Effects: 
1525:.\Generated_Source\PSoC4/CapSense_CSHL.c **** 	*  None
1526:.\Generated_Source\PSoC4/CapSense_CSHL.c **** 	* 
1527:.\Generated_Source\PSoC4/CapSense_CSHL.c ****     *******************************************************************************/
1528:.\Generated_Source\PSoC4/CapSense_CSHL.c **** #if (CapSense_TOTAL_TRACKPAD_GESTURES_COUNT > 0u)
1529:.\Generated_Source\PSoC4/CapSense_CSHL.c ****     uint8 CapSense_CalcCentroid(uint8 maximum, uint8 offset, 
1530:.\Generated_Source\PSoC4/CapSense_CSHL.c ****                                         uint8 count, uint32 resolution, uint8 noiseThreshold)
1531:.\Generated_Source\PSoC4/CapSense_CSHL.c **** #else								
1532:.\Generated_Source\PSoC4/CapSense_CSHL.c ****     uint8 CapSense_CalcCentroid(uint8 maximum, uint8 offset, 
1533:.\Generated_Source\PSoC4/CapSense_CSHL.c ****                                         uint8 count, uint16 resolution, uint8 noiseThreshold)						
1534:.\Generated_Source\PSoC4/CapSense_CSHL.c **** #endif /* (CapSense_TOTAL_TRACKPAD_GESTURES_COUNT > 0u) */
1535:.\Generated_Source\PSoC4/CapSense_CSHL.c ****     {
1536:.\Generated_Source\PSoC4/CapSense_CSHL.c ****         #if ((CapSense_TOTAL_LINEAR_SLIDERS_COUNT > 0u) || (CapSense_TOTAL_TOUCH_PADS_BASIC_COUNT >
1537:.\Generated_Source\PSoC4/CapSense_CSHL.c ****             uint8 posPrev;
1538:.\Generated_Source\PSoC4/CapSense_CSHL.c ****             uint8 posNext;
1539:.\Generated_Source\PSoC4/CapSense_CSHL.c ****         #endif /* ((CapSense_TOTAL_LINEAR_SLIDERS_COUNT>0u) || (CapSense_TOTAL_TOUCH_PADS_BASIC_COU
1540:.\Generated_Source\PSoC4/CapSense_CSHL.c ****         
1541:.\Generated_Source\PSoC4/CapSense_CSHL.c ****         /* Helps during centroid calculation */
1542:.\Generated_Source\PSoC4/CapSense_CSHL.c ****         #if (CapSense_TOTAL_CENTROIDS_BASIC_COUNT)
1543:.\Generated_Source\PSoC4/CapSense_CSHL.c **** 		    static uint8 CapSense_centroid[3u];
1544:.\Generated_Source\PSoC4/CapSense_CSHL.c ****         #endif  /* (CapSense_TOTAL_CENTROIDS_BASIC_COUNT) */
1545:.\Generated_Source\PSoC4/CapSense_CSHL.c ****                
1546:.\Generated_Source\PSoC4/CapSense_CSHL.c ****         #if (CapSense_IS_DIPLEX_SLIDER)                
1547:.\Generated_Source\PSoC4/CapSense_CSHL.c ****             uint8 pos;
1548:.\Generated_Source\PSoC4/CapSense_CSHL.c ****         #endif /* (CapSense_IS_DIPLEX_SLIDER) */
1549:.\Generated_Source\PSoC4/CapSense_CSHL.c **** 
1550:.\Generated_Source\PSoC4/CapSense_CSHL.c ****         uint8 position;
1551:.\Generated_Source\PSoC4/CapSense_CSHL.c ****         uint32 numerator;
1552:.\Generated_Source\PSoC4/CapSense_CSHL.c ****         int32 denominator;
1553:.\Generated_Source\PSoC4/CapSense_CSHL.c **** 		
1554:.\Generated_Source\PSoC4/CapSense_CSHL.c **** 		uint8  *startOfSlider = &CapSense_sensorSignal[offset];
1555:.\Generated_Source\PSoC4/CapSense_CSHL.c **** 		
ARM GAS  C:\Users\kevin\AppData\Local\Temp\ccCzthOk.s 			page 33


1556:.\Generated_Source\PSoC4/CapSense_CSHL.c ****         #if ((CapSense_TOTAL_LINEAR_SLIDERS_COUNT > 0u) || (CapSense_TOTAL_TOUCH_PADS_BASIC_COUNT >
1557:.\Generated_Source\PSoC4/CapSense_CSHL.c ****             posPrev = 0u;
1558:.\Generated_Source\PSoC4/CapSense_CSHL.c ****         #endif /* ((CapSense_TOTAL_LINEAR_SLIDERS_COUNT>0u) || (CapSense_TOTAL_TOUCH_PADS_BASIC_COU
1559:.\Generated_Source\PSoC4/CapSense_CSHL.c ****      
1560:.\Generated_Source\PSoC4/CapSense_CSHL.c ****         #if (CapSense_ADD_SLIDER_TYPE)
1561:.\Generated_Source\PSoC4/CapSense_CSHL.c ****             if(type == CapSense_TYPE_RADIAL_SLIDER)
1562:.\Generated_Source\PSoC4/CapSense_CSHL.c ****             {
1563:.\Generated_Source\PSoC4/CapSense_CSHL.c ****         #endif /* (CapSense_ADD_SLIDER_TYPE) */
1564:.\Generated_Source\PSoC4/CapSense_CSHL.c **** 
1565:.\Generated_Source\PSoC4/CapSense_CSHL.c ****             #if (CapSense_TOTAL_RADIAL_SLIDERS_COUNT > 0u)                
1566:.\Generated_Source\PSoC4/CapSense_CSHL.c ****                 /* Copy Signal to the centroid array */
1567:.\Generated_Source\PSoC4/CapSense_CSHL.c ****                 CapSense_centroid[CapSense_POS] = startOfSlider[maximum];
1568:.\Generated_Source\PSoC4/CapSense_CSHL.c ****                  
1569:.\Generated_Source\PSoC4/CapSense_CSHL.c ****                 /* Check borders for ROTARY Slider */
1570:.\Generated_Source\PSoC4/CapSense_CSHL.c ****                 if (maximum == 0u)                   /* Start of centroid */
1571:.\Generated_Source\PSoC4/CapSense_CSHL.c ****                 { 
1572:.\Generated_Source\PSoC4/CapSense_CSHL.c ****                     CapSense_centroid[CapSense_POS_PREV] = startOfSlider[count - 1u];
1573:.\Generated_Source\PSoC4/CapSense_CSHL.c ****                     CapSense_centroid[CapSense_POS_NEXT] = startOfSlider[1u];
1574:.\Generated_Source\PSoC4/CapSense_CSHL.c ****                 }
1575:.\Generated_Source\PSoC4/CapSense_CSHL.c ****                 else if (maximum == (count - 1u))    /* End of centroid */
1576:.\Generated_Source\PSoC4/CapSense_CSHL.c ****                 {
1577:.\Generated_Source\PSoC4/CapSense_CSHL.c ****                     CapSense_centroid[CapSense_POS_PREV] = startOfSlider[maximum - 1u];
1578:.\Generated_Source\PSoC4/CapSense_CSHL.c ****                     CapSense_centroid[CapSense_POS_NEXT] = startOfSlider[0u];
1579:.\Generated_Source\PSoC4/CapSense_CSHL.c ****                 }
1580:.\Generated_Source\PSoC4/CapSense_CSHL.c ****                 else                                /* Not first Not last */
1581:.\Generated_Source\PSoC4/CapSense_CSHL.c ****                 {
1582:.\Generated_Source\PSoC4/CapSense_CSHL.c ****                     CapSense_centroid[CapSense_POS_PREV] = startOfSlider[maximum - 1u];
1583:.\Generated_Source\PSoC4/CapSense_CSHL.c ****                     CapSense_centroid[CapSense_POS_NEXT] = startOfSlider[maximum + 1u];
1584:.\Generated_Source\PSoC4/CapSense_CSHL.c ****                 }
1585:.\Generated_Source\PSoC4/CapSense_CSHL.c ****             #endif /* (CapSense_TOTAL_RADIAL_SLIDERS_COUNT > 0u) */
1586:.\Generated_Source\PSoC4/CapSense_CSHL.c **** 
1587:.\Generated_Source\PSoC4/CapSense_CSHL.c ****         #if (CapSense_ADD_SLIDER_TYPE)
1588:.\Generated_Source\PSoC4/CapSense_CSHL.c ****             }
1589:.\Generated_Source\PSoC4/CapSense_CSHL.c ****             else
1590:.\Generated_Source\PSoC4/CapSense_CSHL.c ****             {
1591:.\Generated_Source\PSoC4/CapSense_CSHL.c ****         #endif /* (CapSense_ADD_SLIDER_TYPE) */
1592:.\Generated_Source\PSoC4/CapSense_CSHL.c **** 
1593:.\Generated_Source\PSoC4/CapSense_CSHL.c ****             #if ((CapSense_TOTAL_LINEAR_SLIDERS_COUNT > 0u) || (CapSense_TOTAL_TOUCH_PADS_BASIC_COU
1594:.\Generated_Source\PSoC4/CapSense_CSHL.c ****                 #if (CapSense_IS_DIPLEX_SLIDER && CapSense_IS_NON_DIPLEX_SLIDER)                   
1595:.\Generated_Source\PSoC4/CapSense_CSHL.c ****                     /* Calculate next and previous near to maximum */
1596:.\Generated_Source\PSoC4/CapSense_CSHL.c ****                     if(diplex == 0u)
1597:.\Generated_Source\PSoC4/CapSense_CSHL.c ****                     {
1598:.\Generated_Source\PSoC4/CapSense_CSHL.c ****                         pos     = maximum;
1599:.\Generated_Source\PSoC4/CapSense_CSHL.c ****                         posPrev = maximum - 1u;
1600:.\Generated_Source\PSoC4/CapSense_CSHL.c ****                         posNext = maximum + 1u; 
1601:.\Generated_Source\PSoC4/CapSense_CSHL.c ****                     }
1602:.\Generated_Source\PSoC4/CapSense_CSHL.c ****                     else
1603:.\Generated_Source\PSoC4/CapSense_CSHL.c ****                     {
1604:.\Generated_Source\PSoC4/CapSense_CSHL.c ****                         pos     = diplex[maximum];
1605:.\Generated_Source\PSoC4/CapSense_CSHL.c ****                         posPrev = diplex[maximum - 1u];
1606:.\Generated_Source\PSoC4/CapSense_CSHL.c ****                         posNext = diplex[maximum + 1u];
1607:.\Generated_Source\PSoC4/CapSense_CSHL.c ****                         count <<= 1u;
1608:.\Generated_Source\PSoC4/CapSense_CSHL.c ****                     }                    
1609:.\Generated_Source\PSoC4/CapSense_CSHL.c ****                 #elif (CapSense_IS_DIPLEX_SLIDER)
1610:.\Generated_Source\PSoC4/CapSense_CSHL.c ****                     /* Calculate next and previous near to maximum */
1611:.\Generated_Source\PSoC4/CapSense_CSHL.c ****                     pos     = diplex[maximum];
1612:.\Generated_Source\PSoC4/CapSense_CSHL.c ****                     posPrev = diplex[maximum - 1u];
ARM GAS  C:\Users\kevin\AppData\Local\Temp\ccCzthOk.s 			page 34


1613:.\Generated_Source\PSoC4/CapSense_CSHL.c ****                     posNext = diplex[maximum + 1u];
1614:.\Generated_Source\PSoC4/CapSense_CSHL.c ****                     count <<= 1u;                    
1615:.\Generated_Source\PSoC4/CapSense_CSHL.c ****                 #else                    
1616:.\Generated_Source\PSoC4/CapSense_CSHL.c ****                     /* Calculate next and previous near to maximum */
1617:.\Generated_Source\PSoC4/CapSense_CSHL.c ****                     if (maximum >= 1u)
1618:.\Generated_Source\PSoC4/CapSense_CSHL.c ****                     {
1619:.\Generated_Source\PSoC4/CapSense_CSHL.c ****                         posPrev = maximum - 1u;
1620:.\Generated_Source\PSoC4/CapSense_CSHL.c ****                     }
1621:.\Generated_Source\PSoC4/CapSense_CSHL.c ****                     posNext = maximum + 1u;
1622:.\Generated_Source\PSoC4/CapSense_CSHL.c ****                 #endif /* (CapSense_IS_DIPLEX_SLIDER && CapSense_IS_NON_DIPLEX_SLIDER) */
1623:.\Generated_Source\PSoC4/CapSense_CSHL.c ****                         
1624:.\Generated_Source\PSoC4/CapSense_CSHL.c ****                 /* Copy Signal to the centroid array */
1625:.\Generated_Source\PSoC4/CapSense_CSHL.c ****                 #if (CapSense_IS_DIPLEX_SLIDER)
1626:.\Generated_Source\PSoC4/CapSense_CSHL.c ****                     CapSense_centroid[CapSense_POS] = startOfSlider[pos];
1627:.\Generated_Source\PSoC4/CapSense_CSHL.c ****                 #else
1628:.\Generated_Source\PSoC4/CapSense_CSHL.c ****                     CapSense_centroid[CapSense_POS] = startOfSlider[maximum];
1629:.\Generated_Source\PSoC4/CapSense_CSHL.c ****                 #endif /* (CapSense_IS_DIPLEX_SLIDER) */
1630:.\Generated_Source\PSoC4/CapSense_CSHL.c ****                     
1631:.\Generated_Source\PSoC4/CapSense_CSHL.c ****                 /* Check borders for LINEAR Slider */
1632:.\Generated_Source\PSoC4/CapSense_CSHL.c ****                 if (maximum == 0u)                   /* Start of centroid */
1633:.\Generated_Source\PSoC4/CapSense_CSHL.c ****                 { 
1634:.\Generated_Source\PSoC4/CapSense_CSHL.c ****                     CapSense_centroid[CapSense_POS_PREV] = 0u;
1635:.\Generated_Source\PSoC4/CapSense_CSHL.c ****                     CapSense_centroid[CapSense_POS_NEXT] = startOfSlider[posNext];
1636:.\Generated_Source\PSoC4/CapSense_CSHL.c ****                 }
1637:.\Generated_Source\PSoC4/CapSense_CSHL.c ****                 else if (maximum == ((count) - 1u)) /* End of centroid */
1638:.\Generated_Source\PSoC4/CapSense_CSHL.c ****                 {
1639:.\Generated_Source\PSoC4/CapSense_CSHL.c ****                     CapSense_centroid[CapSense_POS_PREV] = startOfSlider[posPrev];
1640:.\Generated_Source\PSoC4/CapSense_CSHL.c ****                     CapSense_centroid[CapSense_POS_NEXT] = 0u;
1641:.\Generated_Source\PSoC4/CapSense_CSHL.c ****                 }
1642:.\Generated_Source\PSoC4/CapSense_CSHL.c ****                 else                                /* Not first Not last */
1643:.\Generated_Source\PSoC4/CapSense_CSHL.c ****                 {
1644:.\Generated_Source\PSoC4/CapSense_CSHL.c ****                     CapSense_centroid[CapSense_POS_PREV] = startOfSlider[posPrev];
1645:.\Generated_Source\PSoC4/CapSense_CSHL.c ****                     CapSense_centroid[CapSense_POS_NEXT] = startOfSlider[posNext];
1646:.\Generated_Source\PSoC4/CapSense_CSHL.c ****                 }
1647:.\Generated_Source\PSoC4/CapSense_CSHL.c ****             #endif /* ((CapSense_TOTAL_LINEAR_SLIDERS_COUNT>0u)||(CapSense_TOTAL_TOUCH_PADS_BASIC_C
1648:.\Generated_Source\PSoC4/CapSense_CSHL.c **** 
1649:.\Generated_Source\PSoC4/CapSense_CSHL.c ****         #if (CapSense_ADD_SLIDER_TYPE)
1650:.\Generated_Source\PSoC4/CapSense_CSHL.c ****             }
1651:.\Generated_Source\PSoC4/CapSense_CSHL.c ****         #endif /* (CapSense_ADD_SLIDER_TYPE) */
1652:.\Generated_Source\PSoC4/CapSense_CSHL.c ****     
1653:.\Generated_Source\PSoC4/CapSense_CSHL.c ****         /* Subtract noiseThreshold */
1654:.\Generated_Source\PSoC4/CapSense_CSHL.c ****         if(CapSense_centroid[CapSense_POS_PREV] > noiseThreshold)
1655:.\Generated_Source\PSoC4/CapSense_CSHL.c ****         {
1656:.\Generated_Source\PSoC4/CapSense_CSHL.c ****             CapSense_centroid[CapSense_POS_PREV] -= noiseThreshold;
1657:.\Generated_Source\PSoC4/CapSense_CSHL.c ****         }
1658:.\Generated_Source\PSoC4/CapSense_CSHL.c ****         else
1659:.\Generated_Source\PSoC4/CapSense_CSHL.c ****         {
1660:.\Generated_Source\PSoC4/CapSense_CSHL.c ****             CapSense_centroid[CapSense_POS_PREV] = 0u;
1661:.\Generated_Source\PSoC4/CapSense_CSHL.c ****         }
1662:.\Generated_Source\PSoC4/CapSense_CSHL.c ****         
1663:.\Generated_Source\PSoC4/CapSense_CSHL.c ****         /* Maximum always greater than fingerThreshold, so greater than noiseThreshold */
1664:.\Generated_Source\PSoC4/CapSense_CSHL.c ****         CapSense_centroid[CapSense_POS] -= noiseThreshold;
1665:.\Generated_Source\PSoC4/CapSense_CSHL.c ****         
1666:.\Generated_Source\PSoC4/CapSense_CSHL.c ****         /* Subtract noiseThreshold */
1667:.\Generated_Source\PSoC4/CapSense_CSHL.c ****         if(CapSense_centroid[CapSense_POS_NEXT] > noiseThreshold)
1668:.\Generated_Source\PSoC4/CapSense_CSHL.c ****         {
1669:.\Generated_Source\PSoC4/CapSense_CSHL.c ****             CapSense_centroid[CapSense_POS_NEXT] -= noiseThreshold;
ARM GAS  C:\Users\kevin\AppData\Local\Temp\ccCzthOk.s 			page 35


1670:.\Generated_Source\PSoC4/CapSense_CSHL.c ****         }
1671:.\Generated_Source\PSoC4/CapSense_CSHL.c ****         else
1672:.\Generated_Source\PSoC4/CapSense_CSHL.c ****         {
1673:.\Generated_Source\PSoC4/CapSense_CSHL.c ****             CapSense_centroid[CapSense_POS_NEXT] = 0u;
1674:.\Generated_Source\PSoC4/CapSense_CSHL.c ****         }
1675:.\Generated_Source\PSoC4/CapSense_CSHL.c ****         
1676:.\Generated_Source\PSoC4/CapSense_CSHL.c ****         
1677:.\Generated_Source\PSoC4/CapSense_CSHL.c ****         /* Si+1 - Si-1 */
1678:.\Generated_Source\PSoC4/CapSense_CSHL.c ****         numerator = (uint32) CapSense_centroid[CapSense_POS_NEXT] -
1679:.\Generated_Source\PSoC4/CapSense_CSHL.c ****                     (uint32) CapSense_centroid[CapSense_POS_PREV];
1680:.\Generated_Source\PSoC4/CapSense_CSHL.c **** 
1681:.\Generated_Source\PSoC4/CapSense_CSHL.c ****         /* Si+1 + Si + Si-1 */
1682:.\Generated_Source\PSoC4/CapSense_CSHL.c ****         denominator = (int32) CapSense_centroid[CapSense_POS_PREV] + 
1683:.\Generated_Source\PSoC4/CapSense_CSHL.c ****                       (int32) CapSense_centroid[CapSense_POS] + 
1684:.\Generated_Source\PSoC4/CapSense_CSHL.c ****                       (int32) CapSense_centroid[CapSense_POS_NEXT];
1685:.\Generated_Source\PSoC4/CapSense_CSHL.c ****         
1686:.\Generated_Source\PSoC4/CapSense_CSHL.c ****         /* (numerator/denominator) + maximum */
1687:.\Generated_Source\PSoC4/CapSense_CSHL.c ****         denominator = (((int32)(uint32)((uint32)numerator << 8u)/denominator) + (int32)(uint32)((ui
1688:.\Generated_Source\PSoC4/CapSense_CSHL.c **** 
1689:.\Generated_Source\PSoC4/CapSense_CSHL.c ****         #if(CapSense_TOTAL_RADIAL_SLIDERS_COUNT > 0u)
1690:.\Generated_Source\PSoC4/CapSense_CSHL.c ****             /* Only required for RADIAL Slider */
1691:.\Generated_Source\PSoC4/CapSense_CSHL.c ****             if(denominator < 0)
1692:.\Generated_Source\PSoC4/CapSense_CSHL.c ****             {
1693:.\Generated_Source\PSoC4/CapSense_CSHL.c ****                 denominator += (int32)((uint16)((uint16) count << 8u));
1694:.\Generated_Source\PSoC4/CapSense_CSHL.c ****             }
1695:.\Generated_Source\PSoC4/CapSense_CSHL.c ****         #endif /* (CapSense_TOTAL_RADIAL_SLIDERS_COUNT > 0u) */
1696:.\Generated_Source\PSoC4/CapSense_CSHL.c ****         
1697:.\Generated_Source\PSoC4/CapSense_CSHL.c ****         denominator *= (int16)resolution;
1698:.\Generated_Source\PSoC4/CapSense_CSHL.c ****         
1699:.\Generated_Source\PSoC4/CapSense_CSHL.c ****         /* Round result and put it to uint8 */
1700:.\Generated_Source\PSoC4/CapSense_CSHL.c ****         position = ((uint8) HI16((uint32)denominator + CapSense_CENTROID_ROUND_VALUE));
1701:.\Generated_Source\PSoC4/CapSense_CSHL.c **** 
1702:.\Generated_Source\PSoC4/CapSense_CSHL.c ****         return (position);
1703:.\Generated_Source\PSoC4/CapSense_CSHL.c ****     }    
1704:.\Generated_Source\PSoC4/CapSense_CSHL.c **** #endif /* (CapSense_TOTAL_CENTROIDS_BASIC_COUNT) */
1705:.\Generated_Source\PSoC4/CapSense_CSHL.c **** 
1706:.\Generated_Source\PSoC4/CapSense_CSHL.c **** 
1707:.\Generated_Source\PSoC4/CapSense_CSHL.c **** #if((CapSense_TOTAL_RADIAL_SLIDERS_COUNT > 0u) || (CapSense_TOTAL_LINEAR_SLIDERS_COUNT > 0u))
1708:.\Generated_Source\PSoC4/CapSense_CSHL.c ****     /*******************************************************************************
1709:.\Generated_Source\PSoC4/CapSense_CSHL.c ****     * Function Name: CapSense_GetCentroidPos
1710:.\Generated_Source\PSoC4/CapSense_CSHL.c ****     ********************************************************************************
1711:.\Generated_Source\PSoC4/CapSense_CSHL.c ****     *
1712:.\Generated_Source\PSoC4/CapSense_CSHL.c ****     * Summary:
1713:.\Generated_Source\PSoC4/CapSense_CSHL.c ****     *  Checks the CapSense_Signal[ ] array for a centroid within
1714:.\Generated_Source\PSoC4/CapSense_CSHL.c ****     *  a slider specified range. The centroid position is calculated according to the resolution
1715:.\Generated_Source\PSoC4/CapSense_CSHL.c ****     *  specified in the CapSense customizer. The position filters are applied to the
1716:.\Generated_Source\PSoC4/CapSense_CSHL.c ****     *  result if enabled.
1717:.\Generated_Source\PSoC4/CapSense_CSHL.c ****     *
1718:.\Generated_Source\PSoC4/CapSense_CSHL.c ****     * Parameters:
1719:.\Generated_Source\PSoC4/CapSense_CSHL.c ****     *  widget:  Widget number.
1720:.\Generated_Source\PSoC4/CapSense_CSHL.c ****     *  For every linear slider widget there are defines in this format:
1721:.\Generated_Source\PSoC4/CapSense_CSHL.c ****     *  #define CapSense_"widget_name"__LS           5
1722:.\Generated_Source\PSoC4/CapSense_CSHL.c ****     * 
1723:.\Generated_Source\PSoC4/CapSense_CSHL.c ****     * Return:
1724:.\Generated_Source\PSoC4/CapSense_CSHL.c ****     *  Returns a position value of the linear slider.
1725:.\Generated_Source\PSoC4/CapSense_CSHL.c **** 	*
1726:.\Generated_Source\PSoC4/CapSense_CSHL.c **** 	* Global Variables:
ARM GAS  C:\Users\kevin\AppData\Local\Temp\ccCzthOk.s 			page 36


1727:.\Generated_Source\PSoC4/CapSense_CSHL.c **** 	*  None
1728:.\Generated_Source\PSoC4/CapSense_CSHL.c **** 	*
1729:.\Generated_Source\PSoC4/CapSense_CSHL.c ****     * Side Effects:
1730:.\Generated_Source\PSoC4/CapSense_CSHL.c ****     *  If any sensor within the slider widget is active, the function returns values
1731:.\Generated_Source\PSoC4/CapSense_CSHL.c ****     *  from zero to the API resolution value set in the CapSense customizer. If no
1732:.\Generated_Source\PSoC4/CapSense_CSHL.c ****     *  sensors are active, the function returns 0xFFFF. If an error occurs during
1733:.\Generated_Source\PSoC4/CapSense_CSHL.c ****     *  execution of the centroid/diplexing algorithm, the function returns 0xFFFF.
1734:.\Generated_Source\PSoC4/CapSense_CSHL.c ****     *  There are no checks of the widget type argument provided to this function.
1735:.\Generated_Source\PSoC4/CapSense_CSHL.c ****     *  The unproper widget type provided will cause unexpected position calculations.
1736:.\Generated_Source\PSoC4/CapSense_CSHL.c ****     *
1737:.\Generated_Source\PSoC4/CapSense_CSHL.c ****     * Note:
1738:.\Generated_Source\PSoC4/CapSense_CSHL.c ****     *  If noise counts on the slider segments are greater than the noise
1739:.\Generated_Source\PSoC4/CapSense_CSHL.c ****     *  threshold, this subroutine may generate a false centroid result. The noise
1740:.\Generated_Source\PSoC4/CapSense_CSHL.c ****     *  threshold should be set carefully (high enough above the noise level) so
1741:.\Generated_Source\PSoC4/CapSense_CSHL.c ****     *  that noise will not generate a false centroid.
1742:.\Generated_Source\PSoC4/CapSense_CSHL.c ****     *******************************************************************************/
1743:.\Generated_Source\PSoC4/CapSense_CSHL.c ****     uint16 CapSense_GetCentroidPos(uint32 widget)
1744:.\Generated_Source\PSoC4/CapSense_CSHL.c ****     {
1745:.\Generated_Source\PSoC4/CapSense_CSHL.c ****         #if (CapSense_IS_DIPLEX_SLIDER)
1746:.\Generated_Source\PSoC4/CapSense_CSHL.c ****             const uint8 *diplex;
1747:.\Generated_Source\PSoC4/CapSense_CSHL.c ****         #endif /* (CapSense_IS_DIPLEX_SLIDER) */
1748:.\Generated_Source\PSoC4/CapSense_CSHL.c ****                 
1749:.\Generated_Source\PSoC4/CapSense_CSHL.c ****         #if (0u != CapSense_LINEAR_SLIDERS_POS_FILTERS_MASK)
1750:.\Generated_Source\PSoC4/CapSense_CSHL.c ****             uint8 posIndex;
1751:.\Generated_Source\PSoC4/CapSense_CSHL.c ****             uint8 firstTimeIndex = CapSense_posFiltersData[widget];
1752:.\Generated_Source\PSoC4/CapSense_CSHL.c ****             uint8 posFiltersMask = CapSense_posFiltersMask[widget];  
1753:.\Generated_Source\PSoC4/CapSense_CSHL.c ****         #endif /* (0u != CapSense_LINEAR_SLIDERS_POS_FILTERS_MASK) */
1754:.\Generated_Source\PSoC4/CapSense_CSHL.c **** 
1755:.\Generated_Source\PSoC4/CapSense_CSHL.c ****         #if ((0u != (CapSense_MEDIAN_FILTER & CapSense_LINEAR_SLIDERS_POS_FILTERS_MASK)) || \
1756:.\Generated_Source\PSoC4/CapSense_CSHL.c ****              (0u != (CapSense_AVERAGING_FILTER & CapSense_LINEAR_SLIDERS_POS_FILTERS_MASK)))
1757:.\Generated_Source\PSoC4/CapSense_CSHL.c ****             uint8 tempPos;
1758:.\Generated_Source\PSoC4/CapSense_CSHL.c ****         #endif /* ((0u != (CapSense_MEDIAN_FILTER & CapSense_LINEAR_SLIDERS_POS_FILTERS_MASK)) || \
1759:.\Generated_Source\PSoC4/CapSense_CSHL.c ****                *   (0u != (CapSense_AVERAGING_FILTER & CapSense_LINEAR_SLIDERS_POS_FILTERS_MASK)))
1760:.\Generated_Source\PSoC4/CapSense_CSHL.c ****                */
1761:.\Generated_Source\PSoC4/CapSense_CSHL.c **** 
1762:.\Generated_Source\PSoC4/CapSense_CSHL.c ****         uint8 maximum;
1763:.\Generated_Source\PSoC4/CapSense_CSHL.c ****         uint16 position;
1764:.\Generated_Source\PSoC4/CapSense_CSHL.c ****         uint8 offset = CapSense_rawDataIndex[widget];
1765:.\Generated_Source\PSoC4/CapSense_CSHL.c ****         uint8 count = CapSense_numberOfSensors[widget];
1766:.\Generated_Source\PSoC4/CapSense_CSHL.c ****                         
1767:.\Generated_Source\PSoC4/CapSense_CSHL.c ****         #if (CapSense_IS_DIPLEX_SLIDER)
1768:.\Generated_Source\PSoC4/CapSense_CSHL.c ****             if(widget < CapSense_TOTAL_DIPLEXED_SLIDERS_COUNT)
1769:.\Generated_Source\PSoC4/CapSense_CSHL.c ****             {
1770:.\Generated_Source\PSoC4/CapSense_CSHL.c ****                 maximum = CapSense_diplexTable[widget];
1771:.\Generated_Source\PSoC4/CapSense_CSHL.c ****                 diplex = &CapSense_diplexTable[maximum];
1772:.\Generated_Source\PSoC4/CapSense_CSHL.c ****             }
1773:.\Generated_Source\PSoC4/CapSense_CSHL.c ****             else
1774:.\Generated_Source\PSoC4/CapSense_CSHL.c ****             {
1775:.\Generated_Source\PSoC4/CapSense_CSHL.c ****                 diplex = 0u;
1776:.\Generated_Source\PSoC4/CapSense_CSHL.c ****             }
1777:.\Generated_Source\PSoC4/CapSense_CSHL.c ****         #endif /* (CapSense_IS_DIPLEX_SLIDER) */
1778:.\Generated_Source\PSoC4/CapSense_CSHL.c **** 
1779:.\Generated_Source\PSoC4/CapSense_CSHL.c **** 		/* Find Maximum within centroid */      
1780:.\Generated_Source\PSoC4/CapSense_CSHL.c **** 		#if (CapSense_IS_DIPLEX_SLIDER)        
1781:.\Generated_Source\PSoC4/CapSense_CSHL.c **** 			maximum = CapSense_FindMaximum(offset, count, (uint8)CapSense_fingerThreshold[widget], diplex);
1782:.\Generated_Source\PSoC4/CapSense_CSHL.c **** 		#else
1783:.\Generated_Source\PSoC4/CapSense_CSHL.c **** 			maximum = CapSense_FindMaximum(offset, count, (uint8)CapSense_fingerThreshold[widget]);
ARM GAS  C:\Users\kevin\AppData\Local\Temp\ccCzthOk.s 			page 37


1784:.\Generated_Source\PSoC4/CapSense_CSHL.c **** 		#endif /* (CapSense_IS_DIPLEX_SLIDER) */
1785:.\Generated_Source\PSoC4/CapSense_CSHL.c **** 
1786:.\Generated_Source\PSoC4/CapSense_CSHL.c ****         if (maximum != 0xFFu)
1787:.\Generated_Source\PSoC4/CapSense_CSHL.c ****         {
1788:.\Generated_Source\PSoC4/CapSense_CSHL.c ****             /* Calculate centroid */
1789:.\Generated_Source\PSoC4/CapSense_CSHL.c ****             position = (uint16) CapSense_CalcCentroid(maximum, 
1790:.\Generated_Source\PSoC4/CapSense_CSHL.c ****                          offset, count, CapSense_centroidMult[widget], CapSense_noiseThreshold[widg
1791:.\Generated_Source\PSoC4/CapSense_CSHL.c **** 
1792:.\Generated_Source\PSoC4/CapSense_CSHL.c ****             #if (0u != CapSense_LINEAR_SLIDERS_POS_FILTERS_MASK)
1793:.\Generated_Source\PSoC4/CapSense_CSHL.c ****                 /* Check if this linear slider has enabled filters */
1794:.\Generated_Source\PSoC4/CapSense_CSHL.c ****                 if (0u != (posFiltersMask & CapSense_ANY_POS_FILTER))
1795:.\Generated_Source\PSoC4/CapSense_CSHL.c ****                 {
1796:.\Generated_Source\PSoC4/CapSense_CSHL.c ****                     /* Calculate position to store filters data */
1797:.\Generated_Source\PSoC4/CapSense_CSHL.c ****                     posIndex  = firstTimeIndex + 1u;
1798:.\Generated_Source\PSoC4/CapSense_CSHL.c ****                     
1799:.\Generated_Source\PSoC4/CapSense_CSHL.c ****                     if (0u == CapSense_posFiltersData[firstTimeIndex])
1800:.\Generated_Source\PSoC4/CapSense_CSHL.c ****                     {
1801:.\Generated_Source\PSoC4/CapSense_CSHL.c ****                         /* Init filters */
1802:.\Generated_Source\PSoC4/CapSense_CSHL.c ****                         CapSense_posFiltersData[posIndex] = (uint8) position;
1803:.\Generated_Source\PSoC4/CapSense_CSHL.c ****                         #if ((0u != (CapSense_MEDIAN_FILTER & \
1804:.\Generated_Source\PSoC4/CapSense_CSHL.c ****                                      CapSense_LINEAR_SLIDERS_POS_FILTERS_MASK)) || \
1805:.\Generated_Source\PSoC4/CapSense_CSHL.c ****                              (0u != (CapSense_AVERAGING_FILTER & \
1806:.\Generated_Source\PSoC4/CapSense_CSHL.c ****                                      CapSense_LINEAR_SLIDERS_POS_FILTERS_MASK)))
1807:.\Generated_Source\PSoC4/CapSense_CSHL.c **** 
1808:.\Generated_Source\PSoC4/CapSense_CSHL.c ****                             if ( (0u != (posFiltersMask & CapSense_MEDIAN_FILTER)) || 
1809:.\Generated_Source\PSoC4/CapSense_CSHL.c ****                                  (0u != (posFiltersMask & CapSense_AVERAGING_FILTER)) )
1810:.\Generated_Source\PSoC4/CapSense_CSHL.c ****                             {
1811:.\Generated_Source\PSoC4/CapSense_CSHL.c ****                                 CapSense_posFiltersData[posIndex + 1u] = (uint8) position;
1812:.\Generated_Source\PSoC4/CapSense_CSHL.c ****                             }
1813:.\Generated_Source\PSoC4/CapSense_CSHL.c ****                         #endif /* ((0u != (CapSense_MEDIAN_FILTER & \
1814:.\Generated_Source\PSoC4/CapSense_CSHL.c ****                                *           CapSense_LINEAR_SLIDERS_POS_FILTERS_MASK)) || \
1815:.\Generated_Source\PSoC4/CapSense_CSHL.c ****                                *   (0u != (CapSense_AVERAGING_FILTER & \
1816:.\Generated_Source\PSoC4/CapSense_CSHL.c ****                                *           CapSense_LINEAR_SLIDERS_POS_FILTERS_MASK)))
1817:.\Generated_Source\PSoC4/CapSense_CSHL.c ****                                */
1818:.\Generated_Source\PSoC4/CapSense_CSHL.c ****                         
1819:.\Generated_Source\PSoC4/CapSense_CSHL.c ****                         CapSense_posFiltersData[firstTimeIndex] = 1u;
1820:.\Generated_Source\PSoC4/CapSense_CSHL.c ****                     }
1821:.\Generated_Source\PSoC4/CapSense_CSHL.c ****                     else
1822:.\Generated_Source\PSoC4/CapSense_CSHL.c ****                     {
1823:.\Generated_Source\PSoC4/CapSense_CSHL.c ****                         /* Do filtering */
1824:.\Generated_Source\PSoC4/CapSense_CSHL.c ****                         #if (0u != (CapSense_MEDIAN_FILTER & CapSense_LINEAR_SLIDERS_POS_FILTERS_MA
1825:.\Generated_Source\PSoC4/CapSense_CSHL.c ****                             if (0u != (posFiltersMask & CapSense_MEDIAN_FILTER))
1826:.\Generated_Source\PSoC4/CapSense_CSHL.c ****                             {
1827:.\Generated_Source\PSoC4/CapSense_CSHL.c ****                                 tempPos = (uint8) position;
1828:.\Generated_Source\PSoC4/CapSense_CSHL.c ****                                 position = CapSense_MedianFilter(position,
1829:.\Generated_Source\PSoC4/CapSense_CSHL.c ****                                                                 (uint16)CapSense_posFiltersData[pos
1830:.\Generated_Source\PSoC4/CapSense_CSHL.c ****                                                                 (uint16)CapSense_posFiltersData[pos
1831:.\Generated_Source\PSoC4/CapSense_CSHL.c ****                                 CapSense_posFiltersData[posIndex + 1u] =
1832:.\Generated_Source\PSoC4/CapSense_CSHL.c ****                                                                              CapSense_posFiltersDat
1833:.\Generated_Source\PSoC4/CapSense_CSHL.c ****                                 CapSense_posFiltersData[posIndex] = tempPos;
1834:.\Generated_Source\PSoC4/CapSense_CSHL.c ****                             }
1835:.\Generated_Source\PSoC4/CapSense_CSHL.c ****                         #endif /*(0u != (CapSense_MEDIAN_FILTER &
1836:.\Generated_Source\PSoC4/CapSense_CSHL.c ****                                *         CapSense_LINEAR_SLIDERS_POS_FILTERS_MASK))
1837:.\Generated_Source\PSoC4/CapSense_CSHL.c ****                                */
1838:.\Generated_Source\PSoC4/CapSense_CSHL.c **** 
1839:.\Generated_Source\PSoC4/CapSense_CSHL.c ****                         #if(0u!=(CapSense_AVERAGING_FILTER & CapSense_LINEAR_SLIDERS_POS_FILTERS_MA
1840:.\Generated_Source\PSoC4/CapSense_CSHL.c ****                             if (0u != (posFiltersMask & CapSense_AVERAGING_FILTER)) 
ARM GAS  C:\Users\kevin\AppData\Local\Temp\ccCzthOk.s 			page 38


1841:.\Generated_Source\PSoC4/CapSense_CSHL.c ****                             {
1842:.\Generated_Source\PSoC4/CapSense_CSHL.c ****                                 tempPos = (uint8) position;
1843:.\Generated_Source\PSoC4/CapSense_CSHL.c ****                                 position = CapSense_AveragingFilter(position,
1844:.\Generated_Source\PSoC4/CapSense_CSHL.c ****                                                                 (uint16)CapSense_posFiltersData[pos
1845:.\Generated_Source\PSoC4/CapSense_CSHL.c ****                                                                 (uint16)CapSense_posFiltersData[pos
1846:.\Generated_Source\PSoC4/CapSense_CSHL.c ****                                 CapSense_posFiltersData[posIndex+1u]=CapSense_posFiltersData[posInd
1847:.\Generated_Source\PSoC4/CapSense_CSHL.c ****                                 CapSense_posFiltersData[posIndex] = tempPos;
1848:.\Generated_Source\PSoC4/CapSense_CSHL.c ****                             }
1849:.\Generated_Source\PSoC4/CapSense_CSHL.c ****                         #endif /* (0u != (CapSense_AVERAGING_FILTER & \
1850:.\Generated_Source\PSoC4/CapSense_CSHL.c ****                                *           CapSense_LINEAR_SLIDERS_POS_FILTERS_MASK))
1851:.\Generated_Source\PSoC4/CapSense_CSHL.c ****                                */
1852:.\Generated_Source\PSoC4/CapSense_CSHL.c **** 
1853:.\Generated_Source\PSoC4/CapSense_CSHL.c ****                         #if (0u != (CapSense_IIR2_FILTER & CapSense_LINEAR_SLIDERS_POS_FILTERS_MASK
1854:.\Generated_Source\PSoC4/CapSense_CSHL.c ****                             if (0u != (posFiltersMask & CapSense_IIR2_FILTER)) 
1855:.\Generated_Source\PSoC4/CapSense_CSHL.c ****                             {
1856:.\Generated_Source\PSoC4/CapSense_CSHL.c ****                                 position = CapSense_IIR2Filter(position,
1857:.\Generated_Source\PSoC4/CapSense_CSHL.c ****                                                                     (uint16)CapSense_posFiltersData
1858:.\Generated_Source\PSoC4/CapSense_CSHL.c ****                                 CapSense_posFiltersData[posIndex] = (uint8) position;
1859:.\Generated_Source\PSoC4/CapSense_CSHL.c ****                             }
1860:.\Generated_Source\PSoC4/CapSense_CSHL.c ****                         #endif /* (0u != (CapSense_IIR2_FILTER & \
1861:.\Generated_Source\PSoC4/CapSense_CSHL.c ****                                *          CapSense_LINEAR_SLIDERS_POS_FILTERS_MASK))
1862:.\Generated_Source\PSoC4/CapSense_CSHL.c ****                                */
1863:.\Generated_Source\PSoC4/CapSense_CSHL.c **** 
1864:.\Generated_Source\PSoC4/CapSense_CSHL.c ****                         #if (0u != (CapSense_IIR4_FILTER & CapSense_LINEAR_SLIDERS_POS_FILTERS_MASK
1865:.\Generated_Source\PSoC4/CapSense_CSHL.c ****                             if (0u != (posFiltersMask & CapSense_IIR4_FILTER))
1866:.\Generated_Source\PSoC4/CapSense_CSHL.c ****                             {
1867:.\Generated_Source\PSoC4/CapSense_CSHL.c ****                                 position = CapSense_IIR4Filter(position,
1868:.\Generated_Source\PSoC4/CapSense_CSHL.c ****                                                                     (uint16)CapSense_posFiltersData
1869:.\Generated_Source\PSoC4/CapSense_CSHL.c ****                                 CapSense_posFiltersData[posIndex] = (uint8) position;
1870:.\Generated_Source\PSoC4/CapSense_CSHL.c ****                             }                                
1871:.\Generated_Source\PSoC4/CapSense_CSHL.c ****                         #endif /* (0u != (CapSense_IIR4_FILTER & \
1872:.\Generated_Source\PSoC4/CapSense_CSHL.c ****                                *          CapSense_LINEAR_SLIDERS_POS_FILTERS_MASK))
1873:.\Generated_Source\PSoC4/CapSense_CSHL.c ****                                */
1874:.\Generated_Source\PSoC4/CapSense_CSHL.c **** 
1875:.\Generated_Source\PSoC4/CapSense_CSHL.c ****                         #if (0u != (CapSense_JITTER_FILTER & CapSense_LINEAR_SLIDERS_POS_FILTERS_MA
1876:.\Generated_Source\PSoC4/CapSense_CSHL.c ****                             if (0u != (posFiltersMask & CapSense_JITTER_FILTER))
1877:.\Generated_Source\PSoC4/CapSense_CSHL.c ****                             {
1878:.\Generated_Source\PSoC4/CapSense_CSHL.c ****                                 position = CapSense_JitterFilter(position,
1879:.\Generated_Source\PSoC4/CapSense_CSHL.c ****                                                                     (uint16)CapSense_posFiltersData
1880:.\Generated_Source\PSoC4/CapSense_CSHL.c ****                                 CapSense_posFiltersData[posIndex] = (uint8) position;
1881:.\Generated_Source\PSoC4/CapSense_CSHL.c ****                             }
1882:.\Generated_Source\PSoC4/CapSense_CSHL.c ****                         #endif /* (0u != (CapSense_JITTER_FILTER & \
1883:.\Generated_Source\PSoC4/CapSense_CSHL.c ****                                *           CapSense_LINEAR_SLIDERS_POS_FILTERS_MASK))
1884:.\Generated_Source\PSoC4/CapSense_CSHL.c ****                                */
1885:.\Generated_Source\PSoC4/CapSense_CSHL.c ****                     }
1886:.\Generated_Source\PSoC4/CapSense_CSHL.c ****                 }
1887:.\Generated_Source\PSoC4/CapSense_CSHL.c ****             #endif /* (0u != CapSense_LINEAR_SLIDERS_POS_FILTERS_MASK) */
1888:.\Generated_Source\PSoC4/CapSense_CSHL.c **** 
1889:.\Generated_Source\PSoC4/CapSense_CSHL.c ****         }
1890:.\Generated_Source\PSoC4/CapSense_CSHL.c ****         else
1891:.\Generated_Source\PSoC4/CapSense_CSHL.c ****         {
1892:.\Generated_Source\PSoC4/CapSense_CSHL.c ****             /* Maximum wasn't found */
1893:.\Generated_Source\PSoC4/CapSense_CSHL.c ****             position = 0xFFFFu;
1894:.\Generated_Source\PSoC4/CapSense_CSHL.c **** 
1895:.\Generated_Source\PSoC4/CapSense_CSHL.c ****             #if(0u != CapSense_LINEAR_SLIDERS_POS_FILTERS_MASK)
1896:.\Generated_Source\PSoC4/CapSense_CSHL.c ****                 /* Reset filters */
1897:.\Generated_Source\PSoC4/CapSense_CSHL.c ****                 if(0u != (posFiltersMask & CapSense_ANY_POS_FILTER))
ARM GAS  C:\Users\kevin\AppData\Local\Temp\ccCzthOk.s 			page 39


1898:.\Generated_Source\PSoC4/CapSense_CSHL.c ****                 {
1899:.\Generated_Source\PSoC4/CapSense_CSHL.c ****                     CapSense_posFiltersData[firstTimeIndex] = 0u;
1900:.\Generated_Source\PSoC4/CapSense_CSHL.c ****                 }
1901:.\Generated_Source\PSoC4/CapSense_CSHL.c ****             #endif /* (0u != CapSense_LINEAR_SLIDERS_POS_FILTERS_MASK) */
1902:.\Generated_Source\PSoC4/CapSense_CSHL.c ****         }
1903:.\Generated_Source\PSoC4/CapSense_CSHL.c **** 
1904:.\Generated_Source\PSoC4/CapSense_CSHL.c ****         
1905:.\Generated_Source\PSoC4/CapSense_CSHL.c ****         return (position);
1906:.\Generated_Source\PSoC4/CapSense_CSHL.c ****     }
1907:.\Generated_Source\PSoC4/CapSense_CSHL.c **** #endif /* ((CapSense_TOTAL_RADIAL_SLIDERS_COUNT > 0u) || (CapSense_TOTAL_LINEAR_SLIDERS_COUNT > 0u)
1908:.\Generated_Source\PSoC4/CapSense_CSHL.c **** 
1909:.\Generated_Source\PSoC4/CapSense_CSHL.c **** 
1910:.\Generated_Source\PSoC4/CapSense_CSHL.c **** #if((CapSense_TOTAL_RADIAL_SLIDERS_COUNT > 0u) || (CapSense_TOTAL_LINEAR_SLIDERS_COUNT > 0u))
1911:.\Generated_Source\PSoC4/CapSense_CSHL.c ****     /*******************************************************************************
1912:.\Generated_Source\PSoC4/CapSense_CSHL.c ****     * Function Name: CapSense_GetRadialCentroidPos
1913:.\Generated_Source\PSoC4/CapSense_CSHL.c ****     ********************************************************************************
1914:.\Generated_Source\PSoC4/CapSense_CSHL.c ****     *
1915:.\Generated_Source\PSoC4/CapSense_CSHL.c ****     * Summary:
1916:.\Generated_Source\PSoC4/CapSense_CSHL.c ****     *  Checks the CapSense_Signal[ ] array for a centroid within
1917:.\Generated_Source\PSoC4/CapSense_CSHL.c ****     *  a slider specified range. The centroid position is calculated according to the resolution
1918:.\Generated_Source\PSoC4/CapSense_CSHL.c ****     *  specified in the CapSense customizer. The position filters are applied to the
1919:.\Generated_Source\PSoC4/CapSense_CSHL.c ****     *  result if enabled.
1920:.\Generated_Source\PSoC4/CapSense_CSHL.c ****     *
1921:.\Generated_Source\PSoC4/CapSense_CSHL.c ****     * Parameters:
1922:.\Generated_Source\PSoC4/CapSense_CSHL.c ****     *  widget:  Widget number.
1923:.\Generated_Source\PSoC4/CapSense_CSHL.c ****     *  For every radial slider widget there are defines in this format:
1924:.\Generated_Source\PSoC4/CapSense_CSHL.c ****     *  #define CapSense_"widget_name"__RS           5
1925:.\Generated_Source\PSoC4/CapSense_CSHL.c ****     * 
1926:.\Generated_Source\PSoC4/CapSense_CSHL.c ****     * Return:
1927:.\Generated_Source\PSoC4/CapSense_CSHL.c ****     *  Returns a position value of the radial slider.
1928:.\Generated_Source\PSoC4/CapSense_CSHL.c ****     *
1929:.\Generated_Source\PSoC4/CapSense_CSHL.c **** 	* Global Variables:
1930:.\Generated_Source\PSoC4/CapSense_CSHL.c **** 	*  None.
1931:.\Generated_Source\PSoC4/CapSense_CSHL.c **** 	*
1932:.\Generated_Source\PSoC4/CapSense_CSHL.c ****     * Side Effects:
1933:.\Generated_Source\PSoC4/CapSense_CSHL.c ****     *  If any sensor within the slider widget is active, the function returns values
1934:.\Generated_Source\PSoC4/CapSense_CSHL.c ****     *  from zero to the API resolution value set in the CapSense customizer. If no
1935:.\Generated_Source\PSoC4/CapSense_CSHL.c ****     *  sensors are active, the function returns 0xFFFF.
1936:.\Generated_Source\PSoC4/CapSense_CSHL.c ****     *  There are no checks of the widget type argument provided to this function.
1937:.\Generated_Source\PSoC4/CapSense_CSHL.c ****     *  The unproper widget type provided will cause unexpected position calculations.
1938:.\Generated_Source\PSoC4/CapSense_CSHL.c ****     *
1939:.\Generated_Source\PSoC4/CapSense_CSHL.c ****     * Note:
1940:.\Generated_Source\PSoC4/CapSense_CSHL.c ****     *  If noise counts on the slider segments are greater than the noise
1941:.\Generated_Source\PSoC4/CapSense_CSHL.c ****     *  threshold, this subroutine may generate a false centroid result. The noise
1942:.\Generated_Source\PSoC4/CapSense_CSHL.c ****     *  threshold should be set carefully (high enough above the noise level) so 
1943:.\Generated_Source\PSoC4/CapSense_CSHL.c ****     *  that noise will not generate a false centroid.
1944:.\Generated_Source\PSoC4/CapSense_CSHL.c ****     *
1945:.\Generated_Source\PSoC4/CapSense_CSHL.c ****     *******************************************************************************/
1946:.\Generated_Source\PSoC4/CapSense_CSHL.c ****      uint16 CapSense_GetRadialCentroidPos(uint32 widget)
1947:.\Generated_Source\PSoC4/CapSense_CSHL.c ****     {
1948:.\Generated_Source\PSoC4/CapSense_CSHL.c ****         #if (0u != CapSense_RADIAL_SLIDERS_POS_FILTERS_MASK)
1949:.\Generated_Source\PSoC4/CapSense_CSHL.c ****             uint8 posIndex;
1950:.\Generated_Source\PSoC4/CapSense_CSHL.c ****             uint8 firstTimeIndex = CapSense_posFiltersData[widget];
1951:.\Generated_Source\PSoC4/CapSense_CSHL.c ****             uint8 posFiltersMask = CapSense_posFiltersMask[widget]; 
1952:.\Generated_Source\PSoC4/CapSense_CSHL.c ****         #endif /* (0u != CapSense_RADIAL_SLIDERS_POS_FILTERS_MASK) */
1953:.\Generated_Source\PSoC4/CapSense_CSHL.c **** 
1954:.\Generated_Source\PSoC4/CapSense_CSHL.c ****         #if ((0u != (CapSense_MEDIAN_FILTER & CapSense_RADIAL_SLIDERS_POS_FILTERS_MASK)) || \
ARM GAS  C:\Users\kevin\AppData\Local\Temp\ccCzthOk.s 			page 40


1955:.\Generated_Source\PSoC4/CapSense_CSHL.c ****              (0u != (CapSense_AVERAGING_FILTER & CapSense_RADIAL_SLIDERS_POS_FILTERS_MASK)))
1956:.\Generated_Source\PSoC4/CapSense_CSHL.c ****             uint8 tempPos;
1957:.\Generated_Source\PSoC4/CapSense_CSHL.c ****         #endif /* ((0u != (CapSense_MEDIAN_FILTER & CapSense_RADIAL_SLIDERS_POS_FILTERS_MASK)) || \
1958:.\Generated_Source\PSoC4/CapSense_CSHL.c ****                *   (0u != (CapSense_AVERAGING_FILTER & CapSense_RADIAL_SLIDERS_POS_FILTERS_MASK)))
1959:.\Generated_Source\PSoC4/CapSense_CSHL.c ****                */
1960:.\Generated_Source\PSoC4/CapSense_CSHL.c **** 
1961:.\Generated_Source\PSoC4/CapSense_CSHL.c ****         uint8 maximum;
1962:.\Generated_Source\PSoC4/CapSense_CSHL.c ****         uint16 position;
1963:.\Generated_Source\PSoC4/CapSense_CSHL.c ****         uint8 offset = CapSense_rawDataIndex[widget];
1964:.\Generated_Source\PSoC4/CapSense_CSHL.c ****         uint8 count = CapSense_numberOfSensors[widget];
1965:.\Generated_Source\PSoC4/CapSense_CSHL.c **** 
1966:.\Generated_Source\PSoC4/CapSense_CSHL.c **** 		/* Find Maximum within centroid */      
1967:.\Generated_Source\PSoC4/CapSense_CSHL.c **** 		#if (CapSense_IS_DIPLEX_SLIDER)        
1968:.\Generated_Source\PSoC4/CapSense_CSHL.c **** 			maximum = CapSense_FindMaximum(offset, count, (uint8)CapSense_fingerThreshold[widget], 0u);
1969:.\Generated_Source\PSoC4/CapSense_CSHL.c **** 		#else
1970:.\Generated_Source\PSoC4/CapSense_CSHL.c **** 			maximum = CapSense_FindMaximum(offset, count, (uint8)CapSense_fingerThreshold[widget]);
1971:.\Generated_Source\PSoC4/CapSense_CSHL.c **** 		#endif /* (CapSense_IS_DIPLEX_SLIDER) */
1972:.\Generated_Source\PSoC4/CapSense_CSHL.c ****         
1973:.\Generated_Source\PSoC4/CapSense_CSHL.c ****         if (maximum != CapSense_MAXIMUM_CENTROID)
1974:.\Generated_Source\PSoC4/CapSense_CSHL.c ****         {
1975:.\Generated_Source\PSoC4/CapSense_CSHL.c ****             /* Calculate centroid */
1976:.\Generated_Source\PSoC4/CapSense_CSHL.c ****             position = (uint16) CapSense_CalcCentroid(maximum, 
1977:.\Generated_Source\PSoC4/CapSense_CSHL.c ****                          offset, count, CapSense_centroidMult[widget], CapSense_noiseThreshold[widg
1978:.\Generated_Source\PSoC4/CapSense_CSHL.c **** 
1979:.\Generated_Source\PSoC4/CapSense_CSHL.c ****             #if (0u != CapSense_RADIAL_SLIDERS_POS_FILTERS_MASK)
1980:.\Generated_Source\PSoC4/CapSense_CSHL.c ****                 /* Check if this Radial slider has enabled filters */
1981:.\Generated_Source\PSoC4/CapSense_CSHL.c ****                 if (0u != (posFiltersMask & CapSense_ANY_POS_FILTER))
1982:.\Generated_Source\PSoC4/CapSense_CSHL.c ****                 {
1983:.\Generated_Source\PSoC4/CapSense_CSHL.c ****                     /* Calculate position to store filters data */
1984:.\Generated_Source\PSoC4/CapSense_CSHL.c ****                     posIndex  = firstTimeIndex + 1u;
1985:.\Generated_Source\PSoC4/CapSense_CSHL.c ****                     
1986:.\Generated_Source\PSoC4/CapSense_CSHL.c ****                     if (0u == CapSense_posFiltersData[firstTimeIndex])
1987:.\Generated_Source\PSoC4/CapSense_CSHL.c ****                     {
1988:.\Generated_Source\PSoC4/CapSense_CSHL.c ****                         /* Init filters */
1989:.\Generated_Source\PSoC4/CapSense_CSHL.c ****                         CapSense_posFiltersData[posIndex] = (uint8) position;
1990:.\Generated_Source\PSoC4/CapSense_CSHL.c ****                         #if ((0u != (CapSense_MEDIAN_FILTER & \
1991:.\Generated_Source\PSoC4/CapSense_CSHL.c ****                                      CapSense_RADIAL_SLIDERS_POS_FILTERS_MASK)) || \
1992:.\Generated_Source\PSoC4/CapSense_CSHL.c ****                              (0u != (CapSense_AVERAGING_FILTER & \
1993:.\Generated_Source\PSoC4/CapSense_CSHL.c ****                                      CapSense_RADIAL_SLIDERS_POS_FILTERS_MASK)))
1994:.\Generated_Source\PSoC4/CapSense_CSHL.c **** 
1995:.\Generated_Source\PSoC4/CapSense_CSHL.c ****                             if ( (0u != (posFiltersMask & CapSense_MEDIAN_FILTER))  || 
1996:.\Generated_Source\PSoC4/CapSense_CSHL.c ****                                  (0u != (posFiltersMask & CapSense_AVERAGING_FILTER)) )
1997:.\Generated_Source\PSoC4/CapSense_CSHL.c ****                             {
1998:.\Generated_Source\PSoC4/CapSense_CSHL.c ****                                 CapSense_posFiltersData[posIndex + 1u] = (uint8) position;
1999:.\Generated_Source\PSoC4/CapSense_CSHL.c ****                             }
2000:.\Generated_Source\PSoC4/CapSense_CSHL.c ****                         #endif /* ((0u != (CapSense_MEDIAN_FILTER & \
2001:.\Generated_Source\PSoC4/CapSense_CSHL.c ****                                *           CapSense_RADIAL_SLIDERS_POS_FILTERS_MASK)) || \
2002:.\Generated_Source\PSoC4/CapSense_CSHL.c ****                                *   (0u != (CapSense_AVERAGING_FILTER & \
2003:.\Generated_Source\PSoC4/CapSense_CSHL.c ****                                *           CapSense_RADIAL_SLIDERS_POS_FILTERS_MASK)))
2004:.\Generated_Source\PSoC4/CapSense_CSHL.c ****                                */
2005:.\Generated_Source\PSoC4/CapSense_CSHL.c ****                         
2006:.\Generated_Source\PSoC4/CapSense_CSHL.c ****                         CapSense_posFiltersData[firstTimeIndex] = 1u;
2007:.\Generated_Source\PSoC4/CapSense_CSHL.c ****                     }
2008:.\Generated_Source\PSoC4/CapSense_CSHL.c ****                     else
2009:.\Generated_Source\PSoC4/CapSense_CSHL.c ****                     {
2010:.\Generated_Source\PSoC4/CapSense_CSHL.c ****                         /* Do filtering */
2011:.\Generated_Source\PSoC4/CapSense_CSHL.c ****                         #if (0u != (CapSense_MEDIAN_FILTER & CapSense_RADIAL_SLIDERS_POS_FILTERS_MA
ARM GAS  C:\Users\kevin\AppData\Local\Temp\ccCzthOk.s 			page 41


2012:.\Generated_Source\PSoC4/CapSense_CSHL.c ****                             if (0u != (posFiltersMask & CapSense_MEDIAN_FILTER))
2013:.\Generated_Source\PSoC4/CapSense_CSHL.c ****                             {
2014:.\Generated_Source\PSoC4/CapSense_CSHL.c ****                                 tempPos = (uint8) position;
2015:.\Generated_Source\PSoC4/CapSense_CSHL.c ****                                 position = CapSense_MedianFilter(position,
2016:.\Generated_Source\PSoC4/CapSense_CSHL.c ****                                                                         CapSense_posFiltersData[pos
2017:.\Generated_Source\PSoC4/CapSense_CSHL.c ****                                                                         CapSense_posFiltersData[pos
2018:.\Generated_Source\PSoC4/CapSense_CSHL.c ****                                 CapSense_posFiltersData[posIndex + 1u] = 
2019:.\Generated_Source\PSoC4/CapSense_CSHL.c ****                                                                               CapSense_posFiltersDa
2020:.\Generated_Source\PSoC4/CapSense_CSHL.c ****                                 CapSense_posFiltersData[posIndex] = tempPos;
2021:.\Generated_Source\PSoC4/CapSense_CSHL.c ****                             }
2022:.\Generated_Source\PSoC4/CapSense_CSHL.c ****                         #endif /* (0u != (CapSense_MEDIAN_FILTER & 
2023:.\Generated_Source\PSoC4/CapSense_CSHL.c ****                                *          CapSense_RADIAL_SLIDERS_POS_FILTERS_MASK))
2024:.\Generated_Source\PSoC4/CapSense_CSHL.c ****                                */
2025:.\Generated_Source\PSoC4/CapSense_CSHL.c **** 
2026:.\Generated_Source\PSoC4/CapSense_CSHL.c ****                         #if (0u != (CapSense_AVERAGING_FILTER & \
2027:.\Generated_Source\PSoC4/CapSense_CSHL.c ****                                     CapSense_RADIAL_SLIDERS_POS_FILTERS_MASK))
2028:.\Generated_Source\PSoC4/CapSense_CSHL.c ****                             if (0u != (posFiltersMask & CapSense_AVERAGING_FILTER))
2029:.\Generated_Source\PSoC4/CapSense_CSHL.c ****                             {
2030:.\Generated_Source\PSoC4/CapSense_CSHL.c ****                                 tempPos = (uint8) position;
2031:.\Generated_Source\PSoC4/CapSense_CSHL.c ****                                 position = CapSense_AveragingFilter(position, 
2032:.\Generated_Source\PSoC4/CapSense_CSHL.c ****                                                                        CapSense_posFiltersData[posI
2033:.\Generated_Source\PSoC4/CapSense_CSHL.c ****                                                                        CapSense_posFiltersData[posI
2034:.\Generated_Source\PSoC4/CapSense_CSHL.c ****                                 CapSense_posFiltersData[posIndex+1u]= CapSense_posFiltersData[posIn
2035:.\Generated_Source\PSoC4/CapSense_CSHL.c ****                                 CapSense_posFiltersData[posIndex] = tempPos;
2036:.\Generated_Source\PSoC4/CapSense_CSHL.c ****                             }
2037:.\Generated_Source\PSoC4/CapSense_CSHL.c ****                         #endif /* (0u != (CapSense_AVERAGING_FILTER & \
2038:.\Generated_Source\PSoC4/CapSense_CSHL.c ****                                *          CapSense_RADIAL_SLIDERS_POS_FILTERS_MASK))
2039:.\Generated_Source\PSoC4/CapSense_CSHL.c ****                                */
2040:.\Generated_Source\PSoC4/CapSense_CSHL.c **** 
2041:.\Generated_Source\PSoC4/CapSense_CSHL.c ****                         #if (0u != (CapSense_IIR2_FILTER & CapSense_RADIAL_SLIDERS_POS_FILTERS_MASK
2042:.\Generated_Source\PSoC4/CapSense_CSHL.c ****                             if (0u != (posFiltersMask & CapSense_IIR2_FILTER))
2043:.\Generated_Source\PSoC4/CapSense_CSHL.c ****                             {
2044:.\Generated_Source\PSoC4/CapSense_CSHL.c ****                                 position = CapSense_IIR2Filter(position,
2045:.\Generated_Source\PSoC4/CapSense_CSHL.c ****                                                                     (uint16)CapSense_posFiltersData
2046:.\Generated_Source\PSoC4/CapSense_CSHL.c ****                                 CapSense_posFiltersData[posIndex] = (uint8) position;
2047:.\Generated_Source\PSoC4/CapSense_CSHL.c ****                             }
2048:.\Generated_Source\PSoC4/CapSense_CSHL.c ****                         #endif /* (0u != (CapSense_IIR2_FILTER & 
2049:.\Generated_Source\PSoC4/CapSense_CSHL.c ****                                *          CapSense_RADIAL_SLIDERS_POS_FILTERS_MASK))
2050:.\Generated_Source\PSoC4/CapSense_CSHL.c ****                                */
2051:.\Generated_Source\PSoC4/CapSense_CSHL.c **** 
2052:.\Generated_Source\PSoC4/CapSense_CSHL.c ****                         #if (0u != (CapSense_IIR4_FILTER & CapSense_RADIAL_SLIDERS_POS_FILTERS_MASK
2053:.\Generated_Source\PSoC4/CapSense_CSHL.c ****                             if (0u != (posFiltersMask & CapSense_IIR4_FILTER))
2054:.\Generated_Source\PSoC4/CapSense_CSHL.c ****                             {
2055:.\Generated_Source\PSoC4/CapSense_CSHL.c ****                                 position = CapSense_IIR4Filter(position,
2056:.\Generated_Source\PSoC4/CapSense_CSHL.c ****                                                                     (uint16)CapSense_posFiltersData
2057:.\Generated_Source\PSoC4/CapSense_CSHL.c ****                                 CapSense_posFiltersData[posIndex] = (uint8) position;
2058:.\Generated_Source\PSoC4/CapSense_CSHL.c ****                             }
2059:.\Generated_Source\PSoC4/CapSense_CSHL.c ****                         #endif /* (0u != (CapSense_IIR4_FILTER & 
2060:.\Generated_Source\PSoC4/CapSense_CSHL.c ****                                *          CapSense_RADIAL_SLIDERS_POS_FILTERS_MASK))
2061:.\Generated_Source\PSoC4/CapSense_CSHL.c ****                                */
2062:.\Generated_Source\PSoC4/CapSense_CSHL.c **** 
2063:.\Generated_Source\PSoC4/CapSense_CSHL.c ****                         #if (0u != (CapSense_JITTER_FILTER & CapSense_RADIAL_SLIDERS_POS_FILTERS_MA
2064:.\Generated_Source\PSoC4/CapSense_CSHL.c ****                             if (0u != (posFiltersMask & CapSense_JITTER_FILTER))
2065:.\Generated_Source\PSoC4/CapSense_CSHL.c ****                             {
2066:.\Generated_Source\PSoC4/CapSense_CSHL.c ****                                 position = CapSense_JitterFilter(position, 
2067:.\Generated_Source\PSoC4/CapSense_CSHL.c ****                                                                          CapSense_posFiltersData[po
2068:.\Generated_Source\PSoC4/CapSense_CSHL.c ****                                 CapSense_posFiltersData[posIndex] = (uint8) position;
ARM GAS  C:\Users\kevin\AppData\Local\Temp\ccCzthOk.s 			page 42


2069:.\Generated_Source\PSoC4/CapSense_CSHL.c ****                             }
2070:.\Generated_Source\PSoC4/CapSense_CSHL.c ****                         #endif /* (0u != (CapSense_JITTER_FILTER &
2071:.\Generated_Source\PSoC4/CapSense_CSHL.c ****                                *           CapSense_RADIAL_SLIDERS_POS_FILTERS_MASK))
2072:.\Generated_Source\PSoC4/CapSense_CSHL.c ****                                */
2073:.\Generated_Source\PSoC4/CapSense_CSHL.c ****                     }
2074:.\Generated_Source\PSoC4/CapSense_CSHL.c ****                 }
2075:.\Generated_Source\PSoC4/CapSense_CSHL.c ****             #endif /* (0u != CapSense_RADIAL_SLIDERS_POS_FILTERS_MASK) */
2076:.\Generated_Source\PSoC4/CapSense_CSHL.c **** 
2077:.\Generated_Source\PSoC4/CapSense_CSHL.c ****         }
2078:.\Generated_Source\PSoC4/CapSense_CSHL.c ****         else
2079:.\Generated_Source\PSoC4/CapSense_CSHL.c ****         {
2080:.\Generated_Source\PSoC4/CapSense_CSHL.c ****             /* Maximum wasn't found?? */
2081:.\Generated_Source\PSoC4/CapSense_CSHL.c ****             position = 0xFFFFu;
2082:.\Generated_Source\PSoC4/CapSense_CSHL.c **** 
2083:.\Generated_Source\PSoC4/CapSense_CSHL.c ****             #if (0u != CapSense_RADIAL_SLIDERS_POS_FILTERS_MASK)
2084:.\Generated_Source\PSoC4/CapSense_CSHL.c ****                 /* Reset filters */
2085:.\Generated_Source\PSoC4/CapSense_CSHL.c ****                 if((posFiltersMask & CapSense_ANY_POS_FILTER) != 0u)
2086:.\Generated_Source\PSoC4/CapSense_CSHL.c ****                 {
2087:.\Generated_Source\PSoC4/CapSense_CSHL.c ****                     CapSense_posFiltersData[firstTimeIndex] = 0u;
2088:.\Generated_Source\PSoC4/CapSense_CSHL.c ****                 }
2089:.\Generated_Source\PSoC4/CapSense_CSHL.c ****             #endif /* (0u != CapSense_RADIAL_SLIDERS_POS_FILTERS_MASK) */
2090:.\Generated_Source\PSoC4/CapSense_CSHL.c ****         }
2091:.\Generated_Source\PSoC4/CapSense_CSHL.c ****         
2092:.\Generated_Source\PSoC4/CapSense_CSHL.c ****         return (position);
2093:.\Generated_Source\PSoC4/CapSense_CSHL.c ****     }
2094:.\Generated_Source\PSoC4/CapSense_CSHL.c **** #endif /* ((CapSense_TOTAL_RADIAL_SLIDERS_COUNT > 0u) || (CapSense_TOTAL_LINEAR_SLIDERS_COUNT > 0u)
2095:.\Generated_Source\PSoC4/CapSense_CSHL.c **** 
2096:.\Generated_Source\PSoC4/CapSense_CSHL.c **** 
2097:.\Generated_Source\PSoC4/CapSense_CSHL.c **** #if(CapSense_TOTAL_TOUCH_PADS_BASIC_COUNT > 0u)
2098:.\Generated_Source\PSoC4/CapSense_CSHL.c ****     /*******************************************************************************
2099:.\Generated_Source\PSoC4/CapSense_CSHL.c ****     * Function Name: CapSense_GetTouchCentroidPos
2100:.\Generated_Source\PSoC4/CapSense_CSHL.c ****     ********************************************************************************
2101:.\Generated_Source\PSoC4/CapSense_CSHL.c ****     *
2102:.\Generated_Source\PSoC4/CapSense_CSHL.c ****     * Summary:
2103:.\Generated_Source\PSoC4/CapSense_CSHL.c ****     *  If a finger is present on a touchpad, this function calculates the X and Y
2104:.\Generated_Source\PSoC4/CapSense_CSHL.c ****     *  position of the finger by calculating the centroids within touchpad specified
2105:.\Generated_Source\PSoC4/CapSense_CSHL.c ****     *  range. The X and Y positions are calculated according to the API resolutions set in the
2106:.\Generated_Source\PSoC4/CapSense_CSHL.c ****     *  CapSense customizer. Returns 1 if a finger is on the touchpad.
2107:.\Generated_Source\PSoC4/CapSense_CSHL.c ****     *  The position filter is applied to the result if enabled.
2108:.\Generated_Source\PSoC4/CapSense_CSHL.c ****     *  This function is available only if a touch pad is defined by the CapSense
2109:.\Generated_Source\PSoC4/CapSense_CSHL.c ****     *  customizer.
2110:.\Generated_Source\PSoC4/CapSense_CSHL.c ****     *
2111:.\Generated_Source\PSoC4/CapSense_CSHL.c ****     * Parameters:
2112:.\Generated_Source\PSoC4/CapSense_CSHL.c ****     *  widget:  Widget number. 
2113:.\Generated_Source\PSoC4/CapSense_CSHL.c ****     *  For every touchpad widget there are defines in this format:
2114:.\Generated_Source\PSoC4/CapSense_CSHL.c ****     *  #define CapSense_"widget_name"__TP            5
2115:.\Generated_Source\PSoC4/CapSense_CSHL.c ****     *
2116:.\Generated_Source\PSoC4/CapSense_CSHL.c ****     *  pos:     Pointer to the array of two uint16 elements, where result
2117:.\Generated_Source\PSoC4/CapSense_CSHL.c ****     *  result of calculation of X and Y position are stored.
2118:.\Generated_Source\PSoC4/CapSense_CSHL.c ****     *  pos[0u]  - position of X
2119:.\Generated_Source\PSoC4/CapSense_CSHL.c ****     *  pos[1u]  - position of Y
2120:.\Generated_Source\PSoC4/CapSense_CSHL.c ****     *
2121:.\Generated_Source\PSoC4/CapSense_CSHL.c ****     * Return:
2122:.\Generated_Source\PSoC4/CapSense_CSHL.c ****     *  Returns a 1 if a finger is on the touch pad, 0 - if not.
2123:.\Generated_Source\PSoC4/CapSense_CSHL.c **** 	*
2124:.\Generated_Source\PSoC4/CapSense_CSHL.c **** 	* Global Variables:
2125:.\Generated_Source\PSoC4/CapSense_CSHL.c **** 	*  None.
ARM GAS  C:\Users\kevin\AppData\Local\Temp\ccCzthOk.s 			page 43


2126:.\Generated_Source\PSoC4/CapSense_CSHL.c **** 	*
2127:.\Generated_Source\PSoC4/CapSense_CSHL.c ****     * Side Effects:
2128:.\Generated_Source\PSoC4/CapSense_CSHL.c ****     *   There are no checks of the widget type argument provided to this function.
2129:.\Generated_Source\PSoC4/CapSense_CSHL.c ****     *   The unproper widget type provided will cause unexpected position
2130:.\Generated_Source\PSoC4/CapSense_CSHL.c ****     *   calculations.
2131:.\Generated_Source\PSoC4/CapSense_CSHL.c ****     *
2132:.\Generated_Source\PSoC4/CapSense_CSHL.c ****     *******************************************************************************/
2133:.\Generated_Source\PSoC4/CapSense_CSHL.c ****     uint32 CapSense_GetTouchCentroidPos(uint32 widget, uint16* pos)
2134:.\Generated_Source\PSoC4/CapSense_CSHL.c ****     {
2135:.\Generated_Source\PSoC4/CapSense_CSHL.c ****         #if (0u != CapSense_TOUCH_PADS_POS_FILTERS_MASK)
2136:.\Generated_Source\PSoC4/CapSense_CSHL.c ****             uint8 posXIndex;
2137:.\Generated_Source\PSoC4/CapSense_CSHL.c ****             uint8 posYIndex;
2138:.\Generated_Source\PSoC4/CapSense_CSHL.c ****             uint8 firstTimeIndex = CapSense_posFiltersData[widget];
2139:.\Generated_Source\PSoC4/CapSense_CSHL.c ****             uint8 posFiltersMask = CapSense_posFiltersMask[widget];
2140:.\Generated_Source\PSoC4/CapSense_CSHL.c ****         #endif /* (0u != CapSense_TOUCH_PADS_POS_FILTERS_MASK) */
2141:.\Generated_Source\PSoC4/CapSense_CSHL.c **** 
2142:.\Generated_Source\PSoC4/CapSense_CSHL.c ****         #if ((0u != (CapSense_MEDIAN_FILTER & CapSense_TOUCH_PADS_POS_FILTERS_MASK)) || \
2143:.\Generated_Source\PSoC4/CapSense_CSHL.c ****              (0u != (CapSense_AVERAGING_FILTER & CapSense_TOUCH_PADS_POS_FILTERS_MASK)))
2144:.\Generated_Source\PSoC4/CapSense_CSHL.c ****             uint16 tempPos;
2145:.\Generated_Source\PSoC4/CapSense_CSHL.c ****         #endif /* ((0u != (CapSense_MEDIAN_FILTER & CapSense_TOUCH_PADS_POS_FILTERS_MASK)) || \
2146:.\Generated_Source\PSoC4/CapSense_CSHL.c ****                *   (0u != (CapSense_AVERAGING_FILTER & CapSense_TOUCH_PADS_POS_FILTERS_MASK)))
2147:.\Generated_Source\PSoC4/CapSense_CSHL.c ****                */
2148:.\Generated_Source\PSoC4/CapSense_CSHL.c **** 
2149:.\Generated_Source\PSoC4/CapSense_CSHL.c ****         uint8 MaxX;
2150:.\Generated_Source\PSoC4/CapSense_CSHL.c ****         uint8 MaxY;
2151:.\Generated_Source\PSoC4/CapSense_CSHL.c ****         uint8 posX;
2152:.\Generated_Source\PSoC4/CapSense_CSHL.c ****         uint8 posY;
2153:.\Generated_Source\PSoC4/CapSense_CSHL.c ****         uint32 touch = 0u;
2154:.\Generated_Source\PSoC4/CapSense_CSHL.c ****         uint8 offset = CapSense_rawDataIndex[widget];
2155:.\Generated_Source\PSoC4/CapSense_CSHL.c ****         uint8 count = CapSense_numberOfSensors[widget];
2156:.\Generated_Source\PSoC4/CapSense_CSHL.c ****         
2157:.\Generated_Source\PSoC4/CapSense_CSHL.c ****         /* Find Maximum within X centroid */
2158:.\Generated_Source\PSoC4/CapSense_CSHL.c ****         #if (CapSense_IS_DIPLEX_SLIDER)
2159:.\Generated_Source\PSoC4/CapSense_CSHL.c ****             MaxX = CapSense_FindMaximum(offset, count, CapSense_fingerThreshold[widget], 0u);
2160:.\Generated_Source\PSoC4/CapSense_CSHL.c ****         #else
2161:.\Generated_Source\PSoC4/CapSense_CSHL.c ****             MaxX = CapSense_FindMaximum(offset, count, CapSense_fingerThreshold[widget]);
2162:.\Generated_Source\PSoC4/CapSense_CSHL.c ****         #endif /* (CapSense_IS_DIPLEX_SLIDER) */
2163:.\Generated_Source\PSoC4/CapSense_CSHL.c **** 
2164:.\Generated_Source\PSoC4/CapSense_CSHL.c ****         if (MaxX != CapSense_MAXIMUM_CENTROID)
2165:.\Generated_Source\PSoC4/CapSense_CSHL.c ****         {
2166:.\Generated_Source\PSoC4/CapSense_CSHL.c ****             offset = CapSense_rawDataIndex[widget + 1u];
2167:.\Generated_Source\PSoC4/CapSense_CSHL.c ****             count = CapSense_numberOfSensors[widget + 1u];
2168:.\Generated_Source\PSoC4/CapSense_CSHL.c **** 
2169:.\Generated_Source\PSoC4/CapSense_CSHL.c ****             /* Find Maximum within Y centroid */
2170:.\Generated_Source\PSoC4/CapSense_CSHL.c ****             #if (CapSense_IS_DIPLEX_SLIDER)
2171:.\Generated_Source\PSoC4/CapSense_CSHL.c ****                 MaxY = CapSense_FindMaximum(offset, count, CapSense_fingerThreshold[widget + 1u], 0
2172:.\Generated_Source\PSoC4/CapSense_CSHL.c ****             #else
2173:.\Generated_Source\PSoC4/CapSense_CSHL.c ****                 MaxY = CapSense_FindMaximum(offset, count, CapSense_fingerThreshold[widget + 1u]);
2174:.\Generated_Source\PSoC4/CapSense_CSHL.c ****             #endif /* (CapSense_IS_DIPLEX_SLIDER) */
2175:.\Generated_Source\PSoC4/CapSense_CSHL.c **** 
2176:.\Generated_Source\PSoC4/CapSense_CSHL.c ****             if (MaxY != CapSense_MAXIMUM_CENTROID)
2177:.\Generated_Source\PSoC4/CapSense_CSHL.c ****             {
2178:.\Generated_Source\PSoC4/CapSense_CSHL.c ****                 /* X and Y maximums are found = true touch */
2179:.\Generated_Source\PSoC4/CapSense_CSHL.c ****                 touch = 1u;
2180:.\Generated_Source\PSoC4/CapSense_CSHL.c ****                 
2181:.\Generated_Source\PSoC4/CapSense_CSHL.c ****                 /* Calculate Y centroid */
2182:.\Generated_Source\PSoC4/CapSense_CSHL.c ****                 posY = CapSense_CalcCentroid(MaxY, offset, count, 
ARM GAS  C:\Users\kevin\AppData\Local\Temp\ccCzthOk.s 			page 44


2183:.\Generated_Source\PSoC4/CapSense_CSHL.c ****                             CapSense_centroidMult[widget + 1u], CapSense_noiseThreshold[widget + 1u
2184:.\Generated_Source\PSoC4/CapSense_CSHL.c ****                 
2185:.\Generated_Source\PSoC4/CapSense_CSHL.c ****                 /* Calculate X centroid */
2186:.\Generated_Source\PSoC4/CapSense_CSHL.c ****                 offset = CapSense_rawDataIndex[widget];
2187:.\Generated_Source\PSoC4/CapSense_CSHL.c ****                 count = CapSense_numberOfSensors[widget];
2188:.\Generated_Source\PSoC4/CapSense_CSHL.c ****                 
2189:.\Generated_Source\PSoC4/CapSense_CSHL.c ****                 posX = CapSense_CalcCentroid(MaxX, offset, count, 
2190:.\Generated_Source\PSoC4/CapSense_CSHL.c ****                             CapSense_centroidMult[widget],CapSense_noiseThreshold[widget]);
2191:.\Generated_Source\PSoC4/CapSense_CSHL.c ****     
2192:.\Generated_Source\PSoC4/CapSense_CSHL.c ****                 #if (0u != CapSense_TOUCH_PADS_POS_FILTERS_MASK)
2193:.\Generated_Source\PSoC4/CapSense_CSHL.c ****                     /* Check if this TP has enabled filters */
2194:.\Generated_Source\PSoC4/CapSense_CSHL.c ****                     if (0u != (posFiltersMask & CapSense_ANY_POS_FILTER))
2195:.\Generated_Source\PSoC4/CapSense_CSHL.c ****                     {
2196:.\Generated_Source\PSoC4/CapSense_CSHL.c ****                         /* Calculate position to store filters data */
2197:.\Generated_Source\PSoC4/CapSense_CSHL.c ****                         posXIndex  = firstTimeIndex + 1u;
2198:.\Generated_Source\PSoC4/CapSense_CSHL.c ****                         posYIndex  = CapSense_posFiltersData[widget + 1u];
2199:.\Generated_Source\PSoC4/CapSense_CSHL.c ****                         
2200:.\Generated_Source\PSoC4/CapSense_CSHL.c ****                         if (0u == CapSense_posFiltersData[firstTimeIndex])
2201:.\Generated_Source\PSoC4/CapSense_CSHL.c ****                         {
2202:.\Generated_Source\PSoC4/CapSense_CSHL.c ****                             /* Init filters */
2203:.\Generated_Source\PSoC4/CapSense_CSHL.c ****                             CapSense_posFiltersData[posXIndex] = posX;
2204:.\Generated_Source\PSoC4/CapSense_CSHL.c ****                             CapSense_posFiltersData[posYIndex] = posY;
2205:.\Generated_Source\PSoC4/CapSense_CSHL.c **** 
2206:.\Generated_Source\PSoC4/CapSense_CSHL.c ****                             #if((0u != (CapSense_MEDIAN_FILTER & \
2207:.\Generated_Source\PSoC4/CapSense_CSHL.c ****                                         CapSense_TOUCH_PADS_POS_FILTERS_MASK))|| \
2208:.\Generated_Source\PSoC4/CapSense_CSHL.c ****                                 (0u != (CapSense_AVERAGING_FILTER & \
2209:.\Generated_Source\PSoC4/CapSense_CSHL.c ****                                         CapSense_TOUCH_PADS_POS_FILTERS_MASK)))
2210:.\Generated_Source\PSoC4/CapSense_CSHL.c **** 
2211:.\Generated_Source\PSoC4/CapSense_CSHL.c ****                                 if ( (0u != (posFiltersMask & CapSense_MEDIAN_FILTER)) || 
2212:.\Generated_Source\PSoC4/CapSense_CSHL.c ****                                      (0u != (posFiltersMask & CapSense_AVERAGING_FILTER)) )
2213:.\Generated_Source\PSoC4/CapSense_CSHL.c ****                                 {
2214:.\Generated_Source\PSoC4/CapSense_CSHL.c ****                                     CapSense_posFiltersData[posXIndex + 1u] = posX;
2215:.\Generated_Source\PSoC4/CapSense_CSHL.c ****                                     CapSense_posFiltersData[posYIndex + 1u] = posY;
2216:.\Generated_Source\PSoC4/CapSense_CSHL.c ****                                 }
2217:.\Generated_Source\PSoC4/CapSense_CSHL.c ****                             #endif /* ((0u != (CapSense_MEDIAN_FILTER & \
2218:.\Generated_Source\PSoC4/CapSense_CSHL.c ****                                    *           CapSense_TOUCH_PADS_POS_FILTERS_MASK)) || \
2219:.\Generated_Source\PSoC4/CapSense_CSHL.c ****                                    *    (0u != (CapSense_AVERAGING_FILTER & \
2220:.\Generated_Source\PSoC4/CapSense_CSHL.c ****                                    *            CapSense_TOUCH_PADS_POS_FILTERS_MASK)))
2221:.\Generated_Source\PSoC4/CapSense_CSHL.c ****                                    */
2222:.\Generated_Source\PSoC4/CapSense_CSHL.c ****                             
2223:.\Generated_Source\PSoC4/CapSense_CSHL.c ****                             CapSense_posFiltersData[firstTimeIndex] = 1u;
2224:.\Generated_Source\PSoC4/CapSense_CSHL.c ****                         }
2225:.\Generated_Source\PSoC4/CapSense_CSHL.c ****                         else
2226:.\Generated_Source\PSoC4/CapSense_CSHL.c ****                         {
2227:.\Generated_Source\PSoC4/CapSense_CSHL.c ****                             /* Do filtering */
2228:.\Generated_Source\PSoC4/CapSense_CSHL.c ****                             #if (0u != (CapSense_MEDIAN_FILTER & CapSense_TOUCH_PADS_POS_FILTERS_MA
2229:.\Generated_Source\PSoC4/CapSense_CSHL.c ****                                 if (0u != (posFiltersMask & CapSense_MEDIAN_FILTER))
2230:.\Generated_Source\PSoC4/CapSense_CSHL.c ****                                 {
2231:.\Generated_Source\PSoC4/CapSense_CSHL.c ****                                     tempPos = posX;
2232:.\Generated_Source\PSoC4/CapSense_CSHL.c ****                                     posX = (uint8) CapSense_MedianFilter(posX,
2233:.\Generated_Source\PSoC4/CapSense_CSHL.c ****                                                                       CapSense_posFiltersData[posXI
2234:.\Generated_Source\PSoC4/CapSense_CSHL.c ****                                                                       CapSense_posFiltersData[posXI
2235:.\Generated_Source\PSoC4/CapSense_CSHL.c ****                                     CapSense_posFiltersData[posXIndex + 1u] = 
2236:.\Generated_Source\PSoC4/CapSense_CSHL.c ****                                                                              CapSense_posFiltersDat
2237:.\Generated_Source\PSoC4/CapSense_CSHL.c ****                                     CapSense_posFiltersData[posXIndex] = tempPos;
2238:.\Generated_Source\PSoC4/CapSense_CSHL.c ****                                     
2239:.\Generated_Source\PSoC4/CapSense_CSHL.c ****                                     tempPos = posY;
ARM GAS  C:\Users\kevin\AppData\Local\Temp\ccCzthOk.s 			page 45


2240:.\Generated_Source\PSoC4/CapSense_CSHL.c ****                                     posY = (uint8) CapSense_MedianFilter(posY,
2241:.\Generated_Source\PSoC4/CapSense_CSHL.c ****                                                                        CapSense_posFiltersData[posY
2242:.\Generated_Source\PSoC4/CapSense_CSHL.c ****                                                                        CapSense_posFiltersData[posY
2243:.\Generated_Source\PSoC4/CapSense_CSHL.c ****                                     CapSense_posFiltersData[posYIndex + 1u] = 
2244:.\Generated_Source\PSoC4/CapSense_CSHL.c ****                                                                              CapSense_posFiltersDat
2245:.\Generated_Source\PSoC4/CapSense_CSHL.c ****                                     CapSense_posFiltersData[posYIndex] = tempPos;
2246:.\Generated_Source\PSoC4/CapSense_CSHL.c ****                                 }
2247:.\Generated_Source\PSoC4/CapSense_CSHL.c ****                                 
2248:.\Generated_Source\PSoC4/CapSense_CSHL.c ****                             #endif /* (0u != (CapSense_MEDIAN_FILTER & \
2249:.\Generated_Source\PSoC4/CapSense_CSHL.c ****                                    *          CapSense_TOUCH_PADS_POS_FILTERS_MASK))
2250:.\Generated_Source\PSoC4/CapSense_CSHL.c ****                                    */
2251:.\Generated_Source\PSoC4/CapSense_CSHL.c **** 
2252:.\Generated_Source\PSoC4/CapSense_CSHL.c ****                             #if(0u !=(CapSense_AVERAGING_FILTER & CapSense_TOUCH_PADS_POS_FILTERS_M
2253:.\Generated_Source\PSoC4/CapSense_CSHL.c ****                                 if (0u != (posFiltersMask & CapSense_AVERAGING_FILTER))
2254:.\Generated_Source\PSoC4/CapSense_CSHL.c ****                                 {
2255:.\Generated_Source\PSoC4/CapSense_CSHL.c ****                                     tempPos = posX;
2256:.\Generated_Source\PSoC4/CapSense_CSHL.c ****                                     posX = (uint8) CapSense_AveragingFilter(posX,
2257:.\Generated_Source\PSoC4/CapSense_CSHL.c ****                                                                        CapSense_posFiltersData[posX
2258:.\Generated_Source\PSoC4/CapSense_CSHL.c ****                                                                        CapSense_posFiltersData[posX
2259:.\Generated_Source\PSoC4/CapSense_CSHL.c ****                                     CapSense_posFiltersData[posXIndex + 1u] = 
2260:.\Generated_Source\PSoC4/CapSense_CSHL.c ****                                                                              CapSense_posFiltersDat
2261:.\Generated_Source\PSoC4/CapSense_CSHL.c ****                                     CapSense_posFiltersData[posXIndex] = tempPos;
2262:.\Generated_Source\PSoC4/CapSense_CSHL.c ****                                     
2263:.\Generated_Source\PSoC4/CapSense_CSHL.c ****                                     tempPos = posY;
2264:.\Generated_Source\PSoC4/CapSense_CSHL.c ****                                     posY = (uint8) CapSense_AveragingFilter(posY, 
2265:.\Generated_Source\PSoC4/CapSense_CSHL.c ****                                                                       CapSense_posFiltersData[posYI
2266:.\Generated_Source\PSoC4/CapSense_CSHL.c ****                                                                       CapSense_posFiltersData[posYI
2267:.\Generated_Source\PSoC4/CapSense_CSHL.c ****                                     CapSense_posFiltersData[posYIndex + 1u] = 
2268:.\Generated_Source\PSoC4/CapSense_CSHL.c ****                                                                             CapSense_posFiltersData
2269:.\Generated_Source\PSoC4/CapSense_CSHL.c ****                                     CapSense_posFiltersData[posYIndex] = tempPos;
2270:.\Generated_Source\PSoC4/CapSense_CSHL.c ****                                 }
2271:.\Generated_Source\PSoC4/CapSense_CSHL.c **** 
2272:.\Generated_Source\PSoC4/CapSense_CSHL.c ****                             #endif /* (0u != (CapSense_AVERAGING_FILTER & \
2273:.\Generated_Source\PSoC4/CapSense_CSHL.c ****                                    *           CapSense_TOUCH_PADS_POS_FILTERS_MASK))
2274:.\Generated_Source\PSoC4/CapSense_CSHL.c ****                                    */
2275:.\Generated_Source\PSoC4/CapSense_CSHL.c **** 
2276:.\Generated_Source\PSoC4/CapSense_CSHL.c ****                             #if (0u != (CapSense_IIR2_FILTER & CapSense_TOUCH_PADS_POS_FILTERS_MASK
2277:.\Generated_Source\PSoC4/CapSense_CSHL.c ****                                 if (0u != (posFiltersMask & CapSense_IIR2_FILTER))
2278:.\Generated_Source\PSoC4/CapSense_CSHL.c ****                                 {
2279:.\Generated_Source\PSoC4/CapSense_CSHL.c ****                                     posX = (uint8) CapSense_IIR2Filter(posX, 
2280:.\Generated_Source\PSoC4/CapSense_CSHL.c ****                                                                            CapSense_posFiltersData[
2281:.\Generated_Source\PSoC4/CapSense_CSHL.c ****                                     CapSense_posFiltersData[posXIndex] = posX;
2282:.\Generated_Source\PSoC4/CapSense_CSHL.c ****                                     
2283:.\Generated_Source\PSoC4/CapSense_CSHL.c ****                                     posY = (uint8) CapSense_IIR2Filter(posY, 
2284:.\Generated_Source\PSoC4/CapSense_CSHL.c ****                                                                             CapSense_posFiltersData
2285:.\Generated_Source\PSoC4/CapSense_CSHL.c ****                                     CapSense_posFiltersData[posYIndex] = posY;
2286:.\Generated_Source\PSoC4/CapSense_CSHL.c ****                                 }
2287:.\Generated_Source\PSoC4/CapSense_CSHL.c ****                                 
2288:.\Generated_Source\PSoC4/CapSense_CSHL.c ****                             #endif /* (0u != (CapSense_IIR2_FILTER & \
2289:.\Generated_Source\PSoC4/CapSense_CSHL.c ****                                    *          CapSense_TOUCH_PADS_POS_FILTERS_MASK))
2290:.\Generated_Source\PSoC4/CapSense_CSHL.c ****                                    */
2291:.\Generated_Source\PSoC4/CapSense_CSHL.c **** 
2292:.\Generated_Source\PSoC4/CapSense_CSHL.c ****                             #if (0u != (CapSense_IIR4_FILTER & CapSense_TOUCH_PADS_POS_FILTERS_MASK
2293:.\Generated_Source\PSoC4/CapSense_CSHL.c ****                                 if (0u != (posFiltersMask & CapSense_IIR4_FILTER))
2294:.\Generated_Source\PSoC4/CapSense_CSHL.c ****                                 {
2295:.\Generated_Source\PSoC4/CapSense_CSHL.c ****                                     posX = (uint8) CapSense_IIR4Filter((uint16)posX,
2296:.\Generated_Source\PSoC4/CapSense_CSHL.c ****                                                                     (uint16)CapSense_posFiltersData
ARM GAS  C:\Users\kevin\AppData\Local\Temp\ccCzthOk.s 			page 46


2297:.\Generated_Source\PSoC4/CapSense_CSHL.c ****                                     CapSense_posFiltersData[posXIndex] = posX;
2298:.\Generated_Source\PSoC4/CapSense_CSHL.c **** 
2299:.\Generated_Source\PSoC4/CapSense_CSHL.c ****                                     posY = (uint8) CapSense_IIR4Filter((uint16)posY,
2300:.\Generated_Source\PSoC4/CapSense_CSHL.c ****                                                                     (uint16)CapSense_posFiltersData
2301:.\Generated_Source\PSoC4/CapSense_CSHL.c ****                                     CapSense_posFiltersData[posYIndex] = posY;
2302:.\Generated_Source\PSoC4/CapSense_CSHL.c ****                                 }
2303:.\Generated_Source\PSoC4/CapSense_CSHL.c ****                                 
2304:.\Generated_Source\PSoC4/CapSense_CSHL.c ****                             #endif /* (0u != (CapSense_IIR4_FILTER & \
2305:.\Generated_Source\PSoC4/CapSense_CSHL.c ****                                    *           CapSense_TOUCH_PADS_POS_FILTERS_MASK))
2306:.\Generated_Source\PSoC4/CapSense_CSHL.c ****                                    */
2307:.\Generated_Source\PSoC4/CapSense_CSHL.c **** 
2308:.\Generated_Source\PSoC4/CapSense_CSHL.c ****                             #if (0u != (CapSense_JITTER_FILTER & CapSense_TOUCH_PADS_POS_FILTERS_MA
2309:.\Generated_Source\PSoC4/CapSense_CSHL.c ****                                 if (0u != (posFiltersMask & CapSense_JITTER_FILTER))
2310:.\Generated_Source\PSoC4/CapSense_CSHL.c ****                                     {
2311:.\Generated_Source\PSoC4/CapSense_CSHL.c ****                                         posX = (uint8) CapSense_JitterFilter(posX, 
2312:.\Generated_Source\PSoC4/CapSense_CSHL.c ****                                                                             CapSense_posFiltersData
2313:.\Generated_Source\PSoC4/CapSense_CSHL.c ****                                         CapSense_posFiltersData[posXIndex] = posX;
2314:.\Generated_Source\PSoC4/CapSense_CSHL.c ****                                         
2315:.\Generated_Source\PSoC4/CapSense_CSHL.c ****                                         posY = (uint8) CapSense_JitterFilter(posY, 
2316:.\Generated_Source\PSoC4/CapSense_CSHL.c ****                                                                             CapSense_posFiltersData
2317:.\Generated_Source\PSoC4/CapSense_CSHL.c ****                                         CapSense_posFiltersData[posYIndex] = posY;
2318:.\Generated_Source\PSoC4/CapSense_CSHL.c ****                                     }
2319:.\Generated_Source\PSoC4/CapSense_CSHL.c ****                             #endif /* (0u != (CapSense_JITTER_FILTER & \
2320:.\Generated_Source\PSoC4/CapSense_CSHL.c ****                                    *           CapSense_TOUCH_PADS_POS_FILTERS_MASK))
2321:.\Generated_Source\PSoC4/CapSense_CSHL.c ****                                    */
2322:.\Generated_Source\PSoC4/CapSense_CSHL.c ****                         }
2323:.\Generated_Source\PSoC4/CapSense_CSHL.c ****                     }
2324:.\Generated_Source\PSoC4/CapSense_CSHL.c ****                 #endif /* (0u != CapSense_TOUCH_PADS_POS_FILTERS_MASK) */
2325:.\Generated_Source\PSoC4/CapSense_CSHL.c **** 
2326:.\Generated_Source\PSoC4/CapSense_CSHL.c ****                 /* Save positions */
2327:.\Generated_Source\PSoC4/CapSense_CSHL.c ****                 pos[0u] = posX;
2328:.\Generated_Source\PSoC4/CapSense_CSHL.c ****                 pos[1u] = posY;
2329:.\Generated_Source\PSoC4/CapSense_CSHL.c ****             }
2330:.\Generated_Source\PSoC4/CapSense_CSHL.c ****         }
2331:.\Generated_Source\PSoC4/CapSense_CSHL.c **** 
2332:.\Generated_Source\PSoC4/CapSense_CSHL.c ****         #if (0u != CapSense_TOUCH_PADS_POS_FILTERS_MASK)
2333:.\Generated_Source\PSoC4/CapSense_CSHL.c ****             if(touch == 0u)
2334:.\Generated_Source\PSoC4/CapSense_CSHL.c ****             {
2335:.\Generated_Source\PSoC4/CapSense_CSHL.c ****                 /* Reset filters */
2336:.\Generated_Source\PSoC4/CapSense_CSHL.c ****                 if ((posFiltersMask & CapSense_ANY_POS_FILTER) != 0u)
2337:.\Generated_Source\PSoC4/CapSense_CSHL.c ****                 {
2338:.\Generated_Source\PSoC4/CapSense_CSHL.c ****                     CapSense_posFiltersData[firstTimeIndex] = 0u;
2339:.\Generated_Source\PSoC4/CapSense_CSHL.c ****                 }
2340:.\Generated_Source\PSoC4/CapSense_CSHL.c ****             }
2341:.\Generated_Source\PSoC4/CapSense_CSHL.c ****         #endif /* (0u != CapSense_TOUCH_PADS_POS_FILTERS_MASK) */
2342:.\Generated_Source\PSoC4/CapSense_CSHL.c ****         
2343:.\Generated_Source\PSoC4/CapSense_CSHL.c ****         return (touch);
2344:.\Generated_Source\PSoC4/CapSense_CSHL.c ****     }
2345:.\Generated_Source\PSoC4/CapSense_CSHL.c **** #endif /* (CapSense_TOTAL_TOUCH_PADS_BASIC_COUNT > 0u) */
2346:.\Generated_Source\PSoC4/CapSense_CSHL.c **** 
2347:.\Generated_Source\PSoC4/CapSense_CSHL.c **** 
2348:.\Generated_Source\PSoC4/CapSense_CSHL.c **** #if ( (0u != (CapSense_RAW_FILTER_MASK & CapSense_MEDIAN_FILTER)) || \
2349:.\Generated_Source\PSoC4/CapSense_CSHL.c ****       (0u != (CapSense_POS_FILTERS_MASK & CapSense_MEDIAN_FILTER)) || \
2350:.\Generated_Source\PSoC4/CapSense_CSHL.c ****       ((CapSense_TUNING_METHOD == CapSense__TUNING_AUTO)) )
2351:.\Generated_Source\PSoC4/CapSense_CSHL.c ****     /*******************************************************************************
2352:.\Generated_Source\PSoC4/CapSense_CSHL.c ****     * Function Name: CapSense_MedianFilter
2353:.\Generated_Source\PSoC4/CapSense_CSHL.c ****     ********************************************************************************
ARM GAS  C:\Users\kevin\AppData\Local\Temp\ccCzthOk.s 			page 47


2354:.\Generated_Source\PSoC4/CapSense_CSHL.c ****     *
2355:.\Generated_Source\PSoC4/CapSense_CSHL.c ****     * Summary:
2356:.\Generated_Source\PSoC4/CapSense_CSHL.c ****     *  This is the Median filter function. 
2357:.\Generated_Source\PSoC4/CapSense_CSHL.c ****     *  The median filter looks at the three most recent samples and reports the 
2358:.\Generated_Source\PSoC4/CapSense_CSHL.c ****     *  median value.
2359:.\Generated_Source\PSoC4/CapSense_CSHL.c ****     *
2360:.\Generated_Source\PSoC4/CapSense_CSHL.c ****     * Parameters:
2361:.\Generated_Source\PSoC4/CapSense_CSHL.c ****     *  x1:  Current value.
2362:.\Generated_Source\PSoC4/CapSense_CSHL.c ****     *  x2:  Previous value.
2363:.\Generated_Source\PSoC4/CapSense_CSHL.c ****     *  x3:  Before previous value.
2364:.\Generated_Source\PSoC4/CapSense_CSHL.c ****     *
2365:.\Generated_Source\PSoC4/CapSense_CSHL.c ****     * Return:
2366:.\Generated_Source\PSoC4/CapSense_CSHL.c ****     *  Returns filtered value.
2367:.\Generated_Source\PSoC4/CapSense_CSHL.c **** 	*
2368:.\Generated_Source\PSoC4/CapSense_CSHL.c **** 	* Global Variables:
2369:.\Generated_Source\PSoC4/CapSense_CSHL.c **** 	*  None.
2370:.\Generated_Source\PSoC4/CapSense_CSHL.c **** 	*
2371:.\Generated_Source\PSoC4/CapSense_CSHL.c **** 	* Side Effects:
2372:.\Generated_Source\PSoC4/CapSense_CSHL.c **** 	*  None
2373:.\Generated_Source\PSoC4/CapSense_CSHL.c **** 	* 
2374:.\Generated_Source\PSoC4/CapSense_CSHL.c ****     *******************************************************************************/
2375:.\Generated_Source\PSoC4/CapSense_CSHL.c ****     uint16 CapSense_MedianFilter(uint16 x1, uint16 x2, uint16 x3)
2376:.\Generated_Source\PSoC4/CapSense_CSHL.c ****     {
2377:.\Generated_Source\PSoC4/CapSense_CSHL.c ****         uint16 tmp;
2378:.\Generated_Source\PSoC4/CapSense_CSHL.c ****         
2379:.\Generated_Source\PSoC4/CapSense_CSHL.c ****         if (x1 > x2)
2380:.\Generated_Source\PSoC4/CapSense_CSHL.c ****         {
2381:.\Generated_Source\PSoC4/CapSense_CSHL.c ****             tmp = x2;
2382:.\Generated_Source\PSoC4/CapSense_CSHL.c ****             x2 = x1;
2383:.\Generated_Source\PSoC4/CapSense_CSHL.c ****             x1 = tmp;
2384:.\Generated_Source\PSoC4/CapSense_CSHL.c ****         }
2385:.\Generated_Source\PSoC4/CapSense_CSHL.c ****         
2386:.\Generated_Source\PSoC4/CapSense_CSHL.c ****         if (x2 > x3)
2387:.\Generated_Source\PSoC4/CapSense_CSHL.c ****         {
2388:.\Generated_Source\PSoC4/CapSense_CSHL.c ****             x2 = x3;
2389:.\Generated_Source\PSoC4/CapSense_CSHL.c ****         }
2390:.\Generated_Source\PSoC4/CapSense_CSHL.c ****         
2391:.\Generated_Source\PSoC4/CapSense_CSHL.c ****         return ((x1 > x2) ? x1 : x2);
2392:.\Generated_Source\PSoC4/CapSense_CSHL.c ****     }
2393:.\Generated_Source\PSoC4/CapSense_CSHL.c **** #endif /* ( (0u != (CapSense_RAW_FILTER_MASK & CapSense_MEDIAN_FILTER)) || \
2394:.\Generated_Source\PSoC4/CapSense_CSHL.c ****       (0u != (CapSense_POS_FILTERS_MASK & CapSense_MEDIAN_FILTER)) || \
2395:.\Generated_Source\PSoC4/CapSense_CSHL.c ****       ((CapSense_TUNING_METHOD == CapSense__TUNING_AUTO)) ) */
2396:.\Generated_Source\PSoC4/CapSense_CSHL.c **** 
2397:.\Generated_Source\PSoC4/CapSense_CSHL.c **** 
2398:.\Generated_Source\PSoC4/CapSense_CSHL.c **** #if ( (0u != (CapSense_RAW_FILTER_MASK & CapSense_AVERAGING_FILTER)) || \
2399:.\Generated_Source\PSoC4/CapSense_CSHL.c ****       (0u != (CapSense_POS_FILTERS_MASK & CapSense_AVERAGING_FILTER)) )
2400:.\Generated_Source\PSoC4/CapSense_CSHL.c ****     /*******************************************************************************
2401:.\Generated_Source\PSoC4/CapSense_CSHL.c ****     * Function Name: CapSense_AveragingFilter
2402:.\Generated_Source\PSoC4/CapSense_CSHL.c ****     ********************************************************************************
2403:.\Generated_Source\PSoC4/CapSense_CSHL.c ****     *
2404:.\Generated_Source\PSoC4/CapSense_CSHL.c ****     * Summary:
2405:.\Generated_Source\PSoC4/CapSense_CSHL.c ****     *  This is the Averaging filter function.
2406:.\Generated_Source\PSoC4/CapSense_CSHL.c ****     *  The averaging filter looks at the three most recent samples of a position and
2407:.\Generated_Source\PSoC4/CapSense_CSHL.c ****     *  reports the averaging value.
2408:.\Generated_Source\PSoC4/CapSense_CSHL.c ****     *
2409:.\Generated_Source\PSoC4/CapSense_CSHL.c ****     * Parameters:
2410:.\Generated_Source\PSoC4/CapSense_CSHL.c ****     *  x1:  Current value.
ARM GAS  C:\Users\kevin\AppData\Local\Temp\ccCzthOk.s 			page 48


2411:.\Generated_Source\PSoC4/CapSense_CSHL.c ****     *  x2:  Previous value.
2412:.\Generated_Source\PSoC4/CapSense_CSHL.c ****     *  x3:  Before previous value.
2413:.\Generated_Source\PSoC4/CapSense_CSHL.c ****     *
2414:.\Generated_Source\PSoC4/CapSense_CSHL.c ****     * Return:
2415:.\Generated_Source\PSoC4/CapSense_CSHL.c ****     *  Returns filtered value.
2416:.\Generated_Source\PSoC4/CapSense_CSHL.c **** 	*
2417:.\Generated_Source\PSoC4/CapSense_CSHL.c **** 	* Global Variables:
2418:.\Generated_Source\PSoC4/CapSense_CSHL.c **** 	*  None.
2419:.\Generated_Source\PSoC4/CapSense_CSHL.c **** 	*
2420:.\Generated_Source\PSoC4/CapSense_CSHL.c **** 	* Side Effects:
2421:.\Generated_Source\PSoC4/CapSense_CSHL.c **** 	*  None
2422:.\Generated_Source\PSoC4/CapSense_CSHL.c **** 	* 
2423:.\Generated_Source\PSoC4/CapSense_CSHL.c ****     *******************************************************************************/
2424:.\Generated_Source\PSoC4/CapSense_CSHL.c ****     uint16 CapSense_AveragingFilter(uint16 x1, uint16 x2, uint16 x3)
2425:.\Generated_Source\PSoC4/CapSense_CSHL.c ****     {
2426:.\Generated_Source\PSoC4/CapSense_CSHL.c ****         uint32 tmp = ((uint32)x1 + (uint32)x2 + (uint32)x3) / 3u;
2427:.\Generated_Source\PSoC4/CapSense_CSHL.c ****         
2428:.\Generated_Source\PSoC4/CapSense_CSHL.c ****         return ((uint16) tmp);
2429:.\Generated_Source\PSoC4/CapSense_CSHL.c ****     }
2430:.\Generated_Source\PSoC4/CapSense_CSHL.c **** #endif /* ( (0u != (CapSense_RAW_FILTER_MASK & CapSense_AVERAGING_FILTER) || \
2431:.\Generated_Source\PSoC4/CapSense_CSHL.c ****       (0u != (CapSense_POS_FILTERS_MASK & CapSense_AVERAGING_FILTER) ) */
2432:.\Generated_Source\PSoC4/CapSense_CSHL.c **** 
2433:.\Generated_Source\PSoC4/CapSense_CSHL.c **** 
2434:.\Generated_Source\PSoC4/CapSense_CSHL.c **** #if ( (0u != (CapSense_RAW_FILTER_MASK & CapSense_IIR2_FILTER)) || \
2435:.\Generated_Source\PSoC4/CapSense_CSHL.c ****       (0u != (CapSense_POS_FILTERS_MASK & CapSense_IIR2_FILTER)) )
2436:.\Generated_Source\PSoC4/CapSense_CSHL.c ****     /*******************************************************************************
2437:.\Generated_Source\PSoC4/CapSense_CSHL.c ****     * Function Name: CapSense_IIR2Filter
2438:.\Generated_Source\PSoC4/CapSense_CSHL.c ****     ********************************************************************************
2439:.\Generated_Source\PSoC4/CapSense_CSHL.c ****     *
2440:.\Generated_Source\PSoC4/CapSense_CSHL.c ****     * Summary:
2441:.\Generated_Source\PSoC4/CapSense_CSHL.c ****     *  This is the IIR1/2 filter function. IIR1/2 = 1/2current + 1/2previous.
2442:.\Generated_Source\PSoC4/CapSense_CSHL.c ****     *
2443:.\Generated_Source\PSoC4/CapSense_CSHL.c ****     * Parameters:
2444:.\Generated_Source\PSoC4/CapSense_CSHL.c ****     *  x1:  Current value.
2445:.\Generated_Source\PSoC4/CapSense_CSHL.c ****     *  x2:  Previous value.
2446:.\Generated_Source\PSoC4/CapSense_CSHL.c ****     *
2447:.\Generated_Source\PSoC4/CapSense_CSHL.c ****     * Return:
2448:.\Generated_Source\PSoC4/CapSense_CSHL.c ****     *  Returns filtered value.
2449:.\Generated_Source\PSoC4/CapSense_CSHL.c **** 	*
2450:.\Generated_Source\PSoC4/CapSense_CSHL.c **** 	* Global Variables:
2451:.\Generated_Source\PSoC4/CapSense_CSHL.c **** 	*  None.
2452:.\Generated_Source\PSoC4/CapSense_CSHL.c **** 	*
2453:.\Generated_Source\PSoC4/CapSense_CSHL.c **** 	* Side Effects:
2454:.\Generated_Source\PSoC4/CapSense_CSHL.c **** 	*  None
2455:.\Generated_Source\PSoC4/CapSense_CSHL.c **** 	* 
2456:.\Generated_Source\PSoC4/CapSense_CSHL.c ****     *******************************************************************************/
2457:.\Generated_Source\PSoC4/CapSense_CSHL.c ****     uint16 CapSense_IIR2Filter(uint16 x1, uint16 x2)
2458:.\Generated_Source\PSoC4/CapSense_CSHL.c ****     {
2459:.\Generated_Source\PSoC4/CapSense_CSHL.c ****         uint32 tmp;
2460:.\Generated_Source\PSoC4/CapSense_CSHL.c ****         
2461:.\Generated_Source\PSoC4/CapSense_CSHL.c ****         /* IIR = 1/2 Current Value+ 1/2 Previous Value */
2462:.\Generated_Source\PSoC4/CapSense_CSHL.c ****         tmp = (uint32)x1 + (uint32)x2;
2463:.\Generated_Source\PSoC4/CapSense_CSHL.c ****         tmp >>= 1u;
2464:.\Generated_Source\PSoC4/CapSense_CSHL.c ****     
2465:.\Generated_Source\PSoC4/CapSense_CSHL.c ****         return ((uint16) tmp);
2466:.\Generated_Source\PSoC4/CapSense_CSHL.c ****     }
2467:.\Generated_Source\PSoC4/CapSense_CSHL.c **** #endif /* ( (0u != (CapSense_RAW_FILTER_MASK & CapSense_IIR2_FILTER)) || \
ARM GAS  C:\Users\kevin\AppData\Local\Temp\ccCzthOk.s 			page 49


2468:.\Generated_Source\PSoC4/CapSense_CSHL.c ****        *    (0u != (CapSense_POS_FILTERS_MASK & CapSense_IIR2_FILTER)) )
2469:.\Generated_Source\PSoC4/CapSense_CSHL.c ****        */
2470:.\Generated_Source\PSoC4/CapSense_CSHL.c **** 
2471:.\Generated_Source\PSoC4/CapSense_CSHL.c **** 
2472:.\Generated_Source\PSoC4/CapSense_CSHL.c **** #if ( (0u != (CapSense_RAW_FILTER_MASK & CapSense_IIR4_FILTER)) || \
2473:.\Generated_Source\PSoC4/CapSense_CSHL.c ****       (0u != (CapSense_POS_FILTERS_MASK & CapSense_IIR4_FILTER)) )
2474:.\Generated_Source\PSoC4/CapSense_CSHL.c ****     /*******************************************************************************
2475:.\Generated_Source\PSoC4/CapSense_CSHL.c ****     * Function Name: CapSense_IIR4Filter
2476:.\Generated_Source\PSoC4/CapSense_CSHL.c ****     ********************************************************************************
2477:.\Generated_Source\PSoC4/CapSense_CSHL.c ****     *
2478:.\Generated_Source\PSoC4/CapSense_CSHL.c ****     * Summary:
2479:.\Generated_Source\PSoC4/CapSense_CSHL.c ****     *  This is the IIR1/4 filter function. IIR1/4 = 1/4current + 3/4previous.
2480:.\Generated_Source\PSoC4/CapSense_CSHL.c ****     *
2481:.\Generated_Source\PSoC4/CapSense_CSHL.c ****     * Parameters:
2482:.\Generated_Source\PSoC4/CapSense_CSHL.c ****     *  x1:  Current value.
2483:.\Generated_Source\PSoC4/CapSense_CSHL.c ****     *  x2:  Previous value.
2484:.\Generated_Source\PSoC4/CapSense_CSHL.c ****     *
2485:.\Generated_Source\PSoC4/CapSense_CSHL.c ****     * Return:
2486:.\Generated_Source\PSoC4/CapSense_CSHL.c ****     *  Returns a filtered value.
2487:.\Generated_Source\PSoC4/CapSense_CSHL.c **** 	*
2488:.\Generated_Source\PSoC4/CapSense_CSHL.c **** 	* Global Variables:
2489:.\Generated_Source\PSoC4/CapSense_CSHL.c **** 	*  None.
2490:.\Generated_Source\PSoC4/CapSense_CSHL.c **** 	*
2491:.\Generated_Source\PSoC4/CapSense_CSHL.c **** 	* Side Effects:
2492:.\Generated_Source\PSoC4/CapSense_CSHL.c **** 	*  None
2493:.\Generated_Source\PSoC4/CapSense_CSHL.c **** 	* 
2494:.\Generated_Source\PSoC4/CapSense_CSHL.c ****     *******************************************************************************/
2495:.\Generated_Source\PSoC4/CapSense_CSHL.c ****     uint16 CapSense_IIR4Filter(uint16 x1, uint16 x2)
2496:.\Generated_Source\PSoC4/CapSense_CSHL.c ****     {
2497:.\Generated_Source\PSoC4/CapSense_CSHL.c ****         uint32 tmp;
2498:.\Generated_Source\PSoC4/CapSense_CSHL.c ****         
2499:.\Generated_Source\PSoC4/CapSense_CSHL.c ****         /* IIR = 1/4 Current Value + 3/4 Previous Value */
2500:.\Generated_Source\PSoC4/CapSense_CSHL.c ****         tmp = (uint32)x1 + (uint32)x2;
 262              		.loc 1 2500 0
 263 0020 555A     		ldrh	r5, [r2, r1]
 264 0022 EB18     		add	r3, r5, r3
 265              	.LVL27:
2501:.\Generated_Source\PSoC4/CapSense_CSHL.c ****         tmp += ((uint32)x2 << 1u);
 266              		.loc 1 2501 0
 267 0024 6D00     		lsl	r5, r5, #1
 268 0026 5B19     		add	r3, r3, r5
 269              	.LVL28:
2502:.\Generated_Source\PSoC4/CapSense_CSHL.c ****         tmp >>= 2u;
2503:.\Generated_Source\PSoC4/CapSense_CSHL.c ****         
2504:.\Generated_Source\PSoC4/CapSense_CSHL.c ****         return ((uint16) tmp);
 270              		.loc 1 2504 0
 271 0028 9B08     		lsr	r3, r3, #2
 272              	.LVL29:
 273              	.LBE9:
 274              	.LBE8:
 395:.\Generated_Source\PSoC4/CapSense_CSHL.c **** 			CapSense_rawFilterData1[sensor] = filteredRawData;
 275              		.loc 1 395 0
 276 002a 5352     		strh	r3, [r2, r1]
 277              	.LVL30:
 278              	.L21:
 421:.\Generated_Source\PSoC4/CapSense_CSHL.c ****     if(filteredRawData >= CapSense_sensorBaseline[sensor])
 279              		.loc 1 421 0
ARM GAS  C:\Users\kevin\AppData\Local\Temp\ccCzthOk.s 			page 50


 280 002c 274F     		ldr	r7, .L40+20
 281 002e 0026     		mov	r6, #0
 282 0030 B95A     		ldrh	r1, [r7, r2]
 283 0032 8B42     		cmp	r3, r1
 284 0034 05D3     		bcc	.L22
 423:.\Generated_Source\PSoC4/CapSense_CSHL.c **** 		CapSense_lowBaselineResetCnt[sensor] = 0u;	
 285              		.loc 1 423 0
 286 0036 264A     		ldr	r2, .L40+24
 424:.\Generated_Source\PSoC4/CapSense_CSHL.c ****         tempRaw = filteredRawData - CapSense_sensorBaseline[sensor];
 287              		.loc 1 424 0
 288 0038 5D1A     		sub	r5, r3, r1
 423:.\Generated_Source\PSoC4/CapSense_CSHL.c **** 		CapSense_lowBaselineResetCnt[sensor] = 0u;	
 289              		.loc 1 423 0
 290 003a 1655     		strb	r6, [r2, r4]
 424:.\Generated_Source\PSoC4/CapSense_CSHL.c ****         tempRaw = filteredRawData - CapSense_sensorBaseline[sensor];
 291              		.loc 1 424 0
 292 003c ADB2     		uxth	r5, r5
 293              	.LVL31:
 425:.\Generated_Source\PSoC4/CapSense_CSHL.c ****         sign = 1u;    /* Positive difference - Calculate the Signal */
 294              		.loc 1 425 0
 295 003e 0122     		mov	r2, #1
 296 0040 13E0     		b	.L23
 297              	.LVL32:
 298              	.L22:
 429:.\Generated_Source\PSoC4/CapSense_CSHL.c ****         tempRaw = CapSense_sensorBaseline[sensor] - filteredRawData;
 299              		.loc 1 429 0
 300 0042 CD1A     		sub	r5, r1, r3
 301 0044 ADB2     		uxth	r5, r5
 302              	.LVL33:
 436:.\Generated_Source\PSoC4/CapSense_CSHL.c **** 	if((sign == 0u) && (tempRaw > (uint16) CapSense_NEGATIVE_NOISE_THRESHOLD))
 303              		.loc 1 436 0
 304 0046 142D     		cmp	r5, #20
 305 0048 0ED9     		bls	.L30
 439:.\Generated_Source\PSoC4/CapSense_CSHL.c ****         if(CapSense_lowBaselineResetCnt[sensor] >= CapSense_lowBaselineReset[sensor])
 306              		.loc 1 439 0
 307 004a 214F     		ldr	r7, .L40+24
 308 004c 0130     		add	r0, r0, #1
 309 004e 3B5D     		ldrb	r3, [r7, r4]
 310              	.LVL34:
 311 0050 025D     		ldrb	r2, [r0, r4]
 312 0052 9A42     		cmp	r2, r3
 313 0054 04D8     		bhi	.L24
 441:.\Generated_Source\PSoC4/CapSense_CSHL.c ****             CapSense_BaseInit(sensor);
 314              		.loc 1 441 0
 315 0056 201C     		mov	r0, r4
 316 0058 FFF7FEFF 		bl	CapSense_BaseInit
 317              	.LVL35:
 442:.\Generated_Source\PSoC4/CapSense_CSHL.c ****             CapSense_lowBaselineResetCnt[sensor] = 0u;
 318              		.loc 1 442 0
 319 005c 3E55     		strb	r6, [r7, r4]
 320 005e 01E0     		b	.L38
 321              	.L24:
 446:.\Generated_Source\PSoC4/CapSense_CSHL.c ****             CapSense_lowBaselineResetCnt[sensor]++;
 322              		.loc 1 446 0
 323 0060 0133     		add	r3, r3, #1
 324 0062 3B55     		strb	r3, [r7, r4]
 325              	.L38:
ARM GAS  C:\Users\kevin\AppData\Local\Temp\ccCzthOk.s 			page 51


 430:.\Generated_Source\PSoC4/CapSense_CSHL.c ****         sign = 0u;    /* Negative difference - Do NOT calculate the Signal */
 326              		.loc 1 430 0
 327 0064 321C     		mov	r2, r6
 328 0066 17E0     		b	.L25
 329              	.LVL36:
 330              	.L30:
 331 0068 321C     		mov	r2, r6
 332              	.LVL37:
 333              	.L23:
 460:.\Generated_Source\PSoC4/CapSense_CSHL.c **** 			if ( (tempRaw <= noiseThreshold) || 
 334              		.loc 1 460 0
 335 006a 019E     		ldr	r6, [sp, #4]
 336 006c B542     		cmp	r5, r6
 337 006e 03D9     		bls	.L26
 460:.\Generated_Source\PSoC4/CapSense_CSHL.c **** 			if ( (tempRaw <= noiseThreshold) || 
 338              		.loc 1 460 0 is_stmt 0 discriminator 1
 339 0070 132D     		cmp	r5, #19
 340 0072 11D8     		bhi	.L25
 462:.\Generated_Source\PSoC4/CapSense_CSHL.c **** 				   && (sign == 0u)))
 341              		.loc 1 462 0 is_stmt 1
 342 0074 002A     		cmp	r2, #0
 343 0076 0ED1     		bne	.L31
 344              	.L26:
 468:.\Generated_Source\PSoC4/CapSense_CSHL.c ****                 calc |= (uint32) CapSense_sensorBaselineLow[sensor];
 345              		.loc 1 468 0
 346 0078 164E     		ldr	r6, .L40+28
 467:.\Generated_Source\PSoC4/CapSense_CSHL.c ****                 calc = (uint32) CapSense_sensorBaseline[sensor] << 8u;
 347              		.loc 1 467 0
 348 007a 0802     		lsl	r0, r1, #8
 468:.\Generated_Source\PSoC4/CapSense_CSHL.c ****                 calc |= (uint32) CapSense_sensorBaselineLow[sensor];
 349              		.loc 1 468 0
 350 007c 365D     		ldrb	r6, [r6, r4]
 351 007e 0643     		orr	r6, r0
 471:.\Generated_Source\PSoC4/CapSense_CSHL.c ****                 calc += filteredRawData;
 352              		.loc 1 471 0
 353 0080 711A     		sub	r1, r6, r1
 478:.\Generated_Source\PSoC4/CapSense_CSHL.c ****                 CapSense_sensorBaselineLow[sensor] = ((uint8) calc);
 354              		.loc 1 478 0
 355 0082 1448     		ldr	r0, .L40+28
 474:.\Generated_Source\PSoC4/CapSense_CSHL.c ****                 calc -= CapSense_sensorBaseline[sensor];
 356              		.loc 1 474 0
 357 0084 CB18     		add	r3, r1, r3
 358              	.LVL38:
 477:.\Generated_Source\PSoC4/CapSense_CSHL.c ****                 CapSense_sensorBaseline[sensor] = ((uint16) (calc >> 8u));
 359              		.loc 1 477 0
 360 0086 1E0A     		lsr	r6, r3, #8
 361 0088 6100     		lsl	r1, r4, #1
 478:.\Generated_Source\PSoC4/CapSense_CSHL.c ****                 CapSense_sensorBaselineLow[sensor] = ((uint8) calc);
 362              		.loc 1 478 0
 363 008a 0355     		strb	r3, [r0, r4]
 480:.\Generated_Source\PSoC4/CapSense_CSHL.c ****                 CapSense_lowBaselineResetCnt[sensor] = 0u;
 364              		.loc 1 480 0
 365 008c 104B     		ldr	r3, .L40+24
 366              	.LVL39:
 477:.\Generated_Source\PSoC4/CapSense_CSHL.c ****                 CapSense_sensorBaseline[sensor] = ((uint16) (calc >> 8u));
 367              		.loc 1 477 0
 368 008e 7E52     		strh	r6, [r7, r1]
ARM GAS  C:\Users\kevin\AppData\Local\Temp\ccCzthOk.s 			page 52


 480:.\Generated_Source\PSoC4/CapSense_CSHL.c ****                 CapSense_lowBaselineResetCnt[sensor] = 0u;
 369              		.loc 1 480 0
 370 0090 0021     		mov	r1, #0
 371 0092 1955     		strb	r1, [r3, r4]
 372 0094 00E0     		b	.L25
 373              	.LVL40:
 374              	.L31:
 375 0096 0122     		mov	r2, #1
 376              	.LVL41:
 377              	.L25:
 378 0098 0C4B     		ldr	r3, .L40+20
 487:.\Generated_Source\PSoC4/CapSense_CSHL.c ****     if((tempRaw > (uint16) noiseThreshold) && (sign != 0u))
 379              		.loc 1 487 0
 380 009a 019E     		ldr	r6, [sp, #4]
 493:.\Generated_Source\PSoC4/CapSense_CSHL.c ****                 CapSense_sensorSignal[sensor] = 0xFFu;
 381              		.loc 1 493 0
 382 009c 0933     		add	r3, r3, #9
 487:.\Generated_Source\PSoC4/CapSense_CSHL.c ****     if((tempRaw > (uint16) noiseThreshold) && (sign != 0u))
 383              		.loc 1 487 0
 384 009e B542     		cmp	r5, r6
 385 00a0 06D9     		bls	.L27
 487:.\Generated_Source\PSoC4/CapSense_CSHL.c ****     if((tempRaw > (uint16) noiseThreshold) && (sign != 0u))
 386              		.loc 1 487 0 is_stmt 0 discriminator 1
 387 00a2 002A     		cmp	r2, #0
 388 00a4 04D0     		beq	.L27
 493:.\Generated_Source\PSoC4/CapSense_CSHL.c ****                 CapSense_sensorSignal[sensor] = 0xFFu;
 389              		.loc 1 493 0 is_stmt 1
 390 00a6 FF22     		mov	r2, #255
 491:.\Generated_Source\PSoC4/CapSense_CSHL.c ****             if (tempRaw > 0xFFu)
 391              		.loc 1 491 0
 392 00a8 FF2D     		cmp	r5, #255
 393 00aa 02D8     		bhi	.L39
 497:.\Generated_Source\PSoC4/CapSense_CSHL.c ****                 CapSense_sensorSignal[sensor] = ((uint8) tempRaw);
 394              		.loc 1 497 0
 395 00ac 1D55     		strb	r5, [r3, r4]
 396 00ae 01E0     		b	.L20
 397              	.L27:
 506:.\Generated_Source\PSoC4/CapSense_CSHL.c ****         CapSense_sensorSignal[sensor] = 0u;
 398              		.loc 1 506 0
 399 00b0 0022     		mov	r2, #0
 400              	.L39:
 401 00b2 1A55     		strb	r2, [r3, r4]
 402              	.L20:
 513:.\Generated_Source\PSoC4/CapSense_CSHL.c **** }
 403              		.loc 1 513 0
 404              		@ sp needed
 405              	.LVL42:
 406 00b4 F7BD     		pop	{r0, r1, r2, r4, r5, r6, r7, pc}
 407              	.L41:
 408 00b6 C046     		.align	2
 409              	.L40:
 410 00b8 00000000 		.word	CapSense_widgetNumber
 411 00bc 00000000 		.word	.LANCHOR1
 412 00c0 00000000 		.word	.LANCHOR2
 413 00c4 00000000 		.word	CapSense_sensorRaw
 414 00c8 00000000 		.word	CapSense_rawFilterData1
 415 00cc 00000000 		.word	.LANCHOR0
ARM GAS  C:\Users\kevin\AppData\Local\Temp\ccCzthOk.s 			page 53


 416 00d0 00000000 		.word	CapSense_lowBaselineResetCnt
 417 00d4 06000000 		.word	.LANCHOR0+6
 418              		.cfi_endproc
 419              	.LFE37:
 420              		.size	CapSense_UpdateBaselineNoThreshold, .-CapSense_UpdateBaselineNoThreshold
 421              		.section	.text.CapSense_UpdateSensorBaseline,"ax",%progbits
 422              		.align	1
 423              		.global	CapSense_UpdateSensorBaseline
 424              		.code	16
 425              		.thumb_func
 426              		.type	CapSense_UpdateSensorBaseline, %function
 427              	CapSense_UpdateSensorBaseline:
 428              	.LFB38:
 547:.\Generated_Source\PSoC4/CapSense_CSHL.c **** {
 429              		.loc 1 547 0
 430              		.cfi_startproc
 431              	.LVL43:
 432 0000 08B5     		push	{r3, lr}
 433              		.cfi_def_cfa_offset 8
 434              		.cfi_offset 3, -8
 435              		.cfi_offset 14, -4
 562:.\Generated_Source\PSoC4/CapSense_CSHL.c ****     CapSense_UpdateBaselineNoThreshold(sensor);
 436              		.loc 1 562 0
 437 0002 FFF7FEFF 		bl	CapSense_UpdateBaselineNoThreshold
 438              	.LVL44:
 568:.\Generated_Source\PSoC4/CapSense_CSHL.c **** }
 439              		.loc 1 568 0
 440              		@ sp needed
 441 0006 08BD     		pop	{r3, pc}
 442              		.cfi_endproc
 443              	.LFE38:
 444              		.size	CapSense_UpdateSensorBaseline, .-CapSense_UpdateSensorBaseline
 445              		.section	.text.CapSense_UpdateEnabledBaselines,"ax",%progbits
 446              		.align	1
 447              		.global	CapSense_UpdateEnabledBaselines
 448              		.code	16
 449              		.thumb_func
 450              		.type	CapSense_UpdateEnabledBaselines, %function
 451              	CapSense_UpdateEnabledBaselines:
 452              	.LFB39:
 601:.\Generated_Source\PSoC4/CapSense_CSHL.c **** {
 453              		.loc 1 601 0
 454              		.cfi_startproc
 455              	.LVL45:
 456 0000 10B5     		push	{r4, lr}
 457              		.cfi_def_cfa_offset 8
 458              		.cfi_offset 4, -8
 459              		.cfi_offset 14, -4
 605:.\Generated_Source\PSoC4/CapSense_CSHL.c ****     for(i = 0u; i < CapSense_TOTAL_SENSOR_COUNT; i++)
 460              		.loc 1 605 0
 461 0002 0024     		mov	r4, #0
 462              	.LVL46:
 463              	.L46:
