ARM GAS  C:\Users\kevin\AppData\Local\Temp\ccEmeqeI.s 			page 1


   1              		.cpu cortex-m0
   2              		.fpu softvfp
   3              		.eabi_attribute 20, 1
   4              		.eabi_attribute 21, 1
   5              		.eabi_attribute 23, 3
   6              		.eabi_attribute 24, 1
   7              		.eabi_attribute 25, 1
   8              		.eabi_attribute 26, 1
   9              		.eabi_attribute 30, 4
  10              		.eabi_attribute 34, 0
  11              		.eabi_attribute 18, 4
  12              		.code	16
  13              		.file	"CapSense.c"
  14              		.text
  15              	.Ltext0:
  16              		.cfi_sections	.debug_frame
  17              		.section	.text.CapSense_CsdHwBlockInit,"ax",%progbits
  18              		.align	1
  19              		.global	CapSense_CsdHwBlockInit
  20              		.code	16
  21              		.thumb_func
  22              		.type	CapSense_CsdHwBlockInit, %function
  23              	CapSense_CsdHwBlockInit:
  24              	.LFB34:
  25              		.file 1 ".\\Generated_Source\\PSoC4\\CapSense.c"
   1:.\Generated_Source\PSoC4/CapSense.c **** /*******************************************************************************
   2:.\Generated_Source\PSoC4/CapSense.c **** * File Name: CapSense.c
   3:.\Generated_Source\PSoC4/CapSense.c **** * Version 2.10
   4:.\Generated_Source\PSoC4/CapSense.c **** *
   5:.\Generated_Source\PSoC4/CapSense.c **** * Description:
   6:.\Generated_Source\PSoC4/CapSense.c **** *  This file provides the source code for scanning APIs for the CapSense CSD 
   7:.\Generated_Source\PSoC4/CapSense.c **** *  component.
   8:.\Generated_Source\PSoC4/CapSense.c **** *
   9:.\Generated_Source\PSoC4/CapSense.c **** * Note:
  10:.\Generated_Source\PSoC4/CapSense.c **** *
  11:.\Generated_Source\PSoC4/CapSense.c **** ********************************************************************************
  12:.\Generated_Source\PSoC4/CapSense.c **** * Copyright 2014, Cypress Semiconductor Corporation.  All rights reserved.
  13:.\Generated_Source\PSoC4/CapSense.c **** * You may use this file only in accordance with the license, terms, conditions,
  14:.\Generated_Source\PSoC4/CapSense.c **** * disclaimers, and limitations in the end user license agreement accompanying
  15:.\Generated_Source\PSoC4/CapSense.c **** * the software package with which this file was provided.
  16:.\Generated_Source\PSoC4/CapSense.c **** *******************************************************************************/
  17:.\Generated_Source\PSoC4/CapSense.c **** 
  18:.\Generated_Source\PSoC4/CapSense.c **** #include "CapSense.h"
  19:.\Generated_Source\PSoC4/CapSense.c **** #include "CapSense_PVT.h"
  20:.\Generated_Source\PSoC4/CapSense.c **** #include "cypins.h"
  21:.\Generated_Source\PSoC4/CapSense.c **** 
  22:.\Generated_Source\PSoC4/CapSense.c **** #if(0u != CapSense_CSHL_API_GENERATE)
  23:.\Generated_Source\PSoC4/CapSense.c **** 	#include "CapSense_CSHL.h"
  24:.\Generated_Source\PSoC4/CapSense.c **** #endif /* (0u != CapSense_CSHL_API_GENERATE) */
  25:.\Generated_Source\PSoC4/CapSense.c **** 
  26:.\Generated_Source\PSoC4/CapSense.c **** /* This definition is intended to prevent unexpected linker error. 
  27:.\Generated_Source\PSoC4/CapSense.c ****    For more details please see the IAR Technical Note 49981 */
  28:.\Generated_Source\PSoC4/CapSense.c **** #if defined(__ICCARM__)
  29:.\Generated_Source\PSoC4/CapSense.c **** 	extern __INLINE void CapSense_EnableSensor(uint32 sensor);
  30:.\Generated_Source\PSoC4/CapSense.c **** 	extern __INLINE void CapSense_DisableSensor(uint32 sensor);
  31:.\Generated_Source\PSoC4/CapSense.c **** #endif /* (__ICCARM__) */	
  32:.\Generated_Source\PSoC4/CapSense.c **** 
ARM GAS  C:\Users\kevin\AppData\Local\Temp\ccEmeqeI.s 			page 2


  33:.\Generated_Source\PSoC4/CapSense.c **** /* SmartSense functions */
  34:.\Generated_Source\PSoC4/CapSense.c **** #if (CapSense_TUNING_METHOD == CapSense__TUNING_AUTO)
  35:.\Generated_Source\PSoC4/CapSense.c ****     uint8 CapSense_lowLevelTuningDone = 0u;
  36:.\Generated_Source\PSoC4/CapSense.c **** 	uint8 scanSpeedTbl[((CapSense_TOTAL_SENSOR_COUNT - 1u) / 8u) + 1u];
  37:.\Generated_Source\PSoC4/CapSense.c **** #endif /* (CapSense_TUNING_METHOD == CapSense__TUNING_AUTO) */
  38:.\Generated_Source\PSoC4/CapSense.c **** 
  39:.\Generated_Source\PSoC4/CapSense.c **** #if(CapSense_PRS_OPTIONS != CapSense__PRS_NONE)
  40:.\Generated_Source\PSoC4/CapSense.c **** 	uint8 CapSense_prescalersTuningDone = 0u;
  41:.\Generated_Source\PSoC4/CapSense.c **** #endif /* (CapSense_PRS_OPTIONS == CapSense__PRS_NONE) */
  42:.\Generated_Source\PSoC4/CapSense.c ****             
  43:.\Generated_Source\PSoC4/CapSense.c **** /* Global software variables */
  44:.\Generated_Source\PSoC4/CapSense.c **** volatile uint8 CapSense_csdStatusVar = 0u;   /* CapSense CSD status, variable */
  45:.\Generated_Source\PSoC4/CapSense.c **** volatile uint8 CapSense_sensorIndex = 0u;    /* Index of scannig sensor */
  46:.\Generated_Source\PSoC4/CapSense.c **** 
  47:.\Generated_Source\PSoC4/CapSense.c **** /* Global array of Raw Counts */
  48:.\Generated_Source\PSoC4/CapSense.c **** uint16 CapSense_sensorRaw[CapSense_TOTAL_SENSOR_COUNT] = {0u};
  49:.\Generated_Source\PSoC4/CapSense.c **** 
  50:.\Generated_Source\PSoC4/CapSense.c **** /* Backup variables for trim registers*/
  51:.\Generated_Source\PSoC4/CapSense.c **** #if (CapSense_IDAC1_POLARITY == CapSense__IDAC_SINK)
  52:.\Generated_Source\PSoC4/CapSense.c **** 	uint8 CapSense_csdTrim2;   
  53:.\Generated_Source\PSoC4/CapSense.c **** #else
  54:.\Generated_Source\PSoC4/CapSense.c ****     uint8 CapSense_csdTrim1;	
  55:.\Generated_Source\PSoC4/CapSense.c **** #endif /* (CapSense_IDAC1_POLARITY == CapSense__IDAC_SINK) */
  56:.\Generated_Source\PSoC4/CapSense.c **** 
  57:.\Generated_Source\PSoC4/CapSense.c **** /* Global array of un-scanned sensors state */
  58:.\Generated_Source\PSoC4/CapSense.c **** uint8 CapSense_unscannedSnsDriveMode[CapSense_TOTAL_SENSOR_COUNT];
  59:.\Generated_Source\PSoC4/CapSense.c **** 
  60:.\Generated_Source\PSoC4/CapSense.c **** /* Backup array for CapSense_sensorEnableMask */
  61:.\Generated_Source\PSoC4/CapSense.c **** uint8 CapSense_sensorEnableMaskBackup[(((CapSense_TOTAL_SENSOR_COUNT - 1u) / 8u) + 1u)];
  62:.\Generated_Source\PSoC4/CapSense.c **** 
  63:.\Generated_Source\PSoC4/CapSense.c **** /* Configured constants and arrays by Customizer */
  64:.\Generated_Source\PSoC4/CapSense.c **** uint8 CapSense_sensorEnableMask[(((CapSense_TOTAL_SENSOR_COUNT - 1u) / 8u) + 1u)] = {
  65:.\Generated_Source\PSoC4/CapSense.c **** 0x7u, };
  66:.\Generated_Source\PSoC4/CapSense.c **** 
  67:.\Generated_Source\PSoC4/CapSense.c **** reg32 * CapSense_pcTable[] = {
  68:.\Generated_Source\PSoC4/CapSense.c ****     (reg32 *)CapSense_Sns__Button0__BTN__PC, 
  69:.\Generated_Source\PSoC4/CapSense.c ****     (reg32 *)CapSense_Sns__Button1__BTN__PC, 
  70:.\Generated_Source\PSoC4/CapSense.c ****     (reg32 *)CapSense_Sns__Button2__BTN__PC, 
  71:.\Generated_Source\PSoC4/CapSense.c **** };
  72:.\Generated_Source\PSoC4/CapSense.c **** 
  73:.\Generated_Source\PSoC4/CapSense.c **** const uint8 CapSense_portTable[] = {
  74:.\Generated_Source\PSoC4/CapSense.c ****     CapSense_Sns__Button0__BTN__PORT, 
  75:.\Generated_Source\PSoC4/CapSense.c ****     CapSense_Sns__Button1__BTN__PORT, 
  76:.\Generated_Source\PSoC4/CapSense.c ****     CapSense_Sns__Button2__BTN__PORT, 
  77:.\Generated_Source\PSoC4/CapSense.c **** };
  78:.\Generated_Source\PSoC4/CapSense.c **** 
  79:.\Generated_Source\PSoC4/CapSense.c **** const uint32 CapSense_maskTable[] = {
  80:.\Generated_Source\PSoC4/CapSense.c ****     CapSense_Sns__Button0__BTN__MASK, 
  81:.\Generated_Source\PSoC4/CapSense.c ****     CapSense_Sns__Button1__BTN__MASK, 
  82:.\Generated_Source\PSoC4/CapSense.c ****     CapSense_Sns__Button2__BTN__MASK, 
  83:.\Generated_Source\PSoC4/CapSense.c **** };
  84:.\Generated_Source\PSoC4/CapSense.c **** 
  85:.\Generated_Source\PSoC4/CapSense.c **** const uint8 CapSense_pinShiftTbl[] = {
  86:.\Generated_Source\PSoC4/CapSense.c ****     (uint8) CapSense_Sns__Button0__BTN__SHIFT, 
  87:.\Generated_Source\PSoC4/CapSense.c ****     (uint8) CapSense_Sns__Button1__BTN__SHIFT, 
  88:.\Generated_Source\PSoC4/CapSense.c ****     (uint8) CapSense_Sns__Button2__BTN__SHIFT, 
  89:.\Generated_Source\PSoC4/CapSense.c **** };
ARM GAS  C:\Users\kevin\AppData\Local\Temp\ccEmeqeI.s 			page 3


  90:.\Generated_Source\PSoC4/CapSense.c **** 
  91:.\Generated_Source\PSoC4/CapSense.c **** uint8 CapSense_modulationIDAC[CapSense_TOTAL_SENSOR_COUNT] = {
  92:.\Generated_Source\PSoC4/CapSense.c ****     28u, 45u, 35u, 
  93:.\Generated_Source\PSoC4/CapSense.c **** };
  94:.\Generated_Source\PSoC4/CapSense.c **** uint8 CapSense_compensationIDAC[CapSense_TOTAL_SENSOR_COUNT] = {
  95:.\Generated_Source\PSoC4/CapSense.c ****     28u, 44u, 35u, 
  96:.\Generated_Source\PSoC4/CapSense.c **** };
  97:.\Generated_Source\PSoC4/CapSense.c **** 
  98:.\Generated_Source\PSoC4/CapSense.c **** const uint32 CapSense_widgetResolution[CapSense_RESOLUTIONS_TBL_SIZE] = {
  99:.\Generated_Source\PSoC4/CapSense.c ****     CapSense_RESOLUTION_10_BITS,
 100:.\Generated_Source\PSoC4/CapSense.c ****     CapSense_RESOLUTION_10_BITS,
 101:.\Generated_Source\PSoC4/CapSense.c ****     CapSense_RESOLUTION_10_BITS,
 102:.\Generated_Source\PSoC4/CapSense.c **** };
 103:.\Generated_Source\PSoC4/CapSense.c **** 
 104:.\Generated_Source\PSoC4/CapSense.c **** const uint8 CapSense_senseClkDividerVal[CapSense_TOTAL_SCANSLOT_COUNT] = {
 105:.\Generated_Source\PSoC4/CapSense.c ****     1u, 1u, 1u, 
 106:.\Generated_Source\PSoC4/CapSense.c **** };
 107:.\Generated_Source\PSoC4/CapSense.c **** const uint8 CapSense_sampleClkDividerVal[CapSense_TOTAL_SCANSLOT_COUNT] = {
 108:.\Generated_Source\PSoC4/CapSense.c ****     2u, 2u, 2u, 
 109:.\Generated_Source\PSoC4/CapSense.c **** };
 110:.\Generated_Source\PSoC4/CapSense.c **** 
 111:.\Generated_Source\PSoC4/CapSense.c **** 
 112:.\Generated_Source\PSoC4/CapSense.c **** const uint8 CapSense_widgetNumber[CapSense_TOTAL_SENSOR_COUNT] = {
 113:.\Generated_Source\PSoC4/CapSense.c ****     0u, /* Button0__BTN */
 114:.\Generated_Source\PSoC4/CapSense.c ****     1u, /* Button1__BTN */
 115:.\Generated_Source\PSoC4/CapSense.c ****     2u, /* Button2__BTN */
 116:.\Generated_Source\PSoC4/CapSense.c **** };
 117:.\Generated_Source\PSoC4/CapSense.c **** 
 118:.\Generated_Source\PSoC4/CapSense.c **** 
 119:.\Generated_Source\PSoC4/CapSense.c **** 
 120:.\Generated_Source\PSoC4/CapSense.c **** reg32* const CapSense_prtSelTbl[] = {
 121:.\Generated_Source\PSoC4/CapSense.c **** 	((reg32 *) CYREG_HSIOM_PORT_SEL0),
 122:.\Generated_Source\PSoC4/CapSense.c **** 	((reg32 *) CYREG_HSIOM_PORT_SEL1),
 123:.\Generated_Source\PSoC4/CapSense.c **** 	((reg32 *) CYREG_HSIOM_PORT_SEL2),
 124:.\Generated_Source\PSoC4/CapSense.c **** 	((reg32 *) CYREG_HSIOM_PORT_SEL3),
 125:.\Generated_Source\PSoC4/CapSense.c **** #if (CY_PSOC4_4200BL)
 126:.\Generated_Source\PSoC4/CapSense.c **** 	((reg32 *) CYREG_HSIOM_PORT_SEL4),
 127:.\Generated_Source\PSoC4/CapSense.c **** 	((reg32 *) CYREG_HSIOM_PORT_SEL5)
 128:.\Generated_Source\PSoC4/CapSense.c **** #elif(0u == CapSense_M0S8CSD_BLOCK_VER)
 129:.\Generated_Source\PSoC4/CapSense.c **** 	((reg32 *) CYREG_HSIOM_PORT_SEL4)
 130:.\Generated_Source\PSoC4/CapSense.c **** #endif /* (0u == CapSense_M0S8CSD_BLOCK_VER) */
 131:.\Generated_Source\PSoC4/CapSense.c **** };
 132:.\Generated_Source\PSoC4/CapSense.c **** 
 133:.\Generated_Source\PSoC4/CapSense.c **** reg32* const CapSense_prtCfgTbl[] = {
 134:.\Generated_Source\PSoC4/CapSense.c **** 	((reg32 *) CYREG_PRT0_PC),
 135:.\Generated_Source\PSoC4/CapSense.c **** 	((reg32 *) CYREG_PRT1_PC),
 136:.\Generated_Source\PSoC4/CapSense.c **** 	((reg32 *) CYREG_PRT2_PC),
 137:.\Generated_Source\PSoC4/CapSense.c **** 	((reg32 *) CYREG_PRT3_PC),
 138:.\Generated_Source\PSoC4/CapSense.c **** #if (CY_PSOC4_4200BL)
 139:.\Generated_Source\PSoC4/CapSense.c **** 	((reg32 *) CYREG_PRT4_PC),
 140:.\Generated_Source\PSoC4/CapSense.c **** 	((reg32 *) CYREG_PRT5_PC)
 141:.\Generated_Source\PSoC4/CapSense.c **** #elif(0u == CapSense_M0S8CSD_BLOCK_VER)
 142:.\Generated_Source\PSoC4/CapSense.c **** 	((reg32 *) CYREG_PRT4_PC)	
 143:.\Generated_Source\PSoC4/CapSense.c **** #endif /* (0u == CapSense_M0S8CSD_BLOCK_VER) */	
 144:.\Generated_Source\PSoC4/CapSense.c **** };
 145:.\Generated_Source\PSoC4/CapSense.c **** 
 146:.\Generated_Source\PSoC4/CapSense.c **** reg32* const CapSense_prtDRTbl[] = {
ARM GAS  C:\Users\kevin\AppData\Local\Temp\ccEmeqeI.s 			page 4


 147:.\Generated_Source\PSoC4/CapSense.c **** 	((reg32 *) CYREG_PRT0_DR),
 148:.\Generated_Source\PSoC4/CapSense.c **** 	((reg32 *) CYREG_PRT1_DR),
 149:.\Generated_Source\PSoC4/CapSense.c **** 	((reg32 *) CYREG_PRT2_DR),
 150:.\Generated_Source\PSoC4/CapSense.c **** 	((reg32 *) CYREG_PRT3_DR),
 151:.\Generated_Source\PSoC4/CapSense.c **** #if (CY_PSOC4_4200BL)
 152:.\Generated_Source\PSoC4/CapSense.c **** 	((reg32 *) CYREG_PRT4_DR),
 153:.\Generated_Source\PSoC4/CapSense.c **** 	((reg32 *) CYREG_PRT5_DR),
 154:.\Generated_Source\PSoC4/CapSense.c **** #elif(0u == CapSense_M0S8CSD_BLOCK_VER)
 155:.\Generated_Source\PSoC4/CapSense.c **** 	((reg32 *) CYREG_PRT4_DR),
 156:.\Generated_Source\PSoC4/CapSense.c **** #endif /* (0u == CapSense_M0S8CSD_BLOCK_VER) */	
 157:.\Generated_Source\PSoC4/CapSense.c **** };
 158:.\Generated_Source\PSoC4/CapSense.c ****     
 159:.\Generated_Source\PSoC4/CapSense.c **** 
 160:.\Generated_Source\PSoC4/CapSense.c **** /*******************************************************************************
 161:.\Generated_Source\PSoC4/CapSense.c **** * Function Name: CapSense_Init
 162:.\Generated_Source\PSoC4/CapSense.c **** ********************************************************************************
 163:.\Generated_Source\PSoC4/CapSense.c **** *
 164:.\Generated_Source\PSoC4/CapSense.c **** * Summary:
 165:.\Generated_Source\PSoC4/CapSense.c **** *  API initializes default CapSense configuration provided by the customizer that defines 
 166:.\Generated_Source\PSoC4/CapSense.c **** *  the mode of component operations and resets all the sensors to an inactive state.
 167:.\Generated_Source\PSoC4/CapSense.c **** *
 168:.\Generated_Source\PSoC4/CapSense.c **** * Parameters:
 169:.\Generated_Source\PSoC4/CapSense.c **** *  None
 170:.\Generated_Source\PSoC4/CapSense.c **** *
 171:.\Generated_Source\PSoC4/CapSense.c **** * Return:
 172:.\Generated_Source\PSoC4/CapSense.c **** *  None
 173:.\Generated_Source\PSoC4/CapSense.c **** *
 174:.\Generated_Source\PSoC4/CapSense.c **** * Global Variables:
 175:.\Generated_Source\PSoC4/CapSense.c **** *  CapSense_immunityIndex - defines immunity level.
 176:.\Generated_Source\PSoC4/CapSense.c **** *
 177:.\Generated_Source\PSoC4/CapSense.c **** * Side Effects:
 178:.\Generated_Source\PSoC4/CapSense.c **** *  None
 179:.\Generated_Source\PSoC4/CapSense.c **** * 
 180:.\Generated_Source\PSoC4/CapSense.c **** *******************************************************************************/
 181:.\Generated_Source\PSoC4/CapSense.c **** void CapSense_Init(void)
 182:.\Generated_Source\PSoC4/CapSense.c **** {   
 183:.\Generated_Source\PSoC4/CapSense.c **** 	uint32 curSensor;
 184:.\Generated_Source\PSoC4/CapSense.c **** 	
 185:.\Generated_Source\PSoC4/CapSense.c **** 	#if(CapSense_IS_SHIELD_ENABLE)
 186:.\Generated_Source\PSoC4/CapSense.c **** 		
 187:.\Generated_Source\PSoC4/CapSense.c **** 		#if((CapSense_CSH_TANK_PREGARGE_OPTION == CapSense__CAPPRIOBUF) || (0u != CapSense_CSH_TANK_ENABL
 188:.\Generated_Source\PSoC4/CapSense.c **** 			uint32 newRegValue;
 189:.\Generated_Source\PSoC4/CapSense.c **** 			
 190:.\Generated_Source\PSoC4/CapSense.c **** 			newRegValue = CapSense_CTANK_CONNECTION_REG;
 191:.\Generated_Source\PSoC4/CapSense.c **** 	        newRegValue &= ~(CapSense_CSD_CTANK_CONNECTION_MASK);
 192:.\Generated_Source\PSoC4/CapSense.c **** 			newRegValue |= CapSense_CSD_CTANK_TO_AMUXBUS_B;
 193:.\Generated_Source\PSoC4/CapSense.c **** 	        CapSense_CTANK_CONNECTION_REG = newRegValue;
 194:.\Generated_Source\PSoC4/CapSense.c **** 			
 195:.\Generated_Source\PSoC4/CapSense.c **** 			#if(CapSense_CSH_TANK_PREGARGE_OPTION == CapSense__CAPPRIOBUF)
 196:.\Generated_Source\PSoC4/CapSense.c **** 				newRegValue = CapSense_CTANK_PORT_PC_REG;
 197:.\Generated_Source\PSoC4/CapSense.c **** 		        newRegValue &= ~(CapSense_CSD_CTANK_PC_MASK);
 198:.\Generated_Source\PSoC4/CapSense.c **** 				newRegValue |= CapSense_CTANK_PC_STRONG_MODE;
 199:.\Generated_Source\PSoC4/CapSense.c **** 		        CapSense_CTANK_PORT_PC_REG = newRegValue;
 200:.\Generated_Source\PSoC4/CapSense.c **** 				
 201:.\Generated_Source\PSoC4/CapSense.c **** 				newRegValue = CapSense_CTANK_PORT_DR_REG;
 202:.\Generated_Source\PSoC4/CapSense.c **** 		        newRegValue &= ~(CapSense_CTANK_DR_MASK);
 203:.\Generated_Source\PSoC4/CapSense.c **** 				newRegValue |= CapSense_CTANK_DR_CONFIG;
ARM GAS  C:\Users\kevin\AppData\Local\Temp\ccEmeqeI.s 			page 5


 204:.\Generated_Source\PSoC4/CapSense.c **** 		        CapSense_CTANK_PORT_DR_REG = newRegValue;
 205:.\Generated_Source\PSoC4/CapSense.c **** 			#endif /* (CapSense_CSH_TANK_PREGARGE_OPTION == CapSense__CAPPRIOBUF) */
 206:.\Generated_Source\PSoC4/CapSense.c **** 	        
 207:.\Generated_Source\PSoC4/CapSense.c **** 		#endif /* ((CapSense_CSH_TANK_PREGARGE_OPTION == CapSense__CAPPRIOBUF) || (CapSense_CSH_TANK_ENAB
 208:.\Generated_Source\PSoC4/CapSense.c **** 		
 209:.\Generated_Source\PSoC4/CapSense.c **** 		CapSense_EnableShieldElectrode((uint32)CapSense_SHIELD_PIN_NUMBER, (uint32)CapSense_SHIELD_PORT_N
 210:.\Generated_Source\PSoC4/CapSense.c **** 		
 211:.\Generated_Source\PSoC4/CapSense.c **** 	#endif /* (CapSense_IS_SHIELD_ENABLE) */
 212:.\Generated_Source\PSoC4/CapSense.c **** 	
 213:.\Generated_Source\PSoC4/CapSense.c **** 	for(curSensor = 0u; curSensor < CapSense_TOTAL_SENSOR_COUNT; curSensor++)
 214:.\Generated_Source\PSoC4/CapSense.c **** 	{
 215:.\Generated_Source\PSoC4/CapSense.c **** 		CapSense_unscannedSnsDriveMode[curSensor] = CapSense_CONNECT_INACTIVE_SNS;
 216:.\Generated_Source\PSoC4/CapSense.c **** 	}
 217:.\Generated_Source\PSoC4/CapSense.c ****     
 218:.\Generated_Source\PSoC4/CapSense.c **** 	CapSense_CsdHwBlockInit();
 219:.\Generated_Source\PSoC4/CapSense.c ****     CapSense_SetShieldDelay(CapSense_SHIELD_DELAY );
 220:.\Generated_Source\PSoC4/CapSense.c **** 	
 221:.\Generated_Source\PSoC4/CapSense.c **** 	/* Clear all sensors */
 222:.\Generated_Source\PSoC4/CapSense.c ****     CapSense_ClearSensors();
 223:.\Generated_Source\PSoC4/CapSense.c **** }
 224:.\Generated_Source\PSoC4/CapSense.c **** 
 225:.\Generated_Source\PSoC4/CapSense.c **** /*******************************************************************************
 226:.\Generated_Source\PSoC4/CapSense.c **** * Function Name: CapSense_CsdHwBlockInit
 227:.\Generated_Source\PSoC4/CapSense.c **** ********************************************************************************
 228:.\Generated_Source\PSoC4/CapSense.c **** *
 229:.\Generated_Source\PSoC4/CapSense.c **** * Summary:
 230:.\Generated_Source\PSoC4/CapSense.c **** *  Initialises the hardware parameters of the CSD block 
 231:.\Generated_Source\PSoC4/CapSense.c **** *
 232:.\Generated_Source\PSoC4/CapSense.c **** * Parameters:
 233:.\Generated_Source\PSoC4/CapSense.c **** *  None
 234:.\Generated_Source\PSoC4/CapSense.c **** *
 235:.\Generated_Source\PSoC4/CapSense.c **** * Return:
 236:.\Generated_Source\PSoC4/CapSense.c **** *  None
 237:.\Generated_Source\PSoC4/CapSense.c **** *
 238:.\Generated_Source\PSoC4/CapSense.c **** * Global Variables:
 239:.\Generated_Source\PSoC4/CapSense.c **** *  CapSense_csdTrim1 - Contains IDAC trim register value for Sourcing Mode.
 240:.\Generated_Source\PSoC4/CapSense.c **** *  CapSense_csdTrim2 - Contains IDAC trim register value for Sinking Mode.
 241:.\Generated_Source\PSoC4/CapSense.c **** *
 242:.\Generated_Source\PSoC4/CapSense.c **** * Side Effects:
 243:.\Generated_Source\PSoC4/CapSense.c **** *  None
 244:.\Generated_Source\PSoC4/CapSense.c **** * 
 245:.\Generated_Source\PSoC4/CapSense.c **** *******************************************************************************/
 246:.\Generated_Source\PSoC4/CapSense.c **** void CapSense_CsdHwBlockInit(void)
 247:.\Generated_Source\PSoC4/CapSense.c **** {
  26              		.loc 1 247 0
  27              		.cfi_startproc
 248:.\Generated_Source\PSoC4/CapSense.c **** 	uint32 newRegValue;
 249:.\Generated_Source\PSoC4/CapSense.c **** 	
 250:.\Generated_Source\PSoC4/CapSense.c **** 	    /* Set trim registers for CSD Mode */
 251:.\Generated_Source\PSoC4/CapSense.c ****     #if (CapSense_IDAC1_POLARITY == CapSense__IDAC_SINK)
 252:.\Generated_Source\PSoC4/CapSense.c **** 		/* iDAC1 Sinking Mode */ 
 253:.\Generated_Source\PSoC4/CapSense.c **** 		CapSense_csdTrim2 = (uint8)CapSense_CSD_TRIM2_REG;
 254:.\Generated_Source\PSoC4/CapSense.c **** 		newRegValue = CapSense_csdTrim2;
 255:.\Generated_Source\PSoC4/CapSense.c **** 		newRegValue &= CapSense_CSD_IDAC1_TRIM_MASK;
 256:.\Generated_Source\PSoC4/CapSense.c **** 		newRegValue |= (uint32)((uint32)CapSense_SFLASH_CSD_TRIM2_REG & (uint32)CapSense_CSFLASH_TRIM_IDA
 257:.\Generated_Source\PSoC4/CapSense.c **** 		
 258:.\Generated_Source\PSoC4/CapSense.c **** 		#if (CapSense_IDAC_CNT == 2u)
ARM GAS  C:\Users\kevin\AppData\Local\Temp\ccEmeqeI.s 			page 6


 259:.\Generated_Source\PSoC4/CapSense.c **** 		    /* iDAC2 Sinking Mode */ 
 260:.\Generated_Source\PSoC4/CapSense.c **** 			newRegValue &= CapSense_CSD_IDAC2_TRIM_MASK;
 261:.\Generated_Source\PSoC4/CapSense.c **** 			newRegValue |= (uint32)((uint32)CapSense_SFLASH_CSD_TRIM2_REG & (uint32)CapSense_CSFLASH_TRIM_ID
 262:.\Generated_Source\PSoC4/CapSense.c **** 		#endif /* (CapSense_IDAC_CNT == 2u) */
 263:.\Generated_Source\PSoC4/CapSense.c **** 		CapSense_CSD_TRIM2_REG = newRegValue;
 264:.\Generated_Source\PSoC4/CapSense.c ****     #else   
 265:.\Generated_Source\PSoC4/CapSense.c **** 		/* iDAC1 Sourcing Mode */ 
 266:.\Generated_Source\PSoC4/CapSense.c **** 		CapSense_csdTrim1 = (uint8)CapSense_CSD_TRIM1_REG;
  28              		.loc 1 266 0
  29 0000 134B     		ldr	r3, .L2
 247:.\Generated_Source\PSoC4/CapSense.c **** {
  30              		.loc 1 247 0
  31 0002 10B5     		push	{r4, lr}
  32              		.cfi_def_cfa_offset 8
  33              		.cfi_offset 4, -8
  34              		.cfi_offset 14, -4
  35              		.loc 1 266 0
  36 0004 1968     		ldr	r1, [r3]
  37              	.LVL0:
  38 0006 134A     		ldr	r2, .L2+4
 267:.\Generated_Source\PSoC4/CapSense.c **** 		newRegValue = CapSense_csdTrim1;
 268:.\Generated_Source\PSoC4/CapSense.c **** 		newRegValue &= CapSense_CSD_IDAC1_TRIM_MASK;
 269:.\Generated_Source\PSoC4/CapSense.c **** 		newRegValue |= (uint32)((uint32)CapSense_SFLASH_CSD_TRIM1_REG & (uint32)CapSense_CSFLASH_TRIM_IDA
  39              		.loc 1 269 0
  40 0008 0F24     		mov	r4, #15
 266:.\Generated_Source\PSoC4/CapSense.c **** 		CapSense_csdTrim1 = (uint8)CapSense_CSD_TRIM1_REG;
  41              		.loc 1 266 0
  42 000a 1170     		strb	r1, [r2]
  43              		.loc 1 269 0
  44 000c 124A     		ldr	r2, .L2+8
 270:.\Generated_Source\PSoC4/CapSense.c **** 		#if (CapSense_IDAC_CNT == 2u)
 271:.\Generated_Source\PSoC4/CapSense.c **** 		     /* iDAC2 Sourcing Mode */ 
 272:.\Generated_Source\PSoC4/CapSense.c **** 			newRegValue &= CapSense_CSD_IDAC2_TRIM_MASK;
 273:.\Generated_Source\PSoC4/CapSense.c **** 			newRegValue |= (uint32)((uint32)CapSense_SFLASH_CSD_TRIM1_REG & (uint32)CapSense_CSFLASH_TRIM_ID
 274:.\Generated_Source\PSoC4/CapSense.c **** 		#endif		
 275:.\Generated_Source\PSoC4/CapSense.c **** 		CapSense_CSD_TRIM1_REG = newRegValue;
 276:.\Generated_Source\PSoC4/CapSense.c ****     #endif /* (CapSense_IDAC1_POLARITY == CapSense__IDAC_SINK) */
 277:.\Generated_Source\PSoC4/CapSense.c **** 	
 278:.\Generated_Source\PSoC4/CapSense.c **** 	/* Configure CSD and IDAC */
 279:.\Generated_Source\PSoC4/CapSense.c **** 	#if (CapSense_IDAC_CNT > 1u)
 280:.\Generated_Source\PSoC4/CapSense.c **** 		CapSense_CSD_IDAC_REG = CapSense_DEFAULT_CSD_IDAC_CONFIG;
 281:.\Generated_Source\PSoC4/CapSense.c **** 		CapSense_CSD_CFG_REG = CapSense_DEFAULT_CSD_CONFIG;
 282:.\Generated_Source\PSoC4/CapSense.c **** 	#else
 283:.\Generated_Source\PSoC4/CapSense.c **** 		CapSense_CSD_IDAC_REG &= ~(CapSense_CSD_IDAC1_MODE_MASK  | CapSense_CSD_IDAC1_DATA_MASK);
 284:.\Generated_Source\PSoC4/CapSense.c **** 		CapSense_CSD_IDAC_REG |= CapSense_DEFAULT_CSD_IDAC_CONFIG;
 285:.\Generated_Source\PSoC4/CapSense.c **** 		
 286:.\Generated_Source\PSoC4/CapSense.c **** 		CapSense_CSD_CFG_REG &= ~(CapSense_CSD_CONFIG_MASK);
 287:.\Generated_Source\PSoC4/CapSense.c **** 		CapSense_CSD_CFG_REG |= (CapSense_DEFAULT_CSD_CONFIG);
 288:.\Generated_Source\PSoC4/CapSense.c **** 	#endif /* (CapSense_IDAC_CNT > 1u) */
 289:.\Generated_Source\PSoC4/CapSense.c **** 	
 290:.\Generated_Source\PSoC4/CapSense.c **** 	
 291:.\Generated_Source\PSoC4/CapSense.c **** 	/* Connect Cmod to AMUX bus */ 
 292:.\Generated_Source\PSoC4/CapSense.c **** 	newRegValue = CapSense_CMOD_CONNECTION_REG; 
 293:.\Generated_Source\PSoC4/CapSense.c ****     newRegValue &= ~(CapSense_CSD_CMOD_CONNECTION_MASK);
 294:.\Generated_Source\PSoC4/CapSense.c ****     newRegValue |= CapSense_CSD_CMOD_TO_AMUXBUS_A;
 295:.\Generated_Source\PSoC4/CapSense.c ****     CapSense_CMOD_CONNECTION_REG = newRegValue;
 296:.\Generated_Source\PSoC4/CapSense.c **** 	
ARM GAS  C:\Users\kevin\AppData\Local\Temp\ccEmeqeI.s 			page 7


 297:.\Generated_Source\PSoC4/CapSense.c **** 	/* Configure Dead Band PWM if it is enabled */
 298:.\Generated_Source\PSoC4/CapSense.c **** 	#if(CapSense_CSD_4B_PWM_MODE != CapSense__PWM_OFF)
 299:.\Generated_Source\PSoC4/CapSense.c **** 		CapSense_CSD_4B_PWM_REG = CapSense_DEFAULT_CSD_4B_PWM_CONFIG;
 300:.\Generated_Source\PSoC4/CapSense.c **** 	#endif /* (CapSense_CSD_4B_PWM_MODE != CapSense__PWM_OFF) */
 301:.\Generated_Source\PSoC4/CapSense.c **** 
 302:.\Generated_Source\PSoC4/CapSense.c **** 	/* Setup ISR */
 303:.\Generated_Source\PSoC4/CapSense.c **** 	CyIntDisable(CapSense_ISR_NUMBER);
  45              		.loc 1 303 0
  46 000e 201C     		mov	r0, r4
 269:.\Generated_Source\PSoC4/CapSense.c **** 		newRegValue |= (uint32)((uint32)CapSense_SFLASH_CSD_TRIM1_REG & (uint32)CapSense_CSFLASH_TRIM_IDA
  47              		.loc 1 269 0
  48 0010 1178     		ldrb	r1, [r2]
  49              	.LVL1:
 273:.\Generated_Source\PSoC4/CapSense.c **** 			newRegValue |= (uint32)((uint32)CapSense_SFLASH_CSD_TRIM1_REG & (uint32)CapSense_CSFLASH_TRIM_ID
  50              		.loc 1 273 0
  51 0012 1278     		ldrb	r2, [r2]
 272:.\Generated_Source\PSoC4/CapSense.c **** 			newRegValue &= CapSense_CSD_IDAC2_TRIM_MASK;
  52              		.loc 1 272 0
  53 0014 2140     		and	r1, r4
  54              	.LVL2:
 273:.\Generated_Source\PSoC4/CapSense.c **** 			newRegValue |= (uint32)((uint32)CapSense_SFLASH_CSD_TRIM1_REG & (uint32)CapSense_CSFLASH_TRIM_ID
  55              		.loc 1 273 0
  56 0016 A243     		bic	r2, r4
  57 0018 0A43     		orr	r2, r1
  58              	.LVL3:
 275:.\Generated_Source\PSoC4/CapSense.c **** 		CapSense_CSD_TRIM1_REG = newRegValue;
  59              		.loc 1 275 0
  60 001a 1A60     		str	r2, [r3]
 280:.\Generated_Source\PSoC4/CapSense.c **** 		CapSense_CSD_IDAC_REG = CapSense_DEFAULT_CSD_IDAC_CONFIG;
  61              		.loc 1 280 0
  62 001c 0F4A     		ldr	r2, .L2+12
  63              	.LVL4:
  64 001e 104B     		ldr	r3, .L2+16
  65              	.LVL5:
 304:.\Generated_Source\PSoC4/CapSense.c **** 	#if !defined(CY_EXTERNAL_INTERRUPT_CONFIG)		
 305:.\Generated_Source\PSoC4/CapSense.c **** 	    (void)CyIntSetVector(CapSense_ISR_NUMBER, &CapSense_ISR);
 306:.\Generated_Source\PSoC4/CapSense.c **** 	    CyIntSetPriority(CapSense_ISR_NUMBER, CapSense_ISR_PRIORITY);
 307:.\Generated_Source\PSoC4/CapSense.c **** 	#endif /* (CY_EXTERNAL_INTERRUPT_CONFIG) */
 308:.\Generated_Source\PSoC4/CapSense.c **** }
  66              		.loc 1 308 0
  67              		@ sp needed
 280:.\Generated_Source\PSoC4/CapSense.c **** 		CapSense_CSD_IDAC_REG = CapSense_DEFAULT_CSD_IDAC_CONFIG;
  68              		.loc 1 280 0
  69 0020 1A60     		str	r2, [r3]
  70              	.LVL6:
 281:.\Generated_Source\PSoC4/CapSense.c **** 		CapSense_CSD_CFG_REG = CapSense_DEFAULT_CSD_CONFIG;
  71              		.loc 1 281 0
  72 0022 104A     		ldr	r2, .L2+20
  73 0024 104B     		ldr	r3, .L2+24
  74 0026 1A60     		str	r2, [r3]
 292:.\Generated_Source\PSoC4/CapSense.c **** 	newRegValue = CapSense_CMOD_CONNECTION_REG; 
  75              		.loc 1 292 0
  76 0028 104B     		ldr	r3, .L2+28
 293:.\Generated_Source\PSoC4/CapSense.c ****     newRegValue &= ~(CapSense_CSD_CMOD_CONNECTION_MASK);
  77              		.loc 1 293 0
  78 002a 114A     		ldr	r2, .L2+32
 292:.\Generated_Source\PSoC4/CapSense.c **** 	newRegValue = CapSense_CMOD_CONNECTION_REG; 
ARM GAS  C:\Users\kevin\AppData\Local\Temp\ccEmeqeI.s 			page 8


  79              		.loc 1 292 0
  80 002c 1968     		ldr	r1, [r3]
  81              	.LVL7:
 293:.\Generated_Source\PSoC4/CapSense.c ****     newRegValue &= ~(CapSense_CSD_CMOD_CONNECTION_MASK);
  82              		.loc 1 293 0
  83 002e 0A40     		and	r2, r1
  84              	.LVL8:
 294:.\Generated_Source\PSoC4/CapSense.c ****     newRegValue |= CapSense_CSD_CMOD_TO_AMUXBUS_A;
  85              		.loc 1 294 0
  86 0030 C021     		mov	r1, #192
  87 0032 C900     		lsl	r1, r1, #3
  88 0034 0A43     		orr	r2, r1
  89              	.LVL9:
 295:.\Generated_Source\PSoC4/CapSense.c ****     CapSense_CMOD_CONNECTION_REG = newRegValue;
  90              		.loc 1 295 0
  91 0036 1A60     		str	r2, [r3]
 303:.\Generated_Source\PSoC4/CapSense.c **** 	CyIntDisable(CapSense_ISR_NUMBER);
  92              		.loc 1 303 0
  93 0038 FFF7FEFF 		bl	CyIntDisable
  94              	.LVL10:
 305:.\Generated_Source\PSoC4/CapSense.c **** 	    (void)CyIntSetVector(CapSense_ISR_NUMBER, &CapSense_ISR);
  95              		.loc 1 305 0
  96 003c 201C     		mov	r0, r4
  97 003e 0D49     		ldr	r1, .L2+36
  98 0040 FFF7FEFF 		bl	CyIntSetVector
  99              	.LVL11:
 306:.\Generated_Source\PSoC4/CapSense.c **** 	    CyIntSetPriority(CapSense_ISR_NUMBER, CapSense_ISR_PRIORITY);
 100              		.loc 1 306 0
 101 0044 201C     		mov	r0, r4
 102 0046 0321     		mov	r1, #3
 103 0048 FFF7FEFF 		bl	CyIntSetPriority
 104              	.LVL12:
 105              		.loc 1 308 0
 106 004c 10BD     		pop	{r4, pc}
 107              	.L3:
 108 004e C046     		.align	2
 109              	.L2:
 110 0050 00FF0840 		.word	1074331392
 111 0054 00000000 		.word	CapSense_csdTrim1
 112 0058 62F1FF0F 		.word	268431714
 113 005c 00020001 		.word	16777728
 114 0060 08000840 		.word	1074266120
 115 0064 0008A001 		.word	27265024
 116 0068 04000840 		.word	1074266116
 117 006c 10000140 		.word	1073807376
 118 0070 FFF0FFFF 		.word	-3841
 119 0074 00000000 		.word	CapSense_ISR
 120              		.cfi_endproc
 121              	.LFE34:
 122              		.size	CapSense_CsdHwBlockInit, .-CapSense_CsdHwBlockInit
 123              		.section	.text.CapSense_Enable,"ax",%progbits
 124              		.align	1
 125              		.global	CapSense_Enable
 126              		.code	16
 127              		.thumb_func
 128              		.type	CapSense_Enable, %function
 129              	CapSense_Enable:
ARM GAS  C:\Users\kevin\AppData\Local\Temp\ccEmeqeI.s 			page 9


 130              	.LFB35:
 309:.\Generated_Source\PSoC4/CapSense.c **** 
 310:.\Generated_Source\PSoC4/CapSense.c **** 
 311:.\Generated_Source\PSoC4/CapSense.c **** /*******************************************************************************
 312:.\Generated_Source\PSoC4/CapSense.c **** * Function Name: CapSense_Enable
 313:.\Generated_Source\PSoC4/CapSense.c **** ********************************************************************************
 314:.\Generated_Source\PSoC4/CapSense.c **** *
 315:.\Generated_Source\PSoC4/CapSense.c **** * Summary:
 316:.\Generated_Source\PSoC4/CapSense.c **** *  Enables the CSD block and related resources to an active mode.
 317:.\Generated_Source\PSoC4/CapSense.c **** *
 318:.\Generated_Source\PSoC4/CapSense.c **** * Parameters:
 319:.\Generated_Source\PSoC4/CapSense.c **** *  None
 320:.\Generated_Source\PSoC4/CapSense.c **** *
 321:.\Generated_Source\PSoC4/CapSense.c **** * Return:
 322:.\Generated_Source\PSoC4/CapSense.c **** *  None
 323:.\Generated_Source\PSoC4/CapSense.c **** *
 324:.\Generated_Source\PSoC4/CapSense.c **** * Global Variables:
 325:.\Generated_Source\PSoC4/CapSense.c **** *  None.
 326:.\Generated_Source\PSoC4/CapSense.c **** *
 327:.\Generated_Source\PSoC4/CapSense.c **** * Side Effects:
 328:.\Generated_Source\PSoC4/CapSense.c **** *  None
 329:.\Generated_Source\PSoC4/CapSense.c **** * 
 330:.\Generated_Source\PSoC4/CapSense.c **** *******************************************************************************/
 331:.\Generated_Source\PSoC4/CapSense.c **** void CapSense_Enable(void)
 332:.\Generated_Source\PSoC4/CapSense.c **** {
 131              		.loc 1 332 0
 132              		.cfi_startproc
 133 0000 08B5     		push	{r3, lr}
 134              		.cfi_def_cfa_offset 8
 135              		.cfi_offset 3, -8
 136              		.cfi_offset 14, -4
 333:.\Generated_Source\PSoC4/CapSense.c ****     uint32 newRegValue;
 334:.\Generated_Source\PSoC4/CapSense.c ****     
 335:.\Generated_Source\PSoC4/CapSense.c ****     /* Enable Clocks */
 336:.\Generated_Source\PSoC4/CapSense.c **** 	CapSense_SenseClk_Stop();
 137              		.loc 1 336 0
 138 0002 FFF7FEFF 		bl	CapSense_SenseClk_Stop
 139              	.LVL13:
 337:.\Generated_Source\PSoC4/CapSense.c **** 	CapSense_SampleClk_Stop();
 140              		.loc 1 337 0
 141 0006 FFF7FEFF 		bl	CapSense_SampleClk_Stop
 142              	.LVL14:
 338:.\Generated_Source\PSoC4/CapSense.c **** 	
 339:.\Generated_Source\PSoC4/CapSense.c **** 	CapSense_SampleClk_SetDividerValue((uint16)CapSense_INITIAL_CLK_DIVIDER);
 143              		.loc 1 339 0
 144 000a 0020     		mov	r0, #0
 145 000c 011C     		mov	r1, r0
 146 000e FFF7FEFF 		bl	CapSense_SampleClk_SetFractionalDividerRegister
 147              	.LVL15:
 340:.\Generated_Source\PSoC4/CapSense.c **** 	CapSense_SenseClk_SetDividerValue((uint16)CapSense_INITIAL_CLK_DIVIDER);
 148              		.loc 1 340 0
 149 0012 0020     		mov	r0, #0
 150 0014 011C     		mov	r1, r0
 151 0016 FFF7FEFF 		bl	CapSense_SenseClk_SetFractionalDividerRegister
 152              	.LVL16:
 341:.\Generated_Source\PSoC4/CapSense.c **** 	
 342:.\Generated_Source\PSoC4/CapSense.c **** 	#if (0u == CapSense_IS_M0S8PERI_BLOCK)
ARM GAS  C:\Users\kevin\AppData\Local\Temp\ccEmeqeI.s 			page 10


 343:.\Generated_Source\PSoC4/CapSense.c **** 		CapSense_SenseClk_Start();
 153              		.loc 1 343 0
 154 001a FFF7FEFF 		bl	CapSense_SenseClk_Start
 155              	.LVL17:
 344:.\Generated_Source\PSoC4/CapSense.c **** 		CapSense_SampleClk_Start();
 156              		.loc 1 344 0
 157 001e FFF7FEFF 		bl	CapSense_SampleClk_Start
 158              	.LVL18:
 345:.\Generated_Source\PSoC4/CapSense.c **** 	#else
 346:.\Generated_Source\PSoC4/CapSense.c **** 		CapSense_SampleClk_Start();
 347:.\Generated_Source\PSoC4/CapSense.c **** 		CapSense_SenseClk_StartEx(CapSense_SampleClk__DIV_ID);
 348:.\Generated_Source\PSoC4/CapSense.c **** 	#endif /* (0u == CapSense_IS_M0S8PERI_BLOCK) */
 349:.\Generated_Source\PSoC4/CapSense.c **** 	
 350:.\Generated_Source\PSoC4/CapSense.c **** 	/* Enable the CSD block */
 351:.\Generated_Source\PSoC4/CapSense.c ****     newRegValue = CapSense_CSD_CFG_REG;
 159              		.loc 1 351 0
 160 0022 044B     		ldr	r3, .L5
 352:.\Generated_Source\PSoC4/CapSense.c ****     newRegValue |= (CapSense_CSD_CFG_ENABLE | CapSense_CSD_CFG_SENSE_COMP_EN 
 161              		.loc 1 352 0
 162 0024 0449     		ldr	r1, .L5+4
 351:.\Generated_Source\PSoC4/CapSense.c ****     newRegValue = CapSense_CSD_CFG_REG;
 163              		.loc 1 351 0
 164 0026 1A68     		ldr	r2, [r3]
 165              	.LVL19:
 353:.\Generated_Source\PSoC4/CapSense.c ****                                                    | CapSense_CSD_CFG_SENSE_EN);    
 354:.\Generated_Source\PSoC4/CapSense.c ****     CapSense_CSD_CFG_REG = newRegValue;
 355:.\Generated_Source\PSoC4/CapSense.c **** 
 356:.\Generated_Source\PSoC4/CapSense.c ****     /* Enable interrupt */
 357:.\Generated_Source\PSoC4/CapSense.c ****     CyIntEnable(CapSense_ISR_NUMBER);
 166              		.loc 1 357 0
 167 0028 0F20     		mov	r0, #15
 352:.\Generated_Source\PSoC4/CapSense.c ****     newRegValue |= (CapSense_CSD_CFG_ENABLE | CapSense_CSD_CFG_SENSE_COMP_EN 
 168              		.loc 1 352 0
 169 002a 0A43     		orr	r2, r1
 170              	.LVL20:
 354:.\Generated_Source\PSoC4/CapSense.c ****     CapSense_CSD_CFG_REG = newRegValue;
 171              		.loc 1 354 0
 172 002c 1A60     		str	r2, [r3]
 173              		.loc 1 357 0
 174 002e FFF7FEFF 		bl	CyIntEnable
 175              	.LVL21:
 358:.\Generated_Source\PSoC4/CapSense.c **** }
 176              		.loc 1 358 0
 177              		@ sp needed
 178 0032 08BD     		pop	{r3, pc}
 179              	.L6:
 180              		.align	2
 181              	.L5:
 182 0034 04000840 		.word	1074266116
 183 0038 00100880 		.word	-2146955264
 184              		.cfi_endproc
 185              	.LFE35:
 186              		.size	CapSense_Enable, .-CapSense_Enable
 187              		.section	.text.CapSense_Stop,"ax",%progbits
 188              		.align	1
 189              		.global	CapSense_Stop
 190              		.code	16
ARM GAS  C:\Users\kevin\AppData\Local\Temp\ccEmeqeI.s 			page 11


 191              		.thumb_func
 192              		.type	CapSense_Stop, %function
 193              	CapSense_Stop:
 194              	.LFB37:
 359:.\Generated_Source\PSoC4/CapSense.c **** 
 360:.\Generated_Source\PSoC4/CapSense.c **** 
 361:.\Generated_Source\PSoC4/CapSense.c **** /*******************************************************************************
 362:.\Generated_Source\PSoC4/CapSense.c **** * Function Name: CapSense_Start
 363:.\Generated_Source\PSoC4/CapSense.c **** ********************************************************************************
 364:.\Generated_Source\PSoC4/CapSense.c **** *
 365:.\Generated_Source\PSoC4/CapSense.c **** * Summary:
 366:.\Generated_Source\PSoC4/CapSense.c **** *  This is the preferred method to begin the component operation. CapSense_Start() 
 367:.\Generated_Source\PSoC4/CapSense.c **** *  calls the CapSense_Init() function, and then calls the CapSense_Enable() 
 368:.\Generated_Source\PSoC4/CapSense.c **** *  function. Initializes the registers and starts the CSD method of the CapSense 
 369:.\Generated_Source\PSoC4/CapSense.c **** *  component. Resets all the sensors to an inactive state. Enables interrupts for 
 370:.\Generated_Source\PSoC4/CapSense.c **** *  sensors scanning. When the SmartSense tuning mode is selected, the tuning procedure
 371:.\Generated_Source\PSoC4/CapSense.c **** *  is applied for all the sensors. The CapSense_Start() routine must be called before 
 372:.\Generated_Source\PSoC4/CapSense.c **** *  any other API routines.
 373:.\Generated_Source\PSoC4/CapSense.c **** *
 374:.\Generated_Source\PSoC4/CapSense.c **** * Parameters:
 375:.\Generated_Source\PSoC4/CapSense.c **** *  None
 376:.\Generated_Source\PSoC4/CapSense.c **** *
 377:.\Generated_Source\PSoC4/CapSense.c **** * Return:
 378:.\Generated_Source\PSoC4/CapSense.c **** *  None
 379:.\Generated_Source\PSoC4/CapSense.c **** *
 380:.\Generated_Source\PSoC4/CapSense.c **** * Global Variables:
 381:.\Generated_Source\PSoC4/CapSense.c **** *   CapSense_initVar - used to check the initial configuration, 
 382:.\Generated_Source\PSoC4/CapSense.c **** *   modified on the first function call.
 383:.\Generated_Source\PSoC4/CapSense.c **** *  CapSense_lowLevelTuningDone - Used to notify the Tuner GUI that 
 384:.\Generated_Source\PSoC4/CapSense.c **** *   tuning of the scanning parameters is done. 
 385:.\Generated_Source\PSoC4/CapSense.c **** *
 386:.\Generated_Source\PSoC4/CapSense.c **** * Side Effects:
 387:.\Generated_Source\PSoC4/CapSense.c **** *  None
 388:.\Generated_Source\PSoC4/CapSense.c **** * 
 389:.\Generated_Source\PSoC4/CapSense.c **** *******************************************************************************/
 390:.\Generated_Source\PSoC4/CapSense.c **** void CapSense_Start(void)
 391:.\Generated_Source\PSoC4/CapSense.c **** {
 392:.\Generated_Source\PSoC4/CapSense.c **** 
 393:.\Generated_Source\PSoC4/CapSense.c **** 	static uint8 CapSense_initVar = 0u;
 394:.\Generated_Source\PSoC4/CapSense.c **** 
 395:.\Generated_Source\PSoC4/CapSense.c **** 	#if((0u != CapSense_AUTOCALIBRATION_ENABLE) && (CapSense_TUNING_METHOD != CapSense__TUNING_AUTO))
 396:.\Generated_Source\PSoC4/CapSense.c **** 		uint32 curSensor;
 397:.\Generated_Source\PSoC4/CapSense.c **** 		uint32 rawLevel;
 398:.\Generated_Source\PSoC4/CapSense.c **** 		uint32 widget;
 399:.\Generated_Source\PSoC4/CapSense.c ****     #endif /* ((0u != CapSense_AUTOCALIBRATION_ENABLE) && (CapSense_TUNING_METHOD != CapSense__TUNI
 400:.\Generated_Source\PSoC4/CapSense.c **** 	
 401:.\Generated_Source\PSoC4/CapSense.c ****     if (CapSense_initVar == 0u)
 402:.\Generated_Source\PSoC4/CapSense.c ****     {
 403:.\Generated_Source\PSoC4/CapSense.c ****         CapSense_Init();
 404:.\Generated_Source\PSoC4/CapSense.c ****         CapSense_initVar = 1u;
 405:.\Generated_Source\PSoC4/CapSense.c ****     }
 406:.\Generated_Source\PSoC4/CapSense.c ****     CapSense_Enable();
 407:.\Generated_Source\PSoC4/CapSense.c **** 	
 408:.\Generated_Source\PSoC4/CapSense.c ****     /* AutoTunning start */
 409:.\Generated_Source\PSoC4/CapSense.c ****     #if(CapSense_TUNING_METHOD == CapSense__TUNING_AUTO)
 410:.\Generated_Source\PSoC4/CapSense.c **** 		#if(0u != CapSense_CSHL_API_GENERATE)
 411:.\Generated_Source\PSoC4/CapSense.c **** 	        CapSense_AutoTune();
ARM GAS  C:\Users\kevin\AppData\Local\Temp\ccEmeqeI.s 			page 12


 412:.\Generated_Source\PSoC4/CapSense.c **** 	        CapSense_lowLevelTuningDone = 1u;
 413:.\Generated_Source\PSoC4/CapSense.c **** 		#endif /* (0u != CapSense_CSHL_API_GENERATE) */
 414:.\Generated_Source\PSoC4/CapSense.c **** 	#else
 415:.\Generated_Source\PSoC4/CapSense.c **** 		#if(0u != CapSense_AUTOCALIBRATION_ENABLE)
 416:.\Generated_Source\PSoC4/CapSense.c **** 			
 417:.\Generated_Source\PSoC4/CapSense.c **** 			#if(CapSense_IDAC_CNT > 1u)
 418:.\Generated_Source\PSoC4/CapSense.c **** 				CapSense_CSD_IDAC_REG &= ~(CapSense_CSD_IDAC2_MODE_MASK);	
 419:.\Generated_Source\PSoC4/CapSense.c **** 			#endif /* (CapSense_IDAC_CNT > 1u) */
 420:.\Generated_Source\PSoC4/CapSense.c **** 			
 421:.\Generated_Source\PSoC4/CapSense.c **** 			for(curSensor = 0u; curSensor < CapSense_TOTAL_SCANSLOT_COUNT; curSensor++)
 422:.\Generated_Source\PSoC4/CapSense.c **** 			{
 423:.\Generated_Source\PSoC4/CapSense.c **** 				widget = CapSense_widgetNumber[curSensor];
 424:.\Generated_Source\PSoC4/CapSense.c **** 				rawLevel = CapSense_widgetResolution[widget] >> CapSense_RESOLUTION_OFFSET;
 425:.\Generated_Source\PSoC4/CapSense.c **** 				
 426:.\Generated_Source\PSoC4/CapSense.c **** 				/* Calibration level should be equal to 85% from scanning resolution */
 427:.\Generated_Source\PSoC4/CapSense.c **** 				rawLevel = (rawLevel * 85u) / 100u;
 428:.\Generated_Source\PSoC4/CapSense.c **** 				
 429:.\Generated_Source\PSoC4/CapSense.c **** 				CapSense_CalibrateSensor(curSensor, rawLevel, CapSense_modulationIDAC);
 430:.\Generated_Source\PSoC4/CapSense.c **** 			}
 431:.\Generated_Source\PSoC4/CapSense.c **** 
 432:.\Generated_Source\PSoC4/CapSense.c **** 			#if(0u != CapSense_TOTAL_CENTROIDS_COUNT) 
 433:.\Generated_Source\PSoC4/CapSense.c **** 				CapSense_NormalizeWidgets(CapSense_END_OF_WIDGETS_INDEX, CapSense_modulationIDAC);
 434:.\Generated_Source\PSoC4/CapSense.c **** 			#endif /* (0u != CapSense_TOTAL_CENTROIDS_COUNT)  */
 435:.\Generated_Source\PSoC4/CapSense.c **** 
 436:.\Generated_Source\PSoC4/CapSense.c **** 			#if(CapSense_IDAC_CNT > 1u)
 437:.\Generated_Source\PSoC4/CapSense.c **** 				for(curSensor = 0u; curSensor < CapSense_TOTAL_SCANSLOT_COUNT; curSensor++)
 438:.\Generated_Source\PSoC4/CapSense.c **** 			    {
 439:.\Generated_Source\PSoC4/CapSense.c **** 					CapSense_compensationIDAC[curSensor] = CapSense_modulationIDAC[curSensor] / 2u;
 440:.\Generated_Source\PSoC4/CapSense.c **** 					CapSense_modulationIDAC[curSensor] = (CapSense_modulationIDAC[curSensor] + 1u) / 2u;
 441:.\Generated_Source\PSoC4/CapSense.c **** 			    }
 442:.\Generated_Source\PSoC4/CapSense.c **** 				CapSense_CSD_IDAC_REG |= CapSense_CSD_IDAC2_MODE_FIXED;
 443:.\Generated_Source\PSoC4/CapSense.c **** 			#endif /* (CapSense_IDAC_CNT > 1u) */
 444:.\Generated_Source\PSoC4/CapSense.c **** 			
 445:.\Generated_Source\PSoC4/CapSense.c ****         #endif /* (0u != CapSense_AUTOCALIBRATION_ENABLE) */ 
 446:.\Generated_Source\PSoC4/CapSense.c **** 					
 447:.\Generated_Source\PSoC4/CapSense.c ****     #endif /* ((CapSense_TUNING_METHOD == CapSense__TUNING_AUTO) */	
 448:.\Generated_Source\PSoC4/CapSense.c **** 	
 449:.\Generated_Source\PSoC4/CapSense.c **** 	/* Initialize Advanced Centroid */
 450:.\Generated_Source\PSoC4/CapSense.c **** 	#if(CapSense_TOTAL_TRACKPAD_GESTURES_COUNT > 0u)
 451:.\Generated_Source\PSoC4/CapSense.c **** 		CapSense_AdvancedCentroidInit();
 452:.\Generated_Source\PSoC4/CapSense.c **** 	#endif /* (CapSense_TOTAL_TRACKPAD_GESTURES_COUNT > 0u) */
 453:.\Generated_Source\PSoC4/CapSense.c **** 	
 454:.\Generated_Source\PSoC4/CapSense.c **** 	/* Connect sense comparator input to AMUXA */
 455:.\Generated_Source\PSoC4/CapSense.c **** 	CapSense_CSD_CFG_REG |= CapSense_CSD_CFG_SENSE_INSEL;
 456:.\Generated_Source\PSoC4/CapSense.c **** }
 457:.\Generated_Source\PSoC4/CapSense.c **** 
 458:.\Generated_Source\PSoC4/CapSense.c **** 
 459:.\Generated_Source\PSoC4/CapSense.c **** /*******************************************************************************
 460:.\Generated_Source\PSoC4/CapSense.c **** * Function Name: CapSense_Stop
 461:.\Generated_Source\PSoC4/CapSense.c **** ********************************************************************************
 462:.\Generated_Source\PSoC4/CapSense.c **** *
 463:.\Generated_Source\PSoC4/CapSense.c **** * Summary:
 464:.\Generated_Source\PSoC4/CapSense.c **** *  Stops the sensor scanning, disables component interrupts, and resets all the 
 465:.\Generated_Source\PSoC4/CapSense.c **** *  sensors to an inactive state. Disables the Active mode power template bits for
 466:.\Generated_Source\PSoC4/CapSense.c **** *  the subcomponents used within CapSense.
 467:.\Generated_Source\PSoC4/CapSense.c **** *
 468:.\Generated_Source\PSoC4/CapSense.c **** * Parameters:
ARM GAS  C:\Users\kevin\AppData\Local\Temp\ccEmeqeI.s 			page 13


 469:.\Generated_Source\PSoC4/CapSense.c **** *  None
 470:.\Generated_Source\PSoC4/CapSense.c **** *
 471:.\Generated_Source\PSoC4/CapSense.c **** * Return:
 472:.\Generated_Source\PSoC4/CapSense.c **** *  None
 473:.\Generated_Source\PSoC4/CapSense.c **** *
 474:.\Generated_Source\PSoC4/CapSense.c **** * Global Variables:
 475:.\Generated_Source\PSoC4/CapSense.c **** *  CapSense_csdTrim1 - Contains the IDAC trim register value for the Sourcing Mode.
 476:.\Generated_Source\PSoC4/CapSense.c **** *  CapSense_csdTrim2 - Contains the IDAC trim register value for vSinking Mode.
 477:.\Generated_Source\PSoC4/CapSense.c **** *
 478:.\Generated_Source\PSoC4/CapSense.c **** * Side Effects:
 479:.\Generated_Source\PSoC4/CapSense.c **** *  This function should be called after scans are completed.
 480:.\Generated_Source\PSoC4/CapSense.c **** *
 481:.\Generated_Source\PSoC4/CapSense.c **** *******************************************************************************/
 482:.\Generated_Source\PSoC4/CapSense.c **** void CapSense_Stop(void)
 483:.\Generated_Source\PSoC4/CapSense.c **** {
 195              		.loc 1 483 0
 196              		.cfi_startproc
 197 0000 08B5     		push	{r3, lr}
 198              		.cfi_def_cfa_offset 8
 199              		.cfi_offset 3, -8
 200              		.cfi_offset 14, -4
 484:.\Generated_Source\PSoC4/CapSense.c ****     /* Disable interrupt */
 485:.\Generated_Source\PSoC4/CapSense.c ****     CyIntDisable(CapSense_ISR_NUMBER);
 201              		.loc 1 485 0
 202 0002 0F20     		mov	r0, #15
 203 0004 FFF7FEFF 		bl	CyIntDisable
 204              	.LVL22:
 486:.\Generated_Source\PSoC4/CapSense.c **** 	
 487:.\Generated_Source\PSoC4/CapSense.c **** 	CapSense_CSD_CFG_REG &= ~(CapSense_CSD_CFG_SENSE_COMP_EN | CapSense_CSD_CFG_SENSE_EN);
 205              		.loc 1 487 0
 206 0008 064B     		ldr	r3, .L8
 207 000a 074A     		ldr	r2, .L8+4
 208 000c 1968     		ldr	r1, [r3]
 488:.\Generated_Source\PSoC4/CapSense.c **** 	
 489:.\Generated_Source\PSoC4/CapSense.c **** 	#if(CapSense_IDAC_CNT == 2u)
 490:.\Generated_Source\PSoC4/CapSense.c **** 		CapSense_CSD_CFG_REG &= ~(CapSense_CSD_CFG_ENABLE);
 491:.\Generated_Source\PSoC4/CapSense.c **** 	#endif /* (CapSense_IDAC_CNT == 2u) */
 492:.\Generated_Source\PSoC4/CapSense.c **** 
 493:.\Generated_Source\PSoC4/CapSense.c ****     /* Disable the Clocks */
 494:.\Generated_Source\PSoC4/CapSense.c ****     CapSense_SenseClk_Stop();
 495:.\Generated_Source\PSoC4/CapSense.c ****     CapSense_SampleClk_Stop();
 496:.\Generated_Source\PSoC4/CapSense.c **** }
 209              		.loc 1 496 0
 210              		@ sp needed
 487:.\Generated_Source\PSoC4/CapSense.c **** 	CapSense_CSD_CFG_REG &= ~(CapSense_CSD_CFG_SENSE_COMP_EN | CapSense_CSD_CFG_SENSE_EN);
 211              		.loc 1 487 0
 212 000e 0A40     		and	r2, r1
 213 0010 1A60     		str	r2, [r3]
 490:.\Generated_Source\PSoC4/CapSense.c **** 		CapSense_CSD_CFG_REG &= ~(CapSense_CSD_CFG_ENABLE);
 214              		.loc 1 490 0
 215 0012 1A68     		ldr	r2, [r3]
 216 0014 5200     		lsl	r2, r2, #1
 217 0016 5208     		lsr	r2, r2, #1
 218 0018 1A60     		str	r2, [r3]
 494:.\Generated_Source\PSoC4/CapSense.c ****     CapSense_SenseClk_Stop();
 219              		.loc 1 494 0
 220 001a FFF7FEFF 		bl	CapSense_SenseClk_Stop
ARM GAS  C:\Users\kevin\AppData\Local\Temp\ccEmeqeI.s 			page 14


 221              	.LVL23:
 495:.\Generated_Source\PSoC4/CapSense.c ****     CapSense_SampleClk_Stop();
 222              		.loc 1 495 0
 223 001e FFF7FEFF 		bl	CapSense_SampleClk_Stop
 224              	.LVL24:
 225              		.loc 1 496 0
 226 0022 08BD     		pop	{r3, pc}
 227              	.L9:
 228              		.align	2
 229              	.L8:
 230 0024 04000840 		.word	1074266116
 231 0028 FFEFF7FF 		.word	-528385
 232              		.cfi_endproc
 233              	.LFE37:
 234              		.size	CapSense_Stop, .-CapSense_Stop
 235              		.section	.text.CapSense_IsBusy,"ax",%progbits
 236              		.align	1
 237              		.global	CapSense_IsBusy
 238              		.code	16
 239              		.thumb_func
 240              		.type	CapSense_IsBusy, %function
 241              	CapSense_IsBusy:
 242              	.LFB42:
 497:.\Generated_Source\PSoC4/CapSense.c **** 
 498:.\Generated_Source\PSoC4/CapSense.c **** 
 499:.\Generated_Source\PSoC4/CapSense.c **** /*******************************************************************************
 500:.\Generated_Source\PSoC4/CapSense.c **** * Function Name: CapSense_FindNextSensor
 501:.\Generated_Source\PSoC4/CapSense.c **** ********************************************************************************
 502:.\Generated_Source\PSoC4/CapSense.c **** *
 503:.\Generated_Source\PSoC4/CapSense.c **** * Summary:
 504:.\Generated_Source\PSoC4/CapSense.c **** *  Finds the next sensor to scan. 
 505:.\Generated_Source\PSoC4/CapSense.c **** *
 506:.\Generated_Source\PSoC4/CapSense.c **** * Parameters:
 507:.\Generated_Source\PSoC4/CapSense.c **** *  snsIndex:  Current index of sensor.
 508:.\Generated_Source\PSoC4/CapSense.c **** *
 509:.\Generated_Source\PSoC4/CapSense.c **** * Return:
 510:.\Generated_Source\PSoC4/CapSense.c **** *  Returns the next sensor index to scan.
 511:.\Generated_Source\PSoC4/CapSense.c **** *
 512:.\Generated_Source\PSoC4/CapSense.c **** * Global Variables:
 513:.\Generated_Source\PSoC4/CapSense.c **** *  CapSense_sensorEnableMask[] - used to store bit masks of the enabled sensors.
 514:.\Generated_Source\PSoC4/CapSense.c **** *
 515:.\Generated_Source\PSoC4/CapSense.c **** * Side Effects:
 516:.\Generated_Source\PSoC4/CapSense.c **** *  This function affects the  current scanning and should not
 517:.\Generated_Source\PSoC4/CapSense.c **** *  be used outside the component.
 518:.\Generated_Source\PSoC4/CapSense.c **** *
 519:.\Generated_Source\PSoC4/CapSense.c **** *******************************************************************************/
 520:.\Generated_Source\PSoC4/CapSense.c **** uint8 CapSense_FindNextSensor(uint8 snsIndex)
 521:.\Generated_Source\PSoC4/CapSense.c **** {
 522:.\Generated_Source\PSoC4/CapSense.c ****     uint32 enableFlag;
 523:.\Generated_Source\PSoC4/CapSense.c ****     
 524:.\Generated_Source\PSoC4/CapSense.c ****     /* Check if sensor enabled */
 525:.\Generated_Source\PSoC4/CapSense.c ****     do
 526:.\Generated_Source\PSoC4/CapSense.c ****     {
 527:.\Generated_Source\PSoC4/CapSense.c ****         /* Proceed with next sensor */
 528:.\Generated_Source\PSoC4/CapSense.c ****         snsIndex++;
 529:.\Generated_Source\PSoC4/CapSense.c ****         if(snsIndex == CapSense_TOTAL_SENSOR_COUNT)
 530:.\Generated_Source\PSoC4/CapSense.c ****         {
ARM GAS  C:\Users\kevin\AppData\Local\Temp\ccEmeqeI.s 			page 15


 531:.\Generated_Source\PSoC4/CapSense.c ****             break;
 532:.\Generated_Source\PSoC4/CapSense.c ****         }
 533:.\Generated_Source\PSoC4/CapSense.c ****         enableFlag = CapSense_GetBitValue(CapSense_sensorEnableMask, (uint32)snsIndex);
 534:.\Generated_Source\PSoC4/CapSense.c ****     }    
 535:.\Generated_Source\PSoC4/CapSense.c ****     while(enableFlag == 0u);
 536:.\Generated_Source\PSoC4/CapSense.c ****     
 537:.\Generated_Source\PSoC4/CapSense.c ****     return ((uint8)snsIndex);
 538:.\Generated_Source\PSoC4/CapSense.c **** }
 539:.\Generated_Source\PSoC4/CapSense.c **** 
 540:.\Generated_Source\PSoC4/CapSense.c **** 
 541:.\Generated_Source\PSoC4/CapSense.c **** /*******************************************************************************
 542:.\Generated_Source\PSoC4/CapSense.c **** * Function Name: CapSense_ScanSensor
 543:.\Generated_Source\PSoC4/CapSense.c **** ********************************************************************************
 544:.\Generated_Source\PSoC4/CapSense.c **** *
 545:.\Generated_Source\PSoC4/CapSense.c **** * Summary:
 546:.\Generated_Source\PSoC4/CapSense.c **** *  Sets the scan settings and starts scanning a sensor. After scanning is complete,
 547:.\Generated_Source\PSoC4/CapSense.c **** *  the ISR copies the measured sensor raw data to the global raw sensor array. 
 548:.\Generated_Source\PSoC4/CapSense.c **** *  Use of the ISR ensures this function is non-blocking. 
 549:.\Generated_Source\PSoC4/CapSense.c **** *  Each sensor has a unique number within the sensor array. 
 550:.\Generated_Source\PSoC4/CapSense.c **** *  This number is assigned by the CapSense customizer in sequence.
 551:.\Generated_Source\PSoC4/CapSense.c **** *
 552:.\Generated_Source\PSoC4/CapSense.c **** * Parameters:
 553:.\Generated_Source\PSoC4/CapSense.c **** *  sensor:  Sensor number.
 554:.\Generated_Source\PSoC4/CapSense.c **** *
 555:.\Generated_Source\PSoC4/CapSense.c **** * Return:
 556:.\Generated_Source\PSoC4/CapSense.c **** *  None
 557:.\Generated_Source\PSoC4/CapSense.c **** *
 558:.\Generated_Source\PSoC4/CapSense.c **** * Global Variables:
 559:.\Generated_Source\PSoC4/CapSense.c **** *  CapSense_csdStatusVar - used to provide the status and mode of the scanning process. 
 560:.\Generated_Source\PSoC4/CapSense.c **** *  Sets the busy status(scan in progress) and mode of scan as single scan.
 561:.\Generated_Source\PSoC4/CapSense.c **** *  CapSense_sensorIndex - used to store a sensor scanning sensor number.
 562:.\Generated_Source\PSoC4/CapSense.c **** *  Sets to the provided sensor argument.
 563:.\Generated_Source\PSoC4/CapSense.c **** *
 564:.\Generated_Source\PSoC4/CapSense.c **** * Side Effects:
 565:.\Generated_Source\PSoC4/CapSense.c **** *  None
 566:.\Generated_Source\PSoC4/CapSense.c **** * 
 567:.\Generated_Source\PSoC4/CapSense.c **** *******************************************************************************/
 568:.\Generated_Source\PSoC4/CapSense.c **** void CapSense_ScanSensor(uint32 sensor)
 569:.\Generated_Source\PSoC4/CapSense.c **** {
 570:.\Generated_Source\PSoC4/CapSense.c ****     /* Clears status/control variable and set sensorIndex */
 571:.\Generated_Source\PSoC4/CapSense.c ****     CapSense_csdStatusVar = 0u;
 572:.\Generated_Source\PSoC4/CapSense.c ****     CapSense_sensorIndex = (uint8)sensor;
 573:.\Generated_Source\PSoC4/CapSense.c ****     
 574:.\Generated_Source\PSoC4/CapSense.c ****     /* Start of sensor scan */
 575:.\Generated_Source\PSoC4/CapSense.c ****     CapSense_csdStatusVar = (CapSense_SW_STS_BUSY | CapSense_SW_CTRL_SINGLE_SCAN);
 576:.\Generated_Source\PSoC4/CapSense.c ****     CapSense_PreScan(sensor);
 577:.\Generated_Source\PSoC4/CapSense.c **** }
 578:.\Generated_Source\PSoC4/CapSense.c **** 
 579:.\Generated_Source\PSoC4/CapSense.c **** 
 580:.\Generated_Source\PSoC4/CapSense.c **** #if(0u != CapSense_CSHL_API_GENERATE)
 581:.\Generated_Source\PSoC4/CapSense.c **** /*******************************************************************************
 582:.\Generated_Source\PSoC4/CapSense.c **** * Function Name: CapSense_ScanWidget
 583:.\Generated_Source\PSoC4/CapSense.c **** ********************************************************************************
 584:.\Generated_Source\PSoC4/CapSense.c **** *
 585:.\Generated_Source\PSoC4/CapSense.c **** * Summary:
 586:.\Generated_Source\PSoC4/CapSense.c **** *  Sets the scan settings and starts scanning a widget.
 587:.\Generated_Source\PSoC4/CapSense.c **** *
ARM GAS  C:\Users\kevin\AppData\Local\Temp\ccEmeqeI.s 			page 16


 588:.\Generated_Source\PSoC4/CapSense.c **** * Parameters:
 589:.\Generated_Source\PSoC4/CapSense.c **** *  uint32 widget: Widget number.
 590:.\Generated_Source\PSoC4/CapSense.c **** *
 591:.\Generated_Source\PSoC4/CapSense.c **** * Return:
 592:.\Generated_Source\PSoC4/CapSense.c **** *  None
 593:.\Generated_Source\PSoC4/CapSense.c **** *
 594:.\Generated_Source\PSoC4/CapSense.c **** * Global Variables:
 595:.\Generated_Source\PSoC4/CapSense.c **** *  CapSense_csdStatusVar - used to provide the status and mode of the scanning process. 
 596:.\Generated_Source\PSoC4/CapSense.c **** *  Sets the busy status(scan in progress) and clears the single scan mode.
 597:.\Generated_Source\PSoC4/CapSense.c **** *  CapSense_sensorIndex - used to store a sensor scanning sensor number.
 598:.\Generated_Source\PSoC4/CapSense.c **** *  Sets to 0xFF and provided to function CapSense_FindNextSensor or
 599:.\Generated_Source\PSoC4/CapSense.c **** *  CapSense_sensorEnableMask[] - used to store bit masks of the enabled sensors.
 600:.\Generated_Source\PSoC4/CapSense.c **** *  CapSense_sensorEnableMaskBackup[] - used to backup bit masks of the enabled
 601:.\Generated_Source\PSoC4/CapSense.c **** *   sensors.
 602:.\Generated_Source\PSoC4/CapSense.c **** *
 603:.\Generated_Source\PSoC4/CapSense.c **** * Side Effects:
 604:.\Generated_Source\PSoC4/CapSense.c **** *  None
 605:.\Generated_Source\PSoC4/CapSense.c **** * 
 606:.\Generated_Source\PSoC4/CapSense.c **** *******************************************************************************/
 607:.\Generated_Source\PSoC4/CapSense.c **** void CapSense_ScanWidget(uint32 widget)
 608:.\Generated_Source\PSoC4/CapSense.c **** {
 609:.\Generated_Source\PSoC4/CapSense.c ****     uint32 sensorsPerWidget;
 610:.\Generated_Source\PSoC4/CapSense.c ****     uint32 lastSensor;
 611:.\Generated_Source\PSoC4/CapSense.c ****     uint32 snsIndex;
 612:.\Generated_Source\PSoC4/CapSense.c **** 
 613:.\Generated_Source\PSoC4/CapSense.c **** 	/* Get first sensor in widget */
 614:.\Generated_Source\PSoC4/CapSense.c **** 	CapSense_sensorIndex = CapSense_rawDataIndex[widget];
 615:.\Generated_Source\PSoC4/CapSense.c **** 	
 616:.\Generated_Source\PSoC4/CapSense.c **** 	/* Get number of sensors in widget */
 617:.\Generated_Source\PSoC4/CapSense.c **** 	sensorsPerWidget = CapSense_numberOfSensors[widget];
 618:.\Generated_Source\PSoC4/CapSense.c **** 	
 619:.\Generated_Source\PSoC4/CapSense.c **** 	/* Check if generic Sensor */
 620:.\Generated_Source\PSoC4/CapSense.c **** 	if(sensorsPerWidget == 0u)
 621:.\Generated_Source\PSoC4/CapSense.c **** 	{
 622:.\Generated_Source\PSoC4/CapSense.c **** 		sensorsPerWidget = 1u;
 623:.\Generated_Source\PSoC4/CapSense.c **** 	}
 624:.\Generated_Source\PSoC4/CapSense.c **** 	
 625:.\Generated_Source\PSoC4/CapSense.c **** 	/* Get last sensor in widget */
 626:.\Generated_Source\PSoC4/CapSense.c **** 	lastSensor = (CapSense_rawDataIndex[widget] + sensorsPerWidget) - 1u;
 627:.\Generated_Source\PSoC4/CapSense.c **** 
 628:.\Generated_Source\PSoC4/CapSense.c **** 	/* Backup sensorEnableMask array */
 629:.\Generated_Source\PSoC4/CapSense.c **** 	for(snsIndex = 0u; snsIndex < CapSense_TOTAL_SENSOR_MASK; snsIndex++)
 630:.\Generated_Source\PSoC4/CapSense.c **** 	{
 631:.\Generated_Source\PSoC4/CapSense.c **** 		/* Backup sensorEnableMask array */
 632:.\Generated_Source\PSoC4/CapSense.c **** 		CapSense_sensorEnableMaskBackup[snsIndex] = CapSense_sensorEnableMask[snsIndex];
 633:.\Generated_Source\PSoC4/CapSense.c **** 	}
 634:.\Generated_Source\PSoC4/CapSense.c **** 
 635:.\Generated_Source\PSoC4/CapSense.c **** 	/* Update sensorEnableMask to scan the sensors that belong to widget */
 636:.\Generated_Source\PSoC4/CapSense.c **** 	for(snsIndex = 0u; snsIndex < CapSense_TOTAL_SENSOR_COUNT; snsIndex++)
 637:.\Generated_Source\PSoC4/CapSense.c **** 	{
 638:.\Generated_Source\PSoC4/CapSense.c **** 		/* Update sensorEnableMask array bits to scan the widget only */ 
 639:.\Generated_Source\PSoC4/CapSense.c **** 	    if((snsIndex >= CapSense_sensorIndex) && (snsIndex <= lastSensor))
 640:.\Generated_Source\PSoC4/CapSense.c **** 		{
 641:.\Generated_Source\PSoC4/CapSense.c **** 		    /* Set sensor bit to scan */
 642:.\Generated_Source\PSoC4/CapSense.c **** 			CapSense_SetBitValue(CapSense_sensorEnableMask, snsIndex, 1u);
 643:.\Generated_Source\PSoC4/CapSense.c **** 		}
 644:.\Generated_Source\PSoC4/CapSense.c **** 		else
ARM GAS  C:\Users\kevin\AppData\Local\Temp\ccEmeqeI.s 			page 17


 645:.\Generated_Source\PSoC4/CapSense.c **** 		{
 646:.\Generated_Source\PSoC4/CapSense.c **** 		    /* Reset sensor bit to do not scan */
 647:.\Generated_Source\PSoC4/CapSense.c **** 		    CapSense_SetBitValue(CapSense_sensorEnableMask, snsIndex, 0u);
 648:.\Generated_Source\PSoC4/CapSense.c **** 		}
 649:.\Generated_Source\PSoC4/CapSense.c **** 	}
 650:.\Generated_Source\PSoC4/CapSense.c **** 
 651:.\Generated_Source\PSoC4/CapSense.c ****     /* Check end of scan condition */
 652:.\Generated_Source\PSoC4/CapSense.c ****     if(CapSense_sensorIndex < CapSense_TOTAL_SENSOR_COUNT)
 653:.\Generated_Source\PSoC4/CapSense.c ****     {
 654:.\Generated_Source\PSoC4/CapSense.c **** 		/* Set widget busy bit in status/control variable*/ 
 655:.\Generated_Source\PSoC4/CapSense.c **** 		CapSense_csdStatusVar = (CapSense_SW_STS_BUSY | CapSense_SW_CTRL_WIDGET_SCAN);
 656:.\Generated_Source\PSoC4/CapSense.c **** 		/* Scan first sensor of widget*/ 
 657:.\Generated_Source\PSoC4/CapSense.c ****         CapSense_PreScan((uint32)CapSense_sensorIndex);
 658:.\Generated_Source\PSoC4/CapSense.c ****     }
 659:.\Generated_Source\PSoC4/CapSense.c **** }
 660:.\Generated_Source\PSoC4/CapSense.c **** #endif /* (0u != CapSense_CSHL_API_GENERATE) */
 661:.\Generated_Source\PSoC4/CapSense.c **** 
 662:.\Generated_Source\PSoC4/CapSense.c **** 
 663:.\Generated_Source\PSoC4/CapSense.c **** /*******************************************************************************
 664:.\Generated_Source\PSoC4/CapSense.c **** * Function Name: CapSense_ScanEnableWidgets
 665:.\Generated_Source\PSoC4/CapSense.c **** ********************************************************************************
 666:.\Generated_Source\PSoC4/CapSense.c **** *
 667:.\Generated_Source\PSoC4/CapSense.c **** * Summary:
 668:.\Generated_Source\PSoC4/CapSense.c **** *  This is the preferred method to scan all of the enabled widgets. 
 669:.\Generated_Source\PSoC4/CapSense.c **** *  The API starts scanning a sensor within the enabled widgets. 
 670:.\Generated_Source\PSoC4/CapSense.c **** *  The ISR continues scanning the sensors until all the enabled widgets are scanned. 
 671:.\Generated_Source\PSoC4/CapSense.c **** *  Use of the ISR ensures this function is non-blocking.
 672:.\Generated_Source\PSoC4/CapSense.c **** *  All the widgets are enabled by default except proximity widgets. 
 673:.\Generated_Source\PSoC4/CapSense.c **** *  The proximity widgets must be manually enabled as their long scan time 
 674:.\Generated_Source\PSoC4/CapSense.c **** *  is incompatible with a fast response required of other widget types.
 675:.\Generated_Source\PSoC4/CapSense.c **** *
 676:.\Generated_Source\PSoC4/CapSense.c **** * Parameters:
 677:.\Generated_Source\PSoC4/CapSense.c **** *  None
 678:.\Generated_Source\PSoC4/CapSense.c **** *
 679:.\Generated_Source\PSoC4/CapSense.c **** * Return:
 680:.\Generated_Source\PSoC4/CapSense.c **** *  None
 681:.\Generated_Source\PSoC4/CapSense.c **** *
 682:.\Generated_Source\PSoC4/CapSense.c **** * Global Variables:
 683:.\Generated_Source\PSoC4/CapSense.c **** *  CapSense_csdStatusVar - used to provide the status and mode of the scanning process. 
 684:.\Generated_Source\PSoC4/CapSense.c **** *  Sets the busy status(scan in progress) and clears the single scan mode.
 685:.\Generated_Source\PSoC4/CapSense.c **** *  CapSense_sensorIndex - used to store a sensor scanning sensor number.
 686:.\Generated_Source\PSoC4/CapSense.c **** *  Sets to 0xFF and provided to function CapSense_FindNextSensor or
 687:.\Generated_Source\PSoC4/CapSense.c **** *
 688:.\Generated_Source\PSoC4/CapSense.c **** * Side Effects:
 689:.\Generated_Source\PSoC4/CapSense.c **** *  None
 690:.\Generated_Source\PSoC4/CapSense.c **** * 
 691:.\Generated_Source\PSoC4/CapSense.c **** *******************************************************************************/
 692:.\Generated_Source\PSoC4/CapSense.c **** void CapSense_ScanEnabledWidgets(void)
 693:.\Generated_Source\PSoC4/CapSense.c **** {
 694:.\Generated_Source\PSoC4/CapSense.c ****     /* Clears status/control variable and set sensorIndex */
 695:.\Generated_Source\PSoC4/CapSense.c ****     CapSense_csdStatusVar = 0u;
 696:.\Generated_Source\PSoC4/CapSense.c ****     CapSense_sensorIndex = 0xFFu;
 697:.\Generated_Source\PSoC4/CapSense.c ****     
 698:.\Generated_Source\PSoC4/CapSense.c ****     /* Find next sensor */
 699:.\Generated_Source\PSoC4/CapSense.c ****     CapSense_sensorIndex = (uint8)CapSense_FindNextSensor(CapSense_sensorIndex);
 700:.\Generated_Source\PSoC4/CapSense.c **** 
 701:.\Generated_Source\PSoC4/CapSense.c ****     /* Check end of scan condition */
ARM GAS  C:\Users\kevin\AppData\Local\Temp\ccEmeqeI.s 			page 18


 702:.\Generated_Source\PSoC4/CapSense.c ****     if(CapSense_sensorIndex < CapSense_TOTAL_SENSOR_COUNT)
 703:.\Generated_Source\PSoC4/CapSense.c ****     {
 704:.\Generated_Source\PSoC4/CapSense.c ****         CapSense_csdStatusVar |= CapSense_SW_STS_BUSY;
 705:.\Generated_Source\PSoC4/CapSense.c ****         CapSense_PreScan((uint32)CapSense_sensorIndex);
 706:.\Generated_Source\PSoC4/CapSense.c ****     }
 707:.\Generated_Source\PSoC4/CapSense.c **** }
 708:.\Generated_Source\PSoC4/CapSense.c **** 
 709:.\Generated_Source\PSoC4/CapSense.c **** 
 710:.\Generated_Source\PSoC4/CapSense.c **** /*******************************************************************************
 711:.\Generated_Source\PSoC4/CapSense.c **** * Function Name: CapSense_IsBusy
 712:.\Generated_Source\PSoC4/CapSense.c **** ********************************************************************************
 713:.\Generated_Source\PSoC4/CapSense.c **** *
 714:.\Generated_Source\PSoC4/CapSense.c **** * Summary:
 715:.\Generated_Source\PSoC4/CapSense.c **** *  Returns the state of the CapSense component. 1 means that scanning in 
 716:.\Generated_Source\PSoC4/CapSense.c **** *  progress and 0 means that scanning is complete.
 717:.\Generated_Source\PSoC4/CapSense.c **** *
 718:.\Generated_Source\PSoC4/CapSense.c **** * Parameters:
 719:.\Generated_Source\PSoC4/CapSense.c **** *  None
 720:.\Generated_Source\PSoC4/CapSense.c **** *
 721:.\Generated_Source\PSoC4/CapSense.c **** * Return:
 722:.\Generated_Source\PSoC4/CapSense.c **** *  Returns the state of scanning. 1 - scanning in progress, 0 - scanning 
 723:.\Generated_Source\PSoC4/CapSense.c **** *  completed.
 724:.\Generated_Source\PSoC4/CapSense.c **** *
 725:.\Generated_Source\PSoC4/CapSense.c **** * Global Variables:
 726:.\Generated_Source\PSoC4/CapSense.c **** *  CapSense_csdStatusVar - used to provide the status and mode of the scanning process. 
 727:.\Generated_Source\PSoC4/CapSense.c **** *  Checks the busy status.
 728:.\Generated_Source\PSoC4/CapSense.c **** *
 729:.\Generated_Source\PSoC4/CapSense.c **** * Side Effects:
 730:.\Generated_Source\PSoC4/CapSense.c **** *  None
 731:.\Generated_Source\PSoC4/CapSense.c **** * 
 732:.\Generated_Source\PSoC4/CapSense.c **** *******************************************************************************/
 733:.\Generated_Source\PSoC4/CapSense.c **** uint32 CapSense_IsBusy(void)
 734:.\Generated_Source\PSoC4/CapSense.c **** {
 243              		.loc 1 734 0
 244              		.cfi_startproc
 735:.\Generated_Source\PSoC4/CapSense.c ****     return ((uint32)((0u != (CapSense_csdStatusVar & CapSense_SW_STS_BUSY)) ? 1u : 0u));
 245              		.loc 1 735 0
 246 0000 024B     		ldr	r3, .L11
 736:.\Generated_Source\PSoC4/CapSense.c **** }
 247              		.loc 1 736 0
 248              		@ sp needed
 735:.\Generated_Source\PSoC4/CapSense.c ****     return ((uint32)((0u != (CapSense_csdStatusVar & CapSense_SW_STS_BUSY)) ? 1u : 0u));
 249              		.loc 1 735 0
 250 0002 1878     		ldrb	r0, [r3]
 251 0004 0123     		mov	r3, #1
 252 0006 1840     		and	r0, r3
 253              		.loc 1 736 0
 254 0008 7047     		bx	lr
 255              	.L12:
 256 000a C046     		.align	2
 257              	.L11:
 258 000c 00000000 		.word	.LANCHOR0
 259              		.cfi_endproc
 260              	.LFE42:
 261              		.size	CapSense_IsBusy, .-CapSense_IsBusy
 262              		.section	.text.CapSense_ReadSensorRaw,"ax",%progbits
 263              		.align	1
ARM GAS  C:\Users\kevin\AppData\Local\Temp\ccEmeqeI.s 			page 19


 264              		.global	CapSense_ReadSensorRaw
 265              		.code	16
 266              		.thumb_func
 267              		.type	CapSense_ReadSensorRaw, %function
 268              	CapSense_ReadSensorRaw:
 269              	.LFB43:
 737:.\Generated_Source\PSoC4/CapSense.c **** 
 738:.\Generated_Source\PSoC4/CapSense.c **** 
 739:.\Generated_Source\PSoC4/CapSense.c **** /*******************************************************************************
 740:.\Generated_Source\PSoC4/CapSense.c **** * Function Name: CapSense_ReadSensorRaw
 741:.\Generated_Source\PSoC4/CapSense.c **** ********************************************************************************
 742:.\Generated_Source\PSoC4/CapSense.c **** *
 743:.\Generated_Source\PSoC4/CapSense.c **** * Summary:
 744:.\Generated_Source\PSoC4/CapSense.c **** *  Returns sensor raw data from the global CapSense_sensorRaw[ ] array. 
 745:.\Generated_Source\PSoC4/CapSense.c **** *  Each scan sensor has a unique number within the sensor array. 
 746:.\Generated_Source\PSoC4/CapSense.c **** *  This number is assigned by the CapSense customizer in sequence. 
 747:.\Generated_Source\PSoC4/CapSense.c **** *  Raw data can be used to perform calculations outside of the CapSense 
 748:.\Generated_Source\PSoC4/CapSense.c **** *  provided framework.
 749:.\Generated_Source\PSoC4/CapSense.c **** *
 750:.\Generated_Source\PSoC4/CapSense.c **** * Parameters:
 751:.\Generated_Source\PSoC4/CapSense.c **** *  sensor:  Sensor number.
 752:.\Generated_Source\PSoC4/CapSense.c **** *
 753:.\Generated_Source\PSoC4/CapSense.c **** * Return:
 754:.\Generated_Source\PSoC4/CapSense.c **** *  Returns the current raw data value for a defined sensor number.
 755:.\Generated_Source\PSoC4/CapSense.c **** *
 756:.\Generated_Source\PSoC4/CapSense.c **** * Global Variables:
 757:.\Generated_Source\PSoC4/CapSense.c **** *  CapSense_sensorRaw[] - used to store sensors raw data.
 758:.\Generated_Source\PSoC4/CapSense.c **** *
 759:.\Generated_Source\PSoC4/CapSense.c **** * Side Effects: 
 760:.\Generated_Source\PSoC4/CapSense.c **** *  None
 761:.\Generated_Source\PSoC4/CapSense.c **** *
 762:.\Generated_Source\PSoC4/CapSense.c **** *******************************************************************************/
 763:.\Generated_Source\PSoC4/CapSense.c **** uint16 CapSense_ReadSensorRaw(uint32 sensor)
 764:.\Generated_Source\PSoC4/CapSense.c **** {
 270              		.loc 1 764 0
 271              		.cfi_startproc
 272              	.LVL25:
 765:.\Generated_Source\PSoC4/CapSense.c ****     return CapSense_sensorRaw[sensor];
 273              		.loc 1 765 0
 274 0000 024B     		ldr	r3, .L14
 275 0002 4000     		lsl	r0, r0, #1
 276              	.LVL26:
 277 0004 0233     		add	r3, r3, #2
 278 0006 185A     		ldrh	r0, [r3, r0]
 766:.\Generated_Source\PSoC4/CapSense.c **** }
 279              		.loc 1 766 0
 280              		@ sp needed
 281 0008 7047     		bx	lr
 282              	.L15:
 283 000a C046     		.align	2
 284              	.L14:
 285 000c 00000000 		.word	.LANCHOR0
 286              		.cfi_endproc
 287              	.LFE43:
 288              		.size	CapSense_ReadSensorRaw, .-CapSense_ReadSensorRaw
 289              		.section	.text.CapSense_WriteSensorRaw,"ax",%progbits
 290              		.align	1
ARM GAS  C:\Users\kevin\AppData\Local\Temp\ccEmeqeI.s 			page 20


 291              		.global	CapSense_WriteSensorRaw
 292              		.code	16
 293              		.thumb_func
 294              		.type	CapSense_WriteSensorRaw, %function
 295              	CapSense_WriteSensorRaw:
 296              	.LFB44:
 767:.\Generated_Source\PSoC4/CapSense.c **** 
 768:.\Generated_Source\PSoC4/CapSense.c **** 
 769:.\Generated_Source\PSoC4/CapSense.c **** /*******************************************************************************
 770:.\Generated_Source\PSoC4/CapSense.c **** * Function Name: CapSense_WriteSensorRaw
 771:.\Generated_Source\PSoC4/CapSense.c **** ********************************************************************************
 772:.\Generated_Source\PSoC4/CapSense.c **** *
 773:.\Generated_Source\PSoC4/CapSense.c **** * Summary:
 774:.\Generated_Source\PSoC4/CapSense.c **** *  This API writes the raw count value passed as an argument to the sensor Raw count array.
 775:.\Generated_Source\PSoC4/CapSense.c **** *
 776:.\Generated_Source\PSoC4/CapSense.c **** * Parameters:
 777:.\Generated_Source\PSoC4/CapSense.c **** *  sensor:  Sensor number.
 778:.\Generated_Source\PSoC4/CapSense.c **** *  value: Raw count value.
 779:.\Generated_Source\PSoC4/CapSense.c **** *
 780:.\Generated_Source\PSoC4/CapSense.c **** * Global Variables:
 781:.\Generated_Source\PSoC4/CapSense.c **** *  CapSense_sensorRaw[] - used to store sensors raw data.
 782:.\Generated_Source\PSoC4/CapSense.c **** *
 783:.\Generated_Source\PSoC4/CapSense.c **** * Return:
 784:.\Generated_Source\PSoC4/CapSense.c **** *  None
 785:.\Generated_Source\PSoC4/CapSense.c **** *
 786:.\Generated_Source\PSoC4/CapSense.c **** * Side Effects: 
 787:.\Generated_Source\PSoC4/CapSense.c **** *  None
 788:.\Generated_Source\PSoC4/CapSense.c **** *
 789:.\Generated_Source\PSoC4/CapSense.c **** *******************************************************************************/
 790:.\Generated_Source\PSoC4/CapSense.c **** void CapSense_WriteSensorRaw(uint32 sensor, uint16 value)
 791:.\Generated_Source\PSoC4/CapSense.c **** {
 297              		.loc 1 791 0
 298              		.cfi_startproc
 299              	.LVL27:
 792:.\Generated_Source\PSoC4/CapSense.c **** 	CapSense_sensorRaw[sensor] = value;
 300              		.loc 1 792 0
 301 0000 024B     		ldr	r3, .L17
 302 0002 4000     		lsl	r0, r0, #1
 303              	.LVL28:
 304 0004 0233     		add	r3, r3, #2
 305 0006 C152     		strh	r1, [r0, r3]
 793:.\Generated_Source\PSoC4/CapSense.c **** }
 306              		.loc 1 793 0
 307              		@ sp needed
 308 0008 7047     		bx	lr
 309              	.L18:
 310 000a C046     		.align	2
 311              	.L17:
 312 000c 00000000 		.word	.LANCHOR0
 313              		.cfi_endproc
 314              	.LFE44:
 315              		.size	CapSense_WriteSensorRaw, .-CapSense_WriteSensorRaw
 316              		.section	.text.CapSense_GetScanResolution,"ax",%progbits
 317              		.align	1
 318              		.global	CapSense_GetScanResolution
 319              		.code	16
 320              		.thumb_func
ARM GAS  C:\Users\kevin\AppData\Local\Temp\ccEmeqeI.s 			page 21


 321              		.type	CapSense_GetScanResolution, %function
 322              	CapSense_GetScanResolution:
 323              	.LFB45:
 794:.\Generated_Source\PSoC4/CapSense.c **** 
 795:.\Generated_Source\PSoC4/CapSense.c **** 
 796:.\Generated_Source\PSoC4/CapSense.c **** #if (CapSense_TUNING_METHOD != CapSense__TUNING_NONE)
 797:.\Generated_Source\PSoC4/CapSense.c **** 	/*******************************************************************************
 798:.\Generated_Source\PSoC4/CapSense.c **** 	* Function Name: CapSense_SetScanResolution
 799:.\Generated_Source\PSoC4/CapSense.c **** 	********************************************************************************
 800:.\Generated_Source\PSoC4/CapSense.c **** 	*
 801:.\Generated_Source\PSoC4/CapSense.c **** 	* Summary:
 802:.\Generated_Source\PSoC4/CapSense.c **** 	*  Sets a value of the sensor scan resolution for a widget. 
 803:.\Generated_Source\PSoC4/CapSense.c **** 	*  The MIN resolution can be set 8-bit. The MAX Resolution can be set 16 bit.
 804:.\Generated_Source\PSoC4/CapSense.c **** 	*  This function is not available for the tuning mode "None".
 805:.\Generated_Source\PSoC4/CapSense.c **** 	*
 806:.\Generated_Source\PSoC4/CapSense.c **** 	* Parameters:
 807:.\Generated_Source\PSoC4/CapSense.c **** 	*  widget:     Widget index.
 808:.\Generated_Source\PSoC4/CapSense.c **** 	*  resolution: Represents the resolution value. The following defines which are available in the
 809:.\Generated_Source\PSoC4/CapSense.c **** 	*			   CapSense.h file should be used:
 810:.\Generated_Source\PSoC4/CapSense.c **** 	*			   CapSense_RESOLUTION_6_BITS
 811:.\Generated_Source\PSoC4/CapSense.c **** 	*			   CapSense_RESOLUTION_7_BITS
 812:.\Generated_Source\PSoC4/CapSense.c **** 	*			   CapSense_RESOLUTION_8_BITS
 813:.\Generated_Source\PSoC4/CapSense.c **** 	*			   CapSense_RESOLUTION_9_BITS
 814:.\Generated_Source\PSoC4/CapSense.c **** 	*			   CapSense_RESOLUTION_10_BITS
 815:.\Generated_Source\PSoC4/CapSense.c **** 	*			   CapSense_RESOLUTION_11_BITS
 816:.\Generated_Source\PSoC4/CapSense.c **** 	*			   CapSense_RESOLUTION_12_BITS
 817:.\Generated_Source\PSoC4/CapSense.c **** 	*			   CapSense_RESOLUTION_13_BITS
 818:.\Generated_Source\PSoC4/CapSense.c **** 	*			   CapSense_RESOLUTION_14_BITS
 819:.\Generated_Source\PSoC4/CapSense.c **** 	*			   CapSense_RESOLUTION_15_BITS
 820:.\Generated_Source\PSoC4/CapSense.c **** 	*			   CapSense_RESOLUTION_16_BITS
 821:.\Generated_Source\PSoC4/CapSense.c **** 	*
 822:.\Generated_Source\PSoC4/CapSense.c **** 	* Return:
 823:.\Generated_Source\PSoC4/CapSense.c **** 	*  None
 824:.\Generated_Source\PSoC4/CapSense.c **** 	*
 825:.\Generated_Source\PSoC4/CapSense.c **** 	* Global Variables:
 826:.\Generated_Source\PSoC4/CapSense.c **** 	*  CapSense_widgetResolution[] - used to store scan resolution of each widget.
 827:.\Generated_Source\PSoC4/CapSense.c **** 	*
 828:.\Generated_Source\PSoC4/CapSense.c **** 	* Side Effects: 
 829:.\Generated_Source\PSoC4/CapSense.c **** 	*  None
 830:.\Generated_Source\PSoC4/CapSense.c **** 	*
 831:.\Generated_Source\PSoC4/CapSense.c **** 	*******************************************************************************/
 832:.\Generated_Source\PSoC4/CapSense.c **** 	void CapSense_SetScanResolution(uint32 widget, uint32 resolution)
 833:.\Generated_Source\PSoC4/CapSense.c **** 	{ 
 834:.\Generated_Source\PSoC4/CapSense.c ****         CapSense_widgetResolution[widget] = resolution;
 835:.\Generated_Source\PSoC4/CapSense.c **** 	}
 836:.\Generated_Source\PSoC4/CapSense.c **** #endif /* (CapSense_TUNING_METHOD != CapSense__TUNING_NONE) */
 837:.\Generated_Source\PSoC4/CapSense.c **** 
 838:.\Generated_Source\PSoC4/CapSense.c **** 
 839:.\Generated_Source\PSoC4/CapSense.c **** /*******************************************************************************
 840:.\Generated_Source\PSoC4/CapSense.c **** * Function Name: CapSense_GetScanResolution
 841:.\Generated_Source\PSoC4/CapSense.c **** ********************************************************************************
 842:.\Generated_Source\PSoC4/CapSense.c **** *
 843:.\Generated_Source\PSoC4/CapSense.c **** * Summary:
 844:.\Generated_Source\PSoC4/CapSense.c **** *  Returns the resolution value for the appropriate sensor.
 845:.\Generated_Source\PSoC4/CapSense.c **** *  This function is not available for tuning mode "None".
 846:.\Generated_Source\PSoC4/CapSense.c **** *
 847:.\Generated_Source\PSoC4/CapSense.c **** * Parameters:
ARM GAS  C:\Users\kevin\AppData\Local\Temp\ccEmeqeI.s 			page 22


 848:.\Generated_Source\PSoC4/CapSense.c **** *  widget:     Widget index.
 849:.\Generated_Source\PSoC4/CapSense.c **** *
 850:.\Generated_Source\PSoC4/CapSense.c **** * Return:
 851:.\Generated_Source\PSoC4/CapSense.c **** *  resolution: Returns the resolution value for the appropriate sensor. 
 852:.\Generated_Source\PSoC4/CapSense.c **** *              The resolution values are defined in the CapSense.h file 
 853:.\Generated_Source\PSoC4/CapSense.c **** *              The defines are encountered below:
 854:.\Generated_Source\PSoC4/CapSense.c **** *			   CapSense_RESOLUTION_6_BITS
 855:.\Generated_Source\PSoC4/CapSense.c **** *			   CapSense_RESOLUTION_7_BITS
 856:.\Generated_Source\PSoC4/CapSense.c **** *			   CapSense_RESOLUTION_8_BITS
 857:.\Generated_Source\PSoC4/CapSense.c **** *			   CapSense_RESOLUTION_9_BITS
 858:.\Generated_Source\PSoC4/CapSense.c **** *			   CapSense_RESOLUTION_10_BITS
 859:.\Generated_Source\PSoC4/CapSense.c **** *			   CapSense_RESOLUTION_11_BITS
 860:.\Generated_Source\PSoC4/CapSense.c **** *			   CapSense_RESOLUTION_12_BITS
 861:.\Generated_Source\PSoC4/CapSense.c **** *			   CapSense_RESOLUTION_13_BITS
 862:.\Generated_Source\PSoC4/CapSense.c **** *			   CapSense_RESOLUTION_14_BITS
 863:.\Generated_Source\PSoC4/CapSense.c **** *			   CapSense_RESOLUTION_15_BITS
 864:.\Generated_Source\PSoC4/CapSense.c **** *			   CapSense_RESOLUTION_16_BITS
 865:.\Generated_Source\PSoC4/CapSense.c **** *
 866:.\Generated_Source\PSoC4/CapSense.c **** * Global Variables:
 867:.\Generated_Source\PSoC4/CapSense.c **** *  CapSense_widgetResolution[] - used to store scan resolution of every widget.
 868:.\Generated_Source\PSoC4/CapSense.c **** *
 869:.\Generated_Source\PSoC4/CapSense.c **** * Side Effects: 
 870:.\Generated_Source\PSoC4/CapSense.c **** *  None
 871:.\Generated_Source\PSoC4/CapSense.c **** *
 872:.\Generated_Source\PSoC4/CapSense.c **** *******************************************************************************/
 873:.\Generated_Source\PSoC4/CapSense.c **** uint32 CapSense_GetScanResolution(uint32 widget)
 874:.\Generated_Source\PSoC4/CapSense.c **** {
 324              		.loc 1 874 0
 325              		.cfi_startproc
 326              	.LVL29:
 875:.\Generated_Source\PSoC4/CapSense.c **** 	return(CapSense_widgetResolution[widget]);
 327              		.loc 1 875 0
 328 0000 014B     		ldr	r3, .L20
 329 0002 8000     		lsl	r0, r0, #2
 330              	.LVL30:
 331 0004 C058     		ldr	r0, [r0, r3]
 876:.\Generated_Source\PSoC4/CapSense.c **** }
 332              		.loc 1 876 0
 333              		@ sp needed
 334 0006 7047     		bx	lr
 335              	.L21:
 336              		.align	2
 337              	.L20:
 338 0008 00000000 		.word	.LANCHOR1
 339              		.cfi_endproc
 340              	.LFE45:
 341              		.size	CapSense_GetScanResolution, .-CapSense_GetScanResolution
 342              		.section	.text.CapSense_EnableSensor,"ax",%progbits
 343              		.align	1
 344              		.global	CapSense_EnableSensor
 345              		.code	16
 346              		.thumb_func
 347              		.type	CapSense_EnableSensor, %function
 348              	CapSense_EnableSensor:
 349              	.LFB47:
 877:.\Generated_Source\PSoC4/CapSense.c **** 
 878:.\Generated_Source\PSoC4/CapSense.c **** 
ARM GAS  C:\Users\kevin\AppData\Local\Temp\ccEmeqeI.s 			page 23


 879:.\Generated_Source\PSoC4/CapSense.c **** /*******************************************************************************
 880:.\Generated_Source\PSoC4/CapSense.c **** * Function Name: CapSense_ClearSensors
 881:.\Generated_Source\PSoC4/CapSense.c **** ********************************************************************************
 882:.\Generated_Source\PSoC4/CapSense.c **** *
 883:.\Generated_Source\PSoC4/CapSense.c **** * Summary:
 884:.\Generated_Source\PSoC4/CapSense.c **** *  Resets all the sensors to the non-sampling state by sequentially disconnecting
 885:.\Generated_Source\PSoC4/CapSense.c **** *  all the sensors from Analog MUX Bus and putting them to an inactive state.
 886:.\Generated_Source\PSoC4/CapSense.c **** *
 887:.\Generated_Source\PSoC4/CapSense.c **** * Parameters:
 888:.\Generated_Source\PSoC4/CapSense.c **** *  None
 889:.\Generated_Source\PSoC4/CapSense.c **** *
 890:.\Generated_Source\PSoC4/CapSense.c **** * Return:
 891:.\Generated_Source\PSoC4/CapSense.c **** *  None
 892:.\Generated_Source\PSoC4/CapSense.c **** *
 893:.\Generated_Source\PSoC4/CapSense.c **** * Global Variables:
 894:.\Generated_Source\PSoC4/CapSense.c **** *  None
 895:.\Generated_Source\PSoC4/CapSense.c **** *
 896:.\Generated_Source\PSoC4/CapSense.c **** * Side Effects: 
 897:.\Generated_Source\PSoC4/CapSense.c **** *  None
 898:.\Generated_Source\PSoC4/CapSense.c **** *
 899:.\Generated_Source\PSoC4/CapSense.c **** *******************************************************************************/
 900:.\Generated_Source\PSoC4/CapSense.c **** void CapSense_ClearSensors(void)
 901:.\Generated_Source\PSoC4/CapSense.c **** {
 902:.\Generated_Source\PSoC4/CapSense.c **** 	uint32 snsIndex;
 903:.\Generated_Source\PSoC4/CapSense.c **** 	
 904:.\Generated_Source\PSoC4/CapSense.c ****     for (snsIndex = 0u; snsIndex < CapSense_TOTAL_SENSOR_COUNT; snsIndex++)
 905:.\Generated_Source\PSoC4/CapSense.c ****     {
 906:.\Generated_Source\PSoC4/CapSense.c ****         CapSense_DisableScanSlot(snsIndex);
 907:.\Generated_Source\PSoC4/CapSense.c ****     }
 908:.\Generated_Source\PSoC4/CapSense.c **** }
 909:.\Generated_Source\PSoC4/CapSense.c **** 
 910:.\Generated_Source\PSoC4/CapSense.c **** 
 911:.\Generated_Source\PSoC4/CapSense.c **** #if (CapSense_IS_COMPLEX_SCANSLOTS)
 912:.\Generated_Source\PSoC4/CapSense.c ****     /*******************************************************************************
 913:.\Generated_Source\PSoC4/CapSense.c ****     * Function Name: CapSense_EnableScanSlot
 914:.\Generated_Source\PSoC4/CapSense.c ****     ********************************************************************************
 915:.\Generated_Source\PSoC4/CapSense.c ****     *
 916:.\Generated_Source\PSoC4/CapSense.c ****     * Summary:
 917:.\Generated_Source\PSoC4/CapSense.c ****     *  Configures the selected slot to measure during the next measurement 
 918:.\Generated_Source\PSoC4/CapSense.c ****     *  cycle. The corresponding pin/pins are set to Analog High-Z mode and 
 919:.\Generated_Source\PSoC4/CapSense.c ****     *  connected to the Analog Mux Bus. This also enables the comparator function.
 920:.\Generated_Source\PSoC4/CapSense.c ****     *
 921:.\Generated_Source\PSoC4/CapSense.c ****     * Parameters:
 922:.\Generated_Source\PSoC4/CapSense.c ****     *  slot:  Slot number.
 923:.\Generated_Source\PSoC4/CapSense.c ****     *
 924:.\Generated_Source\PSoC4/CapSense.c ****     * Return:
 925:.\Generated_Source\PSoC4/CapSense.c ****     *  None
 926:.\Generated_Source\PSoC4/CapSense.c ****     *
 927:.\Generated_Source\PSoC4/CapSense.c ****     * Global Constants:
 928:.\Generated_Source\PSoC4/CapSense.c ****     *  CapSense_portTable[]  - used to store the port number that pin 
 929:.\Generated_Source\PSoC4/CapSense.c ****     *  belongs to for each sensor.
 930:.\Generated_Source\PSoC4/CapSense.c ****     *  CapSense_maskTable[]  - used to store the pin within the port for 
 931:.\Generated_Source\PSoC4/CapSense.c ****     *  each sensor.
 932:.\Generated_Source\PSoC4/CapSense.c ****     *  CapSense_indexTable[] - used to store indexes of complex sensors.
 933:.\Generated_Source\PSoC4/CapSense.c ****     *  The offset and position in this array are stored in a port and mask table for 
 934:.\Generated_Source\PSoC4/CapSense.c ****     *  complex sensors.
 935:.\Generated_Source\PSoC4/CapSense.c ****     *  Bit 7 (msb) is used to define the sensor type: single or complex.
ARM GAS  C:\Users\kevin\AppData\Local\Temp\ccEmeqeI.s 			page 24


 936:.\Generated_Source\PSoC4/CapSense.c ****     *
 937:.\Generated_Source\PSoC4/CapSense.c **** 	* Side Effects: 
 938:.\Generated_Source\PSoC4/CapSense.c **** 	*  None
 939:.\Generated_Source\PSoC4/CapSense.c **** 	*
 940:.\Generated_Source\PSoC4/CapSense.c ****     *******************************************************************************/
 941:.\Generated_Source\PSoC4/CapSense.c ****     void CapSense_EnableScanSlot(uint32 slot)
 942:.\Generated_Source\PSoC4/CapSense.c ****     {
 943:.\Generated_Source\PSoC4/CapSense.c ****         uint8 j;
 944:.\Generated_Source\PSoC4/CapSense.c ****         uint8 snsNumber;
 945:.\Generated_Source\PSoC4/CapSense.c ****         const uint8 *index;
 946:.\Generated_Source\PSoC4/CapSense.c ****         /* Read sensor type: single or complex */
 947:.\Generated_Source\PSoC4/CapSense.c ****         uint8 snsType = CapSense_portTable[slot];
 948:.\Generated_Source\PSoC4/CapSense.c **** 
 949:.\Generated_Source\PSoC4/CapSense.c ****         /* Check if sensor is complex */
 950:.\Generated_Source\PSoC4/CapSense.c ****         if ((snsType & CapSense_COMPLEX_SS_FLAG) == 0u)
 951:.\Generated_Source\PSoC4/CapSense.c ****         {
 952:.\Generated_Source\PSoC4/CapSense.c ****             /* Enable sensor (single) */
 953:.\Generated_Source\PSoC4/CapSense.c ****             CapSense_EnableSensor(slot);
 954:.\Generated_Source\PSoC4/CapSense.c ****         }
 955:.\Generated_Source\PSoC4/CapSense.c ****         else
 956:.\Generated_Source\PSoC4/CapSense.c ****         {
 957:.\Generated_Source\PSoC4/CapSense.c ****             /* Enable complex sensor */
 958:.\Generated_Source\PSoC4/CapSense.c ****             snsType &= ~CapSense_COMPLEX_SS_FLAG;
 959:.\Generated_Source\PSoC4/CapSense.c ****             index = &CapSense_indexTable[snsType];
 960:.\Generated_Source\PSoC4/CapSense.c ****             snsNumber = CapSense_maskTable[slot];
 961:.\Generated_Source\PSoC4/CapSense.c ****                         
 962:.\Generated_Source\PSoC4/CapSense.c ****             for (j = 0u; j < snsNumber; j++)
 963:.\Generated_Source\PSoC4/CapSense.c ****             {
 964:.\Generated_Source\PSoC4/CapSense.c ****                 CapSense_EnableSensor(index[j]);
 965:.\Generated_Source\PSoC4/CapSense.c ****             }
 966:.\Generated_Source\PSoC4/CapSense.c ****         }
 967:.\Generated_Source\PSoC4/CapSense.c ****     }
 968:.\Generated_Source\PSoC4/CapSense.c ****     
 969:.\Generated_Source\PSoC4/CapSense.c ****     
 970:.\Generated_Source\PSoC4/CapSense.c ****     /*******************************************************************************
 971:.\Generated_Source\PSoC4/CapSense.c ****     * Function Name: CapSense_DisableScanSlot
 972:.\Generated_Source\PSoC4/CapSense.c ****     ********************************************************************************
 973:.\Generated_Source\PSoC4/CapSense.c ****     *
 974:.\Generated_Source\PSoC4/CapSense.c ****     * Summary:
 975:.\Generated_Source\PSoC4/CapSense.c ****     *  Disables the selected slot. The corresponding pin/pins is/are disconnected 
 976:.\Generated_Source\PSoC4/CapSense.c ****     *  from the Analog Mux Bus and connected to GND, High_Z or Shield electrode.
 977:.\Generated_Source\PSoC4/CapSense.c ****     *
 978:.\Generated_Source\PSoC4/CapSense.c ****     * Parameters:
 979:.\Generated_Source\PSoC4/CapSense.c ****     *  slot:  Slot number.
 980:.\Generated_Source\PSoC4/CapSense.c ****     *
 981:.\Generated_Source\PSoC4/CapSense.c ****     * Return:
 982:.\Generated_Source\PSoC4/CapSense.c ****     *  None
 983:.\Generated_Source\PSoC4/CapSense.c ****     *
 984:.\Generated_Source\PSoC4/CapSense.c ****     * Global Variables:
 985:.\Generated_Source\PSoC4/CapSense.c ****     *  CapSense_portTable[]  - used to store the port number that pin 
 986:.\Generated_Source\PSoC4/CapSense.c ****     *  belongs to for each sensor.
 987:.\Generated_Source\PSoC4/CapSense.c ****     *  CapSense_maskTable[]  - used to store the pin within the port for 
 988:.\Generated_Source\PSoC4/CapSense.c ****     *  each sensor.
 989:.\Generated_Source\PSoC4/CapSense.c ****     *  CapSense_indexTable[] - used to store indexes of complex sensors.
 990:.\Generated_Source\PSoC4/CapSense.c ****     *  The offset and position in this array are stored in a port and mask table for 
 991:.\Generated_Source\PSoC4/CapSense.c ****     *  complex sensors.
 992:.\Generated_Source\PSoC4/CapSense.c ****     *  7bit(msb) is used to define the sensor type: single or complex.
ARM GAS  C:\Users\kevin\AppData\Local\Temp\ccEmeqeI.s 			page 25


 993:.\Generated_Source\PSoC4/CapSense.c ****     *
 994:.\Generated_Source\PSoC4/CapSense.c **** 	* Side Effects: 
 995:.\Generated_Source\PSoC4/CapSense.c **** 	*  None
 996:.\Generated_Source\PSoC4/CapSense.c **** 	*
 997:.\Generated_Source\PSoC4/CapSense.c ****     *******************************************************************************/
 998:.\Generated_Source\PSoC4/CapSense.c ****     void CapSense_DisableScanSlot(uint32 slot)
 999:.\Generated_Source\PSoC4/CapSense.c ****     {
1000:.\Generated_Source\PSoC4/CapSense.c ****         uint8 j;
1001:.\Generated_Source\PSoC4/CapSense.c ****         uint8 snsNumber;
1002:.\Generated_Source\PSoC4/CapSense.c ****         const uint8 *index;
1003:.\Generated_Source\PSoC4/CapSense.c **** 
1004:.\Generated_Source\PSoC4/CapSense.c ****         /* Read sensor type: single or complex */
1005:.\Generated_Source\PSoC4/CapSense.c ****         uint8 snsType = CapSense_portTable[slot];
1006:.\Generated_Source\PSoC4/CapSense.c ****         
1007:.\Generated_Source\PSoC4/CapSense.c ****         /* Check if sensor is complex */
1008:.\Generated_Source\PSoC4/CapSense.c ****         if ((snsType & CapSense_COMPLEX_SS_FLAG) == 0u)
1009:.\Generated_Source\PSoC4/CapSense.c ****         {
1010:.\Generated_Source\PSoC4/CapSense.c ****             /* Disable sensor (single) */
1011:.\Generated_Source\PSoC4/CapSense.c ****             CapSense_DisableSensor(slot);
1012:.\Generated_Source\PSoC4/CapSense.c ****         }
1013:.\Generated_Source\PSoC4/CapSense.c ****         else
1014:.\Generated_Source\PSoC4/CapSense.c ****         {
1015:.\Generated_Source\PSoC4/CapSense.c ****             /* Disable complex sensor */
1016:.\Generated_Source\PSoC4/CapSense.c ****             snsType &= ~CapSense_COMPLEX_SS_FLAG;
1017:.\Generated_Source\PSoC4/CapSense.c ****             index = &CapSense_indexTable[snsType];
1018:.\Generated_Source\PSoC4/CapSense.c ****             snsNumber = CapSense_maskTable[slot];
1019:.\Generated_Source\PSoC4/CapSense.c ****                         
1020:.\Generated_Source\PSoC4/CapSense.c ****             for (j=0; j < snsNumber; j++)
1021:.\Generated_Source\PSoC4/CapSense.c ****             {
1022:.\Generated_Source\PSoC4/CapSense.c ****                 CapSense_DisableSensor(index[j]);
1023:.\Generated_Source\PSoC4/CapSense.c ****             }
1024:.\Generated_Source\PSoC4/CapSense.c ****         } 
1025:.\Generated_Source\PSoC4/CapSense.c ****     }
1026:.\Generated_Source\PSoC4/CapSense.c **** #endif  /* CapSense_IS_COMPLEX_SCANSLOTS */
1027:.\Generated_Source\PSoC4/CapSense.c **** 
1028:.\Generated_Source\PSoC4/CapSense.c **** 
1029:.\Generated_Source\PSoC4/CapSense.c **** /*******************************************************************************
1030:.\Generated_Source\PSoC4/CapSense.c **** * Function Name: CapSense_EnableSensor
1031:.\Generated_Source\PSoC4/CapSense.c **** ********************************************************************************
1032:.\Generated_Source\PSoC4/CapSense.c **** *
1033:.\Generated_Source\PSoC4/CapSense.c **** * Summary:
1034:.\Generated_Source\PSoC4/CapSense.c **** *  Configures the selected sensor to measure during the next measurement cycle.
1035:.\Generated_Source\PSoC4/CapSense.c **** *  The corresponding pins are set to Analog High-Z mode and connected to the
1036:.\Generated_Source\PSoC4/CapSense.c **** *  Analog Mux Bus. This also enables the comparator function.
1037:.\Generated_Source\PSoC4/CapSense.c **** *
1038:.\Generated_Source\PSoC4/CapSense.c **** * Parameters:
1039:.\Generated_Source\PSoC4/CapSense.c **** *  sensor:  Sensor number.
1040:.\Generated_Source\PSoC4/CapSense.c **** *
1041:.\Generated_Source\PSoC4/CapSense.c **** * Return:
1042:.\Generated_Source\PSoC4/CapSense.c **** *  None
1043:.\Generated_Source\PSoC4/CapSense.c **** *
1044:.\Generated_Source\PSoC4/CapSense.c **** * Global Variables:
1045:.\Generated_Source\PSoC4/CapSense.c **** *  CapSense_portTable[] - used to store the port number that pin 
1046:.\Generated_Source\PSoC4/CapSense.c **** *  belongs to for each sensor.
1047:.\Generated_Source\PSoC4/CapSense.c **** *  CapSense_pinShiftTbl[] - used to store position of pin that 
1048:.\Generated_Source\PSoC4/CapSense.c **** *  configured as sensor in port. 
1049:.\Generated_Source\PSoC4/CapSense.c **** *  CapSense_prtSelTbl[] - Contains pointers to the HSIOM 
ARM GAS  C:\Users\kevin\AppData\Local\Temp\ccEmeqeI.s 			page 26


1050:.\Generated_Source\PSoC4/CapSense.c **** *  registers for each port. 
1051:.\Generated_Source\PSoC4/CapSense.c **** *  CapSense_PrtCfgTb[] - Contains pointers to the port config 
1052:.\Generated_Source\PSoC4/CapSense.c **** *  registers for each port.
1053:.\Generated_Source\PSoC4/CapSense.c **** *
1054:.\Generated_Source\PSoC4/CapSense.c **** * Side Effects: 
1055:.\Generated_Source\PSoC4/CapSense.c **** *  None
1056:.\Generated_Source\PSoC4/CapSense.c **** *
1057:.\Generated_Source\PSoC4/CapSense.c **** *******************************************************************************/
1058:.\Generated_Source\PSoC4/CapSense.c **** __INLINE void CapSense_EnableSensor(uint32 sensor)
1059:.\Generated_Source\PSoC4/CapSense.c **** {
 350              		.loc 1 1059 0
 351              		.cfi_startproc
 352              	.LVL31:
 353 0000 70B5     		push	{r4, r5, r6, lr}
 354              		.cfi_def_cfa_offset 16
 355              		.cfi_offset 4, -16
 356              		.cfi_offset 5, -12
 357              		.cfi_offset 6, -8
 358              		.cfi_offset 14, -4
1060:.\Generated_Source\PSoC4/CapSense.c **** 	uint8  pinModeShift;
1061:.\Generated_Source\PSoC4/CapSense.c ****     uint8  pinHSIOMShift;
1062:.\Generated_Source\PSoC4/CapSense.c **** 	uint8 interruptState;
1063:.\Generated_Source\PSoC4/CapSense.c **** 	uint32 newRegisterValue;
1064:.\Generated_Source\PSoC4/CapSense.c ****     uint32 port;
1065:.\Generated_Source\PSoC4/CapSense.c **** 	
1066:.\Generated_Source\PSoC4/CapSense.c **** 	port = (uint32) CapSense_portTable[sensor];
 359              		.loc 1 1066 0
 360 0002 104C     		ldr	r4, .L23
1067:.\Generated_Source\PSoC4/CapSense.c ****     pinModeShift = CapSense_pinShiftTbl[sensor]  * CapSense_PC_PIN_CFG_SIZE;
1068:.\Generated_Source\PSoC4/CapSense.c ****     pinHSIOMShift = CapSense_pinShiftTbl[sensor] * CapSense_HSIOM_PIN_CFG_SIZE;
1069:.\Generated_Source\PSoC4/CapSense.c **** 
1070:.\Generated_Source\PSoC4/CapSense.c **** 	interruptState = CyEnterCriticalSection();
1071:.\Generated_Source\PSoC4/CapSense.c **** 	
1072:.\Generated_Source\PSoC4/CapSense.c **** 	newRegisterValue = *CapSense_prtSelTbl[port];
1073:.\Generated_Source\PSoC4/CapSense.c **** 	newRegisterValue &= ~(CapSense_CSD_HSIOM_MASK << pinHSIOMShift);
1074:.\Generated_Source\PSoC4/CapSense.c **** 	newRegisterValue |= (uint32)((uint32)CapSense_CSD_SENSE_PORT_MODE << pinHSIOMShift);
1075:.\Generated_Source\PSoC4/CapSense.c ****    
1076:.\Generated_Source\PSoC4/CapSense.c ****     *CapSense_prtCfgTbl[port] &= (uint32)~((uint32)CapSense_CSD_PIN_MODE_MASK << pinModeShift);
1077:.\Generated_Source\PSoC4/CapSense.c ****     *CapSense_prtSelTbl[port] = newRegisterValue;
1078:.\Generated_Source\PSoC4/CapSense.c **** 	
1079:.\Generated_Source\PSoC4/CapSense.c **** 	CyExitCriticalSection(interruptState);
1080:.\Generated_Source\PSoC4/CapSense.c **** }
 361              		.loc 1 1080 0
 362              		@ sp needed
1066:.\Generated_Source\PSoC4/CapSense.c **** 	port = (uint32) CapSense_portTable[sensor];
 363              		.loc 1 1066 0
 364 0004 2318     		add	r3, r4, r0
 365 0006 1E7B     		ldrb	r6, [r3, #12]
 366              	.LVL32:
1067:.\Generated_Source\PSoC4/CapSense.c ****     pinModeShift = CapSense_pinShiftTbl[sensor]  * CapSense_PC_PIN_CFG_SIZE;
 367              		.loc 1 1067 0
 368 0008 231C     		mov	r3, r4
 369 000a 0F33     		add	r3, r3, #15
1072:.\Generated_Source\PSoC4/CapSense.c **** 	newRegisterValue = *CapSense_prtSelTbl[port];
 370              		.loc 1 1072 0
 371 000c B600     		lsl	r6, r6, #2
 372              	.LVL33:
ARM GAS  C:\Users\kevin\AppData\Local\Temp\ccEmeqeI.s 			page 27


1067:.\Generated_Source\PSoC4/CapSense.c ****     pinModeShift = CapSense_pinShiftTbl[sensor]  * CapSense_PC_PIN_CFG_SIZE;
 373              		.loc 1 1067 0
 374 000e 1D5C     		ldrb	r5, [r3, r0]
 375              	.LVL34:
1072:.\Generated_Source\PSoC4/CapSense.c **** 	newRegisterValue = *CapSense_prtSelTbl[port];
 376              		.loc 1 1072 0
 377 0010 A419     		add	r4, r4, r6
 378              	.LVL35:
1070:.\Generated_Source\PSoC4/CapSense.c **** 	interruptState = CyEnterCriticalSection();
 379              		.loc 1 1070 0
 380 0012 FFF7FEFF 		bl	CyEnterCriticalSection
 381              	.LVL36:
1072:.\Generated_Source\PSoC4/CapSense.c **** 	newRegisterValue = *CapSense_prtSelTbl[port];
 382              		.loc 1 1072 0
 383 0016 6369     		ldr	r3, [r4, #20]
1068:.\Generated_Source\PSoC4/CapSense.c ****     pinHSIOMShift = CapSense_pinShiftTbl[sensor] * CapSense_HSIOM_PIN_CFG_SIZE;
 384              		.loc 1 1068 0
 385 0018 AA00     		lsl	r2, r5, #2
1072:.\Generated_Source\PSoC4/CapSense.c **** 	newRegisterValue = *CapSense_prtSelTbl[port];
 386              		.loc 1 1072 0
 387 001a 1968     		ldr	r1, [r3]
 388              	.LVL37:
1073:.\Generated_Source\PSoC4/CapSense.c **** 	newRegisterValue &= ~(CapSense_CSD_HSIOM_MASK << pinHSIOMShift);
 389              		.loc 1 1073 0
 390 001c D2B2     		uxtb	r2, r2
 391 001e 0F26     		mov	r6, #15
 392 0020 9640     		lsl	r6, r6, r2
 393 0022 B143     		bic	r1, r6
 394              	.LVL38:
1074:.\Generated_Source\PSoC4/CapSense.c **** 	newRegisterValue |= (uint32)((uint32)CapSense_CSD_SENSE_PORT_MODE << pinHSIOMShift);
 395              		.loc 1 1074 0
 396 0024 0426     		mov	r6, #4
 397 0026 9640     		lsl	r6, r6, r2
 398 0028 3143     		orr	r1, r6
 399              	.LVL39:
1067:.\Generated_Source\PSoC4/CapSense.c ****     pinModeShift = CapSense_pinShiftTbl[sensor]  * CapSense_PC_PIN_CFG_SIZE;
 400              		.loc 1 1067 0
 401 002a 0326     		mov	r6, #3
 402 002c 7543     		mul	r5, r6
 403              	.LVL40:
1076:.\Generated_Source\PSoC4/CapSense.c ****     *CapSense_prtCfgTbl[port] &= (uint32)~((uint32)CapSense_CSD_PIN_MODE_MASK << pinModeShift);
 404              		.loc 1 1076 0
 405 002e A26A     		ldr	r2, [r4, #40]
 406 0030 EDB2     		uxtb	r5, r5
 407 0032 1468     		ldr	r4, [r2]
 408 0034 0726     		mov	r6, #7
 409 0036 AE40     		lsl	r6, r6, r5
 410 0038 B443     		bic	r4, r6
 411 003a 1460     		str	r4, [r2]
1077:.\Generated_Source\PSoC4/CapSense.c ****     *CapSense_prtSelTbl[port] = newRegisterValue;
 412              		.loc 1 1077 0
 413 003c 1960     		str	r1, [r3]
1079:.\Generated_Source\PSoC4/CapSense.c **** 	CyExitCriticalSection(interruptState);
 414              		.loc 1 1079 0
 415 003e FFF7FEFF 		bl	CyExitCriticalSection
 416              	.LVL41:
 417              		.loc 1 1080 0
ARM GAS  C:\Users\kevin\AppData\Local\Temp\ccEmeqeI.s 			page 28


 418 0042 70BD     		pop	{r4, r5, r6, pc}
 419              	.L24:
 420              		.align	2
 421              	.L23:
 422 0044 00000000 		.word	.LANCHOR1
 423              		.cfi_endproc
 424              	.LFE47:
 425              		.size	CapSense_EnableSensor, .-CapSense_EnableSensor
 426              		.section	.text.CapSense_DisableSensor,"ax",%progbits
 427              		.align	1
 428              		.global	CapSense_DisableSensor
 429              		.code	16
 430              		.thumb_func
 431              		.type	CapSense_DisableSensor, %function
 432              	CapSense_DisableSensor:
 433              	.LFB48:
1081:.\Generated_Source\PSoC4/CapSense.c **** 
1082:.\Generated_Source\PSoC4/CapSense.c **** 
1083:.\Generated_Source\PSoC4/CapSense.c **** /*******************************************************************************
1084:.\Generated_Source\PSoC4/CapSense.c **** * Function Name: CapSense_DisableSensor
1085:.\Generated_Source\PSoC4/CapSense.c **** ********************************************************************************
1086:.\Generated_Source\PSoC4/CapSense.c **** *
1087:.\Generated_Source\PSoC4/CapSense.c **** * Summary:
1088:.\Generated_Source\PSoC4/CapSense.c **** *  Disables the selected sensor. The corresponding pin is disconnected from the
1089:.\Generated_Source\PSoC4/CapSense.c **** *  Analog Mux Bus and connected to GND, High_Z or Shield electrode.
1090:.\Generated_Source\PSoC4/CapSense.c **** *
1091:.\Generated_Source\PSoC4/CapSense.c **** * Parameters:
1092:.\Generated_Source\PSoC4/CapSense.c **** *  sensor:  Sensor number
1093:.\Generated_Source\PSoC4/CapSense.c **** *
1094:.\Generated_Source\PSoC4/CapSense.c **** * Return:
1095:.\Generated_Source\PSoC4/CapSense.c **** *  None
1096:.\Generated_Source\PSoC4/CapSense.c **** *
1097:.\Generated_Source\PSoC4/CapSense.c **** * Global Variables:
1098:.\Generated_Source\PSoC4/CapSense.c **** *  CapSense_portTable[] - used to store the port number that pin 
1099:.\Generated_Source\PSoC4/CapSense.c **** *  belongs to for each sensor.
1100:.\Generated_Source\PSoC4/CapSense.c **** *  CapSense_pinShiftTbl[] - used to store position of pin that 
1101:.\Generated_Source\PSoC4/CapSense.c **** *  configured as a sensor in the port. 
1102:.\Generated_Source\PSoC4/CapSense.c **** *  CapSense_prtSelTbl[] - Contains pointers to the HSIOM 
1103:.\Generated_Source\PSoC4/CapSense.c **** *  registers for each port. 
1104:.\Generated_Source\PSoC4/CapSense.c **** *  CapSense_PrtCfgTb[] - Contains pointers to the port config 
1105:.\Generated_Source\PSoC4/CapSense.c **** *  registers for each port.
1106:.\Generated_Source\PSoC4/CapSense.c **** *
1107:.\Generated_Source\PSoC4/CapSense.c **** * Side Effects: 
1108:.\Generated_Source\PSoC4/CapSense.c **** *  None
1109:.\Generated_Source\PSoC4/CapSense.c **** *
1110:.\Generated_Source\PSoC4/CapSense.c **** *******************************************************************************/
1111:.\Generated_Source\PSoC4/CapSense.c **** __INLINE void CapSense_DisableSensor(uint32 sensor)
1112:.\Generated_Source\PSoC4/CapSense.c **** {
 434              		.loc 1 1112 0
 435              		.cfi_startproc
 436              	.LVL42:
 437 0000 F8B5     		push	{r3, r4, r5, r6, r7, lr}
 438              		.cfi_def_cfa_offset 24
 439              		.cfi_offset 3, -24
 440              		.cfi_offset 4, -20
 441              		.cfi_offset 5, -16
 442              		.cfi_offset 6, -12
ARM GAS  C:\Users\kevin\AppData\Local\Temp\ccEmeqeI.s 			page 29


 443              		.cfi_offset 7, -8
 444              		.cfi_offset 14, -4
1113:.\Generated_Source\PSoC4/CapSense.c ****     uint8 interruptState;
1114:.\Generated_Source\PSoC4/CapSense.c **** 	uint32 newRegisterValue;
1115:.\Generated_Source\PSoC4/CapSense.c **** 	
1116:.\Generated_Source\PSoC4/CapSense.c ****     uint32 port = (uint32) CapSense_portTable[sensor];
 445              		.loc 1 1116 0
 446 0002 174B     		ldr	r3, .L28
1117:.\Generated_Source\PSoC4/CapSense.c ****     uint8  pinHSIOMShift = CapSense_pinShiftTbl[sensor] * CapSense_HSIOM_PIN_CFG_SIZE;
1118:.\Generated_Source\PSoC4/CapSense.c ****     uint8  pinModeShift = CapSense_pinShiftTbl[sensor]  * CapSense_PC_PIN_CFG_SIZE;
1119:.\Generated_Source\PSoC4/CapSense.c **** 
1120:.\Generated_Source\PSoC4/CapSense.c **** 	uint32 inactiveConnect = CapSense_SNS_HIZANALOG_CONNECT;
1121:.\Generated_Source\PSoC4/CapSense.c **** 	uint32 sensorState = CapSense_unscannedSnsDriveMode[sensor];
1122:.\Generated_Source\PSoC4/CapSense.c **** 
1123:.\Generated_Source\PSoC4/CapSense.c ****     *CapSense_prtSelTbl[port] &= ~(CapSense_CSD_HSIOM_MASK << pinHSIOMShift);
 447              		.loc 1 1123 0
 448 0004 0F26     		mov	r6, #15
1116:.\Generated_Source\PSoC4/CapSense.c ****     uint32 port = (uint32) CapSense_portTable[sensor];
 449              		.loc 1 1116 0
 450 0006 1A18     		add	r2, r3, r0
 451 0008 157B     		ldrb	r5, [r2, #12]
 452              	.LVL43:
1117:.\Generated_Source\PSoC4/CapSense.c ****     uint8  pinHSIOMShift = CapSense_pinShiftTbl[sensor] * CapSense_HSIOM_PIN_CFG_SIZE;
 453              		.loc 1 1117 0
 454 000a 1A1C     		mov	r2, r3
 455 000c 0F32     		add	r2, r2, #15
 456              		.loc 1 1123 0
 457 000e AD00     		lsl	r5, r5, #2
 458              	.LVL44:
1117:.\Generated_Source\PSoC4/CapSense.c ****     uint8  pinHSIOMShift = CapSense_pinShiftTbl[sensor] * CapSense_HSIOM_PIN_CFG_SIZE;
 459              		.loc 1 1117 0
 460 0010 145C     		ldrb	r4, [r2, r0]
 461              	.LVL45:
 462              		.loc 1 1123 0
 463 0012 5D19     		add	r5, r3, r5
1121:.\Generated_Source\PSoC4/CapSense.c **** 	uint32 sensorState = CapSense_unscannedSnsDriveMode[sensor];
 464              		.loc 1 1121 0
 465 0014 134A     		ldr	r2, .L28+4
 466              		.loc 1 1123 0
 467 0016 6B69     		ldr	r3, [r5, #20]
 468              	.LVL46:
1121:.\Generated_Source\PSoC4/CapSense.c **** 	uint32 sensorState = CapSense_unscannedSnsDriveMode[sensor];
 469              		.loc 1 1121 0
 470 0018 125C     		ldrb	r2, [r2, r0]
1117:.\Generated_Source\PSoC4/CapSense.c ****     uint8  pinHSIOMShift = CapSense_pinShiftTbl[sensor] * CapSense_HSIOM_PIN_CFG_SIZE;
 471              		.loc 1 1117 0
 472 001a A000     		lsl	r0, r4, #2
 473              	.LVL47:
 474              		.loc 1 1123 0
 475 001c 1968     		ldr	r1, [r3]
 476 001e C0B2     		uxtb	r0, r0
 477 0020 8640     		lsl	r6, r6, r0
 478 0022 B143     		bic	r1, r6
 479 0024 1960     		str	r1, [r3]
1118:.\Generated_Source\PSoC4/CapSense.c ****     uint8  pinModeShift = CapSense_pinShiftTbl[sensor]  * CapSense_PC_PIN_CFG_SIZE;
 480              		.loc 1 1118 0
 481 0026 0327     		mov	r7, #3
ARM GAS  C:\Users\kevin\AppData\Local\Temp\ccEmeqeI.s 			page 30


1120:.\Generated_Source\PSoC4/CapSense.c **** 	uint32 inactiveConnect = CapSense_SNS_HIZANALOG_CONNECT;
 482              		.loc 1 1120 0
 483 0028 531E     		sub	r3, r2, #1
1118:.\Generated_Source\PSoC4/CapSense.c ****     uint8  pinModeShift = CapSense_pinShiftTbl[sensor]  * CapSense_PC_PIN_CFG_SIZE;
 484              		.loc 1 1118 0
 485 002a 6743     		mul	r7, r4
1120:.\Generated_Source\PSoC4/CapSense.c **** 	uint32 inactiveConnect = CapSense_SNS_HIZANALOG_CONNECT;
 486              		.loc 1 1120 0
 487 002c 5A1E     		sub	r2, r3, #1
 488 002e 9341     		sbc	r3, r3, r2
 489 0030 5B42     		neg	r3, r3
1124:.\Generated_Source\PSoC4/CapSense.c **** 
1125:.\Generated_Source\PSoC4/CapSense.c **** 	#if(CapSense_IS_SHIELD_ENABLE != 0)
1126:.\Generated_Source\PSoC4/CapSense.c **** 	if(sensorState != (uint32)CapSense__SHIELD)
1127:.\Generated_Source\PSoC4/CapSense.c **** 	{
1128:.\Generated_Source\PSoC4/CapSense.c **** 	#else
1129:.\Generated_Source\PSoC4/CapSense.c **** 	    /* Connected to Ground if shield is disabled */
1130:.\Generated_Source\PSoC4/CapSense.c **** 	    if(sensorState == (uint32)CapSense__SHIELD)
1131:.\Generated_Source\PSoC4/CapSense.c **** 		{
1132:.\Generated_Source\PSoC4/CapSense.c **** 			sensorState = (uint32)CapSense__GROUND;
1133:.\Generated_Source\PSoC4/CapSense.c **** 		}
1134:.\Generated_Source\PSoC4/CapSense.c **** 	#endif /* (CapSense_IS_SHIELD_ENABLE) */
1135:.\Generated_Source\PSoC4/CapSense.c **** 	    if(sensorState != (uint32)CapSense__HIZ_ANALOG)
1136:.\Generated_Source\PSoC4/CapSense.c **** 		{   
1137:.\Generated_Source\PSoC4/CapSense.c **** 		    /* Connected to Ground */
1138:.\Generated_Source\PSoC4/CapSense.c **** 		    inactiveConnect = (uint32)CapSense_SNS_GROUND_CONNECT;
 490              		.loc 1 1138 0
 491 0032 0626     		mov	r6, #6
1120:.\Generated_Source\PSoC4/CapSense.c **** 	uint32 inactiveConnect = CapSense_SNS_HIZANALOG_CONNECT;
 492              		.loc 1 1120 0
 493 0034 1E40     		and	r6, r3
1139:.\Generated_Source\PSoC4/CapSense.c **** 		}
1140:.\Generated_Source\PSoC4/CapSense.c **** 		
1141:.\Generated_Source\PSoC4/CapSense.c ****         interruptState = CyEnterCriticalSection();
 494              		.loc 1 1141 0
 495 0036 FFF7FEFF 		bl	CyEnterCriticalSection
 496              	.LVL48:
1142:.\Generated_Source\PSoC4/CapSense.c **** 
1143:.\Generated_Source\PSoC4/CapSense.c ****         /* Set drive mode */
1144:.\Generated_Source\PSoC4/CapSense.c ****     	newRegisterValue = *CapSense_prtCfgTbl[port];
 497              		.loc 1 1144 0
 498 003a AB6A     		ldr	r3, [r5, #40]
1118:.\Generated_Source\PSoC4/CapSense.c ****     uint8  pinModeShift = CapSense_pinShiftTbl[sensor]  * CapSense_PC_PIN_CFG_SIZE;
 499              		.loc 1 1118 0
 500 003c FFB2     		uxtb	r7, r7
 501              	.LVL49:
 502              		.loc 1 1144 0
 503 003e 1A68     		ldr	r2, [r3]
 504              	.LVL50:
1145:.\Generated_Source\PSoC4/CapSense.c ****     	newRegisterValue &= ~(CapSense_CSD_PIN_MODE_MASK << pinModeShift);
 505              		.loc 1 1145 0
 506 0040 0721     		mov	r1, #7
 507 0042 B940     		lsl	r1, r1, r7
 508 0044 8A43     		bic	r2, r1
 509              	.LVL51:
1146:.\Generated_Source\PSoC4/CapSense.c ****     	newRegisterValue |=  (uint32)(inactiveConnect << pinModeShift);
 510              		.loc 1 1146 0
ARM GAS  C:\Users\kevin\AppData\Local\Temp\ccEmeqeI.s 			page 31


 511 0046 BE40     		lsl	r6, r6, r7
 512              	.LVL52:
 513 0048 1643     		orr	r6, r2
 514              	.LVL53:
1147:.\Generated_Source\PSoC4/CapSense.c ****         *CapSense_prtCfgTbl[port] =  newRegisterValue;
 515              		.loc 1 1147 0
 516 004a 1E60     		str	r6, [r3]
1148:.\Generated_Source\PSoC4/CapSense.c ****         
1149:.\Generated_Source\PSoC4/CapSense.c ****         CyExitCriticalSection(interruptState);
 517              		.loc 1 1149 0
 518 004c FFF7FEFF 		bl	CyExitCriticalSection
 519              	.LVL54:
1150:.\Generated_Source\PSoC4/CapSense.c **** 
1151:.\Generated_Source\PSoC4/CapSense.c ****     	*CapSense_prtDRTbl[port]  &=  (uint32)~(uint32)((uint32)1u << CapSense_pinShiftTbl[sensor]); 
 520              		.loc 1 1151 0
 521 0050 EB6B     		ldr	r3, [r5, #60]
 522 0052 0121     		mov	r1, #1
 523 0054 1A68     		ldr	r2, [r3]
 524 0056 A140     		lsl	r1, r1, r4
 525 0058 8A43     		bic	r2, r1
 526 005a 1A60     		str	r2, [r3]
1152:.\Generated_Source\PSoC4/CapSense.c **** 	#if(CapSense_IS_SHIELD_ENABLE != 0)
1153:.\Generated_Source\PSoC4/CapSense.c **** 	}
1154:.\Generated_Source\PSoC4/CapSense.c **** 	else
1155:.\Generated_Source\PSoC4/CapSense.c **** 	{
1156:.\Generated_Source\PSoC4/CapSense.c **** 		/* Connect to Shield */
1157:.\Generated_Source\PSoC4/CapSense.c **** 		*CapSense_prtSelTbl[port] |= (CapSense_CSD_SHIELD_PORT_MODE << pinHSIOMShift);
1158:.\Generated_Source\PSoC4/CapSense.c **** 	}
1159:.\Generated_Source\PSoC4/CapSense.c **** 	#endif /* (CapSense_IS_SHIELD_ENABLE) */
1160:.\Generated_Source\PSoC4/CapSense.c **** }
 527              		.loc 1 1160 0
 528              		@ sp needed
 529              	.LVL55:
 530              	.LVL56:
 531              	.LVL57:
 532 005c F8BD     		pop	{r3, r4, r5, r6, r7, pc}
 533              	.L29:
 534 005e C046     		.align	2
 535              	.L28:
 536 0060 00000000 		.word	.LANCHOR1
 537 0064 00000000 		.word	CapSense_unscannedSnsDriveMode
 538              		.cfi_endproc
 539              	.LFE48:
 540              		.size	CapSense_DisableSensor, .-CapSense_DisableSensor
 541              		.section	.text.CapSense_ClearSensors,"ax",%progbits
 542              		.align	1
 543              		.global	CapSense_ClearSensors
 544              		.code	16
 545              		.thumb_func
 546              		.type	CapSense_ClearSensors, %function
 547              	CapSense_ClearSensors:
 548              	.LFB46:
 901:.\Generated_Source\PSoC4/CapSense.c **** {
 549              		.loc 1 901 0
 550              		.cfi_startproc
 551              	.LVL58:
 552 0000 08B5     		push	{r3, lr}
ARM GAS  C:\Users\kevin\AppData\Local\Temp\ccEmeqeI.s 			page 32


 553              		.cfi_def_cfa_offset 8
 554              		.cfi_offset 3, -8
 555              		.cfi_offset 14, -4
 906:.\Generated_Source\PSoC4/CapSense.c ****         CapSense_DisableScanSlot(snsIndex);
 556              		.loc 1 906 0
 557 0002 0020     		mov	r0, #0
 558 0004 FFF7FEFF 		bl	CapSense_DisableSensor
 559              	.LVL59:
 560 0008 0120     		mov	r0, #1
 561 000a FFF7FEFF 		bl	CapSense_DisableSensor
 562              	.LVL60:
 563 000e 0220     		mov	r0, #2
 564 0010 FFF7FEFF 		bl	CapSense_DisableSensor
 565              	.LVL61:
 908:.\Generated_Source\PSoC4/CapSense.c **** }
 566              		.loc 1 908 0
 567              		@ sp needed
 568 0014 08BD     		pop	{r3, pc}
 569              		.cfi_endproc
 570              	.LFE46:
 571              		.size	CapSense_ClearSensors, .-CapSense_ClearSensors
 572              		.section	.text.CapSense_SetPinDriveMode,"ax",%progbits
 573              		.align	1
 574              		.global	CapSense_SetPinDriveMode
 575              		.code	16
 576              		.thumb_func
 577              		.type	CapSense_SetPinDriveMode, %function
 578              	CapSense_SetPinDriveMode:
 579              	.LFB51:
1161:.\Generated_Source\PSoC4/CapSense.c **** 
1162:.\Generated_Source\PSoC4/CapSense.c **** 
1163:.\Generated_Source\PSoC4/CapSense.c **** /*******************************************************************************
1164:.\Generated_Source\PSoC4/CapSense.c **** * Function Name: CapSense_SetDriveModeAllPins
1165:.\Generated_Source\PSoC4/CapSense.c **** ********************************************************************************
1166:.\Generated_Source\PSoC4/CapSense.c **** *
1167:.\Generated_Source\PSoC4/CapSense.c **** * Summary:
1168:.\Generated_Source\PSoC4/CapSense.c **** * This API sets the drive mode of port pins used by the CapSense
1169:.\Generated_Source\PSoC4/CapSense.c **** * component (sensors, guard, shield, shield tank and Cmod) to drive the 
1170:.\Generated_Source\PSoC4/CapSense.c **** * mode specified by the argument.
1171:.\Generated_Source\PSoC4/CapSense.c **** *
1172:.\Generated_Source\PSoC4/CapSense.c **** * Parameters:
1173:.\Generated_Source\PSoC4/CapSense.c **** *  driveMode:  Drive mode definition.
1174:.\Generated_Source\PSoC4/CapSense.c **** *
1175:.\Generated_Source\PSoC4/CapSense.c **** * Return:
1176:.\Generated_Source\PSoC4/CapSense.c **** *  None
1177:.\Generated_Source\PSoC4/CapSense.c **** *
1178:.\Generated_Source\PSoC4/CapSense.c **** * Global Variables:
1179:.\Generated_Source\PSoC4/CapSense.c **** *  CapSense_portTable[] - used to store the port number that pin 
1180:.\Generated_Source\PSoC4/CapSense.c **** *  belongs to for each sensor.
1181:.\Generated_Source\PSoC4/CapSense.c **** *  CapSense_pinShiftTbl[] - used to store position of pin that 
1182:.\Generated_Source\PSoC4/CapSense.c **** *  configured as a sensor in the port. 
1183:.\Generated_Source\PSoC4/CapSense.c **** *
1184:.\Generated_Source\PSoC4/CapSense.c **** * Side Effects: 
1185:.\Generated_Source\PSoC4/CapSense.c **** *  This API shall be called only after CapSense component is stopped.
1186:.\Generated_Source\PSoC4/CapSense.c **** *
1187:.\Generated_Source\PSoC4/CapSense.c **** *******************************************************************************/
1188:.\Generated_Source\PSoC4/CapSense.c **** void CapSense_SetDriveModeAllPins(uint32 driveMode)
ARM GAS  C:\Users\kevin\AppData\Local\Temp\ccEmeqeI.s 			page 33


1189:.\Generated_Source\PSoC4/CapSense.c **** {
1190:.\Generated_Source\PSoC4/CapSense.c **** 	uint8 curSensor;
1191:.\Generated_Source\PSoC4/CapSense.c **** 	#if (CapSense_IS_COMPLEX_SCANSLOTS)
1192:.\Generated_Source\PSoC4/CapSense.c **** 		uint8 snsNumber;
1193:.\Generated_Source\PSoC4/CapSense.c **** 		uint8 snsType;
1194:.\Generated_Source\PSoC4/CapSense.c **** 	#endif  /* CapSense_IS_COMPLEX_SCANSLOTS */
1195:.\Generated_Source\PSoC4/CapSense.c **** 	uint32 prtNumberTmp;
1196:.\Generated_Source\PSoC4/CapSense.c **** 	uint32 pinNumberTmp;
1197:.\Generated_Source\PSoC4/CapSense.c **** 
1198:.\Generated_Source\PSoC4/CapSense.c **** 	for(curSensor = 0u; curSensor < CapSense_TOTAL_SENSOR_COUNT; curSensor++)
1199:.\Generated_Source\PSoC4/CapSense.c **** 	{	
1200:.\Generated_Source\PSoC4/CapSense.c **** 		#if (CapSense_IS_COMPLEX_SCANSLOTS)
1201:.\Generated_Source\PSoC4/CapSense.c **** 			/* Read sensor type: single or complex */
1202:.\Generated_Source\PSoC4/CapSense.c **** 			snsType = CapSense_portTable[curSensor];
1203:.\Generated_Source\PSoC4/CapSense.c **** 		
1204:.\Generated_Source\PSoC4/CapSense.c **** 			/* Check if sensor is complex */
1205:.\Generated_Source\PSoC4/CapSense.c **** 			if ((snsType & CapSense_COMPLEX_SS_FLAG) == 0u)
1206:.\Generated_Source\PSoC4/CapSense.c **** 			{
1207:.\Generated_Source\PSoC4/CapSense.c **** 				/* The sensor is not complex */
1208:.\Generated_Source\PSoC4/CapSense.c **** 				snsNumber = curSensor;
1209:.\Generated_Source\PSoC4/CapSense.c **** 			}
1210:.\Generated_Source\PSoC4/CapSense.c **** 			else
1211:.\Generated_Source\PSoC4/CapSense.c **** 			{
1212:.\Generated_Source\PSoC4/CapSense.c **** 				/* Get dedicated sensor ID of the complex sensor */
1213:.\Generated_Source\PSoC4/CapSense.c **** 				snsType &= ~CapSense_COMPLEX_SS_FLAG;
1214:.\Generated_Source\PSoC4/CapSense.c **** 				snsNumber = CapSense_indexTable[snsType];
1215:.\Generated_Source\PSoC4/CapSense.c **** 			}
1216:.\Generated_Source\PSoC4/CapSense.c **** 
1217:.\Generated_Source\PSoC4/CapSense.c **** 			prtNumberTmp = CapSense_portTable[snsNumber];
1218:.\Generated_Source\PSoC4/CapSense.c **** 			pinNumberTmp = CapSense_pinShiftTbl[snsNumber];
1219:.\Generated_Source\PSoC4/CapSense.c **** 		#else
1220:.\Generated_Source\PSoC4/CapSense.c **** 			prtNumberTmp = CapSense_portTable[curSensor];
1221:.\Generated_Source\PSoC4/CapSense.c **** 			pinNumberTmp = CapSense_pinShiftTbl[curSensor];
1222:.\Generated_Source\PSoC4/CapSense.c **** 		#endif  /* CapSense_IS_COMPLEX_SCANSLOTS */
1223:.\Generated_Source\PSoC4/CapSense.c **** 	
1224:.\Generated_Source\PSoC4/CapSense.c **** 		CapSense_SetPinDriveMode(driveMode, pinNumberTmp, prtNumberTmp);
1225:.\Generated_Source\PSoC4/CapSense.c **** 	}
1226:.\Generated_Source\PSoC4/CapSense.c **** 	
1227:.\Generated_Source\PSoC4/CapSense.c **** 	CapSense_SetPinDriveMode(driveMode, (uint32)CapSense_CMOD_PIN_NUMBER, (uint32)CapSense_CMOD_PRT_NU
1228:.\Generated_Source\PSoC4/CapSense.c **** 	
1229:.\Generated_Source\PSoC4/CapSense.c **** 	#if(0u != CapSense_CSH_TANK_ENABLE)
1230:.\Generated_Source\PSoC4/CapSense.c **** 		CapSense_SetPinDriveMode(driveMode, (uint32)CapSense_CTANK_PIN_NUMBER, (uint32)CapSense_CTANK_PRT
1231:.\Generated_Source\PSoC4/CapSense.c **** 	#endif /* (0u != CapSense_CSH_TANK_ENABLE) */	
1232:.\Generated_Source\PSoC4/CapSense.c **** 	
1233:.\Generated_Source\PSoC4/CapSense.c **** 	#if(0u != CapSense_IS_SHIELD_ENABLE)
1234:.\Generated_Source\PSoC4/CapSense.c **** 		CapSense_SetPinDriveMode(driveMode, (uint32)CapSense_SHIELD_PIN_NUMBER, (uint32)CapSense_SHIELD_P
1235:.\Generated_Source\PSoC4/CapSense.c **** 	#endif /* (0u != CapSense_IS_SHIELD_ENABLE) */	
1236:.\Generated_Source\PSoC4/CapSense.c **** }
1237:.\Generated_Source\PSoC4/CapSense.c **** 
1238:.\Generated_Source\PSoC4/CapSense.c **** 
1239:.\Generated_Source\PSoC4/CapSense.c **** /*******************************************************************************
1240:.\Generated_Source\PSoC4/CapSense.c **** * Function Name: CapSense_RestoreDriveModeAllPins
1241:.\Generated_Source\PSoC4/CapSense.c **** ********************************************************************************
1242:.\Generated_Source\PSoC4/CapSense.c **** *
1243:.\Generated_Source\PSoC4/CapSense.c **** * Summary:
1244:.\Generated_Source\PSoC4/CapSense.c **** *  This API restores the drive for all the CapSense port pins to the original
1245:.\Generated_Source\PSoC4/CapSense.c **** *  state.
ARM GAS  C:\Users\kevin\AppData\Local\Temp\ccEmeqeI.s 			page 34


1246:.\Generated_Source\PSoC4/CapSense.c **** *
1247:.\Generated_Source\PSoC4/CapSense.c **** * Parameters:
1248:.\Generated_Source\PSoC4/CapSense.c **** *  None
1249:.\Generated_Source\PSoC4/CapSense.c **** *
1250:.\Generated_Source\PSoC4/CapSense.c **** * Return:
1251:.\Generated_Source\PSoC4/CapSense.c **** *  None
1252:.\Generated_Source\PSoC4/CapSense.c **** *
1253:.\Generated_Source\PSoC4/CapSense.c **** * Global Variables:
1254:.\Generated_Source\PSoC4/CapSense.c **** *  CapSense_prtSelTbl[] - Contains pointers to the HSIOM 
1255:.\Generated_Source\PSoC4/CapSense.c **** *  registers for each port. 
1256:.\Generated_Source\PSoC4/CapSense.c **** *
1257:.\Generated_Source\PSoC4/CapSense.c **** * Side Effects: 
1258:.\Generated_Source\PSoC4/CapSense.c **** *  This API is called only after the CapSense component is stopped.
1259:.\Generated_Source\PSoC4/CapSense.c **** *
1260:.\Generated_Source\PSoC4/CapSense.c **** *******************************************************************************/
1261:.\Generated_Source\PSoC4/CapSense.c **** void CapSense_RestoreDriveModeAllPins(void)
1262:.\Generated_Source\PSoC4/CapSense.c **** {
1263:.\Generated_Source\PSoC4/CapSense.c **** 	uint32 newRegisterValue;
1264:.\Generated_Source\PSoC4/CapSense.c **** 	
1265:.\Generated_Source\PSoC4/CapSense.c **** 	CapSense_SetDriveModeAllPins(CY_SYS_PINS_DM_ALG_HIZ);
1266:.\Generated_Source\PSoC4/CapSense.c **** 	
1267:.\Generated_Source\PSoC4/CapSense.c **** 	newRegisterValue = CapSense_CMOD_CONNECTION_REG; 
1268:.\Generated_Source\PSoC4/CapSense.c ****     newRegisterValue &= ~(CapSense_CSD_CMOD_CONNECTION_MASK);
1269:.\Generated_Source\PSoC4/CapSense.c ****     newRegisterValue |= CapSense_CSD_CMOD_TO_AMUXBUS_A;
1270:.\Generated_Source\PSoC4/CapSense.c ****     CapSense_CMOD_CONNECTION_REG = newRegisterValue;
1271:.\Generated_Source\PSoC4/CapSense.c **** 	
1272:.\Generated_Source\PSoC4/CapSense.c **** 	#if(0u != CapSense_CSH_TANK_ENABLE)
1273:.\Generated_Source\PSoC4/CapSense.c **** 		newRegisterValue = CapSense_CTANK_CONNECTION_REG;
1274:.\Generated_Source\PSoC4/CapSense.c ****         newRegisterValue &= ~(CapSense_CSD_CTANK_CONNECTION_MASK);
1275:.\Generated_Source\PSoC4/CapSense.c **** 		newRegisterValue |= CapSense_CSD_CTANK_TO_AMUXBUS_B;
1276:.\Generated_Source\PSoC4/CapSense.c ****         CapSense_CTANK_CONNECTION_REG = newRegisterValue;
1277:.\Generated_Source\PSoC4/CapSense.c **** 	#endif/* (0u != CapSense_CSH_TANK_ENABLE) */
1278:.\Generated_Source\PSoC4/CapSense.c **** 	
1279:.\Generated_Source\PSoC4/CapSense.c **** 	#if(0u != CapSense_IS_SHIELD_ENABLE)
1280:.\Generated_Source\PSoC4/CapSense.c **** 		newRegisterValue = *CapSense_prtSelTbl[CapSense_SHIELD_PORT_NUMBER];
1281:.\Generated_Source\PSoC4/CapSense.c ****         newRegisterValue &= ~(CapSense_CSD_HSIOM_MASK << ((uint32)CapSense_SHIELD_PIN_NUMBER * CapS
1282:.\Generated_Source\PSoC4/CapSense.c ****         newRegisterValue |= (CapSense_CSD_SHIELD_PORT_MODE << ((uint32)CapSense_SHIELD_PIN_NUMBER *
1283:.\Generated_Source\PSoC4/CapSense.c ****         *CapSense_prtSelTbl[CapSense_SHIELD_PORT_NUMBER] = newRegisterValue;
1284:.\Generated_Source\PSoC4/CapSense.c **** 	#endif /* (0u != CapSense_IS_SHIELD_ENABLE) */	
1285:.\Generated_Source\PSoC4/CapSense.c **** }
1286:.\Generated_Source\PSoC4/CapSense.c **** 
1287:.\Generated_Source\PSoC4/CapSense.c **** 
1288:.\Generated_Source\PSoC4/CapSense.c **** /*******************************************************************************
1289:.\Generated_Source\PSoC4/CapSense.c **** * Function Name: CapSense_SetPinDriveMode
1290:.\Generated_Source\PSoC4/CapSense.c **** ********************************************************************************
1291:.\Generated_Source\PSoC4/CapSense.c **** *
1292:.\Generated_Source\PSoC4/CapSense.c **** * Summary:
1293:.\Generated_Source\PSoC4/CapSense.c **** * This API sets the drive mode for the appropriate port/pin.
1294:.\Generated_Source\PSoC4/CapSense.c **** *
1295:.\Generated_Source\PSoC4/CapSense.c **** * Parameters:
1296:.\Generated_Source\PSoC4/CapSense.c **** *  driveMode:  Drive mode definition.
1297:.\Generated_Source\PSoC4/CapSense.c **** *  portNumber: contains port number (0, 1, 2).
1298:.\Generated_Source\PSoC4/CapSense.c **** *  pinNumber: contains pin number (0, 1, 2, ... , 7).
1299:.\Generated_Source\PSoC4/CapSense.c **** *
1300:.\Generated_Source\PSoC4/CapSense.c **** * Return:
1301:.\Generated_Source\PSoC4/CapSense.c **** *  None
1302:.\Generated_Source\PSoC4/CapSense.c **** *
ARM GAS  C:\Users\kevin\AppData\Local\Temp\ccEmeqeI.s 			page 35


1303:.\Generated_Source\PSoC4/CapSense.c **** * Global Variables:
1304:.\Generated_Source\PSoC4/CapSense.c **** *  CapSense_prtSelTbl[] - Contains pointers to the HSIOM 
1305:.\Generated_Source\PSoC4/CapSense.c **** *  registers for each port. 
1306:.\Generated_Source\PSoC4/CapSense.c **** *  CapSense_prtCfgTb[] - Contains pointers to the port config 
1307:.\Generated_Source\PSoC4/CapSense.c **** *  registers for each port.
1308:.\Generated_Source\PSoC4/CapSense.c **** *
1309:.\Generated_Source\PSoC4/CapSense.c **** * Side Effects: 
1310:.\Generated_Source\PSoC4/CapSense.c **** *  This API is called only after CapSense component is stopped.
1311:.\Generated_Source\PSoC4/CapSense.c **** *
1312:.\Generated_Source\PSoC4/CapSense.c **** *******************************************************************************/
1313:.\Generated_Source\PSoC4/CapSense.c **** void CapSense_SetPinDriveMode(uint32 driveMode, uint32 pinNumber, uint32 portNumber)
1314:.\Generated_Source\PSoC4/CapSense.c **** {	
 580              		.loc 1 1314 0
 581              		.cfi_startproc
 582              	.LVL62:
1315:.\Generated_Source\PSoC4/CapSense.c **** 	uint32  pinModeShift;
1316:.\Generated_Source\PSoC4/CapSense.c **** 	uint32 newRegisterValue;
1317:.\Generated_Source\PSoC4/CapSense.c **** 	
1318:.\Generated_Source\PSoC4/CapSense.c **** 	pinModeShift  = pinNumber * CapSense_PC_PIN_CFG_SIZE;
1319:.\Generated_Source\PSoC4/CapSense.c **** 	
1320:.\Generated_Source\PSoC4/CapSense.c **** 	newRegisterValue = *CapSense_prtCfgTbl[portNumber];
 583              		.loc 1 1320 0
 584 0000 074B     		ldr	r3, .L32
1314:.\Generated_Source\PSoC4/CapSense.c **** {	
 585              		.loc 1 1314 0
 586 0002 10B5     		push	{r4, lr}
 587              		.cfi_def_cfa_offset 8
 588              		.cfi_offset 4, -8
 589              		.cfi_offset 14, -4
 590              		.loc 1 1320 0
 591 0004 9200     		lsl	r2, r2, #2
 592              	.LVL63:
1318:.\Generated_Source\PSoC4/CapSense.c **** 	pinModeShift  = pinNumber * CapSense_PC_PIN_CFG_SIZE;
 593              		.loc 1 1318 0
 594 0006 0324     		mov	r4, #3
 595 0008 6143     		mul	r1, r4
 596              	.LVL64:
 597              		.loc 1 1320 0
 598 000a 9A18     		add	r2, r3, r2
 599 000c 936A     		ldr	r3, [r2, #40]
1321:.\Generated_Source\PSoC4/CapSense.c **** 	newRegisterValue &= ~(CapSense_CSD_PIN_MODE_MASK << pinModeShift);
 600              		.loc 1 1321 0
 601 000e 0724     		mov	r4, #7
1320:.\Generated_Source\PSoC4/CapSense.c **** 	newRegisterValue = *CapSense_prtCfgTbl[portNumber];
 602              		.loc 1 1320 0
 603 0010 1A68     		ldr	r2, [r3]
 604              	.LVL65:
 605              		.loc 1 1321 0
 606 0012 8C40     		lsl	r4, r4, r1
 607 0014 A243     		bic	r2, r4
 608              	.LVL66:
1322:.\Generated_Source\PSoC4/CapSense.c **** 	newRegisterValue |=  (uint32)((uint32)driveMode << pinModeShift);
 609              		.loc 1 1322 0
 610 0016 8840     		lsl	r0, r0, r1
 611              	.LVL67:
 612 0018 111C     		mov	r1, r2
 613              	.LVL68:
ARM GAS  C:\Users\kevin\AppData\Local\Temp\ccEmeqeI.s 			page 36


 614 001a 0143     		orr	r1, r0
 615              	.LVL69:
1323:.\Generated_Source\PSoC4/CapSense.c ****     *CapSense_prtCfgTbl[portNumber] =  newRegisterValue;
 616              		.loc 1 1323 0
 617 001c 1960     		str	r1, [r3]
1324:.\Generated_Source\PSoC4/CapSense.c **** }
 618              		.loc 1 1324 0
 619              		@ sp needed
 620 001e 10BD     		pop	{r4, pc}
 621              	.L33:
 622              		.align	2
 623              	.L32:
 624 0020 00000000 		.word	.LANCHOR1
 625              		.cfi_endproc
 626              	.LFE51:
 627              		.size	CapSense_SetPinDriveMode, .-CapSense_SetPinDriveMode
 628              		.section	.text.CapSense_SetDriveModeAllPins,"ax",%progbits
 629              		.align	1
 630              		.global	CapSense_SetDriveModeAllPins
 631              		.code	16
 632              		.thumb_func
 633              		.type	CapSense_SetDriveModeAllPins, %function
 634              	CapSense_SetDriveModeAllPins:
 635              	.LFB49:
1189:.\Generated_Source\PSoC4/CapSense.c **** {
 636              		.loc 1 1189 0
 637              		.cfi_startproc
 638              	.LVL70:
 639 0000 10B5     		push	{r4, lr}
 640              		.cfi_def_cfa_offset 8
 641              		.cfi_offset 4, -8
 642              		.cfi_offset 14, -4
1224:.\Generated_Source\PSoC4/CapSense.c **** 		CapSense_SetPinDriveMode(driveMode, pinNumberTmp, prtNumberTmp);
 643              		.loc 1 1224 0
 644 0002 0021     		mov	r1, #0
1189:.\Generated_Source\PSoC4/CapSense.c **** {
 645              		.loc 1 1189 0
 646 0004 041C     		mov	r4, r0
1224:.\Generated_Source\PSoC4/CapSense.c **** 		CapSense_SetPinDriveMode(driveMode, pinNumberTmp, prtNumberTmp);
 647              		.loc 1 1224 0
 648 0006 0122     		mov	r2, #1
 649 0008 FFF7FEFF 		bl	CapSense_SetPinDriveMode
 650              	.LVL71:
 651 000c 201C     		mov	r0, r4
 652 000e 0721     		mov	r1, #7
 653 0010 0122     		mov	r2, #1
 654 0012 FFF7FEFF 		bl	CapSense_SetPinDriveMode
 655              	.LVL72:
 656 0016 0021     		mov	r1, #0
 657 0018 201C     		mov	r0, r4
 658 001a 0A1C     		mov	r2, r1
 659 001c FFF7FEFF 		bl	CapSense_SetPinDriveMode
 660              	.LVL73:
1227:.\Generated_Source\PSoC4/CapSense.c **** 	CapSense_SetPinDriveMode(driveMode, (uint32)CapSense_CMOD_PIN_NUMBER, (uint32)CapSense_CMOD_PRT_NU
 661              		.loc 1 1227 0
 662 0020 201C     		mov	r0, r4
 663 0022 0221     		mov	r1, #2
ARM GAS  C:\Users\kevin\AppData\Local\Temp\ccEmeqeI.s 			page 37


 664 0024 0422     		mov	r2, #4
 665 0026 FFF7FEFF 		bl	CapSense_SetPinDriveMode
 666              	.LVL74:
1236:.\Generated_Source\PSoC4/CapSense.c **** }
 667              		.loc 1 1236 0
 668              		@ sp needed
 669              	.LVL75:
 670 002a 10BD     		pop	{r4, pc}
 671              		.cfi_endproc
 672              	.LFE49:
 673              		.size	CapSense_SetDriveModeAllPins, .-CapSense_SetDriveModeAllPins
 674              		.section	.text.CapSense_RestoreDriveModeAllPins,"ax",%progbits
 675              		.align	1
 676              		.global	CapSense_RestoreDriveModeAllPins
 677              		.code	16
 678              		.thumb_func
 679              		.type	CapSense_RestoreDriveModeAllPins, %function
 680              	CapSense_RestoreDriveModeAllPins:
 681              	.LFB50:
1262:.\Generated_Source\PSoC4/CapSense.c **** {
 682              		.loc 1 1262 0
 683              		.cfi_startproc
 684 0000 08B5     		push	{r3, lr}
 685              		.cfi_def_cfa_offset 8
 686              		.cfi_offset 3, -8
 687              		.cfi_offset 14, -4
1265:.\Generated_Source\PSoC4/CapSense.c **** 	CapSense_SetDriveModeAllPins(CY_SYS_PINS_DM_ALG_HIZ);
 688              		.loc 1 1265 0
 689 0002 0020     		mov	r0, #0
 690 0004 FFF7FEFF 		bl	CapSense_SetDriveModeAllPins
 691              	.LVL76:
1267:.\Generated_Source\PSoC4/CapSense.c **** 	newRegisterValue = CapSense_CMOD_CONNECTION_REG; 
 692              		.loc 1 1267 0
 693 0008 044B     		ldr	r3, .L36
1268:.\Generated_Source\PSoC4/CapSense.c ****     newRegisterValue &= ~(CapSense_CSD_CMOD_CONNECTION_MASK);
 694              		.loc 1 1268 0
 695 000a 054A     		ldr	r2, .L36+4
1267:.\Generated_Source\PSoC4/CapSense.c **** 	newRegisterValue = CapSense_CMOD_CONNECTION_REG; 
 696              		.loc 1 1267 0
 697 000c 1968     		ldr	r1, [r3]
 698              	.LVL77:
1285:.\Generated_Source\PSoC4/CapSense.c **** }
 699              		.loc 1 1285 0
 700              		@ sp needed
1268:.\Generated_Source\PSoC4/CapSense.c ****     newRegisterValue &= ~(CapSense_CSD_CMOD_CONNECTION_MASK);
 701              		.loc 1 1268 0
 702 000e 0A40     		and	r2, r1
 703              	.LVL78:
1269:.\Generated_Source\PSoC4/CapSense.c ****     newRegisterValue |= CapSense_CSD_CMOD_TO_AMUXBUS_A;
 704              		.loc 1 1269 0
 705 0010 C021     		mov	r1, #192
 706 0012 C900     		lsl	r1, r1, #3
 707 0014 0A43     		orr	r2, r1
 708              	.LVL79:
1270:.\Generated_Source\PSoC4/CapSense.c ****     CapSense_CMOD_CONNECTION_REG = newRegisterValue;
 709              		.loc 1 1270 0
 710 0016 1A60     		str	r2, [r3]
ARM GAS  C:\Users\kevin\AppData\Local\Temp\ccEmeqeI.s 			page 38


1285:.\Generated_Source\PSoC4/CapSense.c **** }
 711              		.loc 1 1285 0
 712 0018 08BD     		pop	{r3, pc}
 713              	.L37:
 714 001a C046     		.align	2
 715              	.L36:
 716 001c 10000140 		.word	1073807376
 717 0020 FFF0FFFF 		.word	-3841
 718              		.cfi_endproc
 719              	.LFE50:
 720              		.size	CapSense_RestoreDriveModeAllPins, .-CapSense_RestoreDriveModeAllPins
 721              		.section	.text.CapSense_PreScan,"ax",%progbits
 722              		.align	1
 723              		.global	CapSense_PreScan
 724              		.code	16
 725              		.thumb_func
 726              		.type	CapSense_PreScan, %function
 727              	CapSense_PreScan:
 728              	.LFB52:
1325:.\Generated_Source\PSoC4/CapSense.c **** 
1326:.\Generated_Source\PSoC4/CapSense.c **** 
1327:.\Generated_Source\PSoC4/CapSense.c **** /*******************************************************************************
1328:.\Generated_Source\PSoC4/CapSense.c **** * Function Name: CapSense_PreScan
1329:.\Generated_Source\PSoC4/CapSense.c **** ********************************************************************************
1330:.\Generated_Source\PSoC4/CapSense.c **** *
1331:.\Generated_Source\PSoC4/CapSense.c **** * Summary:
1332:.\Generated_Source\PSoC4/CapSense.c **** *  Sets required settings, enables a sensor, removes Vref from AMUX and starts the 
1333:.\Generated_Source\PSoC4/CapSense.c **** *  scanning process of the sensor.
1334:.\Generated_Source\PSoC4/CapSense.c **** *
1335:.\Generated_Source\PSoC4/CapSense.c **** * Parameters:
1336:.\Generated_Source\PSoC4/CapSense.c **** *  sensor:  Sensor number.
1337:.\Generated_Source\PSoC4/CapSense.c **** *
1338:.\Generated_Source\PSoC4/CapSense.c **** * Return:
1339:.\Generated_Source\PSoC4/CapSense.c **** *  None
1340:.\Generated_Source\PSoC4/CapSense.c **** *
1341:.\Generated_Source\PSoC4/CapSense.c **** * Global Variables:
1342:.\Generated_Source\PSoC4/CapSense.c **** * CapSense_widgetNumber[] - This array contains numbers of widgets for each sensor.
1343:.\Generated_Source\PSoC4/CapSense.c **** * CapSense_widgetResolution[] - Contains the widget resolution.
1344:.\Generated_Source\PSoC4/CapSense.c **** *
1345:.\Generated_Source\PSoC4/CapSense.c **** * Side Effects: 
1346:.\Generated_Source\PSoC4/CapSense.c **** *  None
1347:.\Generated_Source\PSoC4/CapSense.c **** *
1348:.\Generated_Source\PSoC4/CapSense.c **** *******************************************************************************/
1349:.\Generated_Source\PSoC4/CapSense.c **** void CapSense_PreScan(uint32 sensor)
1350:.\Generated_Source\PSoC4/CapSense.c **** {
 729              		.loc 1 1350 0
 730              		.cfi_startproc
 731              	.LVL80:
 732 0000 F8B5     		push	{r3, r4, r5, r6, r7, lr}
 733              		.cfi_def_cfa_offset 24
 734              		.cfi_offset 3, -24
 735              		.cfi_offset 4, -20
 736              		.cfi_offset 5, -16
 737              		.cfi_offset 6, -12
 738              		.cfi_offset 7, -8
 739              		.cfi_offset 14, -4
1351:.\Generated_Source\PSoC4/CapSense.c ****     uint8 widget;
ARM GAS  C:\Users\kevin\AppData\Local\Temp\ccEmeqeI.s 			page 39


1352:.\Generated_Source\PSoC4/CapSense.c ****     uint8 interruptState;
1353:.\Generated_Source\PSoC4/CapSense.c **** 	uint32 newRegValue;
1354:.\Generated_Source\PSoC4/CapSense.c **** 	uint32 counterResolution;
1355:.\Generated_Source\PSoC4/CapSense.c **** 	
1356:.\Generated_Source\PSoC4/CapSense.c **** 	#if(CapSense_PRS_OPTIONS == CapSense__PRS_AUTO)
1357:.\Generated_Source\PSoC4/CapSense.c **** 		uint8 senseClkDivMath;
1358:.\Generated_Source\PSoC4/CapSense.c **** 		uint8 sampleClkDivMath;
1359:.\Generated_Source\PSoC4/CapSense.c **** 	#endif /* (CapSense_PRS_OPTIONS == CapSense__PRS_AUTO) */	
1360:.\Generated_Source\PSoC4/CapSense.c **** 	
1361:.\Generated_Source\PSoC4/CapSense.c **** 	#if ((CapSense_TUNING_METHOD == CapSense__TUNING_AUTO) &&\
1362:.\Generated_Source\PSoC4/CapSense.c **** 		 (0 != CapSense_IS_OVERSAMPLING_EN))
1363:.\Generated_Source\PSoC4/CapSense.c **** 		uint32 oversamplingFactor;
1364:.\Generated_Source\PSoC4/CapSense.c **** 	#endif /* ((CapSense_TUNING_METHOD == CapSense__TUNING_AUTO) &&\
1365:.\Generated_Source\PSoC4/CapSense.c **** 	           (0 != CapSense_IS_OVERSAMPLING_EN)) */
1366:.\Generated_Source\PSoC4/CapSense.c **** 
1367:.\Generated_Source\PSoC4/CapSense.c ****     /* Define widget sensor belongs to */
1368:.\Generated_Source\PSoC4/CapSense.c ****     widget = CapSense_widgetNumber[sensor];
1369:.\Generated_Source\PSoC4/CapSense.c **** 
1370:.\Generated_Source\PSoC4/CapSense.c **** 	/* Recalculate Counter Resolution to MSB 16 bits */
1371:.\Generated_Source\PSoC4/CapSense.c **** 	counterResolution = CapSense_widgetResolution[widget];
 740              		.loc 1 1371 0
 741 0002 1F4D     		ldr	r5, .L39
1350:.\Generated_Source\PSoC4/CapSense.c **** {
 742              		.loc 1 1350 0
 743 0004 041C     		mov	r4, r0
1368:.\Generated_Source\PSoC4/CapSense.c ****     widget = CapSense_widgetNumber[sensor];
 744              		.loc 1 1368 0
 745 0006 2B1C     		mov	r3, r5
 746 0008 5033     		add	r3, r3, #80
 747              		.loc 1 1371 0
 748 000a 1B5C     		ldrb	r3, [r3, r0]
1372:.\Generated_Source\PSoC4/CapSense.c **** 	
1373:.\Generated_Source\PSoC4/CapSense.c **** 	#if ((CapSense_TUNING_METHOD == CapSense__TUNING_AUTO) &&\
1374:.\Generated_Source\PSoC4/CapSense.c **** 		 (0 != CapSense_IS_OVERSAMPLING_EN))
1375:.\Generated_Source\PSoC4/CapSense.c **** 	    oversamplingFactor = CapSense_GetBitValue(scanSpeedTbl, sensor);
1376:.\Generated_Source\PSoC4/CapSense.c **** 
1377:.\Generated_Source\PSoC4/CapSense.c **** 		if(counterResolution < CapSense_RESOLUTION_16_BITS)
1378:.\Generated_Source\PSoC4/CapSense.c **** 		{
1379:.\Generated_Source\PSoC4/CapSense.c **** 			counterResolution <<= oversamplingFactor;
1380:.\Generated_Source\PSoC4/CapSense.c **** 			counterResolution |= (uint32)(CapSense_RESOLUTION_8_BITS);
1381:.\Generated_Source\PSoC4/CapSense.c **** 		}
1382:.\Generated_Source\PSoC4/CapSense.c **** 	#endif /* ((CapSense_TUNING_METHOD == CapSense__TUNING_AUTO) &&\
1383:.\Generated_Source\PSoC4/CapSense.c **** 	           (0 != CapSense_IS_OVERSAMPLING_EN)) */
1384:.\Generated_Source\PSoC4/CapSense.c **** 	
1385:.\Generated_Source\PSoC4/CapSense.c **** 	#if (0u != CapSense_IS_M0S8PERI_BLOCK)
1386:.\Generated_Source\PSoC4/CapSense.c **** 		CapSense_SenseClk_Stop();
1387:.\Generated_Source\PSoC4/CapSense.c **** 		CapSense_SampleClk_Stop();
1388:.\Generated_Source\PSoC4/CapSense.c **** 	#endif /* (0u != CapSense_IS_M0S8PERI_BLOCK) */
1389:.\Generated_Source\PSoC4/CapSense.c **** 
1390:.\Generated_Source\PSoC4/CapSense.c **** 	#if (0u != CapSense_MULTIPLE_FREQUENCY_SET)
1391:.\Generated_Source\PSoC4/CapSense.c **** 		CapSense_SampleClk_SetDividerValue((uint16)CapSense_sampleClkDividerVal[sensor]);
 749              		.loc 1 1391 0
 750 000c 0021     		mov	r1, #0
1371:.\Generated_Source\PSoC4/CapSense.c **** 	counterResolution = CapSense_widgetResolution[widget];
 751              		.loc 1 1371 0
 752 000e 9B00     		lsl	r3, r3, #2
 753 0010 5E59     		ldr	r6, [r3, r5]
ARM GAS  C:\Users\kevin\AppData\Local\Temp\ccEmeqeI.s 			page 40


 754              	.LVL81:
 755              		.loc 1 1391 0
 756 0012 2B1C     		mov	r3, r5
 757 0014 5333     		add	r3, r3, #83
 758 0016 185C     		ldrb	r0, [r3, r0]
 759              	.LVL82:
1392:.\Generated_Source\PSoC4/CapSense.c **** 		CapSense_SenseClk_SetDividerValue((uint16)CapSense_senseClkDividerVal[sensor]);
 760              		.loc 1 1392 0
 761 0018 5635     		add	r5, r5, #86
1391:.\Generated_Source\PSoC4/CapSense.c **** 		CapSense_SampleClk_SetDividerValue((uint16)CapSense_sampleClkDividerVal[sensor]);
 762              		.loc 1 1391 0
 763 001a 0138     		sub	r0, r0, #1
 764 001c 80B2     		uxth	r0, r0
 765 001e FFF7FEFF 		bl	CapSense_SampleClk_SetFractionalDividerRegister
 766              	.LVL83:
 767              		.loc 1 1392 0
 768 0022 285D     		ldrb	r0, [r5, r4]
 769 0024 0021     		mov	r1, #0
 770 0026 0138     		sub	r0, r0, #1
 771 0028 80B2     		uxth	r0, r0
 772 002a FFF7FEFF 		bl	CapSense_SenseClk_SetFractionalDividerRegister
 773              	.LVL84:
1393:.\Generated_Source\PSoC4/CapSense.c **** 	#else
1394:.\Generated_Source\PSoC4/CapSense.c **** 		CapSense_SampleClk_SetDividerValue((uint16)CapSense_sampleClkDividerVal);
1395:.\Generated_Source\PSoC4/CapSense.c **** 		CapSense_SenseClk_SetDividerValue((uint16)CapSense_senseClkDividerVal);
1396:.\Generated_Source\PSoC4/CapSense.c **** 	#endif /* (0u != CapSense_MULTIPLE_FREQUENCY_SET) */
1397:.\Generated_Source\PSoC4/CapSense.c **** 
1398:.\Generated_Source\PSoC4/CapSense.c **** 	#if (0u != CapSense_IS_M0S8PERI_BLOCK)
1399:.\Generated_Source\PSoC4/CapSense.c **** 		CapSense_SampleClk_Start();
1400:.\Generated_Source\PSoC4/CapSense.c **** 		CapSense_SenseClk_StartEx(CapSense_SampleClk__DIV_ID);
1401:.\Generated_Source\PSoC4/CapSense.c **** 		
1402:.\Generated_Source\PSoC4/CapSense.c **** 		#if(CapSense_PRS_OPTIONS == CapSense__PRS_NONE)
1403:.\Generated_Source\PSoC4/CapSense.c **** 			CyIntDisable(CapSense_ISR_NUMBER);
1404:.\Generated_Source\PSoC4/CapSense.c **** 			CapSense_CSD_CNT_REG = CapSense_ONE_CYCLE;
1405:.\Generated_Source\PSoC4/CapSense.c **** 			while(0u != (CapSense_CSD_CNT_REG & CapSense_RESOLUTION_16_BITS))
1406:.\Generated_Source\PSoC4/CapSense.c **** 			{
1407:.\Generated_Source\PSoC4/CapSense.c **** 			/* Wait until scanning is complete */ 
1408:.\Generated_Source\PSoC4/CapSense.c **** 			}
1409:.\Generated_Source\PSoC4/CapSense.c **** 			CapSense_CSD_INTR_REG = 1u;
1410:.\Generated_Source\PSoC4/CapSense.c **** 			CyIntClearPending(CapSense_ISR_NUMBER);
1411:.\Generated_Source\PSoC4/CapSense.c **** 			CyIntEnable(CapSense_ISR_NUMBER); 
1412:.\Generated_Source\PSoC4/CapSense.c **** 		#endif /* CapSense_PRS_OPTIONS == CapSense__PRS_NONE */
1413:.\Generated_Source\PSoC4/CapSense.c **** 	#endif /* (0u != CapSense_IS_M0S8PERI_BLOCK) */
1414:.\Generated_Source\PSoC4/CapSense.c **** 
1415:.\Generated_Source\PSoC4/CapSense.c **** #if(CapSense_PRS_OPTIONS != CapSense__PRS_NONE)
1416:.\Generated_Source\PSoC4/CapSense.c **** 
1417:.\Generated_Source\PSoC4/CapSense.c **** 	#if(CapSense_TUNING_METHOD == CapSense__TUNING_AUTO)
1418:.\Generated_Source\PSoC4/CapSense.c **** 		if(CapSense_prescalersTuningDone != 0u)
1419:.\Generated_Source\PSoC4/CapSense.c **** 		{
1420:.\Generated_Source\PSoC4/CapSense.c **** 	#endif /* (CapSense_TUNING_METHOD == CapSense__TUNING_AUTO) */
1421:.\Generated_Source\PSoC4/CapSense.c **** 			
1422:.\Generated_Source\PSoC4/CapSense.c **** 			CyIntDisable(CapSense_ISR_NUMBER);
1423:.\Generated_Source\PSoC4/CapSense.c **** 			
1424:.\Generated_Source\PSoC4/CapSense.c **** 			newRegValue = CapSense_CSD_CFG_REG;
1425:.\Generated_Source\PSoC4/CapSense.c **** 			newRegValue |= CapSense_CSD_CFG_PRS_SELECT;
1426:.\Generated_Source\PSoC4/CapSense.c **** 			
1427:.\Generated_Source\PSoC4/CapSense.c **** 			#if(CapSense_PRS_OPTIONS == CapSense__PRS_AUTO)
ARM GAS  C:\Users\kevin\AppData\Local\Temp\ccEmeqeI.s 			page 41


1428:.\Generated_Source\PSoC4/CapSense.c **** 				
1429:.\Generated_Source\PSoC4/CapSense.c **** 				newRegValue &= ~(CapSense_PRS_MODE_MASK);
1430:.\Generated_Source\PSoC4/CapSense.c **** 				
1431:.\Generated_Source\PSoC4/CapSense.c **** 				#if (0u != CapSense_MULTIPLE_FREQUENCY_SET)
1432:.\Generated_Source\PSoC4/CapSense.c **** 					senseClkDivMath = CapSense_senseClkDividerVal[sensor];
1433:.\Generated_Source\PSoC4/CapSense.c **** 					sampleClkDivMath = CapSense_sampleClkDividerVal[sensor];
1434:.\Generated_Source\PSoC4/CapSense.c **** 				#else
1435:.\Generated_Source\PSoC4/CapSense.c **** 					senseClkDivMath = CapSense_senseClkDividerVal;
1436:.\Generated_Source\PSoC4/CapSense.c **** 					sampleClkDivMath = CapSense_sampleClkDividerVal;
1437:.\Generated_Source\PSoC4/CapSense.c **** 				#endif /* ( CapSense_MULTIPLE_FREQUENCY_SET) */
1438:.\Generated_Source\PSoC4/CapSense.c **** 				
1439:.\Generated_Source\PSoC4/CapSense.c **** 				#if(0u == CapSense_IS_M0S8PERI_BLOCK)
1440:.\Generated_Source\PSoC4/CapSense.c **** 					senseClkDivMath *= sampleClkDivMath;
1441:.\Generated_Source\PSoC4/CapSense.c **** 				#endif /* (0u == CapSense_IS_M0S8PERI_BLOCK) */	
1442:.\Generated_Source\PSoC4/CapSense.c **** 				
1443:.\Generated_Source\PSoC4/CapSense.c **** 				if((senseClkDivMath * CapSense_RESOLUTION_12_BITS) <
1444:.\Generated_Source\PSoC4/CapSense.c **** 				   (sampleClkDivMath * CapSense_widgetResolution[widget]))
1445:.\Generated_Source\PSoC4/CapSense.c **** 				{
1446:.\Generated_Source\PSoC4/CapSense.c **** 					newRegValue |= CapSense_CSD_PRS_12_BIT;
1447:.\Generated_Source\PSoC4/CapSense.c **** 				}
1448:.\Generated_Source\PSoC4/CapSense.c **** 			#endif /* (CapSense_PRS_OPTIONS == CapSense__PRS_AUTO) */
1449:.\Generated_Source\PSoC4/CapSense.c **** 			
1450:.\Generated_Source\PSoC4/CapSense.c **** 			CapSense_CSD_CFG_REG = newRegValue;
1451:.\Generated_Source\PSoC4/CapSense.c **** 			
1452:.\Generated_Source\PSoC4/CapSense.c **** 			CyIntEnable(CapSense_ISR_NUMBER);
1453:.\Generated_Source\PSoC4/CapSense.c **** 			
1454:.\Generated_Source\PSoC4/CapSense.c **** 	#if(CapSense_TUNING_METHOD == CapSense__TUNING_AUTO)	
1455:.\Generated_Source\PSoC4/CapSense.c **** 		}
1456:.\Generated_Source\PSoC4/CapSense.c **** 	#endif /* (CapSense_PRS_OPTIONS != CapSense__PRS_NONE) */
1457:.\Generated_Source\PSoC4/CapSense.c **** 
1458:.\Generated_Source\PSoC4/CapSense.c **** #endif /* (CapSense_PRS_OPTIONS == CapSense__PRS_NONE) */
1459:.\Generated_Source\PSoC4/CapSense.c **** 	
1460:.\Generated_Source\PSoC4/CapSense.c **** 	/* Set Idac Value */
1461:.\Generated_Source\PSoC4/CapSense.c **** 	CyIntDisable(CapSense_ISR_NUMBER);
 774              		.loc 1 1461 0
 775 002e 0F20     		mov	r0, #15
 776 0030 FFF7FEFF 		bl	CyIntDisable
 777              	.LVL85:
1462:.\Generated_Source\PSoC4/CapSense.c ****     newRegValue = CapSense_CSD_IDAC_REG;
 778              		.loc 1 1462 0
 779 0034 134B     		ldr	r3, .L39+4
1463:.\Generated_Source\PSoC4/CapSense.c ****  
1464:.\Generated_Source\PSoC4/CapSense.c **** #if (CapSense_IDAC_CNT == 1u)    
1465:.\Generated_Source\PSoC4/CapSense.c **** 	newRegValue &= ~(CapSense_CSD_IDAC1_DATA_MASK);
1466:.\Generated_Source\PSoC4/CapSense.c **** 	newRegValue |= CapSense_modulationIDAC[sensor];
1467:.\Generated_Source\PSoC4/CapSense.c **** #else
1468:.\Generated_Source\PSoC4/CapSense.c **** 	newRegValue &= ~(CapSense_CSD_IDAC1_DATA_MASK | CapSense_CSD_IDAC2_DATA_MASK);
1469:.\Generated_Source\PSoC4/CapSense.c **** 	newRegValue |= (CapSense_modulationIDAC[sensor] | 
 780              		.loc 1 1469 0
 781 0036 144A     		ldr	r2, .L39+8
1462:.\Generated_Source\PSoC4/CapSense.c ****     newRegValue = CapSense_CSD_IDAC_REG;
 782              		.loc 1 1462 0
 783 0038 1D68     		ldr	r5, [r3]
 784              	.LVL86:
1468:.\Generated_Source\PSoC4/CapSense.c **** 	newRegValue &= ~(CapSense_CSD_IDAC1_DATA_MASK | CapSense_CSD_IDAC2_DATA_MASK);
 785              		.loc 1 1468 0
 786 003a 1448     		ldr	r0, .L39+12
ARM GAS  C:\Users\kevin\AppData\Local\Temp\ccEmeqeI.s 			page 42


 787              		.loc 1 1469 0
 788 003c 115D     		ldrb	r1, [r2, r4]
1468:.\Generated_Source\PSoC4/CapSense.c **** 	newRegValue &= ~(CapSense_CSD_IDAC1_DATA_MASK | CapSense_CSD_IDAC2_DATA_MASK);
 789              		.loc 1 1468 0
 790 003e 2840     		and	r0, r5
 791              	.LVL87:
1470:.\Generated_Source\PSoC4/CapSense.c **** 							(uint32)((uint32)CapSense_compensationIDAC[sensor] <<
 792              		.loc 1 1470 0
 793 0040 0332     		add	r2, r2, #3
1469:.\Generated_Source\PSoC4/CapSense.c **** 	newRegValue |= (CapSense_modulationIDAC[sensor] | 
 794              		.loc 1 1469 0
 795 0042 0843     		orr	r0, r1
 796              	.LVL88:
 797              		.loc 1 1470 0
 798 0044 115D     		ldrb	r1, [r2, r4]
1469:.\Generated_Source\PSoC4/CapSense.c **** 	newRegValue |= (CapSense_modulationIDAC[sensor] | 
 799              		.loc 1 1469 0
 800 0046 021C     		mov	r2, r0
 801              		.loc 1 1470 0
 802 0048 0904     		lsl	r1, r1, #16
1469:.\Generated_Source\PSoC4/CapSense.c **** 	newRegValue |= (CapSense_modulationIDAC[sensor] | 
 803              		.loc 1 1469 0
 804 004a 0A43     		orr	r2, r1
 805              	.LVL89:
1471:.\Generated_Source\PSoC4/CapSense.c **** 							CapSense_CSD_IDAC2_DATA_OFFSET));                               
1472:.\Generated_Source\PSoC4/CapSense.c **** #endif /* (CapSense_IDAC_CNT == 1u) */
1473:.\Generated_Source\PSoC4/CapSense.c **** 	
1474:.\Generated_Source\PSoC4/CapSense.c **** 	CapSense_CSD_IDAC_REG = newRegValue;
1475:.\Generated_Source\PSoC4/CapSense.c **** 
1476:.\Generated_Source\PSoC4/CapSense.c **** #if(CapSense_CMOD_PREGARGE_OPTION == CapSense__CAPPRIOBUF)
1477:.\Generated_Source\PSoC4/CapSense.c **** 	newRegValue = CapSense_CMOD_CONNECTION_REG;
1478:.\Generated_Source\PSoC4/CapSense.c **** 	newRegValue &= ~(CapSense_CSD_CMOD_CONNECTION_MASK);
1479:.\Generated_Source\PSoC4/CapSense.c **** 	newRegValue |= CapSense_CSD_CMOD_TO_AMUXBUS_A;
1480:.\Generated_Source\PSoC4/CapSense.c **** 	CapSense_CMOD_CONNECTION_REG = newRegValue;
1481:.\Generated_Source\PSoC4/CapSense.c **** 	
1482:.\Generated_Source\PSoC4/CapSense.c **** 	newRegValue = CapSense_CMOD_PORT_PC_REG;
1483:.\Generated_Source\PSoC4/CapSense.c **** 	newRegValue &= ~(CapSense_CSD_CMOD_PC_MASK);
1484:.\Generated_Source\PSoC4/CapSense.c **** 	newRegValue |= CapSense_CMOD_PC_HIGH_Z_MODE;
1485:.\Generated_Source\PSoC4/CapSense.c **** 	CapSense_CMOD_PORT_PC_REG = newRegValue;
1486:.\Generated_Source\PSoC4/CapSense.c **** #endif /* (CapSense_CMOD_PREGARGE_OPTION == CapSense__CAPPRIOBUF) */
1487:.\Generated_Source\PSoC4/CapSense.c **** 
1488:.\Generated_Source\PSoC4/CapSense.c ****     /* Disconnect Vref Buffer from AMUX */
1489:.\Generated_Source\PSoC4/CapSense.c **** 	newRegValue = CapSense_CSD_CFG_REG;
 806              		.loc 1 1489 0
 807 004c 104D     		ldr	r5, .L39+16
1474:.\Generated_Source\PSoC4/CapSense.c **** 	CapSense_CSD_IDAC_REG = newRegValue;
 808              		.loc 1 1474 0
 809 004e 1A60     		str	r2, [r3]
 810              		.loc 1 1489 0
 811 0050 2F68     		ldr	r7, [r5]
 812              	.LVL90:
1490:.\Generated_Source\PSoC4/CapSense.c **** 	newRegValue &= ~(CapSense_PRECHARGE_CONFIG_MASK);
 813              		.loc 1 1490 0
 814 0052 104B     		ldr	r3, .L39+20
1491:.\Generated_Source\PSoC4/CapSense.c **** 	newRegValue |= CapSense_CTANK_PRECHARGE_CONFIG;
1492:.\Generated_Source\PSoC4/CapSense.c **** 	
1493:.\Generated_Source\PSoC4/CapSense.c **** 	CyIntEnable(CapSense_ISR_NUMBER);
ARM GAS  C:\Users\kevin\AppData\Local\Temp\ccEmeqeI.s 			page 43


 815              		.loc 1 1493 0
 816 0054 0F20     		mov	r0, #15
1490:.\Generated_Source\PSoC4/CapSense.c **** 	newRegValue &= ~(CapSense_PRECHARGE_CONFIG_MASK);
 817              		.loc 1 1490 0
 818 0056 1F40     		and	r7, r3
 819              	.LVL91:
1491:.\Generated_Source\PSoC4/CapSense.c **** 	newRegValue |= CapSense_CTANK_PRECHARGE_CONFIG;
 820              		.loc 1 1491 0
 821 0058 0F4B     		ldr	r3, .L39+24
1494:.\Generated_Source\PSoC4/CapSense.c **** 	
1495:.\Generated_Source\PSoC4/CapSense.c ****     /* Enable Sensor */
1496:.\Generated_Source\PSoC4/CapSense.c ****     CapSense_EnableScanSlot(sensor);
1497:.\Generated_Source\PSoC4/CapSense.c ****     
1498:.\Generated_Source\PSoC4/CapSense.c **** 	interruptState = CyEnterCriticalSection();
1499:.\Generated_Source\PSoC4/CapSense.c **** 	CapSense_CSD_CFG_REG = newRegValue;
1500:.\Generated_Source\PSoC4/CapSense.c **** 	
1501:.\Generated_Source\PSoC4/CapSense.c **** 	/* `#START CapSense_PreSettlingDelay_Debug` */
1502:.\Generated_Source\PSoC4/CapSense.c **** 
1503:.\Generated_Source\PSoC4/CapSense.c **** 	/* `#END` */
1504:.\Generated_Source\PSoC4/CapSense.c **** 	
1505:.\Generated_Source\PSoC4/CapSense.c **** 	CyDelayCycles(CapSense_GLITCH_ELIMINATION_CYCLES);
1506:.\Generated_Source\PSoC4/CapSense.c **** 	
1507:.\Generated_Source\PSoC4/CapSense.c **** 	/* `#START CapSense_PreScan_Debug` */
1508:.\Generated_Source\PSoC4/CapSense.c **** 
1509:.\Generated_Source\PSoC4/CapSense.c **** 	/* `#END` */
1510:.\Generated_Source\PSoC4/CapSense.c **** 	
1511:.\Generated_Source\PSoC4/CapSense.c ****     CapSense_CSD_CNT_REG = counterResolution;
1512:.\Generated_Source\PSoC4/CapSense.c ****     CyExitCriticalSection(interruptState);
1513:.\Generated_Source\PSoC4/CapSense.c **** }
 822              		.loc 1 1513 0
 823              		@ sp needed
1491:.\Generated_Source\PSoC4/CapSense.c **** 	newRegValue |= CapSense_CTANK_PRECHARGE_CONFIG;
 824              		.loc 1 1491 0
 825 005a 1F43     		orr	r7, r3
 826              	.LVL92:
1493:.\Generated_Source\PSoC4/CapSense.c **** 	CyIntEnable(CapSense_ISR_NUMBER);
 827              		.loc 1 1493 0
 828 005c FFF7FEFF 		bl	CyIntEnable
 829              	.LVL93:
1496:.\Generated_Source\PSoC4/CapSense.c ****     CapSense_EnableScanSlot(sensor);
 830              		.loc 1 1496 0
 831 0060 201C     		mov	r0, r4
 832 0062 FFF7FEFF 		bl	CapSense_EnableSensor
 833              	.LVL94:
1498:.\Generated_Source\PSoC4/CapSense.c **** 	interruptState = CyEnterCriticalSection();
 834              		.loc 1 1498 0
 835 0066 FFF7FEFF 		bl	CyEnterCriticalSection
 836              	.LVL95:
1499:.\Generated_Source\PSoC4/CapSense.c **** 	CapSense_CSD_CFG_REG = newRegValue;
 837              		.loc 1 1499 0
 838 006a 2F60     		str	r7, [r5]
1498:.\Generated_Source\PSoC4/CapSense.c **** 	interruptState = CyEnterCriticalSection();
 839              		.loc 1 1498 0
 840 006c 041C     		mov	r4, r0
 841              	.LVL96:
1505:.\Generated_Source\PSoC4/CapSense.c **** 	CyDelayCycles(CapSense_GLITCH_ELIMINATION_CYCLES);
 842              		.loc 1 1505 0
ARM GAS  C:\Users\kevin\AppData\Local\Temp\ccEmeqeI.s 			page 44


 843 006e 0020     		mov	r0, #0
 844              	.LVL97:
 845 0070 FFF7FEFF 		bl	CyDelayCycles
 846              	.LVL98:
1511:.\Generated_Source\PSoC4/CapSense.c ****     CapSense_CSD_CNT_REG = counterResolution;
 847              		.loc 1 1511 0
 848 0074 094B     		ldr	r3, .L39+28
1512:.\Generated_Source\PSoC4/CapSense.c ****     CyExitCriticalSection(interruptState);
 849              		.loc 1 1512 0
 850 0076 201C     		mov	r0, r4
1511:.\Generated_Source\PSoC4/CapSense.c ****     CapSense_CSD_CNT_REG = counterResolution;
 851              		.loc 1 1511 0
 852 0078 1E60     		str	r6, [r3]
1512:.\Generated_Source\PSoC4/CapSense.c ****     CyExitCriticalSection(interruptState);
 853              		.loc 1 1512 0
 854 007a FFF7FEFF 		bl	CyExitCriticalSection
 855              	.LVL99:
 856              	.LVL100:
 857              	.LVL101:
 858              	.LVL102:
 859              		.loc 1 1513 0
 860 007e F8BD     		pop	{r3, r4, r5, r6, r7, pc}
 861              	.L40:
 862              		.align	2
 863              	.L39:
 864 0080 00000000 		.word	.LANCHOR1
 865 0084 08000840 		.word	1074266120
 866 0088 00000000 		.word	.LANCHOR2
 867 008c 00FF80FF 		.word	-8323328
 868 0090 04000840 		.word	1074266116
 869 0094 FF1FDFFF 		.word	-2154497
 870 0098 20002000 		.word	2097184
 871 009c 0C000840 		.word	1074266124
 872              		.cfi_endproc
 873              	.LFE52:
 874              		.size	CapSense_PreScan, .-CapSense_PreScan
 875              		.section	.text.CapSense_ScanSensor,"ax",%progbits
 876              		.align	1
 877              		.global	CapSense_ScanSensor
 878              		.code	16
 879              		.thumb_func
 880              		.type	CapSense_ScanSensor, %function
 881              	CapSense_ScanSensor:
 882              	.LFB39:
 569:.\Generated_Source\PSoC4/CapSense.c **** {
 883              		.loc 1 569 0
 884              		.cfi_startproc
 885              	.LVL103:
 886 0000 08B5     		push	{r3, lr}
 887              		.cfi_def_cfa_offset 8
 888              		.cfi_offset 3, -8
 889              		.cfi_offset 14, -4
 571:.\Generated_Source\PSoC4/CapSense.c ****     CapSense_csdStatusVar = 0u;
 890              		.loc 1 571 0
 891 0002 054B     		ldr	r3, .L42
 892 0004 0022     		mov	r2, #0
 893 0006 1A70     		strb	r2, [r3]
ARM GAS  C:\Users\kevin\AppData\Local\Temp\ccEmeqeI.s 			page 45


 572:.\Generated_Source\PSoC4/CapSense.c ****     CapSense_sensorIndex = (uint8)sensor;
 894              		.loc 1 572 0
 895 0008 C2B2     		uxtb	r2, r0
 896 000a 1A72     		strb	r2, [r3, #8]
 575:.\Generated_Source\PSoC4/CapSense.c ****     CapSense_csdStatusVar = (CapSense_SW_STS_BUSY | CapSense_SW_CTRL_SINGLE_SCAN);
 897              		.loc 1 575 0
 898 000c 8122     		mov	r2, #129
 899 000e 1A70     		strb	r2, [r3]
 577:.\Generated_Source\PSoC4/CapSense.c **** }
 900              		.loc 1 577 0
 901              		@ sp needed
 576:.\Generated_Source\PSoC4/CapSense.c ****     CapSense_PreScan(sensor);
 902              		.loc 1 576 0
 903 0010 FFF7FEFF 		bl	CapSense_PreScan
 904              	.LVL104:
 577:.\Generated_Source\PSoC4/CapSense.c **** }
 905              		.loc 1 577 0
 906 0014 08BD     		pop	{r3, pc}
 907              	.L43:
 908 0016 C046     		.align	2
 909              	.L42:
 910 0018 00000000 		.word	.LANCHOR0
 911              		.cfi_endproc
 912              	.LFE39:
 913              		.size	CapSense_ScanSensor, .-CapSense_ScanSensor
 914              		.section	.text.CapSense_PostScan,"ax",%progbits
 915              		.align	1
 916              		.global	CapSense_PostScan
 917              		.code	16
 918              		.thumb_func
 919              		.type	CapSense_PostScan, %function
 920              	CapSense_PostScan:
 921              	.LFB53:
1514:.\Generated_Source\PSoC4/CapSense.c **** 
1515:.\Generated_Source\PSoC4/CapSense.c **** 
1516:.\Generated_Source\PSoC4/CapSense.c **** /*******************************************************************************
1517:.\Generated_Source\PSoC4/CapSense.c **** * Function Name: CapSense_PostScan
1518:.\Generated_Source\PSoC4/CapSense.c **** ********************************************************************************
1519:.\Generated_Source\PSoC4/CapSense.c **** *
1520:.\Generated_Source\PSoC4/CapSense.c **** * Summary:
1521:.\Generated_Source\PSoC4/CapSense.c **** *  Stores the results of measurement in the CapSense_sensorRaw[] array,
1522:.\Generated_Source\PSoC4/CapSense.c **** *  sets the scanning sensor in the non-sampling state, turns off Idac(Current Source IDAC),
1523:.\Generated_Source\PSoC4/CapSense.c **** *  disconnects the IDAC(Sink mode), and applies Vref on AMUX.
1524:.\Generated_Source\PSoC4/CapSense.c **** *
1525:.\Generated_Source\PSoC4/CapSense.c **** * Parameters:
1526:.\Generated_Source\PSoC4/CapSense.c **** *  sensor:  Sensor number.
1527:.\Generated_Source\PSoC4/CapSense.c **** *
1528:.\Generated_Source\PSoC4/CapSense.c **** * Return:
1529:.\Generated_Source\PSoC4/CapSense.c **** *  None
1530:.\Generated_Source\PSoC4/CapSense.c **** *
1531:.\Generated_Source\PSoC4/CapSense.c **** * Global Variables:
1532:.\Generated_Source\PSoC4/CapSense.c **** *  CapSense_sensorRaw[] - used to store sensors raw data.
1533:.\Generated_Source\PSoC4/CapSense.c **** *
1534:.\Generated_Source\PSoC4/CapSense.c **** * Side Effects: 
1535:.\Generated_Source\PSoC4/CapSense.c **** *  None
1536:.\Generated_Source\PSoC4/CapSense.c **** *
1537:.\Generated_Source\PSoC4/CapSense.c **** *******************************************************************************/
ARM GAS  C:\Users\kevin\AppData\Local\Temp\ccEmeqeI.s 			page 46


1538:.\Generated_Source\PSoC4/CapSense.c **** void CapSense_PostScan(uint32 sensor)
1539:.\Generated_Source\PSoC4/CapSense.c **** {	
 922              		.loc 1 1539 0
 923              		.cfi_startproc
 924              	.LVL105:
 925 0000 08B5     		push	{r3, lr}
 926              		.cfi_def_cfa_offset 8
 927              		.cfi_offset 3, -8
 928              		.cfi_offset 14, -4
1540:.\Generated_Source\PSoC4/CapSense.c **** 	uint32 newRegValue;
1541:.\Generated_Source\PSoC4/CapSense.c **** #if ((CapSense_TUNING_METHOD == CapSense__TUNING_AUTO) &&\
1542:.\Generated_Source\PSoC4/CapSense.c **** 	 (0 != CapSense_IS_OVERSAMPLING_EN))
1543:.\Generated_Source\PSoC4/CapSense.c ****     uint32 oversamplingFactor;
1544:.\Generated_Source\PSoC4/CapSense.c ****     uint32 widget;
1545:.\Generated_Source\PSoC4/CapSense.c **** #endif /* ((CapSense_TUNING_METHOD == CapSense__TUNING_AUTO) &&\
1546:.\Generated_Source\PSoC4/CapSense.c **** 		   (0 != CapSense_IS_OVERSAMPLING_EN)) */	
1547:.\Generated_Source\PSoC4/CapSense.c **** 
1548:.\Generated_Source\PSoC4/CapSense.c **** 	/* `#START CapSense_PostScan_Debug` */
1549:.\Generated_Source\PSoC4/CapSense.c **** 
1550:.\Generated_Source\PSoC4/CapSense.c **** 	/* `#END` */
1551:.\Generated_Source\PSoC4/CapSense.c **** 
1552:.\Generated_Source\PSoC4/CapSense.c **** 
1553:.\Generated_Source\PSoC4/CapSense.c ****     /* Read SlotResult from Raw Counter */
1554:.\Generated_Source\PSoC4/CapSense.c ****     CapSense_sensorRaw[sensor]  = (uint16)CapSense_CSD_CNT_REG;
 929              		.loc 1 1554 0
 930 0002 0E4B     		ldr	r3, .L45
 931 0004 4200     		lsl	r2, r0, #1
 932 0006 1968     		ldr	r1, [r3]
 933 0008 0D4B     		ldr	r3, .L45+4
1555:.\Generated_Source\PSoC4/CapSense.c **** 	
1556:.\Generated_Source\PSoC4/CapSense.c **** #if ((CapSense_TUNING_METHOD == CapSense__TUNING_AUTO) &&\
1557:.\Generated_Source\PSoC4/CapSense.c **** 	 (0 != CapSense_IS_OVERSAMPLING_EN))
1558:.\Generated_Source\PSoC4/CapSense.c **** 	widget = CapSense_widgetNumber[sensor];
1559:.\Generated_Source\PSoC4/CapSense.c **** 	if(CapSense_widgetResolution[widget] < CapSense_RESOLUTION_16_BITS)
1560:.\Generated_Source\PSoC4/CapSense.c **** 	{
1561:.\Generated_Source\PSoC4/CapSense.c **** 		oversamplingFactor = CapSense_GetBitValue(scanSpeedTbl, sensor);
1562:.\Generated_Source\PSoC4/CapSense.c **** 		CapSense_sensorRaw[sensor] >>= oversamplingFactor;
1563:.\Generated_Source\PSoC4/CapSense.c **** 	}
1564:.\Generated_Source\PSoC4/CapSense.c **** #endif /* ((CapSense_TUNING_METHOD == CapSense__TUNING_AUTO) &&\
1565:.\Generated_Source\PSoC4/CapSense.c **** 		   (0 != CapSense_IS_OVERSAMPLING_EN)) */
1566:.\Generated_Source\PSoC4/CapSense.c **** 
1567:.\Generated_Source\PSoC4/CapSense.c ****     /* Disable Sensor */
1568:.\Generated_Source\PSoC4/CapSense.c ****     CapSense_DisableScanSlot(sensor);
1569:.\Generated_Source\PSoC4/CapSense.c **** 
1570:.\Generated_Source\PSoC4/CapSense.c **** 	CyIntDisable(CapSense_ISR_NUMBER);
1571:.\Generated_Source\PSoC4/CapSense.c **** 	
1572:.\Generated_Source\PSoC4/CapSense.c **** #if(CapSense_CMOD_PREGARGE_OPTION == CapSense__CAPPRIOBUF)
1573:.\Generated_Source\PSoC4/CapSense.c **** 	newRegValue = CapSense_CMOD_CONNECTION_REG;
1574:.\Generated_Source\PSoC4/CapSense.c **** 	newRegValue &= ~(CapSense_CSD_CMOD_CONNECTION_MASK);
1575:.\Generated_Source\PSoC4/CapSense.c **** 	newRegValue |= CapSense_CSD_CMOD_TO_AMUXBUS_B;
1576:.\Generated_Source\PSoC4/CapSense.c **** 	CapSense_CMOD_CONNECTION_REG = newRegValue;
1577:.\Generated_Source\PSoC4/CapSense.c **** 	
1578:.\Generated_Source\PSoC4/CapSense.c **** 	newRegValue = CapSense_CMOD_PORT_PC_REG;
1579:.\Generated_Source\PSoC4/CapSense.c **** 	newRegValue &= ~(CapSense_CSD_CMOD_PC_MASK);
1580:.\Generated_Source\PSoC4/CapSense.c **** 	newRegValue |= CapSense_CMOD_PC_STRONG_MODE;
1581:.\Generated_Source\PSoC4/CapSense.c **** 	CapSense_CMOD_PORT_PC_REG = newRegValue;
1582:.\Generated_Source\PSoC4/CapSense.c **** 		
ARM GAS  C:\Users\kevin\AppData\Local\Temp\ccEmeqeI.s 			page 47


1583:.\Generated_Source\PSoC4/CapSense.c **** 	newRegValue = CapSense_CMOD_PORT_DR_REG;
1584:.\Generated_Source\PSoC4/CapSense.c ****     newRegValue &= ~(CapSense_CMOD_DR_MASK);
1585:.\Generated_Source\PSoC4/CapSense.c **** 	newRegValue |= CapSense_CMOD_DR_CONFIG;
1586:.\Generated_Source\PSoC4/CapSense.c ****     CapSense_CMOD_PORT_DR_REG = newRegValue;    
1587:.\Generated_Source\PSoC4/CapSense.c **** #endif /* (CapSense_CMOD_PREGARGE_OPTION == CapSense__CAPPRIOBUF) */
1588:.\Generated_Source\PSoC4/CapSense.c **** 	
1589:.\Generated_Source\PSoC4/CapSense.c **** 	/* Connect Vref Buffer to AMUX bus  */
1590:.\Generated_Source\PSoC4/CapSense.c **** 	newRegValue = CapSense_CSD_CFG_REG;
1591:.\Generated_Source\PSoC4/CapSense.c **** 	newRegValue &= ~(CapSense_PRECHARGE_CONFIG_MASK);
1592:.\Generated_Source\PSoC4/CapSense.c **** 	newRegValue |= CapSense_CMOD_PRECHARGE_CONFIG;
1593:.\Generated_Source\PSoC4/CapSense.c **** 	CapSense_CSD_CFG_REG = newRegValue;
1594:.\Generated_Source\PSoC4/CapSense.c **** 
1595:.\Generated_Source\PSoC4/CapSense.c **** 	/* Set Idac Value = 0 */
1596:.\Generated_Source\PSoC4/CapSense.c **** #if (CapSense_IDAC_CNT == 1u)   
1597:.\Generated_Source\PSoC4/CapSense.c **** 	CapSense_CSD_IDAC_REG &= ~(CapSense_CSD_IDAC1_DATA_MASK);
1598:.\Generated_Source\PSoC4/CapSense.c **** #else
1599:.\Generated_Source\PSoC4/CapSense.c **** 	CapSense_CSD_IDAC_REG &= ~(CapSense_CSD_IDAC1_DATA_MASK | CapSense_CSD_IDAC2_DATA_MASK);          
1600:.\Generated_Source\PSoC4/CapSense.c **** #endif /* (CapSense_IDAC_CNT == 1u) */
1601:.\Generated_Source\PSoC4/CapSense.c **** 
1602:.\Generated_Source\PSoC4/CapSense.c **** 	CyIntEnable(CapSense_ISR_NUMBER);
1603:.\Generated_Source\PSoC4/CapSense.c **** }
 934              		.loc 1 1603 0
 935              		@ sp needed
1554:.\Generated_Source\PSoC4/CapSense.c ****     CapSense_sensorRaw[sensor]  = (uint16)CapSense_CSD_CNT_REG;
 936              		.loc 1 1554 0
 937 000a 0233     		add	r3, r3, #2
 938 000c D152     		strh	r1, [r2, r3]
1568:.\Generated_Source\PSoC4/CapSense.c ****     CapSense_DisableScanSlot(sensor);
 939              		.loc 1 1568 0
 940 000e FFF7FEFF 		bl	CapSense_DisableSensor
 941              	.LVL106:
1570:.\Generated_Source\PSoC4/CapSense.c **** 	CyIntDisable(CapSense_ISR_NUMBER);
 942              		.loc 1 1570 0
 943 0012 0F20     		mov	r0, #15
 944 0014 FFF7FEFF 		bl	CyIntDisable
 945              	.LVL107:
1590:.\Generated_Source\PSoC4/CapSense.c **** 	newRegValue = CapSense_CSD_CFG_REG;
 946              		.loc 1 1590 0
 947 0018 0A4B     		ldr	r3, .L45+8
1591:.\Generated_Source\PSoC4/CapSense.c **** 	newRegValue &= ~(CapSense_PRECHARGE_CONFIG_MASK);
 948              		.loc 1 1591 0
 949 001a 0B4A     		ldr	r2, .L45+12
1590:.\Generated_Source\PSoC4/CapSense.c **** 	newRegValue = CapSense_CSD_CFG_REG;
 950              		.loc 1 1590 0
 951 001c 1968     		ldr	r1, [r3]
 952              	.LVL108:
1602:.\Generated_Source\PSoC4/CapSense.c **** 	CyIntEnable(CapSense_ISR_NUMBER);
 953              		.loc 1 1602 0
 954 001e 0F20     		mov	r0, #15
1591:.\Generated_Source\PSoC4/CapSense.c **** 	newRegValue &= ~(CapSense_PRECHARGE_CONFIG_MASK);
 955              		.loc 1 1591 0
 956 0020 0A40     		and	r2, r1
 957              	.LVL109:
1592:.\Generated_Source\PSoC4/CapSense.c **** 	newRegValue |= CapSense_CMOD_PRECHARGE_CONFIG;
 958              		.loc 1 1592 0
 959 0022 A021     		mov	r1, #160
 960 0024 0902     		lsl	r1, r1, #8
ARM GAS  C:\Users\kevin\AppData\Local\Temp\ccEmeqeI.s 			page 48


 961 0026 0A43     		orr	r2, r1
 962              	.LVL110:
1593:.\Generated_Source\PSoC4/CapSense.c **** 	CapSense_CSD_CFG_REG = newRegValue;
 963              		.loc 1 1593 0
 964 0028 1A60     		str	r2, [r3]
1599:.\Generated_Source\PSoC4/CapSense.c **** 	CapSense_CSD_IDAC_REG &= ~(CapSense_CSD_IDAC1_DATA_MASK | CapSense_CSD_IDAC2_DATA_MASK);          
 965              		.loc 1 1599 0
 966 002a 084B     		ldr	r3, .L45+16
 967 002c 084A     		ldr	r2, .L45+20
 968              	.LVL111:
 969 002e 1968     		ldr	r1, [r3]
 970 0030 0A40     		and	r2, r1
 971 0032 1A60     		str	r2, [r3]
 972              	.LVL112:
1602:.\Generated_Source\PSoC4/CapSense.c **** 	CyIntEnable(CapSense_ISR_NUMBER);
 973              		.loc 1 1602 0
 974 0034 FFF7FEFF 		bl	CyIntEnable
 975              	.LVL113:
 976              		.loc 1 1603 0
 977 0038 08BD     		pop	{r3, pc}
 978              	.L46:
 979 003a C046     		.align	2
 980              	.L45:
 981 003c 0C000840 		.word	1074266124
 982 0040 00000000 		.word	.LANCHOR0
 983 0044 04000840 		.word	1074266116
 984 0048 FF1FDFFF 		.word	-2154497
 985 004c 08000840 		.word	1074266120
 986 0050 00FF80FF 		.word	-8323328
 987              		.cfi_endproc
 988              	.LFE53:
 989              		.size	CapSense_PostScan, .-CapSense_PostScan
 990              		.section	.text.CapSense_EnableShieldElectrode,"ax",%progbits
 991              		.align	1
 992              		.global	CapSense_EnableShieldElectrode
 993              		.code	16
 994              		.thumb_func
 995              		.type	CapSense_EnableShieldElectrode, %function
 996              	CapSense_EnableShieldElectrode:
 997              	.LFB54:
1604:.\Generated_Source\PSoC4/CapSense.c **** 
1605:.\Generated_Source\PSoC4/CapSense.c **** 
1606:.\Generated_Source\PSoC4/CapSense.c **** /*******************************************************************************
1607:.\Generated_Source\PSoC4/CapSense.c **** * Function Name: CapSense_EnableShieldElectrode
1608:.\Generated_Source\PSoC4/CapSense.c **** ********************************************************************************
1609:.\Generated_Source\PSoC4/CapSense.c **** *
1610:.\Generated_Source\PSoC4/CapSense.c **** * Summary:
1611:.\Generated_Source\PSoC4/CapSense.c **** *  This API enables or disables the shield electrode on a specified port pin.
1612:.\Generated_Source\PSoC4/CapSense.c **** *
1613:.\Generated_Source\PSoC4/CapSense.c **** * Parameters:
1614:.\Generated_Source\PSoC4/CapSense.c **** *  portNumber: contains the shield electrode port number (0, 1, 2).
1615:.\Generated_Source\PSoC4/CapSense.c **** *  pinNumber: contains the shield electrode pin number (0, 1, 2, ... , 7).
1616:.\Generated_Source\PSoC4/CapSense.c **** *
1617:.\Generated_Source\PSoC4/CapSense.c **** * Return:
1618:.\Generated_Source\PSoC4/CapSense.c **** *  None
1619:.\Generated_Source\PSoC4/CapSense.c **** *
1620:.\Generated_Source\PSoC4/CapSense.c **** * Global Variables:
ARM GAS  C:\Users\kevin\AppData\Local\Temp\ccEmeqeI.s 			page 49


1621:.\Generated_Source\PSoC4/CapSense.c **** *  CapSense_prtCfgTbl[] - Contains pointers to the port config registers for each port.
1622:.\Generated_Source\PSoC4/CapSense.c **** *  CapSense_prtSelTbl[] - Contains pointers to the HSIOM registers for each port.
1623:.\Generated_Source\PSoC4/CapSense.c **** *
1624:.\Generated_Source\PSoC4/CapSense.c **** * Side Effects: 
1625:.\Generated_Source\PSoC4/CapSense.c **** *  None
1626:.\Generated_Source\PSoC4/CapSense.c **** *
1627:.\Generated_Source\PSoC4/CapSense.c **** *******************************************************************************/
1628:.\Generated_Source\PSoC4/CapSense.c **** void CapSense_EnableShieldElectrode(uint32 pinNumber, uint32 portNumber)
1629:.\Generated_Source\PSoC4/CapSense.c **** {
 998              		.loc 1 1629 0
 999              		.cfi_startproc
 1000              	.LVL114:
1630:.\Generated_Source\PSoC4/CapSense.c **** 	uint32 newRegValue;
1631:.\Generated_Source\PSoC4/CapSense.c **** 	
1632:.\Generated_Source\PSoC4/CapSense.c **** 	*CapSense_prtCfgTbl[portNumber] &= ~(CapSense_CSD_PIN_MODE_MASK << (pinNumber * CapSense_PC_PIN_CF
 1001              		.loc 1 1632 0
 1002 0000 0B4B     		ldr	r3, .L48
1629:.\Generated_Source\PSoC4/CapSense.c **** {
 1003              		.loc 1 1629 0
 1004 0002 30B5     		push	{r4, r5, lr}
 1005              		.cfi_def_cfa_offset 12
 1006              		.cfi_offset 4, -12
 1007              		.cfi_offset 5, -8
 1008              		.cfi_offset 14, -4
 1009              		.loc 1 1632 0
 1010 0004 8900     		lsl	r1, r1, #2
 1011              	.LVL115:
 1012 0006 0324     		mov	r4, #3
 1013 0008 5918     		add	r1, r3, r1
 1014 000a 4443     		mul	r4, r0
 1015 000c 8B6A     		ldr	r3, [r1, #40]
 1016 000e 0725     		mov	r5, #7
 1017 0010 1A68     		ldr	r2, [r3]
 1018 0012 A540     		lsl	r5, r5, r4
 1019 0014 AA43     		bic	r2, r5
 1020 0016 1A60     		str	r2, [r3]
1633:.\Generated_Source\PSoC4/CapSense.c **** 	newRegValue = *CapSense_prtSelTbl[portNumber];
 1021              		.loc 1 1633 0
 1022 0018 4B69     		ldr	r3, [r1, #20]
1634:.\Generated_Source\PSoC4/CapSense.c ****     newRegValue &= ~(CapSense_CSD_HSIOM_MASK << (pinNumber * CapSense_HSIOM_PIN_CFG_SIZE));
 1023              		.loc 1 1634 0
 1024 001a 8000     		lsl	r0, r0, #2
 1025              	.LVL116:
1633:.\Generated_Source\PSoC4/CapSense.c **** 	newRegValue = *CapSense_prtSelTbl[portNumber];
 1026              		.loc 1 1633 0
 1027 001c 1A68     		ldr	r2, [r3]
 1028              	.LVL117:
 1029              		.loc 1 1634 0
 1030 001e 0F21     		mov	r1, #15
 1031 0020 8140     		lsl	r1, r1, r0
 1032 0022 8A43     		bic	r2, r1
 1033              	.LVL118:
1635:.\Generated_Source\PSoC4/CapSense.c ****     newRegValue |= (CapSense_CSD_SHIELD_PORT_MODE << (pinNumber * CapSense_HSIOM_PIN_CFG_SIZE));
 1034              		.loc 1 1635 0
 1035 0024 0521     		mov	r1, #5
 1036 0026 8140     		lsl	r1, r1, r0
 1037 0028 081C     		mov	r0, r1
ARM GAS  C:\Users\kevin\AppData\Local\Temp\ccEmeqeI.s 			page 50


 1038 002a 1043     		orr	r0, r2
 1039              	.LVL119:
1636:.\Generated_Source\PSoC4/CapSense.c ****     *CapSense_prtSelTbl[portNumber] = newRegValue;
 1040              		.loc 1 1636 0
 1041 002c 1860     		str	r0, [r3]
1637:.\Generated_Source\PSoC4/CapSense.c **** }
 1042              		.loc 1 1637 0
 1043              		@ sp needed
 1044 002e 30BD     		pop	{r4, r5, pc}
 1045              	.L49:
 1046              		.align	2
 1047              	.L48:
 1048 0030 00000000 		.word	.LANCHOR1
 1049              		.cfi_endproc
 1050              	.LFE54:
 1051              		.size	CapSense_EnableShieldElectrode, .-CapSense_EnableShieldElectrode
 1052              		.section	.text.CapSense_SetShieldDelay,"ax",%progbits
 1053              		.align	1
 1054              		.global	CapSense_SetShieldDelay
 1055              		.code	16
 1056              		.thumb_func
 1057              		.type	CapSense_SetShieldDelay, %function
 1058              	CapSense_SetShieldDelay:
 1059              	.LFB55:
1638:.\Generated_Source\PSoC4/CapSense.c **** 
1639:.\Generated_Source\PSoC4/CapSense.c **** 
1640:.\Generated_Source\PSoC4/CapSense.c **** /*******************************************************************************
1641:.\Generated_Source\PSoC4/CapSense.c **** * Function Name: CapSense_SetShieldDelay
1642:.\Generated_Source\PSoC4/CapSense.c **** ********************************************************************************
1643:.\Generated_Source\PSoC4/CapSense.c **** *
1644:.\Generated_Source\PSoC4/CapSense.c **** * Summary:
1645:.\Generated_Source\PSoC4/CapSense.c **** *  This API sets a shield delay.
1646:.\Generated_Source\PSoC4/CapSense.c **** *
1647:.\Generated_Source\PSoC4/CapSense.c **** * Parameters:
1648:.\Generated_Source\PSoC4/CapSense.c **** *  delay:  shield delay value:
1649:.\Generated_Source\PSoC4/CapSense.c **** *                               0 - no delay
1650:.\Generated_Source\PSoC4/CapSense.c **** *                               1 - 1 cycle delay
1651:.\Generated_Source\PSoC4/CapSense.c **** *                               2 - 2 cycles delay
1652:.\Generated_Source\PSoC4/CapSense.c **** *
1653:.\Generated_Source\PSoC4/CapSense.c **** * Return:
1654:.\Generated_Source\PSoC4/CapSense.c **** *  None
1655:.\Generated_Source\PSoC4/CapSense.c **** *
1656:.\Generated_Source\PSoC4/CapSense.c **** * Global Variables:
1657:.\Generated_Source\PSoC4/CapSense.c **** *  None
1658:.\Generated_Source\PSoC4/CapSense.c **** *
1659:.\Generated_Source\PSoC4/CapSense.c **** * Side Effects: 
1660:.\Generated_Source\PSoC4/CapSense.c **** *  None
1661:.\Generated_Source\PSoC4/CapSense.c **** *
1662:.\Generated_Source\PSoC4/CapSense.c **** *******************************************************************************/
1663:.\Generated_Source\PSoC4/CapSense.c **** void CapSense_SetShieldDelay(uint32 delay)
1664:.\Generated_Source\PSoC4/CapSense.c **** {
 1060              		.loc 1 1664 0
 1061              		.cfi_startproc
 1062              	.LVL120:
1665:.\Generated_Source\PSoC4/CapSense.c ****     uint32 newRegValue;
1666:.\Generated_Source\PSoC4/CapSense.c ****     
1667:.\Generated_Source\PSoC4/CapSense.c ****     delay &= 0x03u;
ARM GAS  C:\Users\kevin\AppData\Local\Temp\ccEmeqeI.s 			page 51


1668:.\Generated_Source\PSoC4/CapSense.c ****     
1669:.\Generated_Source\PSoC4/CapSense.c ****     newRegValue = CapSense_CSD_CFG_REG;
 1063              		.loc 1 1669 0
 1064 0000 034B     		ldr	r3, .L51
1667:.\Generated_Source\PSoC4/CapSense.c ****     delay &= 0x03u;
 1065              		.loc 1 1667 0
 1066 0002 0321     		mov	r1, #3
 1067              		.loc 1 1669 0
 1068 0004 1A68     		ldr	r2, [r3]
 1069              	.LVL121:
1667:.\Generated_Source\PSoC4/CapSense.c ****     delay &= 0x03u;
 1070              		.loc 1 1667 0
 1071 0006 0840     		and	r0, r1
 1072              	.LVL122:
1670:.\Generated_Source\PSoC4/CapSense.c ****     newRegValue &= (uint32)(~(uint32)CapSense_SHIELD_DELAY);    
1671:.\Generated_Source\PSoC4/CapSense.c ****     newRegValue |= (delay << CapSense_CSD_CFG_SHIELD_DELAY_POS);    
 1073              		.loc 1 1671 0
 1074 0008 4002     		lsl	r0, r0, #9
 1075              	.LVL123:
 1076 000a 1043     		orr	r0, r2
 1077              	.LVL124:
1672:.\Generated_Source\PSoC4/CapSense.c ****     CapSense_CSD_CFG_REG = newRegValue;
 1078              		.loc 1 1672 0
 1079 000c 1860     		str	r0, [r3]
1673:.\Generated_Source\PSoC4/CapSense.c **** }
 1080              		.loc 1 1673 0
 1081              		@ sp needed
 1082 000e 7047     		bx	lr
 1083              	.L52:
 1084              		.align	2
 1085              	.L51:
 1086 0010 04000840 		.word	1074266116
 1087              		.cfi_endproc
 1088              	.LFE55:
 1089              		.size	CapSense_SetShieldDelay, .-CapSense_SetShieldDelay
 1090              		.section	.text.CapSense_Init,"ax",%progbits
 1091              		.align	1
 1092              		.global	CapSense_Init
 1093              		.code	16
 1094              		.thumb_func
 1095              		.type	CapSense_Init, %function
 1096              	CapSense_Init:
 1097              	.LFB33:
 182:.\Generated_Source\PSoC4/CapSense.c **** {   
 1098              		.loc 1 182 0
 1099              		.cfi_startproc
 1100              	.LVL125:
 1101 0000 10B5     		push	{r4, lr}
 1102              		.cfi_def_cfa_offset 8
 1103              		.cfi_offset 4, -8
 1104              		.cfi_offset 14, -4
 215:.\Generated_Source\PSoC4/CapSense.c **** 		CapSense_unscannedSnsDriveMode[curSensor] = CapSense_CONNECT_INACTIVE_SNS;
 1105              		.loc 1 215 0
 1106 0002 064B     		ldr	r3, .L54
 1107 0004 0024     		mov	r4, #0
 1108 0006 1C70     		strb	r4, [r3]
 1109              	.LVL126:
ARM GAS  C:\Users\kevin\AppData\Local\Temp\ccEmeqeI.s 			page 52


 1110 0008 5C70     		strb	r4, [r3, #1]
 1111              	.LVL127:
 1112 000a 9C70     		strb	r4, [r3, #2]
 1113              	.LVL128:
 218:.\Generated_Source\PSoC4/CapSense.c **** 	CapSense_CsdHwBlockInit();
 1114              		.loc 1 218 0
 1115 000c FFF7FEFF 		bl	CapSense_CsdHwBlockInit
 1116              	.LVL129:
 219:.\Generated_Source\PSoC4/CapSense.c ****     CapSense_SetShieldDelay(CapSense_SHIELD_DELAY );
 1117              		.loc 1 219 0
 1118 0010 201C     		mov	r0, r4
 1119 0012 FFF7FEFF 		bl	CapSense_SetShieldDelay
 1120              	.LVL130:
 223:.\Generated_Source\PSoC4/CapSense.c **** }
 1121              		.loc 1 223 0
 1122              		@ sp needed
 222:.\Generated_Source\PSoC4/CapSense.c ****     CapSense_ClearSensors();
 1123              		.loc 1 222 0
 1124 0016 FFF7FEFF 		bl	CapSense_ClearSensors
 1125              	.LVL131:
 223:.\Generated_Source\PSoC4/CapSense.c **** }
 1126              		.loc 1 223 0
 1127 001a 10BD     		pop	{r4, pc}
 1128              	.L55:
 1129              		.align	2
 1130              	.L54:
 1131 001c 00000000 		.word	CapSense_unscannedSnsDriveMode
 1132              		.cfi_endproc
 1133              	.LFE33:
 1134              		.size	CapSense_Init, .-CapSense_Init
 1135              		.section	.text.CapSense_ReadCurrentScanningSensor,"ax",%progbits
 1136              		.align	1
 1137              		.global	CapSense_ReadCurrentScanningSensor
 1138              		.code	16
 1139              		.thumb_func
 1140              		.type	CapSense_ReadCurrentScanningSensor, %function
 1141              	CapSense_ReadCurrentScanningSensor:
 1142              	.LFB56:
1674:.\Generated_Source\PSoC4/CapSense.c **** 
1675:.\Generated_Source\PSoC4/CapSense.c **** 
1676:.\Generated_Source\PSoC4/CapSense.c **** /*******************************************************************************
1677:.\Generated_Source\PSoC4/CapSense.c **** * Function Name: CapSense_ReadCurrentScanningSensor
1678:.\Generated_Source\PSoC4/CapSense.c **** ********************************************************************************
1679:.\Generated_Source\PSoC4/CapSense.c **** *
1680:.\Generated_Source\PSoC4/CapSense.c **** * Summary:
1681:.\Generated_Source\PSoC4/CapSense.c **** *  This API returns scanning sensor number when sensor scan is in progress. 
1682:.\Generated_Source\PSoC4/CapSense.c **** *  When sensor scan is completed the API returns 
1683:.\Generated_Source\PSoC4/CapSense.c **** *  $INSTANCE_NAME`_NOT_SENSOR (0xFFFFFFFF) (when no sensor is scanned).
1684:.\Generated_Source\PSoC4/CapSense.c **** *
1685:.\Generated_Source\PSoC4/CapSense.c **** * Parameters:
1686:.\Generated_Source\PSoC4/CapSense.c **** *	None.
1687:.\Generated_Source\PSoC4/CapSense.c **** *
1688:.\Generated_Source\PSoC4/CapSense.c **** * Return:
1689:.\Generated_Source\PSoC4/CapSense.c **** *  Returns Sensor number if sensor is being scanned and 
1690:.\Generated_Source\PSoC4/CapSense.c **** *  $INSTANCE_NAME`_NOT_SENSOR (0xFFFFFFFF) if scanning is complete.
1691:.\Generated_Source\PSoC4/CapSense.c **** *
1692:.\Generated_Source\PSoC4/CapSense.c **** * Global Variables:
ARM GAS  C:\Users\kevin\AppData\Local\Temp\ccEmeqeI.s 			page 53


1693:.\Generated_Source\PSoC4/CapSense.c **** *  CapSense_sensorIndex - the sensor number is being scanned.
1694:.\Generated_Source\PSoC4/CapSense.c **** *
1695:.\Generated_Source\PSoC4/CapSense.c **** * Side Effects: 
1696:.\Generated_Source\PSoC4/CapSense.c **** *  None
1697:.\Generated_Source\PSoC4/CapSense.c **** *
1698:.\Generated_Source\PSoC4/CapSense.c **** *******************************************************************************/
1699:.\Generated_Source\PSoC4/CapSense.c **** uint32 CapSense_ReadCurrentScanningSensor(void)
1700:.\Generated_Source\PSoC4/CapSense.c **** {
 1143              		.loc 1 1700 0
 1144              		.cfi_startproc
1701:.\Generated_Source\PSoC4/CapSense.c ****     return ((uint32)(( 0u != (CapSense_csdStatusVar & CapSense_SW_STS_BUSY)) ? 
 1145              		.loc 1 1701 0
 1146 0000 044B     		ldr	r3, .L60
 1147 0002 1A78     		ldrb	r2, [r3]
 1148 0004 D107     		lsl	r1, r2, #31
 1149 0006 02D5     		bpl	.L58
 1150              		.loc 1 1701 0 is_stmt 0 discriminator 1
 1151 0008 187A     		ldrb	r0, [r3, #8]
 1152 000a C0B2     		uxtb	r0, r0
 1153 000c 01E0     		b	.L57
 1154              	.L58:
 1155              		.loc 1 1701 0
 1156 000e 0120     		mov	r0, #1
 1157 0010 4042     		neg	r0, r0
 1158              	.L57:
1702:.\Generated_Source\PSoC4/CapSense.c ****                      CapSense_sensorIndex : CapSense_NOT_SENSOR));
1703:.\Generated_Source\PSoC4/CapSense.c **** }
 1159              		.loc 1 1703 0 is_stmt 1 discriminator 3
 1160              		@ sp needed
 1161 0012 7047     		bx	lr
 1162              	.L61:
 1163              		.align	2
 1164              	.L60:
 1165 0014 00000000 		.word	.LANCHOR0
 1166              		.cfi_endproc
 1167              	.LFE56:
 1168              		.size	CapSense_ReadCurrentScanningSensor, .-CapSense_ReadCurrentScanningSensor
 1169              		.section	.text.CapSense_GetBitValue,"ax",%progbits
 1170              		.align	1
 1171              		.global	CapSense_GetBitValue
 1172              		.code	16
 1173              		.thumb_func
 1174              		.type	CapSense_GetBitValue, %function
 1175              	CapSense_GetBitValue:
 1176              	.LFB57:
1704:.\Generated_Source\PSoC4/CapSense.c **** 
1705:.\Generated_Source\PSoC4/CapSense.c **** 
1706:.\Generated_Source\PSoC4/CapSense.c **** /*******************************************************************************
1707:.\Generated_Source\PSoC4/CapSense.c **** * Function Name: CapSense_GetBitValue
1708:.\Generated_Source\PSoC4/CapSense.c **** ********************************************************************************
1709:.\Generated_Source\PSoC4/CapSense.c **** *
1710:.\Generated_Source\PSoC4/CapSense.c **** * Summary:
1711:.\Generated_Source\PSoC4/CapSense.c **** *  The API returns a bit status of the bit in the table array which contains the masks.
1712:.\Generated_Source\PSoC4/CapSense.c **** * 
1713:.\Generated_Source\PSoC4/CapSense.c **** * Parameters:
1714:.\Generated_Source\PSoC4/CapSense.c **** *  table[] - array with bit masks.
1715:.\Generated_Source\PSoC4/CapSense.c **** *  position - position of bit in the table[] array.
ARM GAS  C:\Users\kevin\AppData\Local\Temp\ccEmeqeI.s 			page 54


1716:.\Generated_Source\PSoC4/CapSense.c **** *
1717:.\Generated_Source\PSoC4/CapSense.c **** * Return:
1718:.\Generated_Source\PSoC4/CapSense.c **** *  0 - bit is not set; 1 - bit is set.
1719:.\Generated_Source\PSoC4/CapSense.c **** *
1720:.\Generated_Source\PSoC4/CapSense.c **** * Global Variables:
1721:.\Generated_Source\PSoC4/CapSense.c **** *  None
1722:.\Generated_Source\PSoC4/CapSense.c **** *
1723:.\Generated_Source\PSoC4/CapSense.c **** * Side Effects:
1724:.\Generated_Source\PSoC4/CapSense.c **** *  None
1725:.\Generated_Source\PSoC4/CapSense.c **** *
1726:.\Generated_Source\PSoC4/CapSense.c **** *******************************************************************************/
1727:.\Generated_Source\PSoC4/CapSense.c **** uint32 CapSense_GetBitValue(const uint8 table[], uint32 position)
1728:.\Generated_Source\PSoC4/CapSense.c **** {
 1177              		.loc 1 1728 0
 1178              		.cfi_startproc
 1179              	.LVL132:
1729:.\Generated_Source\PSoC4/CapSense.c ****     uint32 offset;
1730:.\Generated_Source\PSoC4/CapSense.c **** 	uint8 enMask;
1731:.\Generated_Source\PSoC4/CapSense.c **** 	
1732:.\Generated_Source\PSoC4/CapSense.c **** 	/* position is divided by 8 to calculate the element of the 
1733:.\Generated_Source\PSoC4/CapSense.c **** 	   table[] array that contains the enable bit 
1734:.\Generated_Source\PSoC4/CapSense.c **** 	   for an appropriate sensor.
1735:.\Generated_Source\PSoC4/CapSense.c **** 	*/
1736:.\Generated_Source\PSoC4/CapSense.c **** 	offset = (position >> 3u);
1737:.\Generated_Source\PSoC4/CapSense.c **** 	
1738:.\Generated_Source\PSoC4/CapSense.c **** 	/* The enMask calculation for the appropriate sensor. Operation (position & 0x07u) 
1739:.\Generated_Source\PSoC4/CapSense.c **** 	   intends to calculate the enable bit offset for the 8-bit element of the 
1740:.\Generated_Source\PSoC4/CapSense.c **** 	   table[] array.
1741:.\Generated_Source\PSoC4/CapSense.c **** 	*/
1742:.\Generated_Source\PSoC4/CapSense.c **** 	enMask = 0x01u << (position & 0x07u);
 1180              		.loc 1 1742 0
 1181 0000 0723     		mov	r3, #7
 1182 0002 0B40     		and	r3, r1
1736:.\Generated_Source\PSoC4/CapSense.c **** 	offset = (position >> 3u);
 1183              		.loc 1 1736 0
 1184 0004 C908     		lsr	r1, r1, #3
 1185              	.LVL133:
1743:.\Generated_Source\PSoC4/CapSense.c ****     
1744:.\Generated_Source\PSoC4/CapSense.c ****     return ((0u !=(table[offset] & enMask)) ? 1Lu : 0Lu);
 1186              		.loc 1 1744 0
 1187 0006 405C     		ldrb	r0, [r0, r1]
 1188              	.LVL134:
1742:.\Generated_Source\PSoC4/CapSense.c **** 	enMask = 0x01u << (position & 0x07u);
 1189              		.loc 1 1742 0
 1190 0008 0122     		mov	r2, #1
 1191 000a 9A40     		lsl	r2, r2, r3
 1192              		.loc 1 1744 0
 1193 000c 1040     		and	r0, r2
 1194 000e 431E     		sub	r3, r0, #1
 1195 0010 9841     		sbc	r0, r0, r3
1745:.\Generated_Source\PSoC4/CapSense.c **** }
 1196              		.loc 1 1745 0
 1197              		@ sp needed
 1198 0012 7047     		bx	lr
 1199              		.cfi_endproc
 1200              	.LFE57:
 1201              		.size	CapSense_GetBitValue, .-CapSense_GetBitValue
ARM GAS  C:\Users\kevin\AppData\Local\Temp\ccEmeqeI.s 			page 55


 1202              		.section	.text.CapSense_FindNextSensor,"ax",%progbits
 1203              		.align	1
 1204              		.global	CapSense_FindNextSensor
 1205              		.code	16
 1206              		.thumb_func
 1207              		.type	CapSense_FindNextSensor, %function
 1208              	CapSense_FindNextSensor:
 1209              	.LFB38:
 521:.\Generated_Source\PSoC4/CapSense.c **** {
 1210              		.loc 1 521 0
 1211              		.cfi_startproc
 1212              	.LVL135:
 1213 0000 10B5     		push	{r4, lr}
 1214              		.cfi_def_cfa_offset 8
 1215              		.cfi_offset 4, -8
 1216              		.cfi_offset 14, -4
 1217 0002 041C     		mov	r4, r0
 1218              	.LVL136:
 1219              	.L65:
 528:.\Generated_Source\PSoC4/CapSense.c ****         snsIndex++;
 1220              		.loc 1 528 0
 1221 0004 0134     		add	r4, r4, #1
 1222              	.LVL137:
 1223 0006 E4B2     		uxtb	r4, r4
 1224              	.LVL138:
 529:.\Generated_Source\PSoC4/CapSense.c ****         if(snsIndex == CapSense_TOTAL_SENSOR_COUNT)
 1225              		.loc 1 529 0
 1226 0008 032C     		cmp	r4, #3
 1227 000a 06D0     		beq	.L64
 533:.\Generated_Source\PSoC4/CapSense.c ****         enableFlag = CapSense_GetBitValue(CapSense_sensorEnableMask, (uint32)snsIndex);
 1228              		.loc 1 533 0
 1229 000c 0448     		ldr	r0, .L69
 1230 000e 211C     		mov	r1, r4
 1231 0010 0630     		add	r0, r0, #6
 1232 0012 FFF7FEFF 		bl	CapSense_GetBitValue
 1233              	.LVL139:
 535:.\Generated_Source\PSoC4/CapSense.c ****     while(enableFlag == 0u);
 1234              		.loc 1 535 0
 1235 0016 0028     		cmp	r0, #0
 1236 0018 F4D0     		beq	.L65
 1237              	.LVL140:
 1238              	.L64:
 538:.\Generated_Source\PSoC4/CapSense.c **** }
 1239              		.loc 1 538 0
 1240 001a 201C     		mov	r0, r4
 1241              		@ sp needed
 1242              	.LVL141:
 1243 001c 10BD     		pop	{r4, pc}
 1244              	.L70:
 1245 001e C046     		.align	2
 1246              	.L69:
 1247 0020 00000000 		.word	.LANCHOR2
 1248              		.cfi_endproc
 1249              	.LFE38:
 1250              		.size	CapSense_FindNextSensor, .-CapSense_FindNextSensor
 1251              		.section	.text.CapSense_ScanEnabledWidgets,"ax",%progbits
 1252              		.align	1
ARM GAS  C:\Users\kevin\AppData\Local\Temp\ccEmeqeI.s 			page 56


 1253              		.global	CapSense_ScanEnabledWidgets
 1254              		.code	16
 1255              		.thumb_func
 1256              		.type	CapSense_ScanEnabledWidgets, %function
 1257              	CapSense_ScanEnabledWidgets:
 1258              	.LFB41:
 693:.\Generated_Source\PSoC4/CapSense.c **** {
 1259              		.loc 1 693 0
 1260              		.cfi_startproc
 1261 0000 10B5     		push	{r4, lr}
 1262              		.cfi_def_cfa_offset 8
 1263              		.cfi_offset 4, -8
 1264              		.cfi_offset 14, -4
 695:.\Generated_Source\PSoC4/CapSense.c ****     CapSense_csdStatusVar = 0u;
 1265              		.loc 1 695 0
 1266 0002 0B4C     		ldr	r4, .L73
 1267 0004 0023     		mov	r3, #0
 1268 0006 2370     		strb	r3, [r4]
 696:.\Generated_Source\PSoC4/CapSense.c ****     CapSense_sensorIndex = 0xFFu;
 1269              		.loc 1 696 0
 1270 0008 FF23     		mov	r3, #255
 1271 000a 2372     		strb	r3, [r4, #8]
 699:.\Generated_Source\PSoC4/CapSense.c ****     CapSense_sensorIndex = (uint8)CapSense_FindNextSensor(CapSense_sensorIndex);
 1272              		.loc 1 699 0
 1273 000c 207A     		ldrb	r0, [r4, #8]
 1274 000e C0B2     		uxtb	r0, r0
 1275 0010 FFF7FEFF 		bl	CapSense_FindNextSensor
 1276              	.LVL142:
 1277 0014 2072     		strb	r0, [r4, #8]
 702:.\Generated_Source\PSoC4/CapSense.c ****     if(CapSense_sensorIndex < CapSense_TOTAL_SENSOR_COUNT)
 1278              		.loc 1 702 0
 1279 0016 237A     		ldrb	r3, [r4, #8]
 1280 0018 022B     		cmp	r3, #2
 1281 001a 07D8     		bhi	.L71
 704:.\Generated_Source\PSoC4/CapSense.c ****         CapSense_csdStatusVar |= CapSense_SW_STS_BUSY;
 1282              		.loc 1 704 0
 1283 001c 2378     		ldrb	r3, [r4]
 1284 001e 0122     		mov	r2, #1
 1285 0020 1343     		orr	r3, r2
 1286 0022 2370     		strb	r3, [r4]
 705:.\Generated_Source\PSoC4/CapSense.c ****         CapSense_PreScan((uint32)CapSense_sensorIndex);
 1287              		.loc 1 705 0
 1288 0024 207A     		ldrb	r0, [r4, #8]
 1289 0026 C0B2     		uxtb	r0, r0
 1290 0028 FFF7FEFF 		bl	CapSense_PreScan
 1291              	.LVL143:
 1292              	.L71:
 707:.\Generated_Source\PSoC4/CapSense.c **** }
 1293              		.loc 1 707 0
 1294              		@ sp needed
 1295 002c 10BD     		pop	{r4, pc}
 1296              	.L74:
 1297 002e C046     		.align	2
 1298              	.L73:
 1299 0030 00000000 		.word	.LANCHOR0
 1300              		.cfi_endproc
 1301              	.LFE41:
ARM GAS  C:\Users\kevin\AppData\Local\Temp\ccEmeqeI.s 			page 57


 1302              		.size	CapSense_ScanEnabledWidgets, .-CapSense_ScanEnabledWidgets
 1303              		.section	.text.CapSense_SetBitValue,"ax",%progbits
 1304              		.align	1
 1305              		.global	CapSense_SetBitValue
 1306              		.code	16
 1307              		.thumb_func
 1308              		.type	CapSense_SetBitValue, %function
 1309              	CapSense_SetBitValue:
 1310              	.LFB58:
1746:.\Generated_Source\PSoC4/CapSense.c **** 
1747:.\Generated_Source\PSoC4/CapSense.c **** 
1748:.\Generated_Source\PSoC4/CapSense.c **** /*******************************************************************************
1749:.\Generated_Source\PSoC4/CapSense.c **** * Function Name: CapSense_SetBitValue
1750:.\Generated_Source\PSoC4/CapSense.c **** ********************************************************************************
1751:.\Generated_Source\PSoC4/CapSense.c **** *
1752:.\Generated_Source\PSoC4/CapSense.c **** * Summary:
1753:.\Generated_Source\PSoC4/CapSense.c **** *  The API sets a bit status of the bit in the table array which contains masks.
1754:.\Generated_Source\PSoC4/CapSense.c **** * 
1755:.\Generated_Source\PSoC4/CapSense.c **** * Parameters:
1756:.\Generated_Source\PSoC4/CapSense.c **** *  table[] - array with bit masks.
1757:.\Generated_Source\PSoC4/CapSense.c **** *  position - position of bit in the table[] array.
1758:.\Generated_Source\PSoC4/CapSense.c **** *  value: 0 - bit is not set; 1 - bit is set.
1759:.\Generated_Source\PSoC4/CapSense.c **** *
1760:.\Generated_Source\PSoC4/CapSense.c **** * Return:
1761:.\Generated_Source\PSoC4/CapSense.c **** *  None
1762:.\Generated_Source\PSoC4/CapSense.c **** *
1763:.\Generated_Source\PSoC4/CapSense.c **** * Global Variables:
1764:.\Generated_Source\PSoC4/CapSense.c **** *  None
1765:.\Generated_Source\PSoC4/CapSense.c **** *
1766:.\Generated_Source\PSoC4/CapSense.c **** * Side Effects:
1767:.\Generated_Source\PSoC4/CapSense.c **** *  None
1768:.\Generated_Source\PSoC4/CapSense.c **** *
1769:.\Generated_Source\PSoC4/CapSense.c **** *******************************************************************************/
1770:.\Generated_Source\PSoC4/CapSense.c **** void CapSense_SetBitValue(uint8 table[], uint32 position, uint32 value)
1771:.\Generated_Source\PSoC4/CapSense.c **** {
 1311              		.loc 1 1771 0
 1312              		.cfi_startproc
 1313              	.LVL144:
 1314 0000 10B5     		push	{r4, lr}
 1315              		.cfi_def_cfa_offset 8
 1316              		.cfi_offset 4, -8
 1317              		.cfi_offset 14, -4
1772:.\Generated_Source\PSoC4/CapSense.c ****     uint32 offset;
1773:.\Generated_Source\PSoC4/CapSense.c **** 	uint8 enMask;
1774:.\Generated_Source\PSoC4/CapSense.c **** 	
1775:.\Generated_Source\PSoC4/CapSense.c **** 	/* position is divided by 8 to calculate the element of the 
1776:.\Generated_Source\PSoC4/CapSense.c **** 	   table[] array that contains the enable bit 
1777:.\Generated_Source\PSoC4/CapSense.c **** 	   for an appropriate sensor.
1778:.\Generated_Source\PSoC4/CapSense.c **** 	*/
1779:.\Generated_Source\PSoC4/CapSense.c **** 	offset = (position >> 3u);
1780:.\Generated_Source\PSoC4/CapSense.c **** 	
1781:.\Generated_Source\PSoC4/CapSense.c **** 	/* The enMask calculation for the appropriate sensor. Operation (position & 0x07u) 
1782:.\Generated_Source\PSoC4/CapSense.c **** 	   intends to calculate the enable bit offset for the 8-bit element of the 
1783:.\Generated_Source\PSoC4/CapSense.c **** 	   table[] array.
1784:.\Generated_Source\PSoC4/CapSense.c **** 	*/
1785:.\Generated_Source\PSoC4/CapSense.c **** 	enMask = 0x01u << (position & 0x07u);
 1318              		.loc 1 1785 0
ARM GAS  C:\Users\kevin\AppData\Local\Temp\ccEmeqeI.s 			page 58


 1319 0002 0724     		mov	r4, #7
1779:.\Generated_Source\PSoC4/CapSense.c **** 	offset = (position >> 3u);
 1320              		.loc 1 1779 0
 1321 0004 CB08     		lsr	r3, r1, #3
 1322              	.LVL145:
 1323              		.loc 1 1785 0
 1324 0006 2140     		and	r1, r4
 1325              	.LVL146:
 1326 0008 0124     		mov	r4, #1
 1327 000a 8C40     		lsl	r4, r4, r1
 1328 000c C018     		add	r0, r0, r3
 1329              	.LVL147:
 1330 000e E1B2     		uxtb	r1, r4
 1331              	.LVL148:
1786:.\Generated_Source\PSoC4/CapSense.c **** 	
1787:.\Generated_Source\PSoC4/CapSense.c **** 	if(0u != value)
1788:.\Generated_Source\PSoC4/CapSense.c **** 	{
1789:.\Generated_Source\PSoC4/CapSense.c **** 		table[offset] |= enMask;
 1332              		.loc 1 1789 0
 1333 0010 0378     		ldrb	r3, [r0]
 1334              	.LVL149:
1787:.\Generated_Source\PSoC4/CapSense.c **** 	if(0u != value)
 1335              		.loc 1 1787 0
 1336 0012 002A     		cmp	r2, #0
 1337 0014 02D0     		beq	.L76
 1338              		.loc 1 1789 0
 1339 0016 1943     		orr	r1, r3
 1340 0018 0170     		strb	r1, [r0]
 1341 001a 01E0     		b	.L75
 1342              	.L76:
1790:.\Generated_Source\PSoC4/CapSense.c **** 	}
1791:.\Generated_Source\PSoC4/CapSense.c **** 	else
1792:.\Generated_Source\PSoC4/CapSense.c **** 	{
1793:.\Generated_Source\PSoC4/CapSense.c **** 		table[offset] &= (uint8)~(enMask);
 1343              		.loc 1 1793 0
 1344 001c 8B43     		bic	r3, r1
 1345 001e 0370     		strb	r3, [r0]
 1346              	.L75:
1794:.\Generated_Source\PSoC4/CapSense.c **** 	}
1795:.\Generated_Source\PSoC4/CapSense.c **** }
 1347              		.loc 1 1795 0
 1348              		@ sp needed
 1349              	.LVL150:
 1350 0020 10BD     		pop	{r4, pc}
 1351              		.cfi_endproc
 1352              	.LFE58:
 1353              		.size	CapSense_SetBitValue, .-CapSense_SetBitValue
 1354              		.section	.text.CapSense_ScanWidget,"ax",%progbits
 1355              		.align	1
 1356              		.global	CapSense_ScanWidget
 1357              		.code	16
 1358              		.thumb_func
 1359              		.type	CapSense_ScanWidget, %function
 1360              	CapSense_ScanWidget:
 1361              	.LFB40:
 608:.\Generated_Source\PSoC4/CapSense.c **** {
 1362              		.loc 1 608 0
ARM GAS  C:\Users\kevin\AppData\Local\Temp\ccEmeqeI.s 			page 59


 1363              		.cfi_startproc
 1364              	.LVL151:
 1365 0000 F8B5     		push	{r3, r4, r5, r6, r7, lr}
 1366              		.cfi_def_cfa_offset 24
 1367              		.cfi_offset 3, -24
 1368              		.cfi_offset 4, -20
 1369              		.cfi_offset 5, -16
 1370              		.cfi_offset 6, -12
 1371              		.cfi_offset 7, -8
 1372              		.cfi_offset 14, -4
 614:.\Generated_Source\PSoC4/CapSense.c **** 	CapSense_sensorIndex = CapSense_rawDataIndex[widget];
 1373              		.loc 1 614 0
 1374 0002 144B     		ldr	r3, .L87
 1375 0004 144D     		ldr	r5, .L87+4
 1376 0006 1F5C     		ldrb	r7, [r3, r0]
 617:.\Generated_Source\PSoC4/CapSense.c **** 	sensorsPerWidget = CapSense_numberOfSensors[widget];
 1377              		.loc 1 617 0
 1378 0008 144B     		ldr	r3, .L87+8
 614:.\Generated_Source\PSoC4/CapSense.c **** 	CapSense_sensorIndex = CapSense_rawDataIndex[widget];
 1379              		.loc 1 614 0
 1380 000a 2F72     		strb	r7, [r5, #8]
 617:.\Generated_Source\PSoC4/CapSense.c **** 	sensorsPerWidget = CapSense_numberOfSensors[widget];
 1381              		.loc 1 617 0
 1382 000c 1B5C     		ldrb	r3, [r3, r0]
 1383              	.LVL152:
 620:.\Generated_Source\PSoC4/CapSense.c **** 	if(sensorsPerWidget == 0u)
 1384              		.loc 1 620 0
 1385 000e 002B     		cmp	r3, #0
 1386 0010 00D1     		bne	.L79
 622:.\Generated_Source\PSoC4/CapSense.c **** 		sensorsPerWidget = 1u;
 1387              		.loc 1 622 0
 1388 0012 0123     		mov	r3, #1
 1389              	.LVL153:
 1390              	.L79:
 632:.\Generated_Source\PSoC4/CapSense.c **** 		CapSense_sensorEnableMaskBackup[snsIndex] = CapSense_sensorEnableMask[snsIndex];
 1391              		.loc 1 632 0
 1392 0014 124E     		ldr	r6, .L87+12
 626:.\Generated_Source\PSoC4/CapSense.c **** 	lastSensor = (CapSense_rawDataIndex[widget] + sensorsPerWidget) - 1u;
 1393              		.loc 1 626 0
 1394 0016 013F     		sub	r7, r7, #1
 1395 0018 FF18     		add	r7, r7, r3
 1396              	.LVL154:
 632:.\Generated_Source\PSoC4/CapSense.c **** 		CapSense_sensorEnableMaskBackup[snsIndex] = CapSense_sensorEnableMask[snsIndex];
 1397              		.loc 1 632 0
 1398 001a B279     		ldrb	r2, [r6, #6]
 1399 001c 114B     		ldr	r3, .L87+16
 1400              	.LVL155:
 1401 001e 0024     		mov	r4, #0
 1402 0020 1A70     		strb	r2, [r3]
 1403              	.LVL156:
 1404              	.L83:
 639:.\Generated_Source\PSoC4/CapSense.c **** 	    if((snsIndex >= CapSense_sensorIndex) && (snsIndex <= lastSensor))
 1405              		.loc 1 639 0
 1406 0022 2B7A     		ldrb	r3, [r5, #8]
 642:.\Generated_Source\PSoC4/CapSense.c **** 			CapSense_SetBitValue(CapSense_sensorEnableMask, snsIndex, 1u);
 1407              		.loc 1 642 0
 1408 0024 B01D     		add	r0, r6, #6
ARM GAS  C:\Users\kevin\AppData\Local\Temp\ccEmeqeI.s 			page 60


 1409 0026 211E     		sub	r1, r4, #0
 639:.\Generated_Source\PSoC4/CapSense.c **** 	    if((snsIndex >= CapSense_sensorIndex) && (snsIndex <= lastSensor))
 1410              		.loc 1 639 0
 1411 0028 9942     		cmp	r1, r3
 1412 002a 02D3     		bcc	.L80
 642:.\Generated_Source\PSoC4/CapSense.c **** 			CapSense_SetBitValue(CapSense_sensorEnableMask, snsIndex, 1u);
 1413              		.loc 1 642 0 discriminator 1
 1414 002c 0122     		mov	r2, #1
 639:.\Generated_Source\PSoC4/CapSense.c **** 	    if((snsIndex >= CapSense_sensorIndex) && (snsIndex <= lastSensor))
 1415              		.loc 1 639 0 discriminator 1
 1416 002e BC42     		cmp	r4, r7
 1417 0030 00D9     		bls	.L86
 1418              	.L80:
 647:.\Generated_Source\PSoC4/CapSense.c **** 		    CapSense_SetBitValue(CapSense_sensorEnableMask, snsIndex, 0u);
 1419              		.loc 1 647 0
 1420 0032 0022     		mov	r2, #0
 1421              	.L86:
 636:.\Generated_Source\PSoC4/CapSense.c **** 	for(snsIndex = 0u; snsIndex < CapSense_TOTAL_SENSOR_COUNT; snsIndex++)
 1422              		.loc 1 636 0
 1423 0034 0134     		add	r4, r4, #1
 1424              	.LVL157:
 647:.\Generated_Source\PSoC4/CapSense.c **** 		    CapSense_SetBitValue(CapSense_sensorEnableMask, snsIndex, 0u);
 1425              		.loc 1 647 0
 1426 0036 FFF7FEFF 		bl	CapSense_SetBitValue
 1427              	.LVL158:
 636:.\Generated_Source\PSoC4/CapSense.c **** 	for(snsIndex = 0u; snsIndex < CapSense_TOTAL_SENSOR_COUNT; snsIndex++)
 1428              		.loc 1 636 0
 1429 003a 032C     		cmp	r4, #3
 1430 003c F1D1     		bne	.L83
 652:.\Generated_Source\PSoC4/CapSense.c ****     if(CapSense_sensorIndex < CapSense_TOTAL_SENSOR_COUNT)
 1431              		.loc 1 652 0
 1432 003e 2B7A     		ldrb	r3, [r5, #8]
 1433 0040 022B     		cmp	r3, #2
 1434 0042 05D8     		bhi	.L78
 655:.\Generated_Source\PSoC4/CapSense.c **** 		CapSense_csdStatusVar = (CapSense_SW_STS_BUSY | CapSense_SW_CTRL_WIDGET_SCAN);
 1435              		.loc 1 655 0
 1436 0044 4123     		mov	r3, #65
 1437 0046 2B70     		strb	r3, [r5]
 657:.\Generated_Source\PSoC4/CapSense.c ****         CapSense_PreScan((uint32)CapSense_sensorIndex);
 1438              		.loc 1 657 0
 1439 0048 287A     		ldrb	r0, [r5, #8]
 1440 004a C0B2     		uxtb	r0, r0
 1441 004c FFF7FEFF 		bl	CapSense_PreScan
 1442              	.LVL159:
 1443              	.L78:
 659:.\Generated_Source\PSoC4/CapSense.c **** }
 1444              		.loc 1 659 0
 1445              		@ sp needed
 1446              	.LVL160:
 1447              	.LVL161:
 1448 0050 F8BD     		pop	{r3, r4, r5, r6, r7, pc}
 1449              	.L88:
 1450 0052 C046     		.align	2
 1451              	.L87:
 1452 0054 00000000 		.word	CapSense_rawDataIndex
 1453 0058 00000000 		.word	.LANCHOR0
 1454 005c 00000000 		.word	CapSense_numberOfSensors
ARM GAS  C:\Users\kevin\AppData\Local\Temp\ccEmeqeI.s 			page 61


 1455 0060 00000000 		.word	.LANCHOR2
 1456 0064 00000000 		.word	CapSense_sensorEnableMaskBackup
 1457              		.cfi_endproc
 1458              	.LFE40:
 1459              		.size	CapSense_ScanWidget, .-CapSense_ScanWidget
 1460              		.section	.text.CapSense_GetSenseClkDivider,"ax",%progbits
 1461              		.align	1
 1462              		.global	CapSense_GetSenseClkDivider
 1463              		.code	16
 1464              		.thumb_func
 1465              		.type	CapSense_GetSenseClkDivider, %function
 1466              	CapSense_GetSenseClkDivider:
 1467              	.LFB59:
1796:.\Generated_Source\PSoC4/CapSense.c **** 
1797:.\Generated_Source\PSoC4/CapSense.c **** 
1798:.\Generated_Source\PSoC4/CapSense.c **** 
1799:.\Generated_Source\PSoC4/CapSense.c **** /*******************************************************************************
1800:.\Generated_Source\PSoC4/CapSense.c **** * Function Name: CapSense_GetSenseClkDivider
1801:.\Generated_Source\PSoC4/CapSense.c **** ********************************************************************************
1802:.\Generated_Source\PSoC4/CapSense.c **** *
1803:.\Generated_Source\PSoC4/CapSense.c **** * Summary:
1804:.\Generated_Source\PSoC4/CapSense.c **** *  This API returns a value of the sense clock divider for the  sensor.
1805:.\Generated_Source\PSoC4/CapSense.c **** *
1806:.\Generated_Source\PSoC4/CapSense.c **** * Parameters:
1807:.\Generated_Source\PSoC4/CapSense.c **** *  sensor: sensor index. The index value can be 
1808:.\Generated_Source\PSoC4/CapSense.c **** *  from 0 to (CapSense_TOTAL_SENSOR_COUNT-1).
1809:.\Generated_Source\PSoC4/CapSense.c **** *
1810:.\Generated_Source\PSoC4/CapSense.c **** * Return:
1811:.\Generated_Source\PSoC4/CapSense.c **** *  This API returns the sense clock divider of the sensor. 
1812:.\Generated_Source\PSoC4/CapSense.c **** *
1813:.\Generated_Source\PSoC4/CapSense.c **** * Global Variables:
1814:.\Generated_Source\PSoC4/CapSense.c **** *  CapSense_senseClkDividerVal[] - stores the sense clock divider values.
1815:.\Generated_Source\PSoC4/CapSense.c **** * 
1816:.\Generated_Source\PSoC4/CapSense.c **** * Side Effects:
1817:.\Generated_Source\PSoC4/CapSense.c **** *  None
1818:.\Generated_Source\PSoC4/CapSense.c **** *
1819:.\Generated_Source\PSoC4/CapSense.c **** *******************************************************************************/
1820:.\Generated_Source\PSoC4/CapSense.c **** uint32 CapSense_GetSenseClkDivider(uint32 sensor)
1821:.\Generated_Source\PSoC4/CapSense.c **** {
 1468              		.loc 1 1821 0
 1469              		.cfi_startproc
 1470              	.LVL162:
1822:.\Generated_Source\PSoC4/CapSense.c **** 	#if(0u != CapSense_MULTIPLE_FREQUENCY_SET)
1823:.\Generated_Source\PSoC4/CapSense.c **** 		return((uint32)CapSense_senseClkDividerVal[sensor]);
 1471              		.loc 1 1823 0
 1472 0000 014B     		ldr	r3, .L90
1824:.\Generated_Source\PSoC4/CapSense.c **** 	#else
1825:.\Generated_Source\PSoC4/CapSense.c **** 		return((uint32)CapSense_senseClkDividerVal);
1826:.\Generated_Source\PSoC4/CapSense.c **** 	#endif /* (0u != CapSense_MULTIPLE_FREQUENCY_SET) */
1827:.\Generated_Source\PSoC4/CapSense.c **** }
 1473              		.loc 1 1827 0
 1474              		@ sp needed
1823:.\Generated_Source\PSoC4/CapSense.c **** 		return((uint32)CapSense_senseClkDividerVal[sensor]);
 1475              		.loc 1 1823 0
 1476 0002 5633     		add	r3, r3, #86
 1477 0004 185C     		ldrb	r0, [r3, r0]
 1478              	.LVL163:
ARM GAS  C:\Users\kevin\AppData\Local\Temp\ccEmeqeI.s 			page 62


 1479              		.loc 1 1827 0
 1480 0006 7047     		bx	lr
 1481              	.L91:
 1482              		.align	2
 1483              	.L90:
 1484 0008 00000000 		.word	.LANCHOR1
 1485              		.cfi_endproc
 1486              	.LFE59:
 1487              		.size	CapSense_GetSenseClkDivider, .-CapSense_GetSenseClkDivider
 1488              		.section	.text.CapSense_GetModulatorClkDivider,"ax",%progbits
 1489              		.align	1
 1490              		.global	CapSense_GetModulatorClkDivider
 1491              		.code	16
 1492              		.thumb_func
 1493              		.type	CapSense_GetModulatorClkDivider, %function
 1494              	CapSense_GetModulatorClkDivider:
 1495              	.LFB60:
1828:.\Generated_Source\PSoC4/CapSense.c **** 
1829:.\Generated_Source\PSoC4/CapSense.c **** #if (CapSense_TUNING_METHOD != CapSense__TUNING_NONE)
1830:.\Generated_Source\PSoC4/CapSense.c **** 	/*******************************************************************************
1831:.\Generated_Source\PSoC4/CapSense.c **** 	* Function Name: CapSense_SetSenseClkDivider
1832:.\Generated_Source\PSoC4/CapSense.c **** 	********************************************************************************
1833:.\Generated_Source\PSoC4/CapSense.c **** 	*
1834:.\Generated_Source\PSoC4/CapSense.c **** 	* Summary:
1835:.\Generated_Source\PSoC4/CapSense.c **** 	*  This API sets a value of the sense clock divider for the  sensor. 
1836:.\Generated_Source\PSoC4/CapSense.c **** 	*
1837:.\Generated_Source\PSoC4/CapSense.c **** 	* Parameters:
1838:.\Generated_Source\PSoC4/CapSense.c **** 	*  sensor:  Sensor index.
1839:.\Generated_Source\PSoC4/CapSense.c **** 	*  senseClk: represents the sense clock value.
1840:.\Generated_Source\PSoC4/CapSense.c **** 	*
1841:.\Generated_Source\PSoC4/CapSense.c **** 	* Return:
1842:.\Generated_Source\PSoC4/CapSense.c **** 	*  None.
1843:.\Generated_Source\PSoC4/CapSense.c **** 	*
1844:.\Generated_Source\PSoC4/CapSense.c **** 	* Global Variables:
1845:.\Generated_Source\PSoC4/CapSense.c **** 	*  CapSense_senseClkDividerVal[] - stores the sense clock divider values.
1846:.\Generated_Source\PSoC4/CapSense.c **** 	* 
1847:.\Generated_Source\PSoC4/CapSense.c **** 	* Side Effects:
1848:.\Generated_Source\PSoC4/CapSense.c **** 	*  None
1849:.\Generated_Source\PSoC4/CapSense.c **** 	*
1850:.\Generated_Source\PSoC4/CapSense.c **** 	*******************************************************************************/
1851:.\Generated_Source\PSoC4/CapSense.c **** 	void CapSense_SetSenseClkDivider(uint32 sensor, uint32 senseClk)
1852:.\Generated_Source\PSoC4/CapSense.c **** 	{
1853:.\Generated_Source\PSoC4/CapSense.c **** 		#if(0u != CapSense_MULTIPLE_FREQUENCY_SET)
1854:.\Generated_Source\PSoC4/CapSense.c **** 			CapSense_senseClkDividerVal[sensor] = (uint8)senseClk;
1855:.\Generated_Source\PSoC4/CapSense.c **** 		#else
1856:.\Generated_Source\PSoC4/CapSense.c **** 			CapSense_senseClkDividerVal = (uint8)senseClk;
1857:.\Generated_Source\PSoC4/CapSense.c **** 		#endif /* (0u != CapSense_MULTIPLE_FREQUENCY_SET) */
1858:.\Generated_Source\PSoC4/CapSense.c **** 	}
1859:.\Generated_Source\PSoC4/CapSense.c **** #endif /* (CapSense_TUNING_METHOD != CapSense__TUNING_NONE) */
1860:.\Generated_Source\PSoC4/CapSense.c **** 
1861:.\Generated_Source\PSoC4/CapSense.c **** 
1862:.\Generated_Source\PSoC4/CapSense.c **** /*******************************************************************************
1863:.\Generated_Source\PSoC4/CapSense.c **** * Function Name: CapSense_GetModulatorClkDivider
1864:.\Generated_Source\PSoC4/CapSense.c **** ********************************************************************************
1865:.\Generated_Source\PSoC4/CapSense.c **** *
1866:.\Generated_Source\PSoC4/CapSense.c **** * Summary:
1867:.\Generated_Source\PSoC4/CapSense.c **** *  This API returns a value of the modulator sample clock divider for the  sensor.
ARM GAS  C:\Users\kevin\AppData\Local\Temp\ccEmeqeI.s 			page 63


1868:.\Generated_Source\PSoC4/CapSense.c **** *
1869:.\Generated_Source\PSoC4/CapSense.c **** * Parameters:
1870:.\Generated_Source\PSoC4/CapSense.c **** *  sensor: sensor index. The value of index can be 
1871:.\Generated_Source\PSoC4/CapSense.c **** *  from 0 to (CapSense_TOTAL_SENSOR_COUNT-1).
1872:.\Generated_Source\PSoC4/CapSense.c **** *
1873:.\Generated_Source\PSoC4/CapSense.c **** * Return:
1874:.\Generated_Source\PSoC4/CapSense.c **** *  This API returns the modulator sample clock divider for the  sensor.
1875:.\Generated_Source\PSoC4/CapSense.c **** *
1876:.\Generated_Source\PSoC4/CapSense.c **** * Global Variables:
1877:.\Generated_Source\PSoC4/CapSense.c **** *  CapSense_sampleClkDividerVal[] - stores the modulator sample divider values.
1878:.\Generated_Source\PSoC4/CapSense.c **** * 
1879:.\Generated_Source\PSoC4/CapSense.c **** * Side Effects:
1880:.\Generated_Source\PSoC4/CapSense.c **** *  None
1881:.\Generated_Source\PSoC4/CapSense.c **** *
1882:.\Generated_Source\PSoC4/CapSense.c **** *******************************************************************************/
1883:.\Generated_Source\PSoC4/CapSense.c **** uint32 CapSense_GetModulatorClkDivider(uint32 sensor)
1884:.\Generated_Source\PSoC4/CapSense.c **** {
 1496              		.loc 1 1884 0
 1497              		.cfi_startproc
 1498              	.LVL164:
1885:.\Generated_Source\PSoC4/CapSense.c **** 	#if(0u != CapSense_MULTIPLE_FREQUENCY_SET)
1886:.\Generated_Source\PSoC4/CapSense.c **** 		return((uint32)CapSense_sampleClkDividerVal[sensor]);
 1499              		.loc 1 1886 0
 1500 0000 014B     		ldr	r3, .L93
1887:.\Generated_Source\PSoC4/CapSense.c **** 	#else
1888:.\Generated_Source\PSoC4/CapSense.c **** 		return((uint32)CapSense_sampleClkDividerVal);
1889:.\Generated_Source\PSoC4/CapSense.c **** 	#endif /* (0u != CapSense_MULTIPLE_FREQUENCY_SET) */
1890:.\Generated_Source\PSoC4/CapSense.c **** }
 1501              		.loc 1 1890 0
 1502              		@ sp needed
1886:.\Generated_Source\PSoC4/CapSense.c **** 		return((uint32)CapSense_sampleClkDividerVal[sensor]);
 1503              		.loc 1 1886 0
 1504 0002 5333     		add	r3, r3, #83
 1505 0004 185C     		ldrb	r0, [r3, r0]
 1506              	.LVL165:
 1507              		.loc 1 1890 0
 1508 0006 7047     		bx	lr
 1509              	.L94:
 1510              		.align	2
 1511              	.L93:
 1512 0008 00000000 		.word	.LANCHOR1
 1513              		.cfi_endproc
 1514              	.LFE60:
 1515              		.size	CapSense_GetModulatorClkDivider, .-CapSense_GetModulatorClkDivider
 1516              		.section	.text.CapSense_GetModulationIDAC,"ax",%progbits
 1517              		.align	1
 1518              		.global	CapSense_GetModulationIDAC
 1519              		.code	16
 1520              		.thumb_func
 1521              		.type	CapSense_GetModulationIDAC, %function
 1522              	CapSense_GetModulationIDAC:
 1523              	.LFB61:
1891:.\Generated_Source\PSoC4/CapSense.c **** 
1892:.\Generated_Source\PSoC4/CapSense.c **** #if (CapSense_TUNING_METHOD != CapSense__TUNING_NONE)
1893:.\Generated_Source\PSoC4/CapSense.c **** 	/*******************************************************************************
1894:.\Generated_Source\PSoC4/CapSense.c **** 	* Function Name: CapSense_SetModulatorClkDivider
1895:.\Generated_Source\PSoC4/CapSense.c **** 	********************************************************************************
ARM GAS  C:\Users\kevin\AppData\Local\Temp\ccEmeqeI.s 			page 64


1896:.\Generated_Source\PSoC4/CapSense.c **** 	*
1897:.\Generated_Source\PSoC4/CapSense.c **** 	* Summary:
1898:.\Generated_Source\PSoC4/CapSense.c **** 	*  This API sets a value of the modulator sample clock divider for the  sensor.
1899:.\Generated_Source\PSoC4/CapSense.c **** 	*
1900:.\Generated_Source\PSoC4/CapSense.c **** 	* Parameters:
1901:.\Generated_Source\PSoC4/CapSense.c **** 	*  sensor:  Sensor index.
1902:.\Generated_Source\PSoC4/CapSense.c **** 	*  modulatorClk: represents the modulator sample clock value.
1903:.\Generated_Source\PSoC4/CapSense.c **** 	*
1904:.\Generated_Source\PSoC4/CapSense.c **** 	* Return:
1905:.\Generated_Source\PSoC4/CapSense.c **** 	*  None.
1906:.\Generated_Source\PSoC4/CapSense.c **** 	*
1907:.\Generated_Source\PSoC4/CapSense.c **** 	* Global Variables:
1908:.\Generated_Source\PSoC4/CapSense.c **** 	*  CapSense_sampleClkDividerVal[] - stores the modulator sample divider values.
1909:.\Generated_Source\PSoC4/CapSense.c **** 	* 
1910:.\Generated_Source\PSoC4/CapSense.c **** 	* Side Effects:
1911:.\Generated_Source\PSoC4/CapSense.c **** 	*  None
1912:.\Generated_Source\PSoC4/CapSense.c **** 	*
1913:.\Generated_Source\PSoC4/CapSense.c **** 	*******************************************************************************/
1914:.\Generated_Source\PSoC4/CapSense.c **** 	void CapSense_SetModulatorClkDivider(uint32 sensor, uint32 modulatorClk)
1915:.\Generated_Source\PSoC4/CapSense.c **** 	{
1916:.\Generated_Source\PSoC4/CapSense.c **** 		#if(0u != CapSense_MULTIPLE_FREQUENCY_SET)
1917:.\Generated_Source\PSoC4/CapSense.c **** 			CapSense_sampleClkDividerVal[sensor] = (uint8)modulatorClk;
1918:.\Generated_Source\PSoC4/CapSense.c **** 		#else
1919:.\Generated_Source\PSoC4/CapSense.c **** 			CapSense_sampleClkDividerVal = (uint8)modulatorClk;
1920:.\Generated_Source\PSoC4/CapSense.c **** 		#endif /* (0u != CapSense_MULTIPLE_FREQUENCY_SET) */
1921:.\Generated_Source\PSoC4/CapSense.c **** 	}
1922:.\Generated_Source\PSoC4/CapSense.c **** #endif /* (CapSense_TUNING_METHOD != CapSense__TUNING_NONE) */
1923:.\Generated_Source\PSoC4/CapSense.c **** 
1924:.\Generated_Source\PSoC4/CapSense.c **** /*******************************************************************************
1925:.\Generated_Source\PSoC4/CapSense.c **** * Function Name: CapSense_GetModulationIDAC
1926:.\Generated_Source\PSoC4/CapSense.c **** ********************************************************************************
1927:.\Generated_Source\PSoC4/CapSense.c **** *
1928:.\Generated_Source\PSoC4/CapSense.c **** * Summary:
1929:.\Generated_Source\PSoC4/CapSense.c **** *  This API returns a value of the modulation IDAC for the  sensor.
1930:.\Generated_Source\PSoC4/CapSense.c **** *
1931:.\Generated_Source\PSoC4/CapSense.c **** * Parameters:
1932:.\Generated_Source\PSoC4/CapSense.c **** *  sensor: sensor index. The index value can be 
1933:.\Generated_Source\PSoC4/CapSense.c **** *  from 0 to (CapSense_TOTAL_SENSOR_COUNT-1).
1934:.\Generated_Source\PSoC4/CapSense.c **** *
1935:.\Generated_Source\PSoC4/CapSense.c **** * Return:
1936:.\Generated_Source\PSoC4/CapSense.c **** *  This API returns the modulation IDAC of the sensor. 
1937:.\Generated_Source\PSoC4/CapSense.c **** *
1938:.\Generated_Source\PSoC4/CapSense.c **** * Global Variables:
1939:.\Generated_Source\PSoC4/CapSense.c **** *  CapSense_modulationIDAC[] - stores modulation IDAC values.
1940:.\Generated_Source\PSoC4/CapSense.c **** * 
1941:.\Generated_Source\PSoC4/CapSense.c **** * Side Effects:
1942:.\Generated_Source\PSoC4/CapSense.c **** *  None
1943:.\Generated_Source\PSoC4/CapSense.c **** *
1944:.\Generated_Source\PSoC4/CapSense.c **** *******************************************************************************/
1945:.\Generated_Source\PSoC4/CapSense.c **** uint32 CapSense_GetModulationIDAC(uint32 sensor)
1946:.\Generated_Source\PSoC4/CapSense.c **** {
 1524              		.loc 1 1946 0
 1525              		.cfi_startproc
 1526              	.LVL166:
1947:.\Generated_Source\PSoC4/CapSense.c **** 		return((uint32)CapSense_modulationIDAC[sensor]);
 1527              		.loc 1 1947 0
 1528 0000 014B     		ldr	r3, .L96
ARM GAS  C:\Users\kevin\AppData\Local\Temp\ccEmeqeI.s 			page 65


1948:.\Generated_Source\PSoC4/CapSense.c **** }
 1529              		.loc 1 1948 0
 1530              		@ sp needed
1947:.\Generated_Source\PSoC4/CapSense.c **** 		return((uint32)CapSense_modulationIDAC[sensor]);
 1531              		.loc 1 1947 0
 1532 0002 185C     		ldrb	r0, [r3, r0]
 1533              	.LVL167:
 1534              		.loc 1 1948 0
 1535 0004 7047     		bx	lr
 1536              	.L97:
 1537 0006 C046     		.align	2
 1538              	.L96:
 1539 0008 00000000 		.word	.LANCHOR2
 1540              		.cfi_endproc
 1541              	.LFE61:
 1542              		.size	CapSense_GetModulationIDAC, .-CapSense_GetModulationIDAC
 1543              		.section	.text.CapSense_GetCompensationIDAC,"ax",%progbits
 1544              		.align	1
 1545              		.global	CapSense_GetCompensationIDAC
 1546              		.code	16
 1547              		.thumb_func
 1548              		.type	CapSense_GetCompensationIDAC, %function
 1549              	CapSense_GetCompensationIDAC:
 1550              	.LFB62:
1949:.\Generated_Source\PSoC4/CapSense.c **** 
1950:.\Generated_Source\PSoC4/CapSense.c **** #if (CapSense_TUNING_METHOD != CapSense__TUNING_NONE)
1951:.\Generated_Source\PSoC4/CapSense.c **** 	/*******************************************************************************
1952:.\Generated_Source\PSoC4/CapSense.c **** 	* Function Name: CapSense_SetModulationIDAC
1953:.\Generated_Source\PSoC4/CapSense.c **** 	********************************************************************************
1954:.\Generated_Source\PSoC4/CapSense.c **** 	*
1955:.\Generated_Source\PSoC4/CapSense.c **** 	* Summary:
1956:.\Generated_Source\PSoC4/CapSense.c **** 	*  This API sets a value of the modulation IDAC for the  sensor.
1957:.\Generated_Source\PSoC4/CapSense.c **** 	*
1958:.\Generated_Source\PSoC4/CapSense.c **** 	* Parameters:
1959:.\Generated_Source\PSoC4/CapSense.c **** 	*  sensor:  Sensor index.
1960:.\Generated_Source\PSoC4/CapSense.c **** 	*  compIdacValue: represents the modulation IDAC data register value.
1961:.\Generated_Source\PSoC4/CapSense.c **** 	*
1962:.\Generated_Source\PSoC4/CapSense.c **** 	* Return:
1963:.\Generated_Source\PSoC4/CapSense.c **** 	*  None.
1964:.\Generated_Source\PSoC4/CapSense.c **** 	*
1965:.\Generated_Source\PSoC4/CapSense.c **** 	* Global Variables:
1966:.\Generated_Source\PSoC4/CapSense.c **** 	*  CapSense_modulationIDAC[] - array with modulation IDAC values
1967:.\Generated_Source\PSoC4/CapSense.c **** 	* 
1968:.\Generated_Source\PSoC4/CapSense.c **** 	* Side Effects:
1969:.\Generated_Source\PSoC4/CapSense.c **** 	*  None
1970:.\Generated_Source\PSoC4/CapSense.c **** 	*
1971:.\Generated_Source\PSoC4/CapSense.c **** 	*******************************************************************************/
1972:.\Generated_Source\PSoC4/CapSense.c **** 	void CapSense_SetModulationIDAC(uint32 sensor, uint32 modIdacValue)
1973:.\Generated_Source\PSoC4/CapSense.c **** 	{
1974:.\Generated_Source\PSoC4/CapSense.c **** 		CapSense_modulationIDAC[sensor] = (uint8)modIdacValue;
1975:.\Generated_Source\PSoC4/CapSense.c **** 	}
1976:.\Generated_Source\PSoC4/CapSense.c **** #endif /* (CapSense_TUNING_METHOD != CapSense__TUNING_NONE) */
1977:.\Generated_Source\PSoC4/CapSense.c **** 
1978:.\Generated_Source\PSoC4/CapSense.c **** 
1979:.\Generated_Source\PSoC4/CapSense.c **** #if(CapSense_IDAC_CNT > 1u)
1980:.\Generated_Source\PSoC4/CapSense.c **** 	/*******************************************************************************
1981:.\Generated_Source\PSoC4/CapSense.c **** 	* Function Name: CapSense_GetCompensationIDAC
ARM GAS  C:\Users\kevin\AppData\Local\Temp\ccEmeqeI.s 			page 66


1982:.\Generated_Source\PSoC4/CapSense.c **** 	********************************************************************************
1983:.\Generated_Source\PSoC4/CapSense.c **** 	*
1984:.\Generated_Source\PSoC4/CapSense.c **** 	* Summary:
1985:.\Generated_Source\PSoC4/CapSense.c **** 	*  This API returns a value of the compensation IDAC for the  sensor.
1986:.\Generated_Source\PSoC4/CapSense.c **** 	*
1987:.\Generated_Source\PSoC4/CapSense.c **** 	* Parameters:
1988:.\Generated_Source\PSoC4/CapSense.c **** 	*  sensor: sensor index. The index value can be 
1989:.\Generated_Source\PSoC4/CapSense.c **** 	*  from 0 to (CapSense_TOTAL_SENSOR_COUNT-1).
1990:.\Generated_Source\PSoC4/CapSense.c **** 	*
1991:.\Generated_Source\PSoC4/CapSense.c **** 	* Return:
1992:.\Generated_Source\PSoC4/CapSense.c **** 	*  This API returns the compensation IDAC of the sensor. 
1993:.\Generated_Source\PSoC4/CapSense.c **** 	*
1994:.\Generated_Source\PSoC4/CapSense.c **** 	* Global Variables:
1995:.\Generated_Source\PSoC4/CapSense.c **** 	*  CapSense_compensationIDAC[] - stores the compensation IDAC values.
1996:.\Generated_Source\PSoC4/CapSense.c **** 	* 
1997:.\Generated_Source\PSoC4/CapSense.c **** 	* Side Effects:
1998:.\Generated_Source\PSoC4/CapSense.c **** 	*  None
1999:.\Generated_Source\PSoC4/CapSense.c **** 	*
2000:.\Generated_Source\PSoC4/CapSense.c **** 	*******************************************************************************/
2001:.\Generated_Source\PSoC4/CapSense.c **** 	uint32 CapSense_GetCompensationIDAC(uint32 sensor)
2002:.\Generated_Source\PSoC4/CapSense.c **** 	{
 1551              		.loc 1 2002 0
 1552              		.cfi_startproc
 1553              	.LVL168:
2003:.\Generated_Source\PSoC4/CapSense.c **** 		return((uint32)CapSense_compensationIDAC[sensor]);
 1554              		.loc 1 2003 0
 1555 0000 014B     		ldr	r3, .L99
2004:.\Generated_Source\PSoC4/CapSense.c **** 	}
 1556              		.loc 1 2004 0
 1557              		@ sp needed
2003:.\Generated_Source\PSoC4/CapSense.c **** 		return((uint32)CapSense_compensationIDAC[sensor]);
 1558              		.loc 1 2003 0
 1559 0002 0333     		add	r3, r3, #3
 1560 0004 185C     		ldrb	r0, [r3, r0]
 1561              	.LVL169:
 1562              		.loc 1 2004 0
 1563 0006 7047     		bx	lr
 1564              	.L100:
 1565              		.align	2
 1566              	.L99:
 1567 0008 00000000 		.word	.LANCHOR2
 1568              		.cfi_endproc
 1569              	.LFE62:
 1570              		.size	CapSense_GetCompensationIDAC, .-CapSense_GetCompensationIDAC
 1571              		.section	.text.CapSense_GetIDACRange,"ax",%progbits
 1572              		.align	1
 1573              		.global	CapSense_GetIDACRange
 1574              		.code	16
 1575              		.thumb_func
 1576              		.type	CapSense_GetIDACRange, %function
 1577              	CapSense_GetIDACRange:
 1578              	.LFB63:
2005:.\Generated_Source\PSoC4/CapSense.c **** #endif /* (CapSense_IDAC_CNT > 1u) */
2006:.\Generated_Source\PSoC4/CapSense.c **** 
2007:.\Generated_Source\PSoC4/CapSense.c **** 
2008:.\Generated_Source\PSoC4/CapSense.c **** #if((CapSense_TUNING_METHOD != CapSense__TUNING_NONE) && (CapSense_IDAC_CNT > 1u))
2009:.\Generated_Source\PSoC4/CapSense.c **** 	/*******************************************************************************
ARM GAS  C:\Users\kevin\AppData\Local\Temp\ccEmeqeI.s 			page 67


2010:.\Generated_Source\PSoC4/CapSense.c **** 	* Function Name: CapSense_SetCompensationIDAC
2011:.\Generated_Source\PSoC4/CapSense.c **** 	********************************************************************************
2012:.\Generated_Source\PSoC4/CapSense.c **** 	*
2013:.\Generated_Source\PSoC4/CapSense.c **** 	* Summary:
2014:.\Generated_Source\PSoC4/CapSense.c **** 	*  This API sets a value of compensation IDAC for the  sensor.
2015:.\Generated_Source\PSoC4/CapSense.c **** 	*
2016:.\Generated_Source\PSoC4/CapSense.c **** 	* Parameters:
2017:.\Generated_Source\PSoC4/CapSense.c **** 	*  sensor:  Sensor index.
2018:.\Generated_Source\PSoC4/CapSense.c **** 	*  compIdacValue: represents the compensation IDAC data register value.
2019:.\Generated_Source\PSoC4/CapSense.c **** 	*
2020:.\Generated_Source\PSoC4/CapSense.c **** 	* Return:
2021:.\Generated_Source\PSoC4/CapSense.c **** 	*  None.
2022:.\Generated_Source\PSoC4/CapSense.c **** 	*
2023:.\Generated_Source\PSoC4/CapSense.c **** 	* Global Variables:
2024:.\Generated_Source\PSoC4/CapSense.c **** 	*  CapSense_compensationIDAC[] - an array with compensation IDAC values
2025:.\Generated_Source\PSoC4/CapSense.c **** 	* 
2026:.\Generated_Source\PSoC4/CapSense.c **** 	* Side Effects:
2027:.\Generated_Source\PSoC4/CapSense.c **** 	*  None
2028:.\Generated_Source\PSoC4/CapSense.c **** 	*
2029:.\Generated_Source\PSoC4/CapSense.c **** 	*******************************************************************************/
2030:.\Generated_Source\PSoC4/CapSense.c **** 	void CapSense_SetCompensationIDAC(uint32 sensor, uint32 compIdacValue)
2031:.\Generated_Source\PSoC4/CapSense.c **** 	{
2032:.\Generated_Source\PSoC4/CapSense.c **** 		CapSense_compensationIDAC[sensor] = (uint8)compIdacValue;
2033:.\Generated_Source\PSoC4/CapSense.c **** 	}
2034:.\Generated_Source\PSoC4/CapSense.c **** #endif /* ((CapSense_TUNING_METHOD != CapSense__TUNING_NONE) && (CapSense_IDAC_CNT > 1u)) */
2035:.\Generated_Source\PSoC4/CapSense.c **** 
2036:.\Generated_Source\PSoC4/CapSense.c **** /*******************************************************************************
2037:.\Generated_Source\PSoC4/CapSense.c **** * Function Name: CapSense_GetIDACRange
2038:.\Generated_Source\PSoC4/CapSense.c **** ********************************************************************************
2039:.\Generated_Source\PSoC4/CapSense.c **** *
2040:.\Generated_Source\PSoC4/CapSense.c **** * Summary:
2041:.\Generated_Source\PSoC4/CapSense.c **** *  This API returns a value that indicates the IDAC range used by the 
2042:.\Generated_Source\PSoC4/CapSense.c **** *  component to scan sensors. The IDAC range is common for all the sensors.
2043:.\Generated_Source\PSoC4/CapSense.c **** *
2044:.\Generated_Source\PSoC4/CapSense.c **** * Parameters:
2045:.\Generated_Source\PSoC4/CapSense.c **** *  None
2046:.\Generated_Source\PSoC4/CapSense.c **** *
2047:.\Generated_Source\PSoC4/CapSense.c **** * Return:
2048:.\Generated_Source\PSoC4/CapSense.c **** *  This API Returns a value that indicates the IDAC range:
2049:.\Generated_Source\PSoC4/CapSense.c **** *      0 - IDAC range set to 4x
2050:.\Generated_Source\PSoC4/CapSense.c **** *      1 - IDAC range set to 8x
2051:.\Generated_Source\PSoC4/CapSense.c **** *
2052:.\Generated_Source\PSoC4/CapSense.c **** * Global Variables:
2053:.\Generated_Source\PSoC4/CapSense.c **** *  None
2054:.\Generated_Source\PSoC4/CapSense.c **** * 
2055:.\Generated_Source\PSoC4/CapSense.c **** * Side Effects:
2056:.\Generated_Source\PSoC4/CapSense.c **** *  None
2057:.\Generated_Source\PSoC4/CapSense.c **** *
2058:.\Generated_Source\PSoC4/CapSense.c **** *******************************************************************************/
2059:.\Generated_Source\PSoC4/CapSense.c **** uint32 CapSense_GetIDACRange(void)
2060:.\Generated_Source\PSoC4/CapSense.c **** {
 1579              		.loc 1 2060 0
 1580              		.cfi_startproc
2061:.\Generated_Source\PSoC4/CapSense.c **** 	return((0u != (CapSense_CSD_IDAC_REG & CapSense_CSD_IDAC1_RANGE_8X)) ? 1uL : 0uL);
 1581              		.loc 1 2061 0
 1582 0000 024B     		ldr	r3, .L102
2062:.\Generated_Source\PSoC4/CapSense.c **** }
ARM GAS  C:\Users\kevin\AppData\Local\Temp\ccEmeqeI.s 			page 68


 1583              		.loc 1 2062 0
 1584              		@ sp needed
2061:.\Generated_Source\PSoC4/CapSense.c **** 	return((0u != (CapSense_CSD_IDAC_REG & CapSense_CSD_IDAC1_RANGE_8X)) ? 1uL : 0uL);
 1585              		.loc 1 2061 0
 1586 0002 1868     		ldr	r0, [r3]
 1587 0004 4005     		lsl	r0, r0, #21
 1588 0006 C00F     		lsr	r0, r0, #31
 1589              		.loc 1 2062 0
 1590 0008 7047     		bx	lr
 1591              	.L103:
 1592 000a C046     		.align	2
 1593              	.L102:
 1594 000c 08000840 		.word	1074266120
 1595              		.cfi_endproc
 1596              	.LFE63:
 1597              		.size	CapSense_GetIDACRange, .-CapSense_GetIDACRange
 1598              		.section	.text.CapSense_GetSensorRaw,"ax",%progbits
 1599              		.align	1
 1600              		.global	CapSense_GetSensorRaw
 1601              		.code	16
 1602              		.thumb_func
 1603              		.type	CapSense_GetSensorRaw, %function
 1604              	CapSense_GetSensorRaw:
 1605              	.LFB64:
2063:.\Generated_Source\PSoC4/CapSense.c **** 
2064:.\Generated_Source\PSoC4/CapSense.c **** #if (CapSense_TUNING_METHOD != CapSense__TUNING_NONE)
2065:.\Generated_Source\PSoC4/CapSense.c **** 	/*******************************************************************************
2066:.\Generated_Source\PSoC4/CapSense.c **** 	* Function Name: CapSense_SetIDACRange
2067:.\Generated_Source\PSoC4/CapSense.c **** 	********************************************************************************
2068:.\Generated_Source\PSoC4/CapSense.c **** 	*
2069:.\Generated_Source\PSoC4/CapSense.c **** 	* Summary:
2070:.\Generated_Source\PSoC4/CapSense.c **** 	*  This API sets the IDAC range to the 4x (1.2uA/bit) or 8x (2.4uA/bit) mode.
2071:.\Generated_Source\PSoC4/CapSense.c ****     *  The IDAC range is common for all the sensors and common for the modulation and 
2072:.\Generated_Source\PSoC4/CapSense.c **** 	*  compensation IDACs.
2073:.\Generated_Source\PSoC4/CapSense.c **** 	*
2074:.\Generated_Source\PSoC4/CapSense.c **** 	* Parameters:
2075:.\Generated_Source\PSoC4/CapSense.c **** 	*  iDacRange:  represents value for IDAC range 
2076:.\Generated_Source\PSoC4/CapSense.c **** 	*  0 -  IDAC range set to 4x (1.2uA/bit)
2077:.\Generated_Source\PSoC4/CapSense.c **** 	*  1 or >1 - IDAC range set to 8x (2.4uA/bit)
2078:.\Generated_Source\PSoC4/CapSense.c **** 	*
2079:.\Generated_Source\PSoC4/CapSense.c **** 	* Return:
2080:.\Generated_Source\PSoC4/CapSense.c **** 	*  None.
2081:.\Generated_Source\PSoC4/CapSense.c **** 	*
2082:.\Generated_Source\PSoC4/CapSense.c **** 	* Global Variables:
2083:.\Generated_Source\PSoC4/CapSense.c **** 	*  None
2084:.\Generated_Source\PSoC4/CapSense.c **** 	* 
2085:.\Generated_Source\PSoC4/CapSense.c **** 	* Side Effects:
2086:.\Generated_Source\PSoC4/CapSense.c **** 	*  None
2087:.\Generated_Source\PSoC4/CapSense.c **** 	*
2088:.\Generated_Source\PSoC4/CapSense.c **** 	*******************************************************************************/
2089:.\Generated_Source\PSoC4/CapSense.c **** 	void CapSense_SetIDACRange(uint32 iDacRange)
2090:.\Generated_Source\PSoC4/CapSense.c **** 	{
2091:.\Generated_Source\PSoC4/CapSense.c **** 	    if(iDacRange != 0u)
2092:.\Generated_Source\PSoC4/CapSense.c **** 		{
2093:.\Generated_Source\PSoC4/CapSense.c **** 		    /*  IDAC range = 8x (2.4uA/bit) */ 
2094:.\Generated_Source\PSoC4/CapSense.c **** 		    CapSense_CSD_IDAC_REG |= (CapSense_CSD_IDAC1_RANGE_8X |\
2095:.\Generated_Source\PSoC4/CapSense.c **** 											  CapSense_CSD_IDAC2_RANGE_8X);
ARM GAS  C:\Users\kevin\AppData\Local\Temp\ccEmeqeI.s 			page 69


2096:.\Generated_Source\PSoC4/CapSense.c **** 		}
2097:.\Generated_Source\PSoC4/CapSense.c **** 		else
2098:.\Generated_Source\PSoC4/CapSense.c **** 		{
2099:.\Generated_Source\PSoC4/CapSense.c **** 		    /*  IDAC range = 4x (1.2uA/bit) */ 
2100:.\Generated_Source\PSoC4/CapSense.c **** 		    /*  IDAC range = 8x (2.4uA/bit) */ 
2101:.\Generated_Source\PSoC4/CapSense.c **** 		    CapSense_CSD_IDAC_REG &= ~(CapSense_CSD_IDAC1_RANGE_8X |\
2102:.\Generated_Source\PSoC4/CapSense.c **** 											   CapSense_CSD_IDAC2_RANGE_8X);
2103:.\Generated_Source\PSoC4/CapSense.c **** 		}
2104:.\Generated_Source\PSoC4/CapSense.c **** 	}
2105:.\Generated_Source\PSoC4/CapSense.c **** #endif /* (CapSense_TUNING_METHOD != CapSense__TUNING_NONE) */
2106:.\Generated_Source\PSoC4/CapSense.c **** 
2107:.\Generated_Source\PSoC4/CapSense.c **** 
2108:.\Generated_Source\PSoC4/CapSense.c **** #if((0u != CapSense_AUTOCALIBRATION_ENABLE) || (CapSense_TUNING_METHOD == CapSense__TUNING_AUTO))
2109:.\Generated_Source\PSoC4/CapSense.c **** 	/*******************************************************************************
2110:.\Generated_Source\PSoC4/CapSense.c **** 	* Function Name: CapSense_GetSensorRaw
2111:.\Generated_Source\PSoC4/CapSense.c **** 	********************************************************************************
2112:.\Generated_Source\PSoC4/CapSense.c **** 	*
2113:.\Generated_Source\PSoC4/CapSense.c **** 	* Summary:
2114:.\Generated_Source\PSoC4/CapSense.c **** 	*  The API updates and gets uprated raw data from the sensor.
2115:.\Generated_Source\PSoC4/CapSense.c **** 	*
2116:.\Generated_Source\PSoC4/CapSense.c **** 	* Parameters:
2117:.\Generated_Source\PSoC4/CapSense.c **** 	*  sensor - Sensor number.
2118:.\Generated_Source\PSoC4/CapSense.c **** 	*
2119:.\Generated_Source\PSoC4/CapSense.c **** 	* Return:
2120:.\Generated_Source\PSoC4/CapSense.c **** 	*  Returns the current raw data value for a defined sensor number.
2121:.\Generated_Source\PSoC4/CapSense.c **** 	*
2122:.\Generated_Source\PSoC4/CapSense.c **** 	* Global Variables:
2123:.\Generated_Source\PSoC4/CapSense.c **** 	*  None
2124:.\Generated_Source\PSoC4/CapSense.c **** 	*
2125:.\Generated_Source\PSoC4/CapSense.c **** 	* Side Effects:
2126:.\Generated_Source\PSoC4/CapSense.c **** 	*  None
2127:.\Generated_Source\PSoC4/CapSense.c **** 	*
2128:.\Generated_Source\PSoC4/CapSense.c **** 	*******************************************************************************/
2129:.\Generated_Source\PSoC4/CapSense.c **** 	uint16  CapSense_GetSensorRaw(uint32 sensor)
2130:.\Generated_Source\PSoC4/CapSense.c **** 	{
 1606              		.loc 1 2130 0
 1607              		.cfi_startproc
 1608              	.LVL170:
 1609 0000 10B5     		push	{r4, lr}
 1610              		.cfi_def_cfa_offset 8
 1611              		.cfi_offset 4, -8
 1612              		.cfi_offset 14, -4
 1613              		.loc 1 2130 0
 1614 0002 041C     		mov	r4, r0
2131:.\Generated_Source\PSoC4/CapSense.c **** 		uint32 curSample;
2132:.\Generated_Source\PSoC4/CapSense.c **** 		uint32 avgVal = 0u;
2133:.\Generated_Source\PSoC4/CapSense.c **** 		
2134:.\Generated_Source\PSoC4/CapSense.c **** 		for(curSample = 0u; curSample < CapSense_AVG_SAMPLES_NUM; curSample++)
2135:.\Generated_Source\PSoC4/CapSense.c **** 		{
2136:.\Generated_Source\PSoC4/CapSense.c **** 	    
2137:.\Generated_Source\PSoC4/CapSense.c **** 			CapSense_ScanSensor((uint32)sensor);
 1615              		.loc 1 2137 0
 1616 0004 FFF7FEFF 		bl	CapSense_ScanSensor
 1617              	.LVL171:
 1618              	.L106:
 1619              	.LBB6:
 1620              	.LBB7:
ARM GAS  C:\Users\kevin\AppData\Local\Temp\ccEmeqeI.s 			page 70


 735:.\Generated_Source\PSoC4/CapSense.c ****     return ((uint32)((0u != (CapSense_csdStatusVar & CapSense_SW_STS_BUSY)) ? 1u : 0u));
 1621              		.loc 1 735 0 discriminator 1
 1622 0008 034B     		ldr	r3, .L107
 1623 000a 1A78     		ldrb	r2, [r3]
 1624              	.LBE7:
 1625              	.LBE6:
2138:.\Generated_Source\PSoC4/CapSense.c **** 		    while(CapSense_IsBusy() == 1u)
 1626              		.loc 1 2138 0 discriminator 1
 1627 000c D107     		lsl	r1, r2, #31
 1628 000e FBD4     		bmi	.L106
 1629              	.LVL172:
 1630              	.LBB8:
 1631              	.LBB9:
 765:.\Generated_Source\PSoC4/CapSense.c ****     return CapSense_sensorRaw[sensor];
 1632              		.loc 1 765 0
 1633 0010 0233     		add	r3, r3, #2
 1634 0012 6400     		lsl	r4, r4, #1
 1635              	.LVL173:
 1636              	.LBE9:
 1637              	.LBE8:
2139:.\Generated_Source\PSoC4/CapSense.c **** 			{
2140:.\Generated_Source\PSoC4/CapSense.c **** 				/* Wait while sensor is busy */
2141:.\Generated_Source\PSoC4/CapSense.c **** 			}
2142:.\Generated_Source\PSoC4/CapSense.c **** 			avgVal += CapSense_ReadSensorRaw((uint32)sensor);
2143:.\Generated_Source\PSoC4/CapSense.c **** 		}
2144:.\Generated_Source\PSoC4/CapSense.c **** 	    
2145:.\Generated_Source\PSoC4/CapSense.c **** 	    return((uint16)(avgVal / CapSense_AVG_SAMPLES_NUM));
 1638              		.loc 1 2145 0
 1639 0014 185B     		ldrh	r0, [r3, r4]
2146:.\Generated_Source\PSoC4/CapSense.c **** 	}
 1640              		.loc 1 2146 0
 1641              		@ sp needed
 1642 0016 10BD     		pop	{r4, pc}
 1643              	.L108:
 1644              		.align	2
 1645              	.L107:
 1646 0018 00000000 		.word	.LANCHOR0
 1647              		.cfi_endproc
 1648              	.LFE64:
 1649              		.size	CapSense_GetSensorRaw, .-CapSense_GetSensorRaw
 1650              		.section	.text.CapSense_CalibrateSensor,"ax",%progbits
 1651              		.align	1
 1652              		.global	CapSense_CalibrateSensor
 1653              		.code	16
 1654              		.thumb_func
 1655              		.type	CapSense_CalibrateSensor, %function
 1656              	CapSense_CalibrateSensor:
 1657              	.LFB65:
2147:.\Generated_Source\PSoC4/CapSense.c **** #endif /* ((0u != CapSense_AUTOCALIBRATION_ENABLE) && (CapSense_TUNING_METHOD == CapSense__TUNING_A
2148:.\Generated_Source\PSoC4/CapSense.c **** 
2149:.\Generated_Source\PSoC4/CapSense.c **** 
2150:.\Generated_Source\PSoC4/CapSense.c **** #if((0u != CapSense_AUTOCALIBRATION_ENABLE) && (CapSense_TUNING_METHOD != CapSense__TUNING_AUTO))
2151:.\Generated_Source\PSoC4/CapSense.c **** 	/*******************************************************************************
2152:.\Generated_Source\PSoC4/CapSense.c **** 	* Function Name: CapSense_CalibrateSensor
2153:.\Generated_Source\PSoC4/CapSense.c **** 	********************************************************************************
2154:.\Generated_Source\PSoC4/CapSense.c **** 	*
2155:.\Generated_Source\PSoC4/CapSense.c **** 	* Summary:
ARM GAS  C:\Users\kevin\AppData\Local\Temp\ccEmeqeI.s 			page 71


2156:.\Generated_Source\PSoC4/CapSense.c **** 	*  Computes the one sensor IDAC value, which provides the raw signal on
2157:.\Generated_Source\PSoC4/CapSense.c **** 	*  a specified level, with a specified prescaler, speed, and resolution.
2158:.\Generated_Source\PSoC4/CapSense.c **** 	*
2159:.\Generated_Source\PSoC4/CapSense.c **** 	* Parameters:
