ARM GAS  C:\Users\kevin\AppData\Local\Temp\ccOpwhbe.s 			page 1


   1              		.cpu cortex-m0
   2              		.fpu softvfp
   3              		.eabi_attribute 20, 1
   4              		.eabi_attribute 21, 1
   5              		.eabi_attribute 23, 3
   6              		.eabi_attribute 24, 1
   7              		.eabi_attribute 25, 1
   8              		.eabi_attribute 26, 1
   9              		.eabi_attribute 30, 4
  10              		.eabi_attribute 34, 0
  11              		.eabi_attribute 18, 4
  12              		.code	16
  13              		.file	"CC_ISR.c"
  14              		.text
  15              	.Ltext0:
  16              		.cfi_sections	.debug_frame
  17              		.section	.text.CC_ISR_Interrupt,"ax",%progbits
  18              		.align	1
  19              		.global	CC_ISR_Interrupt
  20              		.code	16
  21              		.thumb_func
  22              		.type	CC_ISR_Interrupt, %function
  23              	CC_ISR_Interrupt:
  24              	.LFB3:
  25              		.file 1 ".\\Generated_Source\\PSoC4\\CC_ISR.c"
   1:.\Generated_Source\PSoC4/CC_ISR.c **** /*******************************************************************************
   2:.\Generated_Source\PSoC4/CC_ISR.c **** * File Name: CC_ISR.c  
   3:.\Generated_Source\PSoC4/CC_ISR.c **** * Version 1.70
   4:.\Generated_Source\PSoC4/CC_ISR.c **** *
   5:.\Generated_Source\PSoC4/CC_ISR.c **** *  Description:
   6:.\Generated_Source\PSoC4/CC_ISR.c **** *   API for controlling the state of an interrupt.
   7:.\Generated_Source\PSoC4/CC_ISR.c **** *
   8:.\Generated_Source\PSoC4/CC_ISR.c **** *
   9:.\Generated_Source\PSoC4/CC_ISR.c **** *  Note:
  10:.\Generated_Source\PSoC4/CC_ISR.c **** *
  11:.\Generated_Source\PSoC4/CC_ISR.c **** ********************************************************************************
  12:.\Generated_Source\PSoC4/CC_ISR.c **** * Copyright 2008-2012, Cypress Semiconductor Corporation.  All rights reserved.
  13:.\Generated_Source\PSoC4/CC_ISR.c **** * You may use this file only in accordance with the license, terms, conditions, 
  14:.\Generated_Source\PSoC4/CC_ISR.c **** * disclaimers, and limitations in the end user license agreement accompanying 
  15:.\Generated_Source\PSoC4/CC_ISR.c **** * the software package with which this file was provided.
  16:.\Generated_Source\PSoC4/CC_ISR.c **** *******************************************************************************/
  17:.\Generated_Source\PSoC4/CC_ISR.c **** 
  18:.\Generated_Source\PSoC4/CC_ISR.c **** 
  19:.\Generated_Source\PSoC4/CC_ISR.c **** #include <cydevice_trm.h>
  20:.\Generated_Source\PSoC4/CC_ISR.c **** #include <CyLib.h>
  21:.\Generated_Source\PSoC4/CC_ISR.c **** #include <CC_ISR.h>
  22:.\Generated_Source\PSoC4/CC_ISR.c **** 
  23:.\Generated_Source\PSoC4/CC_ISR.c **** #if !defined(CC_ISR__REMOVED) /* Check for removal by optimization */
  24:.\Generated_Source\PSoC4/CC_ISR.c **** 
  25:.\Generated_Source\PSoC4/CC_ISR.c **** /*******************************************************************************
  26:.\Generated_Source\PSoC4/CC_ISR.c **** *  Place your includes, defines and code here 
  27:.\Generated_Source\PSoC4/CC_ISR.c **** ********************************************************************************/
  28:.\Generated_Source\PSoC4/CC_ISR.c **** /* `#START CC_ISR_intc` */
  29:.\Generated_Source\PSoC4/CC_ISR.c **** 
  30:.\Generated_Source\PSoC4/CC_ISR.c **** /* `#END` */
  31:.\Generated_Source\PSoC4/CC_ISR.c **** 
  32:.\Generated_Source\PSoC4/CC_ISR.c **** extern cyisraddress CyRamVectors[CYINT_IRQ_BASE + CY_NUM_INTERRUPTS];
ARM GAS  C:\Users\kevin\AppData\Local\Temp\ccOpwhbe.s 			page 2


  33:.\Generated_Source\PSoC4/CC_ISR.c **** 
  34:.\Generated_Source\PSoC4/CC_ISR.c **** /* Declared in startup, used to set unused interrupts to. */
  35:.\Generated_Source\PSoC4/CC_ISR.c **** CY_ISR_PROTO(IntDefaultHandler);
  36:.\Generated_Source\PSoC4/CC_ISR.c **** 
  37:.\Generated_Source\PSoC4/CC_ISR.c **** 
  38:.\Generated_Source\PSoC4/CC_ISR.c **** /*******************************************************************************
  39:.\Generated_Source\PSoC4/CC_ISR.c **** * Function Name: CC_ISR_Start
  40:.\Generated_Source\PSoC4/CC_ISR.c **** ********************************************************************************
  41:.\Generated_Source\PSoC4/CC_ISR.c **** *
  42:.\Generated_Source\PSoC4/CC_ISR.c **** * Summary:
  43:.\Generated_Source\PSoC4/CC_ISR.c **** *  Set up the interrupt and enable it.
  44:.\Generated_Source\PSoC4/CC_ISR.c **** *
  45:.\Generated_Source\PSoC4/CC_ISR.c **** * Parameters:  
  46:.\Generated_Source\PSoC4/CC_ISR.c **** *   None
  47:.\Generated_Source\PSoC4/CC_ISR.c **** *
  48:.\Generated_Source\PSoC4/CC_ISR.c **** * Return:
  49:.\Generated_Source\PSoC4/CC_ISR.c **** *   None
  50:.\Generated_Source\PSoC4/CC_ISR.c **** *
  51:.\Generated_Source\PSoC4/CC_ISR.c **** *******************************************************************************/
  52:.\Generated_Source\PSoC4/CC_ISR.c **** void CC_ISR_Start(void)
  53:.\Generated_Source\PSoC4/CC_ISR.c **** {
  54:.\Generated_Source\PSoC4/CC_ISR.c ****     /* For all we know the interrupt is active. */
  55:.\Generated_Source\PSoC4/CC_ISR.c ****     CC_ISR_Disable();
  56:.\Generated_Source\PSoC4/CC_ISR.c **** 
  57:.\Generated_Source\PSoC4/CC_ISR.c ****     /* Set the ISR to point to the CC_ISR Interrupt. */
  58:.\Generated_Source\PSoC4/CC_ISR.c ****     CC_ISR_SetVector(&CC_ISR_Interrupt);
  59:.\Generated_Source\PSoC4/CC_ISR.c **** 
  60:.\Generated_Source\PSoC4/CC_ISR.c ****     /* Set the priority. */
  61:.\Generated_Source\PSoC4/CC_ISR.c ****     CC_ISR_SetPriority((uint8)CC_ISR_INTC_PRIOR_NUMBER);
  62:.\Generated_Source\PSoC4/CC_ISR.c **** 
  63:.\Generated_Source\PSoC4/CC_ISR.c ****     /* Enable it. */
  64:.\Generated_Source\PSoC4/CC_ISR.c ****     CC_ISR_Enable();
  65:.\Generated_Source\PSoC4/CC_ISR.c **** }
  66:.\Generated_Source\PSoC4/CC_ISR.c **** 
  67:.\Generated_Source\PSoC4/CC_ISR.c **** 
  68:.\Generated_Source\PSoC4/CC_ISR.c **** /*******************************************************************************
  69:.\Generated_Source\PSoC4/CC_ISR.c **** * Function Name: CC_ISR_StartEx
  70:.\Generated_Source\PSoC4/CC_ISR.c **** ********************************************************************************
  71:.\Generated_Source\PSoC4/CC_ISR.c **** *
  72:.\Generated_Source\PSoC4/CC_ISR.c **** * Summary:
  73:.\Generated_Source\PSoC4/CC_ISR.c **** *  Set up the interrupt and enable it.
  74:.\Generated_Source\PSoC4/CC_ISR.c **** *
  75:.\Generated_Source\PSoC4/CC_ISR.c **** * Parameters:  
  76:.\Generated_Source\PSoC4/CC_ISR.c **** *   address: Address of the ISR to set in the interrupt vector table.
  77:.\Generated_Source\PSoC4/CC_ISR.c **** *
  78:.\Generated_Source\PSoC4/CC_ISR.c **** * Return:
  79:.\Generated_Source\PSoC4/CC_ISR.c **** *   None
  80:.\Generated_Source\PSoC4/CC_ISR.c **** *
  81:.\Generated_Source\PSoC4/CC_ISR.c **** *******************************************************************************/
  82:.\Generated_Source\PSoC4/CC_ISR.c **** void CC_ISR_StartEx(cyisraddress address)
  83:.\Generated_Source\PSoC4/CC_ISR.c **** {
  84:.\Generated_Source\PSoC4/CC_ISR.c ****     /* For all we know the interrupt is active. */
  85:.\Generated_Source\PSoC4/CC_ISR.c ****     CC_ISR_Disable();
  86:.\Generated_Source\PSoC4/CC_ISR.c **** 
  87:.\Generated_Source\PSoC4/CC_ISR.c ****     /* Set the ISR to point to the CC_ISR Interrupt. */
  88:.\Generated_Source\PSoC4/CC_ISR.c ****     CC_ISR_SetVector(address);
  89:.\Generated_Source\PSoC4/CC_ISR.c **** 
ARM GAS  C:\Users\kevin\AppData\Local\Temp\ccOpwhbe.s 			page 3


  90:.\Generated_Source\PSoC4/CC_ISR.c ****     /* Set the priority. */
  91:.\Generated_Source\PSoC4/CC_ISR.c ****     CC_ISR_SetPriority((uint8)CC_ISR_INTC_PRIOR_NUMBER);
  92:.\Generated_Source\PSoC4/CC_ISR.c **** 
  93:.\Generated_Source\PSoC4/CC_ISR.c ****     /* Enable it. */
  94:.\Generated_Source\PSoC4/CC_ISR.c ****     CC_ISR_Enable();
  95:.\Generated_Source\PSoC4/CC_ISR.c **** }
  96:.\Generated_Source\PSoC4/CC_ISR.c **** 
  97:.\Generated_Source\PSoC4/CC_ISR.c **** 
  98:.\Generated_Source\PSoC4/CC_ISR.c **** /*******************************************************************************
  99:.\Generated_Source\PSoC4/CC_ISR.c **** * Function Name: CC_ISR_Stop
 100:.\Generated_Source\PSoC4/CC_ISR.c **** ********************************************************************************
 101:.\Generated_Source\PSoC4/CC_ISR.c **** *
 102:.\Generated_Source\PSoC4/CC_ISR.c **** * Summary:
 103:.\Generated_Source\PSoC4/CC_ISR.c **** *   Disables and removes the interrupt.
 104:.\Generated_Source\PSoC4/CC_ISR.c **** *
 105:.\Generated_Source\PSoC4/CC_ISR.c **** * Parameters:  
 106:.\Generated_Source\PSoC4/CC_ISR.c **** *
 107:.\Generated_Source\PSoC4/CC_ISR.c **** * Return:
 108:.\Generated_Source\PSoC4/CC_ISR.c **** *   None
 109:.\Generated_Source\PSoC4/CC_ISR.c **** *
 110:.\Generated_Source\PSoC4/CC_ISR.c **** *******************************************************************************/
 111:.\Generated_Source\PSoC4/CC_ISR.c **** void CC_ISR_Stop(void)
 112:.\Generated_Source\PSoC4/CC_ISR.c **** {
 113:.\Generated_Source\PSoC4/CC_ISR.c ****     /* Disable this interrupt. */
 114:.\Generated_Source\PSoC4/CC_ISR.c ****     CC_ISR_Disable();
 115:.\Generated_Source\PSoC4/CC_ISR.c **** 
 116:.\Generated_Source\PSoC4/CC_ISR.c ****     /* Set the ISR to point to the passive one. */
 117:.\Generated_Source\PSoC4/CC_ISR.c ****     CC_ISR_SetVector(&IntDefaultHandler);
 118:.\Generated_Source\PSoC4/CC_ISR.c **** }
 119:.\Generated_Source\PSoC4/CC_ISR.c **** 
 120:.\Generated_Source\PSoC4/CC_ISR.c **** 
 121:.\Generated_Source\PSoC4/CC_ISR.c **** /*******************************************************************************
 122:.\Generated_Source\PSoC4/CC_ISR.c **** * Function Name: CC_ISR_Interrupt
 123:.\Generated_Source\PSoC4/CC_ISR.c **** ********************************************************************************
 124:.\Generated_Source\PSoC4/CC_ISR.c **** *
 125:.\Generated_Source\PSoC4/CC_ISR.c **** * Summary:
 126:.\Generated_Source\PSoC4/CC_ISR.c **** *   The default Interrupt Service Routine for CC_ISR.
 127:.\Generated_Source\PSoC4/CC_ISR.c **** *
 128:.\Generated_Source\PSoC4/CC_ISR.c **** *   Add custom code between the coments to keep the next version of this file
 129:.\Generated_Source\PSoC4/CC_ISR.c **** *   from over writting your code.
 130:.\Generated_Source\PSoC4/CC_ISR.c **** *
 131:.\Generated_Source\PSoC4/CC_ISR.c **** * Parameters:  
 132:.\Generated_Source\PSoC4/CC_ISR.c **** *   None
 133:.\Generated_Source\PSoC4/CC_ISR.c **** *
 134:.\Generated_Source\PSoC4/CC_ISR.c **** * Return:
 135:.\Generated_Source\PSoC4/CC_ISR.c **** *   None
 136:.\Generated_Source\PSoC4/CC_ISR.c **** *
 137:.\Generated_Source\PSoC4/CC_ISR.c **** *******************************************************************************/
 138:.\Generated_Source\PSoC4/CC_ISR.c **** CY_ISR(CC_ISR_Interrupt)
 139:.\Generated_Source\PSoC4/CC_ISR.c **** {
  26              		.loc 1 139 0
  27              		.cfi_startproc
 140:.\Generated_Source\PSoC4/CC_ISR.c ****     /*  Place your Interrupt code here. */
 141:.\Generated_Source\PSoC4/CC_ISR.c ****     /* `#START CC_ISR_Interrupt` */
 142:.\Generated_Source\PSoC4/CC_ISR.c **** 
 143:.\Generated_Source\PSoC4/CC_ISR.c ****     /* `#END` */
 144:.\Generated_Source\PSoC4/CC_ISR.c **** }
ARM GAS  C:\Users\kevin\AppData\Local\Temp\ccOpwhbe.s 			page 4


  28              		.loc 1 144 0
  29              		@ sp needed
  30 0000 7047     		bx	lr
  31              		.cfi_endproc
  32              	.LFE3:
  33              		.size	CC_ISR_Interrupt, .-CC_ISR_Interrupt
  34              		.section	.text.CC_ISR_Stop,"ax",%progbits
  35              		.align	1
  36              		.global	CC_ISR_Stop
  37              		.code	16
  38              		.thumb_func
  39              		.type	CC_ISR_Stop, %function
  40              	CC_ISR_Stop:
  41              	.LFB2:
 112:.\Generated_Source\PSoC4/CC_ISR.c **** {
  42              		.loc 1 112 0
  43              		.cfi_startproc
  44              	.LBB18:
  45              	.LBB19:
 145:.\Generated_Source\PSoC4/CC_ISR.c **** 
 146:.\Generated_Source\PSoC4/CC_ISR.c **** 
 147:.\Generated_Source\PSoC4/CC_ISR.c **** /*******************************************************************************
 148:.\Generated_Source\PSoC4/CC_ISR.c **** * Function Name: CC_ISR_SetVector
 149:.\Generated_Source\PSoC4/CC_ISR.c **** ********************************************************************************
 150:.\Generated_Source\PSoC4/CC_ISR.c **** *
 151:.\Generated_Source\PSoC4/CC_ISR.c **** * Summary:
 152:.\Generated_Source\PSoC4/CC_ISR.c **** *   Change the ISR vector for the Interrupt. Note calling CC_ISR_Start
 153:.\Generated_Source\PSoC4/CC_ISR.c **** *   will override any effect this method would have had. To set the vector 
 154:.\Generated_Source\PSoC4/CC_ISR.c **** *   before the component has been started use CC_ISR_StartEx instead.
 155:.\Generated_Source\PSoC4/CC_ISR.c **** *
 156:.\Generated_Source\PSoC4/CC_ISR.c **** * Parameters:
 157:.\Generated_Source\PSoC4/CC_ISR.c **** *   address: Address of the ISR to set in the interrupt vector table.
 158:.\Generated_Source\PSoC4/CC_ISR.c **** *
 159:.\Generated_Source\PSoC4/CC_ISR.c **** * Return:
 160:.\Generated_Source\PSoC4/CC_ISR.c **** *   None
 161:.\Generated_Source\PSoC4/CC_ISR.c **** *
 162:.\Generated_Source\PSoC4/CC_ISR.c **** *******************************************************************************/
 163:.\Generated_Source\PSoC4/CC_ISR.c **** void CC_ISR_SetVector(cyisraddress address)
 164:.\Generated_Source\PSoC4/CC_ISR.c **** {
 165:.\Generated_Source\PSoC4/CC_ISR.c ****     CyRamVectors[CYINT_IRQ_BASE + CC_ISR__INTC_NUMBER] = address;
 166:.\Generated_Source\PSoC4/CC_ISR.c **** }
 167:.\Generated_Source\PSoC4/CC_ISR.c **** 
 168:.\Generated_Source\PSoC4/CC_ISR.c **** 
 169:.\Generated_Source\PSoC4/CC_ISR.c **** /*******************************************************************************
 170:.\Generated_Source\PSoC4/CC_ISR.c **** * Function Name: CC_ISR_GetVector
 171:.\Generated_Source\PSoC4/CC_ISR.c **** ********************************************************************************
 172:.\Generated_Source\PSoC4/CC_ISR.c **** *
 173:.\Generated_Source\PSoC4/CC_ISR.c **** * Summary:
 174:.\Generated_Source\PSoC4/CC_ISR.c **** *   Gets the "address" of the current ISR vector for the Interrupt.
 175:.\Generated_Source\PSoC4/CC_ISR.c **** *
 176:.\Generated_Source\PSoC4/CC_ISR.c **** * Parameters:
 177:.\Generated_Source\PSoC4/CC_ISR.c **** *   None
 178:.\Generated_Source\PSoC4/CC_ISR.c **** *
 179:.\Generated_Source\PSoC4/CC_ISR.c **** * Return:
 180:.\Generated_Source\PSoC4/CC_ISR.c **** *   Address of the ISR in the interrupt vector table.
 181:.\Generated_Source\PSoC4/CC_ISR.c **** *
 182:.\Generated_Source\PSoC4/CC_ISR.c **** *******************************************************************************/
ARM GAS  C:\Users\kevin\AppData\Local\Temp\ccOpwhbe.s 			page 5


 183:.\Generated_Source\PSoC4/CC_ISR.c **** cyisraddress CC_ISR_GetVector(void)
 184:.\Generated_Source\PSoC4/CC_ISR.c **** {
 185:.\Generated_Source\PSoC4/CC_ISR.c ****     return CyRamVectors[CYINT_IRQ_BASE + CC_ISR__INTC_NUMBER];
 186:.\Generated_Source\PSoC4/CC_ISR.c **** }
 187:.\Generated_Source\PSoC4/CC_ISR.c **** 
 188:.\Generated_Source\PSoC4/CC_ISR.c **** 
 189:.\Generated_Source\PSoC4/CC_ISR.c **** /*******************************************************************************
 190:.\Generated_Source\PSoC4/CC_ISR.c **** * Function Name: CC_ISR_SetPriority
 191:.\Generated_Source\PSoC4/CC_ISR.c **** ********************************************************************************
 192:.\Generated_Source\PSoC4/CC_ISR.c **** *
 193:.\Generated_Source\PSoC4/CC_ISR.c **** * Summary:
 194:.\Generated_Source\PSoC4/CC_ISR.c **** *   Sets the Priority of the Interrupt. Note calling CC_ISR_Start
 195:.\Generated_Source\PSoC4/CC_ISR.c **** *   or CC_ISR_StartEx will override any effect this method would 
 196:.\Generated_Source\PSoC4/CC_ISR.c **** *   have had. This method should only be called after CC_ISR_Start or 
 197:.\Generated_Source\PSoC4/CC_ISR.c **** *   CC_ISR_StartEx has been called. To set the initial
 198:.\Generated_Source\PSoC4/CC_ISR.c **** *   priority for the component use the cydwr file in the tool.
 199:.\Generated_Source\PSoC4/CC_ISR.c **** *
 200:.\Generated_Source\PSoC4/CC_ISR.c **** * Parameters:
 201:.\Generated_Source\PSoC4/CC_ISR.c **** *   priority: Priority of the interrupt. 0 - 3, 0 being the highest.
 202:.\Generated_Source\PSoC4/CC_ISR.c **** *
 203:.\Generated_Source\PSoC4/CC_ISR.c **** * Return:
 204:.\Generated_Source\PSoC4/CC_ISR.c **** *   None
 205:.\Generated_Source\PSoC4/CC_ISR.c **** *
 206:.\Generated_Source\PSoC4/CC_ISR.c **** *******************************************************************************/
 207:.\Generated_Source\PSoC4/CC_ISR.c **** void CC_ISR_SetPriority(uint8 priority)
 208:.\Generated_Source\PSoC4/CC_ISR.c **** {
 209:.\Generated_Source\PSoC4/CC_ISR.c **** 	uint8 interruptState;
 210:.\Generated_Source\PSoC4/CC_ISR.c ****     uint32 priorityOffset = ((CC_ISR__INTC_NUMBER % 4u) * 8u) + 6u;
 211:.\Generated_Source\PSoC4/CC_ISR.c ****     
 212:.\Generated_Source\PSoC4/CC_ISR.c **** 	interruptState = CyEnterCriticalSection();
 213:.\Generated_Source\PSoC4/CC_ISR.c ****     *CC_ISR_INTC_PRIOR = (*CC_ISR_INTC_PRIOR & (uint32)(~CC_ISR__INTC_PRIOR_MASK)) |
 214:.\Generated_Source\PSoC4/CC_ISR.c ****                                     ((uint32)priority << priorityOffset);
 215:.\Generated_Source\PSoC4/CC_ISR.c **** 	CyExitCriticalSection(interruptState);
 216:.\Generated_Source\PSoC4/CC_ISR.c **** }
 217:.\Generated_Source\PSoC4/CC_ISR.c **** 
 218:.\Generated_Source\PSoC4/CC_ISR.c **** 
 219:.\Generated_Source\PSoC4/CC_ISR.c **** /*******************************************************************************
 220:.\Generated_Source\PSoC4/CC_ISR.c **** * Function Name: CC_ISR_GetPriority
 221:.\Generated_Source\PSoC4/CC_ISR.c **** ********************************************************************************
 222:.\Generated_Source\PSoC4/CC_ISR.c **** *
 223:.\Generated_Source\PSoC4/CC_ISR.c **** * Summary:
 224:.\Generated_Source\PSoC4/CC_ISR.c **** *   Gets the Priority of the Interrupt.
 225:.\Generated_Source\PSoC4/CC_ISR.c **** *
 226:.\Generated_Source\PSoC4/CC_ISR.c **** * Parameters:
 227:.\Generated_Source\PSoC4/CC_ISR.c **** *   None
 228:.\Generated_Source\PSoC4/CC_ISR.c **** *
 229:.\Generated_Source\PSoC4/CC_ISR.c **** * Return:
 230:.\Generated_Source\PSoC4/CC_ISR.c **** *   Priority of the interrupt. 0 - 3, 0 being the highest.
 231:.\Generated_Source\PSoC4/CC_ISR.c **** *
 232:.\Generated_Source\PSoC4/CC_ISR.c **** *******************************************************************************/
 233:.\Generated_Source\PSoC4/CC_ISR.c **** uint8 CC_ISR_GetPriority(void)
 234:.\Generated_Source\PSoC4/CC_ISR.c **** {
 235:.\Generated_Source\PSoC4/CC_ISR.c ****     uint32 priority;
 236:.\Generated_Source\PSoC4/CC_ISR.c **** 	uint32 priorityOffset = ((CC_ISR__INTC_NUMBER % 4u) * 8u) + 6u;
 237:.\Generated_Source\PSoC4/CC_ISR.c **** 
 238:.\Generated_Source\PSoC4/CC_ISR.c ****     priority = (*CC_ISR_INTC_PRIOR & CC_ISR__INTC_PRIOR_MASK) >> priorityOffset;
 239:.\Generated_Source\PSoC4/CC_ISR.c **** 
ARM GAS  C:\Users\kevin\AppData\Local\Temp\ccOpwhbe.s 			page 6


 240:.\Generated_Source\PSoC4/CC_ISR.c ****     return (uint8)priority;
 241:.\Generated_Source\PSoC4/CC_ISR.c **** }
 242:.\Generated_Source\PSoC4/CC_ISR.c **** 
 243:.\Generated_Source\PSoC4/CC_ISR.c **** 
 244:.\Generated_Source\PSoC4/CC_ISR.c **** /*******************************************************************************
 245:.\Generated_Source\PSoC4/CC_ISR.c **** * Function Name: CC_ISR_Enable
 246:.\Generated_Source\PSoC4/CC_ISR.c **** ********************************************************************************
 247:.\Generated_Source\PSoC4/CC_ISR.c **** *
 248:.\Generated_Source\PSoC4/CC_ISR.c **** * Summary:
 249:.\Generated_Source\PSoC4/CC_ISR.c **** *   Enables the interrupt.
 250:.\Generated_Source\PSoC4/CC_ISR.c **** *
 251:.\Generated_Source\PSoC4/CC_ISR.c **** * Parameters:
 252:.\Generated_Source\PSoC4/CC_ISR.c **** *   None
 253:.\Generated_Source\PSoC4/CC_ISR.c **** *
 254:.\Generated_Source\PSoC4/CC_ISR.c **** * Return:
 255:.\Generated_Source\PSoC4/CC_ISR.c **** *   None
 256:.\Generated_Source\PSoC4/CC_ISR.c **** *
 257:.\Generated_Source\PSoC4/CC_ISR.c **** *******************************************************************************/
 258:.\Generated_Source\PSoC4/CC_ISR.c **** void CC_ISR_Enable(void)
 259:.\Generated_Source\PSoC4/CC_ISR.c **** {
 260:.\Generated_Source\PSoC4/CC_ISR.c ****     /* Enable the general interrupt. */
 261:.\Generated_Source\PSoC4/CC_ISR.c ****     *CC_ISR_INTC_SET_EN = CC_ISR__INTC_MASK;
 262:.\Generated_Source\PSoC4/CC_ISR.c **** }
 263:.\Generated_Source\PSoC4/CC_ISR.c **** 
 264:.\Generated_Source\PSoC4/CC_ISR.c **** 
 265:.\Generated_Source\PSoC4/CC_ISR.c **** /*******************************************************************************
 266:.\Generated_Source\PSoC4/CC_ISR.c **** * Function Name: CC_ISR_GetState
 267:.\Generated_Source\PSoC4/CC_ISR.c **** ********************************************************************************
 268:.\Generated_Source\PSoC4/CC_ISR.c **** *
 269:.\Generated_Source\PSoC4/CC_ISR.c **** * Summary:
 270:.\Generated_Source\PSoC4/CC_ISR.c **** *   Gets the state (enabled, disabled) of the Interrupt.
 271:.\Generated_Source\PSoC4/CC_ISR.c **** *
 272:.\Generated_Source\PSoC4/CC_ISR.c **** * Parameters:
 273:.\Generated_Source\PSoC4/CC_ISR.c **** *   None
 274:.\Generated_Source\PSoC4/CC_ISR.c **** *
 275:.\Generated_Source\PSoC4/CC_ISR.c **** * Return:
 276:.\Generated_Source\PSoC4/CC_ISR.c **** *   1 if enabled, 0 if disabled.
 277:.\Generated_Source\PSoC4/CC_ISR.c **** *
 278:.\Generated_Source\PSoC4/CC_ISR.c **** *******************************************************************************/
 279:.\Generated_Source\PSoC4/CC_ISR.c **** uint8 CC_ISR_GetState(void)
 280:.\Generated_Source\PSoC4/CC_ISR.c **** {
 281:.\Generated_Source\PSoC4/CC_ISR.c ****     /* Get the state of the general interrupt. */
 282:.\Generated_Source\PSoC4/CC_ISR.c ****     return ((*CC_ISR_INTC_SET_EN & (uint32)CC_ISR__INTC_MASK) != 0u) ? 1u:0u;
 283:.\Generated_Source\PSoC4/CC_ISR.c **** }
 284:.\Generated_Source\PSoC4/CC_ISR.c **** 
 285:.\Generated_Source\PSoC4/CC_ISR.c **** 
 286:.\Generated_Source\PSoC4/CC_ISR.c **** /*******************************************************************************
 287:.\Generated_Source\PSoC4/CC_ISR.c **** * Function Name: CC_ISR_Disable
 288:.\Generated_Source\PSoC4/CC_ISR.c **** ********************************************************************************
 289:.\Generated_Source\PSoC4/CC_ISR.c **** *
 290:.\Generated_Source\PSoC4/CC_ISR.c **** * Summary:
 291:.\Generated_Source\PSoC4/CC_ISR.c **** *   Disables the Interrupt.
 292:.\Generated_Source\PSoC4/CC_ISR.c **** *
 293:.\Generated_Source\PSoC4/CC_ISR.c **** * Parameters:
 294:.\Generated_Source\PSoC4/CC_ISR.c **** *   None
 295:.\Generated_Source\PSoC4/CC_ISR.c **** *
 296:.\Generated_Source\PSoC4/CC_ISR.c **** * Return:
ARM GAS  C:\Users\kevin\AppData\Local\Temp\ccOpwhbe.s 			page 7


 297:.\Generated_Source\PSoC4/CC_ISR.c **** *   None
 298:.\Generated_Source\PSoC4/CC_ISR.c **** *
 299:.\Generated_Source\PSoC4/CC_ISR.c **** *******************************************************************************/
 300:.\Generated_Source\PSoC4/CC_ISR.c **** void CC_ISR_Disable(void)
 301:.\Generated_Source\PSoC4/CC_ISR.c **** {
 302:.\Generated_Source\PSoC4/CC_ISR.c ****     /* Disable the general interrupt. */
 303:.\Generated_Source\PSoC4/CC_ISR.c ****     *CC_ISR_INTC_CLR_EN = CC_ISR__INTC_MASK;
  46              		.loc 1 303 0
  47 0000 044B     		ldr	r3, .L3
  48 0002 8022     		mov	r2, #128
  49 0004 5202     		lsl	r2, r2, #9
  50 0006 1A60     		str	r2, [r3]
  51              	.LVL0:
  52              	.LBE19:
  53              	.LBE18:
  54              	.LBB20:
  55              	.LBB21:
 165:.\Generated_Source\PSoC4/CC_ISR.c ****     CyRamVectors[CYINT_IRQ_BASE + CC_ISR__INTC_NUMBER] = address;
  56              		.loc 1 165 0
  57 0008 034B     		ldr	r3, .L3+4
  58 000a 044A     		ldr	r2, .L3+8
  59 000c 0433     		add	r3, r3, #4
  60 000e DA67     		str	r2, [r3, #124]
  61              	.LBE21:
  62              	.LBE20:
 118:.\Generated_Source\PSoC4/CC_ISR.c **** }
  63              		.loc 1 118 0
  64              		@ sp needed
  65 0010 7047     		bx	lr
  66              	.L4:
  67 0012 C046     		.align	2
  68              	.L3:
  69 0014 80E100E0 		.word	-536813184
  70 0018 00000000 		.word	CyRamVectors
  71 001c 00000000 		.word	IntDefaultHandler
  72              		.cfi_endproc
  73              	.LFE2:
  74              		.size	CC_ISR_Stop, .-CC_ISR_Stop
  75              		.section	.text.CC_ISR_SetVector,"ax",%progbits
  76              		.align	1
  77              		.global	CC_ISR_SetVector
  78              		.code	16
  79              		.thumb_func
  80              		.type	CC_ISR_SetVector, %function
  81              	CC_ISR_SetVector:
  82              	.LFB4:
 164:.\Generated_Source\PSoC4/CC_ISR.c **** {
  83              		.loc 1 164 0
  84              		.cfi_startproc
  85              	.LVL1:
 165:.\Generated_Source\PSoC4/CC_ISR.c ****     CyRamVectors[CYINT_IRQ_BASE + CC_ISR__INTC_NUMBER] = address;
  86              		.loc 1 165 0
  87 0000 014B     		ldr	r3, .L6
 166:.\Generated_Source\PSoC4/CC_ISR.c **** }
  88              		.loc 1 166 0
  89              		@ sp needed
 165:.\Generated_Source\PSoC4/CC_ISR.c ****     CyRamVectors[CYINT_IRQ_BASE + CC_ISR__INTC_NUMBER] = address;
ARM GAS  C:\Users\kevin\AppData\Local\Temp\ccOpwhbe.s 			page 8


  90              		.loc 1 165 0
  91 0002 0433     		add	r3, r3, #4
  92 0004 D867     		str	r0, [r3, #124]
 166:.\Generated_Source\PSoC4/CC_ISR.c **** }
  93              		.loc 1 166 0
  94 0006 7047     		bx	lr
  95              	.L7:
  96              		.align	2
  97              	.L6:
  98 0008 00000000 		.word	CyRamVectors
  99              		.cfi_endproc
 100              	.LFE4:
 101              		.size	CC_ISR_SetVector, .-CC_ISR_SetVector
 102              		.section	.text.CC_ISR_GetVector,"ax",%progbits
 103              		.align	1
 104              		.global	CC_ISR_GetVector
 105              		.code	16
 106              		.thumb_func
 107              		.type	CC_ISR_GetVector, %function
 108              	CC_ISR_GetVector:
 109              	.LFB5:
 184:.\Generated_Source\PSoC4/CC_ISR.c **** {
 110              		.loc 1 184 0
 111              		.cfi_startproc
 185:.\Generated_Source\PSoC4/CC_ISR.c ****     return CyRamVectors[CYINT_IRQ_BASE + CC_ISR__INTC_NUMBER];
 112              		.loc 1 185 0
 113 0000 014B     		ldr	r3, .L9
 186:.\Generated_Source\PSoC4/CC_ISR.c **** }
 114              		.loc 1 186 0
 115              		@ sp needed
 185:.\Generated_Source\PSoC4/CC_ISR.c ****     return CyRamVectors[CYINT_IRQ_BASE + CC_ISR__INTC_NUMBER];
 116              		.loc 1 185 0
 117 0002 0433     		add	r3, r3, #4
 118 0004 D86F     		ldr	r0, [r3, #124]
 186:.\Generated_Source\PSoC4/CC_ISR.c **** }
 119              		.loc 1 186 0
 120 0006 7047     		bx	lr
 121              	.L10:
 122              		.align	2
 123              	.L9:
 124 0008 00000000 		.word	CyRamVectors
 125              		.cfi_endproc
 126              	.LFE5:
 127              		.size	CC_ISR_GetVector, .-CC_ISR_GetVector
 128              		.section	.text.CC_ISR_SetPriority,"ax",%progbits
 129              		.align	1
 130              		.global	CC_ISR_SetPriority
 131              		.code	16
 132              		.thumb_func
 133              		.type	CC_ISR_SetPriority, %function
 134              	CC_ISR_SetPriority:
 135              	.LFB6:
 208:.\Generated_Source\PSoC4/CC_ISR.c **** {
 136              		.loc 1 208 0
 137              		.cfi_startproc
 138              	.LVL2:
 139 0000 10B5     		push	{r4, lr}
ARM GAS  C:\Users\kevin\AppData\Local\Temp\ccOpwhbe.s 			page 9


 140              		.cfi_def_cfa_offset 8
 141              		.cfi_offset 4, -8
 142              		.cfi_offset 14, -4
 208:.\Generated_Source\PSoC4/CC_ISR.c **** {
 143              		.loc 1 208 0
 144 0002 041C     		mov	r4, r0
 212:.\Generated_Source\PSoC4/CC_ISR.c **** 	interruptState = CyEnterCriticalSection();
 145              		.loc 1 212 0
 146 0004 FFF7FEFF 		bl	CyEnterCriticalSection
 147              	.LVL3:
 213:.\Generated_Source\PSoC4/CC_ISR.c ****     *CC_ISR_INTC_PRIOR = (*CC_ISR_INTC_PRIOR & (uint32)(~CC_ISR__INTC_PRIOR_MASK)) |
 148              		.loc 1 213 0
 149 0008 054B     		ldr	r3, .L12
 214:.\Generated_Source\PSoC4/CC_ISR.c ****                                     ((uint32)priority << priorityOffset);
 150              		.loc 1 214 0
 151 000a A201     		lsl	r2, r4, #6
 213:.\Generated_Source\PSoC4/CC_ISR.c ****     *CC_ISR_INTC_PRIOR = (*CC_ISR_INTC_PRIOR & (uint32)(~CC_ISR__INTC_PRIOR_MASK)) |
 152              		.loc 1 213 0
 153 000c 1968     		ldr	r1, [r3]
 154 000e C024     		mov	r4, #192
 155 0010 A143     		bic	r1, r4
 156 0012 0C1C     		mov	r4, r1
 157 0014 1443     		orr	r4, r2
 158 0016 1C60     		str	r4, [r3]
 215:.\Generated_Source\PSoC4/CC_ISR.c **** 	CyExitCriticalSection(interruptState);
 159              		.loc 1 215 0
 160 0018 FFF7FEFF 		bl	CyExitCriticalSection
 161              	.LVL4:
 216:.\Generated_Source\PSoC4/CC_ISR.c **** }
 162              		.loc 1 216 0
 163              		@ sp needed
 164 001c 10BD     		pop	{r4, pc}
 165              	.L13:
 166 001e C046     		.align	2
 167              	.L12:
 168 0020 10E400E0 		.word	-536812528
 169              		.cfi_endproc
 170              	.LFE6:
 171              		.size	CC_ISR_SetPriority, .-CC_ISR_SetPriority
 172              		.section	.text.CC_ISR_Start,"ax",%progbits
 173              		.align	1
 174              		.global	CC_ISR_Start
 175              		.code	16
 176              		.thumb_func
 177              		.type	CC_ISR_Start, %function
 178              	CC_ISR_Start:
 179              	.LFB0:
  53:.\Generated_Source\PSoC4/CC_ISR.c **** {
 180              		.loc 1 53 0
 181              		.cfi_startproc
 182 0000 10B5     		push	{r4, lr}
 183              		.cfi_def_cfa_offset 8
 184              		.cfi_offset 4, -8
 185              		.cfi_offset 14, -4
 186              	.LBB22:
 187              	.LBB23:
 188              		.loc 1 303 0
ARM GAS  C:\Users\kevin\AppData\Local\Temp\ccOpwhbe.s 			page 10


 189 0002 074B     		ldr	r3, .L15
 190 0004 8024     		mov	r4, #128
 191 0006 6402     		lsl	r4, r4, #9
 192 0008 1C60     		str	r4, [r3]
 193              	.LVL5:
 194              	.LBE23:
 195              	.LBE22:
 196              	.LBB24:
 197              	.LBB25:
 165:.\Generated_Source\PSoC4/CC_ISR.c ****     CyRamVectors[CYINT_IRQ_BASE + CC_ISR__INTC_NUMBER] = address;
 198              		.loc 1 165 0
 199 000a 064B     		ldr	r3, .L15+4
 200 000c 064A     		ldr	r2, .L15+8
 201 000e 0433     		add	r3, r3, #4
 202              	.LBE25:
 203              	.LBE24:
  61:.\Generated_Source\PSoC4/CC_ISR.c ****     CC_ISR_SetPriority((uint8)CC_ISR_INTC_PRIOR_NUMBER);
 204              		.loc 1 61 0
 205 0010 0320     		mov	r0, #3
 206              	.LBB27:
 207              	.LBB26:
 165:.\Generated_Source\PSoC4/CC_ISR.c ****     CyRamVectors[CYINT_IRQ_BASE + CC_ISR__INTC_NUMBER] = address;
 208              		.loc 1 165 0
 209 0012 DA67     		str	r2, [r3, #124]
 210              	.LBE26:
 211              	.LBE27:
  61:.\Generated_Source\PSoC4/CC_ISR.c ****     CC_ISR_SetPriority((uint8)CC_ISR_INTC_PRIOR_NUMBER);
 212              		.loc 1 61 0
 213 0014 FFF7FEFF 		bl	CC_ISR_SetPriority
 214              	.LVL6:
 215              	.LBB28:
 216              	.LBB29:
 261:.\Generated_Source\PSoC4/CC_ISR.c ****     *CC_ISR_INTC_SET_EN = CC_ISR__INTC_MASK;
 217              		.loc 1 261 0
 218 0018 044B     		ldr	r3, .L15+12
 219              	.LBE29:
 220              	.LBE28:
  65:.\Generated_Source\PSoC4/CC_ISR.c **** }
 221              		.loc 1 65 0
 222              		@ sp needed
 223              	.LBB31:
 224              	.LBB30:
 261:.\Generated_Source\PSoC4/CC_ISR.c ****     *CC_ISR_INTC_SET_EN = CC_ISR__INTC_MASK;
 225              		.loc 1 261 0
 226 001a 1C60     		str	r4, [r3]
 227              	.LBE30:
 228              	.LBE31:
  65:.\Generated_Source\PSoC4/CC_ISR.c **** }
 229              		.loc 1 65 0
 230 001c 10BD     		pop	{r4, pc}
 231              	.L16:
 232 001e C046     		.align	2
 233              	.L15:
 234 0020 80E100E0 		.word	-536813184
 235 0024 00000000 		.word	CyRamVectors
 236 0028 00000000 		.word	CC_ISR_Interrupt
 237 002c 00E100E0 		.word	-536813312
ARM GAS  C:\Users\kevin\AppData\Local\Temp\ccOpwhbe.s 			page 11


 238              		.cfi_endproc
 239              	.LFE0:
 240              		.size	CC_ISR_Start, .-CC_ISR_Start
 241              		.section	.text.CC_ISR_StartEx,"ax",%progbits
 242              		.align	1
 243              		.global	CC_ISR_StartEx
 244              		.code	16
 245              		.thumb_func
 246              		.type	CC_ISR_StartEx, %function
 247              	CC_ISR_StartEx:
 248              	.LFB1:
  83:.\Generated_Source\PSoC4/CC_ISR.c **** {
 249              		.loc 1 83 0
 250              		.cfi_startproc
 251              	.LVL7:
 252 0000 10B5     		push	{r4, lr}
 253              		.cfi_def_cfa_offset 8
 254              		.cfi_offset 4, -8
 255              		.cfi_offset 14, -4
 256              	.LBB32:
 257              	.LBB33:
 258              		.loc 1 303 0
 259 0002 064B     		ldr	r3, .L18
 260 0004 8024     		mov	r4, #128
 261 0006 6402     		lsl	r4, r4, #9
 262 0008 1C60     		str	r4, [r3]
 263              	.LVL8:
 264              	.LBE33:
 265              	.LBE32:
 266              	.LBB34:
 267              	.LBB35:
 165:.\Generated_Source\PSoC4/CC_ISR.c ****     CyRamVectors[CYINT_IRQ_BASE + CC_ISR__INTC_NUMBER] = address;
 268              		.loc 1 165 0
 269 000a 054B     		ldr	r3, .L18+4
 270              	.LBE35:
 271              	.LBE34:
  95:.\Generated_Source\PSoC4/CC_ISR.c **** }
 272              		.loc 1 95 0
 273              		@ sp needed
 274              	.LBB37:
 275              	.LBB36:
 165:.\Generated_Source\PSoC4/CC_ISR.c ****     CyRamVectors[CYINT_IRQ_BASE + CC_ISR__INTC_NUMBER] = address;
 276              		.loc 1 165 0
 277 000c 0433     		add	r3, r3, #4
 278 000e D867     		str	r0, [r3, #124]
 279              	.LBE36:
 280              	.LBE37:
  91:.\Generated_Source\PSoC4/CC_ISR.c ****     CC_ISR_SetPriority((uint8)CC_ISR_INTC_PRIOR_NUMBER);
 281              		.loc 1 91 0
 282 0010 0320     		mov	r0, #3
 283              	.LVL9:
 284 0012 FFF7FEFF 		bl	CC_ISR_SetPriority
 285              	.LVL10:
 286              	.LBB38:
 287              	.LBB39:
 261:.\Generated_Source\PSoC4/CC_ISR.c ****     *CC_ISR_INTC_SET_EN = CC_ISR__INTC_MASK;
 288              		.loc 1 261 0
ARM GAS  C:\Users\kevin\AppData\Local\Temp\ccOpwhbe.s 			page 12


 289 0016 034B     		ldr	r3, .L18+8
 290 0018 1C60     		str	r4, [r3]
 291              	.LBE39:
 292              	.LBE38:
  95:.\Generated_Source\PSoC4/CC_ISR.c **** }
 293              		.loc 1 95 0
 294 001a 10BD     		pop	{r4, pc}
 295              	.L19:
 296              		.align	2
 297              	.L18:
 298 001c 80E100E0 		.word	-536813184
 299 0020 00000000 		.word	CyRamVectors
 300 0024 00E100E0 		.word	-536813312
 301              		.cfi_endproc
 302              	.LFE1:
 303              		.size	CC_ISR_StartEx, .-CC_ISR_StartEx
 304              		.section	.text.CC_ISR_GetPriority,"ax",%progbits
 305              		.align	1
 306              		.global	CC_ISR_GetPriority
 307              		.code	16
 308              		.thumb_func
 309              		.type	CC_ISR_GetPriority, %function
 310              	CC_ISR_GetPriority:
 311              	.LFB7:
 234:.\Generated_Source\PSoC4/CC_ISR.c **** {
 312              		.loc 1 234 0
 313              		.cfi_startproc
 314              	.LVL11:
 238:.\Generated_Source\PSoC4/CC_ISR.c ****     priority = (*CC_ISR_INTC_PRIOR & CC_ISR__INTC_PRIOR_MASK) >> priorityOffset;
 315              		.loc 1 238 0
 316 0000 024B     		ldr	r3, .L21
 241:.\Generated_Source\PSoC4/CC_ISR.c **** }
 317              		.loc 1 241 0
 318              		@ sp needed
 238:.\Generated_Source\PSoC4/CC_ISR.c ****     priority = (*CC_ISR_INTC_PRIOR & CC_ISR__INTC_PRIOR_MASK) >> priorityOffset;
 319              		.loc 1 238 0
 320 0002 1868     		ldr	r0, [r3]
 321              	.LVL12:
 322 0004 0006     		lsl	r0, r0, #24
 323              	.LVL13:
 240:.\Generated_Source\PSoC4/CC_ISR.c ****     return (uint8)priority;
 324              		.loc 1 240 0
 325 0006 800F     		lsr	r0, r0, #30
 241:.\Generated_Source\PSoC4/CC_ISR.c **** }
 326              		.loc 1 241 0
 327 0008 7047     		bx	lr
 328              	.L22:
 329 000a C046     		.align	2
 330              	.L21:
 331 000c 10E400E0 		.word	-536812528
 332              		.cfi_endproc
 333              	.LFE7:
 334              		.size	CC_ISR_GetPriority, .-CC_ISR_GetPriority
 335              		.section	.text.CC_ISR_Enable,"ax",%progbits
 336              		.align	1
 337              		.global	CC_ISR_Enable
 338              		.code	16
ARM GAS  C:\Users\kevin\AppData\Local\Temp\ccOpwhbe.s 			page 13


 339              		.thumb_func
 340              		.type	CC_ISR_Enable, %function
 341              	CC_ISR_Enable:
 342              	.LFB8:
 259:.\Generated_Source\PSoC4/CC_ISR.c **** {
 343              		.loc 1 259 0
 344              		.cfi_startproc
 261:.\Generated_Source\PSoC4/CC_ISR.c ****     *CC_ISR_INTC_SET_EN = CC_ISR__INTC_MASK;
 345              		.loc 1 261 0
 346 0000 024B     		ldr	r3, .L24
 347 0002 8022     		mov	r2, #128
 348 0004 5202     		lsl	r2, r2, #9
 349 0006 1A60     		str	r2, [r3]
 262:.\Generated_Source\PSoC4/CC_ISR.c **** }
 350              		.loc 1 262 0
 351              		@ sp needed
 352 0008 7047     		bx	lr
 353              	.L25:
 354 000a C046     		.align	2
 355              	.L24:
 356 000c 00E100E0 		.word	-536813312
 357              		.cfi_endproc
 358              	.LFE8:
 359              		.size	CC_ISR_Enable, .-CC_ISR_Enable
 360              		.section	.text.CC_ISR_GetState,"ax",%progbits
 361              		.align	1
 362              		.global	CC_ISR_GetState
 363              		.code	16
 364              		.thumb_func
 365              		.type	CC_ISR_GetState, %function
 366              	CC_ISR_GetState:
 367              	.LFB9:
 280:.\Generated_Source\PSoC4/CC_ISR.c **** {
 368              		.loc 1 280 0
 369              		.cfi_startproc
 282:.\Generated_Source\PSoC4/CC_ISR.c ****     return ((*CC_ISR_INTC_SET_EN & (uint32)CC_ISR__INTC_MASK) != 0u) ? 1u:0u;
 370              		.loc 1 282 0
 371 0000 024B     		ldr	r3, .L27
 283:.\Generated_Source\PSoC4/CC_ISR.c **** }
 372              		.loc 1 283 0
 373              		@ sp needed
 282:.\Generated_Source\PSoC4/CC_ISR.c ****     return ((*CC_ISR_INTC_SET_EN & (uint32)CC_ISR__INTC_MASK) != 0u) ? 1u:0u;
 374              		.loc 1 282 0
 375 0002 1868     		ldr	r0, [r3]
 376 0004 C003     		lsl	r0, r0, #15
 377 0006 C00F     		lsr	r0, r0, #31
 283:.\Generated_Source\PSoC4/CC_ISR.c **** }
 378              		.loc 1 283 0
 379 0008 7047     		bx	lr
 380              	.L28:
 381 000a C046     		.align	2
 382              	.L27:
 383 000c 00E100E0 		.word	-536813312
 384              		.cfi_endproc
 385              	.LFE9:
 386              		.size	CC_ISR_GetState, .-CC_ISR_GetState
 387              		.section	.text.CC_ISR_Disable,"ax",%progbits
ARM GAS  C:\Users\kevin\AppData\Local\Temp\ccOpwhbe.s 			page 14


 388              		.align	1
 389              		.global	CC_ISR_Disable
 390              		.code	16
 391              		.thumb_func
 392              		.type	CC_ISR_Disable, %function
 393              	CC_ISR_Disable:
 394              	.LFB10:
 301:.\Generated_Source\PSoC4/CC_ISR.c **** {
 395              		.loc 1 301 0
 396              		.cfi_startproc
 397              		.loc 1 303 0
 398 0000 024B     		ldr	r3, .L30
 399 0002 8022     		mov	r2, #128
 400 0004 5202     		lsl	r2, r2, #9
 401 0006 1A60     		str	r2, [r3]
 304:.\Generated_Source\PSoC4/CC_ISR.c **** }
 402              		.loc 1 304 0
 403              		@ sp needed
 404 0008 7047     		bx	lr
 405              	.L31:
 406 000a C046     		.align	2
 407              	.L30:
 408 000c 80E100E0 		.word	-536813184
 409              		.cfi_endproc
 410              	.LFE10:
 411              		.size	CC_ISR_Disable, .-CC_ISR_Disable
 412              		.section	.text.CC_ISR_SetPending,"ax",%progbits
 413              		.align	1
 414              		.global	CC_ISR_SetPending
 415              		.code	16
 416              		.thumb_func
 417              		.type	CC_ISR_SetPending, %function
 418              	CC_ISR_SetPending:
 419              	.LFB11:
 305:.\Generated_Source\PSoC4/CC_ISR.c **** 
 306:.\Generated_Source\PSoC4/CC_ISR.c **** 
 307:.\Generated_Source\PSoC4/CC_ISR.c **** /*******************************************************************************
 308:.\Generated_Source\PSoC4/CC_ISR.c **** * Function Name: CC_ISR_SetPending
 309:.\Generated_Source\PSoC4/CC_ISR.c **** ********************************************************************************
 310:.\Generated_Source\PSoC4/CC_ISR.c **** *
 311:.\Generated_Source\PSoC4/CC_ISR.c **** * Summary:
 312:.\Generated_Source\PSoC4/CC_ISR.c **** *   Causes the Interrupt to enter the pending state, a software method of
 313:.\Generated_Source\PSoC4/CC_ISR.c **** *   generating the interrupt.
 314:.\Generated_Source\PSoC4/CC_ISR.c **** *
 315:.\Generated_Source\PSoC4/CC_ISR.c **** * Parameters:
 316:.\Generated_Source\PSoC4/CC_ISR.c **** *   None
 317:.\Generated_Source\PSoC4/CC_ISR.c **** *
 318:.\Generated_Source\PSoC4/CC_ISR.c **** * Return:
 319:.\Generated_Source\PSoC4/CC_ISR.c **** *   None
 320:.\Generated_Source\PSoC4/CC_ISR.c **** *
 321:.\Generated_Source\PSoC4/CC_ISR.c **** *******************************************************************************/
 322:.\Generated_Source\PSoC4/CC_ISR.c **** void CC_ISR_SetPending(void)
 323:.\Generated_Source\PSoC4/CC_ISR.c **** {
 420              		.loc 1 323 0
 421              		.cfi_startproc
 324:.\Generated_Source\PSoC4/CC_ISR.c ****     *CC_ISR_INTC_SET_PD = CC_ISR__INTC_MASK;
 422              		.loc 1 324 0
ARM GAS  C:\Users\kevin\AppData\Local\Temp\ccOpwhbe.s 			page 15


 423 0000 024B     		ldr	r3, .L33
 424 0002 8022     		mov	r2, #128
 425 0004 5202     		lsl	r2, r2, #9
 426 0006 1A60     		str	r2, [r3]
 325:.\Generated_Source\PSoC4/CC_ISR.c **** }
 427              		.loc 1 325 0
 428              		@ sp needed
 429 0008 7047     		bx	lr
 430              	.L34:
 431 000a C046     		.align	2
 432              	.L33:
 433 000c 00E200E0 		.word	-536813056
 434              		.cfi_endproc
 435              	.LFE11:
 436              		.size	CC_ISR_SetPending, .-CC_ISR_SetPending
 437              		.section	.text.CC_ISR_ClearPending,"ax",%progbits
 438              		.align	1
 439              		.global	CC_ISR_ClearPending
 440              		.code	16
 441              		.thumb_func
 442              		.type	CC_ISR_ClearPending, %function
 443              	CC_ISR_ClearPending:
 444              	.LFB12:
 326:.\Generated_Source\PSoC4/CC_ISR.c **** 
 327:.\Generated_Source\PSoC4/CC_ISR.c **** 
 328:.\Generated_Source\PSoC4/CC_ISR.c **** /*******************************************************************************
 329:.\Generated_Source\PSoC4/CC_ISR.c **** * Function Name: CC_ISR_ClearPending
 330:.\Generated_Source\PSoC4/CC_ISR.c **** ********************************************************************************
 331:.\Generated_Source\PSoC4/CC_ISR.c **** *
 332:.\Generated_Source\PSoC4/CC_ISR.c **** * Summary:
 333:.\Generated_Source\PSoC4/CC_ISR.c **** *   Clears a pending interrupt.
 334:.\Generated_Source\PSoC4/CC_ISR.c **** *
 335:.\Generated_Source\PSoC4/CC_ISR.c **** * Parameters:
 336:.\Generated_Source\PSoC4/CC_ISR.c **** *   None
 337:.\Generated_Source\PSoC4/CC_ISR.c **** *
 338:.\Generated_Source\PSoC4/CC_ISR.c **** * Return:
 339:.\Generated_Source\PSoC4/CC_ISR.c **** *   None
 340:.\Generated_Source\PSoC4/CC_ISR.c **** *
 341:.\Generated_Source\PSoC4/CC_ISR.c **** *******************************************************************************/
 342:.\Generated_Source\PSoC4/CC_ISR.c **** void CC_ISR_ClearPending(void)
 343:.\Generated_Source\PSoC4/CC_ISR.c **** {
 445              		.loc 1 343 0
 446              		.cfi_startproc
 344:.\Generated_Source\PSoC4/CC_ISR.c ****     *CC_ISR_INTC_CLR_PD = CC_ISR__INTC_MASK;
 447              		.loc 1 344 0
 448 0000 024B     		ldr	r3, .L36
 449 0002 8022     		mov	r2, #128
 450 0004 5202     		lsl	r2, r2, #9
 451 0006 1A60     		str	r2, [r3]
 345:.\Generated_Source\PSoC4/CC_ISR.c **** }
 452              		.loc 1 345 0
 453              		@ sp needed
 454 0008 7047     		bx	lr
 455              	.L37:
 456 000a C046     		.align	2
 457              	.L36:
 458 000c 80E200E0 		.word	-536812928
ARM GAS  C:\Users\kevin\AppData\Local\Temp\ccOpwhbe.s 			page 16


 459              		.cfi_endproc
 460              	.LFE12:
 461              		.size	CC_ISR_ClearPending, .-CC_ISR_ClearPending
 462              		.text
 463              	.Letext0:
 464              		.file 2 ".\\Generated_Source\\PSoC4/cytypes.h"
 465              		.file 3 ".\\Generated_Source\\PSoC4/CyLib.h"