ARM GAS  C:\Users\kevin\AppData\Local\Temp\ccNsDeku.s 			page 1


   1              		.cpu cortex-m0
   2              		.fpu softvfp
   3              		.eabi_attribute 20, 1
   4              		.eabi_attribute 21, 1
   5              		.eabi_attribute 23, 3
   6              		.eabi_attribute 24, 1
   7              		.eabi_attribute 25, 1
   8              		.eabi_attribute 26, 1
   9              		.eabi_attribute 30, 4
  10              		.eabi_attribute 34, 0
  11              		.eabi_attribute 18, 4
  12              		.code	16
  13              		.file	"EEPROM.c"
  14              		.text
  15              	.Ltext0:
  16              		.cfi_sections	.debug_frame
  17              		.section	.text.EEPROM_Start,"ax",%progbits
  18              		.align	1
  19              		.global	EEPROM_Start
  20              		.code	16
  21              		.thumb_func
  22              		.type	EEPROM_Start, %function
  23              	EEPROM_Start:
  24              	.LFB0:
  25              		.file 1 ".\\Generated_Source\\PSoC4\\EEPROM.c"
   1:.\Generated_Source\PSoC4/EEPROM.c **** /*******************************************************************************
   2:.\Generated_Source\PSoC4/EEPROM.c **** * File Name: EEPROM.c
   3:.\Generated_Source\PSoC4/EEPROM.c **** * Version 1.10
   4:.\Generated_Source\PSoC4/EEPROM.c **** *
   5:.\Generated_Source\PSoC4/EEPROM.c **** * Description:
   6:.\Generated_Source\PSoC4/EEPROM.c **** *  This file provides the source code to API for the Emulated EEPROM Component.
   7:.\Generated_Source\PSoC4/EEPROM.c **** *
   8:.\Generated_Source\PSoC4/EEPROM.c **** ********************************************************************************
   9:.\Generated_Source\PSoC4/EEPROM.c **** * Copyright 2013, Cypress Semiconductor Corporation.  All rights reserved.
  10:.\Generated_Source\PSoC4/EEPROM.c **** * You may use this file only in accordance with the license, terms, conditions,
  11:.\Generated_Source\PSoC4/EEPROM.c **** * disclaimers, and limitations in the end user license agreement accompanying
  12:.\Generated_Source\PSoC4/EEPROM.c **** * the software package with which this file was provided.
  13:.\Generated_Source\PSoC4/EEPROM.c **** *******************************************************************************/
  14:.\Generated_Source\PSoC4/EEPROM.c **** 
  15:.\Generated_Source\PSoC4/EEPROM.c **** #include "EEPROM.h"
  16:.\Generated_Source\PSoC4/EEPROM.c **** 
  17:.\Generated_Source\PSoC4/EEPROM.c **** 
  18:.\Generated_Source\PSoC4/EEPROM.c **** /*******************************************************************************
  19:.\Generated_Source\PSoC4/EEPROM.c **** * Function Name: EEPROM_Start
  20:.\Generated_Source\PSoC4/EEPROM.c **** ********************************************************************************
  21:.\Generated_Source\PSoC4/EEPROM.c **** *
  22:.\Generated_Source\PSoC4/EEPROM.c **** * Summary:
  23:.\Generated_Source\PSoC4/EEPROM.c **** *  Empty function. Included for consistency with other
  24:.\Generated_Source\PSoC4/EEPROM.c **** *  components.
  25:.\Generated_Source\PSoC4/EEPROM.c **** *
  26:.\Generated_Source\PSoC4/EEPROM.c **** * Parameters:
  27:.\Generated_Source\PSoC4/EEPROM.c **** *  None
  28:.\Generated_Source\PSoC4/EEPROM.c **** *
  29:.\Generated_Source\PSoC4/EEPROM.c **** * Return:
  30:.\Generated_Source\PSoC4/EEPROM.c **** *  None
  31:.\Generated_Source\PSoC4/EEPROM.c **** *
  32:.\Generated_Source\PSoC4/EEPROM.c **** *******************************************************************************/
ARM GAS  C:\Users\kevin\AppData\Local\Temp\ccNsDeku.s 			page 2


  33:.\Generated_Source\PSoC4/EEPROM.c **** void EEPROM_Start(void) 
  34:.\Generated_Source\PSoC4/EEPROM.c **** {
  26              		.loc 1 34 0
  27              		.cfi_startproc
  35:.\Generated_Source\PSoC4/EEPROM.c **** 
  36:.\Generated_Source\PSoC4/EEPROM.c **** }
  28              		.loc 1 36 0
  29              		@ sp needed
  30 0000 7047     		bx	lr
  31              		.cfi_endproc
  32              	.LFE0:
  33              		.size	EEPROM_Start, .-EEPROM_Start
  34              		.section	.text.EEPROM_Stop,"ax",%progbits
  35              		.align	1
  36              		.global	EEPROM_Stop
  37              		.code	16
  38              		.thumb_func
  39              		.type	EEPROM_Stop, %function
  40              	EEPROM_Stop:
  41              	.LFB1:
  37:.\Generated_Source\PSoC4/EEPROM.c **** 
  38:.\Generated_Source\PSoC4/EEPROM.c **** 
  39:.\Generated_Source\PSoC4/EEPROM.c **** /*******************************************************************************
  40:.\Generated_Source\PSoC4/EEPROM.c **** * Function Name: EEPROM_Stop
  41:.\Generated_Source\PSoC4/EEPROM.c **** ********************************************************************************
  42:.\Generated_Source\PSoC4/EEPROM.c **** *
  43:.\Generated_Source\PSoC4/EEPROM.c **** * Summary:
  44:.\Generated_Source\PSoC4/EEPROM.c **** *  Empty function. Included for consistency with other
  45:.\Generated_Source\PSoC4/EEPROM.c **** *  components.
  46:.\Generated_Source\PSoC4/EEPROM.c **** *
  47:.\Generated_Source\PSoC4/EEPROM.c **** * Parameters:
  48:.\Generated_Source\PSoC4/EEPROM.c **** *  None
  49:.\Generated_Source\PSoC4/EEPROM.c **** *
  50:.\Generated_Source\PSoC4/EEPROM.c **** * Return:
  51:.\Generated_Source\PSoC4/EEPROM.c **** *  None
  52:.\Generated_Source\PSoC4/EEPROM.c **** *
  53:.\Generated_Source\PSoC4/EEPROM.c **** *******************************************************************************/
  54:.\Generated_Source\PSoC4/EEPROM.c **** void EEPROM_Stop(void) 
  55:.\Generated_Source\PSoC4/EEPROM.c **** {
  42              		.loc 1 55 0
  43              		.cfi_startproc
  56:.\Generated_Source\PSoC4/EEPROM.c **** 
  57:.\Generated_Source\PSoC4/EEPROM.c **** }
  44              		.loc 1 57 0
  45              		@ sp needed
  46 0000 7047     		bx	lr
  47              		.cfi_endproc
  48              	.LFE1:
  49              		.size	EEPROM_Stop, .-EEPROM_Stop
  50              		.section	.text.EEPROM_Write,"ax",%progbits
  51              		.align	1
  52              		.global	EEPROM_Write
  53              		.code	16
  54              		.thumb_func
  55              		.type	EEPROM_Write, %function
  56              	EEPROM_Write:
  57              	.LFB2:
ARM GAS  C:\Users\kevin\AppData\Local\Temp\ccNsDeku.s 			page 3


  58:.\Generated_Source\PSoC4/EEPROM.c **** 
  59:.\Generated_Source\PSoC4/EEPROM.c **** 
  60:.\Generated_Source\PSoC4/EEPROM.c **** /*******************************************************************************
  61:.\Generated_Source\PSoC4/EEPROM.c **** * Function Name: EEPROM_Write
  62:.\Generated_Source\PSoC4/EEPROM.c **** ********************************************************************************
  63:.\Generated_Source\PSoC4/EEPROM.c **** *
  64:.\Generated_Source\PSoC4/EEPROM.c **** * Summary:
  65:.\Generated_Source\PSoC4/EEPROM.c **** *  Writes the specified number of bytes from the source buffer in SRAM to the
  66:.\Generated_Source\PSoC4/EEPROM.c **** *  emulated EEPROM array in flash, without modifying other data in flash.
  67:.\Generated_Source\PSoC4/EEPROM.c **** *
  68:.\Generated_Source\PSoC4/EEPROM.c **** * Parameters:
  69:.\Generated_Source\PSoC4/EEPROM.c **** *  srcBuf:    Pointer to the SRAM buffer holding the data to write.
  70:.\Generated_Source\PSoC4/EEPROM.c **** *  eepromPtr: Pointer to the array or variable in flash representing
  71:.\Generated_Source\PSoC4/EEPROM.c **** *             the emulated EEPROM.
  72:.\Generated_Source\PSoC4/EEPROM.c **** *  byteCount: Number of bytes to write from srcBuf to eepromPtr.
  73:.\Generated_Source\PSoC4/EEPROM.c **** *
  74:.\Generated_Source\PSoC4/EEPROM.c **** * Return:
  75:.\Generated_Source\PSoC4/EEPROM.c **** *    CYRET_SUCCESS     Successful write.
  76:.\Generated_Source\PSoC4/EEPROM.c **** *    CYRET_BAD_PARAM   eepromPtr is out of range of flash memory.
  77:.\Generated_Source\PSoC4/EEPROM.c **** *    CYRET_UNKNOWN     Other error in writing flash.
  78:.\Generated_Source\PSoC4/EEPROM.c **** *
  79:.\Generated_Source\PSoC4/EEPROM.c **** *******************************************************************************/
  80:.\Generated_Source\PSoC4/EEPROM.c **** #if (CY_PSOC3)
  81:.\Generated_Source\PSoC4/EEPROM.c ****     cystatus EEPROM_Write(const uint8 srcBuf[], const uint8 eepromPtr[], uint16 byteCount)
  82:.\Generated_Source\PSoC4/EEPROM.c ****                                                                             
  83:.\Generated_Source\PSoC4/EEPROM.c **** #else
  84:.\Generated_Source\PSoC4/EEPROM.c ****     cystatus EEPROM_Write(const uint8 srcBuf[], const uint8 eepromPtr[], uint32 byteCount)
  85:.\Generated_Source\PSoC4/EEPROM.c **** #endif /* (!CY_PSOC3) */
  86:.\Generated_Source\PSoC4/EEPROM.c **** {
  58              		.loc 1 86 0
  59              		.cfi_startproc
  60              	.LVL0:
  61 0000 F0B5     		push	{r4, r5, r6, r7, lr}
  62              		.cfi_def_cfa_offset 20
  63              		.cfi_offset 4, -20
  64              		.cfi_offset 5, -16
  65              		.cfi_offset 6, -12
  66              		.cfi_offset 7, -8
  67              		.cfi_offset 14, -4
  87:.\Generated_Source\PSoC4/EEPROM.c ****     uint8 writeBuffer[CY_FLASH_SIZEOF_ROW];
  88:.\Generated_Source\PSoC4/EEPROM.c ****     uint32 arrayId;
  89:.\Generated_Source\PSoC4/EEPROM.c ****     uint32 rowId;
  90:.\Generated_Source\PSoC4/EEPROM.c ****     uint32 dstIndex;
  91:.\Generated_Source\PSoC4/EEPROM.c ****     uint32 srcIndex;
  92:.\Generated_Source\PSoC4/EEPROM.c ****     cystatus rc;
  93:.\Generated_Source\PSoC4/EEPROM.c ****     uint32 eeOffset;
  94:.\Generated_Source\PSoC4/EEPROM.c ****     uint32 byteOffset;
  95:.\Generated_Source\PSoC4/EEPROM.c ****     
  96:.\Generated_Source\PSoC4/EEPROM.c ****     #if (!CY_PSOC4)
  97:.\Generated_Source\PSoC4/EEPROM.c ****         #if (CYDEV_ECC_ENABLE == 0)
  98:.\Generated_Source\PSoC4/EEPROM.c ****             uint8 rowBuffer[CY_FLASH_SIZEOF_ROW + CY_FLASH_SIZEOF_ECC_ROW];
  99:.\Generated_Source\PSoC4/EEPROM.c ****         #endif /* CYDEV_ECC_ENABLE == 0) */
 100:.\Generated_Source\PSoC4/EEPROM.c ****     #endif /* (!CY_PSOC4) */
 101:.\Generated_Source\PSoC4/EEPROM.c **** 
 102:.\Generated_Source\PSoC4/EEPROM.c ****     eeOffset = (uint32)eepromPtr;
 103:.\Generated_Source\PSoC4/EEPROM.c ****     #if (CY_PSOC3)
 104:.\Generated_Source\PSoC4/EEPROM.c ****         eeOffset &= EEPROM_CODE_ADDR_MASK;
ARM GAS  C:\Users\kevin\AppData\Local\Temp\ccNsDeku.s 			page 4


 105:.\Generated_Source\PSoC4/EEPROM.c ****     #endif /* (CY_PSOC3) */
 106:.\Generated_Source\PSoC4/EEPROM.c **** 
 107:.\Generated_Source\PSoC4/EEPROM.c ****     /* Make sure, that eepromPtr[] points to ROM */
 108:.\Generated_Source\PSoC4/EEPROM.c ****     #if (CY_PSOC3)
 109:.\Generated_Source\PSoC4/EEPROM.c ****         if (((uint32)eepromPtr >= EEPROM_CODE_ADDR_OFFSET) &&
 110:.\Generated_Source\PSoC4/EEPROM.c ****             (((uint32)eepromPtr + byteCount) <= EEPROM_CODE_ADDR_END))
 111:.\Generated_Source\PSoC4/EEPROM.c ****     #else
 112:.\Generated_Source\PSoC4/EEPROM.c ****         if (((uint32)eepromPtr + byteCount) < EEPROM_FLASH_END_ADDR)
  68              		.loc 1 112 0
  69 0002 1D4B     		ldr	r3, .L17
  86:.\Generated_Source\PSoC4/EEPROM.c **** {
  70              		.loc 1 86 0
  71 0004 A5B0     		sub	sp, sp, #148
  72              		.cfi_def_cfa_offset 168
  86:.\Generated_Source\PSoC4/EEPROM.c **** {
  73              		.loc 1 86 0
  74 0006 0292     		str	r2, [sp, #8]
  75              		.loc 1 112 0
  76 0008 8A18     		add	r2, r1, r2
  77              	.LVL1:
  86:.\Generated_Source\PSoC4/EEPROM.c **** {
  78              		.loc 1 86 0
  79 000a 0390     		str	r0, [sp, #12]
  80 000c 0F1C     		mov	r7, r1
 113:.\Generated_Source\PSoC4/EEPROM.c ****     #endif /* (CY_PSOC3) */
 114:.\Generated_Source\PSoC4/EEPROM.c ****     {
 115:.\Generated_Source\PSoC4/EEPROM.c ****         #if (!CY_PSOC4)
 116:.\Generated_Source\PSoC4/EEPROM.c ****             (void)CySetTemp();
 117:.\Generated_Source\PSoC4/EEPROM.c **** 
 118:.\Generated_Source\PSoC4/EEPROM.c ****             #if(CYDEV_ECC_ENABLE == 0)
 119:.\Generated_Source\PSoC4/EEPROM.c ****                 (void)CySetFlashEEBuffer(rowBuffer);
 120:.\Generated_Source\PSoC4/EEPROM.c ****             #endif
 121:.\Generated_Source\PSoC4/EEPROM.c ****         #endif /* (!CY_PSOC4) */
 122:.\Generated_Source\PSoC4/EEPROM.c **** 
 123:.\Generated_Source\PSoC4/EEPROM.c ****         arrayId = eeOffset / CY_FLASH_SIZEOF_ARRAY;
 124:.\Generated_Source\PSoC4/EEPROM.c ****         rowId = (eeOffset / CY_FLASH_SIZEOF_ROW) % EEPROM_ROWS_IN_ARRAY;
 125:.\Generated_Source\PSoC4/EEPROM.c ****         byteOffset = (CY_FLASH_SIZEOF_ARRAY * arrayId) + (CY_FLASH_SIZEOF_ROW * rowId);
 126:.\Generated_Source\PSoC4/EEPROM.c ****         srcIndex = 0u;
 127:.\Generated_Source\PSoC4/EEPROM.c **** 
 128:.\Generated_Source\PSoC4/EEPROM.c ****         rc = CYRET_SUCCESS;
 129:.\Generated_Source\PSoC4/EEPROM.c **** 
 130:.\Generated_Source\PSoC4/EEPROM.c ****         while ((srcIndex < byteCount) && (CYRET_SUCCESS == rc))
 131:.\Generated_Source\PSoC4/EEPROM.c ****         {
 132:.\Generated_Source\PSoC4/EEPROM.c ****             /* Copy data to the write buffer either from the source buffer or from the flash */
 133:.\Generated_Source\PSoC4/EEPROM.c ****             for (dstIndex = 0u; dstIndex < CY_FLASH_SIZEOF_ROW; dstIndex++)
 134:.\Generated_Source\PSoC4/EEPROM.c ****             {
 135:.\Generated_Source\PSoC4/EEPROM.c ****                 if ((byteOffset >= eeOffset) && (srcIndex < byteCount))
 136:.\Generated_Source\PSoC4/EEPROM.c ****                 {
 137:.\Generated_Source\PSoC4/EEPROM.c ****                     writeBuffer[dstIndex] = srcBuf[srcIndex];
 138:.\Generated_Source\PSoC4/EEPROM.c ****                     srcIndex++;
 139:.\Generated_Source\PSoC4/EEPROM.c ****                 }
 140:.\Generated_Source\PSoC4/EEPROM.c ****                 else
 141:.\Generated_Source\PSoC4/EEPROM.c ****                 {
 142:.\Generated_Source\PSoC4/EEPROM.c ****                     writeBuffer[dstIndex] = CY_GET_XTND_REG8(CYDEV_FLASH_BASE + byteOffset);
 143:.\Generated_Source\PSoC4/EEPROM.c ****                 }
 144:.\Generated_Source\PSoC4/EEPROM.c ****                 byteOffset++;
 145:.\Generated_Source\PSoC4/EEPROM.c ****             }
ARM GAS  C:\Users\kevin\AppData\Local\Temp\ccNsDeku.s 			page 5


 146:.\Generated_Source\PSoC4/EEPROM.c **** 
 147:.\Generated_Source\PSoC4/EEPROM.c ****             /* Write flash row */
 148:.\Generated_Source\PSoC4/EEPROM.c ****             #if (CY_PSOC4)
 149:.\Generated_Source\PSoC4/EEPROM.c ****                 rc = CySysFlashWriteRow(rowId, writeBuffer);
 150:.\Generated_Source\PSoC4/EEPROM.c ****             #else
 151:.\Generated_Source\PSoC4/EEPROM.c ****                 rc = CyWriteRowData((uint8)arrayId, (uint16)rowId, writeBuffer);
 152:.\Generated_Source\PSoC4/EEPROM.c ****             #endif /* (CY_PSOC4) */
 153:.\Generated_Source\PSoC4/EEPROM.c **** 
 154:.\Generated_Source\PSoC4/EEPROM.c ****             /* Go to the next row */
 155:.\Generated_Source\PSoC4/EEPROM.c ****             rowId++;
 156:.\Generated_Source\PSoC4/EEPROM.c ****             #if (CY_FLASH_NUMBER_ARRAYS > 1)
 157:.\Generated_Source\PSoC4/EEPROM.c ****                 if (rowId >= EEPROM_ROWS_IN_ARRAY)
 158:.\Generated_Source\PSoC4/EEPROM.c ****                 {
 159:.\Generated_Source\PSoC4/EEPROM.c ****                     arrayId++;
 160:.\Generated_Source\PSoC4/EEPROM.c ****                     rowId = 0u;
 161:.\Generated_Source\PSoC4/EEPROM.c ****                 }
 162:.\Generated_Source\PSoC4/EEPROM.c ****             #endif /* (CY_FLASH_NUMBER_ARRAYS > 1) */
 163:.\Generated_Source\PSoC4/EEPROM.c ****         }
 164:.\Generated_Source\PSoC4/EEPROM.c **** 
 165:.\Generated_Source\PSoC4/EEPROM.c ****         /* Flush both Cache and PHUB prefetch buffer */
 166:.\Generated_Source\PSoC4/EEPROM.c ****         #if (CY_PSOC5)
 167:.\Generated_Source\PSoC4/EEPROM.c ****             CyFlushCache();
 168:.\Generated_Source\PSoC4/EEPROM.c ****         #elif (CY_PSOC3)
 169:.\Generated_Source\PSoC4/EEPROM.c ****             CY_FLASH_CONTROL_REG |= 6u;
 170:.\Generated_Source\PSoC4/EEPROM.c ****         #endif /* (CY_PSOC5) */
 171:.\Generated_Source\PSoC4/EEPROM.c ****     }
 172:.\Generated_Source\PSoC4/EEPROM.c ****     else
 173:.\Generated_Source\PSoC4/EEPROM.c ****     {
 174:.\Generated_Source\PSoC4/EEPROM.c ****         rc = CYRET_BAD_PARAM;
  81              		.loc 1 174 0
  82 000e 0120     		mov	r0, #1
  83              	.LVL2:
 112:.\Generated_Source\PSoC4/EEPROM.c ****         if (((uint32)eepromPtr + byteCount) < EEPROM_FLASH_END_ADDR)
  84              		.loc 1 112 0
  85 0010 9A42     		cmp	r2, r3
  86 0012 2ED8     		bhi	.L10
  87              	.LVL3:
 124:.\Generated_Source\PSoC4/EEPROM.c ****         rowId = (eeOffset / CY_FLASH_SIZEOF_ROW) % EEPROM_ROWS_IN_ARRAY;
  88              		.loc 1 124 0
  89 0014 CB09     		lsr	r3, r1, #7
 123:.\Generated_Source\PSoC4/EEPROM.c ****         arrayId = eeOffset / CY_FLASH_SIZEOF_ARRAY;
  90              		.loc 1 123 0
  91 0016 CC0B     		lsr	r4, r1, #15
  92              	.LVL4:
 124:.\Generated_Source\PSoC4/EEPROM.c ****         rowId = (eeOffset / CY_FLASH_SIZEOF_ROW) % EEPROM_ROWS_IN_ARRAY;
  93              		.loc 1 124 0
  94 0018 DBB2     		uxtb	r3, r3
 125:.\Generated_Source\PSoC4/EEPROM.c ****         byteOffset = (CY_FLASH_SIZEOF_ARRAY * arrayId) + (CY_FLASH_SIZEOF_ROW * rowId);
  95              		.loc 1 125 0
  96 001a 2402     		lsl	r4, r4, #8
  97              	.LVL5:
  98 001c E418     		add	r4, r4, r3
  99 001e E401     		lsl	r4, r4, #7
 100 0020 04AE     		add	r6, sp, #16
 128:.\Generated_Source\PSoC4/EEPROM.c ****         rc = CYRET_SUCCESS;
 101              		.loc 1 128 0
 102 0022 0020     		mov	r0, #0
ARM GAS  C:\Users\kevin\AppData\Local\Temp\ccNsDeku.s 			page 6


 124:.\Generated_Source\PSoC4/EEPROM.c ****         rowId = (eeOffset / CY_FLASH_SIZEOF_ROW) % EEPROM_ROWS_IN_ARRAY;
 103              		.loc 1 124 0
 104 0024 0193     		str	r3, [sp, #4]
 105              	.LVL6:
 106 0026 361B     		sub	r6, r6, r4
 126:.\Generated_Source\PSoC4/EEPROM.c ****         srcIndex = 0u;
 107              		.loc 1 126 0
 108 0028 051C     		mov	r5, r0
 109              	.LVL7:
 110              	.L5:
 130:.\Generated_Source\PSoC4/EEPROM.c ****         while ((srcIndex < byteCount) && (CYRET_SUCCESS == rc))
 111              		.loc 1 130 0 discriminator 1
 112 002a 029B     		ldr	r3, [sp, #8]
 113 002c 9D42     		cmp	r5, r3
 114 002e 04D3     		bcc	.L9
 115              	.L11:
 175:.\Generated_Source\PSoC4/EEPROM.c ****     }
 176:.\Generated_Source\PSoC4/EEPROM.c **** 
 177:.\Generated_Source\PSoC4/EEPROM.c ****     /* Mask return codes from flash, if they are not supported */
 178:.\Generated_Source\PSoC4/EEPROM.c ****     if ((CYRET_SUCCESS != rc) && (CYRET_BAD_PARAM != rc))
 116              		.loc 1 178 0
 117 0030 0128     		cmp	r0, #1
 118 0032 1ED9     		bls	.L10
 179:.\Generated_Source\PSoC4/EEPROM.c ****     {
 180:.\Generated_Source\PSoC4/EEPROM.c ****         rc = CYRET_UNKNOWN;
 119              		.loc 1 180 0
 120 0034 0120     		mov	r0, #1
 121              	.LVL8:
 122 0036 4042     		neg	r0, r0
 123 0038 1BE0     		b	.L10
 124              	.LVL9:
 125              	.L9:
 130:.\Generated_Source\PSoC4/EEPROM.c ****         while ((srcIndex < byteCount) && (CYRET_SUCCESS == rc))
 126              		.loc 1 130 0 discriminator 2
 127 003a 0028     		cmp	r0, #0
 128 003c F8D1     		bne	.L11
 129 003e 231C     		mov	r3, r4
 130 0040 8033     		add	r3, r3, #128
 131              	.L12:
 132              	.LVL10:
 135:.\Generated_Source\PSoC4/EEPROM.c ****                 if ((byteOffset >= eeOffset) && (srcIndex < byteCount))
 133              		.loc 1 135 0
 134 0042 A742     		cmp	r7, r4
 135 0044 07D8     		bhi	.L6
 135:.\Generated_Source\PSoC4/EEPROM.c ****                 if ((byteOffset >= eeOffset) && (srcIndex < byteCount))
 136              		.loc 1 135 0 is_stmt 0 discriminator 1
 137 0046 0299     		ldr	r1, [sp, #8]
 138 0048 8D42     		cmp	r5, r1
 139 004a 04D2     		bcs	.L6
 137:.\Generated_Source\PSoC4/EEPROM.c ****                     writeBuffer[dstIndex] = srcBuf[srcIndex];
 140              		.loc 1 137 0 is_stmt 1
 141 004c 0399     		ldr	r1, [sp, #12]
 142 004e 4A5D     		ldrb	r2, [r1, r5]
 138:.\Generated_Source\PSoC4/EEPROM.c ****                     srcIndex++;
 143              		.loc 1 138 0
 144 0050 0135     		add	r5, r5, #1
 145              	.LVL11:
ARM GAS  C:\Users\kevin\AppData\Local\Temp\ccNsDeku.s 			page 7


 137:.\Generated_Source\PSoC4/EEPROM.c ****                     writeBuffer[dstIndex] = srcBuf[srcIndex];
 146              		.loc 1 137 0
 147 0052 3255     		strb	r2, [r6, r4]
 138:.\Generated_Source\PSoC4/EEPROM.c ****                     srcIndex++;
 148              		.loc 1 138 0
 149 0054 01E0     		b	.L7
 150              	.L6:
 142:.\Generated_Source\PSoC4/EEPROM.c ****                     writeBuffer[dstIndex] = CY_GET_XTND_REG8(CYDEV_FLASH_BASE + byteOffset);
 151              		.loc 1 142 0
 152 0056 2278     		ldrb	r2, [r4]
 153 0058 3255     		strb	r2, [r6, r4]
 154              	.L7:
 144:.\Generated_Source\PSoC4/EEPROM.c ****                 byteOffset++;
 155              		.loc 1 144 0
 156 005a 0134     		add	r4, r4, #1
 157              	.LVL12:
 133:.\Generated_Source\PSoC4/EEPROM.c ****             for (dstIndex = 0u; dstIndex < CY_FLASH_SIZEOF_ROW; dstIndex++)
 158              		.loc 1 133 0
 159 005c 9C42     		cmp	r4, r3
 160 005e F0D1     		bne	.L12
 149:.\Generated_Source\PSoC4/EEPROM.c ****                 rc = CySysFlashWriteRow(rowId, writeBuffer);
 161              		.loc 1 149 0
 162 0060 0198     		ldr	r0, [sp, #4]
 163              	.LVL13:
 164 0062 04A9     		add	r1, sp, #16
 165 0064 FFF7FEFF 		bl	CySysFlashWriteRow
 166              	.LVL14:
 155:.\Generated_Source\PSoC4/EEPROM.c ****             rowId++;
 167              		.loc 1 155 0
 168 0068 019A     		ldr	r2, [sp, #4]
 169 006a 803E     		sub	r6, r6, #128
 170 006c 0132     		add	r2, r2, #1
 171 006e 0192     		str	r2, [sp, #4]
 172              	.LVL15:
 173 0070 DBE7     		b	.L5
 174              	.LVL16:
 175              	.L10:
 181:.\Generated_Source\PSoC4/EEPROM.c ****     }
 182:.\Generated_Source\PSoC4/EEPROM.c ****     
 183:.\Generated_Source\PSoC4/EEPROM.c ****     return (rc);
 184:.\Generated_Source\PSoC4/EEPROM.c **** }
 176              		.loc 1 184 0
 177 0072 25B0     		add	sp, sp, #148
 178              		@ sp needed
 179              	.LVL17:
 180 0074 F0BD     		pop	{r4, r5, r6, r7, pc}
 181              	.L18:
 182 0076 C046     		.align	2
 183              	.L17:
 184 0078 FF7F0000 		.word	32767
 185              		.cfi_endproc
 186              	.LFE2:
 187              		.size	EEPROM_Write, .-EEPROM_Write
 188              		.text
 189              	.Letext0:
 190              		.file 2 ".\\Generated_Source\\PSoC4\\cytypes.h"
 191              		.file 3 ".\\Generated_Source\\PSoC4\\CyFlash.h"
ARM GAS  C:\Users\kevin\AppData\Local\Temp\ccNsDeku.s 			page 8

