ARM GAS  C:\Users\kevin\AppData\Local\Temp\ccU6aqpd.s 			page 1


   1              		.cpu cortex-m0
   2              		.fpu softvfp
   3              		.eabi_attribute 20, 1
   4              		.eabi_attribute 21, 1
   5              		.eabi_attribute 23, 3
   6              		.eabi_attribute 24, 1
   7              		.eabi_attribute 25, 1
   8              		.eabi_attribute 26, 1
   9              		.eabi_attribute 30, 4
  10              		.eabi_attribute 34, 0
  11              		.eabi_attribute 18, 4
  12              		.code	16
  13              		.file	"flash_wr_rd.c"
  14              		.text
  15              	.Ltext0:
  16              		.cfi_sections	.debug_frame
  17              		.section	.text.Flash_Write_aRow_Data,"ax",%progbits
  18              		.align	1
  19              		.global	Flash_Write_aRow_Data
  20              		.code	16
  21              		.thumb_func
  22              		.type	Flash_Write_aRow_Data, %function
  23              	Flash_Write_aRow_Data:
  24              	.LFB33:
  25              		.file 1 ".\\flash_wr_rd.c"
   1:.\flash_wr_rd.c **** /* ========================================
   2:.\flash_wr_rd.c ****  *
   3:.\flash_wr_rd.c ****  * Copyright YOUR COMPANY, THE YEAR
   4:.\flash_wr_rd.c ****  * All Rights Reserved
   5:.\flash_wr_rd.c ****  * UNPUBLISHED, LICENSED SOFTWARE.
   6:.\flash_wr_rd.c ****  *
   7:.\flash_wr_rd.c ****  * CONFIDENTIAL AND PROPRIETARY INFORMATION
   8:.\flash_wr_rd.c ****  * WHICH IS THE PROPERTY OF your company.
   9:.\flash_wr_rd.c ****  *
  10:.\flash_wr_rd.c ****  * ========================================
  11:.\flash_wr_rd.c **** */
  12:.\flash_wr_rd.c **** #define _FLASH_WR_RD_
  13:.\flash_wr_rd.c **** #include "flash_wr_rd.h"
  14:.\flash_wr_rd.c **** #include <project.h>
  15:.\flash_wr_rd.c **** 
  16:.\flash_wr_rd.c **** void Flash_Write_aRow_Data(uint8 databuf[])
  17:.\flash_wr_rd.c **** {
  26              		.loc 1 17 0
  27              		.cfi_startproc
  28              	.LVL0:
  29 0000 10B5     		push	{r4, lr}
  30              		.cfi_def_cfa_offset 8
  31              		.cfi_offset 4, -8
  32              		.cfi_offset 14, -4
  33              		.loc 1 17 0
  34 0002 041C     		mov	r4, r0
  18:.\flash_wr_rd.c ****     //uint32 flashWriteResult;
  19:.\flash_wr_rd.c ****     /* Configure the Flash Writes for the current clock frequency */
  20:.\flash_wr_rd.c ****     CySysFlashSetWaitCycles(48);           
  35              		.loc 1 20 0
  36 0004 3020     		mov	r0, #48
  37              	.LVL1:
ARM GAS  C:\Users\kevin\AppData\Local\Temp\ccU6aqpd.s 			page 2


  38 0006 FFF7FEFF 		bl	CySysFlashSetWaitCycles
  39              	.LVL2:
  21:.\flash_wr_rd.c ****     /* Write the SRAM array into flash */
  22:.\flash_wr_rd.c ****     CySysFlashWriteRow(FLASH_DATA_BASE_ROW_NUM, databuf);
  40              		.loc 1 22 0
  41 000a 211C     		mov	r1, r4
  42 000c FE20     		mov	r0, #254
  43 000e FFF7FEFF 		bl	CySysFlashWriteRow
  44              	.LVL3:
  23:.\flash_wr_rd.c **** }
  45              		.loc 1 23 0
  46              		@ sp needed
  47              	.LVL4:
  48 0012 10BD     		pop	{r4, pc}
  49              		.cfi_endproc
  50              	.LFE33:
  51              		.size	Flash_Write_aRow_Data, .-Flash_Write_aRow_Data
  52              		.section	.text.Flash_Write_aRow_Data_Sys,"ax",%progbits
  53              		.align	1
  54              		.global	Flash_Write_aRow_Data_Sys
  55              		.code	16
  56              		.thumb_func
  57              		.type	Flash_Write_aRow_Data_Sys, %function
  58              	Flash_Write_aRow_Data_Sys:
  59              	.LFB34:
  24:.\flash_wr_rd.c **** void Flash_Write_aRow_Data_Sys(uint8 databuf[])
  25:.\flash_wr_rd.c **** {
  60              		.loc 1 25 0
  61              		.cfi_startproc
  62              	.LVL5:
  63 0000 10B5     		push	{r4, lr}
  64              		.cfi_def_cfa_offset 8
  65              		.cfi_offset 4, -8
  66              		.cfi_offset 14, -4
  67              		.loc 1 25 0
  68 0002 041C     		mov	r4, r0
  26:.\flash_wr_rd.c ****     //uint32 flashWriteResult;
  27:.\flash_wr_rd.c ****     /* Configure the Flash Writes for the current clock frequency */
  28:.\flash_wr_rd.c ****     CySysFlashSetWaitCycles(48);      
  69              		.loc 1 28 0
  70 0004 3020     		mov	r0, #48
  71              	.LVL6:
  72 0006 FFF7FEFF 		bl	CySysFlashSetWaitCycles
  73              	.LVL7:
  29:.\flash_wr_rd.c ****     /* Write the SRAM array into flash */
  30:.\flash_wr_rd.c ****     CySysFlashWriteRow(FLASH_DATA_BASE_ROW_NUM_SYS, databuf);
  74              		.loc 1 30 0
  75 000a 211C     		mov	r1, r4
  76 000c FD20     		mov	r0, #253
  77 000e FFF7FEFF 		bl	CySysFlashWriteRow
  78              	.LVL8:
  31:.\flash_wr_rd.c **** }
  79              		.loc 1 31 0
  80              		@ sp needed
  81              	.LVL9:
  82 0012 10BD     		pop	{r4, pc}
  83              		.cfi_endproc
ARM GAS  C:\Users\kevin\AppData\Local\Temp\ccU6aqpd.s 			page 3


  84              	.LFE34:
  85              		.size	Flash_Write_aRow_Data_Sys, .-Flash_Write_aRow_Data_Sys
  86              		.section	.text.Flash_Read_aByte,"ax",%progbits
  87              		.align	1
  88              		.global	Flash_Read_aByte
  89              		.code	16
  90              		.thumb_func
  91              		.type	Flash_Read_aByte, %function
  92              	Flash_Read_aByte:
  93              	.LFB35:
  32:.\flash_wr_rd.c **** uint8 Flash_Read_aByte(uint8 offsetadr)
  33:.\flash_wr_rd.c **** {
  94              		.loc 1 33 0
  95              		.cfi_startproc
  96              	.LVL10:
  34:.\flash_wr_rd.c ****     uint8 *pp;
  35:.\flash_wr_rd.c ****     uint8 redata;
  36:.\flash_wr_rd.c ****     pp = FLASH_DATA_BASE_ROW_START_ADDRESS + offsetadr;   
  37:.\flash_wr_rd.c ****     redata = *pp;  
  38:.\flash_wr_rd.c ****     return(redata);
  97              		.loc 1 38 0
  98 0000 FE23     		mov	r3, #254
  99 0002 DB01     		lsl	r3, r3, #7
 100 0004 C05C     		ldrb	r0, [r0, r3]
 101              	.LVL11:
  39:.\flash_wr_rd.c **** }
 102              		.loc 1 39 0
 103              		@ sp needed
 104 0006 7047     		bx	lr
 105              		.cfi_endproc
 106              	.LFE35:
 107              		.size	Flash_Read_aByte, .-Flash_Read_aByte
 108              		.section	.text.Flash_Read_aByte_Sys,"ax",%progbits
 109              		.align	1
 110              		.global	Flash_Read_aByte_Sys
 111              		.code	16
 112              		.thumb_func
 113              		.type	Flash_Read_aByte_Sys, %function
 114              	Flash_Read_aByte_Sys:
 115              	.LFB36:
  40:.\flash_wr_rd.c **** uint8 Flash_Read_aByte_Sys(uint8 offsetadr)
  41:.\flash_wr_rd.c **** {
 116              		.loc 1 41 0
 117              		.cfi_startproc
 118              	.LVL12:
  42:.\flash_wr_rd.c ****     uint8 *pp;
  43:.\flash_wr_rd.c ****     uint8 redata;
  44:.\flash_wr_rd.c ****     pp = FLASH_DATA_BASE_ROW_START_ADDRESS_SYS + offsetadr;   
  45:.\flash_wr_rd.c ****     redata = *pp;  
  46:.\flash_wr_rd.c ****     return(redata);
 119              		.loc 1 46 0
 120 0000 FD23     		mov	r3, #253
 121 0002 DB01     		lsl	r3, r3, #7
 122 0004 C05C     		ldrb	r0, [r0, r3]
 123              	.LVL13:
  47:.\flash_wr_rd.c **** }
 124              		.loc 1 47 0
ARM GAS  C:\Users\kevin\AppData\Local\Temp\ccU6aqpd.s 			page 4


 125              		@ sp needed
 126 0006 7047     		bx	lr
 127              		.cfi_endproc
 128              	.LFE36:
 129              		.size	Flash_Read_aByte_Sys, .-Flash_Read_aByte_Sys
 130              		.comm	FlashDataBuf,128,1
 131              		.text
 132              	.Letext0:
 133              		.file 2 ".\\Generated_Source\\PSoC4/cytypes.h"
 134              		.file 3 ".\\Generated_Source\\PSoC4/CyFlash.h"
 135              		.file 4 ".\\flash_wr_rd.h"