ARM GAS  C:\Users\kevin\AppData\Local\Temp\ccrZUpt9.s 			page 1


   1              		.cpu cortex-m0
   2              		.fpu softvfp
   3              		.eabi_attribute 20, 1
   4              		.eabi_attribute 21, 1
   5              		.eabi_attribute 23, 3
   6              		.eabi_attribute 24, 1
   7              		.eabi_attribute 25, 1
   8              		.eabi_attribute 26, 1
   9              		.eabi_attribute 30, 4
  10              		.eabi_attribute 34, 0
  11              		.eabi_attribute 18, 4
  12              		.code	16
  13              		.file	"main.c"
  14              		.text
  15              	.Ltext0:
  16              		.cfi_sections	.debug_frame
  17              		.section	.text.isr_wdt,"ax",%progbits
  18              		.align	1
  19              		.global	isr_wdt
  20              		.code	16
  21              		.thumb_func
  22              		.type	isr_wdt, %function
  23              	isr_wdt:
  24              	.LFB55:
  25              		.file 1 ".\\main.c"
   1:.\main.c      **** /* ========================================
   2:.\main.c      ****  *
   3:.\main.c      ****  * Copyright YOUR COMPANY, THE YEAR
   4:.\main.c      ****  * All Rights Reserved
   5:.\main.c      ****  * UNPUBLISHED, LICENSED SOFTWARE.
   6:.\main.c      ****  *
   7:.\main.c      ****  * CONFIDENTIAL AND PROPRIETARY INFORMATION
   8:.\main.c      ****  * WHICH IS THE PROPERTY OF your company.
   9:.\main.c      ****  *
  10:.\main.c      ****  * ========================================
  11:.\main.c      **** */
  12:.\main.c      **** 
  13:.\main.c      **** #define _MAIN_
  14:.\main.c      **** #include <project.h>
  15:.\main.c      **** #include "uart_0.c"
  16:.\main.c      **** #include "uart_1.c"
  17:.\main.c      **** #include "config.h"
  18:.\main.c      **** 
  19:.\main.c      **** uint8 UartRx,BootloaderSign;
  20:.\main.c      **** uint32 Dly,Dly1;
  21:.\main.c      **** uint8 NbPressCnt,NBfig,NBPressCnt,NBPressStart,lXXZcnt_fig;//南北计数,缺水标志,
  22:.\main.c      **** uint16 LvxinJishi[12];
  23:.\main.c      **** uint8 BUZfkg,qushui_BUZcnt,BUZfkgtemp,BUZqueshuifkg,standkeyfig;
  24:.\main.c      **** uint8 dismode,V24fig,V24dengdai;
  25:.\main.c      **** uint8 V24Vcnt;
  26:.\main.c      **** uint8 Ack_Timer;              //应答时间设置
  27:.\main.c      **** uint8 TimeBase_Interrupt_CountOne,TimeBase_Interrupt_CountTwo;
  28:.\main.c      **** uint16 TimeBase_Interrupt_CountThree;
  29:.\main.c      **** CY_ISR(UART_ISR_0_FUN)
  30:.\main.c      **** {
  31:.\main.c      ****     uint32 resource = UART_0_GetRxInterruptSource();
  32:.\main.c      ****      if(resource & UART_0_INTR_RX_NOT_EMPTY)
ARM GAS  C:\Users\kevin\AppData\Local\Temp\ccrZUpt9.s 			page 2


  33:.\main.c      ****     {
  34:.\main.c      ****         WorkFlag.uart_0_tx=0;     
  35:.\main.c      **** 	    LoadUARTData((uint8)(UART_0_UartGetByte()& 0xFF));	
  36:.\main.c      **** 
  37:.\main.c      ****         WorkFlag.uart_0_tx=1;       
  38:.\main.c      ****       	UART_0_ClearRxInterruptSource(UART_0_INTR_RX_NOT_EMPTY);//清中断源 
  39:.\main.c      ****     }
  40:.\main.c      ****     
  41:.\main.c      **** }
  42:.\main.c      **** /*******************************************************************************
  43:.\main.c      **** * Define Interrupt service routine and allocate an vector to the Interrupt
  44:.\main.c      **** ********************************************************************************/
  45:.\main.c      **** CY_ISR(UART_ISR_1_FUN)
  46:.\main.c      **** {
  47:.\main.c      ****     uint32 resource = UART_1_GetRxInterruptSource();
  48:.\main.c      ****     if(resource & UART_1_INTR_RX_NOT_EMPTY)
  49:.\main.c      ****     {
  50:.\main.c      ****         WorkFlag.uart_1_tx=0;     
  51:.\main.c      **** 	    LoadTDSBoardData((uint8)(UART_1_UartGetByte()& 0xFF));
  52:.\main.c      ****         WorkFlag.uart_1_tx=1;       
  53:.\main.c      ****       	UART_1_ClearRxInterruptSource(UART_1_INTR_RX_NOT_EMPTY);//清中断源 
  54:.\main.c      ****     }
  55:.\main.c      **** }
  56:.\main.c      **** 
  57:.\main.c      **** 
  58:.\main.c      **** CY_ISR(isr_wdt)
  59:.\main.c      **** {
  26              		.loc 1 59 0
  27              		.cfi_startproc
  28 0000 08B5     		push	{r3, lr}
  29              		.cfi_def_cfa_offset 8
  30              		.cfi_offset 3, -8
  31              		.cfi_offset 14, -4
  60:.\main.c      ****     /* Clear interrupts state */
  61:.\main.c      ****     CySysWdtClearInterrupt(CY_SYS_WDT_COUNTER0_INT);
  32              		.loc 1 61 0
  33 0002 0420     		mov	r0, #4
  34 0004 FFF7FEFF 		bl	CySysWdtClearInterrupt
  35              	.LVL0:
  62:.\main.c      ****     CyIntClearPending(9);
  36              		.loc 1 62 0
  37 0008 0920     		mov	r0, #9
  38 000a FFF7FEFF 		bl	CyIntClearPending
  39              	.LVL1:
  63:.\main.c      ****     CySoftwareReset();
  64:.\main.c      **** }
  40              		.loc 1 64 0
  41              		@ sp needed
  63:.\main.c      ****     CySoftwareReset();
  42              		.loc 1 63 0
  43 000e FFF7FEFF 		bl	CySoftwareReset
  44              	.LVL2:
  45              		.loc 1 64 0
  46 0012 08BD     		pop	{r3, pc}
  47              		.cfi_endproc
  48              	.LFE55:
  49              		.size	isr_wdt, .-isr_wdt
ARM GAS  C:\Users\kevin\AppData\Local\Temp\ccrZUpt9.s 			page 3


  50              		.section	.text.isr_lowpower_Interrupt,"ax",%progbits
  51              		.align	1
  52              		.global	isr_lowpower_Interrupt
  53              		.code	16
  54              		.thumb_func
  55              		.type	isr_lowpower_Interrupt, %function
  56              	isr_lowpower_Interrupt:
  57              	.LFB56:
  65:.\main.c      **** 
  66:.\main.c      **** CY_ISR(isr_lowpower_Interrupt)
  67:.\main.c      **** {
  58              		.loc 1 67 0
  59              		.cfi_startproc
  60 0000 08B5     		push	{r3, lr}
  61              		.cfi_def_cfa_offset 8
  62              		.cfi_offset 3, -8
  63              		.cfi_offset 14, -4
  68:.\main.c      **** 	CySoftwareReset(); 
  64              		.loc 1 68 0
  65 0002 FFF7FEFF 		bl	CySoftwareReset
  66              	.LVL3:
  69:.\main.c      **** }
  67              		.loc 1 69 0
  68              		@ sp needed
  69 0006 08BD     		pop	{r3, pc}
  70              		.cfi_endproc
  71              	.LFE56:
  72              		.size	isr_lowpower_Interrupt, .-isr_lowpower_Interrupt
  73              		.section	.text.UART_ISR_0_FUN,"ax",%progbits
  74              		.align	1
  75              		.global	UART_ISR_0_FUN
  76              		.code	16
  77              		.thumb_func
  78              		.type	UART_ISR_0_FUN, %function
  79              	UART_ISR_0_FUN:
  80              	.LFB53:
  30:.\main.c      **** {
  81              		.loc 1 30 0
  82              		.cfi_startproc
  83 0000 70B5     		push	{r4, r5, r6, lr}
  84              		.cfi_def_cfa_offset 16
  85              		.cfi_offset 4, -16
  86              		.cfi_offset 5, -12
  87              		.cfi_offset 6, -8
  88              		.cfi_offset 14, -4
  31:.\main.c      ****     uint32 resource = UART_0_GetRxInterruptSource();
  89              		.loc 1 31 0
  90 0002 0B4D     		ldr	r5, .L9
  32:.\main.c      ****      if(resource & UART_0_INTR_RX_NOT_EMPTY)
  91              		.loc 1 32 0
  92 0004 0426     		mov	r6, #4
  31:.\main.c      ****     uint32 resource = UART_0_GetRxInterruptSource();
  93              		.loc 1 31 0
  94 0006 2B68     		ldr	r3, [r5]
  95              	.LVL4:
  32:.\main.c      ****      if(resource & UART_0_INTR_RX_NOT_EMPTY)
  96              		.loc 1 32 0
ARM GAS  C:\Users\kevin\AppData\Local\Temp\ccrZUpt9.s 			page 4


  97 0008 3342     		tst	r3, r6
  98 000a 0FD0     		beq	.L3
  99              	.LBB20:
 100              	.LBB21:
  34:.\main.c      ****         WorkFlag.uart_0_tx=0;     
 101              		.loc 1 34 0
 102 000c 094C     		ldr	r4, .L9+4
 103 000e 7F23     		mov	r3, #127
 104              	.LVL5:
 105 0010 A278     		ldrb	r2, [r4, #2]
 106 0012 1340     		and	r3, r2
 107 0014 A370     		strb	r3, [r4, #2]
  35:.\main.c      **** 	    LoadUARTData((uint8)(UART_0_UartGetByte()& 0xFF));	
 108              		.loc 1 35 0
 109 0016 FFF7FEFF 		bl	UART_0_UartGetByte
 110              	.LVL6:
 111 001a C0B2     		uxtb	r0, r0
 112 001c FFF7FEFF 		bl	LoadUARTData
 113              	.LVL7:
  37:.\main.c      ****         WorkFlag.uart_0_tx=1;       
 114              		.loc 1 37 0
 115 0020 A278     		ldrb	r2, [r4, #2]
 116 0022 8023     		mov	r3, #128
 117 0024 5B42     		neg	r3, r3
 118 0026 1343     		orr	r3, r2
 119 0028 A370     		strb	r3, [r4, #2]
  38:.\main.c      ****       	UART_0_ClearRxInterruptSource(UART_0_INTR_RX_NOT_EMPTY);//清中断源 
 120              		.loc 1 38 0
 121 002a 2E60     		str	r6, [r5]
 122              	.L3:
 123              	.LBE21:
 124              	.LBE20:
  41:.\main.c      **** }
 125              		.loc 1 41 0
 126              		@ sp needed
 127 002c 70BD     		pop	{r4, r5, r6, pc}
 128              	.L10:
 129 002e C046     		.align	2
 130              	.L9:
 131 0030 C00F0640 		.word	1074139072
 132 0034 00000000 		.word	WorkFlag
 133              		.cfi_endproc
 134              	.LFE53:
 135              		.size	UART_ISR_0_FUN, .-UART_ISR_0_FUN
 136              		.section	.text.UART_ISR_1_FUN,"ax",%progbits
 137              		.align	1
 138              		.global	UART_ISR_1_FUN
 139              		.code	16
 140              		.thumb_func
 141              		.type	UART_ISR_1_FUN, %function
 142              	UART_ISR_1_FUN:
 143              	.LFB54:
  46:.\main.c      **** {
 144              		.loc 1 46 0
 145              		.cfi_startproc
 146 0000 F8B5     		push	{r3, r4, r5, r6, r7, lr}
 147              		.cfi_def_cfa_offset 24
ARM GAS  C:\Users\kevin\AppData\Local\Temp\ccrZUpt9.s 			page 5


 148              		.cfi_offset 3, -24
 149              		.cfi_offset 4, -20
 150              		.cfi_offset 5, -16
 151              		.cfi_offset 6, -12
 152              		.cfi_offset 7, -8
 153              		.cfi_offset 14, -4
  47:.\main.c      ****     uint32 resource = UART_1_GetRxInterruptSource();
 154              		.loc 1 47 0
 155 0002 0A4D     		ldr	r5, .L16
  48:.\main.c      ****     if(resource & UART_1_INTR_RX_NOT_EMPTY)
 156              		.loc 1 48 0
 157 0004 0426     		mov	r6, #4
  47:.\main.c      ****     uint32 resource = UART_1_GetRxInterruptSource();
 158              		.loc 1 47 0
 159 0006 2B68     		ldr	r3, [r5]
 160              	.LVL8:
  48:.\main.c      ****     if(resource & UART_1_INTR_RX_NOT_EMPTY)
 161              		.loc 1 48 0
 162 0008 3342     		tst	r3, r6
 163 000a 0DD0     		beq	.L11
 164              	.LBB24:
 165              	.LBB25:
  50:.\main.c      ****         WorkFlag.uart_1_tx=0;     
 166              		.loc 1 50 0
 167 000c 084C     		ldr	r4, .L16+4
 168 000e 0127     		mov	r7, #1
 169 0010 E378     		ldrb	r3, [r4, #3]
 170              	.LVL9:
 171 0012 BB43     		bic	r3, r7
 172 0014 E370     		strb	r3, [r4, #3]
  51:.\main.c      **** 	    LoadTDSBoardData((uint8)(UART_1_UartGetByte()& 0xFF));
 173              		.loc 1 51 0
 174 0016 FFF7FEFF 		bl	UART_1_UartGetByte
 175              	.LVL10:
 176 001a C0B2     		uxtb	r0, r0
 177 001c FFF7FEFF 		bl	LoadTDSBoardData
 178              	.LVL11:
  52:.\main.c      ****         WorkFlag.uart_1_tx=1;       
 179              		.loc 1 52 0
 180 0020 E378     		ldrb	r3, [r4, #3]
 181 0022 1F43     		orr	r7, r3
 182 0024 E770     		strb	r7, [r4, #3]
  53:.\main.c      ****       	UART_1_ClearRxInterruptSource(UART_1_INTR_RX_NOT_EMPTY);//清中断源 
 183              		.loc 1 53 0
 184 0026 2E60     		str	r6, [r5]
 185              	.L11:
 186              	.LBE25:
 187              	.LBE24:
  55:.\main.c      **** }
 188              		.loc 1 55 0
 189              		@ sp needed
 190 0028 F8BD     		pop	{r3, r4, r5, r6, r7, pc}
 191              	.L17:
 192 002a C046     		.align	2
 193              	.L16:
 194 002c C00F0740 		.word	1074204608
 195 0030 00000000 		.word	WorkFlag
ARM GAS  C:\Users\kevin\AppData\Local\Temp\ccrZUpt9.s 			page 6


 196              		.cfi_endproc
 197              	.LFE54:
 198              		.size	UART_ISR_1_FUN, .-UART_ISR_1_FUN
 199              		.section	.text.V24ISR,"ax",%progbits
 200              		.align	1
 201              		.global	V24ISR
 202              		.code	16
 203              		.thumb_func
 204              		.type	V24ISR, %function
 205              	V24ISR:
 206              	.LFB57:
  70:.\main.c      **** CY_ISR(V24ISR)
  71:.\main.c      **** {
 207              		.loc 1 71 0
 208              		.cfi_startproc
 209 0000 38B5     		push	{r3, r4, r5, lr}
 210              		.cfi_def_cfa_offset 16
 211              		.cfi_offset 3, -16
 212              		.cfi_offset 4, -12
 213              		.cfi_offset 5, -8
 214              		.cfi_offset 14, -4
  72:.\main.c      ****     V24_IN_ISR_Disable();
 215              		.loc 1 72 0
 216 0002 FFF7FEFF 		bl	V24_IN_ISR_Disable
 217              	.LVL12:
 218              	.L22:
  73:.\main.c      ****     while(V24dengdai==0)
 219              		.loc 1 73 0 discriminator 1
 220 0006 1E4C     		ldr	r4, .L33
 221 0008 2578     		ldrb	r5, [r4]
 222 000a 002D     		cmp	r5, #0
 223 000c 12D1     		bne	.L31
  74:.\main.c      **** 	    {
  75:.\main.c      **** 	        if(V24V_Read()==1)
 224              		.loc 1 75 0
 225 000e FFF7FEFF 		bl	V24V_Read
 226              	.LVL13:
 227 0012 1C4B     		ldr	r3, .L33+4
 228 0014 0128     		cmp	r0, #1
 229 0016 08D1     		bne	.L20
  76:.\main.c      **** 	        {
  77:.\main.c      **** 	           
  78:.\main.c      **** 	            V24Vcnt++;
 230              		.loc 1 78 0
 231 0018 1A78     		ldrb	r2, [r3]
 232 001a 0132     		add	r2, r2, #1
 233 001c D2B2     		uxtb	r2, r2
 234 001e 1A70     		strb	r2, [r3]
  79:.\main.c      **** 	            if(V24Vcnt>100)
 235              		.loc 1 79 0
 236 0020 642A     		cmp	r2, #100
 237 0022 F0D9     		bls	.L22
  80:.\main.c      **** 	            {  
  81:.\main.c      **** 	                V24dengdai=1; 
 238              		.loc 1 81 0
 239 0024 2070     		strb	r0, [r4]
  82:.\main.c      **** 	                V24Vcnt=0;
ARM GAS  C:\Users\kevin\AppData\Local\Temp\ccrZUpt9.s 			page 7


 240              		.loc 1 82 0
 241 0026 1D70     		strb	r5, [r3]
 242 0028 EDE7     		b	.L22
 243              	.L20:
  83:.\main.c      **** 	            }    
  84:.\main.c      **** 	        }    
  85:.\main.c      **** 	
  86:.\main.c      **** 	        else
  87:.\main.c      **** 	        {
  88:.\main.c      **** 	            V24Vcnt=0;
 244              		.loc 1 88 0
 245 002a 1D70     		strb	r5, [r3]
  89:.\main.c      **** 	             V24dengdai=0; 
 246              		.loc 1 89 0
 247 002c 2570     		strb	r5, [r4]
  90:.\main.c      **** 	              V24_IN_ISR_Enable();
 248              		.loc 1 90 0
 249 002e FFF7FEFF 		bl	V24_IN_ISR_Enable
 250              	.LVL14:
  91:.\main.c      **** 	              return;
 251              		.loc 1 91 0
 252 0032 24E0     		b	.L18
 253              	.L31:
 254              	.LBB28:
 255              	.LBB29:
  92:.\main.c      **** 	            
  93:.\main.c      **** 	        } 
  94:.\main.c      **** 	    }
  95:.\main.c      **** 		V24dengdai=0;
 256              		.loc 1 95 0
 257 0034 0025     		mov	r5, #0
 258 0036 2570     		strb	r5, [r4]
  96:.\main.c      ****     Stop_All_Module();
 259              		.loc 1 96 0
 260 0038 FFF7FEFF 		bl	Stop_All_Module
 261              	.LVL15:
  97:.\main.c      ****     if(cleareepromArrayflag==1)
 262              		.loc 1 97 0
 263 003c 124B     		ldr	r3, .L33+8
 264 003e 1A78     		ldrb	r2, [r3]
 265 0040 012A     		cmp	r2, #1
 266 0042 03D1     		bne	.L25
  98:.\main.c      ****     	{
  99:.\main.c      ****     		cleareepromArrayflag=0;
 267              		.loc 1 99 0
 268 0044 1D70     		strb	r5, [r3]
 100:.\main.c      ****     		cleareepromArray();  
 269              		.loc 1 100 0
 270 0046 FFF7FEFF 		bl	cleareepromArray
 271              	.LVL16:
 272 004a 01E0     		b	.L26
 273              	.L25:
 101:.\main.c      ****     	}
 102:.\main.c      ****     else   
 103:.\main.c      ****     	write1();
 274              		.loc 1 103 0
 275 004c FFF7FEFF 		bl	write1
ARM GAS  C:\Users\kevin\AppData\Local\Temp\ccrZUpt9.s 			page 8


 276              	.LVL17:
 277              	.L26:
 104:.\main.c      ****     clearwdt();    
 278              		.loc 1 104 0
 279 0050 FFF7FEFF 		bl	clearwdt
 280              	.LVL18:
 105:.\main.c      ****     CyDelayUs(1000); 
 281              		.loc 1 105 0
 282 0054 FA20     		mov	r0, #250
 283 0056 8000     		lsl	r0, r0, #2
 284 0058 FFF7FEFF 		bl	CyDelayUs
 285              	.LVL19:
 286              	.L27:
 106:.\main.c      ****    while(V24fig==0)
 287              		.loc 1 106 0
 288 005c 0B4C     		ldr	r4, .L33+12
 289 005e 2578     		ldrb	r5, [r4]
 290 0060 002D     		cmp	r5, #0
 291 0062 08D1     		bne	.L32
 107:.\main.c      ****    {
 108:.\main.c      ****        if(V24V_Read()==1)
 292              		.loc 1 108 0
 293 0064 FFF7FEFF 		bl	V24V_Read
 294              	.LVL20:
 295 0068 0128     		cmp	r0, #1
 296 006a 01D1     		bne	.L28
 109:.\main.c      ****             V24fig=0;
 297              		.loc 1 109 0
 298 006c 2570     		strb	r5, [r4]
 299 006e F5E7     		b	.L27
 300              	.L28:
 110:.\main.c      ****        else
 111:.\main.c      ****             V24fig=1; 
 301              		.loc 1 111 0
 302 0070 0123     		mov	r3, #1
 303 0072 2370     		strb	r3, [r4]
 304 0074 F2E7     		b	.L27
 305              	.L32:
 112:.\main.c      ****     
 113:.\main.c      **** 
 114:.\main.c      ****    }
 115:.\main.c      **** 
 116:.\main.c      ****     V24fig=0; 
 306              		.loc 1 116 0
 307 0076 0023     		mov	r3, #0
 308 0078 2370     		strb	r3, [r4]
 117:.\main.c      ****  CySoftwareReset();
 309              		.loc 1 117 0
 310 007a FFF7FEFF 		bl	CySoftwareReset
 311              	.LVL21:
 312              	.L18:
 313              	.LBE29:
 314              	.LBE28:
 118:.\main.c      **** }
 315              		.loc 1 118 0
 316              		@ sp needed
 317 007e 38BD     		pop	{r3, r4, r5, pc}
ARM GAS  C:\Users\kevin\AppData\Local\Temp\ccrZUpt9.s 			page 9


 318              	.L34:
 319              		.align	2
 320              	.L33:
 321 0080 00000000 		.word	V24dengdai
 322 0084 00000000 		.word	V24Vcnt
 323 0088 00000000 		.word	cleareepromArrayflag
 324 008c 00000000 		.word	V24fig
 325              		.cfi_endproc
 326              	.LFE57:
 327              		.size	V24ISR, .-V24ISR
 328              		.section	.text.UART_0_Init,"ax",%progbits
 329              		.align	1
 330              		.global	UART_0_Init
 331              		.code	16
 332              		.thumb_func
 333              		.type	UART_0_Init, %function
 334              	UART_0_Init:
 335              	.LFB33:
 336              		.file 2 ".\\Generated_Source\\PSoC4/uart_0.c"
   1:.\Generated_Source\PSoC4/uart_0.c **** /*******************************************************************************
   2:.\Generated_Source\PSoC4/uart_0.c **** * File Name: UART_0.c
   3:.\Generated_Source\PSoC4/uart_0.c **** * Version 2.0
   4:.\Generated_Source\PSoC4/uart_0.c **** *
   5:.\Generated_Source\PSoC4/uart_0.c **** * Description:
   6:.\Generated_Source\PSoC4/uart_0.c **** *  This file provides the source code to the API for the SCB Component.
   7:.\Generated_Source\PSoC4/uart_0.c **** *
   8:.\Generated_Source\PSoC4/uart_0.c **** * Note:
   9:.\Generated_Source\PSoC4/uart_0.c **** *
  10:.\Generated_Source\PSoC4/uart_0.c **** *******************************************************************************
  11:.\Generated_Source\PSoC4/uart_0.c **** * Copyright 2013-2014, Cypress Semiconductor Corporation.  All rights reserved.
  12:.\Generated_Source\PSoC4/uart_0.c **** * You may use this file only in accordance with the license, terms, conditions,
  13:.\Generated_Source\PSoC4/uart_0.c **** * disclaimers, and limitations in the end user license agreement accompanying
  14:.\Generated_Source\PSoC4/uart_0.c **** * the software package with which this file was provided.
  15:.\Generated_Source\PSoC4/uart_0.c **** *******************************************************************************/
  16:.\Generated_Source\PSoC4/uart_0.c **** 
  17:.\Generated_Source\PSoC4/uart_0.c **** #include "UART_0_PVT.h"
  18:.\Generated_Source\PSoC4/uart_0.c **** 
  19:.\Generated_Source\PSoC4/uart_0.c **** #if(UART_0_SCB_MODE_I2C_INC)
  20:.\Generated_Source\PSoC4/uart_0.c ****     #include "UART_0_I2C_PVT.h"
  21:.\Generated_Source\PSoC4/uart_0.c **** #endif /* (UART_0_SCB_MODE_I2C_INC) */
  22:.\Generated_Source\PSoC4/uart_0.c **** 
  23:.\Generated_Source\PSoC4/uart_0.c **** #if(UART_0_SCB_MODE_EZI2C_INC)
  24:.\Generated_Source\PSoC4/uart_0.c ****     #include "UART_0_EZI2C_PVT.h"
  25:.\Generated_Source\PSoC4/uart_0.c **** #endif /* (UART_0_SCB_MODE_EZI2C_INC) */
  26:.\Generated_Source\PSoC4/uart_0.c **** 
  27:.\Generated_Source\PSoC4/uart_0.c **** #if(UART_0_SCB_MODE_SPI_INC || UART_0_SCB_MODE_UART_INC)
  28:.\Generated_Source\PSoC4/uart_0.c ****     #include "UART_0_SPI_UART_PVT.h"
  29:.\Generated_Source\PSoC4/uart_0.c **** #endif /* (UART_0_SCB_MODE_SPI_INC || UART_0_SCB_MODE_UART_INC) */
  30:.\Generated_Source\PSoC4/uart_0.c **** 
  31:.\Generated_Source\PSoC4/uart_0.c **** 
  32:.\Generated_Source\PSoC4/uart_0.c **** /***************************************
  33:.\Generated_Source\PSoC4/uart_0.c **** *    Run Time Configuration Vars
  34:.\Generated_Source\PSoC4/uart_0.c **** ***************************************/
  35:.\Generated_Source\PSoC4/uart_0.c **** 
  36:.\Generated_Source\PSoC4/uart_0.c **** /* Stores internal component configuration for Unconfigured mode */
  37:.\Generated_Source\PSoC4/uart_0.c **** #if(UART_0_SCB_MODE_UNCONFIG_CONST_CFG)
  38:.\Generated_Source\PSoC4/uart_0.c ****     /* Common configuration variables */
ARM GAS  C:\Users\kevin\AppData\Local\Temp\ccrZUpt9.s 			page 10


  39:.\Generated_Source\PSoC4/uart_0.c ****     uint8 UART_0_scbMode = UART_0_SCB_MODE_UNCONFIG;
  40:.\Generated_Source\PSoC4/uart_0.c ****     uint8 UART_0_scbEnableWake;
  41:.\Generated_Source\PSoC4/uart_0.c ****     uint8 UART_0_scbEnableIntr;
  42:.\Generated_Source\PSoC4/uart_0.c **** 
  43:.\Generated_Source\PSoC4/uart_0.c ****     /* I2C configuration variables */
  44:.\Generated_Source\PSoC4/uart_0.c ****     uint8 UART_0_mode;
  45:.\Generated_Source\PSoC4/uart_0.c ****     uint8 UART_0_acceptAddr;
  46:.\Generated_Source\PSoC4/uart_0.c **** 
  47:.\Generated_Source\PSoC4/uart_0.c ****     /* SPI/UART configuration variables */
  48:.\Generated_Source\PSoC4/uart_0.c ****     volatile uint8 * UART_0_rxBuffer;
  49:.\Generated_Source\PSoC4/uart_0.c ****     uint8  UART_0_rxDataBits;
  50:.\Generated_Source\PSoC4/uart_0.c ****     uint32 UART_0_rxBufferSize;
  51:.\Generated_Source\PSoC4/uart_0.c **** 
  52:.\Generated_Source\PSoC4/uart_0.c ****     volatile uint8 * UART_0_txBuffer;
  53:.\Generated_Source\PSoC4/uart_0.c ****     uint8  UART_0_txDataBits;
  54:.\Generated_Source\PSoC4/uart_0.c ****     uint32 UART_0_txBufferSize;
  55:.\Generated_Source\PSoC4/uart_0.c **** 
  56:.\Generated_Source\PSoC4/uart_0.c ****     /* EZI2C configuration variables */
  57:.\Generated_Source\PSoC4/uart_0.c ****     uint8 UART_0_numberOfAddr;
  58:.\Generated_Source\PSoC4/uart_0.c ****     uint8 UART_0_subAddrSize;
  59:.\Generated_Source\PSoC4/uart_0.c **** #endif /* (UART_0_SCB_MODE_UNCONFIG_CONST_CFG) */
  60:.\Generated_Source\PSoC4/uart_0.c **** 
  61:.\Generated_Source\PSoC4/uart_0.c **** 
  62:.\Generated_Source\PSoC4/uart_0.c **** /***************************************
  63:.\Generated_Source\PSoC4/uart_0.c **** *     Common SCB Vars
  64:.\Generated_Source\PSoC4/uart_0.c **** ***************************************/
  65:.\Generated_Source\PSoC4/uart_0.c **** 
  66:.\Generated_Source\PSoC4/uart_0.c **** uint8 UART_0_initVar = 0u;
  67:.\Generated_Source\PSoC4/uart_0.c **** 
  68:.\Generated_Source\PSoC4/uart_0.c **** #if !defined (CY_REMOVE_UART_0_CUSTOM_INTR_HANDLER)
  69:.\Generated_Source\PSoC4/uart_0.c ****     cyisraddress UART_0_customIntrHandler = NULL;
  70:.\Generated_Source\PSoC4/uart_0.c **** #endif /* !defined (CY_REMOVE_UART_0_CUSTOM_INTR_HANDLER) */
  71:.\Generated_Source\PSoC4/uart_0.c **** 
  72:.\Generated_Source\PSoC4/uart_0.c **** 
  73:.\Generated_Source\PSoC4/uart_0.c **** /***************************************
  74:.\Generated_Source\PSoC4/uart_0.c **** *    Private Function Prototypes
  75:.\Generated_Source\PSoC4/uart_0.c **** ***************************************/
  76:.\Generated_Source\PSoC4/uart_0.c **** 
  77:.\Generated_Source\PSoC4/uart_0.c **** static void UART_0_ScbEnableIntr(void);
  78:.\Generated_Source\PSoC4/uart_0.c **** static void UART_0_ScbModeStop(void);
  79:.\Generated_Source\PSoC4/uart_0.c **** 
  80:.\Generated_Source\PSoC4/uart_0.c **** 
  81:.\Generated_Source\PSoC4/uart_0.c **** /*******************************************************************************
  82:.\Generated_Source\PSoC4/uart_0.c **** * Function Name: UART_0_Init
  83:.\Generated_Source\PSoC4/uart_0.c **** ********************************************************************************
  84:.\Generated_Source\PSoC4/uart_0.c **** *
  85:.\Generated_Source\PSoC4/uart_0.c **** * Summary:
  86:.\Generated_Source\PSoC4/uart_0.c **** *  Initializes the SCB component to operate in one of the selected
  87:.\Generated_Source\PSoC4/uart_0.c **** *  configurations: I2C, SPI, UART or EZI2C.
  88:.\Generated_Source\PSoC4/uart_0.c **** *  When the configuration is set to "Unconfigured SCB", this function does
  89:.\Generated_Source\PSoC4/uart_0.c **** *  not do any initialization. Use mode-specific initialization APIs instead:
  90:.\Generated_Source\PSoC4/uart_0.c **** *  SCB_I2CInit, SCB_SpiInit, SCB_UartInit or SCB_EzI2CInit.
  91:.\Generated_Source\PSoC4/uart_0.c **** *
  92:.\Generated_Source\PSoC4/uart_0.c **** * Parameters:
  93:.\Generated_Source\PSoC4/uart_0.c **** *  None
  94:.\Generated_Source\PSoC4/uart_0.c **** *
  95:.\Generated_Source\PSoC4/uart_0.c **** * Return:
ARM GAS  C:\Users\kevin\AppData\Local\Temp\ccrZUpt9.s 			page 11


  96:.\Generated_Source\PSoC4/uart_0.c **** *  None
  97:.\Generated_Source\PSoC4/uart_0.c **** *
  98:.\Generated_Source\PSoC4/uart_0.c **** *******************************************************************************/
  99:.\Generated_Source\PSoC4/uart_0.c **** void UART_0_Init(void)
 100:.\Generated_Source\PSoC4/uart_0.c **** {
 337              		.loc 2 100 0
 338              		.cfi_startproc
 339 0000 08B5     		push	{r3, lr}
 340              		.cfi_def_cfa_offset 8
 341              		.cfi_offset 3, -8
 342              		.cfi_offset 14, -4
 101:.\Generated_Source\PSoC4/uart_0.c **** #if(UART_0_SCB_MODE_UNCONFIG_CONST_CFG)
 102:.\Generated_Source\PSoC4/uart_0.c ****     if(UART_0_SCB_MODE_UNCONFIG_RUNTM_CFG)
 103:.\Generated_Source\PSoC4/uart_0.c ****     {
 104:.\Generated_Source\PSoC4/uart_0.c ****         UART_0_initVar = 0u;
 105:.\Generated_Source\PSoC4/uart_0.c ****     }
 106:.\Generated_Source\PSoC4/uart_0.c ****     else
 107:.\Generated_Source\PSoC4/uart_0.c ****     {
 108:.\Generated_Source\PSoC4/uart_0.c ****         /* Initialization was done before this function call */
 109:.\Generated_Source\PSoC4/uart_0.c ****     }
 110:.\Generated_Source\PSoC4/uart_0.c **** 
 111:.\Generated_Source\PSoC4/uart_0.c **** #elif(UART_0_SCB_MODE_I2C_CONST_CFG)
 112:.\Generated_Source\PSoC4/uart_0.c ****     UART_0_I2CInit();
 113:.\Generated_Source\PSoC4/uart_0.c **** 
 114:.\Generated_Source\PSoC4/uart_0.c **** #elif(UART_0_SCB_MODE_SPI_CONST_CFG)
 115:.\Generated_Source\PSoC4/uart_0.c ****     UART_0_SpiInit();
 116:.\Generated_Source\PSoC4/uart_0.c **** 
 117:.\Generated_Source\PSoC4/uart_0.c **** #elif(UART_0_SCB_MODE_UART_CONST_CFG)
 118:.\Generated_Source\PSoC4/uart_0.c ****     UART_0_UartInit();
 343              		.loc 2 118 0
 344 0002 FFF7FEFF 		bl	UART_0_UartInit
 345              	.LVL22:
 119:.\Generated_Source\PSoC4/uart_0.c **** 
 120:.\Generated_Source\PSoC4/uart_0.c **** #elif(UART_0_SCB_MODE_EZI2C_CONST_CFG)
 121:.\Generated_Source\PSoC4/uart_0.c ****     UART_0_EzI2CInit();
 122:.\Generated_Source\PSoC4/uart_0.c **** 
 123:.\Generated_Source\PSoC4/uart_0.c **** #endif /* (UART_0_SCB_MODE_UNCONFIG_CONST_CFG) */
 124:.\Generated_Source\PSoC4/uart_0.c **** }
 346              		.loc 2 124 0
 347              		@ sp needed
 348 0006 08BD     		pop	{r3, pc}
 349              		.cfi_endproc
 350              	.LFE33:
 351              		.size	UART_0_Init, .-UART_0_Init
 352              		.section	.text.UART_0_Enable,"ax",%progbits
 353              		.align	1
 354              		.global	UART_0_Enable
 355              		.code	16
 356              		.thumb_func
 357              		.type	UART_0_Enable, %function
 358              	UART_0_Enable:
 359              	.LFB34:
 125:.\Generated_Source\PSoC4/uart_0.c **** 
 126:.\Generated_Source\PSoC4/uart_0.c **** 
 127:.\Generated_Source\PSoC4/uart_0.c **** /*******************************************************************************
 128:.\Generated_Source\PSoC4/uart_0.c **** * Function Name: UART_0_Enable
 129:.\Generated_Source\PSoC4/uart_0.c **** ********************************************************************************
ARM GAS  C:\Users\kevin\AppData\Local\Temp\ccrZUpt9.s 			page 12


 130:.\Generated_Source\PSoC4/uart_0.c **** *
 131:.\Generated_Source\PSoC4/uart_0.c **** * Summary:
 132:.\Generated_Source\PSoC4/uart_0.c **** *  Enables the SCB component operation.
 133:.\Generated_Source\PSoC4/uart_0.c **** *  The SCB configuration should be not changed when the component is enabled.
 134:.\Generated_Source\PSoC4/uart_0.c **** *  Any configuration changes should be made after disabling the component.
 135:.\Generated_Source\PSoC4/uart_0.c **** *
 136:.\Generated_Source\PSoC4/uart_0.c **** * Parameters:
 137:.\Generated_Source\PSoC4/uart_0.c **** *  None
 138:.\Generated_Source\PSoC4/uart_0.c **** *
 139:.\Generated_Source\PSoC4/uart_0.c **** * Return:
 140:.\Generated_Source\PSoC4/uart_0.c **** *  None
 141:.\Generated_Source\PSoC4/uart_0.c **** *
 142:.\Generated_Source\PSoC4/uart_0.c **** *******************************************************************************/
 143:.\Generated_Source\PSoC4/uart_0.c **** void UART_0_Enable(void)
 144:.\Generated_Source\PSoC4/uart_0.c **** {
 360              		.loc 2 144 0
 361              		.cfi_startproc
 362 0000 08B5     		push	{r3, lr}
 363              		.cfi_def_cfa_offset 8
 364              		.cfi_offset 3, -8
 365              		.cfi_offset 14, -4
 145:.\Generated_Source\PSoC4/uart_0.c **** #if(UART_0_SCB_MODE_UNCONFIG_CONST_CFG)
 146:.\Generated_Source\PSoC4/uart_0.c ****     /* Enable SCB block, only if it is already configured */
 147:.\Generated_Source\PSoC4/uart_0.c ****     if(!UART_0_SCB_MODE_UNCONFIG_RUNTM_CFG)
 148:.\Generated_Source\PSoC4/uart_0.c ****     {
 149:.\Generated_Source\PSoC4/uart_0.c ****         UART_0_CTRL_REG |= UART_0_CTRL_ENABLED;
 150:.\Generated_Source\PSoC4/uart_0.c **** 
 151:.\Generated_Source\PSoC4/uart_0.c ****         UART_0_ScbEnableIntr();
 152:.\Generated_Source\PSoC4/uart_0.c ****     }
 153:.\Generated_Source\PSoC4/uart_0.c **** #else
 154:.\Generated_Source\PSoC4/uart_0.c ****     UART_0_CTRL_REG |= UART_0_CTRL_ENABLED;
 366              		.loc 2 154 0
 367 0002 054B     		ldr	r3, .L37
 368 0004 8022     		mov	r2, #128
 369 0006 1968     		ldr	r1, [r3]
 370 0008 1206     		lsl	r2, r2, #24
 371 000a 0A43     		orr	r2, r1
 372 000c 1A60     		str	r2, [r3]
 373              	.LBB32:
 374              	.LBB33:
 155:.\Generated_Source\PSoC4/uart_0.c **** 
 156:.\Generated_Source\PSoC4/uart_0.c ****     UART_0_ScbEnableIntr();
 157:.\Generated_Source\PSoC4/uart_0.c **** #endif /* (UART_0_SCB_MODE_UNCONFIG_CONST_CFG) */
 158:.\Generated_Source\PSoC4/uart_0.c **** }
 159:.\Generated_Source\PSoC4/uart_0.c **** 
 160:.\Generated_Source\PSoC4/uart_0.c **** 
 161:.\Generated_Source\PSoC4/uart_0.c **** /*******************************************************************************
 162:.\Generated_Source\PSoC4/uart_0.c **** * Function Name: UART_0_Start
 163:.\Generated_Source\PSoC4/uart_0.c **** ********************************************************************************
 164:.\Generated_Source\PSoC4/uart_0.c **** *
 165:.\Generated_Source\PSoC4/uart_0.c **** * Summary:
 166:.\Generated_Source\PSoC4/uart_0.c **** *  Invokes SCB_Init() and SCB_Enable().
 167:.\Generated_Source\PSoC4/uart_0.c **** *  After this function call, the component is enabled and ready for operation.
 168:.\Generated_Source\PSoC4/uart_0.c **** *  When configuration is set to "Unconfigured SCB", the component must first be
 169:.\Generated_Source\PSoC4/uart_0.c **** *  initialized to operate in one of the following configurations: I2C, SPI, UART
 170:.\Generated_Source\PSoC4/uart_0.c **** *  or EZ I2C. Otherwise this function does not enable the component.
 171:.\Generated_Source\PSoC4/uart_0.c **** *
ARM GAS  C:\Users\kevin\AppData\Local\Temp\ccrZUpt9.s 			page 13


 172:.\Generated_Source\PSoC4/uart_0.c **** * Parameters:
 173:.\Generated_Source\PSoC4/uart_0.c **** *  None
 174:.\Generated_Source\PSoC4/uart_0.c **** *
 175:.\Generated_Source\PSoC4/uart_0.c **** * Return:
 176:.\Generated_Source\PSoC4/uart_0.c **** *  None
 177:.\Generated_Source\PSoC4/uart_0.c **** *
 178:.\Generated_Source\PSoC4/uart_0.c **** * Global variables:
 179:.\Generated_Source\PSoC4/uart_0.c **** *  UART_0_initVar - used to check initial configuration, modified
 180:.\Generated_Source\PSoC4/uart_0.c **** *  on first function call.
 181:.\Generated_Source\PSoC4/uart_0.c **** *
 182:.\Generated_Source\PSoC4/uart_0.c **** *******************************************************************************/
 183:.\Generated_Source\PSoC4/uart_0.c **** void UART_0_Start(void)
 184:.\Generated_Source\PSoC4/uart_0.c **** {
 185:.\Generated_Source\PSoC4/uart_0.c ****     if(0u == UART_0_initVar)
 186:.\Generated_Source\PSoC4/uart_0.c ****     {
 187:.\Generated_Source\PSoC4/uart_0.c ****         UART_0_Init();
 188:.\Generated_Source\PSoC4/uart_0.c ****         UART_0_initVar = 1u; /* Component was initialized */
 189:.\Generated_Source\PSoC4/uart_0.c ****     }
 190:.\Generated_Source\PSoC4/uart_0.c **** 
 191:.\Generated_Source\PSoC4/uart_0.c ****     UART_0_Enable();
 192:.\Generated_Source\PSoC4/uart_0.c **** }
 193:.\Generated_Source\PSoC4/uart_0.c **** 
 194:.\Generated_Source\PSoC4/uart_0.c **** 
 195:.\Generated_Source\PSoC4/uart_0.c **** /*******************************************************************************
 196:.\Generated_Source\PSoC4/uart_0.c **** * Function Name: UART_0_Stop
 197:.\Generated_Source\PSoC4/uart_0.c **** ********************************************************************************
 198:.\Generated_Source\PSoC4/uart_0.c **** *
 199:.\Generated_Source\PSoC4/uart_0.c **** * Summary:
 200:.\Generated_Source\PSoC4/uart_0.c **** *  Disables the SCB component and its interrupt.
 201:.\Generated_Source\PSoC4/uart_0.c **** *
 202:.\Generated_Source\PSoC4/uart_0.c **** * Parameters:
 203:.\Generated_Source\PSoC4/uart_0.c **** *  None
 204:.\Generated_Source\PSoC4/uart_0.c **** *
 205:.\Generated_Source\PSoC4/uart_0.c **** * Return:
 206:.\Generated_Source\PSoC4/uart_0.c **** *  None
 207:.\Generated_Source\PSoC4/uart_0.c **** *
 208:.\Generated_Source\PSoC4/uart_0.c **** *******************************************************************************/
 209:.\Generated_Source\PSoC4/uart_0.c **** void UART_0_Stop(void)
 210:.\Generated_Source\PSoC4/uart_0.c **** {
 211:.\Generated_Source\PSoC4/uart_0.c **** #if(UART_0_SCB_IRQ_INTERNAL)
 212:.\Generated_Source\PSoC4/uart_0.c ****     UART_0_DisableInt();
 213:.\Generated_Source\PSoC4/uart_0.c **** #endif /* (UART_0_SCB_IRQ_INTERNAL) */
 214:.\Generated_Source\PSoC4/uart_0.c **** 
 215:.\Generated_Source\PSoC4/uart_0.c ****     UART_0_CTRL_REG &= (uint32) ~UART_0_CTRL_ENABLED;  /* Disable scb IP */
 216:.\Generated_Source\PSoC4/uart_0.c **** 
 217:.\Generated_Source\PSoC4/uart_0.c **** #if(UART_0_SCB_IRQ_INTERNAL)
 218:.\Generated_Source\PSoC4/uart_0.c ****     UART_0_ClearPendingInt();
 219:.\Generated_Source\PSoC4/uart_0.c **** #endif /* (UART_0_SCB_IRQ_INTERNAL) */
 220:.\Generated_Source\PSoC4/uart_0.c **** 
 221:.\Generated_Source\PSoC4/uart_0.c ****     UART_0_ScbModeStop(); /* Calls scbMode specific Stop function */
 222:.\Generated_Source\PSoC4/uart_0.c **** }
 223:.\Generated_Source\PSoC4/uart_0.c **** 
 224:.\Generated_Source\PSoC4/uart_0.c **** 
 225:.\Generated_Source\PSoC4/uart_0.c **** /*******************************************************************************
 226:.\Generated_Source\PSoC4/uart_0.c **** * Function Name: UART_0_SetRxFifoLevel
 227:.\Generated_Source\PSoC4/uart_0.c **** ********************************************************************************
 228:.\Generated_Source\PSoC4/uart_0.c **** *
ARM GAS  C:\Users\kevin\AppData\Local\Temp\ccrZUpt9.s 			page 14


 229:.\Generated_Source\PSoC4/uart_0.c **** * Summary:
 230:.\Generated_Source\PSoC4/uart_0.c **** *  Sets level in the RX FIFO to generate a RX level interrupt.
 231:.\Generated_Source\PSoC4/uart_0.c **** *  When the RX FIFO has more entries than the RX FIFO level an RX level
 232:.\Generated_Source\PSoC4/uart_0.c **** *  interrupt request is generated.
 233:.\Generated_Source\PSoC4/uart_0.c **** *
 234:.\Generated_Source\PSoC4/uart_0.c **** * Parameters:
 235:.\Generated_Source\PSoC4/uart_0.c **** *  level: Level in the RX FIFO to generate RX level interrupt.
 236:.\Generated_Source\PSoC4/uart_0.c **** *         The range of valid level values is between 0 and RX FIFO depth - 1.
 237:.\Generated_Source\PSoC4/uart_0.c **** *
 238:.\Generated_Source\PSoC4/uart_0.c **** * Return:
 239:.\Generated_Source\PSoC4/uart_0.c **** *  None
 240:.\Generated_Source\PSoC4/uart_0.c **** *
 241:.\Generated_Source\PSoC4/uart_0.c **** *******************************************************************************/
 242:.\Generated_Source\PSoC4/uart_0.c **** void UART_0_SetRxFifoLevel(uint32 level)
 243:.\Generated_Source\PSoC4/uart_0.c **** {
 244:.\Generated_Source\PSoC4/uart_0.c ****     uint32 rxFifoCtrl;
 245:.\Generated_Source\PSoC4/uart_0.c **** 
 246:.\Generated_Source\PSoC4/uart_0.c ****     rxFifoCtrl = UART_0_RX_FIFO_CTRL_REG;
 247:.\Generated_Source\PSoC4/uart_0.c **** 
 248:.\Generated_Source\PSoC4/uart_0.c ****     rxFifoCtrl &= ((uint32) ~UART_0_RX_FIFO_CTRL_TRIGGER_LEVEL_MASK); /* Clear level mask bits */
 249:.\Generated_Source\PSoC4/uart_0.c ****     rxFifoCtrl |= ((uint32) (UART_0_RX_FIFO_CTRL_TRIGGER_LEVEL_MASK & level));
 250:.\Generated_Source\PSoC4/uart_0.c **** 
 251:.\Generated_Source\PSoC4/uart_0.c ****     UART_0_RX_FIFO_CTRL_REG = rxFifoCtrl;
 252:.\Generated_Source\PSoC4/uart_0.c **** }
 253:.\Generated_Source\PSoC4/uart_0.c **** 
 254:.\Generated_Source\PSoC4/uart_0.c **** 
 255:.\Generated_Source\PSoC4/uart_0.c **** /*******************************************************************************
 256:.\Generated_Source\PSoC4/uart_0.c **** * Function Name: UART_0_SetTxFifoLevel
 257:.\Generated_Source\PSoC4/uart_0.c **** ********************************************************************************
 258:.\Generated_Source\PSoC4/uart_0.c **** *
 259:.\Generated_Source\PSoC4/uart_0.c **** * Summary:
 260:.\Generated_Source\PSoC4/uart_0.c **** *  Sets level in the TX FIFO to generate a TX level interrupt.
 261:.\Generated_Source\PSoC4/uart_0.c **** *  When the TX FIFO has more entries than the TX FIFO level an TX level
 262:.\Generated_Source\PSoC4/uart_0.c **** *  interrupt request is generated.
 263:.\Generated_Source\PSoC4/uart_0.c **** *
 264:.\Generated_Source\PSoC4/uart_0.c **** * Parameters:
 265:.\Generated_Source\PSoC4/uart_0.c **** *  level: Level in the TX FIFO to generate TX level interrupt.
 266:.\Generated_Source\PSoC4/uart_0.c **** *         The range of valid level values is between 0 and TX FIFO depth - 1.
 267:.\Generated_Source\PSoC4/uart_0.c **** *
 268:.\Generated_Source\PSoC4/uart_0.c **** * Return:
 269:.\Generated_Source\PSoC4/uart_0.c **** *  None
 270:.\Generated_Source\PSoC4/uart_0.c **** *
 271:.\Generated_Source\PSoC4/uart_0.c **** *******************************************************************************/
 272:.\Generated_Source\PSoC4/uart_0.c **** void UART_0_SetTxFifoLevel(uint32 level)
 273:.\Generated_Source\PSoC4/uart_0.c **** {
 274:.\Generated_Source\PSoC4/uart_0.c ****     uint32 txFifoCtrl;
 275:.\Generated_Source\PSoC4/uart_0.c **** 
 276:.\Generated_Source\PSoC4/uart_0.c ****     txFifoCtrl = UART_0_TX_FIFO_CTRL_REG;
 277:.\Generated_Source\PSoC4/uart_0.c **** 
 278:.\Generated_Source\PSoC4/uart_0.c ****     txFifoCtrl &= ((uint32) ~UART_0_TX_FIFO_CTRL_TRIGGER_LEVEL_MASK); /* Clear level mask bits */
 279:.\Generated_Source\PSoC4/uart_0.c ****     txFifoCtrl |= ((uint32) (UART_0_TX_FIFO_CTRL_TRIGGER_LEVEL_MASK & level));
 280:.\Generated_Source\PSoC4/uart_0.c **** 
 281:.\Generated_Source\PSoC4/uart_0.c ****     UART_0_TX_FIFO_CTRL_REG = txFifoCtrl;
 282:.\Generated_Source\PSoC4/uart_0.c **** }
 283:.\Generated_Source\PSoC4/uart_0.c **** 
 284:.\Generated_Source\PSoC4/uart_0.c **** 
 285:.\Generated_Source\PSoC4/uart_0.c **** /*******************************************************************************
ARM GAS  C:\Users\kevin\AppData\Local\Temp\ccrZUpt9.s 			page 15


 286:.\Generated_Source\PSoC4/uart_0.c **** * Function Name: UART_0_SetCustomInterruptHandler
 287:.\Generated_Source\PSoC4/uart_0.c **** ********************************************************************************
 288:.\Generated_Source\PSoC4/uart_0.c **** *
 289:.\Generated_Source\PSoC4/uart_0.c **** * Summary:
 290:.\Generated_Source\PSoC4/uart_0.c **** *  Registers a function to be called by the internal interrupt handler.
 291:.\Generated_Source\PSoC4/uart_0.c **** *  First the function that is registered is called, then the internal interrupt
 292:.\Generated_Source\PSoC4/uart_0.c **** *  handler performs any operation such as software buffer management functions
 293:.\Generated_Source\PSoC4/uart_0.c **** *  before the interrupt returns.  It is the user's responsibility not to break
 294:.\Generated_Source\PSoC4/uart_0.c **** *  the software buffer operations. Only one custom handler is supported, which
 295:.\Generated_Source\PSoC4/uart_0.c **** *  is the function provided by the most recent call.
 296:.\Generated_Source\PSoC4/uart_0.c **** *  At the initialization time no custom handler is registered.
 297:.\Generated_Source\PSoC4/uart_0.c **** *
 298:.\Generated_Source\PSoC4/uart_0.c **** * Parameters:
 299:.\Generated_Source\PSoC4/uart_0.c **** *  func: Pointer to the function to register.
 300:.\Generated_Source\PSoC4/uart_0.c **** *        The value NULL indicates to remove the current custom interrupt
 301:.\Generated_Source\PSoC4/uart_0.c **** *        handler.
 302:.\Generated_Source\PSoC4/uart_0.c **** *
 303:.\Generated_Source\PSoC4/uart_0.c **** * Return:
 304:.\Generated_Source\PSoC4/uart_0.c **** *  None
 305:.\Generated_Source\PSoC4/uart_0.c **** *
 306:.\Generated_Source\PSoC4/uart_0.c **** *******************************************************************************/
 307:.\Generated_Source\PSoC4/uart_0.c **** void UART_0_SetCustomInterruptHandler(cyisraddress func)
 308:.\Generated_Source\PSoC4/uart_0.c **** {
 309:.\Generated_Source\PSoC4/uart_0.c **** #if !defined (CY_REMOVE_UART_0_CUSTOM_INTR_HANDLER)
 310:.\Generated_Source\PSoC4/uart_0.c ****     UART_0_customIntrHandler = func; /* Register interrupt handler */
 311:.\Generated_Source\PSoC4/uart_0.c **** #else
 312:.\Generated_Source\PSoC4/uart_0.c ****     if(NULL != func)
 313:.\Generated_Source\PSoC4/uart_0.c ****     {
 314:.\Generated_Source\PSoC4/uart_0.c ****         /* Suppress compiler warning */
 315:.\Generated_Source\PSoC4/uart_0.c ****     }
 316:.\Generated_Source\PSoC4/uart_0.c **** #endif /* !defined (CY_REMOVE_UART_0_CUSTOM_INTR_HANDLER) */
 317:.\Generated_Source\PSoC4/uart_0.c **** }
 318:.\Generated_Source\PSoC4/uart_0.c **** 
 319:.\Generated_Source\PSoC4/uart_0.c **** 
 320:.\Generated_Source\PSoC4/uart_0.c **** /*******************************************************************************
 321:.\Generated_Source\PSoC4/uart_0.c **** * Function Name: UART_0_ScbModeEnableIntr
 322:.\Generated_Source\PSoC4/uart_0.c **** ********************************************************************************
 323:.\Generated_Source\PSoC4/uart_0.c **** *
 324:.\Generated_Source\PSoC4/uart_0.c **** * Summary:
 325:.\Generated_Source\PSoC4/uart_0.c **** *  Enables an interrupt for a specific mode.
 326:.\Generated_Source\PSoC4/uart_0.c **** *
 327:.\Generated_Source\PSoC4/uart_0.c **** * Parameters:
 328:.\Generated_Source\PSoC4/uart_0.c **** *  None
 329:.\Generated_Source\PSoC4/uart_0.c **** *
 330:.\Generated_Source\PSoC4/uart_0.c **** * Return:
 331:.\Generated_Source\PSoC4/uart_0.c **** *  None
 332:.\Generated_Source\PSoC4/uart_0.c **** *
 333:.\Generated_Source\PSoC4/uart_0.c **** *******************************************************************************/
 334:.\Generated_Source\PSoC4/uart_0.c **** static void UART_0_ScbEnableIntr(void)
 335:.\Generated_Source\PSoC4/uart_0.c **** {
 336:.\Generated_Source\PSoC4/uart_0.c **** #if(UART_0_SCB_IRQ_INTERNAL)
 337:.\Generated_Source\PSoC4/uart_0.c ****     #if(UART_0_SCB_MODE_UNCONFIG_CONST_CFG)
 338:.\Generated_Source\PSoC4/uart_0.c ****         /* Enable interrupt in NVIC */
 339:.\Generated_Source\PSoC4/uart_0.c ****         if(0u != UART_0_scbEnableIntr)
 340:.\Generated_Source\PSoC4/uart_0.c ****         {
 341:.\Generated_Source\PSoC4/uart_0.c ****             UART_0_EnableInt();
 342:.\Generated_Source\PSoC4/uart_0.c ****         }
ARM GAS  C:\Users\kevin\AppData\Local\Temp\ccrZUpt9.s 			page 16


 343:.\Generated_Source\PSoC4/uart_0.c ****     #else
 344:.\Generated_Source\PSoC4/uart_0.c ****         UART_0_EnableInt();
 375              		.loc 2 344 0
 376 000e 0A20     		mov	r0, #10
 377 0010 FFF7FEFF 		bl	CyIntEnable
 378              	.LVL23:
 379              	.LBE33:
 380              	.LBE32:
 158:.\Generated_Source\PSoC4/uart_0.c **** }
 381              		.loc 2 158 0
 382              		@ sp needed
 383 0014 08BD     		pop	{r3, pc}
 384              	.L38:
 385 0016 C046     		.align	2
 386              	.L37:
 387 0018 00000640 		.word	1074135040
 388              		.cfi_endproc
 389              	.LFE34:
 390              		.size	UART_0_Enable, .-UART_0_Enable
 391              		.section	.text.UART_0_Start,"ax",%progbits
 392              		.align	1
 393              		.global	UART_0_Start
 394              		.code	16
 395              		.thumb_func
 396              		.type	UART_0_Start, %function
 397              	UART_0_Start:
 398              	.LFB35:
 184:.\Generated_Source\PSoC4/uart_0.c **** {
 399              		.loc 2 184 0
 400              		.cfi_startproc
 401 0000 10B5     		push	{r4, lr}
 402              		.cfi_def_cfa_offset 8
 403              		.cfi_offset 4, -8
 404              		.cfi_offset 14, -4
 185:.\Generated_Source\PSoC4/uart_0.c ****     if(0u == UART_0_initVar)
 405              		.loc 2 185 0
 406 0002 054C     		ldr	r4, .L41
 407 0004 2378     		ldrb	r3, [r4]
 408 0006 002B     		cmp	r3, #0
 409 0008 03D1     		bne	.L40
 410              	.LBB34:
 411              	.LBB35:
 118:.\Generated_Source\PSoC4/uart_0.c ****     UART_0_UartInit();
 412              		.loc 2 118 0
 413 000a FFF7FEFF 		bl	UART_0_UartInit
 414              	.LVL24:
 415              	.LBE35:
 416              	.LBE34:
 188:.\Generated_Source\PSoC4/uart_0.c ****         UART_0_initVar = 1u; /* Component was initialized */
 417              		.loc 2 188 0
 418 000e 0123     		mov	r3, #1
 419 0010 2370     		strb	r3, [r4]
 420              	.L40:
 191:.\Generated_Source\PSoC4/uart_0.c ****     UART_0_Enable();
 421              		.loc 2 191 0
 422 0012 FFF7FEFF 		bl	UART_0_Enable
 423              	.LVL25:
ARM GAS  C:\Users\kevin\AppData\Local\Temp\ccrZUpt9.s 			page 17


 192:.\Generated_Source\PSoC4/uart_0.c **** }
 424              		.loc 2 192 0
 425              		@ sp needed
 426 0016 10BD     		pop	{r4, pc}
 427              	.L42:
 428              		.align	2
 429              	.L41:
 430 0018 00000000 		.word	.LANCHOR0
 431              		.cfi_endproc
 432              	.LFE35:
 433              		.size	UART_0_Start, .-UART_0_Start
 434              		.section	.text.UART_0_Stop,"ax",%progbits
 435              		.align	1
 436              		.global	UART_0_Stop
 437              		.code	16
 438              		.thumb_func
 439              		.type	UART_0_Stop, %function
 440              	UART_0_Stop:
 441              	.LFB36:
 210:.\Generated_Source\PSoC4/uart_0.c **** {
 442              		.loc 2 210 0
 443              		.cfi_startproc
 444 0000 08B5     		push	{r3, lr}
 445              		.cfi_def_cfa_offset 8
 446              		.cfi_offset 3, -8
 447              		.cfi_offset 14, -4
 212:.\Generated_Source\PSoC4/uart_0.c ****     UART_0_DisableInt();
 448              		.loc 2 212 0
 449 0002 0A20     		mov	r0, #10
 450 0004 FFF7FEFF 		bl	CyIntDisable
 451              	.LVL26:
 215:.\Generated_Source\PSoC4/uart_0.c ****     UART_0_CTRL_REG &= (uint32) ~UART_0_CTRL_ENABLED;  /* Disable scb IP */
 452              		.loc 2 215 0
 453 0008 044B     		ldr	r3, .L44
 218:.\Generated_Source\PSoC4/uart_0.c ****     UART_0_ClearPendingInt();
 454              		.loc 2 218 0
 455 000a 0A20     		mov	r0, #10
 215:.\Generated_Source\PSoC4/uart_0.c ****     UART_0_CTRL_REG &= (uint32) ~UART_0_CTRL_ENABLED;  /* Disable scb IP */
 456              		.loc 2 215 0
 457 000c 1A68     		ldr	r2, [r3]
 222:.\Generated_Source\PSoC4/uart_0.c **** }
 458              		.loc 2 222 0
 459              		@ sp needed
 215:.\Generated_Source\PSoC4/uart_0.c ****     UART_0_CTRL_REG &= (uint32) ~UART_0_CTRL_ENABLED;  /* Disable scb IP */
 460              		.loc 2 215 0
 461 000e 5200     		lsl	r2, r2, #1
 462 0010 5208     		lsr	r2, r2, #1
 463 0012 1A60     		str	r2, [r3]
 218:.\Generated_Source\PSoC4/uart_0.c ****     UART_0_ClearPendingInt();
 464              		.loc 2 218 0
 465 0014 FFF7FEFF 		bl	CyIntClearPending
 466              	.LVL27:
 222:.\Generated_Source\PSoC4/uart_0.c **** }
 467              		.loc 2 222 0
 468 0018 08BD     		pop	{r3, pc}
 469              	.L45:
 470 001a C046     		.align	2
ARM GAS  C:\Users\kevin\AppData\Local\Temp\ccrZUpt9.s 			page 18


 471              	.L44:
 472 001c 00000640 		.word	1074135040
 473              		.cfi_endproc
 474              	.LFE36:
 475              		.size	UART_0_Stop, .-UART_0_Stop
 476              		.section	.text.UART_0_SetRxFifoLevel,"ax",%progbits
 477              		.align	1
 478              		.global	UART_0_SetRxFifoLevel
 479              		.code	16
 480              		.thumb_func
 481              		.type	UART_0_SetRxFifoLevel, %function
 482              	UART_0_SetRxFifoLevel:
 483              	.LFB37:
 243:.\Generated_Source\PSoC4/uart_0.c **** {
 484              		.loc 2 243 0
 485              		.cfi_startproc
 486              	.LVL28:
 246:.\Generated_Source\PSoC4/uart_0.c ****     rxFifoCtrl = UART_0_RX_FIFO_CTRL_REG;
 487              		.loc 2 246 0
 488 0000 034B     		ldr	r3, .L47
 248:.\Generated_Source\PSoC4/uart_0.c ****     rxFifoCtrl &= ((uint32) ~UART_0_RX_FIFO_CTRL_TRIGGER_LEVEL_MASK); /* Clear level mask bits */
 489              		.loc 2 248 0
 490 0002 0722     		mov	r2, #7
 246:.\Generated_Source\PSoC4/uart_0.c ****     rxFifoCtrl = UART_0_RX_FIFO_CTRL_REG;
 491              		.loc 2 246 0
 492 0004 1968     		ldr	r1, [r3]
 493              	.LVL29:
 252:.\Generated_Source\PSoC4/uart_0.c **** }
 494              		.loc 2 252 0
 495              		@ sp needed
 248:.\Generated_Source\PSoC4/uart_0.c ****     rxFifoCtrl &= ((uint32) ~UART_0_RX_FIFO_CTRL_TRIGGER_LEVEL_MASK); /* Clear level mask bits */
 496              		.loc 2 248 0
 497 0006 9143     		bic	r1, r2
 498              	.LVL30:
 249:.\Generated_Source\PSoC4/uart_0.c ****     rxFifoCtrl |= ((uint32) (UART_0_RX_FIFO_CTRL_TRIGGER_LEVEL_MASK & level));
 499              		.loc 2 249 0
 500 0008 0240     		and	r2, r0
 501 000a 0A43     		orr	r2, r1
 502              	.LVL31:
 251:.\Generated_Source\PSoC4/uart_0.c ****     UART_0_RX_FIFO_CTRL_REG = rxFifoCtrl;
 503              		.loc 2 251 0
 504 000c 1A60     		str	r2, [r3]
 252:.\Generated_Source\PSoC4/uart_0.c **** }
 505              		.loc 2 252 0
 506 000e 7047     		bx	lr
 507              	.L48:
 508              		.align	2
 509              	.L47:
 510 0010 04030640 		.word	1074135812
 511              		.cfi_endproc
 512              	.LFE37:
 513              		.size	UART_0_SetRxFifoLevel, .-UART_0_SetRxFifoLevel
 514              		.section	.text.UART_0_SetTxFifoLevel,"ax",%progbits
 515              		.align	1
 516              		.global	UART_0_SetTxFifoLevel
 517              		.code	16
 518              		.thumb_func
ARM GAS  C:\Users\kevin\AppData\Local\Temp\ccrZUpt9.s 			page 19


 519              		.type	UART_0_SetTxFifoLevel, %function
 520              	UART_0_SetTxFifoLevel:
 521              	.LFB38:
 273:.\Generated_Source\PSoC4/uart_0.c **** {
 522              		.loc 2 273 0
 523              		.cfi_startproc
 524              	.LVL32:
 276:.\Generated_Source\PSoC4/uart_0.c ****     txFifoCtrl = UART_0_TX_FIFO_CTRL_REG;
 525              		.loc 2 276 0
 526 0000 034B     		ldr	r3, .L50
 278:.\Generated_Source\PSoC4/uart_0.c ****     txFifoCtrl &= ((uint32) ~UART_0_TX_FIFO_CTRL_TRIGGER_LEVEL_MASK); /* Clear level mask bits */
 527              		.loc 2 278 0
 528 0002 0722     		mov	r2, #7
 276:.\Generated_Source\PSoC4/uart_0.c ****     txFifoCtrl = UART_0_TX_FIFO_CTRL_REG;
 529              		.loc 2 276 0
 530 0004 1968     		ldr	r1, [r3]
 531              	.LVL33:
 282:.\Generated_Source\PSoC4/uart_0.c **** }
 532              		.loc 2 282 0
 533              		@ sp needed
 278:.\Generated_Source\PSoC4/uart_0.c ****     txFifoCtrl &= ((uint32) ~UART_0_TX_FIFO_CTRL_TRIGGER_LEVEL_MASK); /* Clear level mask bits */
 534              		.loc 2 278 0
 535 0006 9143     		bic	r1, r2
 536              	.LVL34:
 279:.\Generated_Source\PSoC4/uart_0.c ****     txFifoCtrl |= ((uint32) (UART_0_TX_FIFO_CTRL_TRIGGER_LEVEL_MASK & level));
 537              		.loc 2 279 0
 538 0008 0240     		and	r2, r0
 539 000a 0A43     		orr	r2, r1
 540              	.LVL35:
 281:.\Generated_Source\PSoC4/uart_0.c ****     UART_0_TX_FIFO_CTRL_REG = txFifoCtrl;
 541              		.loc 2 281 0
 542 000c 1A60     		str	r2, [r3]
 282:.\Generated_Source\PSoC4/uart_0.c **** }
 543              		.loc 2 282 0
 544 000e 7047     		bx	lr
 545              	.L51:
 546              		.align	2
 547              	.L50:
 548 0010 04020640 		.word	1074135556
 549              		.cfi_endproc
 550              	.LFE38:
 551              		.size	UART_0_SetTxFifoLevel, .-UART_0_SetTxFifoLevel
 552              		.section	.text.UART_0_SetCustomInterruptHandler,"ax",%progbits
 553              		.align	1
 554              		.global	UART_0_SetCustomInterruptHandler
 555              		.code	16
 556              		.thumb_func
 557              		.type	UART_0_SetCustomInterruptHandler, %function
 558              	UART_0_SetCustomInterruptHandler:
 559              	.LFB39:
 308:.\Generated_Source\PSoC4/uart_0.c **** {
 560              		.loc 2 308 0
 561              		.cfi_startproc
 562              	.LVL36:
 310:.\Generated_Source\PSoC4/uart_0.c ****     UART_0_customIntrHandler = func; /* Register interrupt handler */
 563              		.loc 2 310 0
 564 0000 014B     		ldr	r3, .L53
ARM GAS  C:\Users\kevin\AppData\Local\Temp\ccrZUpt9.s 			page 20


 317:.\Generated_Source\PSoC4/uart_0.c **** }
 565              		.loc 2 317 0
 566              		@ sp needed
 310:.\Generated_Source\PSoC4/uart_0.c ****     UART_0_customIntrHandler = func; /* Register interrupt handler */
 567              		.loc 2 310 0
 568 0002 5860     		str	r0, [r3, #4]
 317:.\Generated_Source\PSoC4/uart_0.c **** }
 569              		.loc 2 317 0
 570 0004 7047     		bx	lr
 571              	.L54:
 572 0006 C046     		.align	2
 573              	.L53:
 574 0008 00000000 		.word	.LANCHOR0
 575              		.cfi_endproc
 576              	.LFE39:
 577              		.size	UART_0_SetCustomInterruptHandler, .-UART_0_SetCustomInterruptHandler
 578              		.section	.text.UART_0_I2CSlaveNackGeneration,"ax",%progbits
 579              		.align	1
 580              		.global	UART_0_I2CSlaveNackGeneration
 581              		.code	16
 582              		.thumb_func
 583              		.type	UART_0_I2CSlaveNackGeneration, %function
 584              	UART_0_I2CSlaveNackGeneration:
 585              	.LFB42:
 345:.\Generated_Source\PSoC4/uart_0.c **** 
 346:.\Generated_Source\PSoC4/uart_0.c ****     #endif /* (UART_0_SCB_MODE_UNCONFIG_CONST_CFG) */
 347:.\Generated_Source\PSoC4/uart_0.c **** #endif /* (UART_0_SCB_IRQ_INTERNAL) */
 348:.\Generated_Source\PSoC4/uart_0.c **** }
 349:.\Generated_Source\PSoC4/uart_0.c **** 
 350:.\Generated_Source\PSoC4/uart_0.c **** 
 351:.\Generated_Source\PSoC4/uart_0.c **** /*******************************************************************************
 352:.\Generated_Source\PSoC4/uart_0.c **** * Function Name: UART_0_ScbModeStop
 353:.\Generated_Source\PSoC4/uart_0.c **** ********************************************************************************
 354:.\Generated_Source\PSoC4/uart_0.c **** *
 355:.\Generated_Source\PSoC4/uart_0.c **** * Summary:
 356:.\Generated_Source\PSoC4/uart_0.c **** *  Calls the Stop function for a specific operation mode.
 357:.\Generated_Source\PSoC4/uart_0.c **** *
 358:.\Generated_Source\PSoC4/uart_0.c **** * Parameters:
 359:.\Generated_Source\PSoC4/uart_0.c **** *  None
 360:.\Generated_Source\PSoC4/uart_0.c **** *
 361:.\Generated_Source\PSoC4/uart_0.c **** * Return:
 362:.\Generated_Source\PSoC4/uart_0.c **** *  None
 363:.\Generated_Source\PSoC4/uart_0.c **** *
 364:.\Generated_Source\PSoC4/uart_0.c **** *******************************************************************************/
 365:.\Generated_Source\PSoC4/uart_0.c **** static void UART_0_ScbModeStop(void)
 366:.\Generated_Source\PSoC4/uart_0.c **** {
 367:.\Generated_Source\PSoC4/uart_0.c **** #if(UART_0_SCB_MODE_UNCONFIG_CONST_CFG)
 368:.\Generated_Source\PSoC4/uart_0.c ****     if(UART_0_SCB_MODE_I2C_RUNTM_CFG)
 369:.\Generated_Source\PSoC4/uart_0.c ****     {
 370:.\Generated_Source\PSoC4/uart_0.c ****         UART_0_I2CStop();
 371:.\Generated_Source\PSoC4/uart_0.c ****     }
 372:.\Generated_Source\PSoC4/uart_0.c ****     else if (UART_0_SCB_MODE_EZI2C_RUNTM_CFG)
 373:.\Generated_Source\PSoC4/uart_0.c ****     {
 374:.\Generated_Source\PSoC4/uart_0.c ****         UART_0_EzI2CStop();
 375:.\Generated_Source\PSoC4/uart_0.c ****     }
 376:.\Generated_Source\PSoC4/uart_0.c **** #if (!UART_0_CY_SCBIP_V1)
 377:.\Generated_Source\PSoC4/uart_0.c ****     else if (UART_0_SCB_MODE_UART_RUNTM_CFG)
ARM GAS  C:\Users\kevin\AppData\Local\Temp\ccrZUpt9.s 			page 21


 378:.\Generated_Source\PSoC4/uart_0.c ****     {
 379:.\Generated_Source\PSoC4/uart_0.c ****         UART_0_UartStop();
 380:.\Generated_Source\PSoC4/uart_0.c ****     }
 381:.\Generated_Source\PSoC4/uart_0.c **** #endif /* (!UART_0_CY_SCBIP_V1) */
 382:.\Generated_Source\PSoC4/uart_0.c ****     else
 383:.\Generated_Source\PSoC4/uart_0.c ****     {
 384:.\Generated_Source\PSoC4/uart_0.c ****         /* Do nothing for other modes */
 385:.\Generated_Source\PSoC4/uart_0.c ****     }
 386:.\Generated_Source\PSoC4/uart_0.c **** #elif(UART_0_SCB_MODE_I2C_CONST_CFG)
 387:.\Generated_Source\PSoC4/uart_0.c ****     UART_0_I2CStop();
 388:.\Generated_Source\PSoC4/uart_0.c **** 
 389:.\Generated_Source\PSoC4/uart_0.c **** #elif(UART_0_SCB_MODE_EZI2C_CONST_CFG)
 390:.\Generated_Source\PSoC4/uart_0.c ****     UART_0_EzI2CStop();
 391:.\Generated_Source\PSoC4/uart_0.c **** 
 392:.\Generated_Source\PSoC4/uart_0.c **** #elif(UART_0_SCB_MODE_UART_CONST_CFG)
 393:.\Generated_Source\PSoC4/uart_0.c ****     UART_0_UartStop();
 394:.\Generated_Source\PSoC4/uart_0.c **** 
 395:.\Generated_Source\PSoC4/uart_0.c **** #endif /* (UART_0_SCB_MODE_UNCONFIG_CONST_CFG) */
 396:.\Generated_Source\PSoC4/uart_0.c **** }
 397:.\Generated_Source\PSoC4/uart_0.c **** 
 398:.\Generated_Source\PSoC4/uart_0.c **** 
 399:.\Generated_Source\PSoC4/uart_0.c **** #if(UART_0_SCB_MODE_UNCONFIG_CONST_CFG)
 400:.\Generated_Source\PSoC4/uart_0.c ****     /*******************************************************************************
 401:.\Generated_Source\PSoC4/uart_0.c ****     * Function Name: UART_0_SetPins
 402:.\Generated_Source\PSoC4/uart_0.c ****     ********************************************************************************
 403:.\Generated_Source\PSoC4/uart_0.c ****     *
 404:.\Generated_Source\PSoC4/uart_0.c ****     * Summary:
 405:.\Generated_Source\PSoC4/uart_0.c ****     *  Sets the pins settings accordingly to the selected operation mode.
 406:.\Generated_Source\PSoC4/uart_0.c ****     *  Only available in the Unconfigured operation mode. The mode specific
 407:.\Generated_Source\PSoC4/uart_0.c ****     *  initialization function calls it.
 408:.\Generated_Source\PSoC4/uart_0.c ****     *  Pins configuration is set by PSoC Creator when a specific mode of operation
 409:.\Generated_Source\PSoC4/uart_0.c ****     *  is selected in design time.
 410:.\Generated_Source\PSoC4/uart_0.c ****     *
 411:.\Generated_Source\PSoC4/uart_0.c ****     * Parameters:
 412:.\Generated_Source\PSoC4/uart_0.c ****     *  mode:      Mode of SCB operation.
 413:.\Generated_Source\PSoC4/uart_0.c ****     *  subMode:   Sub-mode of SCB operation. It is only required for SPI and UART
 414:.\Generated_Source\PSoC4/uart_0.c ****     *             modes.
 415:.\Generated_Source\PSoC4/uart_0.c ****     *  uartEnableMask: enables TX or RX direction and RTS and CTS signals.
 416:.\Generated_Source\PSoC4/uart_0.c ****     *
 417:.\Generated_Source\PSoC4/uart_0.c ****     * Return:
 418:.\Generated_Source\PSoC4/uart_0.c ****     *  None
 419:.\Generated_Source\PSoC4/uart_0.c ****     *
 420:.\Generated_Source\PSoC4/uart_0.c ****     *******************************************************************************/
 421:.\Generated_Source\PSoC4/uart_0.c ****     void UART_0_SetPins(uint32 mode, uint32 subMode, uint32 uartEnableMask)
 422:.\Generated_Source\PSoC4/uart_0.c ****     {
 423:.\Generated_Source\PSoC4/uart_0.c ****         uint32 hsiomSel [UART_0_SCB_PINS_NUMBER];
 424:.\Generated_Source\PSoC4/uart_0.c ****         uint32 pinsDm   [UART_0_SCB_PINS_NUMBER];
 425:.\Generated_Source\PSoC4/uart_0.c **** 
 426:.\Generated_Source\PSoC4/uart_0.c ****     #if (!UART_0_CY_SCBIP_V1)
 427:.\Generated_Source\PSoC4/uart_0.c ****         uint32 pinsInBuf = 0u;
 428:.\Generated_Source\PSoC4/uart_0.c ****     #endif /* (!UART_0_CY_SCBIP_V1) */
 429:.\Generated_Source\PSoC4/uart_0.c **** 
 430:.\Generated_Source\PSoC4/uart_0.c ****         uint32 i;
 431:.\Generated_Source\PSoC4/uart_0.c **** 
 432:.\Generated_Source\PSoC4/uart_0.c ****         /* Set default HSIOM to GPIO and Drive Mode to Analog Hi-Z */
 433:.\Generated_Source\PSoC4/uart_0.c ****         for(i = 0u; i < UART_0_SCB_PINS_NUMBER; i++)
 434:.\Generated_Source\PSoC4/uart_0.c ****         {
ARM GAS  C:\Users\kevin\AppData\Local\Temp\ccrZUpt9.s 			page 22


 435:.\Generated_Source\PSoC4/uart_0.c ****             hsiomSel[i]  = UART_0_HSIOM_DEF_SEL;
 436:.\Generated_Source\PSoC4/uart_0.c ****             pinsDm[i]    = UART_0_PIN_DM_ALG_HIZ;
 437:.\Generated_Source\PSoC4/uart_0.c ****         }
 438:.\Generated_Source\PSoC4/uart_0.c **** 
 439:.\Generated_Source\PSoC4/uart_0.c ****         if((UART_0_SCB_MODE_I2C   == mode) ||
 440:.\Generated_Source\PSoC4/uart_0.c ****            (UART_0_SCB_MODE_EZI2C == mode))
 441:.\Generated_Source\PSoC4/uart_0.c ****         {
 442:.\Generated_Source\PSoC4/uart_0.c ****             hsiomSel[UART_0_MOSI_SCL_RX_PIN_INDEX] = UART_0_HSIOM_I2C_SEL;
 443:.\Generated_Source\PSoC4/uart_0.c ****             hsiomSel[UART_0_MISO_SDA_TX_PIN_INDEX] = UART_0_HSIOM_I2C_SEL;
 444:.\Generated_Source\PSoC4/uart_0.c **** 
 445:.\Generated_Source\PSoC4/uart_0.c ****             pinsDm[UART_0_MOSI_SCL_RX_PIN_INDEX] = UART_0_PIN_DM_OD_LO;
 446:.\Generated_Source\PSoC4/uart_0.c ****             pinsDm[UART_0_MISO_SDA_TX_PIN_INDEX] = UART_0_PIN_DM_OD_LO;
 447:.\Generated_Source\PSoC4/uart_0.c ****         }
 448:.\Generated_Source\PSoC4/uart_0.c ****     #if (!UART_0_CY_SCBIP_V1)
 449:.\Generated_Source\PSoC4/uart_0.c ****         else if(UART_0_SCB_MODE_SPI == mode)
 450:.\Generated_Source\PSoC4/uart_0.c ****         {
 451:.\Generated_Source\PSoC4/uart_0.c ****             hsiomSel[UART_0_MOSI_SCL_RX_PIN_INDEX] = UART_0_HSIOM_SPI_SEL;
 452:.\Generated_Source\PSoC4/uart_0.c ****             hsiomSel[UART_0_MISO_SDA_TX_PIN_INDEX] = UART_0_HSIOM_SPI_SEL;
 453:.\Generated_Source\PSoC4/uart_0.c ****             hsiomSel[UART_0_SCLK_PIN_INDEX]        = UART_0_HSIOM_SPI_SEL;
 454:.\Generated_Source\PSoC4/uart_0.c **** 
 455:.\Generated_Source\PSoC4/uart_0.c ****             if(UART_0_SPI_SLAVE == subMode)
 456:.\Generated_Source\PSoC4/uart_0.c ****             {
 457:.\Generated_Source\PSoC4/uart_0.c ****                 /* Slave */
 458:.\Generated_Source\PSoC4/uart_0.c ****                 pinsDm[UART_0_MOSI_SCL_RX_PIN_INDEX] = UART_0_PIN_DM_DIG_HIZ;
 459:.\Generated_Source\PSoC4/uart_0.c ****                 pinsDm[UART_0_MISO_SDA_TX_PIN_INDEX] = UART_0_PIN_DM_STRONG;
 460:.\Generated_Source\PSoC4/uart_0.c ****                 pinsDm[UART_0_SCLK_PIN_INDEX]        = UART_0_PIN_DM_DIG_HIZ;
 461:.\Generated_Source\PSoC4/uart_0.c **** 
 462:.\Generated_Source\PSoC4/uart_0.c ****             #if(UART_0_SS0_PIN)
 463:.\Generated_Source\PSoC4/uart_0.c ****                 /* Only SS0 is valid choice for Slave */
 464:.\Generated_Source\PSoC4/uart_0.c ****                 hsiomSel[UART_0_SS0_PIN_INDEX] = UART_0_HSIOM_SPI_SEL;
 465:.\Generated_Source\PSoC4/uart_0.c ****                 pinsDm  [UART_0_SS0_PIN_INDEX] = UART_0_PIN_DM_DIG_HIZ;
 466:.\Generated_Source\PSoC4/uart_0.c ****             #endif /* (UART_0_SS1_PIN) */
 467:.\Generated_Source\PSoC4/uart_0.c **** 
 468:.\Generated_Source\PSoC4/uart_0.c ****             #if(UART_0_MISO_SDA_TX_PIN)
 469:.\Generated_Source\PSoC4/uart_0.c ****                 /* Disable input buffer */
 470:.\Generated_Source\PSoC4/uart_0.c ****                  pinsInBuf |= UART_0_MISO_SDA_TX_PIN_MASK;
 471:.\Generated_Source\PSoC4/uart_0.c ****             #endif /* (UART_0_MISO_SDA_TX_PIN_PIN) */
 472:.\Generated_Source\PSoC4/uart_0.c ****             }
 473:.\Generated_Source\PSoC4/uart_0.c ****             else /* (Master) */
 474:.\Generated_Source\PSoC4/uart_0.c ****             {
 475:.\Generated_Source\PSoC4/uart_0.c ****                 pinsDm[UART_0_MOSI_SCL_RX_PIN_INDEX] = UART_0_PIN_DM_STRONG;
 476:.\Generated_Source\PSoC4/uart_0.c ****                 pinsDm[UART_0_MISO_SDA_TX_PIN_INDEX] = UART_0_PIN_DM_DIG_HIZ;
 477:.\Generated_Source\PSoC4/uart_0.c ****                 pinsDm[UART_0_SCLK_PIN_INDEX]        = UART_0_PIN_DM_STRONG;
 478:.\Generated_Source\PSoC4/uart_0.c **** 
 479:.\Generated_Source\PSoC4/uart_0.c ****             #if(UART_0_SS0_PIN)
 480:.\Generated_Source\PSoC4/uart_0.c ****                 hsiomSel [UART_0_SS0_PIN_INDEX] = UART_0_HSIOM_SPI_SEL;
 481:.\Generated_Source\PSoC4/uart_0.c ****                 pinsDm   [UART_0_SS0_PIN_INDEX] = UART_0_PIN_DM_STRONG;
 482:.\Generated_Source\PSoC4/uart_0.c ****                 pinsInBuf                                |= UART_0_SS0_PIN_MASK;
 483:.\Generated_Source\PSoC4/uart_0.c ****             #endif /* (UART_0_SS0_PIN) */
 484:.\Generated_Source\PSoC4/uart_0.c **** 
 485:.\Generated_Source\PSoC4/uart_0.c ****             #if(UART_0_SS1_PIN)
 486:.\Generated_Source\PSoC4/uart_0.c ****                 hsiomSel [UART_0_SS1_PIN_INDEX] = UART_0_HSIOM_SPI_SEL;
 487:.\Generated_Source\PSoC4/uart_0.c ****                 pinsDm   [UART_0_SS1_PIN_INDEX] = UART_0_PIN_DM_STRONG;
 488:.\Generated_Source\PSoC4/uart_0.c ****                 pinsInBuf                                |= UART_0_SS1_PIN_MASK;
 489:.\Generated_Source\PSoC4/uart_0.c ****             #endif /* (UART_0_SS1_PIN) */
 490:.\Generated_Source\PSoC4/uart_0.c **** 
 491:.\Generated_Source\PSoC4/uart_0.c ****             #if(UART_0_SS2_PIN)
ARM GAS  C:\Users\kevin\AppData\Local\Temp\ccrZUpt9.s 			page 23


 492:.\Generated_Source\PSoC4/uart_0.c ****                 hsiomSel [UART_0_SS2_PIN_INDEX] = UART_0_HSIOM_SPI_SEL;
 493:.\Generated_Source\PSoC4/uart_0.c ****                 pinsDm   [UART_0_SS2_PIN_INDEX] = UART_0_PIN_DM_STRONG;
 494:.\Generated_Source\PSoC4/uart_0.c ****                 pinsInBuf                                |= UART_0_SS2_PIN_MASK;
 495:.\Generated_Source\PSoC4/uart_0.c ****             #endif /* (UART_0_SS2_PIN) */
 496:.\Generated_Source\PSoC4/uart_0.c **** 
 497:.\Generated_Source\PSoC4/uart_0.c ****             #if(UART_0_SS3_PIN)
 498:.\Generated_Source\PSoC4/uart_0.c ****                 hsiomSel [UART_0_SS3_PIN_INDEX] = UART_0_HSIOM_SPI_SEL;
 499:.\Generated_Source\PSoC4/uart_0.c ****                 pinsDm   [UART_0_SS3_PIN_INDEX] = UART_0_PIN_DM_STRONG;
 500:.\Generated_Source\PSoC4/uart_0.c ****                 pinsInBuf                                |= UART_0_SS3_PIN_MASK;
 501:.\Generated_Source\PSoC4/uart_0.c ****             #endif /* (UART_0_SS2_PIN) */
 502:.\Generated_Source\PSoC4/uart_0.c **** 
 503:.\Generated_Source\PSoC4/uart_0.c ****                 /* Disable input buffers */
 504:.\Generated_Source\PSoC4/uart_0.c ****             #if(UART_0_MOSI_SCL_RX_PIN)
 505:.\Generated_Source\PSoC4/uart_0.c ****                 pinsInBuf |= UART_0_MOSI_SCL_RX_PIN_MASK;
 506:.\Generated_Source\PSoC4/uart_0.c ****             #endif /* (UART_0_MOSI_SCL_RX_PIN) */
 507:.\Generated_Source\PSoC4/uart_0.c **** 
 508:.\Generated_Source\PSoC4/uart_0.c ****              #if(UART_0_MOSI_SCL_RX_WAKE_PIN)
 509:.\Generated_Source\PSoC4/uart_0.c ****                 pinsInBuf |= UART_0_MOSI_SCL_RX_WAKE_PIN_MASK;
 510:.\Generated_Source\PSoC4/uart_0.c ****             #endif /* (UART_0_MOSI_SCL_RX_WAKE_PIN) */
 511:.\Generated_Source\PSoC4/uart_0.c **** 
 512:.\Generated_Source\PSoC4/uart_0.c ****             #if(UART_0_SCLK_PIN)
 513:.\Generated_Source\PSoC4/uart_0.c ****                 pinsInBuf |= UART_0_SCLK_PIN_MASK;
 514:.\Generated_Source\PSoC4/uart_0.c ****             #endif /* (UART_0_SCLK_PIN) */
 515:.\Generated_Source\PSoC4/uart_0.c ****             }
 516:.\Generated_Source\PSoC4/uart_0.c ****         }
 517:.\Generated_Source\PSoC4/uart_0.c ****         else /* UART */
 518:.\Generated_Source\PSoC4/uart_0.c ****         {
 519:.\Generated_Source\PSoC4/uart_0.c ****             if(UART_0_UART_MODE_SMARTCARD == subMode)
 520:.\Generated_Source\PSoC4/uart_0.c ****             {
 521:.\Generated_Source\PSoC4/uart_0.c ****                 /* SmartCard */
 522:.\Generated_Source\PSoC4/uart_0.c ****                 hsiomSel[UART_0_MISO_SDA_TX_PIN_INDEX] = UART_0_HSIOM_UART_SEL;
 523:.\Generated_Source\PSoC4/uart_0.c ****                 pinsDm  [UART_0_MISO_SDA_TX_PIN_INDEX] = UART_0_PIN_DM_OD_LO;
 524:.\Generated_Source\PSoC4/uart_0.c ****             }
 525:.\Generated_Source\PSoC4/uart_0.c ****             else /* Standard or IrDA */
 526:.\Generated_Source\PSoC4/uart_0.c ****             {
 527:.\Generated_Source\PSoC4/uart_0.c ****                 if(0u != (UART_0_UART_RX_PIN_ENABLE & uartEnableMask))
 528:.\Generated_Source\PSoC4/uart_0.c ****                 {
 529:.\Generated_Source\PSoC4/uart_0.c ****                     hsiomSel[UART_0_MOSI_SCL_RX_PIN_INDEX] = UART_0_HSIOM_UART_SEL;
 530:.\Generated_Source\PSoC4/uart_0.c ****                     pinsDm  [UART_0_MOSI_SCL_RX_PIN_INDEX] = UART_0_PIN_DM_DIG_HIZ;
 531:.\Generated_Source\PSoC4/uart_0.c ****                 }
 532:.\Generated_Source\PSoC4/uart_0.c **** 
 533:.\Generated_Source\PSoC4/uart_0.c ****                 if(0u != (UART_0_UART_TX_PIN_ENABLE & uartEnableMask))
 534:.\Generated_Source\PSoC4/uart_0.c ****                 {
 535:.\Generated_Source\PSoC4/uart_0.c ****                     hsiomSel[UART_0_MISO_SDA_TX_PIN_INDEX] = UART_0_HSIOM_UART_SEL;
 536:.\Generated_Source\PSoC4/uart_0.c ****                     pinsDm  [UART_0_MISO_SDA_TX_PIN_INDEX] = UART_0_PIN_DM_STRONG;
 537:.\Generated_Source\PSoC4/uart_0.c **** 
 538:.\Generated_Source\PSoC4/uart_0.c ****                 #if(UART_0_MISO_SDA_TX_PIN)
 539:.\Generated_Source\PSoC4/uart_0.c ****                      pinsInBuf |= UART_0_MISO_SDA_TX_PIN_MASK;
 540:.\Generated_Source\PSoC4/uart_0.c ****                 #endif /* (UART_0_MISO_SDA_TX_PIN_PIN) */
 541:.\Generated_Source\PSoC4/uart_0.c ****                 }
 542:.\Generated_Source\PSoC4/uart_0.c **** 
 543:.\Generated_Source\PSoC4/uart_0.c ****             #if !(UART_0_CY_SCBIP_V0 || UART_0_CY_SCBIP_V1)
 544:.\Generated_Source\PSoC4/uart_0.c ****                 if(UART_0_UART_MODE_STD == subMode)
 545:.\Generated_Source\PSoC4/uart_0.c ****                 {
 546:.\Generated_Source\PSoC4/uart_0.c ****                     if(0u != (UART_0_UART_CTS_PIN_ENABLE & uartEnableMask))
 547:.\Generated_Source\PSoC4/uart_0.c ****                     {
 548:.\Generated_Source\PSoC4/uart_0.c ****                         /* CTS input is multiplexed with SCLK */
ARM GAS  C:\Users\kevin\AppData\Local\Temp\ccrZUpt9.s 			page 24


 549:.\Generated_Source\PSoC4/uart_0.c ****                         hsiomSel[UART_0_SCLK_PIN_INDEX] = UART_0_HSIOM_UART_SEL;
 550:.\Generated_Source\PSoC4/uart_0.c ****                         pinsDm  [UART_0_SCLK_PIN_INDEX] = UART_0_PIN_DM_DIG_HIZ;
 551:.\Generated_Source\PSoC4/uart_0.c ****                     }
 552:.\Generated_Source\PSoC4/uart_0.c **** 
 553:.\Generated_Source\PSoC4/uart_0.c ****                     if(0u != (UART_0_UART_RTS_PIN_ENABLE & uartEnableMask))
 554:.\Generated_Source\PSoC4/uart_0.c ****                     {
 555:.\Generated_Source\PSoC4/uart_0.c ****                         /* RTS output is multiplexed with SS0 */
 556:.\Generated_Source\PSoC4/uart_0.c ****                         hsiomSel[UART_0_SS0_PIN_INDEX] = UART_0_HSIOM_UART_SEL;
 557:.\Generated_Source\PSoC4/uart_0.c ****                         pinsDm  [UART_0_SS0_PIN_INDEX] = UART_0_PIN_DM_STRONG;
 558:.\Generated_Source\PSoC4/uart_0.c **** 
 559:.\Generated_Source\PSoC4/uart_0.c ****                     #if(UART_0_SS0_PIN)
 560:.\Generated_Source\PSoC4/uart_0.c ****                         /* Disable input buffer */
 561:.\Generated_Source\PSoC4/uart_0.c ****                         pinsInBuf |= UART_0_SS0_PIN_MASK;
 562:.\Generated_Source\PSoC4/uart_0.c ****                     #endif /* (UART_0_SS0_PIN) */
 563:.\Generated_Source\PSoC4/uart_0.c ****                     }
 564:.\Generated_Source\PSoC4/uart_0.c ****                 }
 565:.\Generated_Source\PSoC4/uart_0.c ****             #endif /* !(UART_0_CY_SCBIP_V0 || UART_0_CY_SCBIP_V1) */
 566:.\Generated_Source\PSoC4/uart_0.c ****             }
 567:.\Generated_Source\PSoC4/uart_0.c ****         }
 568:.\Generated_Source\PSoC4/uart_0.c ****     #endif /* (!UART_0_CY_SCBIP_V1) */
 569:.\Generated_Source\PSoC4/uart_0.c **** 
 570:.\Generated_Source\PSoC4/uart_0.c ****     /* Configure pins: set HSIOM, DM and InputBufEnable */
 571:.\Generated_Source\PSoC4/uart_0.c ****     /* Note: the DR register settings do not effect the pin output if HSIOM is other than GPIO */
 572:.\Generated_Source\PSoC4/uart_0.c **** 
 573:.\Generated_Source\PSoC4/uart_0.c ****     #if(UART_0_MOSI_SCL_RX_PIN)
 574:.\Generated_Source\PSoC4/uart_0.c ****         UART_0_SET_HSIOM_SEL(UART_0_MOSI_SCL_RX_HSIOM_REG,
 575:.\Generated_Source\PSoC4/uart_0.c ****                                        UART_0_MOSI_SCL_RX_HSIOM_MASK,
 576:.\Generated_Source\PSoC4/uart_0.c ****                                        UART_0_MOSI_SCL_RX_HSIOM_POS,
 577:.\Generated_Source\PSoC4/uart_0.c ****                                        hsiomSel[UART_0_MOSI_SCL_RX_PIN_INDEX]);
 578:.\Generated_Source\PSoC4/uart_0.c **** 
 579:.\Generated_Source\PSoC4/uart_0.c ****         UART_0_spi_mosi_i2c_scl_uart_rx_SetDriveMode((uint8) pinsDm[UART_0_MOSI_SCL_RX_PIN_INDEX]);
 580:.\Generated_Source\PSoC4/uart_0.c **** 
 581:.\Generated_Source\PSoC4/uart_0.c ****     #if (!UART_0_CY_SCBIP_V1)
 582:.\Generated_Source\PSoC4/uart_0.c ****         UART_0_SET_INP_DIS(UART_0_spi_mosi_i2c_scl_uart_rx_INP_DIS,
 583:.\Generated_Source\PSoC4/uart_0.c ****                                      UART_0_spi_mosi_i2c_scl_uart_rx_MASK,
 584:.\Generated_Source\PSoC4/uart_0.c ****                                      (0u != (pinsInBuf & UART_0_MOSI_SCL_RX_PIN_MASK)));
 585:.\Generated_Source\PSoC4/uart_0.c ****     #endif /* (!UART_0_CY_SCBIP_V1) */
 586:.\Generated_Source\PSoC4/uart_0.c ****     #endif /* (UART_0_MOSI_SCL_RX_PIN) */
 587:.\Generated_Source\PSoC4/uart_0.c **** 
 588:.\Generated_Source\PSoC4/uart_0.c ****     #if(UART_0_MOSI_SCL_RX_WAKE_PIN)
 589:.\Generated_Source\PSoC4/uart_0.c ****         UART_0_SET_HSIOM_SEL(UART_0_MOSI_SCL_RX_WAKE_HSIOM_REG,
 590:.\Generated_Source\PSoC4/uart_0.c ****                                        UART_0_MOSI_SCL_RX_WAKE_HSIOM_MASK,
 591:.\Generated_Source\PSoC4/uart_0.c ****                                        UART_0_MOSI_SCL_RX_WAKE_HSIOM_POS,
 592:.\Generated_Source\PSoC4/uart_0.c ****                                        hsiomSel[UART_0_MOSI_SCL_RX_WAKE_PIN_INDEX]);
 593:.\Generated_Source\PSoC4/uart_0.c **** 
 594:.\Generated_Source\PSoC4/uart_0.c ****         UART_0_spi_mosi_i2c_scl_uart_rx_wake_SetDriveMode((uint8)
 595:.\Generated_Source\PSoC4/uart_0.c ****                                                                pinsDm[UART_0_MOSI_SCL_RX_WAKE_PIN_I
 596:.\Generated_Source\PSoC4/uart_0.c **** 
 597:.\Generated_Source\PSoC4/uart_0.c ****         UART_0_SET_INP_DIS(UART_0_spi_mosi_i2c_scl_uart_rx_wake_INP_DIS,
 598:.\Generated_Source\PSoC4/uart_0.c ****                                      UART_0_spi_mosi_i2c_scl_uart_rx_wake_MASK,
 599:.\Generated_Source\PSoC4/uart_0.c ****                                      (0u != (pinsInBuf & UART_0_MOSI_SCL_RX_WAKE_PIN_MASK)));
 600:.\Generated_Source\PSoC4/uart_0.c **** 
 601:.\Generated_Source\PSoC4/uart_0.c ****          /* Set interrupt on falling edge */
 602:.\Generated_Source\PSoC4/uart_0.c ****         UART_0_SET_INCFG_TYPE(UART_0_MOSI_SCL_RX_WAKE_INTCFG_REG,
 603:.\Generated_Source\PSoC4/uart_0.c ****                                         UART_0_MOSI_SCL_RX_WAKE_INTCFG_TYPE_MASK,
 604:.\Generated_Source\PSoC4/uart_0.c ****                                         UART_0_MOSI_SCL_RX_WAKE_INTCFG_TYPE_POS,
 605:.\Generated_Source\PSoC4/uart_0.c ****                                         UART_0_INTCFG_TYPE_FALLING_EDGE);
ARM GAS  C:\Users\kevin\AppData\Local\Temp\ccrZUpt9.s 			page 25


 606:.\Generated_Source\PSoC4/uart_0.c ****     #endif /* (UART_0_MOSI_SCL_RX_WAKE_PIN) */
 607:.\Generated_Source\PSoC4/uart_0.c **** 
 608:.\Generated_Source\PSoC4/uart_0.c ****     #if(UART_0_MISO_SDA_TX_PIN)
 609:.\Generated_Source\PSoC4/uart_0.c ****         UART_0_SET_HSIOM_SEL(UART_0_MISO_SDA_TX_HSIOM_REG,
 610:.\Generated_Source\PSoC4/uart_0.c ****                                        UART_0_MISO_SDA_TX_HSIOM_MASK,
 611:.\Generated_Source\PSoC4/uart_0.c ****                                        UART_0_MISO_SDA_TX_HSIOM_POS,
 612:.\Generated_Source\PSoC4/uart_0.c ****                                        hsiomSel[UART_0_MISO_SDA_TX_PIN_INDEX]);
 613:.\Generated_Source\PSoC4/uart_0.c **** 
 614:.\Generated_Source\PSoC4/uart_0.c ****         UART_0_spi_miso_i2c_sda_uart_tx_SetDriveMode((uint8) pinsDm[UART_0_MISO_SDA_TX_PIN_INDEX]);
 615:.\Generated_Source\PSoC4/uart_0.c **** 
 616:.\Generated_Source\PSoC4/uart_0.c ****     #if (!UART_0_CY_SCBIP_V1)
 617:.\Generated_Source\PSoC4/uart_0.c ****         UART_0_SET_INP_DIS(UART_0_spi_miso_i2c_sda_uart_tx_INP_DIS,
 618:.\Generated_Source\PSoC4/uart_0.c ****                                      UART_0_spi_miso_i2c_sda_uart_tx_MASK,
 619:.\Generated_Source\PSoC4/uart_0.c ****                                     (0u != (pinsInBuf & UART_0_MISO_SDA_TX_PIN_MASK)));
 620:.\Generated_Source\PSoC4/uart_0.c ****     #endif /* (!UART_0_CY_SCBIP_V1) */
 621:.\Generated_Source\PSoC4/uart_0.c ****     #endif /* (UART_0_MOSI_SCL_RX_PIN) */
 622:.\Generated_Source\PSoC4/uart_0.c **** 
 623:.\Generated_Source\PSoC4/uart_0.c ****     #if(UART_0_SCLK_PIN)
 624:.\Generated_Source\PSoC4/uart_0.c ****         UART_0_SET_HSIOM_SEL(UART_0_SCLK_HSIOM_REG, UART_0_SCLK_HSIOM_MASK,
 625:.\Generated_Source\PSoC4/uart_0.c ****                                        UART_0_SCLK_HSIOM_POS, hsiomSel[UART_0_SCLK_PIN_INDEX]);
 626:.\Generated_Source\PSoC4/uart_0.c **** 
 627:.\Generated_Source\PSoC4/uart_0.c ****         UART_0_spi_sclk_SetDriveMode((uint8) pinsDm[UART_0_SCLK_PIN_INDEX]);
 628:.\Generated_Source\PSoC4/uart_0.c **** 
 629:.\Generated_Source\PSoC4/uart_0.c ****         UART_0_SET_INP_DIS(UART_0_spi_sclk_INP_DIS,
 630:.\Generated_Source\PSoC4/uart_0.c ****                                      UART_0_spi_sclk_MASK,
 631:.\Generated_Source\PSoC4/uart_0.c ****                                      (0u != (pinsInBuf & UART_0_SCLK_PIN_MASK)));
 632:.\Generated_Source\PSoC4/uart_0.c ****     #endif /* (UART_0_SCLK_PIN) */
 633:.\Generated_Source\PSoC4/uart_0.c **** 
 634:.\Generated_Source\PSoC4/uart_0.c ****     #if(UART_0_SS0_PIN)
 635:.\Generated_Source\PSoC4/uart_0.c ****         UART_0_SET_HSIOM_SEL(UART_0_SS0_HSIOM_REG, UART_0_SS0_HSIOM_MASK,
 636:.\Generated_Source\PSoC4/uart_0.c ****                                        UART_0_SS0_HSIOM_POS, hsiomSel[UART_0_SS0_PIN_INDEX]);
 637:.\Generated_Source\PSoC4/uart_0.c **** 
 638:.\Generated_Source\PSoC4/uart_0.c ****         UART_0_spi_ss0_SetDriveMode((uint8) pinsDm[UART_0_SS0_PIN_INDEX]);
 639:.\Generated_Source\PSoC4/uart_0.c **** 
 640:.\Generated_Source\PSoC4/uart_0.c ****         UART_0_SET_INP_DIS(UART_0_spi_ss0_INP_DIS,
 641:.\Generated_Source\PSoC4/uart_0.c ****                                      UART_0_spi_ss0_MASK,
 642:.\Generated_Source\PSoC4/uart_0.c ****                                      (0u != (pinsInBuf & UART_0_SS0_PIN_MASK)));
 643:.\Generated_Source\PSoC4/uart_0.c ****     #endif /* (UART_0_SS1_PIN) */
 644:.\Generated_Source\PSoC4/uart_0.c **** 
 645:.\Generated_Source\PSoC4/uart_0.c ****     #if(UART_0_SS1_PIN)
 646:.\Generated_Source\PSoC4/uart_0.c ****         UART_0_SET_HSIOM_SEL(UART_0_SS1_HSIOM_REG, UART_0_SS1_HSIOM_MASK,
 647:.\Generated_Source\PSoC4/uart_0.c ****                                        UART_0_SS1_HSIOM_POS, hsiomSel[UART_0_SS1_PIN_INDEX]);
 648:.\Generated_Source\PSoC4/uart_0.c **** 
 649:.\Generated_Source\PSoC4/uart_0.c ****         UART_0_spi_ss1_SetDriveMode((uint8) pinsDm[UART_0_SS1_PIN_INDEX]);
 650:.\Generated_Source\PSoC4/uart_0.c **** 
 651:.\Generated_Source\PSoC4/uart_0.c ****         UART_0_SET_INP_DIS(UART_0_spi_ss1_INP_DIS,
 652:.\Generated_Source\PSoC4/uart_0.c ****                                      UART_0_spi_ss1_MASK,
 653:.\Generated_Source\PSoC4/uart_0.c ****                                      (0u != (pinsInBuf & UART_0_SS1_PIN_MASK)));
 654:.\Generated_Source\PSoC4/uart_0.c ****     #endif /* (UART_0_SS1_PIN) */
 655:.\Generated_Source\PSoC4/uart_0.c **** 
 656:.\Generated_Source\PSoC4/uart_0.c ****     #if(UART_0_SS2_PIN)
 657:.\Generated_Source\PSoC4/uart_0.c ****         UART_0_SET_HSIOM_SEL(UART_0_SS2_HSIOM_REG, UART_0_SS2_HSIOM_MASK,
 658:.\Generated_Source\PSoC4/uart_0.c ****                                        UART_0_SS2_HSIOM_POS, hsiomSel[UART_0_SS2_PIN_INDEX]);
 659:.\Generated_Source\PSoC4/uart_0.c **** 
 660:.\Generated_Source\PSoC4/uart_0.c ****         UART_0_spi_ss2_SetDriveMode((uint8) pinsDm[UART_0_SS2_PIN_INDEX]);
 661:.\Generated_Source\PSoC4/uart_0.c **** 
 662:.\Generated_Source\PSoC4/uart_0.c ****         UART_0_SET_INP_DIS(UART_0_spi_ss2_INP_DIS,
ARM GAS  C:\Users\kevin\AppData\Local\Temp\ccrZUpt9.s 			page 26


 663:.\Generated_Source\PSoC4/uart_0.c ****                                      UART_0_spi_ss2_MASK,
 664:.\Generated_Source\PSoC4/uart_0.c ****                                      (0u != (pinsInBuf & UART_0_SS2_PIN_MASK)));
 665:.\Generated_Source\PSoC4/uart_0.c ****     #endif /* (UART_0_SS2_PIN) */
 666:.\Generated_Source\PSoC4/uart_0.c **** 
 667:.\Generated_Source\PSoC4/uart_0.c ****     #if(UART_0_SS3_PIN)
 668:.\Generated_Source\PSoC4/uart_0.c ****         UART_0_SET_HSIOM_SEL(UART_0_SS3_HSIOM_REG,  UART_0_SS3_HSIOM_MASK,
 669:.\Generated_Source\PSoC4/uart_0.c ****                                        UART_0_SS3_HSIOM_POS, hsiomSel[UART_0_SS3_PIN_INDEX]);
 670:.\Generated_Source\PSoC4/uart_0.c **** 
 671:.\Generated_Source\PSoC4/uart_0.c ****         UART_0_spi_ss3_SetDriveMode((uint8) pinsDm[UART_0_SS3_PIN_INDEX]);
 672:.\Generated_Source\PSoC4/uart_0.c **** 
 673:.\Generated_Source\PSoC4/uart_0.c ****         UART_0_SET_INP_DIS(UART_0_spi_ss3_INP_DIS,
 674:.\Generated_Source\PSoC4/uart_0.c ****                                      UART_0_spi_ss3_MASK,
 675:.\Generated_Source\PSoC4/uart_0.c ****                                      (0u != (pinsInBuf & UART_0_SS3_PIN_MASK)));
 676:.\Generated_Source\PSoC4/uart_0.c ****     #endif /* (UART_0_SS3_PIN) */
 677:.\Generated_Source\PSoC4/uart_0.c ****     }
 678:.\Generated_Source\PSoC4/uart_0.c **** 
 679:.\Generated_Source\PSoC4/uart_0.c **** #endif /* (UART_0_SCB_MODE_UNCONFIG_CONST_CFG) */
 680:.\Generated_Source\PSoC4/uart_0.c **** 
 681:.\Generated_Source\PSoC4/uart_0.c **** 
 682:.\Generated_Source\PSoC4/uart_0.c **** #if (UART_0_CY_SCBIP_V0 || UART_0_CY_SCBIP_V1)
 683:.\Generated_Source\PSoC4/uart_0.c ****     /*******************************************************************************
 684:.\Generated_Source\PSoC4/uart_0.c ****     * Function Name: UART_0_I2CSlaveNackGeneration
 685:.\Generated_Source\PSoC4/uart_0.c ****     ********************************************************************************
 686:.\Generated_Source\PSoC4/uart_0.c ****     *
 687:.\Generated_Source\PSoC4/uart_0.c ****     * Summary:
 688:.\Generated_Source\PSoC4/uart_0.c ****     *  Sets command to generate NACK to the address or data.
 689:.\Generated_Source\PSoC4/uart_0.c ****     *
 690:.\Generated_Source\PSoC4/uart_0.c ****     * Parameters:
 691:.\Generated_Source\PSoC4/uart_0.c ****     *  None
 692:.\Generated_Source\PSoC4/uart_0.c ****     *
 693:.\Generated_Source\PSoC4/uart_0.c ****     * Return:
 694:.\Generated_Source\PSoC4/uart_0.c ****     *  None
 695:.\Generated_Source\PSoC4/uart_0.c ****     *
 696:.\Generated_Source\PSoC4/uart_0.c ****     *******************************************************************************/
 697:.\Generated_Source\PSoC4/uart_0.c ****     void UART_0_I2CSlaveNackGeneration(void)
 698:.\Generated_Source\PSoC4/uart_0.c ****     {
 586              		.loc 2 698 0
 587              		.cfi_startproc
 699:.\Generated_Source\PSoC4/uart_0.c ****         /* Check for EC_AM toggle condition: EC_AM and clock stretching for address are enabled */
 700:.\Generated_Source\PSoC4/uart_0.c ****         if ((0u != (UART_0_CTRL_REG & UART_0_CTRL_EC_AM_MODE)) &&
 588              		.loc 2 700 0
 589 0000 0A4B     		ldr	r3, .L60
 590 0002 8022     		mov	r2, #128
 591 0004 1968     		ldr	r1, [r3]
 592 0006 5200     		lsl	r2, r2, #1
 593 0008 1142     		tst	r1, r2
 594 000a 0AD0     		beq	.L56
 701:.\Generated_Source\PSoC4/uart_0.c ****             (0u == (UART_0_I2C_CTRL_REG & UART_0_I2C_CTRL_S_NOT_READY_ADDR_NACK)))
 595              		.loc 2 701 0 discriminator 1
 596 000c 0849     		ldr	r1, .L60+4
 597 000e 0968     		ldr	r1, [r1]
 700:.\Generated_Source\PSoC4/uart_0.c ****         if ((0u != (UART_0_CTRL_REG & UART_0_CTRL_EC_AM_MODE)) &&
 598              		.loc 2 700 0 discriminator 1
 599 0010 4804     		lsl	r0, r1, #17
 600 0012 06D4     		bmi	.L56
 702:.\Generated_Source\PSoC4/uart_0.c ****         {
 703:.\Generated_Source\PSoC4/uart_0.c ****             /* Toggle EC_AM before NACK generation */
ARM GAS  C:\Users\kevin\AppData\Local\Temp\ccrZUpt9.s 			page 27


 704:.\Generated_Source\PSoC4/uart_0.c ****             UART_0_CTRL_REG &= ~UART_0_CTRL_EC_AM_MODE;
 601              		.loc 2 704 0
 602 0014 1868     		ldr	r0, [r3]
 603 0016 0749     		ldr	r1, .L60+8
 604 0018 0140     		and	r1, r0
 605 001a 1960     		str	r1, [r3]
 705:.\Generated_Source\PSoC4/uart_0.c ****             UART_0_CTRL_REG |=  UART_0_CTRL_EC_AM_MODE;
 606              		.loc 2 705 0
 607 001c 1968     		ldr	r1, [r3]
 608 001e 0A43     		orr	r2, r1
 609 0020 1A60     		str	r2, [r3]
 610              	.L56:
 706:.\Generated_Source\PSoC4/uart_0.c ****         }
 707:.\Generated_Source\PSoC4/uart_0.c **** 
 708:.\Generated_Source\PSoC4/uart_0.c ****         UART_0_I2C_SLAVE_CMD_REG = UART_0_I2C_SLAVE_CMD_S_NACK;
 611              		.loc 2 708 0
 612 0022 054B     		ldr	r3, .L60+12
 613 0024 0222     		mov	r2, #2
 614 0026 1A60     		str	r2, [r3]
 709:.\Generated_Source\PSoC4/uart_0.c ****     }
 615              		.loc 2 709 0
 616              		@ sp needed
 617 0028 7047     		bx	lr
 618              	.L61:
 619 002a C046     		.align	2
 620              	.L60:
 621 002c 00000640 		.word	1074135040
 622 0030 60000640 		.word	1074135136
 623 0034 FFFEFFFF 		.word	-257
 624 0038 6C000640 		.word	1074135148
 625              		.cfi_endproc
 626              	.LFE42:
 627              		.size	UART_0_I2CSlaveNackGeneration, .-UART_0_I2CSlaveNackGeneration
 628              		.section	.text.UART_1_Init,"ax",%progbits
 629              		.align	1
 630              		.global	UART_1_Init
 631              		.code	16
 632              		.thumb_func
 633              		.type	UART_1_Init, %function
 634              	UART_1_Init:
 635              	.LFB43:
 636              		.file 3 ".\\Generated_Source\\PSoC4/uart_1.c"
   1:.\Generated_Source\PSoC4/uart_1.c **** /*******************************************************************************
   2:.\Generated_Source\PSoC4/uart_1.c **** * File Name: UART_1.c
   3:.\Generated_Source\PSoC4/uart_1.c **** * Version 2.0
   4:.\Generated_Source\PSoC4/uart_1.c **** *
   5:.\Generated_Source\PSoC4/uart_1.c **** * Description:
   6:.\Generated_Source\PSoC4/uart_1.c **** *  This file provides the source code to the API for the SCB Component.
   7:.\Generated_Source\PSoC4/uart_1.c **** *
   8:.\Generated_Source\PSoC4/uart_1.c **** * Note:
   9:.\Generated_Source\PSoC4/uart_1.c **** *
  10:.\Generated_Source\PSoC4/uart_1.c **** *******************************************************************************
  11:.\Generated_Source\PSoC4/uart_1.c **** * Copyright 2013-2014, Cypress Semiconductor Corporation.  All rights reserved.
  12:.\Generated_Source\PSoC4/uart_1.c **** * You may use this file only in accordance with the license, terms, conditions,
  13:.\Generated_Source\PSoC4/uart_1.c **** * disclaimers, and limitations in the end user license agreement accompanying
  14:.\Generated_Source\PSoC4/uart_1.c **** * the software package with which this file was provided.
  15:.\Generated_Source\PSoC4/uart_1.c **** *******************************************************************************/
ARM GAS  C:\Users\kevin\AppData\Local\Temp\ccrZUpt9.s 			page 28


  16:.\Generated_Source\PSoC4/uart_1.c **** 
  17:.\Generated_Source\PSoC4/uart_1.c **** #include "UART_1_PVT.h"
  18:.\Generated_Source\PSoC4/uart_1.c **** 
  19:.\Generated_Source\PSoC4/uart_1.c **** #if(UART_1_SCB_MODE_I2C_INC)
  20:.\Generated_Source\PSoC4/uart_1.c ****     #include "UART_1_I2C_PVT.h"
  21:.\Generated_Source\PSoC4/uart_1.c **** #endif /* (UART_1_SCB_MODE_I2C_INC) */
  22:.\Generated_Source\PSoC4/uart_1.c **** 
  23:.\Generated_Source\PSoC4/uart_1.c **** #if(UART_1_SCB_MODE_EZI2C_INC)
  24:.\Generated_Source\PSoC4/uart_1.c ****     #include "UART_1_EZI2C_PVT.h"
  25:.\Generated_Source\PSoC4/uart_1.c **** #endif /* (UART_1_SCB_MODE_EZI2C_INC) */
  26:.\Generated_Source\PSoC4/uart_1.c **** 
  27:.\Generated_Source\PSoC4/uart_1.c **** #if(UART_1_SCB_MODE_SPI_INC || UART_1_SCB_MODE_UART_INC)
  28:.\Generated_Source\PSoC4/uart_1.c ****     #include "UART_1_SPI_UART_PVT.h"
  29:.\Generated_Source\PSoC4/uart_1.c **** #endif /* (UART_1_SCB_MODE_SPI_INC || UART_1_SCB_MODE_UART_INC) */
  30:.\Generated_Source\PSoC4/uart_1.c **** 
  31:.\Generated_Source\PSoC4/uart_1.c **** 
  32:.\Generated_Source\PSoC4/uart_1.c **** /***************************************
  33:.\Generated_Source\PSoC4/uart_1.c **** *    Run Time Configuration Vars
  34:.\Generated_Source\PSoC4/uart_1.c **** ***************************************/
  35:.\Generated_Source\PSoC4/uart_1.c **** 
  36:.\Generated_Source\PSoC4/uart_1.c **** /* Stores internal component configuration for Unconfigured mode */
  37:.\Generated_Source\PSoC4/uart_1.c **** #if(UART_1_SCB_MODE_UNCONFIG_CONST_CFG)
  38:.\Generated_Source\PSoC4/uart_1.c ****     /* Common configuration variables */
  39:.\Generated_Source\PSoC4/uart_1.c ****     uint8 UART_1_scbMode = UART_1_SCB_MODE_UNCONFIG;
  40:.\Generated_Source\PSoC4/uart_1.c ****     uint8 UART_1_scbEnableWake;
  41:.\Generated_Source\PSoC4/uart_1.c ****     uint8 UART_1_scbEnableIntr;
  42:.\Generated_Source\PSoC4/uart_1.c **** 
  43:.\Generated_Source\PSoC4/uart_1.c ****     /* I2C configuration variables */
  44:.\Generated_Source\PSoC4/uart_1.c ****     uint8 UART_1_mode;
  45:.\Generated_Source\PSoC4/uart_1.c ****     uint8 UART_1_acceptAddr;
  46:.\Generated_Source\PSoC4/uart_1.c **** 
  47:.\Generated_Source\PSoC4/uart_1.c ****     /* SPI/UART configuration variables */
  48:.\Generated_Source\PSoC4/uart_1.c ****     volatile uint8 * UART_1_rxBuffer;
  49:.\Generated_Source\PSoC4/uart_1.c ****     uint8  UART_1_rxDataBits;
  50:.\Generated_Source\PSoC4/uart_1.c ****     uint32 UART_1_rxBufferSize;
  51:.\Generated_Source\PSoC4/uart_1.c **** 
  52:.\Generated_Source\PSoC4/uart_1.c ****     volatile uint8 * UART_1_txBuffer;
  53:.\Generated_Source\PSoC4/uart_1.c ****     uint8  UART_1_txDataBits;
  54:.\Generated_Source\PSoC4/uart_1.c ****     uint32 UART_1_txBufferSize;
  55:.\Generated_Source\PSoC4/uart_1.c **** 
  56:.\Generated_Source\PSoC4/uart_1.c ****     /* EZI2C configuration variables */
  57:.\Generated_Source\PSoC4/uart_1.c ****     uint8 UART_1_numberOfAddr;
  58:.\Generated_Source\PSoC4/uart_1.c ****     uint8 UART_1_subAddrSize;
  59:.\Generated_Source\PSoC4/uart_1.c **** #endif /* (UART_1_SCB_MODE_UNCONFIG_CONST_CFG) */
  60:.\Generated_Source\PSoC4/uart_1.c **** 
  61:.\Generated_Source\PSoC4/uart_1.c **** 
  62:.\Generated_Source\PSoC4/uart_1.c **** /***************************************
  63:.\Generated_Source\PSoC4/uart_1.c **** *     Common SCB Vars
  64:.\Generated_Source\PSoC4/uart_1.c **** ***************************************/
  65:.\Generated_Source\PSoC4/uart_1.c **** 
  66:.\Generated_Source\PSoC4/uart_1.c **** uint8 UART_1_initVar = 0u;
  67:.\Generated_Source\PSoC4/uart_1.c **** 
  68:.\Generated_Source\PSoC4/uart_1.c **** #if !defined (CY_REMOVE_UART_1_CUSTOM_INTR_HANDLER)
  69:.\Generated_Source\PSoC4/uart_1.c ****     cyisraddress UART_1_customIntrHandler = NULL;
  70:.\Generated_Source\PSoC4/uart_1.c **** #endif /* !defined (CY_REMOVE_UART_1_CUSTOM_INTR_HANDLER) */
  71:.\Generated_Source\PSoC4/uart_1.c **** 
  72:.\Generated_Source\PSoC4/uart_1.c **** 
ARM GAS  C:\Users\kevin\AppData\Local\Temp\ccrZUpt9.s 			page 29


  73:.\Generated_Source\PSoC4/uart_1.c **** /***************************************
  74:.\Generated_Source\PSoC4/uart_1.c **** *    Private Function Prototypes
  75:.\Generated_Source\PSoC4/uart_1.c **** ***************************************/
  76:.\Generated_Source\PSoC4/uart_1.c **** 
  77:.\Generated_Source\PSoC4/uart_1.c **** static void UART_1_ScbEnableIntr(void);
  78:.\Generated_Source\PSoC4/uart_1.c **** static void UART_1_ScbModeStop(void);
  79:.\Generated_Source\PSoC4/uart_1.c **** 
  80:.\Generated_Source\PSoC4/uart_1.c **** 
  81:.\Generated_Source\PSoC4/uart_1.c **** /*******************************************************************************
  82:.\Generated_Source\PSoC4/uart_1.c **** * Function Name: UART_1_Init
  83:.\Generated_Source\PSoC4/uart_1.c **** ********************************************************************************
  84:.\Generated_Source\PSoC4/uart_1.c **** *
  85:.\Generated_Source\PSoC4/uart_1.c **** * Summary:
  86:.\Generated_Source\PSoC4/uart_1.c **** *  Initializes the SCB component to operate in one of the selected
  87:.\Generated_Source\PSoC4/uart_1.c **** *  configurations: I2C, SPI, UART or EZI2C.
  88:.\Generated_Source\PSoC4/uart_1.c **** *  When the configuration is set to "Unconfigured SCB", this function does
  89:.\Generated_Source\PSoC4/uart_1.c **** *  not do any initialization. Use mode-specific initialization APIs instead:
  90:.\Generated_Source\PSoC4/uart_1.c **** *  SCB_I2CInit, SCB_SpiInit, SCB_UartInit or SCB_EzI2CInit.
  91:.\Generated_Source\PSoC4/uart_1.c **** *
  92:.\Generated_Source\PSoC4/uart_1.c **** * Parameters:
  93:.\Generated_Source\PSoC4/uart_1.c **** *  None
  94:.\Generated_Source\PSoC4/uart_1.c **** *
  95:.\Generated_Source\PSoC4/uart_1.c **** * Return:
  96:.\Generated_Source\PSoC4/uart_1.c **** *  None
  97:.\Generated_Source\PSoC4/uart_1.c **** *
  98:.\Generated_Source\PSoC4/uart_1.c **** *******************************************************************************/
  99:.\Generated_Source\PSoC4/uart_1.c **** void UART_1_Init(void)
 100:.\Generated_Source\PSoC4/uart_1.c **** {
 637              		.loc 3 100 0
 638              		.cfi_startproc
 639 0000 08B5     		push	{r3, lr}
 640              		.cfi_def_cfa_offset 8
 641              		.cfi_offset 3, -8
 642              		.cfi_offset 14, -4
 101:.\Generated_Source\PSoC4/uart_1.c **** #if(UART_1_SCB_MODE_UNCONFIG_CONST_CFG)
 102:.\Generated_Source\PSoC4/uart_1.c ****     if(UART_1_SCB_MODE_UNCONFIG_RUNTM_CFG)
 103:.\Generated_Source\PSoC4/uart_1.c ****     {
 104:.\Generated_Source\PSoC4/uart_1.c ****         UART_1_initVar = 0u;
 105:.\Generated_Source\PSoC4/uart_1.c ****     }
 106:.\Generated_Source\PSoC4/uart_1.c ****     else
 107:.\Generated_Source\PSoC4/uart_1.c ****     {
 108:.\Generated_Source\PSoC4/uart_1.c ****         /* Initialization was done before this function call */
 109:.\Generated_Source\PSoC4/uart_1.c ****     }
 110:.\Generated_Source\PSoC4/uart_1.c **** 
 111:.\Generated_Source\PSoC4/uart_1.c **** #elif(UART_1_SCB_MODE_I2C_CONST_CFG)
 112:.\Generated_Source\PSoC4/uart_1.c ****     UART_1_I2CInit();
 113:.\Generated_Source\PSoC4/uart_1.c **** 
 114:.\Generated_Source\PSoC4/uart_1.c **** #elif(UART_1_SCB_MODE_SPI_CONST_CFG)
 115:.\Generated_Source\PSoC4/uart_1.c ****     UART_1_SpiInit();
 116:.\Generated_Source\PSoC4/uart_1.c **** 
 117:.\Generated_Source\PSoC4/uart_1.c **** #elif(UART_1_SCB_MODE_UART_CONST_CFG)
 118:.\Generated_Source\PSoC4/uart_1.c ****     UART_1_UartInit();
 643              		.loc 3 118 0
 644 0002 FFF7FEFF 		bl	UART_1_UartInit
 645              	.LVL37:
 119:.\Generated_Source\PSoC4/uart_1.c **** 
 120:.\Generated_Source\PSoC4/uart_1.c **** #elif(UART_1_SCB_MODE_EZI2C_CONST_CFG)
ARM GAS  C:\Users\kevin\AppData\Local\Temp\ccrZUpt9.s 			page 30


 121:.\Generated_Source\PSoC4/uart_1.c ****     UART_1_EzI2CInit();
 122:.\Generated_Source\PSoC4/uart_1.c **** 
 123:.\Generated_Source\PSoC4/uart_1.c **** #endif /* (UART_1_SCB_MODE_UNCONFIG_CONST_CFG) */
 124:.\Generated_Source\PSoC4/uart_1.c **** }
 646              		.loc 3 124 0
 647              		@ sp needed
 648 0006 08BD     		pop	{r3, pc}
 649              		.cfi_endproc
 650              	.LFE43:
 651              		.size	UART_1_Init, .-UART_1_Init
 652              		.section	.text.UART_1_Enable,"ax",%progbits
 653              		.align	1
 654              		.global	UART_1_Enable
 655              		.code	16
 656              		.thumb_func
 657              		.type	UART_1_Enable, %function
 658              	UART_1_Enable:
 659              	.LFB44:
 125:.\Generated_Source\PSoC4/uart_1.c **** 
 126:.\Generated_Source\PSoC4/uart_1.c **** 
 127:.\Generated_Source\PSoC4/uart_1.c **** /*******************************************************************************
 128:.\Generated_Source\PSoC4/uart_1.c **** * Function Name: UART_1_Enable
 129:.\Generated_Source\PSoC4/uart_1.c **** ********************************************************************************
 130:.\Generated_Source\PSoC4/uart_1.c **** *
 131:.\Generated_Source\PSoC4/uart_1.c **** * Summary:
 132:.\Generated_Source\PSoC4/uart_1.c **** *  Enables the SCB component operation.
 133:.\Generated_Source\PSoC4/uart_1.c **** *  The SCB configuration should be not changed when the component is enabled.
 134:.\Generated_Source\PSoC4/uart_1.c **** *  Any configuration changes should be made after disabling the component.
 135:.\Generated_Source\PSoC4/uart_1.c **** *
 136:.\Generated_Source\PSoC4/uart_1.c **** * Parameters:
 137:.\Generated_Source\PSoC4/uart_1.c **** *  None
 138:.\Generated_Source\PSoC4/uart_1.c **** *
 139:.\Generated_Source\PSoC4/uart_1.c **** * Return:
 140:.\Generated_Source\PSoC4/uart_1.c **** *  None
 141:.\Generated_Source\PSoC4/uart_1.c **** *
 142:.\Generated_Source\PSoC4/uart_1.c **** *******************************************************************************/
 143:.\Generated_Source\PSoC4/uart_1.c **** void UART_1_Enable(void)
 144:.\Generated_Source\PSoC4/uart_1.c **** {
 660              		.loc 3 144 0
 661              		.cfi_startproc
 662 0000 08B5     		push	{r3, lr}
 663              		.cfi_def_cfa_offset 8
 664              		.cfi_offset 3, -8
 665              		.cfi_offset 14, -4
 145:.\Generated_Source\PSoC4/uart_1.c **** #if(UART_1_SCB_MODE_UNCONFIG_CONST_CFG)
 146:.\Generated_Source\PSoC4/uart_1.c ****     /* Enable SCB block, only if it is already configured */
 147:.\Generated_Source\PSoC4/uart_1.c ****     if(!UART_1_SCB_MODE_UNCONFIG_RUNTM_CFG)
 148:.\Generated_Source\PSoC4/uart_1.c ****     {
 149:.\Generated_Source\PSoC4/uart_1.c ****         UART_1_CTRL_REG |= UART_1_CTRL_ENABLED;
 150:.\Generated_Source\PSoC4/uart_1.c **** 
 151:.\Generated_Source\PSoC4/uart_1.c ****         UART_1_ScbEnableIntr();
 152:.\Generated_Source\PSoC4/uart_1.c ****     }
 153:.\Generated_Source\PSoC4/uart_1.c **** #else
 154:.\Generated_Source\PSoC4/uart_1.c ****     UART_1_CTRL_REG |= UART_1_CTRL_ENABLED;
 666              		.loc 3 154 0
 667 0002 054B     		ldr	r3, .L64
 668 0004 8022     		mov	r2, #128
ARM GAS  C:\Users\kevin\AppData\Local\Temp\ccrZUpt9.s 			page 31


 669 0006 1968     		ldr	r1, [r3]
 670 0008 1206     		lsl	r2, r2, #24
 671 000a 0A43     		orr	r2, r1
 672 000c 1A60     		str	r2, [r3]
 673              	.LBB38:
 674              	.LBB39:
 155:.\Generated_Source\PSoC4/uart_1.c **** 
 156:.\Generated_Source\PSoC4/uart_1.c ****     UART_1_ScbEnableIntr();
 157:.\Generated_Source\PSoC4/uart_1.c **** #endif /* (UART_1_SCB_MODE_UNCONFIG_CONST_CFG) */
 158:.\Generated_Source\PSoC4/uart_1.c **** }
 159:.\Generated_Source\PSoC4/uart_1.c **** 
 160:.\Generated_Source\PSoC4/uart_1.c **** 
 161:.\Generated_Source\PSoC4/uart_1.c **** /*******************************************************************************
 162:.\Generated_Source\PSoC4/uart_1.c **** * Function Name: UART_1_Start
 163:.\Generated_Source\PSoC4/uart_1.c **** ********************************************************************************
 164:.\Generated_Source\PSoC4/uart_1.c **** *
 165:.\Generated_Source\PSoC4/uart_1.c **** * Summary:
 166:.\Generated_Source\PSoC4/uart_1.c **** *  Invokes SCB_Init() and SCB_Enable().
 167:.\Generated_Source\PSoC4/uart_1.c **** *  After this function call, the component is enabled and ready for operation.
 168:.\Generated_Source\PSoC4/uart_1.c **** *  When configuration is set to "Unconfigured SCB", the component must first be
 169:.\Generated_Source\PSoC4/uart_1.c **** *  initialized to operate in one of the following configurations: I2C, SPI, UART
 170:.\Generated_Source\PSoC4/uart_1.c **** *  or EZ I2C. Otherwise this function does not enable the component.
 171:.\Generated_Source\PSoC4/uart_1.c **** *
 172:.\Generated_Source\PSoC4/uart_1.c **** * Parameters:
 173:.\Generated_Source\PSoC4/uart_1.c **** *  None
 174:.\Generated_Source\PSoC4/uart_1.c **** *
 175:.\Generated_Source\PSoC4/uart_1.c **** * Return:
 176:.\Generated_Source\PSoC4/uart_1.c **** *  None
 177:.\Generated_Source\PSoC4/uart_1.c **** *
 178:.\Generated_Source\PSoC4/uart_1.c **** * Global variables:
 179:.\Generated_Source\PSoC4/uart_1.c **** *  UART_1_initVar - used to check initial configuration, modified
 180:.\Generated_Source\PSoC4/uart_1.c **** *  on first function call.
 181:.\Generated_Source\PSoC4/uart_1.c **** *
 182:.\Generated_Source\PSoC4/uart_1.c **** *******************************************************************************/
 183:.\Generated_Source\PSoC4/uart_1.c **** void UART_1_Start(void)
 184:.\Generated_Source\PSoC4/uart_1.c **** {
 185:.\Generated_Source\PSoC4/uart_1.c ****     if(0u == UART_1_initVar)
 186:.\Generated_Source\PSoC4/uart_1.c ****     {
 187:.\Generated_Source\PSoC4/uart_1.c ****         UART_1_Init();
 188:.\Generated_Source\PSoC4/uart_1.c ****         UART_1_initVar = 1u; /* Component was initialized */
 189:.\Generated_Source\PSoC4/uart_1.c ****     }
 190:.\Generated_Source\PSoC4/uart_1.c **** 
 191:.\Generated_Source\PSoC4/uart_1.c ****     UART_1_Enable();
 192:.\Generated_Source\PSoC4/uart_1.c **** }
 193:.\Generated_Source\PSoC4/uart_1.c **** 
 194:.\Generated_Source\PSoC4/uart_1.c **** 
 195:.\Generated_Source\PSoC4/uart_1.c **** /*******************************************************************************
 196:.\Generated_Source\PSoC4/uart_1.c **** * Function Name: UART_1_Stop
 197:.\Generated_Source\PSoC4/uart_1.c **** ********************************************************************************
 198:.\Generated_Source\PSoC4/uart_1.c **** *
 199:.\Generated_Source\PSoC4/uart_1.c **** * Summary:
 200:.\Generated_Source\PSoC4/uart_1.c **** *  Disables the SCB component and its interrupt.
 201:.\Generated_Source\PSoC4/uart_1.c **** *
 202:.\Generated_Source\PSoC4/uart_1.c **** * Parameters:
 203:.\Generated_Source\PSoC4/uart_1.c **** *  None
 204:.\Generated_Source\PSoC4/uart_1.c **** *
 205:.\Generated_Source\PSoC4/uart_1.c **** * Return:
ARM GAS  C:\Users\kevin\AppData\Local\Temp\ccrZUpt9.s 			page 32


 206:.\Generated_Source\PSoC4/uart_1.c **** *  None
 207:.\Generated_Source\PSoC4/uart_1.c **** *
 208:.\Generated_Source\PSoC4/uart_1.c **** *******************************************************************************/
 209:.\Generated_Source\PSoC4/uart_1.c **** void UART_1_Stop(void)
 210:.\Generated_Source\PSoC4/uart_1.c **** {
 211:.\Generated_Source\PSoC4/uart_1.c **** #if(UART_1_SCB_IRQ_INTERNAL)
 212:.\Generated_Source\PSoC4/uart_1.c ****     UART_1_DisableInt();
 213:.\Generated_Source\PSoC4/uart_1.c **** #endif /* (UART_1_SCB_IRQ_INTERNAL) */
 214:.\Generated_Source\PSoC4/uart_1.c **** 
 215:.\Generated_Source\PSoC4/uart_1.c ****     UART_1_CTRL_REG &= (uint32) ~UART_1_CTRL_ENABLED;  /* Disable scb IP */
 216:.\Generated_Source\PSoC4/uart_1.c **** 
 217:.\Generated_Source\PSoC4/uart_1.c **** #if(UART_1_SCB_IRQ_INTERNAL)
 218:.\Generated_Source\PSoC4/uart_1.c ****     UART_1_ClearPendingInt();
 219:.\Generated_Source\PSoC4/uart_1.c **** #endif /* (UART_1_SCB_IRQ_INTERNAL) */
 220:.\Generated_Source\PSoC4/uart_1.c **** 
 221:.\Generated_Source\PSoC4/uart_1.c ****     UART_1_ScbModeStop(); /* Calls scbMode specific Stop function */
 222:.\Generated_Source\PSoC4/uart_1.c **** }
 223:.\Generated_Source\PSoC4/uart_1.c **** 
 224:.\Generated_Source\PSoC4/uart_1.c **** 
 225:.\Generated_Source\PSoC4/uart_1.c **** /*******************************************************************************
 226:.\Generated_Source\PSoC4/uart_1.c **** * Function Name: UART_1_SetRxFifoLevel
 227:.\Generated_Source\PSoC4/uart_1.c **** ********************************************************************************
 228:.\Generated_Source\PSoC4/uart_1.c **** *
 229:.\Generated_Source\PSoC4/uart_1.c **** * Summary:
 230:.\Generated_Source\PSoC4/uart_1.c **** *  Sets level in the RX FIFO to generate a RX level interrupt.
 231:.\Generated_Source\PSoC4/uart_1.c **** *  When the RX FIFO has more entries than the RX FIFO level an RX level
 232:.\Generated_Source\PSoC4/uart_1.c **** *  interrupt request is generated.
 233:.\Generated_Source\PSoC4/uart_1.c **** *
 234:.\Generated_Source\PSoC4/uart_1.c **** * Parameters:
 235:.\Generated_Source\PSoC4/uart_1.c **** *  level: Level in the RX FIFO to generate RX level interrupt.
 236:.\Generated_Source\PSoC4/uart_1.c **** *         The range of valid level values is between 0 and RX FIFO depth - 1.
 237:.\Generated_Source\PSoC4/uart_1.c **** *
 238:.\Generated_Source\PSoC4/uart_1.c **** * Return:
 239:.\Generated_Source\PSoC4/uart_1.c **** *  None
 240:.\Generated_Source\PSoC4/uart_1.c **** *
 241:.\Generated_Source\PSoC4/uart_1.c **** *******************************************************************************/
 242:.\Generated_Source\PSoC4/uart_1.c **** void UART_1_SetRxFifoLevel(uint32 level)
 243:.\Generated_Source\PSoC4/uart_1.c **** {
 244:.\Generated_Source\PSoC4/uart_1.c ****     uint32 rxFifoCtrl;
 245:.\Generated_Source\PSoC4/uart_1.c **** 
 246:.\Generated_Source\PSoC4/uart_1.c ****     rxFifoCtrl = UART_1_RX_FIFO_CTRL_REG;
 247:.\Generated_Source\PSoC4/uart_1.c **** 
 248:.\Generated_Source\PSoC4/uart_1.c ****     rxFifoCtrl &= ((uint32) ~UART_1_RX_FIFO_CTRL_TRIGGER_LEVEL_MASK); /* Clear level mask bits */
 249:.\Generated_Source\PSoC4/uart_1.c ****     rxFifoCtrl |= ((uint32) (UART_1_RX_FIFO_CTRL_TRIGGER_LEVEL_MASK & level));
 250:.\Generated_Source\PSoC4/uart_1.c **** 
 251:.\Generated_Source\PSoC4/uart_1.c ****     UART_1_RX_FIFO_CTRL_REG = rxFifoCtrl;
 252:.\Generated_Source\PSoC4/uart_1.c **** }
 253:.\Generated_Source\PSoC4/uart_1.c **** 
 254:.\Generated_Source\PSoC4/uart_1.c **** 
 255:.\Generated_Source\PSoC4/uart_1.c **** /*******************************************************************************
 256:.\Generated_Source\PSoC4/uart_1.c **** * Function Name: UART_1_SetTxFifoLevel
 257:.\Generated_Source\PSoC4/uart_1.c **** ********************************************************************************
 258:.\Generated_Source\PSoC4/uart_1.c **** *
 259:.\Generated_Source\PSoC4/uart_1.c **** * Summary:
 260:.\Generated_Source\PSoC4/uart_1.c **** *  Sets level in the TX FIFO to generate a TX level interrupt.
 261:.\Generated_Source\PSoC4/uart_1.c **** *  When the TX FIFO has more entries than the TX FIFO level an TX level
 262:.\Generated_Source\PSoC4/uart_1.c **** *  interrupt request is generated.
ARM GAS  C:\Users\kevin\AppData\Local\Temp\ccrZUpt9.s 			page 33


 263:.\Generated_Source\PSoC4/uart_1.c **** *
 264:.\Generated_Source\PSoC4/uart_1.c **** * Parameters:
 265:.\Generated_Source\PSoC4/uart_1.c **** *  level: Level in the TX FIFO to generate TX level interrupt.
 266:.\Generated_Source\PSoC4/uart_1.c **** *         The range of valid level values is between 0 and TX FIFO depth - 1.
 267:.\Generated_Source\PSoC4/uart_1.c **** *
 268:.\Generated_Source\PSoC4/uart_1.c **** * Return:
 269:.\Generated_Source\PSoC4/uart_1.c **** *  None
 270:.\Generated_Source\PSoC4/uart_1.c **** *
 271:.\Generated_Source\PSoC4/uart_1.c **** *******************************************************************************/
 272:.\Generated_Source\PSoC4/uart_1.c **** void UART_1_SetTxFifoLevel(uint32 level)
 273:.\Generated_Source\PSoC4/uart_1.c **** {
 274:.\Generated_Source\PSoC4/uart_1.c ****     uint32 txFifoCtrl;
 275:.\Generated_Source\PSoC4/uart_1.c **** 
 276:.\Generated_Source\PSoC4/uart_1.c ****     txFifoCtrl = UART_1_TX_FIFO_CTRL_REG;
 277:.\Generated_Source\PSoC4/uart_1.c **** 
 278:.\Generated_Source\PSoC4/uart_1.c ****     txFifoCtrl &= ((uint32) ~UART_1_TX_FIFO_CTRL_TRIGGER_LEVEL_MASK); /* Clear level mask bits */
 279:.\Generated_Source\PSoC4/uart_1.c ****     txFifoCtrl |= ((uint32) (UART_1_TX_FIFO_CTRL_TRIGGER_LEVEL_MASK & level));
 280:.\Generated_Source\PSoC4/uart_1.c **** 
 281:.\Generated_Source\PSoC4/uart_1.c ****     UART_1_TX_FIFO_CTRL_REG = txFifoCtrl;
 282:.\Generated_Source\PSoC4/uart_1.c **** }
 283:.\Generated_Source\PSoC4/uart_1.c **** 
 284:.\Generated_Source\PSoC4/uart_1.c **** 
 285:.\Generated_Source\PSoC4/uart_1.c **** /*******************************************************************************
 286:.\Generated_Source\PSoC4/uart_1.c **** * Function Name: UART_1_SetCustomInterruptHandler
 287:.\Generated_Source\PSoC4/uart_1.c **** ********************************************************************************
 288:.\Generated_Source\PSoC4/uart_1.c **** *
 289:.\Generated_Source\PSoC4/uart_1.c **** * Summary:
 290:.\Generated_Source\PSoC4/uart_1.c **** *  Registers a function to be called by the internal interrupt handler.
 291:.\Generated_Source\PSoC4/uart_1.c **** *  First the function that is registered is called, then the internal interrupt
 292:.\Generated_Source\PSoC4/uart_1.c **** *  handler performs any operation such as software buffer management functions
 293:.\Generated_Source\PSoC4/uart_1.c **** *  before the interrupt returns.  It is the user's responsibility not to break
 294:.\Generated_Source\PSoC4/uart_1.c **** *  the software buffer operations. Only one custom handler is supported, which
 295:.\Generated_Source\PSoC4/uart_1.c **** *  is the function provided by the most recent call.
 296:.\Generated_Source\PSoC4/uart_1.c **** *  At the initialization time no custom handler is registered.
 297:.\Generated_Source\PSoC4/uart_1.c **** *
 298:.\Generated_Source\PSoC4/uart_1.c **** * Parameters:
 299:.\Generated_Source\PSoC4/uart_1.c **** *  func: Pointer to the function to register.
 300:.\Generated_Source\PSoC4/uart_1.c **** *        The value NULL indicates to remove the current custom interrupt
 301:.\Generated_Source\PSoC4/uart_1.c **** *        handler.
 302:.\Generated_Source\PSoC4/uart_1.c **** *
 303:.\Generated_Source\PSoC4/uart_1.c **** * Return:
 304:.\Generated_Source\PSoC4/uart_1.c **** *  None
 305:.\Generated_Source\PSoC4/uart_1.c **** *
 306:.\Generated_Source\PSoC4/uart_1.c **** *******************************************************************************/
 307:.\Generated_Source\PSoC4/uart_1.c **** void UART_1_SetCustomInterruptHandler(cyisraddress func)
 308:.\Generated_Source\PSoC4/uart_1.c **** {
 309:.\Generated_Source\PSoC4/uart_1.c **** #if !defined (CY_REMOVE_UART_1_CUSTOM_INTR_HANDLER)
 310:.\Generated_Source\PSoC4/uart_1.c ****     UART_1_customIntrHandler = func; /* Register interrupt handler */
 311:.\Generated_Source\PSoC4/uart_1.c **** #else
 312:.\Generated_Source\PSoC4/uart_1.c ****     if(NULL != func)
 313:.\Generated_Source\PSoC4/uart_1.c ****     {
 314:.\Generated_Source\PSoC4/uart_1.c ****         /* Suppress compiler warning */
 315:.\Generated_Source\PSoC4/uart_1.c ****     }
 316:.\Generated_Source\PSoC4/uart_1.c **** #endif /* !defined (CY_REMOVE_UART_1_CUSTOM_INTR_HANDLER) */
 317:.\Generated_Source\PSoC4/uart_1.c **** }
 318:.\Generated_Source\PSoC4/uart_1.c **** 
 319:.\Generated_Source\PSoC4/uart_1.c **** 
ARM GAS  C:\Users\kevin\AppData\Local\Temp\ccrZUpt9.s 			page 34


 320:.\Generated_Source\PSoC4/uart_1.c **** /*******************************************************************************
 321:.\Generated_Source\PSoC4/uart_1.c **** * Function Name: UART_1_ScbModeEnableIntr
 322:.\Generated_Source\PSoC4/uart_1.c **** ********************************************************************************
 323:.\Generated_Source\PSoC4/uart_1.c **** *
 324:.\Generated_Source\PSoC4/uart_1.c **** * Summary:
 325:.\Generated_Source\PSoC4/uart_1.c **** *  Enables an interrupt for a specific mode.
 326:.\Generated_Source\PSoC4/uart_1.c **** *
 327:.\Generated_Source\PSoC4/uart_1.c **** * Parameters:
 328:.\Generated_Source\PSoC4/uart_1.c **** *  None
 329:.\Generated_Source\PSoC4/uart_1.c **** *
 330:.\Generated_Source\PSoC4/uart_1.c **** * Return:
 331:.\Generated_Source\PSoC4/uart_1.c **** *  None
 332:.\Generated_Source\PSoC4/uart_1.c **** *
 333:.\Generated_Source\PSoC4/uart_1.c **** *******************************************************************************/
 334:.\Generated_Source\PSoC4/uart_1.c **** static void UART_1_ScbEnableIntr(void)
 335:.\Generated_Source\PSoC4/uart_1.c **** {
 336:.\Generated_Source\PSoC4/uart_1.c **** #if(UART_1_SCB_IRQ_INTERNAL)
 337:.\Generated_Source\PSoC4/uart_1.c ****     #if(UART_1_SCB_MODE_UNCONFIG_CONST_CFG)
 338:.\Generated_Source\PSoC4/uart_1.c ****         /* Enable interrupt in NVIC */
 339:.\Generated_Source\PSoC4/uart_1.c ****         if(0u != UART_1_scbEnableIntr)
 340:.\Generated_Source\PSoC4/uart_1.c ****         {
 341:.\Generated_Source\PSoC4/uart_1.c ****             UART_1_EnableInt();
 342:.\Generated_Source\PSoC4/uart_1.c ****         }
 343:.\Generated_Source\PSoC4/uart_1.c ****     #else
 344:.\Generated_Source\PSoC4/uart_1.c ****         UART_1_EnableInt();
 675              		.loc 3 344 0
 676 000e 0B20     		mov	r0, #11
 677 0010 FFF7FEFF 		bl	CyIntEnable
 678              	.LVL38:
 679              	.LBE39:
 680              	.LBE38:
 158:.\Generated_Source\PSoC4/uart_1.c **** }
 681              		.loc 3 158 0
 682              		@ sp needed
 683 0014 08BD     		pop	{r3, pc}
 684              	.L65:
 685 0016 C046     		.align	2
 686              	.L64:
 687 0018 00000740 		.word	1074200576
 688              		.cfi_endproc
 689              	.LFE44:
 690              		.size	UART_1_Enable, .-UART_1_Enable
 691              		.section	.text.UART_1_Start,"ax",%progbits
 692              		.align	1
 693              		.global	UART_1_Start
 694              		.code	16
 695              		.thumb_func
 696              		.type	UART_1_Start, %function
 697              	UART_1_Start:
 698              	.LFB45:
 184:.\Generated_Source\PSoC4/uart_1.c **** {
 699              		.loc 3 184 0
 700              		.cfi_startproc
 701 0000 10B5     		push	{r4, lr}
 702              		.cfi_def_cfa_offset 8
 703              		.cfi_offset 4, -8
 704              		.cfi_offset 14, -4
ARM GAS  C:\Users\kevin\AppData\Local\Temp\ccrZUpt9.s 			page 35


 185:.\Generated_Source\PSoC4/uart_1.c ****     if(0u == UART_1_initVar)
 705              		.loc 3 185 0
 706 0002 054C     		ldr	r4, .L68
 707 0004 237A     		ldrb	r3, [r4, #8]
 708 0006 002B     		cmp	r3, #0
 709 0008 03D1     		bne	.L67
 710              	.LBB40:
 711              	.LBB41:
 118:.\Generated_Source\PSoC4/uart_1.c ****     UART_1_UartInit();
 712              		.loc 3 118 0
 713 000a FFF7FEFF 		bl	UART_1_UartInit
 714              	.LVL39:
 715              	.LBE41:
 716              	.LBE40:
 188:.\Generated_Source\PSoC4/uart_1.c ****         UART_1_initVar = 1u; /* Component was initialized */
 717              		.loc 3 188 0
 718 000e 0123     		mov	r3, #1
 719 0010 2372     		strb	r3, [r4, #8]
 720              	.L67:
 191:.\Generated_Source\PSoC4/uart_1.c ****     UART_1_Enable();
 721              		.loc 3 191 0
 722 0012 FFF7FEFF 		bl	UART_1_Enable
 723              	.LVL40:
 192:.\Generated_Source\PSoC4/uart_1.c **** }
 724              		.loc 3 192 0
 725              		@ sp needed
 726 0016 10BD     		pop	{r4, pc}
 727              	.L69:
 728              		.align	2
 729              	.L68:
 730 0018 00000000 		.word	.LANCHOR0
 731              		.cfi_endproc
 732              	.LFE45:
 733              		.size	UART_1_Start, .-UART_1_Start
 734              		.section	.text.UART_1_Stop,"ax",%progbits
 735              		.align	1
 736              		.global	UART_1_Stop
 737              		.code	16
 738              		.thumb_func
 739              		.type	UART_1_Stop, %function
 740              	UART_1_Stop:
 741              	.LFB46:
 210:.\Generated_Source\PSoC4/uart_1.c **** {
 742              		.loc 3 210 0
 743              		.cfi_startproc
 744 0000 08B5     		push	{r3, lr}
 745              		.cfi_def_cfa_offset 8
 746              		.cfi_offset 3, -8
 747              		.cfi_offset 14, -4
 212:.\Generated_Source\PSoC4/uart_1.c ****     UART_1_DisableInt();
 748              		.loc 3 212 0
 749 0002 0B20     		mov	r0, #11
 750 0004 FFF7FEFF 		bl	CyIntDisable
 751              	.LVL41:
 215:.\Generated_Source\PSoC4/uart_1.c ****     UART_1_CTRL_REG &= (uint32) ~UART_1_CTRL_ENABLED;  /* Disable scb IP */
 752              		.loc 3 215 0
 753 0008 044B     		ldr	r3, .L71
ARM GAS  C:\Users\kevin\AppData\Local\Temp\ccrZUpt9.s 			page 36


 218:.\Generated_Source\PSoC4/uart_1.c ****     UART_1_ClearPendingInt();
 754              		.loc 3 218 0
 755 000a 0B20     		mov	r0, #11
 215:.\Generated_Source\PSoC4/uart_1.c ****     UART_1_CTRL_REG &= (uint32) ~UART_1_CTRL_ENABLED;  /* Disable scb IP */
 756              		.loc 3 215 0
 757 000c 1A68     		ldr	r2, [r3]
 222:.\Generated_Source\PSoC4/uart_1.c **** }
 758              		.loc 3 222 0
 759              		@ sp needed
 215:.\Generated_Source\PSoC4/uart_1.c ****     UART_1_CTRL_REG &= (uint32) ~UART_1_CTRL_ENABLED;  /* Disable scb IP */
 760              		.loc 3 215 0
 761 000e 5200     		lsl	r2, r2, #1
 762 0010 5208     		lsr	r2, r2, #1
 763 0012 1A60     		str	r2, [r3]
 218:.\Generated_Source\PSoC4/uart_1.c ****     UART_1_ClearPendingInt();
 764              		.loc 3 218 0
 765 0014 FFF7FEFF 		bl	CyIntClearPending
 766              	.LVL42:
 222:.\Generated_Source\PSoC4/uart_1.c **** }
 767              		.loc 3 222 0
 768 0018 08BD     		pop	{r3, pc}
 769              	.L72:
 770 001a C046     		.align	2
 771              	.L71:
 772 001c 00000740 		.word	1074200576
 773              		.cfi_endproc
 774              	.LFE46:
 775              		.size	UART_1_Stop, .-UART_1_Stop
 776              		.section	.text.UART_1_SetRxFifoLevel,"ax",%progbits
 777              		.align	1
 778              		.global	UART_1_SetRxFifoLevel
 779              		.code	16
 780              		.thumb_func
 781              		.type	UART_1_SetRxFifoLevel, %function
 782              	UART_1_SetRxFifoLevel:
 783              	.LFB47:
 243:.\Generated_Source\PSoC4/uart_1.c **** {
 784              		.loc 3 243 0
 785              		.cfi_startproc
 786              	.LVL43:
 246:.\Generated_Source\PSoC4/uart_1.c ****     rxFifoCtrl = UART_1_RX_FIFO_CTRL_REG;
 787              		.loc 3 246 0
 788 0000 034B     		ldr	r3, .L74
 248:.\Generated_Source\PSoC4/uart_1.c ****     rxFifoCtrl &= ((uint32) ~UART_1_RX_FIFO_CTRL_TRIGGER_LEVEL_MASK); /* Clear level mask bits */
 789              		.loc 3 248 0
 790 0002 0722     		mov	r2, #7
 246:.\Generated_Source\PSoC4/uart_1.c ****     rxFifoCtrl = UART_1_RX_FIFO_CTRL_REG;
 791              		.loc 3 246 0
 792 0004 1968     		ldr	r1, [r3]
 793              	.LVL44:
 252:.\Generated_Source\PSoC4/uart_1.c **** }
 794              		.loc 3 252 0
 795              		@ sp needed
 248:.\Generated_Source\PSoC4/uart_1.c ****     rxFifoCtrl &= ((uint32) ~UART_1_RX_FIFO_CTRL_TRIGGER_LEVEL_MASK); /* Clear level mask bits */
 796              		.loc 3 248 0
 797 0006 9143     		bic	r1, r2
 798              	.LVL45:
ARM GAS  C:\Users\kevin\AppData\Local\Temp\ccrZUpt9.s 			page 37


 249:.\Generated_Source\PSoC4/uart_1.c ****     rxFifoCtrl |= ((uint32) (UART_1_RX_FIFO_CTRL_TRIGGER_LEVEL_MASK & level));
 799              		.loc 3 249 0
 800 0008 0240     		and	r2, r0
 801 000a 0A43     		orr	r2, r1
 802              	.LVL46:
 251:.\Generated_Source\PSoC4/uart_1.c ****     UART_1_RX_FIFO_CTRL_REG = rxFifoCtrl;
 803              		.loc 3 251 0
 804 000c 1A60     		str	r2, [r3]
 252:.\Generated_Source\PSoC4/uart_1.c **** }
 805              		.loc 3 252 0
 806 000e 7047     		bx	lr
 807              	.L75:
 808              		.align	2
 809              	.L74:
 810 0010 04030740 		.word	1074201348
 811              		.cfi_endproc
 812              	.LFE47:
 813              		.size	UART_1_SetRxFifoLevel, .-UART_1_SetRxFifoLevel
 814              		.section	.text.UART_1_SetTxFifoLevel,"ax",%progbits
 815              		.align	1
 816              		.global	UART_1_SetTxFifoLevel
 817              		.code	16
 818              		.thumb_func
 819              		.type	UART_1_SetTxFifoLevel, %function
 820              	UART_1_SetTxFifoLevel:
 821              	.LFB48:
 273:.\Generated_Source\PSoC4/uart_1.c **** {
 822              		.loc 3 273 0
 823              		.cfi_startproc
 824              	.LVL47:
 276:.\Generated_Source\PSoC4/uart_1.c ****     txFifoCtrl = UART_1_TX_FIFO_CTRL_REG;
 825              		.loc 3 276 0
 826 0000 034B     		ldr	r3, .L77
 278:.\Generated_Source\PSoC4/uart_1.c ****     txFifoCtrl &= ((uint32) ~UART_1_TX_FIFO_CTRL_TRIGGER_LEVEL_MASK); /* Clear level mask bits */
 827              		.loc 3 278 0
 828 0002 0722     		mov	r2, #7
 276:.\Generated_Source\PSoC4/uart_1.c ****     txFifoCtrl = UART_1_TX_FIFO_CTRL_REG;
 829              		.loc 3 276 0
 830 0004 1968     		ldr	r1, [r3]
 831              	.LVL48:
 282:.\Generated_Source\PSoC4/uart_1.c **** }
 832              		.loc 3 282 0
 833              		@ sp needed
 278:.\Generated_Source\PSoC4/uart_1.c ****     txFifoCtrl &= ((uint32) ~UART_1_TX_FIFO_CTRL_TRIGGER_LEVEL_MASK); /* Clear level mask bits */
 834              		.loc 3 278 0
 835 0006 9143     		bic	r1, r2
 836              	.LVL49:
 279:.\Generated_Source\PSoC4/uart_1.c ****     txFifoCtrl |= ((uint32) (UART_1_TX_FIFO_CTRL_TRIGGER_LEVEL_MASK & level));
 837              		.loc 3 279 0
 838 0008 0240     		and	r2, r0
 839 000a 0A43     		orr	r2, r1
 840              	.LVL50:
 281:.\Generated_Source\PSoC4/uart_1.c ****     UART_1_TX_FIFO_CTRL_REG = txFifoCtrl;
 841              		.loc 3 281 0
 842 000c 1A60     		str	r2, [r3]
 282:.\Generated_Source\PSoC4/uart_1.c **** }
 843              		.loc 3 282 0
ARM GAS  C:\Users\kevin\AppData\Local\Temp\ccrZUpt9.s 			page 38


 844 000e 7047     		bx	lr
 845              	.L78:
 846              		.align	2
 847              	.L77:
 848 0010 04020740 		.word	1074201092
 849              		.cfi_endproc
 850              	.LFE48:
 851              		.size	UART_1_SetTxFifoLevel, .-UART_1_SetTxFifoLevel
 852              		.section	.text.UART_1_SetCustomInterruptHandler,"ax",%progbits
 853              		.align	1
 854              		.global	UART_1_SetCustomInterruptHandler
 855              		.code	16
 856              		.thumb_func
 857              		.type	UART_1_SetCustomInterruptHandler, %function
 858              	UART_1_SetCustomInterruptHandler:
 859              	.LFB49:
 308:.\Generated_Source\PSoC4/uart_1.c **** {
 860              		.loc 3 308 0
 861              		.cfi_startproc
 862              	.LVL51:
 310:.\Generated_Source\PSoC4/uart_1.c ****     UART_1_customIntrHandler = func; /* Register interrupt handler */
 863              		.loc 3 310 0
 864 0000 014B     		ldr	r3, .L80
 317:.\Generated_Source\PSoC4/uart_1.c **** }
 865              		.loc 3 317 0
 866              		@ sp needed
 310:.\Generated_Source\PSoC4/uart_1.c ****     UART_1_customIntrHandler = func; /* Register interrupt handler */
 867              		.loc 3 310 0
 868 0002 D860     		str	r0, [r3, #12]
 317:.\Generated_Source\PSoC4/uart_1.c **** }
 869              		.loc 3 317 0
 870 0004 7047     		bx	lr
 871              	.L81:
 872 0006 C046     		.align	2
 873              	.L80:
 874 0008 00000000 		.word	.LANCHOR0
 875              		.cfi_endproc
 876              	.LFE49:
 877              		.size	UART_1_SetCustomInterruptHandler, .-UART_1_SetCustomInterruptHandler
 878              		.section	.text.UART_1_I2CSlaveNackGeneration,"ax",%progbits
 879              		.align	1
 880              		.global	UART_1_I2CSlaveNackGeneration
 881              		.code	16
 882              		.thumb_func
 883              		.type	UART_1_I2CSlaveNackGeneration, %function
 884              	UART_1_I2CSlaveNackGeneration:
 885              	.LFB52:
 345:.\Generated_Source\PSoC4/uart_1.c **** 
 346:.\Generated_Source\PSoC4/uart_1.c ****     #endif /* (UART_1_SCB_MODE_UNCONFIG_CONST_CFG) */
 347:.\Generated_Source\PSoC4/uart_1.c **** #endif /* (UART_1_SCB_IRQ_INTERNAL) */
 348:.\Generated_Source\PSoC4/uart_1.c **** }
 349:.\Generated_Source\PSoC4/uart_1.c **** 
 350:.\Generated_Source\PSoC4/uart_1.c **** 
 351:.\Generated_Source\PSoC4/uart_1.c **** /*******************************************************************************
 352:.\Generated_Source\PSoC4/uart_1.c **** * Function Name: UART_1_ScbModeStop
 353:.\Generated_Source\PSoC4/uart_1.c **** ********************************************************************************
 354:.\Generated_Source\PSoC4/uart_1.c **** *
ARM GAS  C:\Users\kevin\AppData\Local\Temp\ccrZUpt9.s 			page 39


 355:.\Generated_Source\PSoC4/uart_1.c **** * Summary:
 356:.\Generated_Source\PSoC4/uart_1.c **** *  Calls the Stop function for a specific operation mode.
 357:.\Generated_Source\PSoC4/uart_1.c **** *
 358:.\Generated_Source\PSoC4/uart_1.c **** * Parameters:
 359:.\Generated_Source\PSoC4/uart_1.c **** *  None
 360:.\Generated_Source\PSoC4/uart_1.c **** *
 361:.\Generated_Source\PSoC4/uart_1.c **** * Return:
 362:.\Generated_Source\PSoC4/uart_1.c **** *  None
 363:.\Generated_Source\PSoC4/uart_1.c **** *
 364:.\Generated_Source\PSoC4/uart_1.c **** *******************************************************************************/
 365:.\Generated_Source\PSoC4/uart_1.c **** static void UART_1_ScbModeStop(void)
 366:.\Generated_Source\PSoC4/uart_1.c **** {
 367:.\Generated_Source\PSoC4/uart_1.c **** #if(UART_1_SCB_MODE_UNCONFIG_CONST_CFG)
 368:.\Generated_Source\PSoC4/uart_1.c ****     if(UART_1_SCB_MODE_I2C_RUNTM_CFG)
 369:.\Generated_Source\PSoC4/uart_1.c ****     {
 370:.\Generated_Source\PSoC4/uart_1.c ****         UART_1_I2CStop();
 371:.\Generated_Source\PSoC4/uart_1.c ****     }
 372:.\Generated_Source\PSoC4/uart_1.c ****     else if (UART_1_SCB_MODE_EZI2C_RUNTM_CFG)
 373:.\Generated_Source\PSoC4/uart_1.c ****     {
 374:.\Generated_Source\PSoC4/uart_1.c ****         UART_1_EzI2CStop();
 375:.\Generated_Source\PSoC4/uart_1.c ****     }
 376:.\Generated_Source\PSoC4/uart_1.c **** #if (!UART_1_CY_SCBIP_V1)
 377:.\Generated_Source\PSoC4/uart_1.c ****     else if (UART_1_SCB_MODE_UART_RUNTM_CFG)
 378:.\Generated_Source\PSoC4/uart_1.c ****     {
 379:.\Generated_Source\PSoC4/uart_1.c ****         UART_1_UartStop();
 380:.\Generated_Source\PSoC4/uart_1.c ****     }
 381:.\Generated_Source\PSoC4/uart_1.c **** #endif /* (!UART_1_CY_SCBIP_V1) */
 382:.\Generated_Source\PSoC4/uart_1.c ****     else
 383:.\Generated_Source\PSoC4/uart_1.c ****     {
 384:.\Generated_Source\PSoC4/uart_1.c ****         /* Do nothing for other modes */
 385:.\Generated_Source\PSoC4/uart_1.c ****     }
 386:.\Generated_Source\PSoC4/uart_1.c **** #elif(UART_1_SCB_MODE_I2C_CONST_CFG)
 387:.\Generated_Source\PSoC4/uart_1.c ****     UART_1_I2CStop();
 388:.\Generated_Source\PSoC4/uart_1.c **** 
 389:.\Generated_Source\PSoC4/uart_1.c **** #elif(UART_1_SCB_MODE_EZI2C_CONST_CFG)
 390:.\Generated_Source\PSoC4/uart_1.c ****     UART_1_EzI2CStop();
 391:.\Generated_Source\PSoC4/uart_1.c **** 
 392:.\Generated_Source\PSoC4/uart_1.c **** #elif(UART_1_SCB_MODE_UART_CONST_CFG)
 393:.\Generated_Source\PSoC4/uart_1.c ****     UART_1_UartStop();
 394:.\Generated_Source\PSoC4/uart_1.c **** 
 395:.\Generated_Source\PSoC4/uart_1.c **** #endif /* (UART_1_SCB_MODE_UNCONFIG_CONST_CFG) */
 396:.\Generated_Source\PSoC4/uart_1.c **** }
 397:.\Generated_Source\PSoC4/uart_1.c **** 
 398:.\Generated_Source\PSoC4/uart_1.c **** 
 399:.\Generated_Source\PSoC4/uart_1.c **** #if(UART_1_SCB_MODE_UNCONFIG_CONST_CFG)
 400:.\Generated_Source\PSoC4/uart_1.c ****     /*******************************************************************************
 401:.\Generated_Source\PSoC4/uart_1.c ****     * Function Name: UART_1_SetPins
 402:.\Generated_Source\PSoC4/uart_1.c ****     ********************************************************************************
 403:.\Generated_Source\PSoC4/uart_1.c ****     *
 404:.\Generated_Source\PSoC4/uart_1.c ****     * Summary:
 405:.\Generated_Source\PSoC4/uart_1.c ****     *  Sets the pins settings accordingly to the selected operation mode.
 406:.\Generated_Source\PSoC4/uart_1.c ****     *  Only available in the Unconfigured operation mode. The mode specific
 407:.\Generated_Source\PSoC4/uart_1.c ****     *  initialization function calls it.
 408:.\Generated_Source\PSoC4/uart_1.c ****     *  Pins configuration is set by PSoC Creator when a specific mode of operation
 409:.\Generated_Source\PSoC4/uart_1.c ****     *  is selected in design time.
 410:.\Generated_Source\PSoC4/uart_1.c ****     *
 411:.\Generated_Source\PSoC4/uart_1.c ****     * Parameters:
ARM GAS  C:\Users\kevin\AppData\Local\Temp\ccrZUpt9.s 			page 40


 412:.\Generated_Source\PSoC4/uart_1.c ****     *  mode:      Mode of SCB operation.
 413:.\Generated_Source\PSoC4/uart_1.c ****     *  subMode:   Sub-mode of SCB operation. It is only required for SPI and UART
 414:.\Generated_Source\PSoC4/uart_1.c ****     *             modes.
 415:.\Generated_Source\PSoC4/uart_1.c ****     *  uartEnableMask: enables TX or RX direction and RTS and CTS signals.
 416:.\Generated_Source\PSoC4/uart_1.c ****     *
 417:.\Generated_Source\PSoC4/uart_1.c ****     * Return:
 418:.\Generated_Source\PSoC4/uart_1.c ****     *  None
 419:.\Generated_Source\PSoC4/uart_1.c ****     *
 420:.\Generated_Source\PSoC4/uart_1.c ****     *******************************************************************************/
 421:.\Generated_Source\PSoC4/uart_1.c ****     void UART_1_SetPins(uint32 mode, uint32 subMode, uint32 uartEnableMask)
 422:.\Generated_Source\PSoC4/uart_1.c ****     {
 423:.\Generated_Source\PSoC4/uart_1.c ****         uint32 hsiomSel [UART_1_SCB_PINS_NUMBER];
 424:.\Generated_Source\PSoC4/uart_1.c ****         uint32 pinsDm   [UART_1_SCB_PINS_NUMBER];
 425:.\Generated_Source\PSoC4/uart_1.c **** 
 426:.\Generated_Source\PSoC4/uart_1.c ****     #if (!UART_1_CY_SCBIP_V1)
 427:.\Generated_Source\PSoC4/uart_1.c ****         uint32 pinsInBuf = 0u;
 428:.\Generated_Source\PSoC4/uart_1.c ****     #endif /* (!UART_1_CY_SCBIP_V1) */
 429:.\Generated_Source\PSoC4/uart_1.c **** 
 430:.\Generated_Source\PSoC4/uart_1.c ****         uint32 i;
 431:.\Generated_Source\PSoC4/uart_1.c **** 
 432:.\Generated_Source\PSoC4/uart_1.c ****         /* Set default HSIOM to GPIO and Drive Mode to Analog Hi-Z */
 433:.\Generated_Source\PSoC4/uart_1.c ****         for(i = 0u; i < UART_1_SCB_PINS_NUMBER; i++)
 434:.\Generated_Source\PSoC4/uart_1.c ****         {
 435:.\Generated_Source\PSoC4/uart_1.c ****             hsiomSel[i]  = UART_1_HSIOM_DEF_SEL;
 436:.\Generated_Source\PSoC4/uart_1.c ****             pinsDm[i]    = UART_1_PIN_DM_ALG_HIZ;
 437:.\Generated_Source\PSoC4/uart_1.c ****         }
 438:.\Generated_Source\PSoC4/uart_1.c **** 
 439:.\Generated_Source\PSoC4/uart_1.c ****         if((UART_1_SCB_MODE_I2C   == mode) ||
 440:.\Generated_Source\PSoC4/uart_1.c ****            (UART_1_SCB_MODE_EZI2C == mode))
 441:.\Generated_Source\PSoC4/uart_1.c ****         {
 442:.\Generated_Source\PSoC4/uart_1.c ****             hsiomSel[UART_1_MOSI_SCL_RX_PIN_INDEX] = UART_1_HSIOM_I2C_SEL;
 443:.\Generated_Source\PSoC4/uart_1.c ****             hsiomSel[UART_1_MISO_SDA_TX_PIN_INDEX] = UART_1_HSIOM_I2C_SEL;
 444:.\Generated_Source\PSoC4/uart_1.c **** 
 445:.\Generated_Source\PSoC4/uart_1.c ****             pinsDm[UART_1_MOSI_SCL_RX_PIN_INDEX] = UART_1_PIN_DM_OD_LO;
 446:.\Generated_Source\PSoC4/uart_1.c ****             pinsDm[UART_1_MISO_SDA_TX_PIN_INDEX] = UART_1_PIN_DM_OD_LO;
 447:.\Generated_Source\PSoC4/uart_1.c ****         }
 448:.\Generated_Source\PSoC4/uart_1.c ****     #if (!UART_1_CY_SCBIP_V1)
 449:.\Generated_Source\PSoC4/uart_1.c ****         else if(UART_1_SCB_MODE_SPI == mode)
 450:.\Generated_Source\PSoC4/uart_1.c ****         {
 451:.\Generated_Source\PSoC4/uart_1.c ****             hsiomSel[UART_1_MOSI_SCL_RX_PIN_INDEX] = UART_1_HSIOM_SPI_SEL;
 452:.\Generated_Source\PSoC4/uart_1.c ****             hsiomSel[UART_1_MISO_SDA_TX_PIN_INDEX] = UART_1_HSIOM_SPI_SEL;
 453:.\Generated_Source\PSoC4/uart_1.c ****             hsiomSel[UART_1_SCLK_PIN_INDEX]        = UART_1_HSIOM_SPI_SEL;
 454:.\Generated_Source\PSoC4/uart_1.c **** 
 455:.\Generated_Source\PSoC4/uart_1.c ****             if(UART_1_SPI_SLAVE == subMode)
 456:.\Generated_Source\PSoC4/uart_1.c ****             {
 457:.\Generated_Source\PSoC4/uart_1.c ****                 /* Slave */
 458:.\Generated_Source\PSoC4/uart_1.c ****                 pinsDm[UART_1_MOSI_SCL_RX_PIN_INDEX] = UART_1_PIN_DM_DIG_HIZ;
 459:.\Generated_Source\PSoC4/uart_1.c ****                 pinsDm[UART_1_MISO_SDA_TX_PIN_INDEX] = UART_1_PIN_DM_STRONG;
 460:.\Generated_Source\PSoC4/uart_1.c ****                 pinsDm[UART_1_SCLK_PIN_INDEX]        = UART_1_PIN_DM_DIG_HIZ;
 461:.\Generated_Source\PSoC4/uart_1.c **** 
 462:.\Generated_Source\PSoC4/uart_1.c ****             #if(UART_1_SS0_PIN)
 463:.\Generated_Source\PSoC4/uart_1.c ****                 /* Only SS0 is valid choice for Slave */
 464:.\Generated_Source\PSoC4/uart_1.c ****                 hsiomSel[UART_1_SS0_PIN_INDEX] = UART_1_HSIOM_SPI_SEL;
 465:.\Generated_Source\PSoC4/uart_1.c ****                 pinsDm  [UART_1_SS0_PIN_INDEX] = UART_1_PIN_DM_DIG_HIZ;
 466:.\Generated_Source\PSoC4/uart_1.c ****             #endif /* (UART_1_SS1_PIN) */
 467:.\Generated_Source\PSoC4/uart_1.c **** 
 468:.\Generated_Source\PSoC4/uart_1.c ****             #if(UART_1_MISO_SDA_TX_PIN)
ARM GAS  C:\Users\kevin\AppData\Local\Temp\ccrZUpt9.s 			page 41


 469:.\Generated_Source\PSoC4/uart_1.c ****                 /* Disable input buffer */
 470:.\Generated_Source\PSoC4/uart_1.c ****                  pinsInBuf |= UART_1_MISO_SDA_TX_PIN_MASK;
 471:.\Generated_Source\PSoC4/uart_1.c ****             #endif /* (UART_1_MISO_SDA_TX_PIN_PIN) */
 472:.\Generated_Source\PSoC4/uart_1.c ****             }
 473:.\Generated_Source\PSoC4/uart_1.c ****             else /* (Master) */
 474:.\Generated_Source\PSoC4/uart_1.c ****             {
 475:.\Generated_Source\PSoC4/uart_1.c ****                 pinsDm[UART_1_MOSI_SCL_RX_PIN_INDEX] = UART_1_PIN_DM_STRONG;
 476:.\Generated_Source\PSoC4/uart_1.c ****                 pinsDm[UART_1_MISO_SDA_TX_PIN_INDEX] = UART_1_PIN_DM_DIG_HIZ;
 477:.\Generated_Source\PSoC4/uart_1.c ****                 pinsDm[UART_1_SCLK_PIN_INDEX]        = UART_1_PIN_DM_STRONG;
 478:.\Generated_Source\PSoC4/uart_1.c **** 
 479:.\Generated_Source\PSoC4/uart_1.c ****             #if(UART_1_SS0_PIN)
 480:.\Generated_Source\PSoC4/uart_1.c ****                 hsiomSel [UART_1_SS0_PIN_INDEX] = UART_1_HSIOM_SPI_SEL;
 481:.\Generated_Source\PSoC4/uart_1.c ****                 pinsDm   [UART_1_SS0_PIN_INDEX] = UART_1_PIN_DM_STRONG;
 482:.\Generated_Source\PSoC4/uart_1.c ****                 pinsInBuf                                |= UART_1_SS0_PIN_MASK;
 483:.\Generated_Source\PSoC4/uart_1.c ****             #endif /* (UART_1_SS0_PIN) */
 484:.\Generated_Source\PSoC4/uart_1.c **** 
 485:.\Generated_Source\PSoC4/uart_1.c ****             #if(UART_1_SS1_PIN)
 486:.\Generated_Source\PSoC4/uart_1.c ****                 hsiomSel [UART_1_SS1_PIN_INDEX] = UART_1_HSIOM_SPI_SEL;
 487:.\Generated_Source\PSoC4/uart_1.c ****                 pinsDm   [UART_1_SS1_PIN_INDEX] = UART_1_PIN_DM_STRONG;
 488:.\Generated_Source\PSoC4/uart_1.c ****                 pinsInBuf                                |= UART_1_SS1_PIN_MASK;
 489:.\Generated_Source\PSoC4/uart_1.c ****             #endif /* (UART_1_SS1_PIN) */
 490:.\Generated_Source\PSoC4/uart_1.c **** 
 491:.\Generated_Source\PSoC4/uart_1.c ****             #if(UART_1_SS2_PIN)
 492:.\Generated_Source\PSoC4/uart_1.c ****                 hsiomSel [UART_1_SS2_PIN_INDEX] = UART_1_HSIOM_SPI_SEL;
 493:.\Generated_Source\PSoC4/uart_1.c ****                 pinsDm   [UART_1_SS2_PIN_INDEX] = UART_1_PIN_DM_STRONG;
 494:.\Generated_Source\PSoC4/uart_1.c ****                 pinsInBuf                                |= UART_1_SS2_PIN_MASK;
 495:.\Generated_Source\PSoC4/uart_1.c ****             #endif /* (UART_1_SS2_PIN) */
 496:.\Generated_Source\PSoC4/uart_1.c **** 
 497:.\Generated_Source\PSoC4/uart_1.c ****             #if(UART_1_SS3_PIN)
 498:.\Generated_Source\PSoC4/uart_1.c ****                 hsiomSel [UART_1_SS3_PIN_INDEX] = UART_1_HSIOM_SPI_SEL;
 499:.\Generated_Source\PSoC4/uart_1.c ****                 pinsDm   [UART_1_SS3_PIN_INDEX] = UART_1_PIN_DM_STRONG;
 500:.\Generated_Source\PSoC4/uart_1.c ****                 pinsInBuf                                |= UART_1_SS3_PIN_MASK;
 501:.\Generated_Source\PSoC4/uart_1.c ****             #endif /* (UART_1_SS2_PIN) */
 502:.\Generated_Source\PSoC4/uart_1.c **** 
 503:.\Generated_Source\PSoC4/uart_1.c ****                 /* Disable input buffers */
 504:.\Generated_Source\PSoC4/uart_1.c ****             #if(UART_1_MOSI_SCL_RX_PIN)
 505:.\Generated_Source\PSoC4/uart_1.c ****                 pinsInBuf |= UART_1_MOSI_SCL_RX_PIN_MASK;
 506:.\Generated_Source\PSoC4/uart_1.c ****             #endif /* (UART_1_MOSI_SCL_RX_PIN) */
 507:.\Generated_Source\PSoC4/uart_1.c **** 
 508:.\Generated_Source\PSoC4/uart_1.c ****              #if(UART_1_MOSI_SCL_RX_WAKE_PIN)
 509:.\Generated_Source\PSoC4/uart_1.c ****                 pinsInBuf |= UART_1_MOSI_SCL_RX_WAKE_PIN_MASK;
 510:.\Generated_Source\PSoC4/uart_1.c ****             #endif /* (UART_1_MOSI_SCL_RX_WAKE_PIN) */
 511:.\Generated_Source\PSoC4/uart_1.c **** 
 512:.\Generated_Source\PSoC4/uart_1.c ****             #if(UART_1_SCLK_PIN)
 513:.\Generated_Source\PSoC4/uart_1.c ****                 pinsInBuf |= UART_1_SCLK_PIN_MASK;
 514:.\Generated_Source\PSoC4/uart_1.c ****             #endif /* (UART_1_SCLK_PIN) */
 515:.\Generated_Source\PSoC4/uart_1.c ****             }
 516:.\Generated_Source\PSoC4/uart_1.c ****         }
 517:.\Generated_Source\PSoC4/uart_1.c ****         else /* UART */
 518:.\Generated_Source\PSoC4/uart_1.c ****         {
 519:.\Generated_Source\PSoC4/uart_1.c ****             if(UART_1_UART_MODE_SMARTCARD == subMode)
 520:.\Generated_Source\PSoC4/uart_1.c ****             {
 521:.\Generated_Source\PSoC4/uart_1.c ****                 /* SmartCard */
 522:.\Generated_Source\PSoC4/uart_1.c ****                 hsiomSel[UART_1_MISO_SDA_TX_PIN_INDEX] = UART_1_HSIOM_UART_SEL;
 523:.\Generated_Source\PSoC4/uart_1.c ****                 pinsDm  [UART_1_MISO_SDA_TX_PIN_INDEX] = UART_1_PIN_DM_OD_LO;
 524:.\Generated_Source\PSoC4/uart_1.c ****             }
 525:.\Generated_Source\PSoC4/uart_1.c ****             else /* Standard or IrDA */
ARM GAS  C:\Users\kevin\AppData\Local\Temp\ccrZUpt9.s 			page 42


 526:.\Generated_Source\PSoC4/uart_1.c ****             {
 527:.\Generated_Source\PSoC4/uart_1.c ****                 if(0u != (UART_1_UART_RX_PIN_ENABLE & uartEnableMask))
 528:.\Generated_Source\PSoC4/uart_1.c ****                 {
 529:.\Generated_Source\PSoC4/uart_1.c ****                     hsiomSel[UART_1_MOSI_SCL_RX_PIN_INDEX] = UART_1_HSIOM_UART_SEL;
 530:.\Generated_Source\PSoC4/uart_1.c ****                     pinsDm  [UART_1_MOSI_SCL_RX_PIN_INDEX] = UART_1_PIN_DM_DIG_HIZ;
 531:.\Generated_Source\PSoC4/uart_1.c ****                 }
 532:.\Generated_Source\PSoC4/uart_1.c **** 
 533:.\Generated_Source\PSoC4/uart_1.c ****                 if(0u != (UART_1_UART_TX_PIN_ENABLE & uartEnableMask))
 534:.\Generated_Source\PSoC4/uart_1.c ****                 {
 535:.\Generated_Source\PSoC4/uart_1.c ****                     hsiomSel[UART_1_MISO_SDA_TX_PIN_INDEX] = UART_1_HSIOM_UART_SEL;
 536:.\Generated_Source\PSoC4/uart_1.c ****                     pinsDm  [UART_1_MISO_SDA_TX_PIN_INDEX] = UART_1_PIN_DM_STRONG;
 537:.\Generated_Source\PSoC4/uart_1.c **** 
 538:.\Generated_Source\PSoC4/uart_1.c ****                 #if(UART_1_MISO_SDA_TX_PIN)
 539:.\Generated_Source\PSoC4/uart_1.c ****                      pinsInBuf |= UART_1_MISO_SDA_TX_PIN_MASK;
 540:.\Generated_Source\PSoC4/uart_1.c ****                 #endif /* (UART_1_MISO_SDA_TX_PIN_PIN) */
 541:.\Generated_Source\PSoC4/uart_1.c ****                 }
 542:.\Generated_Source\PSoC4/uart_1.c **** 
 543:.\Generated_Source\PSoC4/uart_1.c ****             #if !(UART_1_CY_SCBIP_V0 || UART_1_CY_SCBIP_V1)
 544:.\Generated_Source\PSoC4/uart_1.c ****                 if(UART_1_UART_MODE_STD == subMode)
 545:.\Generated_Source\PSoC4/uart_1.c ****                 {
 546:.\Generated_Source\PSoC4/uart_1.c ****                     if(0u != (UART_1_UART_CTS_PIN_ENABLE & uartEnableMask))
 547:.\Generated_Source\PSoC4/uart_1.c ****                     {
 548:.\Generated_Source\PSoC4/uart_1.c ****                         /* CTS input is multiplexed with SCLK */
 549:.\Generated_Source\PSoC4/uart_1.c ****                         hsiomSel[UART_1_SCLK_PIN_INDEX] = UART_1_HSIOM_UART_SEL;
 550:.\Generated_Source\PSoC4/uart_1.c ****                         pinsDm  [UART_1_SCLK_PIN_INDEX] = UART_1_PIN_DM_DIG_HIZ;
 551:.\Generated_Source\PSoC4/uart_1.c ****                     }
 552:.\Generated_Source\PSoC4/uart_1.c **** 
 553:.\Generated_Source\PSoC4/uart_1.c ****                     if(0u != (UART_1_UART_RTS_PIN_ENABLE & uartEnableMask))
 554:.\Generated_Source\PSoC4/uart_1.c ****                     {
 555:.\Generated_Source\PSoC4/uart_1.c ****                         /* RTS output is multiplexed with SS0 */
 556:.\Generated_Source\PSoC4/uart_1.c ****                         hsiomSel[UART_1_SS0_PIN_INDEX] = UART_1_HSIOM_UART_SEL;
 557:.\Generated_Source\PSoC4/uart_1.c ****                         pinsDm  [UART_1_SS0_PIN_INDEX] = UART_1_PIN_DM_STRONG;
 558:.\Generated_Source\PSoC4/uart_1.c **** 
 559:.\Generated_Source\PSoC4/uart_1.c ****                     #if(UART_1_SS0_PIN)
 560:.\Generated_Source\PSoC4/uart_1.c ****                         /* Disable input buffer */
 561:.\Generated_Source\PSoC4/uart_1.c ****                         pinsInBuf |= UART_1_SS0_PIN_MASK;
 562:.\Generated_Source\PSoC4/uart_1.c ****                     #endif /* (UART_1_SS0_PIN) */
 563:.\Generated_Source\PSoC4/uart_1.c ****                     }
 564:.\Generated_Source\PSoC4/uart_1.c ****                 }
 565:.\Generated_Source\PSoC4/uart_1.c ****             #endif /* !(UART_1_CY_SCBIP_V0 || UART_1_CY_SCBIP_V1) */
 566:.\Generated_Source\PSoC4/uart_1.c ****             }
 567:.\Generated_Source\PSoC4/uart_1.c ****         }
 568:.\Generated_Source\PSoC4/uart_1.c ****     #endif /* (!UART_1_CY_SCBIP_V1) */
 569:.\Generated_Source\PSoC4/uart_1.c **** 
 570:.\Generated_Source\PSoC4/uart_1.c ****     /* Configure pins: set HSIOM, DM and InputBufEnable */
 571:.\Generated_Source\PSoC4/uart_1.c ****     /* Note: the DR register settings do not effect the pin output if HSIOM is other than GPIO */
 572:.\Generated_Source\PSoC4/uart_1.c **** 
 573:.\Generated_Source\PSoC4/uart_1.c ****     #if(UART_1_MOSI_SCL_RX_PIN)
 574:.\Generated_Source\PSoC4/uart_1.c ****         UART_1_SET_HSIOM_SEL(UART_1_MOSI_SCL_RX_HSIOM_REG,
 575:.\Generated_Source\PSoC4/uart_1.c ****                                        UART_1_MOSI_SCL_RX_HSIOM_MASK,
 576:.\Generated_Source\PSoC4/uart_1.c ****                                        UART_1_MOSI_SCL_RX_HSIOM_POS,
 577:.\Generated_Source\PSoC4/uart_1.c ****                                        hsiomSel[UART_1_MOSI_SCL_RX_PIN_INDEX]);
 578:.\Generated_Source\PSoC4/uart_1.c **** 
 579:.\Generated_Source\PSoC4/uart_1.c ****         UART_1_spi_mosi_i2c_scl_uart_rx_SetDriveMode((uint8) pinsDm[UART_1_MOSI_SCL_RX_PIN_INDEX]);
 580:.\Generated_Source\PSoC4/uart_1.c **** 
 581:.\Generated_Source\PSoC4/uart_1.c ****     #if (!UART_1_CY_SCBIP_V1)
 582:.\Generated_Source\PSoC4/uart_1.c ****         UART_1_SET_INP_DIS(UART_1_spi_mosi_i2c_scl_uart_rx_INP_DIS,
ARM GAS  C:\Users\kevin\AppData\Local\Temp\ccrZUpt9.s 			page 43


 583:.\Generated_Source\PSoC4/uart_1.c ****                                      UART_1_spi_mosi_i2c_scl_uart_rx_MASK,
 584:.\Generated_Source\PSoC4/uart_1.c ****                                      (0u != (pinsInBuf & UART_1_MOSI_SCL_RX_PIN_MASK)));
 585:.\Generated_Source\PSoC4/uart_1.c ****     #endif /* (!UART_1_CY_SCBIP_V1) */
 586:.\Generated_Source\PSoC4/uart_1.c ****     #endif /* (UART_1_MOSI_SCL_RX_PIN) */
 587:.\Generated_Source\PSoC4/uart_1.c **** 
 588:.\Generated_Source\PSoC4/uart_1.c ****     #if(UART_1_MOSI_SCL_RX_WAKE_PIN)
 589:.\Generated_Source\PSoC4/uart_1.c ****         UART_1_SET_HSIOM_SEL(UART_1_MOSI_SCL_RX_WAKE_HSIOM_REG,
 590:.\Generated_Source\PSoC4/uart_1.c ****                                        UART_1_MOSI_SCL_RX_WAKE_HSIOM_MASK,
 591:.\Generated_Source\PSoC4/uart_1.c ****                                        UART_1_MOSI_SCL_RX_WAKE_HSIOM_POS,
 592:.\Generated_Source\PSoC4/uart_1.c ****                                        hsiomSel[UART_1_MOSI_SCL_RX_WAKE_PIN_INDEX]);
 593:.\Generated_Source\PSoC4/uart_1.c **** 
 594:.\Generated_Source\PSoC4/uart_1.c ****         UART_1_spi_mosi_i2c_scl_uart_rx_wake_SetDriveMode((uint8)
 595:.\Generated_Source\PSoC4/uart_1.c ****                                                                pinsDm[UART_1_MOSI_SCL_RX_WAKE_PIN_I
 596:.\Generated_Source\PSoC4/uart_1.c **** 
 597:.\Generated_Source\PSoC4/uart_1.c ****         UART_1_SET_INP_DIS(UART_1_spi_mosi_i2c_scl_uart_rx_wake_INP_DIS,
 598:.\Generated_Source\PSoC4/uart_1.c ****                                      UART_1_spi_mosi_i2c_scl_uart_rx_wake_MASK,
 599:.\Generated_Source\PSoC4/uart_1.c ****                                      (0u != (pinsInBuf & UART_1_MOSI_SCL_RX_WAKE_PIN_MASK)));
 600:.\Generated_Source\PSoC4/uart_1.c **** 
 601:.\Generated_Source\PSoC4/uart_1.c ****          /* Set interrupt on falling edge */
 602:.\Generated_Source\PSoC4/uart_1.c ****         UART_1_SET_INCFG_TYPE(UART_1_MOSI_SCL_RX_WAKE_INTCFG_REG,
 603:.\Generated_Source\PSoC4/uart_1.c ****                                         UART_1_MOSI_SCL_RX_WAKE_INTCFG_TYPE_MASK,
 604:.\Generated_Source\PSoC4/uart_1.c ****                                         UART_1_MOSI_SCL_RX_WAKE_INTCFG_TYPE_POS,
 605:.\Generated_Source\PSoC4/uart_1.c ****                                         UART_1_INTCFG_TYPE_FALLING_EDGE);
 606:.\Generated_Source\PSoC4/uart_1.c ****     #endif /* (UART_1_MOSI_SCL_RX_WAKE_PIN) */
 607:.\Generated_Source\PSoC4/uart_1.c **** 
 608:.\Generated_Source\PSoC4/uart_1.c ****     #if(UART_1_MISO_SDA_TX_PIN)
 609:.\Generated_Source\PSoC4/uart_1.c ****         UART_1_SET_HSIOM_SEL(UART_1_MISO_SDA_TX_HSIOM_REG,
 610:.\Generated_Source\PSoC4/uart_1.c ****                                        UART_1_MISO_SDA_TX_HSIOM_MASK,
 611:.\Generated_Source\PSoC4/uart_1.c ****                                        UART_1_MISO_SDA_TX_HSIOM_POS,
 612:.\Generated_Source\PSoC4/uart_1.c ****                                        hsiomSel[UART_1_MISO_SDA_TX_PIN_INDEX]);
 613:.\Generated_Source\PSoC4/uart_1.c **** 
 614:.\Generated_Source\PSoC4/uart_1.c ****         UART_1_spi_miso_i2c_sda_uart_tx_SetDriveMode((uint8) pinsDm[UART_1_MISO_SDA_TX_PIN_INDEX]);
 615:.\Generated_Source\PSoC4/uart_1.c **** 
 616:.\Generated_Source\PSoC4/uart_1.c ****     #if (!UART_1_CY_SCBIP_V1)
 617:.\Generated_Source\PSoC4/uart_1.c ****         UART_1_SET_INP_DIS(UART_1_spi_miso_i2c_sda_uart_tx_INP_DIS,
 618:.\Generated_Source\PSoC4/uart_1.c ****                                      UART_1_spi_miso_i2c_sda_uart_tx_MASK,
 619:.\Generated_Source\PSoC4/uart_1.c ****                                     (0u != (pinsInBuf & UART_1_MISO_SDA_TX_PIN_MASK)));
 620:.\Generated_Source\PSoC4/uart_1.c ****     #endif /* (!UART_1_CY_SCBIP_V1) */
 621:.\Generated_Source\PSoC4/uart_1.c ****     #endif /* (UART_1_MOSI_SCL_RX_PIN) */
 622:.\Generated_Source\PSoC4/uart_1.c **** 
 623:.\Generated_Source\PSoC4/uart_1.c ****     #if(UART_1_SCLK_PIN)
 624:.\Generated_Source\PSoC4/uart_1.c ****         UART_1_SET_HSIOM_SEL(UART_1_SCLK_HSIOM_REG, UART_1_SCLK_HSIOM_MASK,
 625:.\Generated_Source\PSoC4/uart_1.c ****                                        UART_1_SCLK_HSIOM_POS, hsiomSel[UART_1_SCLK_PIN_INDEX]);
 626:.\Generated_Source\PSoC4/uart_1.c **** 
 627:.\Generated_Source\PSoC4/uart_1.c ****         UART_1_spi_sclk_SetDriveMode((uint8) pinsDm[UART_1_SCLK_PIN_INDEX]);
 628:.\Generated_Source\PSoC4/uart_1.c **** 
 629:.\Generated_Source\PSoC4/uart_1.c ****         UART_1_SET_INP_DIS(UART_1_spi_sclk_INP_DIS,
 630:.\Generated_Source\PSoC4/uart_1.c ****                                      UART_1_spi_sclk_MASK,
 631:.\Generated_Source\PSoC4/uart_1.c ****                                      (0u != (pinsInBuf & UART_1_SCLK_PIN_MASK)));
 632:.\Generated_Source\PSoC4/uart_1.c ****     #endif /* (UART_1_SCLK_PIN) */
 633:.\Generated_Source\PSoC4/uart_1.c **** 
 634:.\Generated_Source\PSoC4/uart_1.c ****     #if(UART_1_SS0_PIN)
 635:.\Generated_Source\PSoC4/uart_1.c ****         UART_1_SET_HSIOM_SEL(UART_1_SS0_HSIOM_REG, UART_1_SS0_HSIOM_MASK,
 636:.\Generated_Source\PSoC4/uart_1.c ****                                        UART_1_SS0_HSIOM_POS, hsiomSel[UART_1_SS0_PIN_INDEX]);
 637:.\Generated_Source\PSoC4/uart_1.c **** 
 638:.\Generated_Source\PSoC4/uart_1.c ****         UART_1_spi_ss0_SetDriveMode((uint8) pinsDm[UART_1_SS0_PIN_INDEX]);
 639:.\Generated_Source\PSoC4/uart_1.c **** 
ARM GAS  C:\Users\kevin\AppData\Local\Temp\ccrZUpt9.s 			page 44


 640:.\Generated_Source\PSoC4/uart_1.c ****         UART_1_SET_INP_DIS(UART_1_spi_ss0_INP_DIS,
 641:.\Generated_Source\PSoC4/uart_1.c ****                                      UART_1_spi_ss0_MASK,
 642:.\Generated_Source\PSoC4/uart_1.c ****                                      (0u != (pinsInBuf & UART_1_SS0_PIN_MASK)));
 643:.\Generated_Source\PSoC4/uart_1.c ****     #endif /* (UART_1_SS1_PIN) */
 644:.\Generated_Source\PSoC4/uart_1.c **** 
 645:.\Generated_Source\PSoC4/uart_1.c ****     #if(UART_1_SS1_PIN)
 646:.\Generated_Source\PSoC4/uart_1.c ****         UART_1_SET_HSIOM_SEL(UART_1_SS1_HSIOM_REG, UART_1_SS1_HSIOM_MASK,
 647:.\Generated_Source\PSoC4/uart_1.c ****                                        UART_1_SS1_HSIOM_POS, hsiomSel[UART_1_SS1_PIN_INDEX]);
 648:.\Generated_Source\PSoC4/uart_1.c **** 
 649:.\Generated_Source\PSoC4/uart_1.c ****         UART_1_spi_ss1_SetDriveMode((uint8) pinsDm[UART_1_SS1_PIN_INDEX]);
 650:.\Generated_Source\PSoC4/uart_1.c **** 
 651:.\Generated_Source\PSoC4/uart_1.c ****         UART_1_SET_INP_DIS(UART_1_spi_ss1_INP_DIS,
 652:.\Generated_Source\PSoC4/uart_1.c ****                                      UART_1_spi_ss1_MASK,
 653:.\Generated_Source\PSoC4/uart_1.c ****                                      (0u != (pinsInBuf & UART_1_SS1_PIN_MASK)));
 654:.\Generated_Source\PSoC4/uart_1.c ****     #endif /* (UART_1_SS1_PIN) */
 655:.\Generated_Source\PSoC4/uart_1.c **** 
 656:.\Generated_Source\PSoC4/uart_1.c ****     #if(UART_1_SS2_PIN)
 657:.\Generated_Source\PSoC4/uart_1.c ****         UART_1_SET_HSIOM_SEL(UART_1_SS2_HSIOM_REG, UART_1_SS2_HSIOM_MASK,
 658:.\Generated_Source\PSoC4/uart_1.c ****                                        UART_1_SS2_HSIOM_POS, hsiomSel[UART_1_SS2_PIN_INDEX]);
 659:.\Generated_Source\PSoC4/uart_1.c **** 
 660:.\Generated_Source\PSoC4/uart_1.c ****         UART_1_spi_ss2_SetDriveMode((uint8) pinsDm[UART_1_SS2_PIN_INDEX]);
 661:.\Generated_Source\PSoC4/uart_1.c **** 
 662:.\Generated_Source\PSoC4/uart_1.c ****         UART_1_SET_INP_DIS(UART_1_spi_ss2_INP_DIS,
 663:.\Generated_Source\PSoC4/uart_1.c ****                                      UART_1_spi_ss2_MASK,
 664:.\Generated_Source\PSoC4/uart_1.c ****                                      (0u != (pinsInBuf & UART_1_SS2_PIN_MASK)));
 665:.\Generated_Source\PSoC4/uart_1.c ****     #endif /* (UART_1_SS2_PIN) */
 666:.\Generated_Source\PSoC4/uart_1.c **** 
 667:.\Generated_Source\PSoC4/uart_1.c ****     #if(UART_1_SS3_PIN)
 668:.\Generated_Source\PSoC4/uart_1.c ****         UART_1_SET_HSIOM_SEL(UART_1_SS3_HSIOM_REG,  UART_1_SS3_HSIOM_MASK,
 669:.\Generated_Source\PSoC4/uart_1.c ****                                        UART_1_SS3_HSIOM_POS, hsiomSel[UART_1_SS3_PIN_INDEX]);
 670:.\Generated_Source\PSoC4/uart_1.c **** 
 671:.\Generated_Source\PSoC4/uart_1.c ****         UART_1_spi_ss3_SetDriveMode((uint8) pinsDm[UART_1_SS3_PIN_INDEX]);
 672:.\Generated_Source\PSoC4/uart_1.c **** 
 673:.\Generated_Source\PSoC4/uart_1.c ****         UART_1_SET_INP_DIS(UART_1_spi_ss3_INP_DIS,
 674:.\Generated_Source\PSoC4/uart_1.c ****                                      UART_1_spi_ss3_MASK,
 675:.\Generated_Source\PSoC4/uart_1.c ****                                      (0u != (pinsInBuf & UART_1_SS3_PIN_MASK)));
 676:.\Generated_Source\PSoC4/uart_1.c ****     #endif /* (UART_1_SS3_PIN) */
 677:.\Generated_Source\PSoC4/uart_1.c ****     }
 678:.\Generated_Source\PSoC4/uart_1.c **** 
 679:.\Generated_Source\PSoC4/uart_1.c **** #endif /* (UART_1_SCB_MODE_UNCONFIG_CONST_CFG) */
 680:.\Generated_Source\PSoC4/uart_1.c **** 
 681:.\Generated_Source\PSoC4/uart_1.c **** 
 682:.\Generated_Source\PSoC4/uart_1.c **** #if (UART_1_CY_SCBIP_V0 || UART_1_CY_SCBIP_V1)
 683:.\Generated_Source\PSoC4/uart_1.c ****     /*******************************************************************************
 684:.\Generated_Source\PSoC4/uart_1.c ****     * Function Name: UART_1_I2CSlaveNackGeneration
 685:.\Generated_Source\PSoC4/uart_1.c ****     ********************************************************************************
 686:.\Generated_Source\PSoC4/uart_1.c ****     *
 687:.\Generated_Source\PSoC4/uart_1.c ****     * Summary:
 688:.\Generated_Source\PSoC4/uart_1.c ****     *  Sets command to generate NACK to the address or data.
 689:.\Generated_Source\PSoC4/uart_1.c ****     *
 690:.\Generated_Source\PSoC4/uart_1.c ****     * Parameters:
 691:.\Generated_Source\PSoC4/uart_1.c ****     *  None
 692:.\Generated_Source\PSoC4/uart_1.c ****     *
 693:.\Generated_Source\PSoC4/uart_1.c ****     * Return:
 694:.\Generated_Source\PSoC4/uart_1.c ****     *  None
 695:.\Generated_Source\PSoC4/uart_1.c ****     *
 696:.\Generated_Source\PSoC4/uart_1.c ****     *******************************************************************************/
ARM GAS  C:\Users\kevin\AppData\Local\Temp\ccrZUpt9.s 			page 45


 697:.\Generated_Source\PSoC4/uart_1.c ****     void UART_1_I2CSlaveNackGeneration(void)
 698:.\Generated_Source\PSoC4/uart_1.c ****     {
 886              		.loc 3 698 0
 887              		.cfi_startproc
 699:.\Generated_Source\PSoC4/uart_1.c ****         /* Check for EC_AM toggle condition: EC_AM and clock stretching for address are enabled */
 700:.\Generated_Source\PSoC4/uart_1.c ****         if ((0u != (UART_1_CTRL_REG & UART_1_CTRL_EC_AM_MODE)) &&
 888              		.loc 3 700 0
 889 0000 0A4B     		ldr	r3, .L87
 890 0002 8022     		mov	r2, #128
 891 0004 1968     		ldr	r1, [r3]
 892 0006 5200     		lsl	r2, r2, #1
 893 0008 1142     		tst	r1, r2
 894 000a 0AD0     		beq	.L83
 701:.\Generated_Source\PSoC4/uart_1.c ****             (0u == (UART_1_I2C_CTRL_REG & UART_1_I2C_CTRL_S_NOT_READY_ADDR_NACK)))
 895              		.loc 3 701 0 discriminator 1
 896 000c 0849     		ldr	r1, .L87+4
 897 000e 0968     		ldr	r1, [r1]
 700:.\Generated_Source\PSoC4/uart_1.c ****         if ((0u != (UART_1_CTRL_REG & UART_1_CTRL_EC_AM_MODE)) &&
 898              		.loc 3 700 0 discriminator 1
 899 0010 4804     		lsl	r0, r1, #17
 900 0012 06D4     		bmi	.L83
 702:.\Generated_Source\PSoC4/uart_1.c ****         {
 703:.\Generated_Source\PSoC4/uart_1.c ****             /* Toggle EC_AM before NACK generation */
 704:.\Generated_Source\PSoC4/uart_1.c ****             UART_1_CTRL_REG &= ~UART_1_CTRL_EC_AM_MODE;
 901              		.loc 3 704 0
 902 0014 1868     		ldr	r0, [r3]
 903 0016 0749     		ldr	r1, .L87+8
 904 0018 0140     		and	r1, r0
 905 001a 1960     		str	r1, [r3]
 705:.\Generated_Source\PSoC4/uart_1.c ****             UART_1_CTRL_REG |=  UART_1_CTRL_EC_AM_MODE;
 906              		.loc 3 705 0
 907 001c 1968     		ldr	r1, [r3]
 908 001e 0A43     		orr	r2, r1
 909 0020 1A60     		str	r2, [r3]
 910              	.L83:
 706:.\Generated_Source\PSoC4/uart_1.c ****         }
 707:.\Generated_Source\PSoC4/uart_1.c **** 
 708:.\Generated_Source\PSoC4/uart_1.c ****         UART_1_I2C_SLAVE_CMD_REG = UART_1_I2C_SLAVE_CMD_S_NACK;
 911              		.loc 3 708 0
 912 0022 054B     		ldr	r3, .L87+12
 913 0024 0222     		mov	r2, #2
 914 0026 1A60     		str	r2, [r3]
 709:.\Generated_Source\PSoC4/uart_1.c ****     }
 915              		.loc 3 709 0
 916              		@ sp needed
 917 0028 7047     		bx	lr
 918              	.L88:
 919 002a C046     		.align	2
 920              	.L87:
 921 002c 00000740 		.word	1074200576
 922 0030 60000740 		.word	1074200672
 923 0034 FFFEFFFF 		.word	-257
 924 0038 6C000740 		.word	1074200684
 925              		.cfi_endproc
 926              	.LFE52:
 927              		.size	UART_1_I2CSlaveNackGeneration, .-UART_1_I2CSlaveNackGeneration
 928              		.section	.text.Open_UART_WIFI_ISR,"ax",%progbits
ARM GAS  C:\Users\kevin\AppData\Local\Temp\ccrZUpt9.s 			page 46


 929              		.align	1
 930              		.global	Open_UART_WIFI_ISR
 931              		.code	16
 932              		.thumb_func
 933              		.type	Open_UART_WIFI_ISR, %function
 934              	Open_UART_WIFI_ISR:
 935              	.LFB58:
 119:.\main.c      **** /*******************************************************************************
 120:.\main.c      **** *                       POWEROVER
 121:.\main.c      **** ********************************************************************************/
 122:.\main.c      **** void Open_UART_WIFI_ISR(void)
 123:.\main.c      **** {   
 936              		.loc 1 123 0
 937              		.cfi_startproc
 938 0000 08B5     		push	{r3, lr}
 939              		.cfi_def_cfa_offset 8
 940              		.cfi_offset 3, -8
 941              		.cfi_offset 14, -4
 942              	.LBB42:
 943              	.LBB43:
 118:.\Generated_Source\PSoC4/uart_0.c ****     UART_0_UartInit();
 944              		.loc 2 118 0
 945 0002 FFF7FEFF 		bl	UART_0_UartInit
 946              	.LVL52:
 947              	.LBE43:
 948              	.LBE42:
 124:.\main.c      ****   UART_0_Init();
 125:.\main.c      ****   UART_0_Enable();
 949              		.loc 1 125 0
 950 0006 FFF7FEFF 		bl	UART_0_Enable
 951              	.LVL53:
 126:.\main.c      ****   UART_0_Start();
 952              		.loc 1 126 0
 953 000a FFF7FEFF 		bl	UART_0_Start
 954              	.LVL54:
 955              	.LBB44:
 956              	.LBB45:
 310:.\Generated_Source\PSoC4/uart_0.c ****     UART_0_customIntrHandler = func; /* Register interrupt handler */
 957              		.loc 2 310 0
 958 000e 024A     		ldr	r2, .L90
 959 0010 024B     		ldr	r3, .L90+4
 960              	.LBE45:
 961              	.LBE44:
 127:.\main.c      ****   UART_0_SetCustomInterruptHandler(UART_ISR_0_FUN);  
 128:.\main.c      **** }
 962              		.loc 1 128 0
 963              		@ sp needed
 964              	.LBB47:
 965              	.LBB46:
 310:.\Generated_Source\PSoC4/uart_0.c ****     UART_0_customIntrHandler = func; /* Register interrupt handler */
 966              		.loc 2 310 0
 967 0012 5A60     		str	r2, [r3, #4]
 968              	.LBE46:
 969              	.LBE47:
 970              		.loc 1 128 0
 971 0014 08BD     		pop	{r3, pc}
 972              	.L91:
ARM GAS  C:\Users\kevin\AppData\Local\Temp\ccrZUpt9.s 			page 47


 973 0016 C046     		.align	2
 974              	.L90:
 975 0018 00000000 		.word	UART_ISR_0_FUN
 976 001c 00000000 		.word	.LANCHOR0
 977              		.cfi_endproc
 978              	.LFE58:
 979              		.size	Open_UART_WIFI_ISR, .-Open_UART_WIFI_ISR
 980              		.section	.text.Open_UART_TDS_ISR,"ax",%progbits
 981              		.align	1
 982              		.global	Open_UART_TDS_ISR
 983              		.code	16
 984              		.thumb_func
 985              		.type	Open_UART_TDS_ISR, %function
 986              	Open_UART_TDS_ISR:
 987              	.LFB59:
 129:.\main.c      **** /*******************************************************************************
 130:.\main.c      **** *                       POWEROVER
 131:.\main.c      **** ********************************************************************************/
 132:.\main.c      **** void Open_UART_TDS_ISR(void)
 133:.\main.c      **** {   
 988              		.loc 1 133 0
 989              		.cfi_startproc
 990 0000 08B5     		push	{r3, lr}
 991              		.cfi_def_cfa_offset 8
 992              		.cfi_offset 3, -8
 993              		.cfi_offset 14, -4
 994              	.LBB48:
 995              	.LBB49:
 118:.\Generated_Source\PSoC4/uart_1.c ****     UART_1_UartInit();
 996              		.loc 3 118 0
 997 0002 FFF7FEFF 		bl	UART_1_UartInit
 998              	.LVL55:
 999              	.LBE49:
 1000              	.LBE48:
 134:.\main.c      ****   UART_1_Init();
 135:.\main.c      ****   UART_1_Enable();
 1001              		.loc 1 135 0
 1002 0006 FFF7FEFF 		bl	UART_1_Enable
 1003              	.LVL56:
 136:.\main.c      ****   UART_1_Start();
 1004              		.loc 1 136 0
 1005 000a FFF7FEFF 		bl	UART_1_Start
 1006              	.LVL57:
 1007              	.LBB50:
 1008              	.LBB51:
 310:.\Generated_Source\PSoC4/uart_1.c ****     UART_1_customIntrHandler = func; /* Register interrupt handler */
 1009              		.loc 3 310 0
 1010 000e 024A     		ldr	r2, .L93
 1011 0010 024B     		ldr	r3, .L93+4
 1012              	.LBE51:
 1013              	.LBE50:
 137:.\main.c      ****   UART_1_SetCustomInterruptHandler(UART_ISR_1_FUN);
 138:.\main.c      **** }
 1014              		.loc 1 138 0
 1015              		@ sp needed
 1016              	.LBB53:
 1017              	.LBB52:
ARM GAS  C:\Users\kevin\AppData\Local\Temp\ccrZUpt9.s 			page 48


 310:.\Generated_Source\PSoC4/uart_1.c ****     UART_1_customIntrHandler = func; /* Register interrupt handler */
 1018              		.loc 3 310 0
 1019 0012 DA60     		str	r2, [r3, #12]
 1020              	.LBE52:
 1021              	.LBE53:
 1022              		.loc 1 138 0
 1023 0014 08BD     		pop	{r3, pc}
 1024              	.L94:
 1025 0016 C046     		.align	2
 1026              	.L93:
 1027 0018 00000000 		.word	UART_ISR_1_FUN
 1028 001c 00000000 		.word	.LANCHOR0
 1029              		.cfi_endproc
 1030              	.LFE59:
 1031              		.size	Open_UART_TDS_ISR, .-Open_UART_TDS_ISR
 1032              		.section	.text.Open_V24_IN_ISR,"ax",%progbits
 1033              		.align	1
 1034              		.global	Open_V24_IN_ISR
 1035              		.code	16
 1036              		.thumb_func
 1037              		.type	Open_V24_IN_ISR, %function
 1038              	Open_V24_IN_ISR:
 1039              	.LFB60:
 139:.\main.c      **** /*******************************************************************************
 140:.\main.c      **** *                       POWEROVER
 141:.\main.c      **** ********************************************************************************/
 142:.\main.c      **** void Open_V24_IN_ISR(void)
 143:.\main.c      **** {
 1040              		.loc 1 143 0
 1041              		.cfi_startproc
 1042 0000 08B5     		push	{r3, lr}
 1043              		.cfi_def_cfa_offset 8
 1044              		.cfi_offset 3, -8
 1045              		.cfi_offset 14, -4
 144:.\main.c      ****     V24_IN_ISR_Disable();
 1046              		.loc 1 144 0
 1047 0002 FFF7FEFF 		bl	V24_IN_ISR_Disable
 1048              	.LVL58:
 145:.\main.c      **** 
 146:.\main.c      ****     /* Set the ISR to point to the V24_IN_ISR Interrupt. */
 147:.\main.c      ****     V24_IN_ISR_SetVector(V24ISR);
 1049              		.loc 1 147 0
 1050 0006 0448     		ldr	r0, .L96
 1051 0008 FFF7FEFF 		bl	V24_IN_ISR_SetVector
 1052              	.LVL59:
 148:.\main.c      **** 
 149:.\main.c      ****     /* Set the priority. */
 150:.\main.c      ****     V24_IN_ISR_SetPriority(1);
 1053              		.loc 1 150 0
 1054 000c 0120     		mov	r0, #1
 1055 000e FFF7FEFF 		bl	V24_IN_ISR_SetPriority
 1056              	.LVL60:
 151:.\main.c      **** 
 152:.\main.c      ****     /* Enable it. */
 153:.\main.c      ****     V24_IN_ISR_Enable();
 154:.\main.c      **** 
 155:.\main.c      **** }
ARM GAS  C:\Users\kevin\AppData\Local\Temp\ccrZUpt9.s 			page 49


 1057              		.loc 1 155 0
 1058              		@ sp needed
 153:.\main.c      ****     V24_IN_ISR_Enable();
 1059              		.loc 1 153 0
 1060 0012 FFF7FEFF 		bl	V24_IN_ISR_Enable
 1061              	.LVL61:
 1062              		.loc 1 155 0
 1063 0016 08BD     		pop	{r3, pc}
 1064              	.L97:
 1065              		.align	2
 1066              	.L96:
 1067 0018 00000000 		.word	V24ISR
 1068              		.cfi_endproc
 1069              	.LFE60:
 1070              		.size	Open_V24_IN_ISR, .-Open_V24_IN_ISR
 1071              		.section	.text.Open_POWERLOW_ISR,"ax",%progbits
 1072              		.align	1
 1073              		.global	Open_POWERLOW_ISR
 1074              		.code	16
 1075              		.thumb_func
 1076              		.type	Open_POWERLOW_ISR, %function
 1077              	Open_POWERLOW_ISR:
 1078              	.LFB61:
 156:.\main.c      **** /*******************************************************************************
 157:.\main.c      **** *                       POWER brownout
 158:.\main.c      **** ********************************************************************************/
 159:.\main.c      **** void Open_POWERLOW_ISR(void)
 160:.\main.c      **** {
 1079              		.loc 1 160 0
 1080              		.cfi_startproc
 1081 0000 08B5     		push	{r3, lr}
 1082              		.cfi_def_cfa_offset 8
 1083              		.cfi_offset 3, -8
 1084              		.cfi_offset 14, -4
 161:.\main.c      **** /* For all we know the interrupt is active. */
 162:.\main.c      **** isr_lowpower_1_Disable();
 1085              		.loc 1 162 0
 1086 0002 FFF7FEFF 		bl	isr_lowpower_1_Disable
 1087              	.LVL62:
 163:.\main.c      **** 
 164:.\main.c      **** /* Set the ISR to point to the isr_lowpower Interrupt. */
 165:.\main.c      **** isr_lowpower_1_SetVector(isr_lowpower_Interrupt);
 1088              		.loc 1 165 0
 1089 0006 0448     		ldr	r0, .L99
 1090 0008 FFF7FEFF 		bl	isr_lowpower_1_SetVector
 1091              	.LVL63:
 166:.\main.c      **** 
 167:.\main.c      **** /* Set the priority. */
 168:.\main.c      **** isr_lowpower_1_SetPriority(0);
 1092              		.loc 1 168 0
 1093 000c 0020     		mov	r0, #0
 1094 000e FFF7FEFF 		bl	isr_lowpower_1_SetPriority
 1095              	.LVL64:
 169:.\main.c      **** 
 170:.\main.c      **** /* Enable it. */
 171:.\main.c      **** isr_lowpower_1_Enable();
 172:.\main.c      **** 
ARM GAS  C:\Users\kevin\AppData\Local\Temp\ccrZUpt9.s 			page 50


 173:.\main.c      **** }
 1096              		.loc 1 173 0
 1097              		@ sp needed
 171:.\main.c      **** isr_lowpower_1_Enable();
 1098              		.loc 1 171 0
 1099 0012 FFF7FEFF 		bl	isr_lowpower_1_Enable
 1100              	.LVL65:
 1101              		.loc 1 173 0
 1102 0016 08BD     		pop	{r3, pc}
 1103              	.L100:
 1104              		.align	2
 1105              	.L99:
 1106 0018 00000000 		.word	isr_lowpower_Interrupt
 1107              		.cfi_endproc
 1108              	.LFE61:
 1109              		.size	Open_POWERLOW_ISR, .-Open_POWERLOW_ISR
 1110              		.section	.text.Open_Watchdog,"ax",%progbits
 1111              		.align	1
 1112              		.global	Open_Watchdog
 1113              		.code	16
 1114              		.thumb_func
 1115              		.type	Open_Watchdog, %function
 1116              	Open_Watchdog:
 1117              	.LFB62:
 174:.\main.c      **** void Open_Watchdog(void)
 175:.\main.c      **** {
 1118              		.loc 1 175 0
 1119              		.cfi_startproc
 1120 0000 08B5     		push	{r3, lr}
 1121              		.cfi_def_cfa_offset 8
 1122              		.cfi_offset 3, -8
 1123              		.cfi_offset 14, -4
 176:.\main.c      ****     CyIntSetVector(9, isr_wdt);
 1124              		.loc 1 176 0
 1125 0002 0D49     		ldr	r1, .L102
 1126 0004 0920     		mov	r0, #9
 1127 0006 FFF7FEFF 		bl	CyIntSetVector
 1128              	.LVL66:
 177:.\main.c      ****     CyIntEnable(9);
 1129              		.loc 1 177 0
 1130 000a 0920     		mov	r0, #9
 1131 000c FFF7FEFF 		bl	CyIntEnable
 1132              	.LVL67:
 178:.\main.c      ****     CySysWdtUnlock(); /* Unlock WDT counter 0 for configuration */
 1133              		.loc 1 178 0
 1134 0010 FFF7FEFF 		bl	CySysWdtUnlock
 1135              	.LVL68:
 179:.\main.c      ****     CySysWdtWriteMode(CY_SYS_WDT_COUNTER0, CY_SYS_WDT_MODE_INT); /* Generate interrupts on TC */
 1136              		.loc 1 179 0
 1137 0014 0020     		mov	r0, #0
 1138 0016 0121     		mov	r1, #1
 1139 0018 FFF7FEFF 		bl	CySysWdtWriteMode
 1140              	.LVL69:
 180:.\main.c      ****     CySysWdtWriteMatch(CY_SYS_WDT_COUNTER0, 65535 );
 1141              		.loc 1 180 0
 1142 001c 0020     		mov	r0, #0
 1143 001e 0749     		ldr	r1, .L102+4
ARM GAS  C:\Users\kevin\AppData\Local\Temp\ccrZUpt9.s 			page 51


 1144 0020 FFF7FEFF 		bl	CySysWdtWriteMatch
 1145              	.LVL70:
 181:.\main.c      ****     CySysWdtWriteClearOnMatch(CY_SYS_WDT_COUNTER0, 1); /* Enable WDT clear on match */
 1146              		.loc 1 181 0
 1147 0024 0121     		mov	r1, #1
 1148 0026 0020     		mov	r0, #0
 1149 0028 FFF7FEFF 		bl	CySysWdtWriteClearOnMatch
 1150              	.LVL71:
 182:.\main.c      ****     CySysWdtEnable(CY_SYS_WDT_COUNTER0_MASK); /* Enable WDT counter 0 */
 1151              		.loc 1 182 0
 1152 002c 0120     		mov	r0, #1
 1153 002e FFF7FEFF 		bl	CySysWdtEnable
 1154              	.LVL72:
 183:.\main.c      ****     CySysWdtLock(); /* Lock WDT counter 0's configuration */
 184:.\main.c      **** }
 1155              		.loc 1 184 0
 1156              		@ sp needed
 183:.\main.c      ****     CySysWdtLock(); /* Lock WDT counter 0's configuration */
 1157              		.loc 1 183 0
 1158 0032 FFF7FEFF 		bl	CySysWdtLock
 1159              	.LVL73:
 1160              		.loc 1 184 0
 1161 0036 08BD     		pop	{r3, pc}
 1162              	.L103:
 1163              		.align	2
 1164              	.L102:
 1165 0038 00000000 		.word	isr_wdt
 1166 003c FFFF0000 		.word	65535
 1167              		.cfi_endproc
 1168              	.LFE62:
 1169              		.size	Open_Watchdog, .-Open_Watchdog
 1170              		.section	.text.startup.main,"ax",%progbits
 1171              		.align	1
 1172              		.global	main
 1173              		.code	16
 1174              		.thumb_func
 1175              		.type	main, %function
 1176              	main:
 1177              	.LFB63:
 185:.\main.c      **** 
 186:.\main.c      **** int main()
 187:.\main.c      **** {
 1178              		.loc 1 187 0
 1179              		.cfi_startproc
 188:.\main.c      ****   uint8 ij;
 189:.\main.c      **** 	CyDelay(1000);
 1180              		.loc 1 189 0
 1181 0000 FA20     		mov	r0, #250
 187:.\main.c      **** {
 1182              		.loc 1 187 0
 1183 0002 08B5     		push	{r3, lr}
 1184              		.cfi_def_cfa_offset 8
 1185              		.cfi_offset 3, -8
 1186              		.cfi_offset 14, -4
 1187              		.loc 1 189 0
 1188 0004 8000     		lsl	r0, r0, #2
 1189 0006 FFF7FEFF 		bl	CyDelay
ARM GAS  C:\Users\kevin\AppData\Local\Temp\ccrZUpt9.s 			page 52


 1190              	.LVL74:
 190:.\main.c      **** 	Eme2prom_Initial();
 1191              		.loc 1 190 0
 1192 000a FFF7FEFF 		bl	Eme2prom_Initial
 1193              	.LVL75:
 191:.\main.c      **** 	read();
 1194              		.loc 1 191 0
 1195 000e FFF7FEFF 		bl	read
 1196              	.LVL76:
 192:.\main.c      **** 	read1();
 1197              		.loc 1 192 0
 1198 0012 FFF7FEFF 		bl	read1
 1199              	.LVL77:
 193:.\main.c      **** 	CyGlobalIntEnable; /* Uncomment this line to enable global interrupts. */            
 1200              		.loc 1 193 0
 1201              	@ 193 ".\main.c" 1
 1202 0016 62B6     		CPSIE   i
 1203              	@ 0 "" 2
 194:.\main.c      **** 	Caps_Initial();
 1204              		.loc 1 194 0
 1205              		.code	16
 1206 0018 FFF7FEFF 		bl	Caps_Initial
 1207              	.LVL78:
 195:.\main.c      **** 	Timer_Initial();          
 1208              		.loc 1 195 0
 1209 001c FFF7FEFF 		bl	Timer_Initial
 1210              	.LVL79:
 196:.\main.c      **** 	Sys_Init();
 1211              		.loc 1 196 0
 1212 0020 FFF7FEFF 		bl	Sys_Init
 1213              	.LVL80:
 197:.\main.c      **** 	V24fig=0; 
 1214              		.loc 1 197 0
 1215 0024 354B     		ldr	r3, .L116
 1216 0026 0022     		mov	r2, #0
 1217 0028 1A70     		strb	r2, [r3]
 198:.\main.c      **** 	lvxin_panduan(); 
 1218              		.loc 1 198 0
 1219 002a FFF7FEFF 		bl	lvxin_panduan
 1220              	.LVL81:
 199:.\main.c      **** 	Open_POWERLOW_ISR();       
 1221              		.loc 1 199 0
 1222 002e FFF7FEFF 		bl	Open_POWERLOW_ISR
 1223              	.LVL82:
 200:.\main.c      **** 	Open_UART_WIFI_ISR();       
 1224              		.loc 1 200 0
 1225 0032 FFF7FEFF 		bl	Open_UART_WIFI_ISR
 1226              	.LVL83:
 201:.\main.c      **** 	Open_UART_TDS_ISR();
 1227              		.loc 1 201 0
 1228 0036 FFF7FEFF 		bl	Open_UART_TDS_ISR
 1229              	.LVL84:
 202:.\main.c      **** 	Open_Watchdog();
 1230              		.loc 1 202 0
 1231 003a FFF7FEFF 		bl	Open_Watchdog
 1232              	.LVL85:
 203:.\main.c      **** 	CySysLvdEnable(CY_LVD_THRESHOLD_2_10_V); 
ARM GAS  C:\Users\kevin\AppData\Local\Temp\ccrZUpt9.s 			page 53


 1233              		.loc 1 203 0
 1234 003e 0420     		mov	r0, #4
 1235 0040 FFF7FEFF 		bl	CySysLvdEnable
 1236              	.LVL86:
 204:.\main.c      **** 	for(ij=31;ij<128;ij++)
 1237              		.loc 1 204 0
 1238 0044 6223     		mov	r3, #98
 1239              	.LVL87:
 1240              	.L105:
 1241 0046 013B     		sub	r3, r3, #1
 1242              	.LVL88:
 1243              		.loc 1 204 0 is_stmt 0 discriminator 1
 1244 0048 002B     		cmp	r3, #0
 1245 004a 28D0     		beq	.L113
 1246              	.LVL89:
 1247 004c 2C4A     		ldr	r2, .L116+4
 205:.\main.c      **** 	  {    
 206:.\main.c      **** 	      array[ij]=0;               
 1248              		.loc 1 206 0 is_stmt 1 discriminator 2
 1249 004e 0021     		mov	r1, #0
 1250 0050 D21A     		sub	r2, r2, r3
 1251 0052 8032     		add	r2, r2, #128
 1252 0054 1170     		strb	r1, [r2]
 1253 0056 F6E7     		b	.L105
 1254              	.LVL90:
 1255              	.L107:
 207:.\main.c      **** 	  }   
 208:.\main.c      ****     while(1)
 209:.\main.c      ****     {
 210:.\main.c      ****         clearwdt();
 211:.\main.c      ****         Wifi_Fun();
 212:.\main.c      ****         clearwdt();
 213:.\main.c      ****         Caps_Scan(); 
 214:.\main.c      ****         Timer_Isr_Fun();
 215:.\main.c      ****         clearwdt();
 216:.\main.c      ****         Work_Fun(); 
 217:.\main.c      ****         Buzzer_Fun(); 
 218:.\main.c      ****         clearwdt();
 219:.\main.c      ****         Uart_0_Putchar();
 220:.\main.c      ****         clearwdt();
 221:.\main.c      **** 				if(WorkFlag.test==1)
 222:.\main.c      **** 					Sys_Flownum=2;
 223:.\main.c      ****         Led_Pannel_Process(Sys_Flownum,Sys_Testsn,Sys_Settingsn);
 1256              		.loc 1 223 0
 1257 0058 1878     		ldrb	r0, [r3]
 1258 005a 2A4B     		ldr	r3, .L116+8
 1259 005c 1978     		ldrb	r1, [r3]
 1260 005e 2A4B     		ldr	r3, .L116+12
 1261 0060 1A78     		ldrb	r2, [r3]
 1262 0062 FFF7FEFF 		bl	Led_Pannel_Process
 1263              	.LVL91:
 224:.\main.c      ****         if(firmwave_updatecnt>10)
 1264              		.loc 1 224 0
 1265 0066 294B     		ldr	r3, .L116+16
 1266 0068 1A78     		ldrb	r2, [r3]
 1267 006a 0A2A     		cmp	r2, #10
 1268 006c 05D9     		bls	.L108
ARM GAS  C:\Users\kevin\AppData\Local\Temp\ccrZUpt9.s 			page 54


 225:.\main.c      ****           {
 226:.\main.c      **** 						firmwave_updatecnt=0;
 1269              		.loc 1 226 0
 1270 006e 0022     		mov	r2, #0
 1271 0070 1A70     		strb	r2, [r3]
 227:.\main.c      **** 						clearwdt();
 1272              		.loc 1 227 0
 1273 0072 FFF7FEFF 		bl	clearwdt
 1274              	.LVL92:
 228:.\main.c      **** 						Bootloadable_Load();
 1275              		.loc 1 228 0
 1276 0076 FFF7FEFF 		bl	Bootloadable_Load
 1277              	.LVL93:
 1278              	.L108:
 229:.\main.c      ****                            
 230:.\main.c      ****           }
 231:.\main.c      **** 		  	if(TimeBase_Interrupt_CountOne>5)
 1279              		.loc 1 231 0
 1280 007a 254B     		ldr	r3, .L116+20
 1281 007c 1A78     		ldrb	r2, [r3]
 1282 007e 052A     		cmp	r2, #5
 1283 0080 01D9     		bls	.L109
 232:.\main.c      **** 		  		{
 233:.\main.c      **** 		              TimeBase_Interrupt_CountOne=0;
 1284              		.loc 1 233 0
 1285 0082 0022     		mov	r2, #0
 1286 0084 1A70     		strb	r2, [r3]
 1287              	.L109:
 234:.\main.c      **** 		  		}
 235:.\main.c      **** 		  	if (TimeBase_Interrupt_CountTwo>100) 
 1288              		.loc 1 235 0
 1289 0086 234B     		ldr	r3, .L116+24
 1290 0088 1A78     		ldrb	r2, [r3]
 1291 008a 642A     		cmp	r2, #100
 1292 008c 25D8     		bhi	.L115
 1293              	.L110:
 236:.\main.c      **** 		  		{
 237:.\main.c      **** 		  			TimeBase_Interrupt_CountTwo=0;
 238:.\main.c      **** 		  			/* Get received character or zero if nothing has been received yet */
 239:.\main.c      **** 		  			if((PowerOnCnt00>60)&&(poweroverfig==0)) 
 240:.\main.c      **** 		  			  {                  
 241:.\main.c      **** 		  			    poweroverfig=1;  
 242:.\main.c      **** 		  			    Open_V24_IN_ISR();
 243:.\main.c      **** 		  			  } 
 244:.\main.c      **** 		  			Error_Send();	
 245:.\main.c      **** 		  		}
 246:.\main.c      **** 		  	if (TimeBase_Interrupt_CountThree>1000) 
 1294              		.loc 1 246 0
 1295 008e 224B     		ldr	r3, .L116+28
 1296 0090 FA22     		mov	r2, #250
 1297 0092 1988     		ldrh	r1, [r3]
 1298 0094 9200     		lsl	r2, r2, #2
 1299 0096 9142     		cmp	r1, r2
 1300 0098 01D9     		bls	.L113
 247:.\main.c      **** 		  		{
 248:.\main.c      **** 		              TimeBase_Interrupt_CountThree=0;
 1301              		.loc 1 248 0
ARM GAS  C:\Users\kevin\AppData\Local\Temp\ccrZUpt9.s 			page 55


 1302 009a 0022     		mov	r2, #0
 1303 009c 1A80     		strh	r2, [r3]
 1304              	.L113:
 210:.\main.c      ****         clearwdt();
 1305              		.loc 1 210 0
 1306 009e FFF7FEFF 		bl	clearwdt
 1307              	.LVL94:
 211:.\main.c      ****         Wifi_Fun();
 1308              		.loc 1 211 0
 1309 00a2 FFF7FEFF 		bl	Wifi_Fun
 1310              	.LVL95:
 212:.\main.c      ****         clearwdt();
 1311              		.loc 1 212 0
 1312 00a6 FFF7FEFF 		bl	clearwdt
 1313              	.LVL96:
 213:.\main.c      ****         Caps_Scan(); 
 1314              		.loc 1 213 0
 1315 00aa FFF7FEFF 		bl	Caps_Scan
 1316              	.LVL97:
 214:.\main.c      ****         Timer_Isr_Fun();
 1317              		.loc 1 214 0
 1318 00ae FFF7FEFF 		bl	Timer_Isr_Fun
 1319              	.LVL98:
 215:.\main.c      ****         clearwdt();
 1320              		.loc 1 215 0
 1321 00b2 FFF7FEFF 		bl	clearwdt
 1322              	.LVL99:
 216:.\main.c      ****         Work_Fun(); 
 1323              		.loc 1 216 0
 1324 00b6 FFF7FEFF 		bl	Work_Fun
 1325              	.LVL100:
 217:.\main.c      ****         Buzzer_Fun(); 
 1326              		.loc 1 217 0
 1327 00ba FFF7FEFF 		bl	Buzzer_Fun
 1328              	.LVL101:
 218:.\main.c      ****         clearwdt();
 1329              		.loc 1 218 0
 1330 00be FFF7FEFF 		bl	clearwdt
 1331              	.LVL102:
 219:.\main.c      ****         Uart_0_Putchar();
 1332              		.loc 1 219 0
 1333 00c2 FFF7FEFF 		bl	Uart_0_Putchar
 1334              	.LVL103:
 220:.\main.c      ****         clearwdt();
 1335              		.loc 1 220 0
 1336 00c6 FFF7FEFF 		bl	clearwdt
 1337              	.LVL104:
 221:.\main.c      **** 				if(WorkFlag.test==1)
 1338              		.loc 1 221 0
 1339 00ca 144B     		ldr	r3, .L116+32
 1340 00cc DA78     		ldrb	r2, [r3, #3]
 1341 00ce 144B     		ldr	r3, .L116+36
 1342 00d0 1107     		lsl	r1, r2, #28
 1343 00d2 C1D5     		bpl	.L107
 222:.\main.c      **** 					Sys_Flownum=2;
 1344              		.loc 1 222 0
 1345 00d4 0222     		mov	r2, #2
ARM GAS  C:\Users\kevin\AppData\Local\Temp\ccrZUpt9.s 			page 56


 1346 00d6 1A70     		strb	r2, [r3]
 1347 00d8 BEE7     		b	.L107
 1348              	.L115:
 237:.\main.c      **** 		  			TimeBase_Interrupt_CountTwo=0;
 1349              		.loc 1 237 0
 1350 00da 0022     		mov	r2, #0
 1351 00dc 1A70     		strb	r2, [r3]
 239:.\main.c      **** 		  			if((PowerOnCnt00>60)&&(poweroverfig==0)) 
 1352              		.loc 1 239 0
 1353 00de 114B     		ldr	r3, .L116+40
 1354 00e0 1B88     		ldrh	r3, [r3]
 1355 00e2 3C2B     		cmp	r3, #60
 1356 00e4 07D9     		bls	.L111
 239:.\main.c      **** 		  			if((PowerOnCnt00>60)&&(poweroverfig==0)) 
 1357              		.loc 1 239 0 is_stmt 0 discriminator 1
 1358 00e6 104B     		ldr	r3, .L116+44
 1359 00e8 1A78     		ldrb	r2, [r3]
 1360 00ea 002A     		cmp	r2, #0
 1361 00ec 03D1     		bne	.L111
 241:.\main.c      **** 		  			    poweroverfig=1;  
 1362              		.loc 1 241 0 is_stmt 1
 1363 00ee 0122     		mov	r2, #1
 1364 00f0 1A70     		strb	r2, [r3]
 242:.\main.c      **** 		  			    Open_V24_IN_ISR();
 1365              		.loc 1 242 0
 1366 00f2 FFF7FEFF 		bl	Open_V24_IN_ISR
 1367              	.LVL105:
 1368              	.L111:
 244:.\main.c      **** 		  			Error_Send();	
 1369              		.loc 1 244 0
 1370 00f6 FFF7FEFF 		bl	Error_Send
 1371              	.LVL106:
 1372 00fa C8E7     		b	.L110
 1373              	.L117:
 1374              		.align	2
 1375              	.L116:
 1376 00fc 00000000 		.word	V24fig
 1377 0100 00000000 		.word	array
 1378 0104 00000000 		.word	Sys_Testsn
 1379 0108 00000000 		.word	Sys_Settingsn
 1380 010c 00000000 		.word	firmwave_updatecnt
 1381 0110 00000000 		.word	TimeBase_Interrupt_CountOne
 1382 0114 00000000 		.word	TimeBase_Interrupt_CountTwo
 1383 0118 00000000 		.word	TimeBase_Interrupt_CountThree
 1384 011c 00000000 		.word	WorkFlag
 1385 0120 00000000 		.word	Sys_Flownum
 1386 0124 00000000 		.word	PowerOnCnt00
 1387 0128 00000000 		.word	poweroverfig
 1388              		.cfi_endproc
 1389              	.LFE63:
 1390              		.size	main, .-main
 1391              		.comm	TimeBase_Interrupt_CountThree,2,2
 1392              		.comm	TimeBase_Interrupt_CountTwo,1,1
 1393              		.comm	TimeBase_Interrupt_CountOne,1,1
 1394              		.comm	Ack_Timer,1,1
 1395              		.comm	V24Vcnt,1,1
 1396              		.comm	V24dengdai,1,1
ARM GAS  C:\Users\kevin\AppData\Local\Temp\ccrZUpt9.s 			page 57


 1397              		.comm	V24fig,1,1
 1398              		.comm	dismode,1,1
 1399              		.comm	standkeyfig,1,1
 1400              		.comm	BUZqueshuifkg,1,1
 1401              		.comm	BUZfkgtemp,1,1
 1402              		.comm	qushui_BUZcnt,1,1
 1403              		.comm	BUZfkg,1,1
 1404              		.comm	LvxinJishi,24,2
 1405              		.comm	lXXZcnt_fig,1,1
 1406              		.comm	NBPressStart,1,1
 1407              		.comm	NBPressCnt,1,1
 1408              		.comm	NBfig,1,1
 1409              		.comm	NbPressCnt,1,1
 1410              		.comm	Dly1,4,4
 1411              		.comm	Dly,4,4
 1412              		.comm	BootloaderSign,1,1
 1413              		.comm	UartRx,1,1
 1414              		.global	UART_1_customIntrHandler
 1415              		.global	UART_1_initVar
 1416              		.global	UART_0_customIntrHandler
 1417              		.global	UART_0_initVar
 1418              		.bss
 1419              		.align	2
 1420              		.set	.LANCHOR0,. + 0
 1421              		.type	UART_0_initVar, %object
 1422              		.size	UART_0_initVar, 1
 1423              	UART_0_initVar:
 1424 0000 00       		.space	1
 1425 0001 000000   		.space	3
 1426              		.type	UART_0_customIntrHandler, %object
 1427              		.size	UART_0_customIntrHandler, 4
 1428              	UART_0_customIntrHandler:
 1429 0004 00000000 		.space	4
 1430              		.type	UART_1_initVar, %object
 1431              		.size	UART_1_initVar, 1
 1432              	UART_1_initVar:
 1433 0008 00       		.space	1
 1434 0009 000000   		.space	3
 1435              		.type	UART_1_customIntrHandler, %object
 1436              		.size	UART_1_customIntrHandler, 4
 1437              	UART_1_customIntrHandler:
 1438 000c 00000000 		.space	4
 1439              		.text
 1440              	.Letext0:
 1441              		.file 4 ".\\Generated_Source\\PSoC4/cytypes.h"
 1442              		.file 5 ".\\fun.h"
 1443              		.file 6 ".\\module.h"
 1444              		.file 7 ".\\Generated_Source\\PSoC4/CyLib.h"
 1445              		.file 8 ".\\uart_wifi.h"
 1446              		.file 9 ".\\Generated_Source\\PSoC4/UART_0_SPI_UART.h"
 1447              		.file 10 ".\\Generated_Source\\PSoC4/UART_1_SPI_UART.h"
 1448              		.file 11 ".\\Generated_Source\\PSoC4/V24_IN_ISR.h"
 1449              		.file 12 ".\\Generated_Source\\PSoC4/V24V.h"
 1450              		.file 13 ".\\Generated_Source\\PSoC4/UART_0_SPI_UART_PVT.h"
 1451              		.file 14 ".\\Generated_Source\\PSoC4/UART_1_SPI_UART_PVT.h"
 1452              		.file 15 ".\\Generated_Source\\PSoC4/isr_lowpower_1.h"
 1453              		.file 16 ".\\display.h"
ARM GAS  C:\Users\kevin\AppData\Local\Temp\ccrZUpt9.s 			page 58


 1454              		.file 17 ".\\Generated_Source\\PSoC4/Bootloadable.h"