ARM GAS  C:\Users\kevin\AppData\Local\Temp\ccrZUpt9.s 			page 1


   1              		.cpu cortex-m0
   2              		.fpu softvfp
   3              		.eabi_attribute 20, 1
   4              		.eabi_attribute 21, 1
   5              		.eabi_attribute 23, 3
   6              		.eabi_attribute 24, 1
   7              		.eabi_attribute 25, 1
   8              		.eabi_attribute 26, 1
   9              		.eabi_attribute 30, 4
  10              		.eabi_attribute 34, 0
  11              		.eabi_attribute 18, 4
  12              		.code	16
  13              		.file	"main.c"
  14              		.text
  15              	.Ltext0:
  16              		.cfi_sections	.debug_frame
  17              		.section	.text.isr_wdt,"ax",%progbits
  18              		.align	1
  19              		.global	isr_wdt
  20              		.code	16
  21              		.thumb_func
  22              		.type	isr_wdt, %function
  23              	isr_wdt:
  24              	.LFB55:
  25              		.file 1 ".\\main.c"
   1:.\main.c      **** /* ========================================
   2:.\main.c      ****  *
   3:.\main.c      ****  * Copyright YOUR COMPANY, THE YEAR
   4:.\main.c      ****  * All Rights Reserved
   5:.\main.c      ****  * UNPUBLISHED, LICENSED SOFTWARE.
   6:.\main.c      ****  *
   7:.\main.c      ****  * CONFIDENTIAL AND PROPRIETARY INFORMATION
   8:.\main.c      ****  * WHICH IS THE PROPERTY OF your company.
   9:.\main.c      ****  *
  10:.\main.c      ****  * ========================================
  11:.\main.c      **** */
  12:.\main.c      **** 
  13:.\main.c      **** #define _MAIN_
  14:.\main.c      **** #include <project.h>
  15:.\main.c      **** #include "uart_0.c"
  16:.\main.c      **** #include "uart_1.c"
  17:.\main.c      **** #include "config.h"
  18:.\main.c      **** 
  19:.\main.c      **** uint8 UartRx,BootloaderSign;
  20:.\main.c      **** uint32 Dly,Dly1;
  21:.\main.c      **** uint8 NbPressCnt,NBfig,NBPressCnt,NBPressStart,lXXZcnt_fig;//南北计数,缺水标志,
  22:.\main.c      **** uint16 LvxinJishi[12];
  23:.\main.c      **** uint8 BUZfkg,qushui_BUZcnt,BUZfkgtemp,BUZqueshuifkg,standkeyfig;
  24:.\main.c      **** uint8 dismode,V24fig,V24dengdai;
  25:.\main.c      **** uint8 V24Vcnt;
  26:.\main.c      **** uint8 Ack_Timer;              //应答时间设置
  27:.\main.c      **** uint8 TimeBase_Interrupt_CountOne,TimeBase_Interrupt_CountTwo;
  28:.\main.c      **** uint16 TimeBase_Interrupt_CountThree;
  29:.\main.c      **** CY_ISR(UART_ISR_0_FUN)
  30:.\main.c      **** {
  31:.\main.c      ****     uint32 resource = UART_0_GetRxInterruptSource();
  32:.\main.c      ****      if(resource & UART_0_INTR_RX_NOT_EMPTY)
ARM GAS  C:\Users\kevin\AppData\Local\Temp\ccrZUpt9.s 			page 2


  33:.\main.c      ****     {
  34:.\main.c      ****         WorkFlag.uart_0_tx=0;     
  35:.\main.c      **** 	    LoadUARTData((uint8)(UART_0_UartGetByte()& 0xFF));	
  36:.\main.c      **** 
  37:.\main.c      ****         WorkFlag.uart_0_tx=1;       
  38:.\main.c      ****       	UART_0_ClearRxInterruptSource(UART_0_INTR_RX_NOT_EMPTY);//清中断源 
  39:.\main.c      ****     }
  40:.\main.c      ****     
  41:.\main.c      **** }
  42:.\main.c      **** /*******************************************************************************
  43:.\main.c      **** * Define Interrupt service routine and allocate an vector to the Interrupt
  44:.\main.c      **** ********************************************************************************/
  45:.\main.c      **** CY_ISR(UART_ISR_1_FUN)
  46:.\main.c      **** {
  47:.\main.c      ****     uint32 resource = UART_1_GetRxInterruptSource();
  48:.\main.c      ****     if(resource & UART_1_INTR_RX_NOT_EMPTY)
  49:.\main.c      ****     {
  50:.\main.c      ****         WorkFlag.uart_1_tx=0;     
  51:.\main.c      **** 	    LoadTDSBoardData((uint8)(UART_1_UartGetByte()& 0xFF));
  52:.\main.c      ****         WorkFlag.uart_1_tx=1;       
  53:.\main.c      ****       	UART_1_ClearRxInterruptSource(UART_1_INTR_RX_NOT_EMPTY);//清中断源 
  54:.\main.c      ****     }
  55:.\main.c      **** }
  56:.\main.c      **** 
  57:.\main.c      **** 
  58:.\main.c      **** CY_ISR(isr_wdt)
  59:.\main.c      **** {
  26              		.loc 1 59 0
  27              		.cfi_startproc
  28 0000 08B5     		push	{r3, lr}
  29              		.cfi_def_cfa_offset 8
  30              		.cfi_offset 3, -8
  31              		.cfi_offset 14, -4
  60:.\main.c      ****     /* Clear interrupts state */
  61:.\main.c      ****     CySysWdtClearInterrupt(CY_SYS_WDT_COUNTER0_INT);
  32              		.loc 1 61 0
  33 0002 0420     		mov	r0, #4
  34 0004 FFF7FEFF 		bl	CySysWdtClearInterrupt
  35              	.LVL0:
  62:.\main.c      ****     CyIntClearPending(9);
  36              		.loc 1 62 0
  37 0008 0920     		mov	r0, #9
  38 000a FFF7FEFF 		bl	CyIntClearPending
  39              	.LVL1:
  63:.\main.c      ****     CySoftwareReset();
  64:.\main.c      **** }
  40              		.loc 1 64 0
  41              		@ sp needed
  63:.\main.c      ****     CySoftwareReset();
  42              		.loc 1 63 0
  43 000e FFF7FEFF 		bl	CySoftwareReset
  44              	.LVL2:
  45              		.loc 1 64 0
  46 0012 08BD     		pop	{r3, pc}
  47              		.cfi_endproc
  48              	.LFE55:
  49              		.size	isr_wdt, .-isr_wdt
ARM GAS  C:\Users\kevin\AppData\Local\Temp\ccrZUpt9.s 			page 3


  50              		.section	.text.isr_lowpower_Interrupt,"ax",%progbits
  51              		.align	1
  52              		.global	isr_lowpower_Interrupt
  53              		.code	16
  54              		.thumb_func
  55              		.type	isr_lowpower_Interrupt, %function
  56              	isr_lowpower_Interrupt:
  57              	.LFB56:
  65:.\main.c      **** 
  66:.\main.c      **** CY_ISR(isr_lowpower_Interrupt)
  67:.\main.c      **** {
  58              		.loc 1 67 0
  59              		.cfi_startproc
  60 0000 08B5     		push	{r3, lr}
  61              		.cfi_def_cfa_offset 8
  62              		.cfi_offset 3, -8
  63              		.cfi_offset 14, -4
  68:.\main.c      **** 	CySoftwareReset(); 
  64              		.loc 1 68 0
  65 0002 FFF7FEFF 		bl	CySoftwareReset
  66              	.LVL3:
  69:.\main.c      **** }
  67              		.loc 1 69 0
  68              		@ sp needed
  69 0006 08BD     		pop	{r3, pc}
  70              		.cfi_endproc
  71              	.LFE56:
  72              		.size	isr_lowpower_Interrupt, .-isr_lowpower_Interrupt
  73              		.section	.text.UART_ISR_0_FUN,"ax",%progbits
  74              		.align	1
  75              		.global	UART_ISR_0_FUN
  76              		.code	16
  77              		.thumb_func
  78              		.type	UART_ISR_0_FUN, %function
  79              	UART_ISR_0_FUN:
  80              	.LFB53:
  30:.\main.c      **** {
  81              		.loc 1 30 0
  82              		.cfi_startproc
  83 0000 70B5     		push	{r4, r5, r6, lr}
  84              		.cfi_def_cfa_offset 16
  85              		.cfi_offset 4, -16
  86              		.cfi_offset 5, -12
  87              		.cfi_offset 6, -8
  88              		.cfi_offset 14, -4
  31:.\main.c      ****     uint32 resource = UART_0_GetRxInterruptSource();
  89              		.loc 1 31 0
  90 0002 0B4D     		ldr	r5, .L9
  32:.\main.c      ****      if(resource & UART_0_INTR_RX_NOT_EMPTY)
  91              		.loc 1 32 0
  92 0004 0426     		mov	r6, #4
  31:.\main.c      ****     uint32 resource = UART_0_GetRxInterruptSource();
  93              		.loc 1 31 0
  94 0006 2B68     		ldr	r3, [r5]
  95              	.LVL4:
  32:.\main.c      ****      if(resource & UART_0_INTR_RX_NOT_EMPTY)
  96              		.loc 1 32 0
ARM GAS  C:\Users\kevin\AppData\Local\Temp\ccrZUpt9.s 			page 4


  97 0008 3342     		tst	r3, r6
  98 000a 0FD0     		beq	.L3
  99              	.LBB20:
 100              	.LBB21:
  34:.\main.c      ****         WorkFlag.uart_0_tx=0;     
 101              		.loc 1 34 0
 102 000c 094C     		ldr	r4, .L9+4
 103 000e 7F23     		mov	r3, #127
 104              	.LVL5:
 105 0010 A278     		ldrb	r2, [r4, #2]
 106 0012 1340     		and	r3, r2
 107 0014 A370     		strb	r3, [r4, #2]
  35:.\main.c      **** 	    LoadUARTData((uint8)(UART_0_UartGetByte()& 0xFF));	
 108              		.loc 1 35 0
 109 0016 FFF7FEFF 		bl	UART_0_UartGetByte
 110              	.LVL6:
 111 001a C0B2     		uxtb	r0, r0
 112 001c FFF7FEFF 		bl	LoadUARTData
 113              	.LVL7:
  37:.\main.c      ****         WorkFlag.uart_0_tx=1;       
 114              		.loc 1 37 0
 115 0020 A278     		ldrb	r2, [r4, #2]
 116 0022 8023     		mov	r3, #128
 117 0024 5B42     		neg	r3, r3
 118 0026 1343     		orr	r3, r2
 119 0028 A370     		strb	r3, [r4, #2]
  38:.\main.c      ****       	UART_0_ClearRxInterruptSource(UART_0_INTR_RX_NOT_EMPTY);//清中断源 
 120              		.loc 1 38 0
 121 002a 2E60     		str	r6, [r5]
 122              	.L3:
 123              	.LBE21:
 124              	.LBE20:
  41:.\main.c      **** }
 125              		.loc 1 41 0
 126              		@ sp needed
 127 002c 70BD     		pop	{r4, r5, r6, pc}
 128              	.L10:
 129 002e C046     		.align	2
 130              	.L9:
 131 0030 C00F0640 		.word	1074139072
 132 0034 00000000 		.word	WorkFlag
 133              		.cfi_endproc
 134              	.LFE53:
 135              		.size	UART_ISR_0_FUN, .-UART_ISR_0_FUN
 136              		.section	.text.UART_ISR_1_FUN,"ax",%progbits
 137              		.align	1
 138              		.global	UART_ISR_1_FUN
 139              		.code	16
 140              		.thumb_func
 141              		.type	UART_ISR_1_FUN, %function
 142              	UART_ISR_1_FUN:
 143              	.LFB54:
  46:.\main.c      **** {
 144              		.loc 1 46 0
 145              		.cfi_startproc
 146 0000 F8B5     		push	{r3, r4, r5, r6, r7, lr}
 147              		.cfi_def_cfa_offset 24
ARM GAS  C:\Users\kevin\AppData\Local\Temp\ccrZUpt9.s 			page 5


 148              		.cfi_offset 3, -24
 149              		.cfi_offset 4, -20
 150              		.cfi_offset 5, -16
 151              		.cfi_offset 6, -12
 152              		.cfi_offset 7, -8
 153              		.cfi_offset 14, -4
  47:.\main.c      ****     uint32 resource = UART_1_GetRxInterruptSource();
 154              		.loc 1 47 0
 155 0002 0A4D     		ldr	r5, .L16
  48:.\main.c      ****     if(resource & UART_1_INTR_RX_NOT_EMPTY)
 156              		.loc 1 48 0
 157 0004 0426     		mov	r6, #4
  47:.\main.c      ****     uint32 resource = UART_1_GetRxInterruptSource();
 158              		.loc 1 47 0
 159 0006 2B68     		ldr	r3, [r5]
 160              	.LVL8:
  48:.\main.c      ****     if(resource & UART_1_INTR_RX_NOT_EMPTY)
 161              		.loc 1 48 0
 162 0008 3342     		tst	r3, r6
 163 000a 0DD0     		beq	.L11
 164              	.LBB24:
 165              	.LBB25:
  50:.\main.c      ****         WorkFlag.uart_1_tx=0;     
 166              		.loc 1 50 0
 167 000c 084C     		ldr	r4, .L16+4
 168 000e 0127     		mov	r7, #1
 169 0010 E378     		ldrb	r3, [r4, #3]
 170              	.LVL9:
 171 0012 BB43     		bic	r3, r7
 172 0014 E370     		strb	r3, [r4, #3]
  51:.\main.c      **** 	    LoadTDSBoardData((uint8)(UART_1_UartGetByte()& 0xFF));
 173              		.loc 1 51 0
 174 0016 FFF7FEFF 		bl	UART_1_UartGetByte
 175              	.LVL10:
 176 001a C0B2     		uxtb	r0, r0
 177 001c FFF7FEFF 		bl	LoadTDSBoardData
 178              	.LVL11:
  52:.\main.c      ****         WorkFlag.uart_1_tx=1;       
 179              		.loc 1 52 0
 180 0020 E378     		ldrb	r3, [r4, #3]
 181 0022 1F43     		orr	r7, r3
 182 0024 E770     		strb	r7, [r4, #3]
  53:.\main.c      ****       	UART_1_ClearRxInterruptSource(UART_1_INTR_RX_NOT_EMPTY);//清中断源 
 183              		.loc 1 53 0
 184 0026 2E60     		str	r6, [r5]
 185              	.L11:
 186              	.LBE25:
 187              	.LBE24:
  55:.\main.c      **** }
 188              		.loc 1 55 0
 189              		@ sp needed
 190 0028 F8BD     		pop	{r3, r4, r5, r6, r7, pc}
 191              	.L17:
 192 002a C046     		.align	2
 193              	.L16:
 194 002c C00F0740 		.word	1074204608
 195 0030 00000000 		.word	WorkFlag
ARM GAS  C:\Users\kevin\AppData\Local\Temp\ccrZUpt9.s 			page 6


 196              		.cfi_endproc
 197              	.LFE54:
 198              		.size	UART_ISR_1_FUN, .-UART_ISR_1_FUN
 199              		.section	.text.V24ISR,"ax",%progbits
 200              		.align	1
 201              		.global	V24ISR
 202              		.code	16
 203              		.thumb_func
 204              		.type	V24ISR, %function
 205              	V24ISR:
 206              	.LFB57:
  70:.\main.c      **** CY_ISR(V24ISR)
  71:.\main.c      **** {
 207              		.loc 1 71 0
 208              		.cfi_startproc
 209 0000 38B5     		push	{r3, r4, r5, lr}
 210              		.cfi_def_cfa_offset 16
 211              		.cfi_offset 3, -16
 212              		.cfi_offset 4, -12
 213              		.cfi_offset 5, -8
 214              		.cfi_offset 14, -4
  72:.\main.c      ****     V24_IN_ISR_Disable();
 215              		.loc 1 72 0
 216 0002 FFF7FEFF 		bl	V24_IN_ISR_Disable
 217              	.LVL12:
 218              	.L22:
  73:.\main.c      ****     while(V24dengdai==0)
 219              		.loc 1 73 0 discriminator 1
 220 0006 1E4C     		ldr	r4, .L33
 221 0008 2578     		ldrb	r5, [r4]
 222 000a 002D     		cmp	r5, #0
 223 000c 12D1     		bne	.L31
  74:.\main.c      **** 	    {
  75:.\main.c      **** 	        if(V24V_Read()==1)
 224              		.loc 1 75 0
 225 000e FFF7FEFF 		bl	V24V_Read
 226              	.LVL13:
 227 0012 1C4B     		ldr	r3, .L33+4
 228 0014 0128     		cmp	r0, #1
 229 0016 08D1     		bne	.L20
  76:.\main.c      **** 	        {
  77:.\main.c      **** 	           
  78:.\main.c      **** 	            V24Vcnt++;
 230              		.loc 1 78 0
 231 0018 1A78     		ldrb	r2, [r3]
 232 001a 0132     		add	r2, r2, #1
 233 001c D2B2     		uxtb	r2, r2
 234 001e 1A70     		strb	r2, [r3]
  79:.\main.c      **** 	            if(V24Vcnt>100)
 235              		.loc 1 79 0
 236 0020 642A     		cmp	r2, #100
 237 0022 F0D9     		bls	.L22
  80:.\main.c      **** 	            {  
  81:.\main.c      **** 	                V24dengdai=1; 
 238              		.loc 1 81 0
 239 0024 2070     		strb	r0, [r4]
  82:.\main.c      **** 	                V24Vcnt=0;
ARM GAS  C:\Users\kevin\AppData\Local\Temp\ccrZUpt9.s 			page 7


 240              		.loc 1 82 0
 241 0026 1D70     		strb	r5, [r3]
 242 0028 EDE7     		b	.L22
 243              	.L20:
  83:.\main.c      **** 	            }    
  84:.\main.c      **** 	        }    
  85:.\main.c      **** 	
  86:.\main.c      **** 	        else
  87:.\main.c      **** 	        {
  88:.\main.c      **** 	            V24Vcnt=0;
 244              		.loc 1 88 0
 245 002a 1D70     		strb	r5, [r3]
  89:.\main.c      **** 	             V24dengdai=0; 
 246              		.loc 1 89 0
 247 002c 2570     		strb	r5, [r4]
  90:.\main.c      **** 	              V24_IN_ISR_Enable();
 248              		.loc 1 90 0
 249 002e FFF7FEFF 		bl	V24_IN_ISR_Enable
 250              	.LVL14:
  91:.\main.c      **** 	              return;
 251              		.loc 1 91 0
 252 0032 24E0     		b	.L18
 253              	.L31:
 254              	.LBB28:
 255              	.LBB29:
  92:.\main.c      **** 	            
  93:.\main.c      **** 	        } 
  94:.\main.c      **** 	    }
  95:.\main.c      **** 		V24dengdai=0;
 256              		.loc 1 95 0
 257 0034 0025     		mov	r5, #0
 258 0036 2570     		strb	r5, [r4]
  96:.\main.c      ****     Stop_All_Module();
 259              		.loc 1 96 0
 260 0038 FFF7FEFF 		bl	Stop_All_Module
 261              	.LVL15:
  97:.\main.c      ****     if(cleareepromArrayflag==1)
 262              		.loc 1 97 0
 263 003c 124B     		ldr	r3, .L33+8
 264 003e 1A78     		ldrb	r2, [r3]
 265 0040 012A     		cmp	r2, #1
 266 0042 03D1     		bne	.L25
  98:.\main.c      ****     	{
  99:.\main.c      ****     		cleareepromArrayflag=0;
 267              		.loc 1 99 0
 268 0044 1D70     		strb	r5, [r3]
 100:.\main.c      ****     		cleareepromArray();  
 269              		.loc 1 100 0
 270 0046 FFF7FEFF 		bl	cleareepromArray
 271              	.LVL16:
 272 004a 01E0     		b	.L26
 273              	.L25:
 101:.\main.c      ****     	}
 102:.\main.c      ****     else   
 103:.\main.c      ****     	write1();
 274              		.loc 1 103 0
 275 004c FFF7FEFF 		bl	write1
ARM GAS  C:\Users\kevin\AppData\Local\Temp\ccrZUpt9.s 			page 8


 276              	.LVL17:
 277              	.L26:
 104:.\main.c      ****     clearwdt();    
 278              		.loc 1 104 0
 279 0050 FFF7FEFF 		bl	clearwdt
 280              	.LVL18:
 105:.\main.c      ****     CyDelayUs(1000); 
 281              		.loc 1 105 0
 282 0054 FA20     		mov	r0, #250
 283 0056 8000     		lsl	r0, r0, #2
 284 0058 FFF7FEFF 		bl	CyDelayUs
 285              	.LVL19:
 286              	.L27:
 106:.\main.c      ****    while(V24fig==0)
 287              		.loc 1 106 0
 288 005c 0B4C     		ldr	r4, .L33+12
 289 005e 2578     		ldrb	r5, [r4]
 290 0060 002D     		cmp	r5, #0
 291 0062 08D1     		bne	.L32
 107:.\main.c      ****    {
 108:.\main.c      ****        if(V24V_Read()==1)
 292              		.loc 1 108 0
 293 0064 FFF7FEFF 		bl	V24V_Read
 294              	.LVL20:
 295 0068 0128     		cmp	r0, #1
 296 006a 01D1     		bne	.L28
 109:.\main.c      ****             V24fig=0;
 297              		.loc 1 109 0
 298 006c 2570     		strb	r5, [r4]
 299 006e F5E7     		b	.L27
 300              	.L28:
 110:.\main.c      ****        else
 111:.\main.c      ****             V24fig=1; 
 301              		.loc 1 111 0
 302 0070 0123     		mov	r3, #1
 303 0072 2370     		strb	r3, [r4]
 304 0074 F2E7     		b	.L27
 305              	.L32:
 112:.\main.c      ****     
 113:.\main.c      **** 
 114:.\main.c      ****    }
 115:.\main.c      **** 
 116:.\main.c      ****     V24fig=0; 
 306              		.loc 1 116 0
 307 0076 0023     		mov	r3, #0
 308 0078 2370     		strb	r3, [r4]
 117:.\main.c      ****  CySoftwareReset();
 309              		.loc 1 117 0
 310 007a FFF7FEFF 		bl	CySoftwareReset
 311              	.LVL21:
 312              	.L18:
 313              	.LBE29:
 314              	.LBE28:
 118:.\main.c      **** }
 315              		.loc 1 118 0
 316              		@ sp needed
 317 007e 38BD     		pop	{r3, r4, r5, pc}
ARM GAS  C:\Users\kevin\AppData\Local\Temp\ccrZUpt9.s 			page 9


 318              	.L34:
 319              		.align	2
 320              	.L33:
 321 0080 00000000 		.word	V24dengdai
 322 0084 00000000 		.word	V24Vcnt
 323 0088 00000000 		.word	cleareepromArrayflag
 324 008c 00000000 		.word	V24fig
 325              		.cfi_endproc
 326              	.LFE57:
 327              		.size	V24ISR, .-V24ISR
 328              		.section	.text.UART_0_Init,"ax",%progbits
 329              		.align	1
 330              		.global	UART_0_Init
 331              		.code	16
 332              		.thumb_func
 333              		.type	UART_0_Init, %function
 334              	UART_0_Init:
 335              	.LFB33:
 336              		.file 2 ".\\Generated_Source\\PSoC4/uart_0.c"
   1:.\Generated_Source\PSoC4/uart_0.c **** /*******************************************************************************
   2:.\Generated_Source\PSoC4/uart_0.c **** * File Name: UART_0.c
   3:.\Generated_Source\PSoC4/uart_0.c **** * Version 2.0
   4:.\Generated_Source\PSoC4/uart_0.c **** *
   5:.\Generated_Source\PSoC4/uart_0.c **** * Description:
   6:.\Generated_Source\PSoC4/uart_0.c **** *  This file provides the source code to the API for the SCB Component.
   7:.\Generated_Source\PSoC4/uart_0.c **** *
   8:.\Generated_Source\PSoC4/uart_0.c **** * Note:
   9:.\Generated_Source\PSoC4/uart_0.c **** *
  10:.\Generated_Source\PSoC4/uart_0.c **** *******************************************************************************
  11:.\Generated_Source\PSoC4/uart_0.c **** * Copyright 2013-2014, Cypress Semiconductor Corporation.  All rights reserved.
  12:.\Generated_Source\PSoC4/uart_0.c **** * You may use this file only in accordance with the license, terms, conditions,
  13:.\Generated_Source\PSoC4/uart_0.c **** * disclaimers, and limitations in the end user license agreement accompanying
  14:.\Generated_Source\PSoC4/uart_0.c **** * the software package with which this file was provided.
  15:.\Generated_Source\PSoC4/uart_0.c **** *******************************************************************************/
  16:.\Generated_Source\PSoC4/uart_0.c **** 
  17:.\Generated_Source\PSoC4/uart_0.c **** #include "UART_0_PVT.h"
  18:.\Generated_Source\PSoC4/uart_0.c **** 
  19:.\Generated_Source\PSoC4/uart_0.c **** #if(UART_0_SCB_MODE_I2C_INC)
  20:.\Generated_Source\PSoC4/uart_0.c ****     #include "UART_0_I2C_PVT.h"
  21:.\Generated_Source\PSoC4/uart_0.c **** #endif /* (UART_0_SCB_MODE_I2C_INC) */
  22:.\Generated_Source\PSoC4/uart_0.c **** 
  23:.\Generated_Source\PSoC4/uart_0.c **** #if(UART_0_SCB_MODE_EZI2C_INC)
  24:.\Generated_Source\PSoC4/uart_0.c ****     #include "UART_0_EZI2C_PVT.h"
  25:.\Generated_Source\PSoC4/uart_0.c **** #endif /* (UART_0_SCB_MODE_EZI2C_INC) */
  26:.\Generated_Source\PSoC4/uart_0.c **** 
  27:.\Generated_Source\PSoC4/uart_0.c **** #if(UART_0_SCB_MODE_SPI_INC || UART_0_SCB_MODE_UART_INC)
  28:.\Generated_Source\PSoC4/uart_0.c ****     #include "UART_0_SPI_UART_PVT.h"
  29:.\Generated_Source\PSoC4/uart_0.c **** #endif /* (UART_0_SCB_MODE_SPI_INC || UART_0_SCB_MODE_UART_INC) */
  30:.\Generated_Source\PSoC4/uart_0.c **** 
  31:.\Generated_Source\PSoC4/uart_0.c **** 
  32:.\Generated_Source\PSoC4/uart_0.c **** /***************************************
  33:.\Generated_Source\PSoC4/uart_0.c **** *    Run Time Configuration Vars
  34:.\Generated_Source\PSoC4/uart_0.c **** ***************************************/
  35:.\Generated_Source\PSoC4/uart_0.c **** 
  36:.\Generated_Source\PSoC4/uart_0.c **** /* Stores internal component configuration for Unconfigured mode */
  37:.\Generated_Source\PSoC4/uart_0.c **** #if(UART_0_SCB_MODE_UNCONFIG_CONST_CFG)
  38:.\Generated_Source\PSoC4/uart_0.c ****     /* Common configuration variables */
ARM GAS  C:\Users\kevin\AppData\Local\Temp\ccrZUpt9.s 			page 10


  39:.\Generated_Source\PSoC4/uart_0.c ****     uint8 UART_0_scbMode = UART_0_SCB_MODE_UNCONFIG;
  40:.\Generated_Source\PSoC4/uart_0.c ****     uint8 UART_0_scbEnableWake;
  41:.\Generated_Source\PSoC4/uart_0.c ****     uint8 UART_0_scbEnableIntr;
  42:.\Generated_Source\PSoC4/uart_0.c **** 
  43:.\Generated_Source\PSoC4/uart_0.c ****     /* I2C configuration variables */
  44:.\Generated_Source\PSoC4/uart_0.c ****     uint8 UART_0_mode;
  45:.\Generated_Source\PSoC4/uart_0.c ****     uint8 UART_0_acceptAddr;
  46:.\Generated_Source\PSoC4/uart_0.c **** 
  47:.\Generated_Source\PSoC4/uart_0.c ****     /* SPI/UART configuration variables */
  48:.\Generated_Source\PSoC4/uart_0.c ****     volatile uint8 * UART_0_rxBuffer;
  49:.\Generated_Source\PSoC4/uart_0.c ****     uint8  UART_0_rxDataBits;
  50:.\Generated_Source\PSoC4/uart_0.c ****     uint32 UART_0_rxBufferSize;
  51:.\Generated_Source\PSoC4/uart_0.c **** 
  52:.\Generated_Source\PSoC4/uart_0.c ****     volatile uint8 * UART_0_txBuffer;
  53:.\Generated_Source\PSoC4/uart_0.c ****     uint8  UART_0_txDataBits;
  54:.\Generated_Source\PSoC4/uart_0.c ****     uint32 UART_0_txBufferSize;
  55:.\Generated_Source\PSoC4/uart_0.c **** 
  56:.\Generated_Source\PSoC4/uart_0.c ****     /* EZI2C configuration variables */
  57:.\Generated_Source\PSoC4/uart_0.c ****     uint8 UART_0_numberOfAddr;
  58:.\Generated_Source\PSoC4/uart_0.c ****     uint8 UART_0_subAddrSize;
  59:.\Generated_Source\PSoC4/uart_0.c **** #endif /* (UART_0_SCB_MODE_UNCONFIG_CONST_CFG) */
  60:.\Generated_Source\PSoC4/uart_0.c **** 
  61:.\Generated_Source\PSoC4/uart_0.c **** 
  62:.\Generated_Source\PSoC4/uart_0.c **** /***************************************
  63:.\Generated_Source\PSoC4/uart_0.c **** *     Common SCB Vars
  64:.\Generated_Source\PSoC4/uart_0.c **** ***************************************/
  65:.\Generated_Source\PSoC4/uart_0.c **** 
  66:.\Generated_Source\PSoC4/uart_0.c **** uint8 UART_0_initVar = 0u;
  67:.\Generated_Source\PSoC4/uart_0.c **** 
  68:.\Generated_Source\PSoC4/uart_0.c **** #if !defined (CY_REMOVE_UART_0_CUSTOM_INTR_HANDLER)
  69:.\Generated_Source\PSoC4/uart_0.c ****     cyisraddress UART_0_customIntrHandler = NULL;
  70:.\Generated_Source\PSoC4/uart_0.c **** #endif /* !defined (CY_REMOVE_UART_0_CUSTOM_INTR_HANDLER) */
  71:.\Generated_Source\PSoC4/uart_0.c **** 
  72:.\Generated_Source\PSoC4/uart_0.c **** 
  73:.\Generated_Source\PSoC4/uart_0.c **** /***************************************
  74:.\Generated_Source\PSoC4/uart_0.c **** *    Private Function Prototypes
  75:.\Generated_Source\PSoC4/uart_0.c **** ***************************************/
  76:.\Generated_Source\PSoC4/uart_0.c **** 
  77:.\Generated_Source\PSoC4/uart_0.c **** static void UART_0_ScbEnableIntr(void);
  78:.\Generated_Source\PSoC4/uart_0.c **** static void UART_0_ScbModeStop(void);
  79:.\Generated_Source\PSoC4/uart_0.c **** 
  80:.\Generated_Source\PSoC4/uart_0.c **** 
  81:.\Generated_Source\PSoC4/uart_0.c **** /*******************************************************************************
  82:.\Generated_Source\PSoC4/uart_0.c **** * Function Name: UART_0_Init
  83:.\Generated_Source\PSoC4/uart_0.c **** ********************************************************************************
  84:.\Generated_Source\PSoC4/uart_0.c **** *
  85:.\Generated_Source\PSoC4/uart_0.c **** * Summary:
  86:.\Generated_Source\PSoC4/uart_0.c **** *  Initializes the SCB component to operate in one of the selected
  87:.\Generated_Source\PSoC4/uart_0.c **** *  configurations: I2C, SPI, UART or EZI2C.
  88:.\Generated_Source\PSoC4/uart_0.c **** *  When the configuration is set to "Unconfigured SCB", this function does
  89:.\Generated_Source\PSoC4/uart_0.c **** *  not do any initialization. Use mode-specific initialization APIs instead:
  90:.\Generated_Source\PSoC4/uart_0.c **** *  SCB_I2CInit, SCB_SpiInit, SCB_UartInit or SCB_EzI2CInit.
  91:.\Generated_Source\PSoC4/uart_0.c **** *
  92:.\Generated_Source\PSoC4/uart_0.c **** * Parameters:
  93:.\Generated_Source\PSoC4/uart_0.c **** *  None
  94:.\Generated_Source\PSoC4/uart_0.c **** *
  95:.\Generated_Source\PSoC4/uart_0.c **** * Return:
ARM GAS  C:\Users\kevin\AppData\Local\Temp\ccrZUpt9.s 			page 11


  96:.\Generated_Source\PSoC4/uart_0.c **** *  None
  97:.\Generated_Source\PSoC4/uart_0.c **** *
  98:.\Generated_Source\PSoC4/uart_0.c **** *******************************************************************************/
  99:.\Generated_Source\PSoC4/uart_0.c **** void UART_0_Init(void)
 100:.\Generated_Source\PSoC4/uart_0.c **** {
 337              		.loc 2 100 0
 338              		.cfi_startproc
 339 0000 08B5     		push	{r3, lr}
 340              		.cfi_def_cfa_offset 8
 341              		.cfi_offset 3, -8
 342              		.cfi_offset 14, -4
 101:.\Generated_Source\PSoC4/uart_0.c **** #if(UART_0_SCB_MODE_UNCONFIG_CONST_CFG)
 102:.\Generated_Source\PSoC4/uart_0.c ****     if(UART_0_SCB_MODE_UNCONFIG_RUNTM_CFG)
 103:.\Generated_Source\PSoC4/uart_0.c ****     {
 104:.\Generated_Source\PSoC4/uart_0.c ****         UART_0_initVar = 0u;
 105:.\Generated_Source\PSoC4/uart_0.c ****     }
 106:.\Generated_Source\PSoC4/uart_0.c ****     else
 107:.\Generated_Source\PSoC4/uart_0.c ****     {
 108:.\Generated_Source\PSoC4/uart_0.c ****         /* Initialization was done before this function call */
 109:.\Generated_Source\PSoC4/uart_0.c ****     }
 110:.\Generated_Source\PSoC4/uart_0.c **** 
 111:.\Generated_Source\PSoC4/uart_0.c **** #elif(UART_0_SCB_MODE_I2C_CONST_CFG)
 112:.\Generated_Source\PSoC4/uart_0.c ****     UART_0_I2CInit();
 113:.\Generated_Source\PSoC4/uart_0.c **** 
 114:.\Generated_Source\PSoC4/uart_0.c **** #elif(UART_0_SCB_MODE_SPI_CONST_CFG)
 115:.\Generated_Source\PSoC4/uart_0.c ****     UART_0_SpiInit();
 116:.\Generated_Source\PSoC4/uart_0.c **** 
 117:.\Generated_Source\PSoC4/uart_0.c **** #elif(UART_0_SCB_MODE_UART_CONST_CFG)
 118:.\Generated_Source\PSoC4/uart_0.c ****     UART_0_UartInit();
 343              		.loc 2 118 0
 344 0002 FFF7FEFF 		bl	UART_0_UartInit
 345              	.LVL22:
 119:.\Generated_Source\PSoC4/uart_0.c **** 
 120:.\Generated_Source\PSoC4/uart_0.c **** #elif(UART_0_SCB_MODE_EZI2C_CONST_CFG)
 121:.\Generated_Source\PSoC4/uart_0.c ****     UART_0_EzI2CInit();
 122:.\Generated_Source\PSoC4/uart_0.c **** 
 123:.\Generated_Source\PSoC4/uart_0.c **** #endif /* (UART_0_SCB_MODE_UNCONFIG_CONST_CFG) */
 124:.\Generated_Source\PSoC4/uart_0.c **** }
 346              		.loc 2 124 0
 347              		@ sp needed
 348 0006 08BD     		pop	{r3, pc}
 349              		.cfi_endproc
 350              	.LFE33:
 351              		.size	UART_0_Init, .-UART_0_Init
 352              		.section	.text.UART_0_Enable,"ax",%progbits
 353              		.align	1
 354              		.global	UART_0_Enable
 355              		.code	16
 356              		.thumb_func
 357              		.type	UART_0_Enable, %function
 358              	UART_0_Enable:
 359              	.LFB34:
 125:.\Generated_Source\PSoC4/uart_0.c **** 
 126:.\Generated_Source\PSoC4/uart_0.c **** 
 127:.\Generated_Source\PSoC4/uart_0.c **** /*******************************************************************************
 128:.\Generated_Source\PSoC4/uart_0.c **** * Function Name: UART_0_Enable
 129:.\Generated_Source\PSoC4/uart_0.c **** ********************************************************************************
ARM GAS  C:\Users\kevin\AppData\Local\Temp\ccrZUpt9.s 			page 12


 130:.\Generated_Source\PSoC4/uart_0.c **** *
 131:.\Generated_Source\PSoC4/uart_0.c **** * Summary:
 132:.\Generated_Source\PSoC4/uart_0.c **** *  Enables the SCB component operation.
 133:.\Generated_Source\PSoC4/uart_0.c **** *  The SCB configuration should be not changed when the component is enabled.
 134:.\Generated_Source\PSoC4/uart_0.c **** *  Any configuration changes should be made after disabling the component.
 135:.\Generated_Source\PSoC4/uart_0.c **** *
 136:.\Generated_Source\PSoC4/uart_0.c **** * Parameters:
 137:.\Generated_Source\PSoC4/uart_0.c **** *  None
 138:.\Generated_Source\PSoC4/uart_0.c **** *
 139:.\Generated_Source\PSoC4/uart_0.c **** * Return:
 140:.\Generated_Source\PSoC4/uart_0.c **** *  None
 141:.\Generated_Source\PSoC4/uart_0.c **** *
 142:.\Generated_Source\PSoC4/uart_0.c **** *******************************************************************************/
 143:.\Generated_Source\PSoC4/uart_0.c **** void UART_0_Enable(void)
 144:.\Generated_Source\PSoC4/uart_0.c **** {
 360              		.loc 2 144 0
 361              		.cfi_startproc
 362 0000 08B5     		push	{r3, lr}
 363              		.cfi_def_cfa_offset 8
 364              		.cfi_offset 3, -8
 365              		.cfi_offset 14, -4
 145:.\Generated_Source\PSoC4/uart_0.c **** #if(UART_0_SCB_MODE_UNCONFIG_CONST_CFG)
 146:.\Generated_Source\PSoC4/uart_0.c ****     /* Enable SCB block, only if it is already configured */
 147:.\Generated_Source\PSoC4/uart_0.c ****     if(!UART_0_SCB_MODE_UNCONFIG_RUNTM_CFG)
 148:.\Generated_Source\PSoC4/uart_0.c ****     {
 149:.\Generated_Source\PSoC4/uart_0.c ****         UART_0_CTRL_REG |= UART_0_CTRL_ENABLED;
 150:.\Generated_Source\PSoC4/uart_0.c **** 
 151:.\Generated_Source\PSoC4/uart_0.c ****         UART_0_ScbEnableIntr();
 152:.\Generated_Source\PSoC4/uart_0.c ****     }
 153:.\Generated_Source\PSoC4/uart_0.c **** #else
 154:.\Generated_Source\PSoC4/uart_0.c ****     UART_0_CTRL_REG |= UART_0_CTRL_ENABLED;
 366              		.loc 2 154 0
 367 0002 054B     		ldr	r3, .L37
 368 0004 8022     		mov	r2, #128
 369 0006 1968     		ldr	r1, [r3]
 370 0008 1206     		lsl	r2, r2, #24
 371 000a 0A43     		orr	r2, r1
 372 000c 1A60     		str	r2, [r3]
 373              	.LBB32:
 374              	.LBB33:
 155:.\Generated_Source\PSoC4/uart_0.c **** 
 156:.\Generated_Source\PSoC4/uart_0.c ****     UART_0_ScbEnableIntr();
 157:.\Generated_Source\PSoC4/uart_0.c **** #endif /* (UART_0_SCB_MODE_UNCONFIG_CONST_CFG) */
 158:.\Generated_Source\PSoC4/uart_0.c **** }
 159:.\Generated_Source\PSoC4/uart_0.c **** 
 160:.\Generated_Source\PSoC4/uart_0.c **** 
 161:.\Generated_Source\PSoC4/uart_0.c **** /*******************************************************************************
 162:.\Generated_Source\PSoC4/uart_0.c **** * Function Name: UART_0_Start
 163:.\Generated_Source\PSoC4/uart_0.c **** ********************************************************************************
 164:.\Generated_Source\PSoC4/uart_0.c **** *
 165:.\Generated_Source\PSoC4/uart_0.c **** * Summary:
 166:.\Generated_Source\PSoC4/uart_0.c **** *  Invokes SCB_Init() and SCB_Enable().
 167:.\Generated_Source\PSoC4/uart_0.c **** *  After this function call, the component is enabled and ready for operation.
 168:.\Generated_Source\PSoC4/uart_0.c **** *  When configuration is set to "Unconfigured SCB", the component must first be
 169:.\Generated_Source\PSoC4/uart_0.c **** *  initialized to operate in one of the following configurations: I2C, SPI, UART
 170:.\Generated_Source\PSoC4/uart_0.c **** *  or EZ I2C. Otherwise this function does not enable the component.
 171:.\Generated_Source\PSoC4/uart_0.c **** *
ARM GAS  C:\Users\kevin\AppData\Local\Temp\ccrZUpt9.s 			page 13


 172:.\Generated_Source\PSoC4/uart_0.c **** * Parameters:
 173:.\Generated_Source\PSoC4/uart_0.c **** *  None
 174:.\Generated_Source\PSoC4/uart_0.c **** *
 175:.\Generated_Source\PSoC4/uart_0.c **** * Return:
 176:.\Generated_Source\PSoC4/uart_0.c **** *  None
 177:.\Generated_Source\PSoC4/uart_0.c **** *
 178:.\Generated_Source\PSoC4/uart_0.c **** * Global variables:
 179:.\Generated_Source\PSoC4/uart_0.c **** *  UART_0_initVar - used to check initial configuration, modified
 180:.\Generated_Source\PSoC4/uart_0.c **** *  on first function call.
 181:.\Generated_Source\PSoC4/uart_0.c **** *
 182:.\Generated_Source\PSoC4/uart_0.c **** *******************************************************************************/
 183:.\Generated_Source\PSoC4/uart_0.c **** void UART_0_Start(void)
 184:.\Generated_Source\PSoC4/uart_0.c **** {
 185:.\Generated_Source\PSoC4/uart_0.c ****     if(0u == UART_0_initVar)
 186:.\Generated_Source\PSoC4/uart_0.c ****     {
 187:.\Generated_Source\PSoC4/uart_0.c ****         UART_0_Init();
 188:.\Generated_Source\PSoC4/uart_0.c ****         UART_0_initVar = 1u; /* Component was initialized */
 189:.\Generated_Source\PSoC4/uart_0.c ****     }
 190:.\Generated_Source\PSoC4/uart_0.c **** 
 191:.\Generated_Source\PSoC4/uart_0.c ****     UART_0_Enable();
 192:.\Generated_Source\PSoC4/uart_0.c **** }
 193:.\Generated_Source\PSoC4/uart_0.c **** 
 194:.\Generated_Source\PSoC4/uart_0.c **** 
 195:.\Generated_Source\PSoC4/uart_0.c **** /*******************************************************************************
 196:.\Generated_Source\PSoC4/uart_0.c **** * Function Name: UART_0_Stop
 197:.\Generated_Source\PSoC4/uart_0.c **** ********************************************************************************
 198:.\Generated_Source\PSoC4/uart_0.c **** *
 199:.\Generated_Source\PSoC4/uart_0.c **** * Summary:
 200:.\Generated_Source\PSoC4/uart_0.c **** *  Disables the SCB component and its interrupt.
 201:.\Generated_Source\PSoC4/uart_0.c **** *
 202:.\Generated_Source\PSoC4/uart_0.c **** * Parameters:
 203:.\Generated_Source\PSoC4/uart_0.c **** *  None
 204:.\Generated_Source\PSoC4/uart_0.c **** *
 205:.\Generated_Source\PSoC4/uart_0.c **** * Return:
 206:.\Generated_Source\PSoC4/uart_0.c **** *  None
 207:.\Generated_Source\PSoC4/uart_0.c **** *
 208:.\Generated_Source\PSoC4/uart_0.c **** *******************************************************************************/
 209:.\Generated_Source\PSoC4/uart_0.c **** void UART_0_Stop(void)
 210:.\Generated_Source\PSoC4/uart_0.c **** {
 211:.\Generated_Source\PSoC4/uart_0.c **** #if(UART_0_SCB_IRQ_INTERNAL)
 212:.\Generated_Source\PSoC4/uart_0.c ****     UART_0_DisableInt();
 213:.\Generated_Source\PSoC4/uart_0.c **** #endif /* (UART_0_SCB_IRQ_INTERNAL) */
 214:.\Generated_Source\PSoC4/uart_0.c **** 
 215:.\Generated_Source\PSoC4/uart_0.c ****     UART_0_CTRL_REG &= (uint32) ~UART_0_CTRL_ENABLED;  /* Disable scb IP */
 216:.\Generated_Source\PSoC4/uart_0.c **** 
 217:.\Generated_Source\PSoC4/uart_0.c **** #if(UART_0_SCB_IRQ_INTERNAL)
 218:.\Generated_Source\PSoC4/uart_0.c ****     UART_0_ClearPendingInt();
 219:.\Generated_Source\PSoC4/uart_0.c **** #endif /* (UART_0_SCB_IRQ_INTERNAL) */
 220:.\Generated_Source\PSoC4/uart_0.c **** 
 221:.\Generated_Source\PSoC4/uart_0.c ****     UART_0_ScbModeStop(); /* Calls scbMode specific Stop function */
 222:.\Generated_Source\PSoC4/uart_0.c **** }
 223:.\Generated_Source\PSoC4/uart_0.c **** 
 224:.\Generated_Source\PSoC4/uart_0.c **** 
 225:.\Generated_Source\PSoC4/uart_0.c **** /*******************************************************************************
 226:.\Generated_Source\PSoC4/uart_0.c **** * Function Name: UART_0_SetRxFifoLevel
 227:.\Generated_Source\PSoC4/uart_0.c **** ********************************************************************************
 228:.\Generated_Source\PSoC4/uart_0.c **** *
ARM GAS  C:\Users\kevin\AppData\Local\Temp\ccrZUpt9.s 			page 14


 229:.\Generated_Source\PSoC4/uart_0.c **** * Summary:
 230:.\Generated_Source\PSoC4/uart_0.c **** *  Sets level in the RX FIFO to generate a RX level interrupt.
 231:.\Generated_Source\PSoC4/uart_0.c **** *  When the RX FIFO has more entries than the RX FIFO level an RX level
 232:.\Generated_Source\PSoC4/uart_0.c **** *  interrupt request is generated.
 233:.\Generated_Source\PSoC4/uart_0.c **** *
 234:.\Generated_Source\PSoC4/uart_0.c **** * Parameters:
 235:.\Generated_Source\PSoC4/uart_0.c **** *  level: Level in the RX FIFO to generate RX level interrupt.
 236:.\Generated_Source\PSoC4/uart_0.c **** *         The range of valid level values is between 0 and RX FIFO depth - 1.
 237:.\Generated_Source\PSoC4/uart_0.c **** *
 238:.\Generated_Source\PSoC4/uart_0.c **** * Return:
 239:.\Generated_Source\PSoC4/uart_0.c **** *  None
 240:.\Generated_Source\PSoC4/uart_0.c **** *
 241:.\Generated_Source\PSoC4/uart_0.c **** *******************************************************************************/
 242:.\Generated_Source\PSoC4/uart_0.c **** void UART_0_SetRxFifoLevel(uint32 level)
 243:.\Generated_Source\PSoC4/uart_0.c **** {
 244:.\Generated_Source\PSoC4/uart_0.c ****     uint32 rxFifoCtrl;
 245:.\Generated_Source\PSoC4/uart_0.c **** 
 246:.\Generated_Source\PSoC4/uart_0.c ****     rxFifoCtrl = UART_0_RX_FIFO_CTRL_REG;
 247:.\Generated_Source\PSoC4/uart_0.c **** 
 248:.\Generated_Source\PSoC4/uart_0.c ****     rxFifoCtrl &= ((uint32) ~UART_0_RX_FIFO_CTRL_TRIGGER_LEVEL_MASK); /* Clear level mask bits */
 249:.\Generated_Source\PSoC4/uart_0.c ****     rxFifoCtrl |= ((uint32) (UART_0_RX_FIFO_CTRL_TRIGGER_LEVEL_MASK & level));
 250:.\Generated_Source\PSoC4/uart_0.c **** 
 251:.\Generated_Source\PSoC4/uart_0.c ****     UART_0_RX_FIFO_CTRL_REG = rxFifoCtrl;
 252:.\Generated_Source\PSoC4/uart_0.c **** }
 253:.\Generated_Source\PSoC4/uart_0.c **** 
 254:.\Generated_Source\PSoC4/uart_0.c **** 
 255:.\Generated_Source\PSoC4/uart_0.c **** /*******************************************************************************
 256:.\Generated_Source\PSoC4/uart_0.c **** * Function Name: UART_0_SetTxFifoLevel
 257:.\Generated_Source\PSoC4/uart_0.c **** ********************************************************************************
 258:.\Generated_Source\PSoC4/uart_0.c **** *
 259:.\Generated_Source\PSoC4/uart_0.c **** * Summary:
 260:.\Generated_Source\PSoC4/uart_0.c **** *  Sets level in the TX FIFO to generate a TX level interrupt.
 261:.\Generated_Source\PSoC4/uart_0.c **** *  When the TX FIFO has more entries than the TX FIFO level an TX level
 262:.\Generated_Source\PSoC4/uart_0.c **** *  interrupt request is generated.
 263:.\Generated_Source\PSoC4/uart_0.c **** *
 264:.\Generated_Source\PSoC4/uart_0.c **** * Parameters:
 265:.\Generated_Source\PSoC4/uart_0.c **** *  level: Level in the TX FIFO to generate TX level interrupt.
 266:.\Generated_Source\PSoC4/uart_0.c **** *         The range of valid level values is between 0 and TX FIFO depth - 1.
 267:.\Generated_Source\PSoC4/uart_0.c **** *
 268:.\Generated_Source\PSoC4/uart_0.c **** * Return:
 269:.\Generated_Source\PSoC4/uart_0.c **** *  None
 270:.\Generated_Source\PSoC4/uart_0.c **** *
 271:.\Generated_Source\PSoC4/uart_0.c **** *******************************************************************************/
 272:.\Generated_Source\PSoC4/uart_0.c **** void UART_0_SetTxFifoLevel(uint32 level)
 273:.\Generated_Source\PSoC4/uart_0.c **** {
 274:.\Generated_Source\PSoC4/uart_0.c ****     uint32 txFifoCtrl;
 275:.\Generated_Source\PSoC4/uart_0.c **** 
 276:.\Generated_Source\PSoC4/uart_0.c ****     txFifoCtrl = UART_0_TX_FIFO_CTRL_REG;
 277:.\Generated_Source\PSoC4/uart_0.c **** 
 278:.\Generated_Source\PSoC4/uart_0.c ****     txFifoCtrl &= ((uint32) ~UART_0_TX_FIFO_CTRL_TRIGGER_LEVEL_MASK); /* Clear level mask bits */
 279:.\Generated_Source\PSoC4/uart_0.c ****     txFifoCtrl |= ((uint32) (UART_0_TX_FIFO_CTRL_TRIGGER_LEVEL_MASK & level));
 280:.\Generated_Source\PSoC4/uart_0.c **** 
 281:.\Generated_Source\PSoC4/uart_0.c ****     UART_0_TX_FIFO_CTRL_REG = txFifoCtrl;
 282:.\Generated_Source\PSoC4/uart_0.c **** }
 283:.\Generated_Source\PSoC4/uart_0.c **** 
 284:.\Generated_Source\PSoC4/uart_0.c **** 
 285:.\Generated_Source\PSoC4/uart_0.c **** /*******************************************************************************
ARM GAS  C:\Users\kevin\AppData\Local\Temp\ccrZUpt9.s 			page 15


 286:.\Generated_Source\PSoC4/uart_0.c **** * Function Name: UART_0_SetCustomInterruptHandler
 287:.\Generated_Source\PSoC4/uart_0.c **** ********************************************************************************
 288:.\Generated_Source\PSoC4/uart_0.c **** *
 289:.\Generated_Source\PSoC4/uart_0.c **** * Summary:
 290:.\Generated_Source\PSoC4/uart_0.c **** *  Registers a function to be called by the internal interrupt handler.
 291:.\Generated_Source\PSoC4/uart_0.c **** *  First the function that is registered is called, then the internal interrupt
 292:.\Generated_Source\PSoC4/uart_0.c **** *  handler performs any operation such as software buffer management functions
 293:.\Generated_Source\PSoC4/uart_0.c **** *  before the interrupt returns.  It is the user's responsibility not to break
 294:.\Generated_Source\PSoC4/uart_0.c **** *  the software buffer operations. Only one custom handler is supported, which
 295:.\Generated_Source\PSoC4/uart_0.c **** *  is the function provided by the most recent call.
 296:.\Generated_Source\PSoC4/uart_0.c **** *  At the initialization time no custom handler is registered.
 297:.\Generated_Source\PSoC4/uart_0.c **** *
 298:.\Generated_Source\PSoC4/uart_0.c **** * Parameters:
 299:.\Generated_Source\PSoC4/uart_0.c **** *  func: Pointer to the function to register.
 300:.\Generated_Source\PSoC4/uart_0.c **** *        The value NULL indicates to remove the current custom interrupt
 301:.\Generated_Source\PSoC4/uart_0.c **** *        handler.
 302:.\Generated_Source\PSoC4/uart_0.c **** *
 303:.\Generated_Source\PSoC4/uart_0.c **** * Return:
 304:.\Generated_Source\PSoC4/uart_0.c **** *  None
 305:.\Generated_Source\PSoC4/uart_0.c **** *
 306:.\Generated_Source\PSoC4/uart_0.c **** *******************************************************************************/
 307:.\Generated_Source\PSoC4/uart_0.c **** void UART_0_SetCustomInterruptHandler(cyisraddress func)
 308:.\Generated_Source\PSoC4/uart_0.c **** {
 309:.\Generated_Source\PSoC4/uart_0.c **** #if !defined (CY_REMOVE_UART_0_CUSTOM_INTR_HANDLER)
 310:.\Generated_Source\PSoC4/uart_0.c ****     UART_0_customIntrHandler = func; /* Register interrupt handler */
 311:.\Generated_Source\PSoC4/uart_0.c **** #else
 312:.\Generated_Source\PSoC4/uart_0.c ****     if(NULL != func)
 313:.\Generated_Source\PSoC4/uart_0.c ****     {
 314:.\Generated_Source\PSoC4/uart_0.c ****         /* Suppress compiler warning */
 315:.\Generated_Source\PSoC4/uart_0.c ****     }
 316:.\Generated_Source\PSoC4/uart_0.c **** #endif /* !defined (CY_REMOVE_UART_0_CUSTOM_INTR_HANDLER) */
 317:.\Generated_Source\PSoC4/uart_0.c **** }
 318:.\Generated_Source\PSoC4/uart_0.c **** 
 319:.\Generated_Source\PSoC4/uart_0.c **** 
 320:.\Generated_Source\PSoC4/uart_0.c **** /*******************************************************************************
 321:.\Generated_Source\PSoC4/uart_0.c **** * Function Name: UART_0_ScbModeEnableIntr
 322:.\Generated_Source\PSoC4/uart_0.c **** ********************************************************************************
 323:.\Generated_Source\PSoC4/uart_0.c **** *
 324:.\Generated_Source\PSoC4/uart_0.c **** * Summary:
 325:.\Generated_Source\PSoC4/uart_0.c **** *  Enables an interrupt for a specific mode.
 326:.\Generated_Source\PSoC4/uart_0.c **** *
 327:.\Generated_Source\PSoC4/uart_0.c **** * Parameters:
 328:.\Generated_Source\PSoC4/uart_0.c **** *  None
 329:.\Generated_Source\PSoC4/uart_0.c **** *
 330:.\Generated_Source\PSoC4/uart_0.c **** * Return:
 331:.\Generated_Source\PSoC4/uart_0.c **** *  None
 332:.\Generated_Source\PSoC4/uart_0.c **** *
 333:.\Generated_Source\PSoC4/uart_0.c **** *******************************************************************************/
 334:.\Generated_Source\PSoC4/uart_0.c **** static void UART_0_ScbEnableIntr(void)
 335:.\Generated_Source\PSoC4/uart_0.c **** {
 336:.\Generated_Source\PSoC4/uart_0.c **** #if(UART_0_SCB_IRQ_INTERNAL)
 337:.\Generated_Source\PSoC4/uart_0.c ****     #if(UART_0_SCB_MODE_UNCONFIG_CONST_CFG)
 338:.\Generated_Source\PSoC4/uart_0.c ****         /* Enable interrupt in NVIC */
 339:.\Generated_Source\PSoC4/uart_0.c ****         if(0u != UART_0_scbEnableIntr)
 340:.\Generated_Source\PSoC4/uart_0.c ****         {
 341:.\Generated_Source\PSoC4/uart_0.c ****             UART_0_EnableInt();
 342:.\Generated_Source\PSoC4/uart_0.c ****         }
ARM GAS  C:\Users\kevin\AppData\Local\Temp\ccrZUpt9.s 			page 16


 343:.\Generated_Source\PSoC4/uart_0.c ****     #else
 344:.\Generated_Source\PSoC4/uart_0.c ****         UART_0_EnableInt();
 375              		.loc 2 344 0
 376 000e 0A20     		mov	r0, #10
 377 0010 FFF7FEFF 		bl	CyIntEnable
 378              	.LVL23:
 379              	.LBE33:
 380              	.LBE32:
 158:.\Generated_Source\PSoC4/uart_0.c **** }
 381              		.loc 2 158 0
 382              		@ sp needed
 383 0014 08BD     		pop	{r3, pc}
 384              	.L38:
 385 0016 C046     		.align	2
 386              	.L37:
 387 0018 00000640 		.word	1074135040
 388              		.cfi_endproc
 389              	.LFE34:
 390              		.size	UART_0_Enable, .-UART_0_Enable
 391              		.section	.text.UART_0_Start,"ax",%progbits
 392              		.align	1
 393              		.global	UART_0_Start
 394              		.code	16
 395              		.thumb_func
 396              		.type	UART_0_Start, %function
 397              	UART_0_Start:
 398              	.LFB35:
 184:.\Generated_Source\PSoC4/uart_0.c **** {
 399              		.loc 2 184 0
 400              		.cfi_startproc
 401 0000 10B5     		push	{r4, lr}
 402              		.cfi_def_cfa_offset 8
 403              		.cfi_offset 4, -8
 404              		.cfi_offset 14, -4
 185:.\Generated_Source\PSoC4/uart_0.c ****     if(0u == UART_0_initVar)
 405              		.loc 2 185 0
 406 0002 054C     		ldr	r4, .L41
 407 0004 2378     		ldrb	r3, [r4]
 408 0006 002B     		cmp	r3, #0
 409 0008 03D1     		bne	.L40
 410              	.LBB34:
 411              	.LBB35:
 118:.\Generated_Source\PSoC4/uart_0.c ****     UART_0_UartInit();
 412              		.loc 2 118 0
 413 000a FFF7FEFF 		bl	UART_0_UartInit
 414              	.LVL24:
 415              	.LBE35:
 416              	.LBE34:
 188:.\Generated_Source\PSoC4/uart_0.c ****         UART_0_initVar = 1u; /* Component was initialized */
 417              		.loc 2 188 0
 418 000e 0123     		mov	r3, #1
 419 0010 2370     		strb	r3, [r4]
 420              	.L40:
 191:.\Generated_Source\PSoC4/uart_0.c ****     UART_0_Enable();
 421              		.loc 2 191 0
 422 0012 FFF7FEFF 		bl	UART_0_Enable
 423              	.LVL25:
ARM GAS  C:\Users\kevin\AppData\Local\Temp\ccrZUpt9.s 			page 17


 192:.\Generated_Source\PSoC4/uart_0.c **** }
 424              		.loc 2 192 0
 425              		@ sp needed
 426 0016 10BD     		pop	{r4, pc}
 427              	.L42:
 428              		.align	2
 429              	.L41:
 430 0018 00000000 		.word	.LANCHOR0
 431              		.cfi_endproc
 432              	.LFE35:
 433              		.size	UART_0_Start, .-UART_0_Start
 434              		.section	.text.UART_0_Stop,"ax",%progbits
 435              		.align	1
 436              		.global	UART_0_Stop
 437              		.code	16
 438              		.thumb_func
 439              		.type	UART_0_Stop, %function
 440              	UART_0_Stop:
 441              	.LFB36:
 210:.\Generated_Source\PSoC4/uart_0.c **** {
 442              		.loc 2 210 0
 443              		.cfi_startproc
 444 0000 08B5     		push	{r3, lr}
 445              		.cfi_def_cfa_offset 8
 446              		.cfi_offset 3, -8
 447              		.cfi_offset 14, -4
 212:.\Generated_Source\PSoC4/uart_0.c ****     UART_0_DisableInt();
 448              		.loc 2 212 0
 449 0002 0A20     		mov	r0, #10
 450 0004 FFF7FEFF 		bl	CyIntDisable
 451              	.LVL26:
 215:.\Generated_Source\PSoC4/uart_0.c ****     UART_0_CTRL_REG &= (uint32) ~UART_0_CTRL_ENABLED;  /* Disable scb IP */
 452              		.loc 2 215 0
 453 0008 044B     		ldr	r3, .L44
 218:.\Generated_Source\PSoC4/uart_0.c ****     UART_0_ClearPendingInt();
 454              		.loc 2 218 0
 455 000a 0A20     		mov	r0, #10
 215:.\Generated_Source\PSoC4/uart_0.c ****     UART_0_CTRL_REG &= (uint32) ~UART_0_CTRL_ENABLED;  /* Disable scb IP */
 456              		.loc 2 215 0
 457 000c 1A68     		ldr	r2, [r3]
 222:.\Generated_Source\PSoC4/uart_0.c **** }
 458              		.loc 2 222 0
 459              		@ sp needed
 215:.\Generated_Source\PSoC4/uart_0.c ****     UART_0_CTRL_REG &= (uint32) ~UART_0_CTRL_ENABLED;  /* Disable scb IP */
 460              		.loc 2 215 0
 461 000e 5200     		lsl	r2, r2, #1
 462 0010 5208     		lsr	r2, r2, #1
 463 0012 1A60     		str	r2, [r3]
 218:.\Generated_Source\PSoC4/uart_0.c ****     UART_0_ClearPendingInt();
 464              		.loc 2 218 0
 465 0014 FFF7FEFF 		bl	CyIntClearPending
 466              	.LVL27:
 222:.\Generated_Source\PSoC4/uart_0.c **** }
 467              		.loc 2 222 0
 468 0018 08BD     		pop	{r3, pc}
 469              	.L45:
 470 001a C046     		.align	2
ARM GAS  C:\Users\kevin\AppData\Local\Temp\ccrZUpt9.s 			page 18


 471              	.L44:
 472 001c 00000640 		.word	1074135040
 473              		.cfi_endproc
 474              	.LFE36:
 475              		.size	UART_0_Stop, .-UART_0_Stop
 476              		.section	.text.UART_0_SetRxFifoLevel,"ax",%progbits
 477              		.align	1
 478              		.global	UART_0_SetRxFifoLevel
 479              		.code	16
 480              		.thumb_func
 481              		.type	UART_0_SetRxFifoLevel, %function
 482              	UART_0_SetRxFifoLevel:
 483              	.LFB37:
 243:.\Generated_Source\PSoC4/uart_0.c **** {
 484              		.loc 2 243 0
 485              		.cfi_startproc
 486              	.LVL28:
 246:.\Generated_Source\PSoC4/uart_0.c ****     rxFifoCtrl = UART_0_RX_FIFO_CTRL_REG;
 487              		.loc 2 246 0
 488 0000 034B     		ldr	r3, .L47
 248:.\Generated_Source\PSoC4/uart_0.c ****     rxFifoCtrl &= ((uint32) ~UART_0_RX_FIFO_CTRL_TRIGGER_LEVEL_MASK); /* Clear level mask bits */
 489              		.loc 2 248 0
 490 0002 0722     		mov	r2, #7
 246:.\Generated_Source\PSoC4/uart_0.c ****     rxFifoCtrl = UART_0_RX_FIFO_CTRL_REG;
 491              		.loc 2 246 0
 492 0004 1968     		ldr	r1, [r3]
 493              	.LVL29:
 252:.\Generated_Source\PSoC4/uart_0.c **** }
 494              		.loc 2 252 0
 495              		@ sp needed
 248:.\Generated_Source\PSoC4/uart_0.c ****     rxFifoCtrl &= ((uint32) ~UART_0_RX_FIFO_CTRL_TRIGGER_LEVEL_MASK); /* Clear level mask bits */
 496              		.loc 2 248 0
 497 0006 9143     		bic	r1, r2
 498              	.LVL30:
 249:.\Generated_Source\PSoC4/uart_0.c ****     rxFifoCtrl |= ((uint32) (UART_0_RX_FIFO_CTRL_TRIGGER_LEVEL_MASK & level));
 499              		.loc 2 249 0
 500 0008 0240     		and	r2, r0
 501 000a 0A43     		orr	r2, r1
 502              	.LVL31:
 251:.\Generated_Source\PSoC4/uart_0.c ****     UART_0_RX_FIFO_CTRL_REG = rxFifoCtrl;
 503              		.loc 2 251 0
 504 000c 1A60     		str	r2, [r3]
 252:.\Generated_Source\PSoC4/uart_0.c **** }
 505              		.loc 2 252 0
 506 000e 7047     		bx	lr
 507              	.L48:
 508              		.align	2
 509              	.L47:
 510 0010 04030640 		.word	1074135812
 511              		.cfi_endproc
 512              	.LFE37:
 513              		.size	UART_0_SetRxFifoLevel, .-UART_0_SetRxFifoLevel
 514              		.section	.text.UART_0_SetTxFifoLevel,"ax",%progbits
 515              		.align	1
 516              		.global	UART_0_SetTxFifoLevel
 517              		.code	16
 518              		.thumb_func
ARM GAS  C:\Users\kevin\AppData\Local\Temp\ccrZUpt9.s 			page 19


 519              		.type	UART_0_SetTxFifoLevel, %function
 520              	UART_0_SetTxFifoLevel:
 521              	.LFB38:
 273:.\Generated_Source\PSoC4/uart_0.c **** {
 522              		.loc 2 273 0
 523              		.cfi_startproc
 524              	.LVL32:
 276:.\Generated_Source\PSoC4/uart_0.c ****     txFifoCtrl = UART_0_TX_FIFO_CTRL_REG;
 525              		.loc 2 276 0
 526 0000 034B     		ldr	r3, .L50
 278:.\Generated_Source\PSoC4/uart_0.c ****     txFifoCtrl &= ((uint32) ~UART_0_TX_FIFO_CTRL_TRIGGER_LEVEL_MASK); /* Clear level mask bits */
 527              		.loc 2 278 0
 528 0002 0722     		mov	r2, #7
 276:.\Generated_Source\PSoC4/uart_0.c ****     txFifoCtrl = UART_0_TX_FIFO_CTRL_REG;
 529              		.loc 2 276 0
 530 0004 1968     		ldr	r1, [r3]
 531              	.LVL33:
 282:.\Generated_Source\PSoC4/uart_0.c **** }
 532              		.loc 2 282 0
 533              		@ sp needed
 278:.\Generated_Source\PSoC4/uart_0.c ****     txFifoCtrl &= ((uint32) ~UART_0_TX_FIFO_CTRL_TRIGGER_LEVEL_MASK); /* Clear level mask bits */
 534              		.loc 2 278 0
 535 0006 9143     		bic	r1, r2
 536              	.LVL34:
 279:.\Generated_Source\PSoC4/uart_0.c ****     txFifoCtrl |= ((uint32) (UART_0_TX_FIFO_CTRL_TRIGGER_LEVEL_MASK & level));
 537              		.loc 2 279 0
 538 0008 0240     		and	r2, r0
 539 000a 0A43     		orr	r2, r1
 540              	.LVL35:
 281:.\Generated_Source\PSoC4/uart_0.c ****     UART_0_TX_FIFO_CTRL_REG = txFifoCtrl;
 541              		.loc 2 281 0
 542 000c 1A60     		str	r2, [r3]
 282:.\Generated_Source\PSoC4/uart_0.c **** }
 543              		.loc 2 282 0
 544 000e 7047     		bx	lr
 545              	.L51:
 546              		.align	2
 547              	.L50:
 548 0010 04020640 		.word	1074135556
 549              		.cfi_endproc
 550              	.LFE38:
 551              		.size	UART_0_SetTxFifoLevel, .-UART_0_SetTxFifoLevel
 552              		.section	.text.UART_0_SetCustomInterruptHandler,"ax",%progbits
 553              		.align	1
 554              		.global	UART_0_SetCustomInterruptHandler
 555              		.code	16
 556              		.thumb_func
 557              		.type	UART_0_SetCustomInterruptHandler, %function
 558              	UART_0_SetCustomInterruptHandler:
 559              	.LFB39:
 308:.\Generated_Source\PSoC4/uart_0.c **** {
 560              		.loc 2 308 0
 561              		.cfi_startproc
 562              	.LVL36:
 310:.\Generated_Source\PSoC4/uart_0.c ****     UART_0_customIntrHandler = func; /* Register interrupt handler */
 563              		.loc 2 310 0
 564 0000 014B     		ldr	r3, .L53
ARM GAS  C:\Users\kevin\AppData\Local\Temp\ccrZUpt9.s 			page 20


 317:.\Generated_Source\PSoC4/uart_0.c **** }
 565              		.loc 2 317 0
 566              		@ sp needed
 310:.\Generated_Source\PSoC4/uart_0.c ****     UART_0_customIntrHandler = func; /* Register interrupt handler */
 567              		.loc 2 310 0
 568 0002 5860     		str	r0, [r3, #4]
 317:.\Generated_Source\PSoC4/uart_0.c **** }
 569              		.loc 2 317 0
 570 0004 7047     		bx	lr
 571              	.L54:
 572 0006 C046     		.align	2
 573              	.L53:
 574 0008 00000000 		.word	.LANCHOR0
 575              		.cfi_endproc
 576              	.LFE39:
 577              		.size	UART_0_SetCustomInterruptHandler, .-UART_0_SetCustomInterruptHandler
 578              		.section	.text.UART_0_I2CSlaveNackGeneration,"ax",%progbits
 579              		.align	1
 580              		.global	UART_0_I2CSlaveNackGeneration
 581              		.code	16
 582              		.thumb_func
 583              		.type	UART_0_I2CSlaveNackGeneration, %function
 584              	UART_0_I2CSlaveNackGeneration:
 585              	.LFB42:
 345:.\Generated_Source\PSoC4/uart_0.c **** 
 346:.\Generated_Source\PSoC4/uart_0.c ****     #endif /* (UART_0_SCB_MODE_UNCONFIG_CONST_CFG) */
 347:.\Generated_Source\PSoC4/uart_0.c **** #endif /* (UART_0_SCB_IRQ_INTERNAL) */
 348:.\Generated_Source\PSoC4/uart_0.c **** }
 349:.\Generated_Source\PSoC4/uart_0.c **** 
 350:.\Generated_Source\PSoC4/uart_0.c **** 
 351:.\Generated_Source\PSoC4/uart_0.c **** /*******************************************************************************
 352:.\Generated_Source\PSoC4/uart_0.c **** * Function Name: UART_0_ScbModeStop
 353:.\Generated_Source\PSoC4/uart_0.c **** ********************************************************************************
 354:.\Generated_Source\PSoC4/uart_0.c **** *
 355:.\Generated_Source\PSoC4/uart_0.c **** * Summary:
 356:.\Generated_Source\PSoC4/uart_0.c **** *  Calls the Stop function for a specific operation mode.
 357:.\Generated_Source\PSoC4/uart_0.c **** *
 358:.\Generated_Source\PSoC4/uart_0.c **** * Parameters:
 359:.\Generated_Source\PSoC4/uart_0.c **** *  None
 360:.\Generated_Source\PSoC4/uart_0.c **** *
 361:.\Generated_Source\PSoC4/uart_0.c **** * Return:
 362:.\Generated_Source\PSoC4/uart_0.c **** *  None
 363:.\Generated_Source\PSoC4/uart_0.c **** *
 364:.\Generated_Source\PSoC4/uart_0.c **** *******************************************************************************/
 365:.\Generated_Source\PSoC4/uart_0.c **** static void UART_0_ScbModeStop(void)
 366:.\Generated_Source\PSoC4/uart_0.c **** {
 367:.\Generated_Source\PSoC4/uart_0.c **** #if(UART_0_SCB_MODE_UNCONFIG_CONST_CFG)
 368:.\Generated_Source\PSoC4/uart_0.c ****     if(UART_0_SCB_MODE_I2C_RUNTM_CFG)
 369:.\Generated_Source\PSoC4/uart_0.c ****     {
 370:.\Generated_Source\PSoC4/uart_0.c ****         UART_0_I2CStop();
 371:.\Generated_Source\PSoC4/uart_0.c ****     }
 372:.\Generated_Source\PSoC4/uart_0.c ****     else if (UART_0_SCB_MODE_EZI2C_RUNTM_CFG)
 373:.\Generated_Source\PSoC4/uart_0.c ****     {
 374:.\Generated_Source\PSoC4/uart_0.c ****         UART_0_EzI2CStop();
 375:.\Generated_Source\PSoC4/uart_0.c ****     }
 376:.\Generated_Source\PSoC4/uart_0.c **** #if (!UART_0_CY_SCBIP_V1)
 377:.\Generated_Source\PSoC4/uart_0.c ****     else if (UART_0_SCB_MODE_UART_RUNTM_CFG)
ARM GAS  C:\Users\kevin\AppData\Local\Temp\ccrZUpt9.s 			page 21


 378:.\Generated_Source\PSoC4/uart_0.c ****     {
 379:.\Generated_Source\PSoC4/uart_0.c ****         UART_0_UartStop();
 380:.\Generated_Source\PSoC4/uart_0.c ****     }
 381:.\Generated_Source\PSoC4/uart_0.c **** #endif /* (!UART_0_CY_SCBIP_V1) */
 382:.\Generated_Source\PSoC4/uart_0.c ****     else
 383:.\Generated_Source\PSoC4/uart_0.c ****     {
 384:.\Generated_Source\PSoC4/uart_0.c ****         /* Do nothing for other modes */
 385:.\Generated_Source\PSoC4/uart_0.c ****     }
 386:.\Generated_Source\PSoC4/uart_0.c **** #elif(UART_0_SCB_MODE_I2C_CONST_CFG)
 387:.\Generated_Source\PSoC4/uart_0.c ****     UART_0_I2CStop();
 388:.\Generated_Source\PSoC4/uart_0.c **** 
 389:.\Generated_Source\PSoC4/uart_0.c **** #elif(UART_0_SCB_MODE_EZI2C_CONST_CFG)
 390:.\Generated_Source\PSoC4/uart_0.c ****     UART_0_EzI2CStop();
 391:.\Generated_Source\PSoC4/uart_0.c **** 
 392:.\Generated_Source\PSoC4/uart_0.c **** #elif(UART_0_SCB_MODE_UART_CONST_CFG)
 393:.\Generated_Source\PSoC4/uart_0.c ****     UART_0_UartStop();
 394:.\Generated_Source\PSoC4/uart_0.c **** 
 395:.\Generated_Source\PSoC4/uart_0.c **** #endif /* (UART_0_SCB_MODE_UNCONFIG_CONST_CFG) */
 396:.\Generated_Source\PSoC4/uart_0.c **** }
 397:.\Generated_Source\PSoC4/uart_0.c **** 
 398:.\Generated_Source\PSoC4/uart_0.c **** 
 399:.\Generated_Source\PSoC4/uart_0.c **** #if(UART_0_SCB_MODE_UNCONFIG_CONST_CFG)
 400:.\Generated_Source\PSoC4/uart_0.c ****     /*******************************************************************************
 401:.\Generated_Source\PSoC4/uart_0.c ****     * Function Name: UART_0_SetPins
 402:.\Generated_Source\PSoC4/uart_0.c ****     ********************************************************************************
 403:.\Generated_Source\PSoC4/uart_0.c ****     *
 404:.\Generated_Source\PSoC4/uart_0.c ****     * Summary:
 405:.\Generated_Source\PSoC4/uart_0.c ****     *  Sets the pins settings accordingly to the selected operation mode.
 406:.\Generated_Source\PSoC4/uart_0.c ****     *  Only available in the Unconfigured operation mode. The mode specific
 407:.\Generated_Source\PSoC4/uart_0.c ****     *  initialization function calls it.
 408:.\Generated_Source\PSoC4/uart_0.c ****     *  Pins configuration is set by PSoC Creator when a specific mode of operation
 409:.\Generated_Source\PSoC4/uart_0.c ****     *  is selected in design time.
 410:.\Generated_Source\PSoC4/uart_0.c ****     *
 411:.\Generated_Source\PSoC4/uart_0.c ****     * Parameters:
 412:.\Generated_Source\PSoC4/uart_0.c ****     *  mode:      Mode of SCB operation.
 413:.\Generated_Source\PSoC4/uart_0.c ****     *  subMode:   Sub-mode of SCB operation. It is only required for SPI and UART
 414:.\Generated_Source\PSoC4/uart_0.c ****     *             modes.
 415:.\Generated_Source\PSoC4/uart_0.c ****     *  uartEnableMask: enables TX or RX direction and RTS and CTS signals.
 416:.\Generated_Source\PSoC4/uart_0.c ****     *
 417:.\Generated_Source\PSoC4/uart_0.c ****     * Return:
 418:.\Generated_Source\PSoC4/uart_0.c ****     *  None
 419:.\Generated_Source\PSoC4/uart_0.c ****     *
 420:.\Generated_Source\PSoC4/uart_0.c ****     *******************************************************************************/
 421:.\Generated_Source\PSoC4/uart_0.c ****     void UART_0_SetPins(uint32 mode, uint32 subMode, uint32 uartEnableMask)
 422:.\Generated_Source\PSoC4/uart_0.c ****     {
 423:.\Generated_Source\PSoC4/uart_0.c ****         uint32 hsiomSel [UART_0_SCB_PINS_NUMBER];
 424:.\Generated_Source\PSoC4/uart_0.c ****         uint32 pinsDm   [UART_0_SCB_PINS_NUMBER];
 425:.\Generated_Source\PSoC4/uart_0.c **** 
 426:.\Generated_Source\PSoC4/uart_0.c ****     #if (!UART_0_CY_SCBIP_V1)
 427:.\Generated_Source\PSoC4/uart_0.c ****         uint32 pinsInBuf = 0u;
 428:.\Generated_Source\PSoC4/uart_0.c ****     #endif /* (!UART_0_CY_SCBIP_V1) */
 429:.\Generated_Source\PSoC4/uart_0.c **** 
 430:.\Generated_Source\PSoC4/uart_0.c ****         uint32 i;
 431:.\Generated_Source\PSoC4/uart_0.c **** 
 432:.\Generated_Source\PSoC4/uart_0.c ****         /* Set default HSIOM to GPIO and Drive Mode to Analog Hi-Z */
 433:.\Generated_Source\PSoC4/uart_0.c ****         for(i = 0u; i < UART_0_SCB_PINS_NUMBER; i++)
 434:.\Generated_Source\PSoC4/uart_0.c ****         {
ARM GAS  C:\Users\kevin\AppData\Local\Temp\ccrZUpt9.s 			page 22


 435:.\Generated_Source\PSoC4/uart_0.c ****             hsiomSel[i]  = UART_0_HSIOM_DEF_SEL;
 436:.\Generated_Source\PSoC4/uart_0.c ****             pinsDm[i]    = UART_0_PIN_DM_ALG_HIZ;
 437:.\Generated_Source\PSoC4/uart_0.c ****         }
 438:.\Generated_Source\PSoC4/uart_0.c **** 
 439:.\Generated_Source\PSoC4/uart_0.c ****         if((UART_0_SCB_MODE_I2C   == mode) ||
 440:.\Generated_Source\PSoC4/uart_0.c ****            (UART_0_SCB_MODE_EZI2C == mode))
 441:.\Generated_Source\PSoC4/uart_0.c ****         {
 442:.\Generated_Source\PSoC4/uart_0.c ****             hsiomSel[UART_0_MOSI_SCL_RX_PIN_INDEX] = UART_0_HSIOM_I2C_SEL;
 443:.\Generated_Source\PSoC4/uart_0.c ****             hsiomSel[UART_0_MISO_SDA_TX_PIN_INDEX] = UART_0_HSIOM_I2C_SEL;
 444:.\Generated_Source\PSoC4/uart_0.c **** 
 445:.\Generated_Source\PSoC4/uart_0.c ****             pinsDm[UART_0_MOSI_SCL_RX_PIN_INDEX] = UART_0_PIN_DM_OD_LO;
 446:.\Generated_Source\PSoC4/uart_0.c ****             pinsDm[UART_0_MISO_SDA_TX_PIN_INDEX] = UART_0_PIN_DM_OD_LO;
 447:.\Generated_Source\PSoC4/uart_0.c ****         }
 448:.\Generated_Source\PSoC4/uart_0.c ****     #if (!UART_0_CY_SCBIP_V1)
 449:.\Generated_Source\PSoC4/uart_0.c ****         else if(UART_0_SCB_MODE_SPI == mode)
 450:.\Generated_Source\PSoC4/uart_0.c ****         {
 451:.\Generated_Source\PSoC4/uart_0.c ****             hsiomSel[UART_0_MOSI_SCL_RX_PIN_INDEX] = UART_0_HSIOM_SPI_SEL;
 452:.\Generated_Source\PSoC4/uart_0.c ****             hsiomSel[UART_0_MISO_SDA_TX_PIN_INDEX] = UART_0_HSIOM_SPI_SEL;
 453:.\Generated_Source\PSoC4/uart_0.c ****             hsiomSel[UART_0_SCLK_PIN_INDEX]        = UART_0_HSIOM_SPI_SEL;
 454:.\Generated_Source\PSoC4/uart_0.c **** 
 455:.\Generated_Source\PSoC4/uart_0.c ****             if(UART_0_SPI_SLAVE == subMode)
 456:.\Generated_Source\PSoC4/uart_0.c ****             {
 457:.\Generated_Source\PSoC4/uart_0.c ****                 /* Slave */
 458:.\Generated_Source\PSoC4/uart_0.c ****                 pinsDm[UART_0_MOSI_SCL_RX_PIN_INDEX] = UART_0_PIN_DM_DIG_HIZ;
 459:.\Generated_Source\PSoC4/uart_0.c ****                 pinsDm[UART_0_MISO_SDA_TX_PIN_INDEX] = UART_0_PIN_DM_STRONG;
 460:.\Generated_Source\PSoC4/uart_0.c ****                 pinsDm[UART_0_SCLK_PIN_INDEX]        = UART_0_PIN_DM_DIG_HIZ;
 461:.\Generated_Source\PSoC4/uart_0.c **** 
 462:.\Generated_Source\PSoC4/uart_0.c ****             #if(UART_0_SS0_PIN)
 463:.\Generated_Source\PSoC4/uart_0.c ****                 /* Only SS0 is valid choice for Slave */
 464:.\Generated_Source\PSoC4/uart_0.c ****                 hsiomSel[UART_0_SS0_PIN_INDEX] = UART_0_HSIOM_SPI_SEL;
 465:.\Generated_Source\PSoC4/uart_0.c ****                 pinsDm  [UART_0_SS0_PIN_INDEX] = UART_0_PIN_DM_DIG_HIZ;
 466:.\Generated_Source\PSoC4/uart_0.c ****             #endif /* (UART_0_SS1_PIN) */
 467:.\Generated_Source\PSoC4/uart_0.c **** 
 468:.\Generated_Source\PSoC4/uart_0.c ****             #if(UART_0_MISO_SDA_TX_PIN)
 469:.\Generated_Source\PSoC4/uart_0.c ****                 /* Disable input buffer */
 470:.\Generated_Source\PSoC4/uart_0.c ****                  pinsInBuf |= UART_0_MISO_SDA_TX_PIN_MASK;
 471:.\Generated_Source\PSoC4/uart_0.c ****             #endif /* (UART_0_MISO_SDA_TX_PIN_PIN) */
 472:.\Generated_Source\PSoC4/uart_0.c ****             }
 473:.\Generated_Source\PSoC4/uart_0.c ****             else /* (Master) */
 474:.\Generated_Source\PSoC4/uart_0.c ****             {
 475:.\Generated_Source\PSoC4/uart_0.c ****                 pinsDm[UART_0_MOSI_SCL_RX_PIN_INDEX] = UART_0_PIN_DM_STRONG;
 476:.\Generated_Source\PSoC4/uart_0.c ****                 pinsDm[UART_0_MISO_SDA_TX_PIN_INDEX] = UART_0_PIN_DM_DIG_HIZ;
 477:.\Generated_Source\PSoC4/uart_0.c ****                 pinsDm[UART_0_SCLK_PIN_INDEX]        = UART_0_PIN_DM_STRONG;
 478:.\Generated_Source\PSoC4/uart_0.c **** 
 479:.\Generated_Source\PSoC4/uart_0.c ****             #if(UART_0_SS0_PIN)
 480:.\Generated_Source\PSoC4/uart_0.c ****                 hsiomSel [UART_0_SS0_PIN_INDEX] = UART_0_HSIOM_SPI_SEL;
 481:.\Generated_Source\PSoC4/uart_0.c ****                 pinsDm   [UART_0_SS0_PIN_INDEX] = UART_0_PIN_DM_STRONG;
 482:.\Generated_Source\PSoC4/uart_0.c ****                 pinsInBuf                                |= UART_0_SS0_PIN_MASK;
 483:.\Generated_Source\PSoC4/uart_0.c ****             #endif /* (UART_0_SS0_PIN) */
 484:.\Generated_Source\PSoC4/uart_0.c **** 
 485:.\Generated_Source\PSoC4/uart_0.c ****             #if(UART_0_SS1_PIN)
 486:.\Generated_Source\PSoC4/uart_0.c ****                 hsiomSel [UART_0_SS1_PIN_INDEX] = UART_0_HSIOM_SPI_SEL;
 487:.\Generated_Source\PSoC4/uart_0.c ****                 pinsDm   [UART_0_SS1_PIN_INDEX] = UART_0_PIN_DM_STRONG;
 488:.\Generated_Source\PSoC4/uart_0.c ****                 pinsInBuf                                |= UART_0_SS1_PIN_MASK;
 489:.\Generated_Source\PSoC4/uart_0.c ****             #endif /* (UART_0_SS1_PIN) */
 490:.\Generated_Source\PSoC4/uart_0.c **** 
 491:.\Generated_Source\PSoC4/uart_0.c ****             #if(UART_0_SS2_PIN)
ARM GAS  C:\Users\kevin\AppData\Local\Temp\ccrZUpt9.s 			page 23


 492:.\Generated_Source\PSoC4/uart_0.c ****                 hsiomSel [UART_0_SS2_PIN_INDEX] = UART_0_HSIOM_SPI_SEL;
 493:.\Generated_Source\PSoC4/uart_0.c ****                 pinsDm   [UART_0_SS2_PIN_INDEX] = UART_0_PIN_DM_STRONG;
 494:.\Generated_Source\PSoC4/uart_0.c ****                 pinsInBuf                                |= UART_0_SS2_PIN_MASK;
 495:.\Generated_Source\PSoC4/uart_0.c ****             #endif /* (UART_0_SS2_PIN) */
 496:.\Generated_Source\PSoC4/uart_0.c **** 
 497:.\Generated_Source\PSoC4/uart_0.c ****             #if(UART_0_SS3_PIN)
 498:.\Generated_Source\PSoC4/uart_0.c ****                 hsiomSel [UART_0_SS3_PIN_INDEX] = UART_0_HSIOM_SPI_SEL;
 499:.\Generated_Source\PSoC4/uart_0.c ****                 pinsDm   [UART_0_SS3_PIN_INDEX] = UART_0_PIN_DM_STRONG;
 500:.\Generated_Source\PSoC4/uart_0.c ****                 pinsInBuf                                |= UART_0_SS3_PIN_MASK;
 501:.\Generated_Source\PSoC4/uart_0.c ****             #endif /* (UART_0_SS2_PIN) */
 502:.\Generated_Source\PSoC4/uart_0.c **** 
 503:.\Generated_Source\PSoC4/uart_0.c ****                 /* Disable input buffers */
 504:.\Generated_Source\PSoC4/uart_0.c ****             #if(UART_0_MOSI_SCL_RX_PIN)
 505:.\Generated_Source\PSoC4/uart_0.c ****                 pinsInBuf |= UART_0_MOSI_SCL_RX_PIN_MASK;
 506:.\Generated_Source\PSoC4/uart_0.c ****             #endif /* (UART_0_MOSI_SCL_RX_PIN) */
 507:.\Generated_Source\PSoC4/uart_0.c **** 
 508:.\Generated_Source\PSoC4/uart_0.c ****              #if(UART_0_MOSI_SCL_RX_WAKE_PIN)
 509:.\Generated_Source\PSoC4/uart_0.c ****                 pinsInBuf |= UART_0_MOSI_SCL_RX_WAKE_PIN_MASK;
 510:.\Generated_Source\PSoC4/uart_0.c ****             #endif /* (UART_0_MOSI_SCL_RX_WAKE_PIN) */
 511:.\Generated_Source\PSoC4/uart_0.c **** 
 512:.\Generated_Source\PSoC4/uart_0.c ****             #if(UART_0_SCLK_PIN)
 513:.\Generated_Source\PSoC4/uart_0.c ****                 pinsInBuf |= UART_0_SCLK_PIN_MASK;
 514:.\Generated_Source\PSoC4/uart_0.c ****             #endif /* (UART_0_SCLK_PIN) */
 515:.\Generated_Source\PSoC4/uart_0.c ****             }
 516:.\Generated_Source\PSoC4/uart_0.c ****         }
 517:.\Generated_Source\PSoC4/uart_0.c ****         else /* UART */
 518:.\Generated_Source\PSoC4/uart_0.c ****         {
 519:.\Generated_Source\PSoC4/uart_0.c ****             if(UART_0_UART_MODE_SMARTCARD == subMode)
 520:.\Generated_Source\PSoC4/uart_0.c ****             {
 521:.\Generated_Source\PSoC4/uart_0.c ****                 /* SmartCard */
 522:.\Generated_Source\PSoC4/uart_0.c ****                 hsiomSel[UART_0_MISO_SDA_TX_PIN_INDEX] = UART_0_HSIOM_UART_SEL;
 523:.\Generated_Source\PSoC4/uart_0.c ****                 pinsDm  [UART_0_MISO_SDA_TX_PIN_INDEX] = UART_0_PIN_DM_OD_LO;
 524:.\Generated_Source\PSoC4/uart_0.c ****             }
 525:.\Generated_Source\PSoC4/uart_0.c ****             else /* Standard or IrDA */
 526:.\Generated_Source\PSoC4/uart_0.c ****             {
 527:.\Generated_Source\PSoC4/uart_0.c ****                 if(0u != (UART_0_UART_RX_PIN_ENABLE & uartEnableMask))
 528:.\Generated_Source\PSoC4/uart_0.c ****                 {
 529:.\Generated_Source\PSoC4/uart_0.c ****                     hsiomSel[UART_0_MOSI_SCL_RX_PIN_INDEX] = UART_0_HSIOM_UART_SEL;
 530:.\Generated_Source\PSoC4/uart_0.c ****                     pinsDm  [UART_0_MOSI_SCL_RX_PIN_INDEX] = UART_0_PIN_DM_DIG_HIZ;
 531:.\Generated_Source\PSoC4/uart_0.c ****                 }
 532:.\Generated_Source\PSoC4/uart_0.c **** 
 533:.\Generated_Source\PSoC4/uart_0.c ****                 if(0u != (UART_0_UART_TX_PIN_ENABLE & uartEnableMask))
 534:.\Generated_Source\PSoC4/uart_0.c ****                 {
 535:.\Generated_Source\PSoC4/uart_0.c ****                     hsiomSel[UART_0_MISO_SDA_TX_PIN_INDEX] = UART_0_HSIOM_UART_SEL;
 536:.\Generated_Source\PSoC4/uart_0.c ****                     pinsDm  [UART_0_MISO_SDA_TX_PIN_INDEX] = UART_0_PIN_DM_STRONG;
 537:.\Generated_Source\PSoC4/uart_0.c **** 
 538:.\Generated_Source\PSoC4/uart_0.c ****                 #if(UART_0_MISO_SDA_TX_PIN)
 539:.\Generated_Source\PSoC4/uart_0.c ****                      pinsInBuf |= UART_0_MISO_SDA_TX_PIN_MASK;
 540:.\Generated_Source\PSoC4/uart_0.c ****                 #endif /* (UART_0_MISO_SDA_TX_PIN_PIN) */
 541:.\Generated_Source\PSoC4/uart_0.c ****                 }
 542:.\Generated_Source\PSoC4/uart_0.c **** 
 543:.\Generated_Source\PSoC4/uart_0.c ****             #if !(UART_0_CY_SCBIP_V0 || UART_0_CY_SCBIP_V1)
 544:.\Generated_Source\PSoC4/uart_0.c ****                 if(UART_0_UART_MODE_STD == subMode)
 545:.\Generated_Source\PSoC4/uart_0.c ****                 {
 546:.\Generated_Source\PSoC4/uart_0.c ****                     if(0u != (UART_0_UART_CTS_PIN_ENABLE & uartEnableMask))
 547:.\Generated_Source\PSoC4/uart_0.c ****                     {
 548:.\Generated_Source\PSoC4/uart_0.c ****                         /* CTS input is multiplexed with SCLK */
ARM GAS  C:\Users\kevin\AppData\Local\Temp\ccrZUpt9.s 			page 24


 549:.\Generated_Source\PSoC4/uart_0.c ****                         hsiomSel[UART_0_SCLK_PIN_INDEX] = UART_0_HSIOM_UART_SEL;
 550:.\Generated_Source\PSoC4/uart_0.c ****                         pinsDm  [UART_0_SCLK_PIN_INDEX] = UART_0_PIN_DM_DIG_HIZ;
 551:.\Generated_Source\PSoC4/uart_0.c ****                     }
 552:.\Generated_Source\PSoC4/uart_0.c **** 
 553:.\Generated_Source\PSoC4/uart_0.c ****                     if(0u != (UART_0_UART_RTS_PIN_ENABLE & uartEnableMask))
 554:.\Generated_Source\PSoC4/uart_0.c ****                     {
 555:.\Generated_Source\PSoC4/uart_0.c ****                         /* RTS output is multiplexed with SS0 */
 556:.\Generated_Source\PSoC4/uart_0.c ****                         hsiomSel[UART_0_SS0_PIN_INDEX] = UART_0_HSIOM_UART_SEL;
 557:.\Generated_Source\PSoC4/uart_0.c ****                         pinsDm  [UART_0_SS0_PIN_INDEX] = UART_0_PIN_DM_STRONG;
 558:.\Generated_Source\PSoC4/uart_0.c **** 
 559:.\Generated_Source\PSoC4/uart_0.c ****                     #if(UART_0_SS0_PIN)
 560:.\Generated_Source\PSoC4/uart_0.c ****                         /* Disable input buffer */
 561:.\Generated_Source\PSoC4/uart_0.c ****                         pinsInBuf |= UART_0_SS0_PIN_MASK;
 562:.\Generated_Source\PSoC4/uart_0.c ****                     #endif /* (UART_0_SS0_PIN) */
 563:.\Generated_Source\PSoC4/uart_0.c ****                     }
 564:.\Generated_Source\PSoC4/uart_0.c ****                 }
 565:.\Generated_Source\PSoC4/uart_0.c ****             #endif /* !(UART_0_CY_SCBIP_V0 || UART_0_CY_SCBIP_V1) */
 566:.\Generated_Source\PSoC4/uart_0.c ****             }
 567:.\Generated_Source\PSoC4/uart_0.c ****         }
 568:.\Generated_Source\PSoC4/uart_0.c ****     #endif /* (!UART_0_CY_SCBIP_V1) */
 569:.\Generated_Source\PSoC4/uart_0.c **** 
 570:.\Generated_Source\PSoC4/uart_0.c ****     /* Configure pins: set HSIOM, DM and InputBufEnable */
 571:.\Generated_Source\PSoC4/uart_0.c ****     /* Note: the DR register settings do not effect the pin output if HSIOM is other than GPIO */
 572:.\Generated_Source\PSoC4/uart_0.c **** 
 573:.\Generated_Source\PSoC4/uart_0.c ****     #if(UART_0_MOSI_SCL_RX_PIN)
 574:.\Generated_Source\PSoC4/uart_0.c ****         UART_0_SET_HSIOM_SEL(UART_0_MOSI_SCL_RX_HSIOM_REG,
 575:.\Generated_Source\PSoC4/uart_0.c ****                                        UART_0_MOSI_SCL_RX_HSIOM_MASK,
 576:.\Generated_Source\PSoC4/uart_0.c ****                                        UART_0_MOSI_SCL_RX_HSIOM_POS,
 577:.\Generated_Source\PSoC4/uart_0.c ****                                        hsiomSel[UART_0_MOSI_SCL_RX_PIN_INDEX]);
 578:.\Generated_Source\PSoC4/uart_0.c **** 
 579:.\Generated_Source\PSoC4/uart_0.c ****         UART_0_spi_mosi_i2c_scl_uart_rx_SetDriveMode((uint8) pinsDm[UART_0_MOSI_SCL_RX_PIN_INDEX]);
 580:.\Generated_Source\PSoC4/uart_0.c **** 
 581:.\Generated_Source\PSoC4/uart_0.c ****     #if (!UART_0_CY_SCBIP_V1)
 582:.\Generated_Source\PSoC4/uart_0.c ****         UART_0_SET_INP_DIS(UART_0_spi_mosi_i2c_scl_uart_rx_INP_DIS,
 583:.\Generated_Source\PSoC4/uart_0.c ****                                      UART_0_spi_mosi_i2c_scl_uart_rx_MASK,
 584:.\Generated_Source\PSoC4/uart_0.c ****                                      (0u != (pinsInBuf & UART_0_MOSI_SCL_RX_PIN_MASK)));
 585:.\Generated_Source\PSoC4/uart_0.c ****     #endif /* (!UART_0_CY_SCBIP_V1) */
 586:.\Generated_Source\PSoC4/uart_0.c ****     #endif /* (UART_0_MOSI_SCL_RX_PIN) */
 587:.\Generated_Source\PSoC4/uart_0.c **** 
 588:.\Generated_Source\PSoC4/uart_0.c ****     #if(UART_0_MOSI_SCL_RX_WAKE_PIN)
 589:.\Generated_Source\PSoC4/uart_0.c ****         UART_0_SET_HSIOM_SEL(UART_0_MOSI_SCL_RX_WAKE_HSIOM_REG,
 590:.\Generated_Source\PSoC4/uart_0.c ****                                        UART_0_MOSI_SCL_RX_WAKE_HSIOM_MASK,
 591:.\Generated_Source\PSoC4/uart_0.c ****                                        UART_0_MOSI_SCL_RX_WAKE_HSIOM_POS,
 592:.\Generated_Source\PSoC4/uart_0.c ****                                        hsiomSel[UART_0_MOSI_SCL_RX_WAKE_PIN_INDEX]);
 593:.\Generated_Source\PSoC4/uart_0.c **** 
 594:.\Generated_Source\PSoC4/uart_0.c ****         UART_0_spi_mosi_i2c_scl_uart_rx_wake_SetDriveMode((uint8)
 595:.\Generated_Source\PSoC4/uart_0.c ****                                                                pinsDm[UART_0_MOSI_SCL_RX_WAKE_PIN_I
 596:.\Generated_Source\PSoC4/uart_0.c **** 
 597:.\Generated_Source\PSoC4/uart_0.c ****         UART_0_SET_INP_DIS(UART_0_spi_mosi_i2c_scl_uart_rx_wake_INP_DIS,
 598:.\Generated_Source\PSoC4/uart_0.c ****                                      UART_0_spi_mosi_i2c_scl_uart_rx_wake_MASK,
 599:.\Generated_Source\PSoC4/uart_0.c ****                                      (0u != (pinsInBuf & UART_0_MOSI_SCL_RX_WAKE_PIN_MASK)));
 600:.\Generated_Source\PSoC4/uart_0.c **** 
 601:.\Generated_Source\PSoC4/uart_0.c ****          /* Set interrupt on falling edge */
 602:.\Generated_Source\PSoC4/uart_0.c ****         UART_0_SET_INCFG_TYPE(UART_0_MOSI_SCL_RX_WAKE_INTCFG_REG,
 603:.\Generated_Source\PSoC4/uart_0.c ****                                         UART_0_MOSI_SCL_RX_WAKE_INTCFG_TYPE_MASK,
 604:.\Generated_Source\PSoC4/uart_0.c ****                                         UART_0_MOSI_SCL_RX_WAKE_INTCFG_TYPE_POS,
 605:.\Generated_Source\PSoC4/uart_0.c ****                                         UART_0_INTCFG_TYPE_FALLING_EDGE);
ARM GAS  C:\Users\kevin\AppData\Local\Temp\ccrZUpt9.s 			page 25


 606:.\Generated_Source\PSoC4/uart_0.c ****     #endif /* (UART_0_MOSI_SCL_RX_WAKE_PIN) */
 607:.\Generated_Source\PSoC4/uart_0.c **** 
 608:.\Generated_Source\PSoC4/uart_0.c ****     #if(UART_0_MISO_SDA_TX_PIN)
 609:.\Generated_Source\PSoC4/uart_0.c ****         UART_0_SET_HSIOM_SEL(UART_0_MISO_SDA_TX_HSIOM_REG,
 610:.\Generated_Source\PSoC4/uart_0.c ****                                        UART_0_MISO_SDA_TX_HSIOM_MASK,
 611:.\Generated_Source\PSoC4/uart_0.c ****                                        UART_0_MISO_SDA_TX_HSIOM_POS,
 612:.\Generated_Source\PSoC4/uart_0.c ****                                        hsiomSel[UART_0_MISO_SDA_TX_PIN_INDEX]);
 613:.\Generated_Source\PSoC4/uart_0.c **** 
 614:.\Generated_Source\PSoC4/uart_0.c ****         UART_0_spi_miso_i2c_sda_uart_tx_SetDriveMode((uint8) pinsDm[UART_0_MISO_SDA_TX_PIN_INDEX]);
 615:.\Generated_Source\PSoC4/uart_0.c **** 
 616:.\Generated_Source\PSoC4/uart_0.c ****     #if (!UART_0_CY_SCBIP_V1)
 617:.\Generated_Source\PSoC4/uart_0.c ****         UART_0_SET_INP_DIS(UART_0_spi_miso_i2c_sda_uart_tx_INP_DIS,
 618:.\Generated_Source\PSoC4/uart_0.c ****                                      UART_0_spi_miso_i2c_sda_uart_tx_MASK,
 619:.\Generated_Source\PSoC4/uart_0.c ****                                     (0u != (pinsInBuf & UART_0_MISO_SDA_TX_PIN_MASK)));
 620:.\Generated_Source\PSoC4/uart_0.c ****     #endif /* (!UART_0_CY_SCBIP_V1) */
 621:.\Generated_Source\PSoC4/uart_0.c ****     #endif /* (UART_0_MOSI_SCL_RX_PIN) */
 622:.\Generated_Source\PSoC4/uart_0.c **** 
 623:.\Generated_Source\PSoC4/uart_0.c ****     #if(UART_0_SCLK_PIN)
 624:.\Generated_Source\PSoC4/uart_0.c ****         UART_0_SET_HSIOM_SEL(UART_0_SCLK_HSIOM_REG, UART_0_SCLK_HSIOM_MASK,
 625:.\Generated_Source\PSoC4/uart_0.c ****                                        UART_0_SCLK_HSIOM_POS, hsiomSel[UART_0_SCLK_PIN_INDEX]);
 626:.\Generated_Source\PSoC4/uart_0.c **** 
 627:.\Generated_Source\PSoC4/uart_0.c ****         UART_0_spi_sclk_SetDriveMode((uint8) pinsDm[UART_0_SCLK_PIN_INDEX]);
 628:.\Generated_Source\PSoC4/uart_0.c **** 
 629:.\Generated_Source\PSoC4/uart_0.c ****         UART_0_SET_INP_DIS(UART_0_spi_sclk_INP_DIS,
 630:.\Generated_Source\PSoC4/uart_0.c ****                                      UART_0_spi_sclk_MASK,
 631:.\Generated_Source\PSoC4/uart_0.c ****                                      (0u != (pinsInBuf & UART_0_SCLK_PIN_MASK)));
 632:.\Generated_Source\PSoC4/uart_0.c ****     #endif /* (UART_0_SCLK_PIN) */
 633:.\Generated_Source\PSoC4/uart_0.c **** 
 634:.\Generated_Source\PSoC4/uart_0.c ****     #if(UART_0_SS0_PIN)
 635:.\Generated_Source\PSoC4/uart_0.c ****         UART_0_SET_HSIOM_SEL(UART_0_SS0_HSIOM_REG, UART_0_SS0_HSIOM_MASK,
 636:.\Generated_Source\PSoC4/uart_0.c ****                                        UART_0_SS0_HSIOM_POS, hsiomSel[UART_0_SS0_PIN_INDEX]);
 637:.\Generated_Source\PSoC4/uart_0.c **** 
 638:.\Generated_Source\PSoC4/uart_0.c ****         UART_0_spi_ss0_SetDriveMode((uint8) pinsDm[UART_0_SS0_PIN_INDEX]);
 639:.\Generated_Source\PSoC4/uart_0.c **** 
 640:.\Generated_Source\PSoC4/uart_0.c ****         UART_0_SET_INP_DIS(UART_0_spi_ss0_INP_DIS,
 641:.\Generated_Source\PSoC4/uart_0.c ****                                      UART_0_spi_ss0_MASK,
 642:.\Generated_Source\PSoC4/uart_0.c ****                                      (0u != (pinsInBuf & UART_0_SS0_PIN_MASK)));
 643:.\Generated_Source\PSoC4/uart_0.c ****     #endif /* (UART_0_SS1_PIN) */
 644:.\Generated_Source\PSoC4/uart_0.c **** 
 645:.\Generated_Source\PSoC4/uart_0.c ****     #if(UART_0_SS1_PIN)
 646:.\Generated_Source\PSoC4/uart_0.c ****         UART_0_SET_HSIOM_SEL(UART_0_SS1_HSIOM_REG, UART_0_SS1_HSIOM_MASK,
 647:.\Generated_Source\PSoC4/uart_0.c ****                                        UART_0_SS1_HSIOM_POS, hsiomSel[UART_0_SS1_PIN_INDEX]);
 648:.\Generated_Source\PSoC4/uart_0.c **** 
 649:.\Generated_Source\PSoC4/uart_0.c ****         UART_0_spi_ss1_SetDriveMode((uint8) pinsDm[UART_0_SS1_PIN_INDEX]);
 650:.\Generated_Source\PSoC4/uart_0.c **** 
 651:.\Generated_Source\PSoC4/uart_0.c ****         UART_0_SET_INP_DIS(UART_0_spi_ss1_INP_DIS,
 652:.\Generated_Source\PSoC4/uart_0.c ****                                      UART_0_spi_ss1_MASK,
 653:.\Generated_Source\PSoC4/uart_0.c ****                                      (0u != (pinsInBuf & UART_0_SS1_PIN_MASK)));
 654:.\Generated_Source\PSoC4/uart_0.c ****     #endif /* (UART_0_SS1_PIN) */
 655:.\Generated_Source\PSoC4/uart_0.c **** 
 656:.\Generated_Source\PSoC4/uart_0.c ****     #if(UART_0_SS2_PIN)
 657:.\Generated_Source\PSoC4/uart_0.c ****         UART_0_SET_HSIOM_SEL(UART_0_SS2_HSIOM_REG, UART_0_SS2_HSIOM_MASK,
 658:.\Generated_Source\PSoC4/uart_0.c ****                                        UART_0_SS2_HSIOM_POS, hsiomSel[UART_0_SS2_PIN_INDEX]);
 659:.\Generated_Source\PSoC4/uart_0.c **** 
 660:.\Generated_Source\PSoC4/uart_0.c ****         UART_0_spi_ss2_SetDriveMode((uint8) pinsDm[UART_0_SS2_PIN_INDEX]);
 661:.\Generated_Source\PSoC4/uart_0.c **** 
 662:.\Generated_Source\PSoC4/uart_0.c ****         UART_0_SET_INP_DIS(UART_0_spi_ss2_INP_DIS,
ARM GAS  C:\Users\kevin\AppData\Local\Temp\ccrZUpt9.s 			page 26


 663:.\Generated_Source\PSoC4/uart_0.c ****                                      UART_0_spi_ss2_MASK,
 664:.\Generated_Source\PSoC4/uart_0.c ****                                      (0u != (pinsInBuf & UART_0_SS2_PIN_MASK)));
 665:.\Generated_Source\PSoC4/uart_0.c ****     #endif /* (UART_0_SS2_PIN) */
 666:.\Generated_Source\PSoC4/uart_0.c **** 
 667:.\Generated_Source\PSoC4/uart_0.c ****     #if(UART_0_SS3_PIN)
 668:.\Generated_Source\PSoC4/uart_0.c ****         UART_0_SET_HSIOM_SEL(UART_0_SS3_HSIOM_REG,  UART_0_SS3_HSIOM_MASK,
 669:.\Generated_Source\PSoC4/uart_0.c ****                                        UART_0_SS3_HSIOM_POS, hsiomSel[UART_0_SS3_PIN_INDEX]);
 670:.\Generated_Source\PSoC4/uart_0.c **** 
 671:.\Generated_Source\PSoC4/uart_0.c ****         UART_0_spi_ss3_SetDriveMode((uint8) pinsDm[UART_0_SS3_PIN_INDEX]);
 672:.\Generated_Source\PSoC4/uart_0.c **** 
 673:.\Generated_Source\PSoC4/uart_0.c ****         UART_0_SET_INP_DIS(UART_0_spi_ss3_INP_DIS,
 674:.\Generated_Source\PSoC4/uart_0.c ****                                      UART_0_spi_ss3_MASK,
 675:.\Generated_Source\PSoC4/uart_0.c ****                                      (0u != (pinsInBuf & UART_0_SS3_PIN_MASK)));
 676:.\Generated_Source\PSoC4/uart_0.c ****     #endif /* (UART_0_SS3_PIN) */
 677:.\Generated_Source\PSoC4/uart_0.c ****     }
 678:.\Generated_Source\PSoC4/uart_0.c **** 
 679:.\Generated_Source\PSoC4/uart_0.c **** #endif /* (UART_0_SCB_MODE_UNCONFIG_CONST_CFG) */
 680:.\Generated_Source\PSoC4/uart_0.c **** 
 681:.\Generated_Source\PSoC4/uart_0.c **** 
 682:.\Generated_Source\PSoC4/uart_0.c **** #if (UART_0_CY_SCBIP_V0 || UART_0_CY_SCBIP_V1)
 683:.\Generated_Source\PSoC4/uart_0.c ****     /*******************************************************************************
 684:.\Generated_Source\PSoC4/uart_0.c ****     * Function Name: UART_0_I2CSlaveNackGeneration
 685:.\Generated_Source\PSoC4/uart_0.c ****     ********************************************************************************
 686:.\Generated_Source\PSoC4/uart_0.c ****     *
 687:.\Generated_Source\PSoC4/uart_0.c ****     * Summary:
 688:.\Generated_Source\PSoC4/uart_0.c ****     *  Sets command to generate NACK to the address or data.
 689:.\Generated_Source\PSoC4/uart_0.c ****     *
 690:.\Generated_Source\PSoC4/uart_0.c ****     * Parameters:
 691:.\Generated_Source\PSoC4/uart_0.c ****     *  None
 692:.\Generated_Source\PSoC4/uart_0.c ****     *
 693:.\Generated_Source\PSoC4/uart_0.c ****     * Return:
 694:.\Generated_Source\PSoC4/uart_0.c ****     *  None
 695:.\Generated_Source\PSoC4/uart_0.c ****     *
 696:.\Generated_Source\PSoC4/uart_0.c ****     *******************************************************************************/
 697:.\Generated_Source\PSoC4/uart_0.c ****     void UART_0_I2CSlaveNackGeneration(void)
 698:.\Generated_Source\PSoC4/uart_0.c ****     {
 586              		.loc 2 698 0
 587              		.cfi_startproc
 699:.\Generated_Source\PSoC4/uart_0.c ****         /* Check for EC_AM toggle condition: EC_AM and clock stretching for address are enabled */
 700:.\Generated_Source\PSoC4/uart_0.c ****         if ((0u != (UART_0_CTRL_REG & UART_0_CTRL_EC_AM_MODE)) &&
 588              		.loc 2 700 0
 589 0000 0A4B     		ldr	r3, .L60
 590 0002 8022     		mov	r2, #128
 591 0004 1968     		ldr	r1, [r3]
 592 0006 5200     		lsl	r2, r2, #1
 593 0008 1142     		tst	r1, r2
 594 000a 0AD0     		beq	.L56
 701:.\Generated_Source\PSoC4/uart_0.c ****             (0u == (UART_0_I2C_CTRL_REG & UART_0_I2C_CTRL_S_NOT_READY_ADDR_NACK)))
 595              		.loc 2 701 0 discriminator 1
 596 000c 0849     		ldr	r1, .L60+4
 597 000e 0968     		ldr	r1, [r1]
 700:.\Generated_Source\PSoC4/uart_0.c ****         if ((0u != (UART_0_CTRL_REG & UART_0_CTRL_EC_AM_MODE)) &&
 598              		.loc 2 700 0 discriminator 1
 599 0010 4804     		lsl	r0, r1, #17
 600 0012 06D4     		bmi	.L56
 702:.\Generated_Source\PSoC4/uart_0.c ****         {
 703:.\Generated_Source\PSoC4/uart_0.c ****             /* Toggle EC_AM before NACK generation */
ARM GAS  C:\Users\kevin\AppData\Local\Temp\ccrZUpt9.s 			page 27


 704:.\Generated_Source\PSoC4/uart_0.c ****             UART_0_CTRL_REG &= ~UART_0_CTRL_EC_AM_MODE;
 601              		.loc 2 704 0
 602 0014 1868     		ldr	r0, [r3]
 603 0016 0749     		ldr	r1, .L60+8
 604 0018 0140     		and	r1, r0
 605 001a 1960     		str	r1, [r3]
 705:.\Generated_Source\PSoC4/uart_0.c ****             UART_0_CTRL_REG |=  UART_0_CTRL_EC_AM_MODE;
 606              		.loc 2 705 0
 607 001c 1968     		ldr	r1, [r3]
 608 001e 0A43     		orr	r2, r1
 609 0020 1A60     		str	r2, [r3]
 610              	.L56:
 706:.\Generated_Source\PSoC4/uart_0.c ****         }
 707:.\Generated_Source\PSoC4/uart_0.c **** 
 708:.\Generated_Source\PSoC4/uart_0.c ****         UART_0_I2C_SLAVE_CMD_REG = UART_0_I2C_SLAVE_CMD_S_NACK;
 611              		.loc 2 708 0
 612 0022 054B     		ldr	r3, .L60+12
 613 0024 0222     		mov	r2, #2
 614 0026 1A60     		str	r2, [r3]
 709:.\Generated_Source\PSoC4/uart_0.c ****     }
 615              		.loc 2 709 0
 616              		@ sp needed
 617 0028 7047     		bx	lr
 618              	.L61:
 619 002a C046     		.align	2
 620              	.L60:
 621 002c 00000640 		.word	1074135040
 622 0030 60000640 		.word	1074135136
 623 0034 FFFEFFFF 		.word	-257
 624 0038 6C000640 		.word	1074135148
 625              		.cfi_endproc
 626              	.LFE42:
 627              		.size	UART_0_I2CSlaveNackGeneration, .-UART_0_I2CSlaveNackGeneration
 628              		.section	.text.UART_1_Init,"ax",%progbits
 629              		.align	1
 630              		.global	UART_1_Init
 631              		.code	16
 632              		.thumb_func
 633              		.type	UART_1_Init, %function
 634              	UART_1_Init:
 635              	.LFB43:
 636              		.file 3 ".\\Generated_Source\\PSoC4/uart_1.c"
   1:.\Generated_Source\PSoC4/uart_1.c **** /*******************************************************************************
   2:.\Generated_Source\PSoC4/uart_1.c **** * File Name: UART_1.c
   3:.\Generated_Source\PSoC4/uart_1.c **** * Version 2.0
   4:.\Generated_Source\PSoC4/uart_1.c **** *
   5:.\Generated_Source\PSoC4/uart_1.c **** * Description:
   6:.\Generated_Source\PSoC4/uart_1.c **** *  This file provides the source code to the API for the SCB Component.
   7:.\Generated_Source\PSoC4/uart_1.c **** *
   8:.\Generated_Source\PSoC4/uart_1.c **** * Note:
   9:.\Generated_Source\PSoC4/uart_1.c **** *
  10:.\Generated_Source\PSoC4/uart_1.c **** *******************************************************************************
  11:.\Generated_Source\PSoC4/uart_1.c **** * Copyright 2013-2014, Cypress Semiconductor Corporation.  All rights reserved.
  12:.\Generated_Source\PSoC4/uart_1.c **** * You may use this file only in accordance with the license, terms, conditions,
  13:.\Generated_Source\PSoC4/uart_1.c **** * disclaimers, and limitations in the end user license agreement accompanying
  14:.\Generated_Source\PSoC4/uart_1.c **** * the software package with which this file was provided.
  15:.\Generated_Source\PSoC4/uart_1.c **** *******************************************************************************/
ARM GAS  C:\Users\kevin\AppData\Local\Temp\ccrZUpt9.s 			page 28


  16:.\Generated_Source\PSoC4/uart_1.c **** 
  17:.\Generated_Source\PSoC4/uart_1.c **** #include "UART_1_PVT.h"
  18:.\Generated_Source\PSoC4/uart_1.c **** 
  19:.\Generated_Source\PSoC4/uart_1.c **** #if(UART_1_SCB_MODE_I2C_INC)
  20:.\Generated_Source\PSoC4/uart_1.c ****     #include "UART_1_I2C_PVT.h"
  21:.\Generated_Source\PSoC4/uart_1.c **** #endif /* (UART_1_SCB_MODE_I2C_INC) */
  22:.\Generated_Source\PSoC4/uart_1.c **** 
  23:.\Generated_Source\PSoC4/uart_1.c **** #if(UART_1_SCB_MODE_EZI2C_INC)
  24:.\Generated_Source\PSoC4/uart_1.c ****     #include "UART_1_EZI2C_PVT.h"
  25:.\Generated_Source\PSoC4/uart_1.c **** #endif /* (UART_1_SCB_MODE_EZI2C_INC) */
  26:.\Generated_Source\PSoC4/uart_1.c **** 
  27:.\Generated_Source\PSoC4/uart_1.c **** #if(UART_1_SCB_MODE_SPI_INC || UART_1_SCB_MODE_UART_INC)
  28:.\Generated_Source\PSoC4/uart_1.c ****     #include "UART_1_SPI_UART_PVT.h"
  29:.\Generated_Source\PSoC4/uart_1.c **** #endif /* (UART_1_SCB_MODE_SPI_INC || UART_1_SCB_MODE_UART_INC) */
  30:.\Generated_Source\PSoC4/uart_1.c **** 
  31:.\Generated_Source\PSoC4/uart_1.c **** 
  32:.\Generated_Source\PSoC4/uart_1.c **** /***************************************
  33:.\Generated_Source\PSoC4/uart_1.c **** *    Run Time Configuration Vars
  34:.\Generated_Source\PSoC4/uart_1.c **** ***************************************/
  35:.\Generated_Source\PSoC4/uart_1.c **** 
  36:.\Generated_Source\PSoC4/uart_1.c **** /* Stores internal component configuration for Unconfigured mode */
  37:.\Generated_Source\PSoC4/uart_1.c **** #if(UART_1_SCB_MODE_UNCONFIG_CONST_CFG)
  38:.\Generated_Source\PSoC4/uart_1.c ****     /* Common configuration variables */
  39:.\Generated_Source\PSoC4/uart_1.c ****     uint8 UART_1_scbMode = UART_1_SCB_MODE_UNCONFIG;
  40:.\Generated_Source\PSoC4/uart_1.c ****     uint8 UART_1_scbEnableWake;
  41:.\Generated_Source\PSoC4/uart_1.c ****     uint8 UART_1_scbEnableIntr;
  42:.\Generated_Source\PSoC4/uart_1.c **** 
  43:.\Generated_Source\PSoC4/uart_1.c ****     /* I2C configuration variables */
  44:.\Generated_Source\PSoC4/uart_1.c ****     uint8 UART_1_mode;
  45:.\Generated_Source\PSoC4/uart_1.c ****     uint8 UART_1_acceptAddr;
  46:.\Generated_Source\PSoC4/uart_1.c **** 
  47:.\Generated_Source\PSoC4/uart_1.c ****     /* SPI/UART configuration variables */
  48:.\Generated_Source\PSoC4/uart_1.c ****     volatile uint8 * UART_1_rxBuffer;
  49:.\Generated_Source\PSoC4/uart_1.c ****     uint8  UART_1_rxDataBits;
  50:.\Generated_Source\PSoC4/uart_1.c ****     uint32 UART_1_rxBufferSize;
  51:.\Generated_Source\PSoC4/uart_1.c **** 
  52:.\Generated_Source\PSoC4/uart_1.c ****     volatile uint8 * UART_1_txBuffer;
  53:.\Generated_Source\PSoC4/uart_1.c ****     uint8  UART_1_txDataBits;
  54:.\Generated_Source\PSoC4/uart_1.c ****     uint32 UART_1_txBufferSize;
  55:.\Generated_Source\PSoC4/uart_1.c **** 
  56:.\Generated_Source\PSoC4/uart_1.c ****     /* EZI2C configuration variables */
  57:.\Generated_Source\PSoC4/uart_1.c ****     uint8 UART_1_numberOfAddr;
  58:.\Generated_Source\PSoC4/uart_1.c ****     uint8 UART_1_subAddrSize;
  59:.\Generated_Source\PSoC4/uart_1.c **** #endif /* (UART_1_SCB_MODE_UNCONFIG_CONST_CFG) */
  60:.\Generated_Source\PSoC4/uart_1.c **** 
  61:.\Generated_Source\PSoC4/uart_1.c **** 
  62:.\Generated_Source\PSoC4/uart_1.c **** /***************************************
  63:.\Generated_Source\PSoC4/uart_1.c **** *     Common SCB Vars
  64:.\Generated_Source\PSoC4/uart_1.c **** ***************************************/
  65:.\Generated_Source\PSoC4/uart_1.c **** 
  66:.\Generated_Source\PSoC4/uart_1.c **** uint8 UART_1_initVar = 0u;
  67:.\Generated_Source\PSoC4/uart_1.c **** 
  68:.\Generated_Source\PSoC4/uart_1.c **** #if !defined (CY_REMOVE_UART_1_CUSTOM_INTR_HANDLER)
  69:.\Generated_Source\PSoC4/uart_1.c ****     cyisraddress UART_1_customIntrHandler = NULL;
  70:.\Generated_Source\PSoC4/uart_1.c **** #endif /* !defined (CY_REMOVE_UART_1_CUSTOM_INTR_HANDLER) */
  71:.\Generated_Source\PSoC4/uart_1.c **** 
  72:.\Generated_Source\PSoC4/uart_1.c **** 
ARM GAS  C:\Users\kevin\AppData\Local\Temp\ccrZUpt9.s 			page 29


  73:.\Generated_Source\PSoC4/uart_1.c **** /***************************************
  74:.\Generated_Source\PSoC4/uart_1.c **** *    Private Function Prototypes
  75:.\Generated_Source\PSoC4/uart_1.c **** ***************************************/
  76:.\Generated_Source\PSoC4/uart_1.c **** 
  77:.\Generated_Source\PSoC4/uart_1.c **** static void UART_1_ScbEnableIntr(void);
  78:.\Generated_Source\PSoC4/uart_1.c **** static void UART_1_ScbModeStop(void);
  79:.\Generated_Source\PSoC4/uart_1.c **** 
  80:.\Generated_Source\PSoC4/uart_1.c **** 
  81:.\Generated_Source\PSoC4/uart_1.c **** /*******************************************************************************
  82:.\Generated_Source\PSoC4/uart_1.c **** * Function Name: UART_1_Init
  83:.\Generated_Source\PSoC4/uart_1.c **** ********************************************************************************
  84:.\Generated_Source\PSoC4/uart_1.c **** *
  85:.\Generated_Source\PSoC4/uart_1.c **** * Summary:
  86:.\Generated_Source\PSoC4/uart_1.c **** *  Initializes the SCB component to operate in one of the selected
  87:.\Generated_Source\PSoC4/uart_1.c **** *  configurations: I2C, SPI, UART or EZI2C.
  88:.\Generated_Source\PSoC4/uart_1.c **** *  When the configuration is set to "Unconfigured SCB", this function does
  89:.\Generated_Source\PSoC4/uart_1.c **** *  not do any initialization. Use mode-specific initialization APIs instead:
  90:.\Generated_Source\PSoC4/uart_1.c **** *  SCB_I2CInit, SCB_SpiInit, SCB_UartInit or SCB_EzI2CInit.
  91:.\Generated_Source\PSoC4/uart_1.c **** *
  92:.\Generated_Source\PSoC4/uart_1.c **** * Parameters:
  93:.\Generated_Source\PSoC4/uart_1.c **** *  None
  94:.\Generated_Source\PSoC4/uart_1.c **** *
  95:.\Generated_Source\PSoC4/uart_1.c **** * Return:
  96:.\Generated_Source\PSoC4/uart_1.c **** *  None
  97:.\Generated_Source\PSoC4/uart_1.c **** *
  98:.\Generated_Source\PSoC4/uart_1.c **** *******************************************************************************/
  99:.\Generated_Source\PSoC4/uart_1.c **** void UART_1_Init(void)
 100:.\Generated_Source\PSoC4/uart_1.c **** {
 637              		.loc 3 100 0
 638              		.cfi_startproc
 639 0000 08B5     		push	{r3, lr}
 640              		.cfi_def_cfa_offset 8
 641              		.cfi_offset 3, -8
 642              		.cfi_offset 14, -4
 101:.\Generated_Source\PSoC4/uart_1.c **** #if(UART_1_SCB_MODE_UNCONFIG_CONST_CFG)
 102:.\Generated_Source\PSoC4/uart_1.c ****     if(UART_1_SCB_MODE_UNCONFIG_RUNTM_CFG)
 103:.\Generated_Source\PSoC4/uart_1.c ****     {
 104:.\Generated_Source\PSoC4/uart_1.c ****         UART_1_initVar = 0u;
 105:.\Generated_Source\PSoC4/uart_1.c ****     }
 106:.\Generated_Source\PSoC4/uart_1.c ****     else
 107:.\Generated_Source\PSoC4/uart_1.c ****     {
 108:.\Generated_Source\PSoC4/uart_1.c ****         /* Initialization was done before this function call */
 109:.\Generated_Source\PSoC4/uart_1.c ****     }
 110:.\Generated_Source\PSoC4/uart_1.c **** 
 111:.\Generated_Source\PSoC4/uart_1.c **** #elif(UART_1_SCB_MODE_I2C_CONST_CFG)
 112:.\Generated_Source\PSoC4/uart_1.c ****     UART_1_I2CInit();
 113:.\Generated_Source\PSoC4/uart_1.c **** 
 114:.\Generated_Source\PSoC4/uart_1.c **** #elif(UART_1_SCB_MODE_SPI_CONST_CFG)
 115:.\Generated_Source\PSoC4/uart_1.c ****     UART_1_SpiInit();
 116:.\Generated_Source\PSoC4/uart_1.c **** 
 117:.\Generated_Source\PSoC4/uart_1.c **** #elif(UART_1_SCB_MODE_UART_CONST_CFG)
 118:.\Generated_Source\PSoC4/uart_1.c ****     UART_1_UartInit();
 643              		.loc 3 118 0
 644 0002 FFF7FEFF 		bl	UART_1_UartInit
 645              	.LVL37:
 119:.\Generated_Source\PSoC4/uart_1.c **** 
 120:.\Generated_Source\PSoC4/uart_1.c **** #elif(UART_1_SCB_MODE_EZI2C_CONST_CFG)
ARM GAS  C:\Users\kevin\AppData\Local\Temp\ccrZUpt9.s 			page 30


 121:.\Generated_Source\PSoC4/uart_1.c ****     UART_1_EzI2CInit();
 122:.\Generated_Source\PSoC4/uart_1.c **** 
 123:.\Generated_Source\PSoC4/uart_1.c **** #endif /* (UART_1_SCB_MODE_UNCONFIG_CONST_CFG) */
 124:.\Generated_Source\PSoC4/uart_1.c **** }
 646              		.loc 3 124 0
 647              		@ sp needed
 648 0006 08BD     		pop	{r3, pc}
 649              		.cfi_endproc
 650              	.LFE43:
 651              		.size	UART_1_Init, .-UART_1_Init
 652              		.section	.text.UART_1_Enable,"ax",%progbits
 653              		.align	1
 654              		.global	UART_1_Enable
 655              		.code	16
 656              		.thumb_func
 657              		.type	UART_1_Enable, %function
 658              	UART_1_Enable:
 659              	.LFB44:
 125:.\Generated_Source\PSoC4/uart_1.c **** 
 126:.\Generated_Source\PSoC4/uart_1.c **** 
 127:.\Generated_Source\PSoC4/uart_1.c **** /*******************************************************************************
 128:.\Generated_Source\PSoC4/uart_1.c **** * Function Name: UART_1_Enable
 129:.\Generated_Source\PSoC4/uart_1.c **** ********************************************************************************
 130:.\Generated_Source\PSoC4/uart_1.c **** *
 131:.\Generated_Source\PSoC4/uart_1.c **** * Summary:
 132:.\Generated_Source\PSoC4/uart_1.c **** *  Enables the SCB component operation.
 133:.\Generated_Source\PSoC4/uart_1.c **** *  The SCB configuration should be not changed when the component is enabled.
 134:.\Generated_Source\PSoC4/uart_1.c **** *  Any configuration changes should be made after disabling the component.
 135:.\Generated_Source\PSoC4/uart_1.c **** *
 136:.\Generated_Source\PSoC4/uart_1.c **** * Parameters:
 137:.\Generated_Source\PSoC4/uart_1.c **** *  None
 138:.\Generated_Source\PSoC4/uart_1.c **** *
 139:.\Generated_Source\PSoC4/uart_1.c **** * Return:
 140:.\Generated_Source\PSoC4/uart_1.c **** *  None
 141:.\Generated_Source\PSoC4/uart_1.c **** *
 142:.\Generated_Source\PSoC4/uart_1.c **** *******************************************************************************/
 143:.\Generated_Source\PSoC4/uart_1.c **** void UART_1_Enable(void)
 144:.\Generated_Source\PSoC4/uart_1.c **** {
 660              		.loc 3 144 0
 661              		.cfi_startproc
 662 0000 08B5     		push	{r3, lr}
 663              		.cfi_def_cfa_offset 8
 664              		.cfi_offset 3, -8
 665              		.cfi_offset 14, -4
 145:.\Generated_Source\PSoC4/uart_1.c **** #if(UART_1_SCB_MODE_UNCONFIG_CONST_CFG)
 146:.\Generated_Source\PSoC4/uart_1.c ****     /* Enable SCB block, only if it is already configured */
 147:.\Generated_Source\PSoC4/uart_1.c ****     if(!UART_1_SCB_MODE_UNCONFIG_RUNTM_CFG)
 148:.\Generated_Source\PSoC4/uart_1.c ****     {
 149:.\Generated_Source\PSoC4/uart_1.c ****         UART_1_CTRL_REG |= UART_1_CTRL_ENABLED;
 150:.\Generated_Source\PSoC4/uart_1.c **** 
 151:.\Generated_Source\PSoC4/uart_1.c ****         UART_1_ScbEnableIntr();
 152:.\Generated_Source\PSoC4/uart_1.c ****     }
 153:.\Generated_Source\PSoC4/uart_1.c **** #else
 154:.\Generated_Source\PSoC4/uart_1.c ****     UART_1_CTRL_REG |= UART_1_CTRL_ENABLED;
 666              		.loc 3 154 0
 667 0002 054B     		ldr	r3, .L64
 668 0004 8022     		mov	r2, #128
ARM GAS  C:\Users\kevin\AppData\Local\Temp\ccrZUpt9.s 			page 31


 669 0006 1968     		ldr	r1, [r3]
 670 0008 1206     		lsl	r2, r2, #24
 671 000a 0A43     		orr	r2, r1
 672 000c 1A60     		str	r2, [r3]
 673              	.LBB38:
 674              	.LBB39:
 155:.\Generated_Source\PSoC4/uart_1.c **** 
 156:.\Generated_Source\PSoC4/uart_1.c ****     UART_1_ScbEnableIntr();
 157:.\Generated_Source\PSoC4/uart_1.c **** #endif /* (UART_1_SCB_MODE_UNCONFIG_CONST_CFG) */
 158:.\Generated_Source\PSoC4/uart_1.c **** }
 159:.\Generated_Source\PSoC4/uart_1.c **** 
 160:.\Generated_Source\PSoC4/uart_1.c **** 
 161:.\Generated_Source\PSoC4/uart_1.c **** /*******************************************************************************
 162:.\Generated_Source\PSoC4/uart_1.c **** * Function Name: UART_1_Start
 163:.\Generated_Source\PSoC4/uart_1.c **** ********************************************************************************
 164:.\Generated_Source\PSoC4/uart_1.c **** *
 165:.\Generated_Source\PSoC4/uart_1.c **** * Summary:
 166:.\Generated_Source\PSoC4/uart_1.c **** *  Invokes SCB_Init() and SCB_Enable().
 167:.\Generated_Source\PSoC4/uart_1.c **** *  After this function call, the component is enabled and ready for operation.
 168:.\Generated_Source\PSoC4/uart_1.c **** *  When configuration is set to "Unconfigured SCB", the component must first be
 169:.\Generated_Source\PSoC4/uart_1.c **** *  initialized to operate in one of the following configurations: I2C, SPI, UART
 170:.\Generated_Source\PSoC4/uart_1.c **** *  or EZ I2C. Otherwise this function does not enable the component.
 171:.\Generated_Source\PSoC4/uart_1.c **** *
 172:.\Generated_Source\PSoC4/uart_1.c **** * Parameters:
 173:.\Generated_Source\PSoC4/uart_1.c **** *  None
 174:.\Generated_Source\PSoC4/uart_1.c **** *
 175:.\Generated_Source\PSoC4/uart_1.c **** * Return:
 176:.\Generated_Source\PSoC4/uart_1.c **** *  None
 177:.\Generated_Source\PSoC4/uart_1.c **** *
 178:.\Generated_Source\PSoC4/uart_1.c **** * Global variables:
 179:.\Generated_Source\PSoC4/uart_1.c **** *  UART_1_initVar - used to check initial configuration, modified
 180:.\Generated_Source\PSoC4/uart_1.c **** *  on first function call.
 181:.\Generated_Source\PSoC4/uart_1.c **** *
 182:.\Generated_Source\PSoC4/uart_1.c **** *******************************************************************************/
 183:.\Generated_Source\PSoC4/uart_1.c **** void UART_1_Start(void)
 184:.\Generated_Source\PSoC4/uart_1.c **** {
 185:.\Generated_Source\PSoC4/uart_1.c ****     if(0u == UART_1_initVar)
 186:.\Generated_Source\PSoC4/uart_1.c ****     {
 187:.\Generated_Source\PSoC4/uart_1.c ****         UART_1_Init();
 188:.\Generated_Source\PSoC4/uart_1.c ****         UART_1_initVar = 1u; /* Component was initialized */
 189:.\Generated_Source\PSoC4/uart_1.c ****     }
 190:.\Generated_Source\PSoC4/uart_1.c **** 
 191:.\Generated_Source\PSoC4/uart_1.c ****     UART_1_Enable();
 192:.\Generated_Source\PSoC4/uart_1.c **** }
 193:.\Generated_Source\PSoC4/uart_1.c **** 
 194:.\Generated_Source\PSoC4/uart_1.c **** 
 195:.\Generated_Source\PSoC4/uart_1.c **** /*******************************************************************************
 196:.\Generated_Source\PSoC4/uart_1.c **** * Function Name: UART_1_Stop
 197:.\Generated_Source\PSoC4/uart_1.c **** ********************************************************************************
 198:.\Generated_Source\PSoC4/uart_1.c **** *
 199:.\Generated_Source\PSoC4/uart_1.c **** * Summary:
 200:.\Generated_Source\PSoC4/uart_1.c **** *  Disables the SCB component and its interrupt.
 201:.\Generated_Source\PSoC4/uart_1.c **** *
 202:.\Generated_Source\PSoC4/uart_1.c **** * Parameters:
 203:.\Generated_Source\PSoC4/uart_1.c **** *  None
 204:.\Generated_Source\PSoC4/uart_1.c **** *
 205:.\Generated_Source\PSoC4/uart_1.c **** * Return:
ARM GAS  C:\Users\kevin\AppData\Local\Temp\ccrZUpt9.s 			page 32


 206:.\Generated_Source\PSoC4/uart_1.c **** *  None
 207:.\Generated_Source\PSoC4/uart_1.c **** *
 208:.\Generated_Source\PSoC4/uart_1.c **** *******************************************************************************/
 209:.\Generated_Source\PSoC4/uart_1.c **** void UART_1_Stop(void)
 210:.\Generated_Source\PSoC4/uart_1.c **** {
 211:.\Generated_Source\PSoC4/uart_1.c **** #if(UART_1_SCB_IRQ_INTERNAL)
 212:.\Generated_Source\PSoC4/uart_1.c ****     UART_1_DisableInt();
 213:.\Generated_Source\PSoC4/uart_1.c **** #endif /* (UART_1_SCB_IRQ_INTERNAL) */
 214:.\Generated_Source\PSoC4/uart_1.c **** 
 215:.\Generated_Source\PSoC4/uart_1.c ****     UART_1_CTRL_REG &= (uint32) ~UART_1_CTRL_ENABLED;  /* Disable scb IP */
 216:.\Generated_Source\PSoC4/uart_1.c **** 
 217:.\Generated_Source\PSoC4/uart_1.c **** #if(UART_1_SCB_IRQ_INTERNAL)
 218:.\Generated_Source\PSoC4/uart_1.c ****     UART_1_ClearPendingInt();
 219:.\Generated_Source\PSoC4/uart_1.c **** #endif /* (UART_1_SCB_IRQ_INTERNAL) */
 220:.\Generated_Source\PSoC4/uart_1.c **** 
 221:.\Generated_Source\PSoC4/uart_1.c ****     UART_1_ScbModeStop(); /* Calls scbMode specific Stop function */
 222:.\Generated_Source\PSoC4/uart_1.c **** }
 223:.\Generated_Source\PSoC4/uart_1.c **** 
 224:.\Generated_Source\PSoC4/uart_1.c **** 
 225:.\Generated_Source\PSoC4/uart_1.c **** /*******************************************************************************
 226:.\Generated_Source\PSoC4/uart_1.c **** * Function Name: UART_1_SetRxFifoLevel
 227:.\Generated_Source\PSoC4/uart_1.c **** ********************************************************************************
 228:.\Generated_Source\PSoC4/uart_1.c **** *
 229:.\Generated_Source\PSoC4/uart_1.c **** * Summary:
 230:.\Generated_Source\PSoC4/uart_1.c **** *  Sets level in the RX FIFO to generate a RX level interrupt.
 231:.\Generated_Source\PSoC4/uart_1.c **** *  When the RX FIFO has more entries than the RX FIFO level an RX level
 232:.\Generated_Source\PSoC4/uart_1.c **** *  interrupt request is generated.
 233:.\Generated_Source\PSoC4/uart_1.c **** *
 234:.\Generated_Source\PSoC4/uart_1.c **** * Parameters:
 235:.\Generated_Source\PSoC4/uart_1.c **** *  level: Level in the RX FIFO to generate RX level interrupt.
 236:.\Generated_Source\PSoC4/uart_1.c **** *         The range of valid level values is between 0 and RX FIFO depth - 1.
 237:.\Generated_Source\PSoC4/uart_1.c **** *
 238:.\Generated_Source\PSoC4/uart_1.c **** * Return:
 239:.\Generated_Source\PSoC4/uart_1.c **** *  None
 240:.\Generated_Source\PSoC4/uart_1.c **** *
 241:.\Generated_Source\PSoC4/uart_1.c **** *******************************************************************************/
 242:.\Generated_Source\PSoC4/uart_1.c **** void UART_1_SetRxFifoLevel(uint32 level)
 243:.\Generated_Source\PSoC4/uart_1.c **** {
 244:.\Generated_Source\PSoC4/uart_1.c ****     uint32 rxFifoCtrl;
 245:.\Generated_Source\PSoC4/uart_1.c **** 
 246:.\Generated_Source\PSoC4/uart_1.c ****     rxFifoCtrl = UART_1_RX_FIFO_CTRL_REG;
 247:.\Generated_Source\PSoC4/uart_1.c **** 
 248:.\Generated_Source\PSoC4/uart_1.c ****     rxFifoCtrl &= ((uint32) ~UART_1_RX_FIFO_CTRL_TRIGGER_LEVEL_MASK); /* Clear level mask bits */
 249:.\Generated_Source\PSoC4/uart_1.c ****     rxFifoCtrl |= ((uint32) (UART_1_RX_FIFO_CTRL_TRIGGER_LEVEL_MASK & level));
 250:.\Generated_Source\PSoC4/uart_1.c **** 
 251:.\Generated_Source\PSoC4/uart_1.c ****     UART_1_RX_FIFO_CTRL_REG = rxFifoCtrl;
 252:.\Generated_Source\PSoC4/uart_1.c **** }
 253:.\Generated_Source\PSoC4/uart_1.c **** 
 254:.\Generated_Source\PSoC4/uart_1.c **** 
 255:.\Generated_Source\PSoC4/uart_1.c **** /*******************************************************************************
 256:.\Generated_Source\PSoC4/uart_1.c **** * Function Name: UART_1_SetTxFifoLevel
 257:.\Generated_Source\PSoC4/uart_1.c **** ********************************************************************************
 258:.\Generated_Source\PSoC4/uart_1.c **** *
 259:.\Generated_Source\PSoC4/uart_1.c **** * Summary:
 260:.\Generated_Source\PSoC4/uart_1.c **** *  Sets level in the TX FIFO to generate a TX level interrupt.
 261:.\Generated_Source\PSoC4/uart_1.c **** *  When the TX FIFO has more entries than the TX FIFO level an TX level
 262:.\Generated_Source\PSoC4/uart_1.c **** *  interrupt request is generated.
ARM GAS  C:\Users\kevin\AppData\Local\Temp\ccrZUpt9.s 			page 33


 263:.\Generated_Source\PSoC4/uart_1.c **** *
 264:.\Generated_Source\PSoC4/uart_1.c **** * Parameters:
 265:.\Generated_Source\PSoC4/uart_1.c **** *  level: Level in the TX FIFO to generate TX level interrupt.
 266:.\Generated_Source\PSoC4/uart_1.c **** *         The range of valid level values is between 0 and TX FIFO depth - 1.
 267:.\Generated_Source\PSoC4/uart_1.c **** *
 268:.\Generated_Source\PSoC4/uart_1.c **** * Return:
 269:.\Generated_Source\PSoC4/uart_1.c **** *  None
 270:.\Generated_Source\PSoC4/uart_1.c **** *
 271:.\Generated_Source\PSoC4/uart_1.c **** *******************************************************************************/
 272:.\Generated_Source\PSoC4/uart_1.c **** void UART_1_SetTxFifoLevel(uint32 level)
 273:.\Generated_Source\PSoC4/uart_1.c **** {
 274:.\Generated_Source\PSoC4/uart_1.c ****     uint32 txFifoCtrl;
 275:.\Generated_Source\PSoC4/uart_1.c **** 
 276:.\Generated_Source\PSoC4/uart_1.c ****     txFifoCtrl = UART_1_TX_FIFO_CTRL_REG;
 277:.\Generated_Source\PSoC4/uart_1.c **** 
 278:.\Generated_Source\PSoC4/uart_1.c ****     txFifoCtrl &= ((uint32) ~UART_1_TX_FIFO_CTRL_TRIGGER_LEVEL_MASK); /* Clear level mask bits */
 279:.\Generated_Source\PSoC4/uart_1.c ****     txFifoCtrl |= ((uint32) (UART_1_TX_FIFO_CTRL_TRIGGER_LEVEL_MASK & level));
 280:.\Generated_Source\PSoC4/uart_1.c **** 
 281:.\Generated_Source\PSoC4/uart_1.c ****     UART_1_TX_FIFO_CTRL_REG = txFifoCtrl;
 282:.\Generated_Source\PSoC4/uart_1.c **** }
 283:.\Generated_Source\PSoC4/uart_1.c **** 
 284:.\Generated_Source\PSoC4/uart_1.c **** 
 285:.\Generated_Source\PSoC4/uart_1.c **** /*******************************************************************************
 286:.\Generated_Source\PSoC4/uart_1.c **** * Function Name: UART_1_SetCustomInterruptHandler
 287:.\Generated_Source\PSoC4/uart_1.c **** ********************************************************************************
 288:.\Generated_Source\PSoC4/uart_1.c **** *
 289:.\Generated_Source\PSoC4/uart_1.c **** * Summary:
 290:.\Generated_Source\PSoC4/uart_1.c **** *  Registers a function to be called by the internal interrupt handler.
 291:.\Generated_Source\PSoC4/uart_1.c **** *  First the function that is registered is called, then the internal interrupt
 292:.\Generated_Source\PSoC4/uart_1.c **** *  handler performs any operation such as software buffer management functions
 293:.\Generated_Source\PSoC4/uart_1.c **** *  before the interrupt returns.  It is the user's responsibility not to break
 294:.\Generated_Source\PSoC4/uart_1.c **** *  the software buffer operations. Only one custom handler is supported, which
 295:.\Generated_Source\PSoC4/uart_1.c **** *  is the function provided by the most recent call.
 296:.\Generated_Source\PSoC4/uart_1.c **** *  At the initialization time no custom handler is registered.
 297:.\Generated_Source\PSoC4/uart_1.c **** *
 298:.\Generated_Source\PSoC4/uart_1.c **** * Parameters:
 299:.\Generated_Source\PSoC4/uart_1.c **** *  func: Pointer to the function to register.
 300:.\Generated_Source\PSoC4/uart_1.c **** *        The value NULL indicates to remove the current custom interrupt
 301:.\Generated_Source\PSoC4/uart_1.c **** *        handler.
 302:.\Generated_Source\PSoC4/uart_1.c **** *
 303:.\Generated_Source\PSoC4/uart_1.c **** * Return:
 304:.\Generated_Source\PSoC4/uart_1.c **** *  None
 305:.\Generated_Source\PSoC4/uart_1.c **** *
 306:.\Generated_Source\PSoC4/uart_1.c **** *******************************************************************************/
 307:.\Generated_Source\PSoC4/uart_1.c **** void UART_1_SetCustomInterruptHandler(cyisraddress func)
 308:.\Generated_Source\PSoC4/uart_1.c **** {
 309:.\Generated_Source\PSoC4/uart_1.c **** #if !defined (CY_REMOVE_UART_1_CUSTOM_INTR_HANDLER)
 310:.\Generated_Source\PSoC4/uart_1.c ****     UART_1_customIntrHandler = func; /* Register interrupt handler */
 311:.\Generated_Source\PSoC4/uart_1.c **** #else
 312:.\Generated_Source\PSoC4/uart_1.c ****     if(NULL != func)
 313:.\Generated_Source\PSoC4/uart_1.c ****     {
 314:.\Generated_Source\PSoC4/uart_1.c ****         /* Suppress compiler warning */
 315:.\Generated_Source\PSoC4/uart_1.c ****     }
 316:.\Generated_Source\PSoC4/uart_1.c **** #endif /* !defined (CY_REMOVE_UART_1_CUSTOM_INTR_HANDLER) */
 317:.\Generated_Source\PSoC4/uart_1.c **** }
 318:.\Generated_Source\PSoC4/uart_1.c **** 
 319:.\Generated_Source\PSoC4/uart_1.c **** 
ARM GAS  C:\Users\kevin\AppData\Local\Temp\ccrZUpt9.s 			page 34


 320:.\Generated_Source\PSoC4/uart_1.c **** /*******************************************************************************
 321:.\Generated_Source\PSoC4/uart_1.c **** * Function Name: UART_1_ScbModeEnableIntr
 322:.\Generated_Source\PSoC4/uart_1.c **** ********************************************************************************
 323:.\Generated_Source\PSoC4/uart_1.c **** *
 324:.\Generated_Source\PSoC4/uart_1.c **** * Summary:
 325:.\Generated_Source\PSoC4/uart_1.c **** *  Enables an interrupt for a specific mode.
 326:.\Generated_Source\PSoC4/uart_1.c **** *
 327:.\Generated_Source\PSoC4/uart_1.c **** * Parameters:
 328:.\Generated_Source\PSoC4/uart_1.c **** *  None
 329:.\Generated_Source\PSoC4/uart_1.c **** *
 330:.\Generated_Source\PSoC4/uart_1.c **** * Return:
 331:.\Generated_Source\PSoC4/uart_1.c **** *  None
 332:.\Generated_Source\PSoC4/uart_1.c **** *
 333:.\Generated_Source\PSoC4/uart_1.c **** *******************************************************************************/
 334:.\Generated_Source\PSoC4/uart_1.c **** static void UART_1_ScbEnableIntr(void)
 335:.\Generated_Source\PSoC4/uart_1.c **** {
 336:.\Generated_Source\PSoC4/uart_1.c **** #if(UART_1_SCB_IRQ_INTERNAL)
 337:.\Generated_Source\PSoC4/uart_1.c ****     #if(UART_1_SCB_MODE_UNCONFIG_CONST_CFG)
 338:.\Generated_Source\PSoC4/uart_1.c ****         /* Enable interrupt in NVIC */
 339:.\Generated_Source\PSoC4/uart_1.c ****         if(0u != UART_1_scbEnableIntr)
 340:.\Generated_Source\PSoC4/uart_1.c ****         {
 341:.\Generated_Source\PSoC4/uart_1.c ****             UART_1_EnableInt();
 342:.\Generated_Source\PSoC4/uart_1.c ****         }
 343:.\Generated_Source\PSoC4/uart_1.c ****     #else
 344:.\Generated_Source\PSoC4/uart_1.c ****         UART_1_EnableInt();
 675              		.loc 3 344 0
 676 000e 0B20     		mov	r0, #11
 677 0010 FFF7FEFF 		bl	CyIntEnable
 678              	.LVL38:
 679              	.LBE39:
 680              	.LBE38:
 158:.\Generated_Source\PSoC4/uart_1.c **** }
 681              		.loc 3 158 0
 682              		@ sp needed
 683 0014 08BD     		pop	{r3, pc}
 684              	.L65:
 685 0016 C046     		.align	2
 686              	.L64:
 687 0018 00000740 		.word	1074200576
 688              		.cfi_endproc
 689              	.LFE44:
 690              		.size	UART_1_Enable, .-UART_1_Enable
 691              		.section	.text.UART_1_Start,"ax",%progbits
 692              		.align	1
 693              		.global	UART_1_Start
 694              		.code	16
 695              		.thumb_func
 696              		.type	UART_1_Start, %function
 697              	UART_1_Start:
 698              	.LFB45:
 184:.\Generated_Source\PSoC4/uart_1.c **** {
 699              		.loc 3 184 0
 700              		.cfi_startproc
 701 0000 10B5     		push	{r4, lr}
 702              		.cfi_def_cfa_offset 8
 703              		.cfi_offset 4, -8
 704              		.cfi_offset 14, -4
ARM GAS  C:\Users\kevin\AppData\Local\Temp\ccrZUpt9.s 			page 35


 185:.\Generated_Source\PSoC4/uart_1.c ****     if(0u == UART_1_initVar)
 705              		.loc 3 185 0
 706 0002 054C     		ldr	r4, .L68
 707 0004 237A     		ldrb	r3, [r4, #8]
 708 0006 002B     		cmp	r3, #0
 709 0008 03D1     		bne	.L67
 710              	.LBB40:
 711              	.LBB41:
 118:.\Generated_Source\PSoC4/uart_1.c ****     UART_1_UartInit();
 712              		.loc 3 118 0
 713 000a FFF7FEFF 		bl	UART_1_UartInit
 714              	.LVL39:
 715              	.LBE41:
 716              	.LBE40:
 188:.\Generated_Source\PSoC4/uart_1.c ****         UART_1_initVar = 1u; /* Component was initialized */
 717              		.loc 3 188 0
 718 000e 0123     		mov	r3, #1
 719 0010 2372     		strb	r3, [r4, #8]
 720              	.L67:
 191:.\Generated_Source\PSoC4/uart_1.c ****     UART_1_Enable();
 721              		.loc 3 191 0
 722 0012 FFF7FEFF 		bl	UART_1_Enable
 723              	.LVL40:
 192:.\Generated_Source\PSoC4/uart_1.c **** }
 724              		.loc 3 192 0
 725              		@ sp needed
 726 0016 10BD     		pop	{r4, pc}
 727              	.L69:
 728              		.align	2
 729              	.L68:
 730 0018 00000000 		.word	.LANCHOR0
 731              		.cfi_endproc
 732              	.LFE45:
 733              		.size	UART_1_Start, .-UART_1_Start
 734              		.section	.text.UART_1_Stop,"ax",%progbits
 735              		.align	1
 736              		.global	UART_1_Stop
 737              		.code	16
 738              		.thumb_func
 739              		.type	UART_1_Stop, %function
 740              	UART_1_Stop:
 741              	.LFB46:
 210:.\Generated_Source\PSoC4/uart_1.c **** {
 742              		.loc 3 210 0
 743              		.cfi_startproc
 744 0000 08B5     		push	{r3, lr}
 745              		.cfi_def_cfa_offset 8
 746              		.cfi_offset 3, -8
 747              		.cfi_offset 14, -4
 212:.\Generated_Source\PSoC4/uart_1.c ****     UART_1_DisableInt();
 748              		.loc 3 212 0
 749 0002 0B20     		mov	r0, #11
 750 0004 FFF7FEFF 		bl	CyIntDisable
 751              	.LVL41:
 215:.\Generated_Source\PSoC4/uart_1.c ****     UART_1_CTRL_REG &= (uint32) ~UART_1_CTRL_ENABLED;  /* Disable scb IP */
 752              		.loc 3 215 0
 753 0008 044B     		ldr	r3, .L71
ARM GAS  C:\Users\kevin\AppData\Local\Temp\ccrZUpt9.s 			page 36


 218:.\Generated_Source\PSoC4/uart_1.c ****     UART_1_ClearPendingInt();
 754              		.loc 3 218 0
 755 000a 0B20     		mov	r0, #11
 215:.\Generated_Source\PSoC4/uart_1.c ****     UART_1_CTRL_REG &= (uint32) ~UART_1_CTRL_ENABLED;  /* Disable scb IP */
 756              		.loc 3 215 0
 757 000c 1A68     		ldr	r2, [r3]
 222:.\Generated_Source\PSoC4/uart_1.c **** }
 758              		.loc 3 222 0
 759              		@ sp needed
 215:.\Generated_Source\PSoC4/uart_1.c ****     UART_1_CTRL_REG &= (uint32) ~UART_1_CTRL_ENABLED;  /* Disable scb IP */
 760              		.loc 3 215 0
 761 000e 5200     		lsl	r2, r2, #1
 762 0010 5208     		lsr	r2, r2, #1
 763 0012 1A60     		str	r2, [r3]
 218:.\Generated_Source\PSoC4/uart_1.c ****     UART_1_ClearPendingInt();
 764              		.loc 3 218 0
 765 0014 FFF7FEFF 		bl	CyIntClearPending
 766              	.LVL42:
 222:.\Generated_Source\PSoC4/uart_1.c **** }
 767              		.loc 3 222 0
 768 0018 08BD     		pop	{r3, pc}
 769              	.L72:
 770 001a C046     		.align	2
 771              	.L71:
 772 001c 00000740 		.word	1074200576
 773              		.cfi_endproc
 774              	.LFE46:
 775              		.size	UART_1_Stop, .-UART_1_Stop
 776              		.section	.text.UART_1_SetRxFifoLevel,"ax",%progbits
 777              		.align	1
 778              		.global	UART_1_SetRxFifoLevel
 779              		.code	16
 780              		.thumb_func
 781              		.type	UART_1_SetRxFifoLevel, %function
 782              	UART_1_SetRxFifoLevel:
 783              	.LFB47:
 243:.\Generated_Source\PSoC4/uart_1.c **** {
 784              		.loc 3 243 0
 785              		.cfi_startproc
 786              	.LVL43:
 246:.\Generated_Source\PSoC4/uart_1.c ****     rxFifoCtrl = UART_1_RX_FIFO_CTRL_REG;
 787              		.loc 3 246 0
 788 0000 034B     		ldr	r3, .L74
 248:.\Generated_Source\PSoC4/uart_1.c ****     rxFifoCtrl &= ((uint32) ~UART_1_RX_FIFO_CTRL_TRIGGER_LEVEL_MASK); /* Clear level mask bits */
 789              		.loc 3 248 0
 790 0002 0722     		mov	r2, #7
 246:.\Generated_Source\PSoC4/uart_1.c ****     rxFifoCtrl = UART_1_RX_FIFO_CTRL_REG;
 791              		.loc 3 246 0
 792 0004 1968     		ldr	r1, [r3]
 793              	.LVL44:
 252:.\Generated_Source\PSoC4/uart_1.c **** }
 794              		.loc 3 252 0
 795              		@ sp needed
 248:.\Generated_Source\PSoC4/uart_1.c ****     rxFifoCtrl &= ((uint32) ~UART_1_RX_FIFO_CTRL_TRIGGER_LEVEL_MASK); /* Clear level mask bits */
 796              		.loc 3 248 0
 797 0006 9143     		bic	r1, r2
 798              	.LVL45:
ARM GAS  C:\Users\kevin\AppData\Local\Temp\ccrZUpt9.s 			page 37


 249:.\Generated_Source\PSoC4/uart_1.c ****     rxFifoCtrl |= ((uint32) (UART_1_RX_FIFO_CTRL_TRIGGER_LEVEL_MASK & level));
 799              		.loc 3 249 0
 800 0008 0240     		and	r2, r0
 801 000a 0A43     		orr	r2, r1
 802              	.LVL46:
 251:.\Generated_Source\PSoC4/uart_1.c ****     UART_1_RX_FIFO_CTRL_REG = rxFifoCtrl;
 803              		.loc 3 251 0
 804 000c 1A60     		str	r2, [r3]
 252:.\Generated_Source\PSoC4/uart_1.c **** }
 805              		.loc 3 252 0
 806 000e 7047     		bx	lr
 807              	.L75:
 808              		.align	2
 809              	.L74:
 810 0010 04030740 		.word	1074201348
 811              		.cfi_endproc
 812              	.LFE47:
 813              		.size	UART_1_SetRxFifoLevel, .-UART_1_SetRxFifoLevel
 814              		.section	.text.UART_1_SetTxFifoLevel,"ax",%progbits
 815              		.align	1
 816              		.global	UART_1_SetTxFifoLevel
 817              		.code	16
 818              		.thumb_func
 819              		.type	UART_1_SetTxFifoLevel, %function
 820              	UART_1_SetTxFifoLevel:
 821              	.LFB48:
 273:.\Generated_Source\PSoC4/uart_1.c **** {
 822              		.loc 3 273 0
 823              		.cfi_startproc
 824              	.LVL47:
 276:.\Generated_Source\PSoC4/uart_1.c ****     txFifoCtrl = UART_1_TX_FIFO_CTRL_REG;
 825              		.loc 3 276 0
 826 0000 034B     		ldr	r3, .L77
 278:.\Generated_Source\PSoC4/uart_1.c ****     txFifoCtrl &= ((uint32) ~UART_1_TX_FIFO_CTRL_TRIGGER_LEVEL_MASK); /* Clear level mask bits */
 827              		.loc 3 278 0
 828 0002 0722     		mov	r2, #7
 276:.\Generated_Source\PSoC4/uart_1.c ****     txFifoCtrl = UART_1_TX_FIFO_CTRL_REG;
 829              		.loc 3 276 0
 830 0004 1968     		ldr	r1, [r3]
 831              	.LVL48:
 282:.\Generated_Source\PSoC4/uart_1.c **** }
 832              		.loc 3 282 0
 833              		@ sp needed
 278:.\Generated_Source\PSoC4/uart_1.c ****     txFifoCtrl &= ((uint32) ~UART_1_TX_FIFO_CTRL_TRIGGER_LEVEL_MASK); /* Clear level mask bits */
 834              		.loc 3 278 0
 835 0006 9143     		bic	r1, r2
 836              	.LVL49:
 279:.\Generated_Source\PSoC4/uart_1.c ****     txFifoCtrl |= ((uint32) (UART_1_TX_FIFO_CTRL_TRIGGER_LEVEL_MASK & level));
 837              		.loc 3 279 0
 838 0008 0240     		and	r2, r0
 839 000a 0A43     		orr	r2, r1
 840              	.LVL50:
 281:.\Generated_Source\PSoC4/uart_1.c ****     UART_1_TX_FIFO_CTRL_REG = txFifoCtrl;
 841              		.loc 3 281 0
 842 000c 1A60     		str	r2, [r3]
 282:.\Generated_Source\PSoC4/uart_1.c **** }
 843              		.loc 3 282 0
ARM GAS  C:\Users\kevin\AppData\Local\Temp\ccrZUpt9.s 			page 38


 844 000e 7047     		bx	lr
 845              	.L78:
 846              		.align	2
 847              	.L77:
 848 0010 04020740 		.word	1074201092
 849              		.cfi_endproc
 850              	.LFE48:
 851              		.size	UART_1_SetTxFifoLevel, .-UART_1_SetTxFifoLevel
 852              		.section	.text.UART_1_SetCustomInterruptHandler,"ax",%progbits
 853              		.align	1
 854              		.global	UART_1_SetCustomInterruptHandler
 855              		.code	16
 856              		.thumb_func
 857              		.type	UART_1_SetCustomInterruptHandler, %function
 858              	UART_1_SetCustomInterruptHandler:
 859              	.LFB49:
 308:.\Generated_Source\PSoC4/uart_1.c **** {
 860              		.loc 3 308 0
 861              		.cfi_startproc
 862              	.LVL51:
 310:.\Generated_Source\PSoC4/uart_1.c ****     UART_1_customIntrHandler = func; /* Register interrupt handler */
 863              		.loc 3 310 0
 864 0000 014B     		ldr	r3, .L80
 317:.\Generated_Source\PSoC4/uart_1.c **** }
 865              		.loc 3 317 0
 866              		@ sp needed
 310:.\Generated_Source\PSoC4/uart_1.c ****     UART_1_customIntrHandler = func; /* Register interrupt handler */
 867              		.loc 3 310 0
 868 0002 D860     		str	r0, [r3, #12]
 317:.\Generated_Source\PSoC4/uart_1.c **** }
 869              		.loc 3 317 0
 870 0004 7047     		bx	lr
 871              	.L81:
 872 0006 C046     		.align	2
 873              	.L80:
 874 0008 00000000 		.word	.LANCHOR0
 875              		.cfi_endproc
 876              	.LFE49:
 877              		.size	UART_1_SetCustomInterruptHandler, .-UART_1_SetCustomInterruptHandler
 878              		.section	.text.UART_1_I2CSlaveNackGeneration,"ax",%progbits
 879              		.align	1
 880              		.global	UART_1_I2CSlaveNackGeneration
 881              		.code	16
 882              		.thumb_func
 883              		.type	UART_1_I2CSlaveNackGeneration, %function
 884              	UART_1_I2CSlaveNackGeneration:
 885              	.LFB52:
 345:.\Generated_Source\PSoC4/uart_1.c **** 
 346:.\Generated_Source\PSoC4/uart_1.c ****     #endif /* (UART_1_SCB_MODE_UNCONFIG_CONST_CFG) */
 347:.\Generated_Source\PSoC4/uart_1.c **** #endif /* (UART_1_SCB_IRQ_INTERNAL) */
 348:.\Generated_Source\PSoC4/uart_1.c **** }
 349:.\Generated_Source\PSoC4/uart_1.c **** 
 350:.\Generated_Source\PSoC4/uart_1.c **** 
 351:.\Generated_Source\PSoC4/uart_1.c **** /*******************************************************************************
 352:.\Generated_Source\PSoC4/uart_1.c **** * Function Name: UART_1_ScbModeStop
 353:.\Generated_Source\PSoC4/uart_1.c **** ********************************************************************************
 354:.\Generated_Source\PSoC4/uart_1.c **** *
ARM GAS  C:\Users\kevin\AppData\Local\Temp\ccrZUpt9.s 			page 39


 355:.\Generated_Source\PSoC4/uart_1.c **** * Summary:
 356:.\Generated_Source\PSoC4/uart_1.c **** *  Calls the Stop function for a specific operation mode.
 357:.\Generated_Source\PSoC4/uart_1.c **** *
 358:.\Generated_Source\PSoC4/uart_1.c **** * Parameters:
 359:.\Generated_Source\PSoC4/uart_1.c **** *  None
 360:.\Generated_Source\PSoC4/uart_1.c **** *
 361:.\Generated_Source\PSoC4/uart_1.c **** * Return:
 362:.\Generated_Source\PSoC4/uart_1.c **** *  None
 363:.\Generated_Source\PSoC4/uart_1.c **** *
 364:.\Generated_Source\PSoC4/uart_1.c **** *******************************************************************************/
 365:.\Generated_Source\PSoC4/uart_1.c **** static void UART_1_ScbModeStop(void)
 366:.\Generated_Source\PSoC4/uart_1.c **** {
 367:.\Generated_Source\PSoC4/uart_1.c **** #if(UART_1_SCB_MODE_UNCONFIG_CONST_CFG)
 368:.\Generated_Source\PSoC4/uart_1.c ****     if(UART_1_SCB_MODE_I2C_RUNTM_CFG)
 369:.\Generated_Source\PSoC4/uart_1.c ****     {
 370:.\Generated_Source\PSoC4/uart_1.c ****         UART_1_I2CStop();
 371:.\Generated_Source\PSoC4/uart_1.c ****     }
 372:.\Generated_Source\PSoC4/uart_1.c ****     else if (UART_1_SCB_MODE_EZI2C_RUNTM_CFG)
 373:.\Generated_Source\PSoC4/uart_1.c ****     {
 374:.\Generated_Source\PSoC4/uart_1.c ****         UART_1_EzI2CStop();
 375:.\Generated_Source\PSoC4/uart_1.c ****     }
 376:.\Generated_Source\PSoC4/uart_1.c **** #if (!UART_1_CY_SCBIP_V1)
 377:.\Generated_Source\PSoC4/uart_1.c ****     else if (UART_1_SCB_MODE_UART_RUNTM_CFG)
 378:.\Generated_Source\PSoC4/uart_1.c ****     {
 379:.\Generated_Source\PSoC4/uart_1.c ****         UART_1_UartStop();
 380:.\Generated_Source\PSoC4/uart_1.c ****     }
 381:.\Generated_Source\PSoC4/uart_1.c **** #endif /* (!UART_1_CY_SCBIP_V1) */
 382:.\Generated_Source\PSoC4/uart_1.c ****     else
 383:.\Generated_Source\PSoC4/uart_1.c ****     {
 384:.\Generated_Source\PSoC4/uart_1.c ****         /* Do nothing for other modes */
 385:.\Generated_Source\PSoC4/uart_1.c ****     }
 386:.\Generated_Source\PSoC4/uart_1.c **** #elif(UART_1_SCB_MODE_I2C_CONST_CFG)
 387:.\Generated_Source\PSoC4/uart_1.c ****     UART_1_I2CStop();
 388:.\Generated_Source\PSoC4/uart_1.c **** 
 389:.\Generated_Source\PSoC4/uart_1.c **** #elif(UART_1_SCB_MODE_EZI2C_CONST_CFG)
 390:.\Generated_Source\PSoC4/uart_1.c ****     UART_1_EzI2CStop();
 391:.\Generated_Source\PSoC4/uart_1.c **** 
 392:.\Generated_Source\PSoC4/uart_1.c **** #elif(UART_1_SCB_MODE_UART_CONST_CFG)
 393:.\Generated_Source\PSoC4/uart_1.c ****     UART_1_UartStop();
 394:.\Generated_Source\PSoC4/uart_1.c **** 
 395:.\Generated_Source\PSoC4/uart_1.c **** #endif /* (UART_1_SCB_MODE_UNCONFIG_CONST_CFG) */
 396:.\Generated_Source\PSoC4/uart_1.c **** }
 397:.\Generated_Source\PSoC4/uart_1.c **** 
 398:.\Generated_Source\PSoC4/uart_1.c **** 
 399:.\Generated_Source\PSoC4/uart_1.c **** #if(UART_1_SCB_MODE_UNCONFIG_CONST_CFG)
 400:.\Generated_Source\PSoC4/uart_1.c ****     /*******************************************************************************
 401:.\Generated_Source\PSoC4/uart_1.c ****     * Function Name: UART_1_SetPins
 402:.\Generated_Source\PSoC4/uart_1.c ****     ********************************************************************************
 403:.\Generated_Source\PSoC4/uart_1.c ****     *
 404:.\Generated_Source\PSoC4/uart_1.c ****     * Summary:
 405:.\Generated_Source\PSoC4/uart_1.c ****     *  Sets the pins settings accordingly to the selected operation mode.
 406:.\Generated_Source\PSoC4/uart_1.c ****     *  Only available in the Unconfigured operation mode. The mode specific
 407:.\Generated_Source\PSoC4/uart_1.c ****     *  initialization function calls it.
 408:.\Generated_Source\PSoC4/uart_1.c ****     *  Pins configuration is set by PSoC Creator when a specific mode of operation
 409:.\Generated_Source\PSoC4/uart_1.c ****     *  is selected in design time.
 410:.\Generated_Source\PSoC4/uart_1.c ****     *
 411:.\Generated_Source\PSoC4/uart_1.c ****     * Parameters:
ARM GAS  C:\Users\kevin\AppData\Local\Temp\ccrZUpt9.s 			page 40


 412:.\Generated_Source\PSoC4/uart_1.c ****     *  mode:      Mode of SCB operation.
 413:.\Generated_Source\PSoC4/uart_1.c ****     *  subMode:   Sub-mode of SCB operation. It is only required for SPI and UART
 414:.\Generated_Source\PSoC4/uart_1.c ****     *             modes.
 415:.\Generated_Source\PSoC4/uart_1.c ****     *  uartEnableMask: enables TX or RX direction and RTS and CTS signals.
 416:.\Generated_Source\PSoC4/uart_1.c ****     *
 417:.\Generated_Source\PSoC4/uart_1.c ****     * Return:
 418:.\Generated_Source\PSoC4/uart_1.c ****     *  None
 419:.\Generated_Source\PSoC4/uart_1.c ****     *
 420:.\Generated_Source\PSoC4/uart_1.c ****     *******************************************************************************/
 421:.\Generated_Source\PSoC4/uart_1.c ****     void UART_1_SetPins(uint32 mode, uint32 subMode, uint32 uartEnableMask)
 422:.\Generated_Source\PSoC4/uart_1.c ****     {
 423:.\Generated_Source\PSoC4/uart_1.c ****         uint32 hsiomSel [UART_1_SCB_PINS_NUMBER];
 424:.\Generated_Source\PSoC4/uart_1.c ****         uint32 pinsDm   [UART_1_SCB_PINS_NUMBER];
 425:.\Generated_Source\PSoC4/uart_1.c **** 
 426:.\Generated_Source\PSoC4/uart_1.c ****     #if (!UART_1_CY_SCBIP_V1)
 427:.\Generated_Source\PSoC4/uart_1.c ****         uint32 pinsInBuf = 0u;
 428:.\Generated_Source\PSoC4/uart_1.c ****     #endif /* (!UART_1_CY_SCBIP_V1) */
 429:.\Generated_Source\PSoC4/uart_1.c **** 
 430:.\Generated_Source\PSoC4/uart_1.c ****         uint32 i;
 431:.\Generated_Source\PSoC4/uart_1.c **** 
 432:.\Generated_Source\PSoC4/uart_1.c ****         /* Set default HSIOM to GPIO and Drive Mode to Analog Hi-Z */
 433:.\Generated_Source\PSoC4/uart_1.c ****         for(i = 0u; i < UART_1_SCB_PINS_NUMBER; i++)
 434:.\Generated_Source\PSoC4/uart_1.c ****         {
 435:.\Generated_Source\PSoC4/uart_1.c ****             hsiomSel[i]  = UART_1_HSIOM_DEF_SEL;
 436:.\Generated_Source\PSoC4/uart_1.c ****             pinsDm[i]    = UART_1_PIN_DM_ALG_HIZ;
 437:.\Generated_Source\PSoC4/uart_1.c ****         }
 438:.\Generated_Source\PSoC4/uart_1.c **** 
 439:.\Generated_Source\PSoC4/uart_1.c ****         if((UART_1_SCB_MODE_I2C   == mode) ||
 440:.\Generated_Source\PSoC4/uart_1.c ****            (UART_1_SCB_MODE_EZI2C == mode))
 441:.\Generated_Source\PSoC4/uart_1.c ****         {
 442:.\Generated_Source\PSoC4/uart_1.c ****             hsiomSel[UART_1_MOSI_SCL_RX_PIN_INDEX] = UART_1_HSIOM_I2C_SEL;
 443:.\Generated_Source\PSoC4/uart_1.c ****             hsiomSel[UART_1_MISO_SDA_TX_PIN_INDEX] = UART_1_HSIOM_I2C_SEL;
 444:.\Generated_Source\PSoC4/uart_1.c **** 
 445:.\Generated_Source\PSoC4/uart_1.c ****             pinsDm[UART_1_MOSI_SCL_RX_PIN_INDEX] = UART_1_PIN_DM_OD_LO;
 446:.\Generated_Source\PSoC4/uart_1.c ****             pinsDm[UART_1_MISO_SDA_TX_PIN_INDEX] = UART_1_PIN_DM_OD_LO;
 447:.\Generated_Source\PSoC4/uart_1.c ****         }
 448:.\Generated_Source\PSoC4/uart_1.c ****     #if (!UART_1_CY_SCBIP_V1)
 449:.\Generated_Source\PSoC4/uart_1.c ****         else if(UART_1_SCB_MODE_SPI == mode)
 450:.\Generated_Source\PSoC4/uart_1.c ****         {
 451:.\Generated_Source\PSoC4/uart_1.c ****             hsiomSel[UART_1_MOSI_SCL_RX_PIN_INDEX] = UART_1_HSIOM_SPI_SEL;
 452:.\Generated_Source\PSoC4/uart_1.c ****             hsiomSel[UART_1_MISO_SDA_TX_PIN_INDEX] = UART_1_HSIOM_SPI_SEL;
 453:.\Generated_Source\PSoC4/uart_1.c ****             hsiomSel[UART_1_SCLK_PIN_INDEX]        = UART_1_HSIOM_SPI_SEL;
 454:.\Generated_Source\PSoC4/uart_1.c **** 
 455:.\Generated_Source\PSoC4/uart_1.c ****             if(UART_1_SPI_SLAVE == subMode)
 456:.\Generated_Source\PSoC4/uart_1.c ****             {
 457:.\Generated_Source\PSoC4/uart_1.c ****                 /* Slave */
 458:.\Generated_Source\PSoC4/uart_1.c ****                 pinsDm[UART_1_MOSI_SCL_RX_PIN_INDEX] = UART_1_PIN_DM_DIG_HIZ;
 459:.\Generated_Source\PSoC4/uart_1.c ****                 pinsDm[UART_1_MISO_SDA_TX_PIN_INDEX] = UART_1_PIN_DM_STRONG;
 460:.\Generated_Source\PSoC4/uart_1.c ****                 pinsDm[UART_1_SCLK_PIN_INDEX]        = UART_1_PIN_DM_DIG_HIZ;
 461:.\Generated_Source\PSoC4/uart_1.c **** 
 462:.\Generated_Source\PSoC4/uart_1.c ****             #if(UART_1_SS0_PIN)
 463:.\Generated_Source\PSoC4/uart_1.c ****                 /* Only SS0 is valid choice for Slave */
 464:.\Generated_Source\PSoC4/uart_1.c ****                 hsiomSel[UART_1_SS0_PIN_INDEX] = UART_1_HSIOM_SPI_SEL;
 465:.\Generated_Source\PSoC4/uart_1.c ****                 pinsDm  [UART_1_SS0_PIN_INDEX] = UART_1_PIN_DM_DIG_HIZ;
 466:.\Generated_Source\PSoC4/uart_1.c ****             #endif /* (UART_1_SS1_PIN) */
 467:.\Generated_Source\PSoC4/uart_1.c **** 
 468:.\Generated_Source\PSoC4/uart_1.c ****             #if(UART_1_MISO_SDA_TX_PIN)
ARM GAS  C:\Users\kevin\AppData\Local\Temp\ccrZUpt9.s 			page 41


 469:.\Generated_Source\PSoC4/uart_1.c ****                 /* Disable input buffer */
 470:.\Generated_Source\PSoC4/uart_1.c ****                  pinsInBuf |= UART_1_MISO_SDA_TX_PIN_MASK;
 471:.\Generated_Source\PSoC4/uart_1.c ****             #endif /* (UART_1_MISO_SDA_TX_PIN_PIN) */
 472:.\Generated_Source\PSoC4/uart_1.c ****             }
 473:.\Generated_Source\PSoC4/uart_1.c ****             else /* (Master) */
 474:.\Generated_Source\PSoC4/uart_1.c ****             {
 475:.\Generated_Source\PSoC4/uart_1.c ****                 pinsDm[UART_1_MOSI_SCL_RX_PIN_INDEX] = UART_1_PIN_DM_STRONG;
 476:.\Generated_Source\PSoC4/uart_1.c ****                 pinsDm[UART_1_MISO_SDA_TX_PIN_INDEX] = UART_1_PIN_DM_DIG_HIZ;
 477:.\Generated_Source\PSoC4/uart_1.c ****                 pinsDm[UART_1_SCLK_PIN_INDEX]        = UART_1_PIN_DM_STRONG;
 478:.\Generated_Source\PSoC4/uart_1.c **** 
 479:.\Generated_Source\PSoC4/uart_1.c ****             #if(UART_1_SS0_PIN)
 480:.\Generated_Source\PSoC4/uart_1.c ****                 hsiomSel [UART_1_SS0_PIN_INDEX] = UART_1_HSIOM_SPI_SEL;
 481:.\Generated_Source\PSoC4/uart_1.c ****                 pinsDm   [UART_1_SS0_PIN_INDEX] = UART_1_PIN_DM_STRONG;
 482:.\Generated_Source\PSoC4/uart_1.c ****                 pinsInBuf                                |= UART_1_SS0_PIN_MASK;
 483:.\Generated_Source\PSoC4/uart_1.c ****             #endif /* (UART_1_SS0_PIN) */
 484:.\Generated_Source\PSoC4/uart_1.c **** 
 485:.\Generated_Source\PSoC4/uart_1.c ****             #if(UART_1_SS1_PIN)
 486:.\Generated_Source\PSoC4/uart_1.c ****                 hsiomSel [UART_1_SS1_PIN_INDEX] = UART_1_HSIOM_SPI_SEL;
 487:.\Generated_Source\PSoC4/uart_1.c ****                 pinsDm   [UART_1_SS1_PIN_INDEX] = UART_1_PIN_DM_STRONG;
 488:.\Generated_Source\PSoC4/uart_1.c ****                 pinsInBuf                                |= UART_1_SS1_PIN_MASK;
 489:.\Generated_Source\PSoC4/uart_1.c ****             #endif /* (UART_1_SS1_PIN) */
 490:.\Generated_Source\PSoC4/uart_1.c **** 
 491:.\Generated_Source\PSoC4/uart_1.c ****             #if(UART_1_SS2_PIN)
 492:.\Generated_Source\PSoC4/uart_1.c ****                 hsiomSel [UART_1_SS2_PIN_INDEX] = UART_1_HSIOM_SPI_SEL;
 493:.\Generated_Source\PSoC4/uart_1.c ****                 pinsDm   [UART_1_SS2_PIN_INDEX] = UART_1_PIN_DM_STRONG;
 494:.\Generated_Source\PSoC4/uart_1.c ****                 pinsInBuf                                |= UART_1_SS2_PIN_MASK;
 495:.\Generated_Source\PSoC4/uart_1.c ****             #endif /* (UART_1_SS2_PIN) */
 496:.\Generated_Source\PSoC4/uart_1.c **** 
 497:.\Generated_Source\PSoC4/uart_1.c ****             #if(UART_1_SS3_PIN)
 498:.\Generated_Source\PSoC4/uart_1.c ****                 hsiomSel [UART_1_SS3_PIN_INDEX] = UART_1_HSIOM_SPI_SEL;
 499:.\Generated_Source\PSoC4/uart_1.c ****                 pinsDm   [UART_1_SS3_PIN_INDEX] = UART_1_PIN_DM_STRONG;
 500:.\Generated_Source\PSoC4/uart_1.c ****                 pinsInBuf                                |= UART_1_SS3_PIN_MASK;
 501:.\Generated_Source\PSoC4/uart_1.c ****             #endif /* (UART_1_SS2_PIN) */
 502:.\Generated_Source\PSoC4/uart_1.c **** 
 503:.\Generated_Source\PSoC4/uart_1.c ****                 /* Disable input buffers */
 504:.\Generated_Source\PSoC4/uart_1.c ****             #if(UART_1_MOSI_SCL_RX_PIN)
 505:.\Generated_Source\PSoC4/uart_1.c ****                 pinsInBuf |= UART_1_MOSI_SCL_RX_PIN_MASK;
 506:.\Generated_Source\PSoC4/uart_1.c ****             #endif /* (UART_1_MOSI_SCL_RX_PIN) */
 507:.\Generated_Source\PSoC4/uart_1.c **** 
 508:.\Generated_Source\PSoC4/uart_1.c ****              #if(UART_1_MOSI_SCL_RX_WAKE_PIN)
 509:.\Generated_Source\PSoC4/uart_1.c ****                 pinsInBuf |= UART_1_MOSI_SCL_RX_WAKE_PIN_MASK;
 510:.\Generated_Source\PSoC4/uart_1.c ****             #endif /* (UART_1_MOSI_SCL_RX_WAKE_PIN) */
 511:.\Generated_Source\PSoC4/uart_1.c **** 
 512:.\Generated_Source\PSoC4/uart_1.c ****             #if(UART_1_SCLK_PIN)
 513:.\Generated_Source\PSoC4/uart_1.c ****                 pinsInBuf |= UART_1_SCLK_PIN_MASK;
 514:.\Generated_Source\PSoC4/uart_1.c ****             #endif /* (UART_1_SCLK_PIN) */
 515:.\Generated_Source\PSoC4/uart_1.c ****             }
 516:.\Generated_Source\PSoC4/uart_1.c ****         }
 517:.\Generated_Source\PSoC4/uart_1.c ****         else /* UART */
 518:.\Generated_Source\PSoC4/uart_1.c ****         {
 519:.\Generated_Source\PSoC4/uart_1.c ****             if(UART_1_UART_MODE_SMARTCARD == subMode)
 520:.\Generated_Source\PSoC4/uart_1.c ****             {
 521:.\Generated_Source\PSoC4/uart_1.c ****                 /* SmartCard */
 522:.\Generated_Source\PSoC4/uart_1.c ****                 hsiomSel[UART_1_MISO_SDA_TX_PIN_INDEX] = UART_1_HSIOM_UART_SEL;
 523:.\Generated_Source\PSoC4/uart_1.c ****                 pinsDm  [UART_1_MISO_SDA_TX_PIN_INDEX] = UART_1_PIN_DM_OD_LO;
 524:.\Generated_Source\PSoC4/uart_1.c ****             }
 525:.\Generated_Source\PSoC4/uart_1.c ****             else /* Standard or IrDA */
ARM GAS  C:\Users\kevin\AppData\Local\Temp\ccrZUpt9.s 			page 42


 526:.\Generated_Source\PSoC4/uart_1.c ****             {
 527:.\Generated_Source\PSoC4/uart_1.c ****                 if(0u != (UART_1_UART_RX_PIN_ENABLE & uartEnableMask))
 528:.\Generated_Source\PSoC4/uart_1.c ****                 {
 529:.\Generated_Source\PSoC4/uart_1.c ****                     hsiomSel[UART_1_MOSI_SCL_RX_PIN_INDEX] = UART_1_HSIOM_UART_SEL;
 530:.\Generated_Source\PSoC4/uart_1.c ****                     pinsDm  [UART_1_MOSI_SCL_RX_PIN_INDEX] = UART_1_PIN_DM_DIG_HIZ;
 531:.\Generated_Source\PSoC4/uart_1.c ****                 }
 532:.\Generated_Source\PSoC4/uart_1.c **** 
 533:.\Generated_Source\PSoC4/uart_1.c ****                 if(0u != (UART_1_UART_TX_PIN_ENABLE & uartEnableMask))
 534:.\Generated_Source\PSoC4/uart_1.c ****                 {
 535:.\Generated_Source\PSoC4/uart_1.c ****                     hsiomSel[UART_1_MISO_SDA_TX_PIN_INDEX] = UART_1_HSIOM_UART_SEL;
 536:.\Generated_Source\PSoC4/uart_1.c ****                     pinsDm  [UART_1_MISO_SDA_TX_PIN_INDEX] = UART_1_PIN_DM_STRONG;
 537:.\Generated_Source\PSoC4/uart_1.c **** 
 538:.\Generated_Source\PSoC4/uart_1.c ****                 #if(UART_1_MISO_SDA_TX_PIN)
 539:.\Generated_Source\PSoC4/uart_1.c ****                      pinsInBuf |= UART_1_MISO_SDA_TX_PIN_MASK;
 540:.\Generated_Source\PSoC4/uart_1.c ****                 #endif /* (UART_1_MISO_SDA_TX_PIN_PIN) */
 541:.\Generated_Source\PSoC4/uart_1.c ****                 }
 542:.\Generated_Source\PSoC4/uart_1.c **** 
 543:.\Generated_Source\PSoC4/uart_1.c ****             #if !(UART_1_CY_SCBIP_V0 || UART_1_CY_SCBIP_V1)
 544:.\Generated_Source\PSoC4/uart_1.c ****                 if(UART_1_UART_MODE_STD == subMode)
 545:.\Generated_Source\PSoC4/uart_1.c ****                 {
 546:.\Generated_Source\PSoC4/uart_1.c ****                     if(0u != (UART_1_UART_CTS_PIN_ENABLE & uartEnableMask))
 547:.\Generated_Source\PSoC4/uart_1.c ****                     {
 548:.\Generated_Source\PSoC4/uart_1.c ****                         /* CTS input is multiplexed with SCLK */
 549:.\Generated_Source\PSoC4/uart_1.c ****                         hsiomSel[UART_1_SCLK_PIN_INDEX] = UART_1_HSIOM_UART_SEL;
 550:.\Generated_Source\PSoC4/uart_1.c ****                         pinsDm  [UART_1_SCLK_PIN_INDEX] = UART_1_PIN_DM_DIG_HIZ;
 551:.\Generated_Source\PSoC4/uart_1.c ****                     }
 552:.\Generated_Source\PSoC4/uart_1.c **** 
 553:.\Generated_Source\PSoC4/uart_1.c ****                     if(0u != (UART_1_UART_RTS_PIN_ENABLE & uartEnableMask))
 554:.\Generated_Source\PSoC4/uart_1.c ****                     {
 555:.\Generated_Source\PSoC4/uart_1.c ****                         /* RTS output is multiplexed with SS0 */
 556:.\Generated_Source\PSoC4/uart_1.c ****                         hsiomSel[UART_1_SS0_PIN_INDEX] = UART_1_HSIOM_UART_SEL;
 557:.\Generated_Source\PSoC4/uart_1.c ****                         pinsDm  [UART_1_SS0_PIN_INDEX] = UART_1_PIN_DM_STRONG;
 558:.\Generated_Source\PSoC4/uart_1.c **** 
 559:.\Generated_Source\PSoC4/uart_1.c ****                     #if(UART_1_SS0_PIN)
 560:.\Generated_Source\PSoC4/uart_1.c ****                         /* Disable input buffer */
 561:.\Generated_Source\PSoC4/uart_1.c ****                         pinsInBuf |= UART_1_SS0_PIN_MASK;
 562:.\Generated_Source\PSoC4/uart_1.c ****                     #endif /* (UART_1_SS0_PIN) */
 563:.\Generated_Source\PSoC4/uart_1.c ****                     }
 564:.\Generated_Source\PSoC4/uart_1.c ****                 }
 565:.\Generated_Source\PSoC4/uart_1.c ****             #endif /* !(UART_1_CY_SCBIP_V0 || UART_1_CY_SCBIP_V1) */
 566:.\Generated_Source\PSoC4/uart_1.c ****             }
 567:.\Generated_Source\PSoC4/uart_1.c ****         }
 568:.\Generated_Source\PSoC4/uart_1.c ****     #endif /* (!UART_1_CY_SCBIP_V1) */
 569:.\Generated_Source\PSoC4/uart_1.c **** 
 570:.\Generated_Source\PSoC4/uart_1.c ****     /* Configure pins: set HSIOM, DM and InputBufEnable */
 571:.\Generated_Source\PSoC4/uart_1.c ****     /* Note: the DR register settings do not effect the pin output if HSIOM is other than GPIO */
 572:.\Generated_Source\PSoC4/uart_1.c **** 
 573:.\Generated_Source\PSoC4/uart_1.c ****     #if(UART_1_MOSI_SCL_RX_PIN)
 574:.\Generated_Source\PSoC4/uart_1.c ****         UART_1_SET_HSIOM_SEL(UART_1_MOSI_SCL_RX_HSIOM_REG,
 575:.\Generated_Source\PSoC4/uart_1.c ****                                        UART_1_MOSI_SCL_RX_HSIOM_MASK,
 576:.\Generated_Source\PSoC4/uart_1.c ****                                        UART_1_MOSI_SCL_RX_HSIOM_POS,
 577:.\Generated_Source\PSoC4/uart_1.c ****                                        hsiomSel[UART_1_MOSI_SCL_RX_PIN_INDEX]);
 578:.\Generated_Source\PSoC4/uart_1.c **** 
 579:.\Generated_Source\PSoC4/uart_1.c ****         UART_1_spi_mosi_i2c_scl_uart_rx_SetDriveMode((uint8) pinsDm[UART_1_MOSI_SCL_RX_PIN_INDEX]);
 580:.\Generated_Source\PSoC4/uart_1.c **** 
 581:.\Generated_Source\PSoC4/uart_1.c ****     #if (!UART_1_CY_SCBIP_V1)
 582:.\Generated_Source\PSoC4/uart_1.c ****         UART_1_SET_INP_DIS(UART_1_spi_mosi_i2c_scl_uart_rx_INP_DIS,
ARM GAS  C:\Users\kevin\AppData\Local\Temp\ccrZUpt9.s 			page 43


 583:.\Generated_Source\PSoC4/uart_1.c ****                                      UART_1_spi_mosi_i2c_scl_uart_rx_MASK,
 584:.\Generated_Source\PSoC4/uart_1.c ****                                      (0u != (pinsInBuf & UART_1_MOSI_SCL_RX_PIN_MASK)));
 585:.\Generated_Source\PSoC4/uart_1.c ****     #endif /* (!UART_1_CY_SCBIP_V1) */
 586:.\Generated_Source\PSoC4/uart_1.c ****     #endif /* (UART_1_MOSI_SCL_RX_PIN) */
 587:.\Generated_Source\PSoC4/uart_1.c **** 
 588:.\Generated_Source\PSoC4/uart_1.c ****     #if(UART_1_MOSI_SCL_RX_WAKE_PIN)
 589:.\Generated_Source\PSoC4/uart_1.c ****         UART_1_SET_HSIOM_SEL(UART_1_MOSI_SCL_RX_WAKE_HSIOM_REG,
 590:.\Generated_Source\PSoC4/uart_1.c ****                                        UART_1_MOSI_SCL_RX_WAKE_HSIOM_MASK,
 591:.\Generated_Source\PSoC4/uart_1.c ****                                        UART_1_MOSI_SCL_RX_WAKE_HSIOM_POS,
 592:.\Generated_Source\PSoC4/uart_1.c ****                                        hsiomSel[UART_1_MOSI_SCL_RX_WAKE_PIN_INDEX]);
 593:.\Generated_Source\PSoC4/uart_1.c **** 
 594:.\Generated_Source\PSoC4/uart_1.c ****         UART_1_spi_mosi_i2c_scl_uart_rx_wake_SetDriveMode((uint8)
 595:.\Generated_Source\PSoC4/uart_1.c ****                                                                pinsDm[UART_1_MOSI_SCL_RX_WAKE_PIN_I
 596:.\Generated_Source\PSoC4/uart_1.c **** 
 597:.\Generated_Source\PSoC4/uart_1.c ****         UART_1_SET_INP_DIS(UART_1_spi_mosi_i2c_scl_uart_rx_wake_INP_DIS,
 598:.\Generated_Source\PSoC4/uart_1.c ****                                      UART_1_spi_mosi_i2c_scl_uart_rx_wake_MASK,
 599:.\Generated_Source\PSoC4/uart_1.c ****                                      (0u != (pinsInBuf & UART_1_MOSI_SCL_RX_WAKE_PIN_MASK)));
 600:.\Generated_Source\PSoC4/uart_1.c **** 
 601:.\Generated_Source\PSoC4/uart_1.c ****          /* Set interrupt on falling edge */
 602:.\Generated_Source\PSoC4/uart_1.c ****         UART_1_SET_INCFG_TYPE(UART_1_MOSI_SCL_RX_WAKE_INTCFG_REG,
 603:.\Generated_Source\PSoC4/uart_1.c ****                                         UART_1_MOSI_SCL_RX_WAKE_INTCFG_TYPE_MASK,
 604:.\Generated_Source\PSoC4/uart_1.c ****                                         UART_1_MOSI_SCL_RX_WAKE_INTCFG_TYPE_POS,
 605:.\Generated_Source\PSoC4/uart_1.c ****                                         UART_1_INTCFG_TYPE_FALLING_EDGE);
 606:.\Generated_Source\PSoC4/uart_1.c ****     #endif /* (UART_1_MOSI_SCL_RX_WAKE_PIN) */
 607:.\Generated_Source\PSoC4/uart_1.c **** 
 608:.\Generated_Source\PSoC4/uart_1.c ****     #if(UART_1_MISO_SDA_TX_PIN)
 609:.\Generated_Source\PSoC4/uart_1.c ****         UART_1_SET_HSIOM_SEL(UART_1_MISO_SDA_TX_HSIOM_REG,
 610:.\Generated_Source\PSoC4/uart_1.c ****                                        UART_1_MISO_SDA_TX_HSIOM_MASK,
 611:.\Generated_Source\PSoC4/uart_1.c ****                                        UART_1_MISO_SDA_TX_HSIOM_POS,
 612:.\Generated_Source\PSoC4/uart_1.c ****                                        hsiomSel[UART_1_MISO_SDA_TX_PIN_INDEX]);
 613:.\Generated_Source\PSoC4/uart_1.c **** 
 614:.\Generated_Source\PSoC4/uart_1.c ****         UART_1_spi_miso_i2c_sda_uart_tx_SetDriveMode((uint8) pinsDm[UART_1_MISO_SDA_TX_PIN_INDEX]);
 615:.\Generated_Source\PSoC4/uart_1.c **** 
 616:.\Generated_Source\PSoC4/uart_1.c ****     #if (!UART_1_CY_SCBIP_V1)
 617:.\Generated_Source\PSoC4/uart_1.c ****         UART_1_SET_INP_DIS(UART_1_spi_miso_i2c_sda_uart_tx_INP_DIS,
 618:.\Generated_Source\PSoC4/uart_1.c ****                                      UART_1_spi_miso_i2c_sda_uart_tx_MASK,
 619:.\Generated_Source\PSoC4/uart_1.c ****                                     (0u != (pinsInBuf & UART_1_MISO_SDA_TX_PIN_MASK)));
 620:.\Generated_Source\PSoC4/uart_1.c ****     #endif /* (!UART_1_CY_SCBIP_V1) */
 621:.\Generated_Source\PSoC4/uart_1.c ****     #endif /* (UART_1_MOSI_SCL_RX_PIN) */
 622:.\Generated_Source\PSoC4/uart_1.c **** 
 623:.\Generated_Source\PSoC4/uart_1.c ****     #if(UART_1_SCLK_PIN)
 624:.\Generated_Source\PSoC4/uart_1.c ****         UART_1_SET_HSIOM_SEL(UART_1_SCLK_HSIOM_REG, UART_1_SCLK_HSIOM_MASK,
 625:.\Generated_Source\PSoC4/uart_1.c ****                                        UART_1_SCLK_HSIOM_POS, hsiomSel[UART_1_SCLK_PIN_INDEX]);
 626:.\Generated_Source\PSoC4/uart_1.c **** 
 627:.\Generated_Source\PSoC4/uart_1.c ****         UART_1_spi_sclk_SetDriveMode((uint8) pinsDm[UART_1_SCLK_PIN_INDEX]);
 628:.\Generated_Source\PSoC4/uart_1.c **** 
 629:.\Generated_Source\PSoC4/uart_1.c ****         UART_1_SET_INP_DIS(UART_1_spi_sclk_INP_DIS,
 630:.\Generated_Source\PSoC4/uart_1.c ****                                      UART_1_spi_sclk_MASK,
 631:.\Generated_Source\PSoC4/uart_1.c ****                                      (0u != (pinsInBuf & UART_1_SCLK_PIN_MASK)));
 632:.\Generated_Source\PSoC4/uart_1.c ****     #endif /* (UART_1_SCLK_PIN) */
 633:.\Generated_Source\PSoC4/uart_1.c **** 
 634:.\Generated_Source\PSoC4/uart_1.c ****     #if(UART_1_SS0_PIN)
 635:.\Generated_Source\PSoC4/uart_1.c ****         UART_1_SET_HSIOM_SEL(UART_1_SS0_HSIOM_REG, UART_1_SS0_HSIOM_MASK,
 636:.\Generated_Source\PSoC4/uart_1.c ****                                        UART_1_SS0_HSIOM_POS, hsiomSel[UART_1_SS0_PIN_INDEX]);
 637:.\Generated_Source\PSoC4/uart_1.c **** 
 638:.\Generated_Source\PSoC4/uart_1.c ****         UART_1_spi_ss0_SetDriveMode((uint8) pinsDm[UART_1_SS0_PIN_INDEX]);
 639:.\Generated_Source\PSoC4/uart_1.c **** 
ARM GAS  C:\Users\kevin\AppData\Local\Temp\ccrZUpt9.s 			page 44


 640:.\Generated_Source\PSoC4/uart_1.c ****         UART_1_SET_INP_DIS(UART_1_spi_ss0_INP_DIS,
 641:.\Generated_Source\PSoC4/uart_1.c ****                                      UART_1_spi_ss0_MASK,
 642:.\Generated_Source\PSoC4/uart_1.c ****                                      (0u != (pinsInBuf & UART_1_SS0_PIN_MASK)));
 643:.\Generated_Source\PSoC4/uart_1.c ****     #endif /* (UART_1_SS1_PIN) */
 644:.\Generated_Source\PSoC4/uart_1.c **** 
 645:.\Generated_Source\PSoC4/uart_1.c ****     #if(UART_1_SS1_PIN)
 646:.\Generated_Source\PSoC4/uart_1.c ****         UART_1_SET_HSIOM_SEL(UART_1_SS1_HSIOM_REG, UART_1_SS1_HSIOM_MASK,
 647:.\Generated_Source\PSoC4/uart_1.c ****                                        UART_1_SS1_HSIOM_POS, hsiomSel[UART_1_SS1_PIN_INDEX]);
 648:.\Generated_Source\PSoC4/uart_1.c **** 
 649:.\Generated_Source\PSoC4/uart_1.c ****         UART_1_spi_ss1_SetDriveMode((uint8) pinsDm[UART_1_SS1_PIN_INDEX]);
 650:.\Generated_Source\PSoC4/uart_1.c **** 
 651:.\Generated_Source\PSoC4/uart_1.c ****         UART_1_SET_INP_DIS(UART_1_spi_ss1_INP_DIS,
 652:.\Generated_Source\PSoC4/uart_1.c ****                                      UART_1_spi_ss1_MASK,
 653:.\Generated_Source\PSoC4/uart_1.c ****                                      (0u != (pinsInBuf & UART_1_SS1_PIN_MASK)));
 654:.\Generated_Source\PSoC4/uart_1.c ****     #endif /* (UART_1_SS1_PIN) */
 655:.\Generated_Source\PSoC4/uart_1.c **** 
 656:.\Generated_Source\PSoC4/uart_1.c ****     #if(UART_1_SS2_PIN)
 657:.\Generated_Source\PSoC4/uart_1.c ****         UART_1_SET_HSIOM_SEL(UART_1_SS2_HSIOM_REG, UART_1_SS2_HSIOM_MASK,
 658:.\Generated_Source\PSoC4/uart_1.c ****                                        UART_1_SS2_HSIOM_POS, hsiomSel[UART_1_SS2_PIN_INDEX]);
 659:.\Generated_Source\PSoC4/uart_1.c **** 
 660:.\Generated_Source\PSoC4/uart_1.c ****         UART_1_spi_ss2_SetDriveMode((uint8) pinsDm[UART_1_SS2_PIN_INDEX]);
 661:.\Generated_Source\PSoC4/uart_1.c **** 
 662:.\Generated_Source\PSoC4/uart_1.c ****         UART_1_SET_INP_DIS(UART_1_spi_ss2_INP_DIS,
 663:.\Generated_Source\PSoC4/uart_1.c ****                                      UART_1_spi_ss2_MASK,
 664:.\Generated_Source\PSoC4/uart_1.c ****                                      (0u != (pinsInBuf & UART_1_SS2_PIN_MASK)));
 665:.\Generated_Source\PSoC4/uart_1.c ****     #endif /* (UART_1_SS2_PIN) */
 666:.\Generated_Source\PSoC4/uart_1.c **** 
 667:.\Generated_Source\PSoC4/uart_1.c ****     #if(UART_1_SS3_PIN)
 668:.\Generated_Source\PSoC4/uart_1.c ****         UART_1_SET_HSIOM_SEL(UART_1_SS3_HSIOM_REG,  UART_1_SS3_HSIOM_MASK,
 669:.\Generated_Source\PSoC4/uart_1.c ****                                        UART_1_SS3_HSIOM_POS, hsiomSel[UART_1_SS3_PIN_INDEX]);
 670:.\Generated_Source\PSoC4/uart_1.c **** 
 671:.\Generated_Source\PSoC4/uart_1.c ****         UART_1_spi_ss3_SetDriveMode((uint8) pinsDm[UART_1_SS3_PIN_INDEX]);
 672:.\Generated_Source\PSoC4/uart_1.c **** 
 673:.\Generated_Source\PSoC4/uart_1.c ****         UART_1_SET_INP_DIS(UART_1_spi_ss3_INP_DIS,
 674:.\Generated_Source\PSoC4/uart_1.c ****                                      UART_1_spi_ss3_MASK,
 675:.\Generated_Source\PSoC4/uart_1.c ****                                      (0u != (pinsInBuf & UART_1_SS3_PIN_MASK)));
 676:.\Generated_Source\PSoC4/uart_1.c ****     #endif /* (UART_1_SS3_PIN) */
 677:.\Generated_Source\PSoC4/uart_1.c ****     }
 678:.\Generated_Source\PSoC4/uart_1.c **** 
 679:.\Generated_Source\PSoC4/uart_1.c **** #endif /* (UART_1_SCB_MODE_UNCONFIG_CONST_CFG) */
 680:.\Generated_Source\PSoC4/uart_1.c **** 
 681:.\Generated_Source\PSoC4/uart_1.c **** 
 682:.\Generated_Source\PSoC4/uart_1.c **** #if (UART_1_CY_SCBIP_V0 || UART_1_CY_SCBIP_V1)
 683:.\Generated_Source\PSoC4/uart_1.c ****     /*******************************************************************************
 684:.\Generated_Source\PSoC4/uart_1.c ****     * Function Name: UART_1_I2CSlaveNackGeneration
 685:.\Generated_Source\PSoC4/uart_1.c ****     ********************************************************************************
 686:.\Generated_Source\PSoC4/uart_1.c ****     *
 687:.\Generated_Source\PSoC4/uart_1.c ****     * Summary:
 688:.\Generated_Source\PSoC4/uart_1.c ****     *  Sets command to generate NACK to the address or data.
 689:.\Generated_Source\PSoC4/uart_1.c ****     *
 690:.\Generated_Source\PSoC4/uart_1.c ****     * Parameters:
 691:.\Generated_Source\PSoC4/uart_1.c ****     *  None
 692:.\Generated_Source\PSoC4/uart_1.c ****     *
 693:.\Generated_Source\PSoC4/uart_1.c ****     * Return:
 694:.\Generated_Source\PSoC4/uart_1.c ****     *  None
 695:.\Generated_Source\PSoC4/uart_1.c ****     *
 696:.\Generated_Source\PSoC4/uart_1.c ****     *******************************************************************************/
ARM GAS  C:\Users\kevin\AppData\Local\Temp\ccrZUpt9.s 			page 45


 697:.\Generated_Source\PSoC4/uart_1.c ****     void UART_1_I2CSlaveNackGeneration(void)
 698:.\Generated_Source\PSoC4/uart_1.c ****     {
 886              		.loc 3 698 0
 887              		.cfi_startproc
 699:.\Generated_Source\PSoC4/uart_1.c ****         /* Check for EC_AM toggle condition: EC_AM and clock stretching for address are enabled */
 700:.\Generated_Source\PSoC4/uart_1.c ****         if ((0u != (UART_1_CTRL_REG & UART_1_CTRL_EC_AM_MODE)) &&
 888              		.loc 3 700 0
 889 0000 0A4B     		ldr	r3, .L87
 890 0002 8022     		mov	r2, #128
 891 0004 1968     		ldr	r1, [r3]
 892 0006 5200     		lsl	r2, r2, #1
 893 0008 1142     		tst	r1, r2
 894 000a 0AD0     		beq	.L83
 701:.\Generated_Source\PSoC4/uart_1.c ****             (0u == (UART_1_I2C_CTRL_REG & UART_1_I2C_CTRL_S_NOT_READY_ADDR_NACK)))
 895              		.loc 3 701 0 discriminator 1
 896 000c 0849     		ldr	r1, .L87+4
 897 000e 0968     		ldr	r1, [r1]
 700:.\Generated_Source\PSoC4/uart_1.c ****         if ((0u != (UART_1_CTRL_REG & UART_1_CTRL_EC_AM_MODE)) &&
 898              		.loc 3 700 0 discriminator 1
 899 0010 4804     		lsl	r0, r1, #17
 900 0012 06D4     		bmi	.L83
 702:.\Generated_Source\PSoC4/uart_1.c ****         {
 703:.\Generated_Source\PSoC4/uart_1.c ****             /* Toggle EC_AM before NACK generation */
 704:.\Generated_Source\PSoC4/uart_1.c ****             UART_1_CTRL_REG &= ~UART_1_CTRL_EC_AM_MODE;
 901              		.loc 3 704 0
 902 0014 1868     		ldr	r0, [r3]
 903 0016 0749     		ldr	r1, .L87+8
 904 0018 0140     		and	r1, r0
 905 001a 1960     		str	r1, [r3]
 705:.\Generated_Source\PSoC4/uart_1.c ****             UART_1_CTRL_REG |=  UART_1_CTRL_EC_AM_MODE;
 906              		.loc 3 705 0
 907 001c 1968     		ldr	r1, [r3]
 908 001e 0A43     		orr	r2, r1
 909 0020 1A60     		str	r2, [r3]
 910              	.L83:
 706:.\Generated_Source\PSoC4/uart_1.c ****         }
 707:.\Generated_Source\PSoC4/uart_1.c **** 
 708:.\Generated_Source\PSoC4/uart_1.c ****         UART_1_I2C_SLAVE_CMD_REG = UART_1_I2C_SLAVE_CMD_S_NACK;
 911              		.loc 3 708 0
 912 0022 054B     		ldr	r3, .L87+12
 913 0024 0222     		mov	r2, #2
 914 0026 1A60     		str	r2, [r3]
 709:.\Generated_Source\PSoC4/uart_1.c ****     }
 915              		.loc 3 709 0
 916              		@ sp needed
 917 0028 7047     		bx	lr
 918              	.L88:
 919 002a C046     		.align	2
 920              	.L87:
 921 002c 00000740 		.word	1074200576
 922 0030 60000740 		.word	1074200672
 923 0034 FFFEFFFF 		.word	-257
 924 0038 6C000740 		.word	1074200684
 925              		.cfi_endproc
 926              	.LFE52:
 927              		.size	UART_1_I2CSlaveNackGeneration, .-UART_1_I2CSlaveNackGeneration
 928              		.section	.text.Open_UART_WIFI_ISR,"ax",%progbits
ARM GAS  C:\Users\kevin\AppData\Local\Temp\ccrZUpt9.s 			page 46


 929              		.align	1
 930              		.global	Open_UART_WIFI_ISR
 931              		.code	16
 932              		.thumb_func
 933              		.type	Open_UART_WIFI_ISR, %function
 934              	Open_UART_WIFI_ISR:
 935              	.LFB58:
 119:.\main.c      **** /*******************************************************************************
 120:.\main.c      **** *                       POWEROVER
 121:.\main.c      **** ********************************************************************************/
 122:.\main.c      **** void Open_UART_WIFI_ISR(void)
 123:.\main.c      **** {   
 936              		.loc 1 123 0
 937              		.cfi_startproc
 938 0000 08B5     		push	{r3, lr}
 939              		.cfi_def_cfa_offset 8
 940              		.cfi_offset 3, -8
 941              		.cfi_offset 14, -4
 942              	.LBB42:
 943              	.LBB43:
 118:.\Generated_Source\PSoC4/uart_0.c ****     UART_0_UartInit();
 944              		.loc 2 118 0
 945 0002 FFF7FEFF 		bl	UART_0_UartInit
 946              	.LVL52:
 947              	.LBE43:
 948              	.LBE42:
 124:.\main.c      ****   UART_0_Init();
 125:.\main.c      ****   UART_0_Enable();
 949              		.loc 1 125 0
 950 0006 FFF7FEFF 		bl	UART_0_Enable
 951              	.LVL53:
 126:.\main.c      ****   UART_0_Start();
 952              		.loc 1 126 0
 953 000a FFF7FEFF 		bl	UART_0_Start
 954              	.LVL54:
 955              	.LBB44:
 956              	.LBB45:
 310:.\Generated_Source\PSoC4/uart_0.c ****     UART_0_customIntrHandler = func; /* Register interrupt handler */
 957              		.loc 2 310 0
 958 000e 024A     		ldr	r2, .L90
 959 0010 024B     		ldr	r3, .L90+4
 960              	.LBE45:
 961              	.LBE44:
 127:.\main.c      ****   UART_0_SetCustomInterruptHandler(UART_ISR_0_FUN);  
 128:.\main.c      **** }
 962              		.loc 1 128 0
 963              		@ sp needed
 964              	.LBB47:
 965              	.LBB46:
 310:.\Generated_Source\PSoC4/uart_0.c ****     UART_0_customIntrHandler = func; /* Register interrupt handler */
 966              		.loc 2 310 0
 967 0012 5A60     		str	r2, [r3, #4]
 968              	.LBE46:
 969              	.LBE47:
 970              		.loc 1 128 0
 971 0014 08BD     		pop	{r3, pc}
 972              	.L91:
ARM GAS  C:\Users\kevin\AppData\Local\Temp\ccrZUpt9.s 			page 47


 973 0016 C046     		.align	2
 974              	.L90:
 975 0018 00000000 		.word	UART_ISR_0_FUN
 976 001c 00000000 		.word	.LANCHOR0
 977              		.cfi_endproc
 978              	.LFE58:
 979              		.size	Open_UART_WIFI_ISR, .-Open_UART_WIFI_ISR
 980              		.section	.text.Open_UART_TDS_ISR,"ax",%progbits
 981              		.align	1
 982              		.global	Open_UART_TDS_ISR
 983              		.code	16
 984              		.thumb_func
 985              		.type	Open_UART_TDS_ISR, %function
 986              	Open_UART_TDS_ISR:
 987              	.LFB59:
 129:.\main.c      **** /*******************************************************************************
 130:.\main.c      **** *                       POWEROVER
 131:.\main.c      **** ********************************************************************************/
 132:.\main.c      **** void Open_UART_TDS_ISR(void)
 133:.\main.c      **** {   
 988              		.loc 1 133 0
 989              		.cfi_startproc
 990 0000 08B5     		push	{r3, lr}
 991              		.cfi_def_cfa_offset 8
 992              		.cfi_offset 3, -8
 993              		.cfi_offset 14, -4
 994              	.LBB48:
 995              	.LBB49:
 118:.\Generated_Source\PSoC4/uart_1.c ****     UART_1_UartInit();
 996              		.loc 3 118 0
 997 0002 FFF7FEFF 		bl	UART_1_UartInit
 998              	.LVL55:
 999              	.LBE49:
 1000              	.LBE48:
 134:.\main.c      ****   UART_1_Init();
 135:.\main.c      ****   UART_1_Enable();
 1001              		.loc 1 135 0
 1002 0006 FFF7FEFF 		bl	UART_1_Enable
 1003              	.LVL56:
 136:.\main.c      ****   UART_1_Start();
 1004              		.loc 1 136 0
 1005 000a FFF7FEFF 		bl	UART_1_Start
 1006              	.LVL57:
 1007              	.LBB50:
 1008              	.LBB51:
 310:.\Generated_Source\PSoC4/uart_1.c ****     UART_1_customIntrHandler = func; /* Register interrupt handler */
 1009              		.loc 3 310 0
 1010 000e 024A     		ldr	r2, .L93
 1011 0010 024B     		ldr	r3, .L93+4
 1012              	.LBE51:
 1013              	.LBE50:
 137:.\main.c      ****   UART_1_SetCustomInterruptHandler(UART_ISR_1_FUN);
 138:.\main.c      **** }
 1014              		.loc 1 138 0
 1015              		@ sp needed
 1016              	.LBB53:
 1017              	.LBB52:
ARM GAS  C:\Users\kevin\AppData\Local\Temp\ccrZUpt9.s 			page 48


 310:.\Generated_Source\PSoC4/uart_1.c ****     UART_1_customIntrHandler = func; /* Register interrupt handler */
 1018              		.loc 3 310 0
 1019 0012 DA60     		str	r2, [r3, #12]
 1020              	.LBE52:
 1021              	.LBE53:
 1022              		.loc 1 138 0
 1023 0014 08BD     		pop	{r3, pc}
 1024              	.L94:
 1025 0016 C046     		.align	2
 1026              	.L93:
 1027 0018 00000000 		.word	UART_ISR_1_FUN
 1028 001c 00000000 		.word	.LANCHOR0
 1029              		.cfi_endproc
 1030              	.LFE59:
 1031              		.size	Open_UART_TDS_ISR, .-Open_UART_TDS_ISR
 1032              		.section	.text.Open_V24_IN_ISR,"ax",%progbits
 1033              		.align	1
 1034              		.global	Open_V24_IN_ISR
 1035              		.code	16
 1036              		.thumb_func
 1037              		.type	Open_V24_IN_ISR, %function
 1038              	Open_V24_IN_ISR:
 1039              	.LFB60:
 139:.\main.c      **** /*******************************************************************************
 140:.\main.c      **** *                       POWEROVER
 141:.\main.c      **** ********************************************************************************/
 142:.\main.c      **** void Open_V24_IN_ISR(void)
 143:.\main.c      **** {
 1040              		.loc 1 143 0
 1041              		.cfi_startproc
 1042 0000 08B5     		push	{r3, lr}
 1043              		.cfi_def_cfa_offset 8
 1044              		.cfi_offset 3, -8
 1045              		.cfi_offset 14, -4
 144:.\main.c      ****     V24_IN_ISR_Disable();
 1046              		.loc 1 144 0
 1047 0002 FFF7FEFF 		bl	V24_IN_ISR_Disable
 1048              	.LVL58:
 145:.\main.c      **** 
 146:.\main.c      ****     /* Set the ISR to point to the V24_IN_ISR Interrupt. */
 147:.\main.c      ****     V24_IN_ISR_SetVector(V24ISR);
 1049              		.loc 1 147 0
 1050 0006 0448     		ldr	r0, .L96
 1051 0008 FFF7FEFF 		bl	V24_IN_ISR_SetVector
 1052              	.LVL59:
 148:.\main.c      **** 
 149:.\main.c      ****     /* Set the priority. */
 150:.\main.c      ****     V24_IN_ISR_SetPriority(1);
 1053              		.loc 1 150 0
 1054 000c 0120     		mov	r0, #1
 1055 000e FFF7FEFF 		bl	V24_IN_ISR_SetPriority
 1056              	.LVL60:
 151:.\main.c      **** 
 152:.\main.c      ****     /* Enable it. */
 153:.\main.c      ****     V24_IN_ISR_Enable();
 154:.\main.c      **** 
 155:.\main.c      **** }
ARM GAS  C:\Users\kevin\AppData\Local\Temp\ccrZUpt9.s 			page 49


 1057              		.loc 1 155 0
 1058              		@ sp needed
 153:.\main.c      ****     V24_IN_ISR_Enable();
 1059              		.loc 1 153 0
 1060 0012 FFF7FEFF 		bl	V24_IN_ISR_Enable
 1061              	.LVL61:
 1062              		.loc 1 155 0
 1063 0016 08BD     		pop	{r3, pc}
 1064              	.L97:
 1065              		.align	2
 1066              	.L96:
 1067 0018 00000000 		.word	V24ISR
 1068              		.cfi_endproc
 1069              	.LFE60:
 1070              		.size	Open_V24_IN_ISR, .-Open_V24_IN_ISR
 1071              		.section	.text.Open_POWERLOW_ISR,"ax",%progbits
 1072              		.align	1
 1073              		.global	Open_POWERLOW_ISR
 1074              		.code	16
 1075              		.thumb_func
 1076              		.type	Open_POWERLOW_ISR, %function
 1077              	Open_POWERLOW_ISR:
 1078              	.LFB61:
 156:.\main.c      **** /*******************************************************************************
 157:.\main.c      **** *                       POWER brownout
 158:.\main.c      **** ********************************************************************************/
 159:.\main.c      **** void Open_POWERLOW_ISR(void)
 160:.\main.c      **** {
 1079              		.loc 1 160 0
 1080              		.cfi_startproc
 1081 0000 08B5     		push	{r3, lr}
 1082              		.cfi_def_cfa_offset 8
 1083              		.cfi_offset 3, -8
 1084              		.cfi_offset 14, -4
 161:.\main.c      **** /* For all we know the interrupt is active. */
 162:.\main.c      **** isr_lowpower_1_Disable();
 1085              		.loc 1 162 0
 1086 0002 FFF7FEFF 		bl	isr_lowpower_1_Disable
 1087              	.LVL62:
 163:.\main.c      **** 
 164:.\main.c      **** /* Set the ISR to point to the isr_lowpower Interrupt. */
 165:.\main.c      **** isr_lowpower_1_SetVector(isr_lowpower_Interrupt);
 1088              		.loc 1 165 0
 1089 0006 0448     		ldr	r0, .L99
 1090 0008 FFF7FEFF 		bl	isr_lowpower_1_SetVector
 1091              	.LVL63:
 166:.\main.c      **** 
 167:.\main.c      **** /* Set the priority. */
 168:.\main.c      **** isr_lowpower_1_SetPriority(0);
 1092              		.loc 1 168 0
 1093 000c 0020     		mov	r0, #0
 1094 000e FFF7FEFF 		bl	isr_lowpower_1_SetPriority
 1095              	.LVL64:
 169:.\main.c      **** 
 170:.\main.c      **** /* Enable it. */
 171:.\main.c      **** isr_lowpower_1_Enable();
 172:.\main.c      **** 
ARM GAS  C:\Users\kevin\AppData\Local\Temp\ccrZUpt9.s 			page 50


 173:.\main.c      **** }
 1096              		.loc 1 173 0
 1097              		@ sp needed
 171:.\main.c      **** isr_lowpower_1_Enable();
 1098              		.loc 1 171 0
 1099 0012 FFF7FEFF 		bl	isr_lowpower_1_Enable
 1100              	.LVL65:
 1101              		.loc 1 173 0
 1102 0016 08BD     		pop	{r3, pc}
 1103              	.L100:
 1104              		.align	2
 1105              	.L99:
 1106 0018 00000000 		.word	isr_lowpower_Interrupt
 1107              		.cfi_endproc
 1108              	.LFE61:
 1109              		.size	Open_POWERLOW_ISR, .-Open_POWERLOW_ISR
 1110              		.section	.text.Open_Watchdog,"ax",%progbits
 1111              		.align	1
 1112              		.global	Open_Watchdog
 1113              		.code	16
 1114              		.thumb_func
 1115              		.type	Open_Watchdog, %function
 1116              	Open_Watchdog:
 1117              	.LFB62:
 174:.\main.c      **** void Open_Watchdog(void)
 175:.\main.c      **** {
 1118              		.loc 1 175 0
 1119              		.cfi_startproc
 1120 0000 08B5     		push	{r3, lr}
 1121              		.cfi_def_cfa_offset 8
 1122              		.cfi_offset 3, -8
 1123              		.cfi_offset 14, -4
 176:.\main.c      ****     CyIntSetVector(9, isr_wdt);
 1124              		.loc 1 176 0
 1125 0002 0D49     		ldr	r1, .L102
 1126 0004 0920     		mov	r0, #9
 1127 0006 FFF7FEFF 		bl	CyIntSetVector
 1128              	.LVL66:
 177:.\main.c      ****     CyIntEnable(9);
 1129              		.loc 1 177 0
 1130 000a 0920     		mov	r0, #9
 1131 000c FFF7FEFF 		bl	CyIntEnable
 1132              	.LVL67:
 178:.\main.c      ****     CySysWdtUnlock(); /* Unlock WDT counter 0 for configuration */
 1133              		.loc 1 178 0
 1134 0010 FFF7FEFF 		bl	CySysWdtUnlock
 1135              	.LVL68:
 179:.\main.c      ****     CySysWdtWriteMode(CY_SYS_WDT_COUNTER0, CY_SYS_WDT_MODE_INT); /* Generate interrupts on TC */
 1136              		.loc 1 179 0
 1137 0014 0020     		mov	r0, #0
 1138 0016 0121     		mov	r1, #1
 1139 0018 FFF7FEFF 		bl	CySysWdtWriteMode
 1140              	.LVL69:
 180:.\main.c      ****     CySysWdtWriteMatch(CY_SYS_WDT_COUNTER0, 65535 );
 1141              		.loc 1 180 0
 1142 001c 0020     		mov	r0, #0
 1143 001e 0749     		ldr	r1, .L102+4
ARM GAS  C:\Users\kevin\AppData\Local\Temp\ccrZUpt9.s 			page 51


 1144 0020 FFF7FEFF 		bl	CySysWdtWriteMatch
 1145              	.LVL70:
 181:.\main.c      ****     CySysWdtWriteClearOnMatch(CY_SYS_WDT_COUNTER0, 1); /* Enable WDT clear on match */
 1146              		.loc 1 181 0
 1147 0024 0121     		mov	r1, #1
 1148 0026 0020     		mov	r0, #0
 1149 0028 FFF7FEFF 		bl	CySysWdtWriteClearOnMatch
 1150              	.LVL71:
 182:.\main.c      ****     CySysWdtEnable(CY_SYS_WDT_COUNTER0_MASK); /* Enable WDT counter 0 */
 1151              		.loc 1 182 0
 1152 002c 0120     		mov	r0, #1
 1153 002e FFF7FEFF 		bl	CySysWdtEnable
 1154              	.LVL72:
 183:.\main.c      ****     CySysWdtLock(); /* Lock WDT counter 0's configuration */
 184:.\main.c      **** }
 1155              		.loc 1 184 0
 1156              		@ sp needed
 183:.\main.c      ****     CySysWdtLock(); /* Lock WDT counter 0's configuration */
 1157              		.loc 1 183 0
 1158 0032 FFF7FEFF 		bl	CySysWdtLock
 1159              	.LVL73:
 1160              		.loc 1 184 0
 1161 0036 08BD     		pop	{r3, pc}
 1162              	.L103:
 1163              		.align	2
 1164              	.L102:
 1165 0038 00000000 		.word	isr_wdt
 1166 003c FFFF0000 		.word	65535
 1167              		.cfi_endproc
 1168              	.LFE62:
 1169              		.size	Open_Watchdog, .-Open_Watchdog
 1170              		.section	.text.startup.main,"ax",%progbits
 1171              		.align	1
 1172              		.global	main
 1173              		.code	16
 1174              		.thumb_func
 1175              		.type	main, %function
 1176              	main:
 1177              	.LFB63:
 185:.\main.c      **** 
 186:.\main.c      **** int main()
 187:.\main.c      **** {
 1178              		.loc 1 187 0
 1179              		.cfi_startproc
 188:.\main.c      ****   uint8 ij;
 189:.\main.c      **** 	CyDelay(1000);
 1180              		.loc 1 189 0
 1181 0000 FA20     		mov	r0, #250
 187:.\main.c      **** {
 1182              		.loc 1 187 0
 1183 0002 08B5     		push	{r3, lr}
 1184              		.cfi_def_cfa_offset 8
 1185              		.cfi_offset 3, -8
 1186              		.cfi_offset 14, -4
 1187              		.loc 1 189 0
 1188 0004 8000     		lsl	r0, r0, #2
 1189 0006 FFF7FEFF 		bl	CyDelay
ARM GAS  C:\Users\kevin\AppData\Local\Temp\ccrZUpt9.s 			page 52


 1190              	.LVL74:
 190:.\main.c      **** 	Eme2prom_Initial();
 1191              		.loc 1 190 0
 1192 000a FFF7FEFF 		bl	Eme2prom_Initial
 1193              	.LVL75:
 191:.\main.c      **** 	read();
 1194              		.loc 1 191 0
 1195 000e FFF7FEFF 		bl	read
 1196              	.LVL76:
 192:.\main.c      **** 	read1();
 1197              		.loc 1 192 0
 1198 0012 FFF7FEFF 		bl	read1
 1199              	.LVL77:
 193:.\main.c      **** 	CyGlobalIntEnable; /* Uncomment this line to enable global interrupts. */            
 1200              		.loc 1 193 0
 1201              	@ 193 ".\main.c" 1
 1202 0016 62B6     		CPSIE   i
 1203              	@ 0 "" 2
 194:.\main.c      **** 	Caps_Initial();
 1204              		.loc 1 194 0
 1205              		.code	16
 1206 0018 FFF7FEFF 		bl	Caps_Initial
 1207              	.LVL78:
 195:.\main.c      **** 	Timer_Initial();          
 1208              		.loc 1 195 0
 1209 001c FFF7FEFF 		bl	Timer_Initial
 1210              	.LVL79:
 196:.\main.c      **** 	Sys_Init();
 1211              		.loc 1 196 0
 1212 0020 FFF7FEFF 		bl	Sys_Init
 1213              	.LVL80:
 197:.\main.c      **** 	V24fig=0; 
 1214              		.loc 1 197 0
 1215 0024 354B     		ldr	r3, .L116
 1216 0026 0022     		mov	r2, #0
 1217 0028 1A70     		strb	r2, [r3]
 198:.\main.c      **** 	lvxin_panduan(); 
 1218              		.loc 1 198 0
 1219 002a FFF7FEFF 		bl	lvxin_panduan
 1220              	.LVL81:
 199:.\main.c      **** 	Open_POWERLOW_ISR();       
 1221              		.loc 1 199 0
 1222 002e FFF7FEFF 		bl	Open_POWERLOW_ISR
 1223              	.LVL82:
 200:.\main.c      **** 	Open_UART_WIFI_ISR();       
 1224              		.loc 1 200 0
 1225 0032 FFF7FEFF 		bl	Open_UART_WIFI_ISR
 1226              	.LVL83:
 201:.\main.c      **** 	Open_UART_TDS_ISR();
 1227              		.loc 1 201 0
 1228 0036 FFF7FEFF 		bl	Open_UART_TDS_ISR
 1229              	.LVL84:
 202:.\main.c      **** 	Open_Watchdog();
 1230              		.loc 1 202 0
 1231 003a FFF7FEFF 		bl	Open_Watchdog
 1232              	.LVL85:
 203:.\main.c      **** 	CySysLvdEnable(CY_LVD_THRESHOLD_2_10_V); 
ARM GAS  C:\Users\kevin\AppData\Local\Temp\ccrZUpt9.s 			page 53


 1233              		.loc 1 203 0
 1234 003e 0420     		mov	r0, #4
 1235 0040 FFF7FEFF 		bl	CySysLvdEnable
 1236              	.LVL86:
 204:.\main.c      **** 	for(ij=31;ij<128;ij++)
 1237              		.loc 1 204 0
 1238 0044 6223     		mov	r3, #98
 1239              	.LVL87:
 1240              	.L105:
 1241 0046 013B     		sub	r3, r3, #1
 1242              	.LVL88:
 1243              		.loc 1 204 0 is_stmt 0 discriminator 1
 1244 0048 002B     		cmp	r3, #0
 1245 004a 28D0     		beq	.L113
 1246              	.LVL89:
 1247 004c 2C4A     		ldr	r2, .L116+4
 205:.\main.c      **** 	  {    
 206:.\main.c      **** 	      array[ij]=0;               
 1248              		.loc 1 206 0 is_stmt 1 discriminator 2
 1249 004e 0021     		mov	r1, #0
 1250 0050 D21A     		sub	r2, r2, r3
 1251 0052 8032     		add	r2, r2, #128
 1252 0054 1170     		strb	r1, [r2]
 1253 0056 F6E7     		b	.L105
 1254              	.LVL90:
 1255              	.L107:
 207:.\main.c      **** 	  }   
 208:.\main.c      ****     while(1)
 209:.\main.c      ****     {
 210:.\main.c      ****         clearwdt();
 211:.\main.c      ****         Wifi_Fun();
 212:.\main.c      ****         clearwdt();
 213:.\main.c      ****         Caps_Scan(); 
 214:.\main.c      ****         Timer_Isr_Fun();
 215:.\main.c      ****         clearwdt();
 216:.\main.c      ****         Work_Fun(); 
 217:.\main.c      ****         Buzzer_Fun(); 
 218:.\main.c      ****         clearwdt();
 219:.\main.c      ****         Uart_0_Putchar();
 220:.\main.c      ****         clearwdt();
 221:.\main.c      **** 				if(WorkFlag.test==1)
 222:.\main.c      **** 					Sys_Flownum=2;
 223:.\main.c      ****         Led_Pannel_Process(Sys_Flownum,Sys_Testsn,Sys_Settingsn);
 1256              		.loc 1 223 0
 1257 0058 1878     		ldrb	r0, [r3]
 1258 005a 2A4B     		ldr	r3, .L116+8
 1259 005c 1978     		ldrb	r1, [r3]
 1260 005e 2A4B     		ldr	r3, .L116+12
 1261 0060 1A78     		ldrb	r2, [r3]
 1262 0062 FFF7FEFF 		bl	Led_Pannel_Process
 1263              	.LVL91:
 224:.\main.c      ****         if(firmwave_updatecnt>10)
 1264              		.loc 1 224 0
 1265 0066 294B     		ldr	r3, .L116+16
 1266 0068 1A78     		ldrb	r2, [r3]
 1267 006a 0A2A     		cmp	r2, #10
 1268 006c 05D9     		bls	.L108
ARM GAS  C:\Users\kevin\AppData\Local\Temp\ccrZUpt9.s 			page 54


 225:.\main.c      ****           {
 226:.\main.c      **** 						firmwave_updatecnt=0;
 1269              		.loc 1 226 0
 1270 006e 0022     		mov	r2, #0
 1271 0070 1A70     		strb	r2, [r3]
 227:.\main.c      **** 						clearwdt();
 1272              		.loc 1 227 0
 1273 0072 FFF7FEFF 		bl	clearwdt
 1274              	.LVL92:
 228:.\main.c      **** 						Bootloadable_Load();
 1275              		.loc 1 228 0
 1276 0076 FFF7FEFF 		bl	Bootloadable_Load
 1277              	.LVL93:
 1278              	.L108:
 229:.\main.c      ****                            
 230:.\main.c      ****           }
 231:.\main.c      **** 		  	if(TimeBase_Interrupt_CountOne>5)
 1279              		.loc 1 231 0
 1280 007a 254B     		ldr	r3, .L116+20
 1281 007c 1A78     		ldrb	r2, [r3]
 1282 007e 052A     		cmp	r2, #5
 1283 0080 01D9     		bls	.L109
 232:.\main.c      **** 		  		{
 233:.\main.c      **** 		              TimeBase_Interrupt_CountOne=0;
 1284              		.loc 1 233 0
 1285 0082 0022     		mov	r2, #0
 1286 0084 1A70     		strb	r2, [r3]
 1287              	.L109:
 234:.\main.c      **** 		  		}
 235:.\main.c      **** 		  	if (TimeBase_Interrupt_CountTwo>100) 
 1288              		.loc 1 235 0
 1289 0086 234B     		ldr	r3, .L116+24
 1290 0088 1A78     		ldrb	r2, [r3]
 1291 008a 642A     		cmp	r2, #100
 1292 008c 25D8     		bhi	.L115
 1293              	.L110:
 236:.\main.c      **** 		  		{
 237:.\main.c      **** 		  			TimeBase_Interrupt_CountTwo=0;
 238:.\main.c      **** 		  			/* Get received character or zero if nothing has been received yet */
 239:.\main.c      **** 		  			if((PowerOnCnt00>60)&&(poweroverfig==0)) 
 240:.\main.c      **** 		  			  {                  
 241:.\main.c      **** 		  			    poweroverfig=1;  
 242:.\main.c      **** 		  			    Open_V24_IN_ISR();
 243:.\main.c      **** 		  			  } 
 244:.\main.c      **** 		  			Error_Send();	
 245:.\main.c      **** 		  		}
 246:.\main.c      **** 		  	if (TimeBase_Interrupt_CountThree>1000) 
 1294              		.loc 1 246 0
 1295 008e 224B     		ldr	r3, .L116+28
 1296 0090 FA22     		mov	r2, #250
 1297 0092 1988     		ldrh	r1, [r3]
 1298 0094 9200     		lsl	r2, r2, #2
 1299 0096 9142     		cmp	r1, r2
 1300 0098 01D9     		bls	.L113
 247:.\main.c      **** 		  		{
 248:.\main.c      **** 		              TimeBase_Interrupt_CountThree=0;
 1301              		.loc 1 248 0
ARM GAS  C:\Users\kevin\AppData\Local\Temp\ccrZUpt9.s 			page 55


 1302 009a 0022     		mov	r2, #0
 1303 009c 1A80     		strh	r2, [r3]
 1304              	.L113:
 210:.\main.c      ****         clearwdt();
 1305              		.loc 1 210 0
 1306 009e FFF7FEFF 		bl	clearwdt
 1307              	.LVL94:
 211:.\main.c      ****         Wifi_Fun();
 1308              		.loc 1 211 0
 1309 00a2 FFF7FEFF 		bl	Wifi_Fun
 1310              	.LVL95:
 212:.\main.c      ****         clearwdt();
 1311              		.loc 1 212 0
 1312 00a6 FFF7FEFF 		bl	clearwdt
 1313              	.LVL96:
 213:.\main.c      ****         Caps_Scan(); 
 1314              		.loc 1 213 0
 1315 00aa FFF7FEFF 		bl	Caps_Scan
 1316              	.LVL97:
 214:.\main.c      ****         Timer_Isr_Fun();
 1317              		.loc 1 214 0
 1318 00ae FFF7FEFF 		bl	Timer_Isr_Fun
 1319              	.LVL98:
 215:.\main.c      ****         clearwdt();
 1320              		.loc 1 215 0
 1321 00b2 FFF7FEFF 		bl	clearwdt
 1322              	.LVL99:
 216:.\main.c      ****         Work_Fun(); 
 1323              		.loc 1 216 0
 1324 00b6 FFF7FEFF 		bl	Work_Fun
 1325              	.LVL100:
 217:.\main.c      ****         Buzzer_Fun(); 
 1326              		.loc 1 217 0
 1327 00ba FFF7FEFF 		bl	Buzzer_Fun
 1328              	.LVL101:
 218:.\main.c      ****         clearwdt();
 1329              		.loc 1 218 0
 1330 00be FFF7FEFF 		bl	clearwdt
 1331              	.LVL102:
 219:.\main.c      ****         Uart_0_Putchar();
 1332              		.loc 1 219 0
 1333 00c2 FFF7FEFF 		bl	Uart_0_Putchar
 1334              	.LVL103:
 220:.\main.c      ****         clearwdt();
 1335              		.loc 1 220 0
 1336 00c6 FFF7FEFF 		bl	clearwdt
 1337              	.LVL104:
 221:.\main.c      **** 				if(WorkFlag.test==1)
 1338              		.loc 1 221 0
 1339 00ca 144B     		ldr	r3, .L116+32
 1340 00cc DA78     		ldrb	r2, [r3, #3]
 1341 00ce 144B     		ldr	r3, .L116+36
 1342 00d0 1107     		lsl	r1, r2, #28
 1343 00d2 C1D5     		bpl	.L107
 222:.\main.c      **** 					Sys_Flownum=2;
 1344              		.loc 1 222 0
 1345 00d4 0222     		mov	r2, #2
ARM GAS  C:\Users\kevin\AppData\Local\Temp\ccrZUpt9.s 			page 56


 1346 00d6 1A70     		strb	r2, [r3]
 1347 00d8 BEE7     		b	.L107
 1348              	.L115:
 237:.\main.c      **** 		  			TimeBase_Interrupt_CountTwo=0;
 1349              		.loc 1 237 0
 1350 00da 0022     		mov	r2, #0
 1351 00dc 1A70     		strb	r2, [r3]
 239:.\main.c      **** 		  			if((PowerOnCnt00>60)&&(poweroverfig==0)) 
 1352              		.loc 1 239 0
 1353 00de 114B     		ldr	r3, .L116+40
 1354 00e0 1B88     		ldrh	r3, [r3]
 1355 00e2 3C2B     		cmp	r3, #60
 1356 00e4 07D9     		bls	.L111
 239:.\main.c      **** 		  			if((PowerOnCnt00>60)&&(poweroverfig==0)) 
 1357              		.loc 1 239 0 is_stmt 0 discriminator 1
 1358 00e6 104B     		ldr	r3, .L116+44
 1359 00e8 1A78     		ldrb	r2, [r3]
 1360 00ea 002A     		cmp	r2, #0
 1361 00ec 03D1     		bne	.L111
 241:.\main.c      **** 		  			    poweroverfig=1;  
 1362              		.loc 1 241 0 is_stmt 1
 1363 00ee 0122     		mov	r2, #1
 1364 00f0 1A70     		strb	r2, [r3]
 242:.\main.c      **** 		  			    Open_V24_IN_ISR();
 1365              		.loc 1 242 0
 1366 00f2 FFF7FEFF 		bl	Open_V24_IN_ISR
 1367              	.LVL105:
 1368              	.L111:
 244:.\main.c      **** 		  			Error_Send();	
 1369              		.loc 1 244 0
 1370 00f6 FFF7FEFF 		bl	Error_Send
 1371              	.LVL106:
 1372 00fa C8E7     		b	.L110
 1373              	.L117:
 1374              		.align	2
 1375              	.L116:
 1376 00fc 00000000 		.word	V24fig
 1377 0100 00000000 		.word	array
 1378 0104 00000000 		.word	Sys_Testsn
 1379 0108 00000000 		.word	Sys_Settingsn
 1380 010c 00000000 		.word	firmwave_updatecnt
 1381 0110 00000000 		.word	TimeBase_Interrupt_CountOne
 1382 0114 00000000 		.word	TimeBase_Interrupt_CountTwo
 1383 0118 00000000 		.word	TimeBase_Interrupt_CountThree
 1384 011c 00000000 		.word	WorkFlag
 1385 0120 00000000 		.word	Sys_Flownum
 1386 0124 00000000 		.word	PowerOnCnt00
 1387 0128 00000000 		.word	poweroverfig
 1388              		.cfi_endproc
 1389              	.LFE63:
 1390              		.size	main, .-main
 1391              		.comm	TimeBase_Interrupt_CountThree,2,2
 1392              		.comm	TimeBase_Interrupt_CountTwo,1,1
 1393              		.comm	TimeBase_Interrupt_CountOne,1,1
 1394              		.comm	Ack_Timer,1,1
 1395              		.comm	V24Vcnt,1,1
 1396              		.comm	V24dengdai,1,1
ARM GAS  C:\Users\kevin\AppData\Local\Temp\ccrZUpt9.s 			page 57


 1397              		.comm	V24fig,1,1
 1398              		.comm	dismode,1,1
 1399              		.comm	standkeyfig,1,1
 1400              		.comm	BUZqueshuifkg,1,1
 1401              		.comm	BUZfkgtemp,1,1
 1402              		.comm	qushui_BUZcnt,1,1
 1403              		.comm	BUZfkg,1,1
 1404              		.comm	LvxinJishi,24,2
 1405              		.comm	lXXZcnt_fig,1,1
 1406              		.comm	NBPressStart,1,1
 1407              		.comm	NBPressCnt,1,1
 1408              		.comm	NBfig,1,1
 1409              		.comm	NbPressCnt,1,1
 1410              		.comm	Dly1,4,4
 1411              		.comm	Dly,4,4
 1412              		.comm	BootloaderSign,1,1
 1413              		.comm	UartRx,1,1
 1414              		.global	UART_1_customIntrHandler
 1415              		.global	UART_1_initVar
 1416              		.global	UART_0_customIntrHandler
 1417              		.global	UART_0_initVar
 1418              		.bss
 1419              		.align	2
 1420              		.set	.LANCHOR0,. + 0
 1421              		.type	UART_0_initVar, %object
 1422              		.size	UART_0_initVar, 1
 1423              	UART_0_initVar:
 1424 0000 00       		.space	1
 1425 0001 000000   		.space	3
 1426              		.type	UART_0_customIntrHandler, %object
 1427              		.size	UART_0_customIntrHandler, 4
 1428              	UART_0_customIntrHandler:
 1429 0004 00000000 		.space	4
 1430              		.type	UART_1_initVar, %object
 1431              		.size	UART_1_initVar, 1
 1432              	UART_1_initVar:
 1433 0008 00       		.space	1
 1434 0009 000000   		.space	3
 1435              		.type	UART_1_customIntrHandler, %object
 1436              		.size	UART_1_customIntrHandler, 4
 1437              	UART_1_customIntrHandler:
 1438 000c 00000000 		.space	4
 1439              		.text
 1440              	.Letext0:
 1441              		.file 4 ".\\Generated_Source\\PSoC4/cytypes.h"
 1442              		.file 5 ".\\fun.h"
 1443              		.file 6 ".\\module.h"
 1444              		.file 7 ".\\Generated_Source\\PSoC4/CyLib.h"
 1445              		.file 8 ".\\uart_wifi.h"
 1446              		.file 9 ".\\Generated_Source\\PSoC4/UART_0_SPI_UART.h"
 1447              		.file 10 ".\\Generated_Source\\PSoC4/UART_1_SPI_UART.h"
 1448              		.file 11 ".\\Generated_Source\\PSoC4/V24_IN_ISR.h"
 1449              		.file 12 ".\\Generated_Source\\PSoC4/V24V.h"
 1450              		.file 13 ".\\Generated_Source\\PSoC4/UART_0_SPI_UART_PVT.h"
 1451              		.file 14 ".\\Generated_Source\\PSoC4/UART_1_SPI_UART_PVT.h"
 1452              		.file 15 ".\\Generated_Source\\PSoC4/isr_lowpower_1.h"
 1453              		.file 16 ".\\display.h"
ARM GAS  C:\Users\kevin\AppData\Local\Temp\ccrZUpt9.s 			page 58


 1454              		.file 17 ".\\Generated_Source\\PSoC4/Bootloadable.h"
 1455              		.section	.debug_info,"",%progbits
 1456              	.Ldebug_info0:
 1457 0000 3A0F0000 		.4byte	0xf3a
 1458 0004 0400     		.2byte	0x4
 1459 0006 00000000 		.4byte	.Ldebug_abbrev0
 1460 000a 04       		.byte	0x4
 1461 000b 01       		.uleb128 0x1
 1462 000c E7000000 		.4byte	.LASF167
 1463 0010 01       		.byte	0x1
 1464 0011 BA090000 		.4byte	.LASF168
 1465 0015 1D050000 		.4byte	.LASF169
 1466 0019 30000000 		.4byte	.Ldebug_ranges0+0x30
 1467 001d 00000000 		.4byte	0
 1468 0021 00000000 		.4byte	.Ldebug_line0
 1469 0025 02       		.uleb128 0x2
 1470 0026 01       		.byte	0x1
 1471 0027 06       		.byte	0x6
 1472 0028 F9080000 		.4byte	.LASF0
 1473 002c 02       		.uleb128 0x2
 1474 002d 01       		.byte	0x1
 1475 002e 08       		.byte	0x8
 1476 002f 73080000 		.4byte	.LASF1
 1477 0033 02       		.uleb128 0x2
 1478 0034 02       		.byte	0x2
 1479 0035 05       		.byte	0x5
 1480 0036 11070000 		.4byte	.LASF2
 1481 003a 02       		.uleb128 0x2
 1482 003b 02       		.byte	0x2
 1483 003c 07       		.byte	0x7
 1484 003d 05090000 		.4byte	.LASF3
 1485 0041 02       		.uleb128 0x2
 1486 0042 04       		.byte	0x4
 1487 0043 05       		.byte	0x5
 1488 0044 2E070000 		.4byte	.LASF4
 1489 0048 02       		.uleb128 0x2
 1490 0049 04       		.byte	0x4
 1491 004a 07       		.byte	0x7
 1492 004b 16080000 		.4byte	.LASF5
 1493 004f 02       		.uleb128 0x2
 1494 0050 08       		.byte	0x8
 1495 0051 05       		.byte	0x5
 1496 0052 85050000 		.4byte	.LASF6
 1497 0056 02       		.uleb128 0x2
 1498 0057 08       		.byte	0x8
 1499 0058 07       		.byte	0x7
 1500 0059 E9020000 		.4byte	.LASF7
 1501 005d 03       		.uleb128 0x3
 1502 005e 04       		.byte	0x4
 1503 005f 05       		.byte	0x5
 1504 0060 696E7400 		.ascii	"int\000"
 1505 0064 02       		.uleb128 0x2
 1506 0065 04       		.byte	0x4
 1507 0066 07       		.byte	0x7
 1508 0067 BE000000 		.4byte	.LASF8
 1509 006b 04       		.uleb128 0x4
 1510 006c 4C090000 		.4byte	.LASF9
ARM GAS  C:\Users\kevin\AppData\Local\Temp\ccrZUpt9.s 			page 59


 1511 0070 04       		.byte	0x4
 1512 0071 A1       		.byte	0xa1
 1513 0072 2C000000 		.4byte	0x2c
 1514 0076 04       		.uleb128 0x4
 1515 0077 B9040000 		.4byte	.LASF10
 1516 007b 04       		.byte	0x4
 1517 007c A2       		.byte	0xa2
 1518 007d 3A000000 		.4byte	0x3a
 1519 0081 04       		.uleb128 0x4
 1520 0082 23060000 		.4byte	.LASF11
 1521 0086 04       		.byte	0x4
 1522 0087 A3       		.byte	0xa3
 1523 0088 48000000 		.4byte	0x48
 1524 008c 02       		.uleb128 0x2
 1525 008d 04       		.byte	0x4
 1526 008e 04       		.byte	0x4
 1527 008f A1020000 		.4byte	.LASF12
 1528 0093 02       		.uleb128 0x2
 1529 0094 08       		.byte	0x8
 1530 0095 04       		.byte	0x4
 1531 0096 52090000 		.4byte	.LASF13
 1532 009a 02       		.uleb128 0x2
 1533 009b 01       		.byte	0x1
 1534 009c 08       		.byte	0x8
 1535 009d 6E040000 		.4byte	.LASF14
 1536 00a1 05       		.uleb128 0x5
 1537 00a2 E6060000 		.4byte	.LASF15
 1538 00a6 04       		.byte	0x4
 1539 00a7 4D01     		.2byte	0x14d
 1540 00a9 AD000000 		.4byte	0xad
 1541 00ad 06       		.uleb128 0x6
 1542 00ae 81000000 		.4byte	0x81
 1543 00b2 05       		.uleb128 0x5
 1544 00b3 F3050000 		.4byte	.LASF16
 1545 00b7 04       		.byte	0x4
 1546 00b8 5D01     		.2byte	0x15d
 1547 00ba BE000000 		.4byte	0xbe
 1548 00be 07       		.uleb128 0x7
 1549 00bf 04       		.byte	0x4
 1550 00c0 C4000000 		.4byte	0xc4
 1551 00c4 08       		.uleb128 0x8
 1552 00c5 02       		.uleb128 0x2
 1553 00c6 04       		.byte	0x4
 1554 00c7 07       		.byte	0x7
 1555 00c8 0D080000 		.4byte	.LASF17
 1556 00cc 09       		.uleb128 0x9
 1557 00cd 04       		.byte	0x4
 1558 00ce 05       		.byte	0x5
 1559 00cf A0       		.byte	0xa0
 1560 00d0 88020000 		.4byte	0x288
 1561 00d4 0A       		.uleb128 0xa
 1562 00d5 07020000 		.4byte	.LASF18
 1563 00d9 05       		.byte	0x5
 1564 00da A1       		.byte	0xa1
 1565 00db 64000000 		.4byte	0x64
 1566 00df 04       		.byte	0x4
 1567 00e0 01       		.byte	0x1
ARM GAS  C:\Users\kevin\AppData\Local\Temp\ccrZUpt9.s 			page 60


 1568 00e1 1F       		.byte	0x1f
 1569 00e2 00       		.byte	0
 1570 00e3 0A       		.uleb128 0xa
 1571 00e4 A7020000 		.4byte	.LASF19
 1572 00e8 05       		.byte	0x5
 1573 00e9 A2       		.byte	0xa2
 1574 00ea 64000000 		.4byte	0x64
 1575 00ee 04       		.byte	0x4
 1576 00ef 01       		.byte	0x1
 1577 00f0 1E       		.byte	0x1e
 1578 00f1 00       		.byte	0
 1579 00f2 0A       		.uleb128 0xa
 1580 00f3 3C030000 		.4byte	.LASF20
 1581 00f7 05       		.byte	0x5
 1582 00f8 A3       		.byte	0xa3
 1583 00f9 64000000 		.4byte	0x64
 1584 00fd 04       		.byte	0x4
 1585 00fe 01       		.byte	0x1
 1586 00ff 1D       		.byte	0x1d
 1587 0100 00       		.byte	0
 1588 0101 0A       		.uleb128 0xa
 1589 0102 F2010000 		.4byte	.LASF21
 1590 0106 05       		.byte	0x5
 1591 0107 A4       		.byte	0xa4
 1592 0108 64000000 		.4byte	0x64
 1593 010c 04       		.byte	0x4
 1594 010d 01       		.byte	0x1
 1595 010e 1C       		.byte	0x1c
 1596 010f 00       		.byte	0
 1597 0110 0A       		.uleb128 0xa
 1598 0111 DD000000 		.4byte	.LASF22
 1599 0115 05       		.byte	0x5
 1600 0116 A5       		.byte	0xa5
 1601 0117 64000000 		.4byte	0x64
 1602 011b 04       		.byte	0x4
 1603 011c 01       		.byte	0x1
 1604 011d 1B       		.byte	0x1b
 1605 011e 00       		.byte	0
 1606 011f 0A       		.uleb128 0xa
 1607 0120 C8020000 		.4byte	.LASF23
 1608 0124 05       		.byte	0x5
 1609 0125 A6       		.byte	0xa6
 1610 0126 64000000 		.4byte	0x64
 1611 012a 04       		.byte	0x4
 1612 012b 01       		.byte	0x1
 1613 012c 1A       		.byte	0x1a
 1614 012d 00       		.byte	0
 1615 012e 0A       		.uleb128 0xa
 1616 012f 6B030000 		.4byte	.LASF24
 1617 0133 05       		.byte	0x5
 1618 0134 A7       		.byte	0xa7
 1619 0135 64000000 		.4byte	0x64
 1620 0139 04       		.byte	0x4
 1621 013a 01       		.byte	0x1
 1622 013b 19       		.byte	0x19
 1623 013c 00       		.byte	0
 1624 013d 0A       		.uleb128 0xa
ARM GAS  C:\Users\kevin\AppData\Local\Temp\ccrZUpt9.s 			page 61


 1625 013e E8050000 		.4byte	.LASF25
 1626 0142 05       		.byte	0x5
 1627 0143 A8       		.byte	0xa8
 1628 0144 64000000 		.4byte	0x64
 1629 0148 04       		.byte	0x4
 1630 0149 01       		.byte	0x1
 1631 014a 18       		.byte	0x18
 1632 014b 00       		.byte	0
 1633 014c 0A       		.uleb128 0xa
 1634 014d 05070000 		.4byte	.LASF26
 1635 0151 05       		.byte	0x5
 1636 0152 A9       		.byte	0xa9
 1637 0153 64000000 		.4byte	0x64
 1638 0157 04       		.byte	0x4
 1639 0158 01       		.byte	0x1
 1640 0159 17       		.byte	0x17
 1641 015a 00       		.byte	0
 1642 015b 0A       		.uleb128 0xa
 1643 015c D2050000 		.4byte	.LASF27
 1644 0160 05       		.byte	0x5
 1645 0161 AA       		.byte	0xaa
 1646 0162 64000000 		.4byte	0x64
 1647 0166 04       		.byte	0x4
 1648 0167 01       		.byte	0x1
 1649 0168 16       		.byte	0x16
 1650 0169 00       		.byte	0
 1651 016a 0A       		.uleb128 0xa
 1652 016b F7040000 		.4byte	.LASF28
 1653 016f 05       		.byte	0x5
 1654 0170 AB       		.byte	0xab
 1655 0171 64000000 		.4byte	0x64
 1656 0175 04       		.byte	0x4
 1657 0176 01       		.byte	0x1
 1658 0177 15       		.byte	0x15
 1659 0178 00       		.byte	0
 1660 0179 0A       		.uleb128 0xa
 1661 017a D6080000 		.4byte	.LASF29
 1662 017e 05       		.byte	0x5
 1663 017f AC       		.byte	0xac
 1664 0180 64000000 		.4byte	0x64
 1665 0184 04       		.byte	0x4
 1666 0185 01       		.byte	0x1
 1667 0186 14       		.byte	0x14
 1668 0187 00       		.byte	0
 1669 0188 0A       		.uleb128 0xa
 1670 0189 EA030000 		.4byte	.LASF30
 1671 018d 05       		.byte	0x5
 1672 018e AD       		.byte	0xad
 1673 018f 64000000 		.4byte	0x64
 1674 0193 04       		.byte	0x4
 1675 0194 01       		.byte	0x1
 1676 0195 13       		.byte	0x13
 1677 0196 00       		.byte	0
 1678 0197 0A       		.uleb128 0xa
 1679 0198 18050000 		.4byte	.LASF31
 1680 019c 05       		.byte	0x5
 1681 019d AE       		.byte	0xae
ARM GAS  C:\Users\kevin\AppData\Local\Temp\ccrZUpt9.s 			page 62


 1682 019e 64000000 		.4byte	0x64
 1683 01a2 04       		.byte	0x4
 1684 01a3 01       		.byte	0x1
 1685 01a4 12       		.byte	0x12
 1686 01a5 00       		.byte	0
 1687 01a6 0A       		.uleb128 0xa
 1688 01a7 66030000 		.4byte	.LASF32
 1689 01ab 05       		.byte	0x5
 1690 01ac AF       		.byte	0xaf
 1691 01ad 64000000 		.4byte	0x64
 1692 01b1 04       		.byte	0x4
 1693 01b2 01       		.byte	0x1
 1694 01b3 11       		.byte	0x11
 1695 01b4 00       		.byte	0
 1696 01b5 0A       		.uleb128 0xa
 1697 01b6 08000000 		.4byte	.LASF33
 1698 01ba 05       		.byte	0x5
 1699 01bb B0       		.byte	0xb0
 1700 01bc 64000000 		.4byte	0x64
 1701 01c0 04       		.byte	0x4
 1702 01c1 01       		.byte	0x1
 1703 01c2 10       		.byte	0x10
 1704 01c3 00       		.byte	0
 1705 01c4 0A       		.uleb128 0xa
 1706 01c5 2A060000 		.4byte	.LASF34
 1707 01c9 05       		.byte	0x5
 1708 01ca B1       		.byte	0xb1
 1709 01cb 64000000 		.4byte	0x64
 1710 01cf 04       		.byte	0x4
 1711 01d0 01       		.byte	0x1
 1712 01d1 0F       		.byte	0xf
 1713 01d2 00       		.byte	0
 1714 01d3 0A       		.uleb128 0xa
 1715 01d4 6B080000 		.4byte	.LASF35
 1716 01d8 05       		.byte	0x5
 1717 01d9 B2       		.byte	0xb2
 1718 01da 64000000 		.4byte	0x64
 1719 01de 04       		.byte	0x4
 1720 01df 01       		.byte	0x1
 1721 01e0 0E       		.byte	0xe
 1722 01e1 00       		.byte	0
 1723 01e2 0A       		.uleb128 0xa
 1724 01e3 C6070000 		.4byte	.LASF36
 1725 01e7 05       		.byte	0x5
 1726 01e8 B3       		.byte	0xb3
 1727 01e9 64000000 		.4byte	0x64
 1728 01ed 04       		.byte	0x4
 1729 01ee 01       		.byte	0x1
 1730 01ef 0D       		.byte	0xd
 1731 01f0 00       		.byte	0
 1732 01f1 0A       		.uleb128 0xa
 1733 01f2 CA060000 		.4byte	.LASF37
 1734 01f6 05       		.byte	0x5
 1735 01f7 B4       		.byte	0xb4
 1736 01f8 64000000 		.4byte	0x64
 1737 01fc 04       		.byte	0x4
 1738 01fd 01       		.byte	0x1
ARM GAS  C:\Users\kevin\AppData\Local\Temp\ccrZUpt9.s 			page 63


 1739 01fe 0C       		.byte	0xc
 1740 01ff 00       		.byte	0
 1741 0200 0A       		.uleb128 0xa
 1742 0201 5A030000 		.4byte	.LASF38
 1743 0205 05       		.byte	0x5
 1744 0206 B5       		.byte	0xb5
 1745 0207 64000000 		.4byte	0x64
 1746 020b 04       		.byte	0x4
 1747 020c 01       		.byte	0x1
 1748 020d 0B       		.byte	0xb
 1749 020e 00       		.byte	0
 1750 020f 0A       		.uleb128 0xa
 1751 0210 43030000 		.4byte	.LASF39
 1752 0214 05       		.byte	0x5
 1753 0215 B6       		.byte	0xb6
 1754 0216 64000000 		.4byte	0x64
 1755 021a 04       		.byte	0x4
 1756 021b 01       		.byte	0x1
 1757 021c 0A       		.byte	0xa
 1758 021d 00       		.byte	0
 1759 021e 0A       		.uleb128 0xa
 1760 021f 37020000 		.4byte	.LASF40
 1761 0223 05       		.byte	0x5
 1762 0224 B7       		.byte	0xb7
 1763 0225 64000000 		.4byte	0x64
 1764 0229 04       		.byte	0x4
 1765 022a 01       		.byte	0x1
 1766 022b 09       		.byte	0x9
 1767 022c 00       		.byte	0
 1768 022d 0A       		.uleb128 0xa
 1769 022e 31060000 		.4byte	.LASF41
 1770 0232 05       		.byte	0x5
 1771 0233 B8       		.byte	0xb8
 1772 0234 64000000 		.4byte	0x64
 1773 0238 04       		.byte	0x4
 1774 0239 01       		.byte	0x1
 1775 023a 08       		.byte	0x8
 1776 023b 00       		.byte	0
 1777 023c 0A       		.uleb128 0xa
 1778 023d 1F020000 		.4byte	.LASF42
 1779 0241 05       		.byte	0x5
 1780 0242 B9       		.byte	0xb9
 1781 0243 64000000 		.4byte	0x64
 1782 0247 04       		.byte	0x4
 1783 0248 01       		.byte	0x1
 1784 0249 07       		.byte	0x7
 1785 024a 00       		.byte	0
 1786 024b 0A       		.uleb128 0xa
 1787 024c DC040000 		.4byte	.LASF43
 1788 0250 05       		.byte	0x5
 1789 0251 BA       		.byte	0xba
 1790 0252 64000000 		.4byte	0x64
 1791 0256 04       		.byte	0x4
 1792 0257 01       		.byte	0x1
 1793 0258 06       		.byte	0x6
 1794 0259 00       		.byte	0
 1795 025a 0A       		.uleb128 0xa
ARM GAS  C:\Users\kevin\AppData\Local\Temp\ccrZUpt9.s 			page 64


 1796 025b 00050000 		.4byte	.LASF44
 1797 025f 05       		.byte	0x5
 1798 0260 BB       		.byte	0xbb
 1799 0261 64000000 		.4byte	0x64
 1800 0265 04       		.byte	0x4
 1801 0266 01       		.byte	0x1
 1802 0267 05       		.byte	0x5
 1803 0268 00       		.byte	0
 1804 0269 0A       		.uleb128 0xa
 1805 026a CF010000 		.4byte	.LASF45
 1806 026e 05       		.byte	0x5
 1807 026f BC       		.byte	0xbc
 1808 0270 64000000 		.4byte	0x64
 1809 0274 04       		.byte	0x4
 1810 0275 01       		.byte	0x1
 1811 0276 04       		.byte	0x4
 1812 0277 00       		.byte	0
 1813 0278 0A       		.uleb128 0xa
 1814 0279 E9010000 		.4byte	.LASF46
 1815 027d 05       		.byte	0x5
 1816 027e BD       		.byte	0xbd
 1817 027f 64000000 		.4byte	0x64
 1818 0283 04       		.byte	0x4
 1819 0284 01       		.byte	0x1
 1820 0285 03       		.byte	0x3
 1821 0286 00       		.byte	0
 1822 0287 00       		.byte	0
 1823 0288 0B       		.uleb128 0xb
 1824 0289 48060000 		.4byte	.LASF47
 1825 028d 01       		.byte	0x1
 1826 028e 1D       		.byte	0x1d
 1827 028f 01       		.byte	0x1
 1828 0290 A0020000 		.4byte	0x2a0
 1829 0294 0C       		.uleb128 0xc
 1830 0295 15040000 		.4byte	.LASF49
 1831 0299 01       		.byte	0x1
 1832 029a 1F       		.byte	0x1f
 1833 029b 81000000 		.4byte	0x81
 1834 029f 00       		.byte	0
 1835 02a0 0B       		.uleb128 0xb
 1836 02a1 AF020000 		.4byte	.LASF48
 1837 02a5 01       		.byte	0x1
 1838 02a6 2D       		.byte	0x2d
 1839 02a7 01       		.byte	0x1
 1840 02a8 B8020000 		.4byte	0x2b8
 1841 02ac 0C       		.uleb128 0xc
 1842 02ad 15040000 		.4byte	.LASF49
 1843 02b1 01       		.byte	0x1
 1844 02b2 2F       		.byte	0x2f
 1845 02b3 81000000 		.4byte	0x81
 1846 02b7 00       		.byte	0
 1847 02b8 0D       		.uleb128 0xd
 1848 02b9 B8060000 		.4byte	.LASF50
 1849 02bd 01       		.byte	0x1
 1850 02be 46       		.byte	0x46
 1851 02bf 01       		.byte	0x1
 1852 02c0 0D       		.uleb128 0xd
ARM GAS  C:\Users\kevin\AppData\Local\Temp\ccrZUpt9.s 			page 65


 1853 02c1 30030000 		.4byte	.LASF51
 1854 02c5 02       		.byte	0x2
 1855 02c6 63       		.byte	0x63
 1856 02c7 01       		.byte	0x1
 1857 02c8 0E       		.uleb128 0xe
 1858 02c9 6A000000 		.4byte	.LASF53
 1859 02cd 02       		.byte	0x2
 1860 02ce 6D01     		.2byte	0x16d
 1861 02d0 01       		.byte	0x1
 1862 02d1 0D       		.uleb128 0xd
 1863 02d2 ED080000 		.4byte	.LASF52
 1864 02d6 03       		.byte	0x3
 1865 02d7 63       		.byte	0x63
 1866 02d8 01       		.byte	0x1
 1867 02d9 0E       		.uleb128 0xe
 1868 02da 67060000 		.4byte	.LASF54
 1869 02de 03       		.byte	0x3
 1870 02df 6D01     		.2byte	0x16d
 1871 02e1 01       		.byte	0x1
 1872 02e2 0F       		.uleb128 0xf
 1873 02e3 7F010000 		.4byte	.LASF55
 1874 02e7 02       		.byte	0x2
 1875 02e8 3301     		.2byte	0x133
 1876 02ea 01       		.byte	0x1
 1877 02eb FC020000 		.4byte	0x2fc
 1878 02ef 10       		.uleb128 0x10
 1879 02f0 0D020000 		.4byte	.LASF57
 1880 02f4 02       		.byte	0x2
 1881 02f5 3301     		.2byte	0x133
 1882 02f7 B2000000 		.4byte	0xb2
 1883 02fb 00       		.byte	0
 1884 02fc 0F       		.uleb128 0xf
 1885 02fd 2B090000 		.4byte	.LASF56
 1886 0301 03       		.byte	0x3
 1887 0302 3301     		.2byte	0x133
 1888 0304 01       		.byte	0x1
 1889 0305 16030000 		.4byte	0x316
 1890 0309 10       		.uleb128 0x10
 1891 030a 0D020000 		.4byte	.LASF57
 1892 030e 03       		.byte	0x3
 1893 030f 3301     		.2byte	0x133
 1894 0311 B2000000 		.4byte	0xb2
 1895 0315 00       		.byte	0
 1896 0316 11       		.uleb128 0x11
 1897 0317 08060000 		.4byte	.LASF58
 1898 031b 01       		.byte	0x1
 1899 031c 3A       		.byte	0x3a
 1900 031d 00000000 		.4byte	.LFB55
 1901 0321 14000000 		.4byte	.LFE55-.LFB55
 1902 0325 01       		.uleb128 0x1
 1903 0326 9C       		.byte	0x9c
 1904 0327 5B030000 		.4byte	0x35b
 1905 032b 12       		.uleb128 0x12
 1906 032c 08000000 		.4byte	.LVL0
 1907 0330 ED0C0000 		.4byte	0xced
 1908 0334 3E030000 		.4byte	0x33e
 1909 0338 13       		.uleb128 0x13
ARM GAS  C:\Users\kevin\AppData\Local\Temp\ccrZUpt9.s 			page 66


 1910 0339 01       		.uleb128 0x1
 1911 033a 50       		.byte	0x50
 1912 033b 01       		.uleb128 0x1
 1913 033c 34       		.byte	0x34
 1914 033d 00       		.byte	0
 1915 033e 12       		.uleb128 0x12
 1916 033f 0E000000 		.4byte	.LVL1
 1917 0343 FE0C0000 		.4byte	0xcfe
 1918 0347 51030000 		.4byte	0x351
 1919 034b 13       		.uleb128 0x13
 1920 034c 01       		.uleb128 0x1
 1921 034d 50       		.byte	0x50
 1922 034e 01       		.uleb128 0x1
 1923 034f 39       		.byte	0x39
 1924 0350 00       		.byte	0
 1925 0351 14       		.uleb128 0x14
 1926 0352 12000000 		.4byte	.LVL2
 1927 0356 0F0D0000 		.4byte	0xd0f
 1928 035a 00       		.byte	0
 1929 035b 11       		.uleb128 0x11
 1930 035c A3030000 		.4byte	.LASF59
 1931 0360 01       		.byte	0x1
 1932 0361 42       		.byte	0x42
 1933 0362 00000000 		.4byte	.LFB56
 1934 0366 08000000 		.4byte	.LFE56-.LFB56
 1935 036a 01       		.uleb128 0x1
 1936 036b 9C       		.byte	0x9c
 1937 036c 7A030000 		.4byte	0x37a
 1938 0370 14       		.uleb128 0x14
 1939 0371 06000000 		.4byte	.LVL3
 1940 0375 0F0D0000 		.4byte	0xd0f
 1941 0379 00       		.byte	0
 1942 037a 15       		.uleb128 0x15
 1943 037b 88020000 		.4byte	0x288
 1944 037f 00000000 		.4byte	.LFB53
 1945 0383 38000000 		.4byte	.LFE53-.LFB53
 1946 0387 01       		.uleb128 0x1
 1947 0388 9C       		.byte	0x9c
 1948 0389 B8030000 		.4byte	0x3b8
 1949 038d 16       		.uleb128 0x16
 1950 038e 94020000 		.4byte	0x294
 1951 0392 00000000 		.4byte	.LLST0
 1952 0396 17       		.uleb128 0x17
 1953 0397 0C000000 		.4byte	.LBB21
 1954 039b 20000000 		.4byte	.LBE21-.LBB21
 1955 039f 18       		.uleb128 0x18
 1956 03a0 94020000 		.4byte	0x294
 1957 03a4 14       		.uleb128 0x14
 1958 03a5 1A000000 		.4byte	.LVL6
 1959 03a9 160D0000 		.4byte	0xd16
 1960 03ad 14       		.uleb128 0x14
 1961 03ae 20000000 		.4byte	.LVL7
 1962 03b2 220D0000 		.4byte	0xd22
 1963 03b6 00       		.byte	0
 1964 03b7 00       		.byte	0
 1965 03b8 15       		.uleb128 0x15
 1966 03b9 A0020000 		.4byte	0x2a0
ARM GAS  C:\Users\kevin\AppData\Local\Temp\ccrZUpt9.s 			page 67


 1967 03bd 00000000 		.4byte	.LFB54
 1968 03c1 34000000 		.4byte	.LFE54-.LFB54
 1969 03c5 01       		.uleb128 0x1
 1970 03c6 9C       		.byte	0x9c
 1971 03c7 F6030000 		.4byte	0x3f6
 1972 03cb 16       		.uleb128 0x16
 1973 03cc AC020000 		.4byte	0x2ac
 1974 03d0 13000000 		.4byte	.LLST1
 1975 03d4 17       		.uleb128 0x17
 1976 03d5 0C000000 		.4byte	.LBB25
 1977 03d9 1C000000 		.4byte	.LBE25-.LBB25
 1978 03dd 18       		.uleb128 0x18
 1979 03de AC020000 		.4byte	0x2ac
 1980 03e2 14       		.uleb128 0x14
 1981 03e3 1A000000 		.4byte	.LVL10
 1982 03e7 330D0000 		.4byte	0xd33
 1983 03eb 14       		.uleb128 0x14
 1984 03ec 20000000 		.4byte	.LVL11
 1985 03f0 3F0D0000 		.4byte	0xd3f
 1986 03f4 00       		.byte	0
 1987 03f5 00       		.byte	0
 1988 03f6 15       		.uleb128 0x15
 1989 03f7 B8020000 		.4byte	0x2b8
 1990 03fb 00000000 		.4byte	.LFB57
 1991 03ff 90000000 		.4byte	.LFE57-.LFB57
 1992 0403 01       		.uleb128 0x1
 1993 0404 9C       		.byte	0x9c
 1994 0405 70040000 		.4byte	0x470
 1995 0409 14       		.uleb128 0x14
 1996 040a 06000000 		.4byte	.LVL12
 1997 040e 500D0000 		.4byte	0xd50
 1998 0412 14       		.uleb128 0x14
 1999 0413 12000000 		.4byte	.LVL13
 2000 0417 570D0000 		.4byte	0xd57
 2001 041b 14       		.uleb128 0x14
 2002 041c 32000000 		.4byte	.LVL14
 2003 0420 620D0000 		.4byte	0xd62
 2004 0424 14       		.uleb128 0x14
 2005 0425 3C000000 		.4byte	.LVL15
 2006 0429 690D0000 		.4byte	0xd69
 2007 042d 14       		.uleb128 0x14
 2008 042e 4A000000 		.4byte	.LVL16
 2009 0432 700D0000 		.4byte	0xd70
 2010 0436 14       		.uleb128 0x14
 2011 0437 50000000 		.4byte	.LVL17
 2012 043b 770D0000 		.4byte	0xd77
 2013 043f 14       		.uleb128 0x14
 2014 0440 54000000 		.4byte	.LVL18
 2015 0444 7E0D0000 		.4byte	0xd7e
 2016 0448 12       		.uleb128 0x12
 2017 0449 5C000000 		.4byte	.LVL19
 2018 044d 850D0000 		.4byte	0xd85
 2019 0451 5D040000 		.4byte	0x45d
 2020 0455 13       		.uleb128 0x13
 2021 0456 01       		.uleb128 0x1
 2022 0457 50       		.byte	0x50
 2023 0458 03       		.uleb128 0x3
ARM GAS  C:\Users\kevin\AppData\Local\Temp\ccrZUpt9.s 			page 68


 2024 0459 0A       		.byte	0xa
 2025 045a E803     		.2byte	0x3e8
 2026 045c 00       		.byte	0
 2027 045d 14       		.uleb128 0x14
 2028 045e 68000000 		.4byte	.LVL20
 2029 0462 570D0000 		.4byte	0xd57
 2030 0466 14       		.uleb128 0x14
 2031 0467 7E000000 		.4byte	.LVL21
 2032 046b 0F0D0000 		.4byte	0xd0f
 2033 046f 00       		.byte	0
 2034 0470 15       		.uleb128 0x15
 2035 0471 C0020000 		.4byte	0x2c0
 2036 0475 00000000 		.4byte	.LFB33
 2037 0479 08000000 		.4byte	.LFE33-.LFB33
 2038 047d 01       		.uleb128 0x1
 2039 047e 9C       		.byte	0x9c
 2040 047f 8D040000 		.4byte	0x48d
 2041 0483 14       		.uleb128 0x14
 2042 0484 06000000 		.4byte	.LVL22
 2043 0488 960D0000 		.4byte	0xd96
 2044 048c 00       		.byte	0
 2045 048d 0E       		.uleb128 0xe
 2046 048e A0010000 		.4byte	.LASF60
 2047 0492 02       		.byte	0x2
 2048 0493 4E01     		.2byte	0x14e
 2049 0495 01       		.byte	0x1
 2050 0496 11       		.uleb128 0x11
 2051 0497 29020000 		.4byte	.LASF61
 2052 049b 02       		.byte	0x2
 2053 049c 8F       		.byte	0x8f
 2054 049d 00000000 		.4byte	.LFB34
 2055 04a1 1C000000 		.4byte	.LFE34-.LFB34
 2056 04a5 01       		.uleb128 0x1
 2057 04a6 9C       		.byte	0x9c
 2058 04a7 CB040000 		.4byte	0x4cb
 2059 04ab 19       		.uleb128 0x19
 2060 04ac 8D040000 		.4byte	0x48d
 2061 04b0 0E000000 		.4byte	.LBB32
 2062 04b4 06000000 		.4byte	.LBE32-.LBB32
 2063 04b8 02       		.byte	0x2
 2064 04b9 9C       		.byte	0x9c
 2065 04ba 1A       		.uleb128 0x1a
 2066 04bb 14000000 		.4byte	.LVL23
 2067 04bf 9D0D0000 		.4byte	0xd9d
 2068 04c3 13       		.uleb128 0x13
 2069 04c4 01       		.uleb128 0x1
 2070 04c5 50       		.byte	0x50
 2071 04c6 01       		.uleb128 0x1
 2072 04c7 3A       		.byte	0x3a
 2073 04c8 00       		.byte	0
 2074 04c9 00       		.byte	0
 2075 04ca 00       		.byte	0
 2076 04cb 11       		.uleb128 0x11
 2077 04cc 76020000 		.4byte	.LASF62
 2078 04d0 02       		.byte	0x2
 2079 04d1 B7       		.byte	0xb7
 2080 04d2 00000000 		.4byte	.LFB35
ARM GAS  C:\Users\kevin\AppData\Local\Temp\ccrZUpt9.s 			page 69


 2081 04d6 1C000000 		.4byte	.LFE35-.LFB35
 2082 04da 01       		.uleb128 0x1
 2083 04db 9C       		.byte	0x9c
 2084 04dc 07050000 		.4byte	0x507
 2085 04e0 1B       		.uleb128 0x1b
 2086 04e1 C0020000 		.4byte	0x2c0
 2087 04e5 0A000000 		.4byte	.LBB34
 2088 04e9 04000000 		.4byte	.LBE34-.LBB34
 2089 04ed 02       		.byte	0x2
 2090 04ee BB       		.byte	0xbb
 2091 04ef FD040000 		.4byte	0x4fd
 2092 04f3 14       		.uleb128 0x14
 2093 04f4 0E000000 		.4byte	.LVL24
 2094 04f8 960D0000 		.4byte	0xd96
 2095 04fc 00       		.byte	0
 2096 04fd 14       		.uleb128 0x14
 2097 04fe 16000000 		.4byte	.LVL25
 2098 0502 96040000 		.4byte	0x496
 2099 0506 00       		.byte	0
 2100 0507 11       		.uleb128 0x11
 2101 0508 28080000 		.4byte	.LASF63
 2102 050c 02       		.byte	0x2
 2103 050d D1       		.byte	0xd1
 2104 050e 00000000 		.4byte	.LFB36
 2105 0512 20000000 		.4byte	.LFE36-.LFB36
 2106 0516 01       		.uleb128 0x1
 2107 0517 9C       		.byte	0x9c
 2108 0518 3F050000 		.4byte	0x53f
 2109 051c 12       		.uleb128 0x12
 2110 051d 08000000 		.4byte	.LVL26
 2111 0521 AE0D0000 		.4byte	0xdae
 2112 0525 2F050000 		.4byte	0x52f
 2113 0529 13       		.uleb128 0x13
 2114 052a 01       		.uleb128 0x1
 2115 052b 50       		.byte	0x50
 2116 052c 01       		.uleb128 0x1
 2117 052d 3A       		.byte	0x3a
 2118 052e 00       		.byte	0
 2119 052f 1A       		.uleb128 0x1a
 2120 0530 18000000 		.4byte	.LVL27
 2121 0534 FE0C0000 		.4byte	0xcfe
 2122 0538 13       		.uleb128 0x13
 2123 0539 01       		.uleb128 0x1
 2124 053a 50       		.byte	0x50
 2125 053b 01       		.uleb128 0x1
 2126 053c 3A       		.byte	0x3a
 2127 053d 00       		.byte	0
 2128 053e 00       		.byte	0
 2129 053f 11       		.uleb128 0x11
 2130 0540 49000000 		.4byte	.LASF64
 2131 0544 02       		.byte	0x2
 2132 0545 F2       		.byte	0xf2
 2133 0546 00000000 		.4byte	.LFB37
 2134 054a 14000000 		.4byte	.LFE37-.LFB37
 2135 054e 01       		.uleb128 0x1
 2136 054f 9C       		.byte	0x9c
 2137 0550 71050000 		.4byte	0x571
ARM GAS  C:\Users\kevin\AppData\Local\Temp\ccrZUpt9.s 			page 70


 2138 0554 1C       		.uleb128 0x1c
 2139 0555 D4010000 		.4byte	.LASF66
 2140 0559 02       		.byte	0x2
 2141 055a F2       		.byte	0xf2
 2142 055b 81000000 		.4byte	0x81
 2143 055f 01       		.uleb128 0x1
 2144 0560 50       		.byte	0x50
 2145 0561 1D       		.uleb128 0x1d
 2146 0562 30000000 		.4byte	.LASF67
 2147 0566 02       		.byte	0x2
 2148 0567 F4       		.byte	0xf4
 2149 0568 81000000 		.4byte	0x81
 2150 056c 26000000 		.4byte	.LLST2
 2151 0570 00       		.byte	0
 2152 0571 1E       		.uleb128 0x1e
 2153 0572 D0070000 		.4byte	.LASF65
 2154 0576 02       		.byte	0x2
 2155 0577 1001     		.2byte	0x110
 2156 0579 00000000 		.4byte	.LFB38
 2157 057d 14000000 		.4byte	.LFE38-.LFB38
 2158 0581 01       		.uleb128 0x1
 2159 0582 9C       		.byte	0x9c
 2160 0583 A6050000 		.4byte	0x5a6
 2161 0587 1F       		.uleb128 0x1f
 2162 0588 D4010000 		.4byte	.LASF66
 2163 058c 02       		.byte	0x2
 2164 058d 1001     		.2byte	0x110
 2165 058f 81000000 		.4byte	0x81
 2166 0593 01       		.uleb128 0x1
 2167 0594 50       		.byte	0x50
 2168 0595 20       		.uleb128 0x20
 2169 0596 7A050000 		.4byte	.LASF68
 2170 059a 02       		.byte	0x2
 2171 059b 1201     		.2byte	0x112
 2172 059d 81000000 		.4byte	0x81
 2173 05a1 44000000 		.4byte	.LLST3
 2174 05a5 00       		.byte	0
 2175 05a6 15       		.uleb128 0x15
 2176 05a7 E2020000 		.4byte	0x2e2
 2177 05ab 00000000 		.4byte	.LFB39
 2178 05af 0C000000 		.4byte	.LFE39-.LFB39
 2179 05b3 01       		.uleb128 0x1
 2180 05b4 9C       		.byte	0x9c
 2181 05b5 C1050000 		.4byte	0x5c1
 2182 05b9 21       		.uleb128 0x21
 2183 05ba EF020000 		.4byte	0x2ef
 2184 05be 01       		.uleb128 0x1
 2185 05bf 50       		.byte	0x50
 2186 05c0 00       		.byte	0
 2187 05c1 22       		.uleb128 0x22
 2188 05c2 89060000 		.4byte	.LASF75
 2189 05c6 02       		.byte	0x2
 2190 05c7 B902     		.2byte	0x2b9
 2191 05c9 00000000 		.4byte	.LFB42
 2192 05cd 3C000000 		.4byte	.LFE42-.LFB42
 2193 05d1 01       		.uleb128 0x1
 2194 05d2 9C       		.byte	0x9c
ARM GAS  C:\Users\kevin\AppData\Local\Temp\ccrZUpt9.s 			page 71


 2195 05d3 15       		.uleb128 0x15
 2196 05d4 D1020000 		.4byte	0x2d1
 2197 05d8 00000000 		.4byte	.LFB43
 2198 05dc 08000000 		.4byte	.LFE43-.LFB43
 2199 05e0 01       		.uleb128 0x1
 2200 05e1 9C       		.byte	0x9c
 2201 05e2 F0050000 		.4byte	0x5f0
 2202 05e6 14       		.uleb128 0x14
 2203 05e7 06000000 		.4byte	.LVL37
 2204 05eb BF0D0000 		.4byte	0xdbf
 2205 05ef 00       		.byte	0
 2206 05f0 0E       		.uleb128 0xe
 2207 05f1 6F090000 		.4byte	.LASF69
 2208 05f5 03       		.byte	0x3
 2209 05f6 4E01     		.2byte	0x14e
 2210 05f8 01       		.byte	0x1
 2211 05f9 11       		.uleb128 0x11
 2212 05fa 82040000 		.4byte	.LASF70
 2213 05fe 03       		.byte	0x3
 2214 05ff 8F       		.byte	0x8f
 2215 0600 00000000 		.4byte	.LFB44
 2216 0604 1C000000 		.4byte	.LFE44-.LFB44
 2217 0608 01       		.uleb128 0x1
 2218 0609 9C       		.byte	0x9c
 2219 060a 2E060000 		.4byte	0x62e
 2220 060e 19       		.uleb128 0x19
 2221 060f F0050000 		.4byte	0x5f0
 2222 0613 0E000000 		.4byte	.LBB38
 2223 0617 06000000 		.4byte	.LBE38-.LBB38
 2224 061b 03       		.byte	0x3
 2225 061c 9C       		.byte	0x9c
 2226 061d 1A       		.uleb128 0x1a
 2227 061e 14000000 		.4byte	.LVL38
 2228 0622 9D0D0000 		.4byte	0xd9d
 2229 0626 13       		.uleb128 0x13
 2230 0627 01       		.uleb128 0x1
 2231 0628 50       		.byte	0x50
 2232 0629 01       		.uleb128 0x1
 2233 062a 3B       		.byte	0x3b
 2234 062b 00       		.byte	0
 2235 062c 00       		.byte	0
 2236 062d 00       		.byte	0
 2237 062e 11       		.uleb128 0x11
 2238 062f B9070000 		.4byte	.LASF71
 2239 0633 03       		.byte	0x3
 2240 0634 B7       		.byte	0xb7
 2241 0635 00000000 		.4byte	.LFB45
 2242 0639 1C000000 		.4byte	.LFE45-.LFB45
 2243 063d 01       		.uleb128 0x1
 2244 063e 9C       		.byte	0x9c
 2245 063f 6A060000 		.4byte	0x66a
 2246 0643 1B       		.uleb128 0x1b
 2247 0644 D1020000 		.4byte	0x2d1
 2248 0648 0A000000 		.4byte	.LBB40
 2249 064c 04000000 		.4byte	.LBE40-.LBB40
 2250 0650 03       		.byte	0x3
 2251 0651 BB       		.byte	0xbb
ARM GAS  C:\Users\kevin\AppData\Local\Temp\ccrZUpt9.s 			page 72


 2252 0652 60060000 		.4byte	0x660
 2253 0656 14       		.uleb128 0x14
 2254 0657 0E000000 		.4byte	.LVL39
 2255 065b BF0D0000 		.4byte	0xdbf
 2256 065f 00       		.byte	0
 2257 0660 14       		.uleb128 0x14
 2258 0661 16000000 		.4byte	.LVL40
 2259 0665 F9050000 		.4byte	0x5f9
 2260 0669 00       		.byte	0
 2261 066a 11       		.uleb128 0x11
 2262 066b D0040000 		.4byte	.LASF72
 2263 066f 03       		.byte	0x3
 2264 0670 D1       		.byte	0xd1
 2265 0671 00000000 		.4byte	.LFB46
 2266 0675 20000000 		.4byte	.LFE46-.LFB46
 2267 0679 01       		.uleb128 0x1
 2268 067a 9C       		.byte	0x9c
 2269 067b A2060000 		.4byte	0x6a2
 2270 067f 12       		.uleb128 0x12
 2271 0680 08000000 		.4byte	.LVL41
 2272 0684 AE0D0000 		.4byte	0xdae
 2273 0688 92060000 		.4byte	0x692
 2274 068c 13       		.uleb128 0x13
 2275 068d 01       		.uleb128 0x1
 2276 068e 50       		.byte	0x50
 2277 068f 01       		.uleb128 0x1
 2278 0690 3B       		.byte	0x3b
 2279 0691 00       		.byte	0
 2280 0692 1A       		.uleb128 0x1a
 2281 0693 18000000 		.4byte	.LVL42
 2282 0697 FE0C0000 		.4byte	0xcfe
 2283 069b 13       		.uleb128 0x13
 2284 069c 01       		.uleb128 0x1
 2285 069d 50       		.byte	0x50
 2286 069e 01       		.uleb128 0x1
 2287 069f 3B       		.byte	0x3b
 2288 06a0 00       		.byte	0
 2289 06a1 00       		.byte	0
 2290 06a2 11       		.uleb128 0x11
 2291 06a3 F2030000 		.4byte	.LASF73
 2292 06a7 03       		.byte	0x3
 2293 06a8 F2       		.byte	0xf2
 2294 06a9 00000000 		.4byte	.LFB47
 2295 06ad 14000000 		.4byte	.LFE47-.LFB47
 2296 06b1 01       		.uleb128 0x1
 2297 06b2 9C       		.byte	0x9c
 2298 06b3 D4060000 		.4byte	0x6d4
 2299 06b7 1C       		.uleb128 0x1c
 2300 06b8 D4010000 		.4byte	.LASF66
 2301 06bc 03       		.byte	0x3
 2302 06bd F2       		.byte	0xf2
 2303 06be 81000000 		.4byte	0x81
 2304 06c2 01       		.uleb128 0x1
 2305 06c3 50       		.byte	0x50
 2306 06c4 1D       		.uleb128 0x1d
 2307 06c5 30000000 		.4byte	.LASF67
 2308 06c9 03       		.byte	0x3
ARM GAS  C:\Users\kevin\AppData\Local\Temp\ccrZUpt9.s 			page 73


 2309 06ca F4       		.byte	0xf4
 2310 06cb 81000000 		.4byte	0x81
 2311 06cf 62000000 		.4byte	.LLST4
 2312 06d3 00       		.byte	0
 2313 06d4 1E       		.uleb128 0x1e
 2314 06d5 59090000 		.4byte	.LASF74
 2315 06d9 03       		.byte	0x3
 2316 06da 1001     		.2byte	0x110
 2317 06dc 00000000 		.4byte	.LFB48
 2318 06e0 14000000 		.4byte	.LFE48-.LFB48
 2319 06e4 01       		.uleb128 0x1
 2320 06e5 9C       		.byte	0x9c
 2321 06e6 09070000 		.4byte	0x709
 2322 06ea 1F       		.uleb128 0x1f
 2323 06eb D4010000 		.4byte	.LASF66
 2324 06ef 03       		.byte	0x3
 2325 06f0 1001     		.2byte	0x110
 2326 06f2 81000000 		.4byte	0x81
 2327 06f6 01       		.uleb128 0x1
 2328 06f7 50       		.byte	0x50
 2329 06f8 20       		.uleb128 0x20
 2330 06f9 7A050000 		.4byte	.LASF68
 2331 06fd 03       		.byte	0x3
 2332 06fe 1201     		.2byte	0x112
 2333 0700 81000000 		.4byte	0x81
 2334 0704 80000000 		.4byte	.LLST5
 2335 0708 00       		.byte	0
 2336 0709 15       		.uleb128 0x15
 2337 070a FC020000 		.4byte	0x2fc
 2338 070e 00000000 		.4byte	.LFB49
 2339 0712 0C000000 		.4byte	.LFE49-.LFB49
 2340 0716 01       		.uleb128 0x1
 2341 0717 9C       		.byte	0x9c
 2342 0718 24070000 		.4byte	0x724
 2343 071c 21       		.uleb128 0x21
 2344 071d 09030000 		.4byte	0x309
 2345 0721 01       		.uleb128 0x1
 2346 0722 50       		.byte	0x50
 2347 0723 00       		.byte	0
 2348 0724 22       		.uleb128 0x22
 2349 0725 A0000000 		.4byte	.LASF76
 2350 0729 03       		.byte	0x3
 2351 072a B902     		.2byte	0x2b9
 2352 072c 00000000 		.4byte	.LFB52
 2353 0730 3C000000 		.4byte	.LFE52-.LFB52
 2354 0734 01       		.uleb128 0x1
 2355 0735 9C       		.byte	0x9c
 2356 0736 11       		.uleb128 0x11
 2357 0737 1B070000 		.4byte	.LASF77
 2358 073b 01       		.byte	0x1
 2359 073c 7A       		.byte	0x7a
 2360 073d 00000000 		.4byte	.LFB58
 2361 0741 20000000 		.4byte	.LFE58-.LFB58
 2362 0745 01       		.uleb128 0x1
 2363 0746 9C       		.byte	0x9c
 2364 0747 9B070000 		.4byte	0x79b
 2365 074b 1B       		.uleb128 0x1b
ARM GAS  C:\Users\kevin\AppData\Local\Temp\ccrZUpt9.s 			page 74


 2366 074c C0020000 		.4byte	0x2c0
 2367 0750 02000000 		.4byte	.LBB42
 2368 0754 04000000 		.4byte	.LBE42-.LBB42
 2369 0758 01       		.byte	0x1
 2370 0759 7C       		.byte	0x7c
 2371 075a 68070000 		.4byte	0x768
 2372 075e 14       		.uleb128 0x14
 2373 075f 06000000 		.4byte	.LVL52
 2374 0763 960D0000 		.4byte	0xd96
 2375 0767 00       		.byte	0
 2376 0768 23       		.uleb128 0x23
 2377 0769 E2020000 		.4byte	0x2e2
 2378 076d 0E000000 		.4byte	.LBB44
 2379 0771 00000000 		.4byte	.Ldebug_ranges0+0
 2380 0775 01       		.byte	0x1
 2381 0776 7F       		.byte	0x7f
 2382 0777 88070000 		.4byte	0x788
 2383 077b 21       		.uleb128 0x21
 2384 077c EF020000 		.4byte	0x2ef
 2385 0780 06       		.uleb128 0x6
 2386 0781 03       		.byte	0x3
 2387 0782 00000000 		.4byte	UART_ISR_0_FUN
 2388 0786 9F       		.byte	0x9f
 2389 0787 00       		.byte	0
 2390 0788 14       		.uleb128 0x14
 2391 0789 0A000000 		.4byte	.LVL53
 2392 078d 96040000 		.4byte	0x496
 2393 0791 14       		.uleb128 0x14
 2394 0792 0E000000 		.4byte	.LVL54
 2395 0796 CB040000 		.4byte	0x4cb
 2396 079a 00       		.byte	0
 2397 079b 11       		.uleb128 0x11
 2398 079c 0E030000 		.4byte	.LASF78
 2399 07a0 01       		.byte	0x1
 2400 07a1 84       		.byte	0x84
 2401 07a2 00000000 		.4byte	.LFB59
 2402 07a6 20000000 		.4byte	.LFE59-.LFB59
 2403 07aa 01       		.uleb128 0x1
 2404 07ab 9C       		.byte	0x9c
 2405 07ac 00080000 		.4byte	0x800
 2406 07b0 1B       		.uleb128 0x1b
 2407 07b1 D1020000 		.4byte	0x2d1
 2408 07b5 02000000 		.4byte	.LBB48
 2409 07b9 04000000 		.4byte	.LBE48-.LBB48
 2410 07bd 01       		.byte	0x1
 2411 07be 86       		.byte	0x86
 2412 07bf CD070000 		.4byte	0x7cd
 2413 07c3 14       		.uleb128 0x14
 2414 07c4 06000000 		.4byte	.LVL55
 2415 07c8 BF0D0000 		.4byte	0xdbf
 2416 07cc 00       		.byte	0
 2417 07cd 23       		.uleb128 0x23
 2418 07ce FC020000 		.4byte	0x2fc
 2419 07d2 0E000000 		.4byte	.LBB50
 2420 07d6 18000000 		.4byte	.Ldebug_ranges0+0x18
 2421 07da 01       		.byte	0x1
 2422 07db 89       		.byte	0x89
ARM GAS  C:\Users\kevin\AppData\Local\Temp\ccrZUpt9.s 			page 75


 2423 07dc ED070000 		.4byte	0x7ed
 2424 07e0 21       		.uleb128 0x21
 2425 07e1 09030000 		.4byte	0x309
 2426 07e5 06       		.uleb128 0x6
 2427 07e6 03       		.byte	0x3
 2428 07e7 00000000 		.4byte	UART_ISR_1_FUN
 2429 07eb 9F       		.byte	0x9f
 2430 07ec 00       		.byte	0
 2431 07ed 14       		.uleb128 0x14
 2432 07ee 0A000000 		.4byte	.LVL56
 2433 07f2 F9050000 		.4byte	0x5f9
 2434 07f6 14       		.uleb128 0x14
 2435 07f7 0E000000 		.4byte	.LVL57
 2436 07fb 2E060000 		.4byte	0x62e
 2437 07ff 00       		.byte	0
 2438 0800 11       		.uleb128 0x11
 2439 0801 20030000 		.4byte	.LASF79
 2440 0805 01       		.byte	0x1
 2441 0806 8E       		.byte	0x8e
 2442 0807 00000000 		.4byte	.LFB60
 2443 080b 1C000000 		.4byte	.LFE60-.LFB60
 2444 080f 01       		.uleb128 0x1
 2445 0810 9C       		.byte	0x9c
 2446 0811 52080000 		.4byte	0x852
 2447 0815 14       		.uleb128 0x14
 2448 0816 06000000 		.4byte	.LVL58
 2449 081a 500D0000 		.4byte	0xd50
 2450 081e 12       		.uleb128 0x12
 2451 081f 0C000000 		.4byte	.LVL59
 2452 0823 C60D0000 		.4byte	0xdc6
 2453 0827 35080000 		.4byte	0x835
 2454 082b 13       		.uleb128 0x13
 2455 082c 01       		.uleb128 0x1
 2456 082d 50       		.byte	0x50
 2457 082e 05       		.uleb128 0x5
 2458 082f 03       		.byte	0x3
 2459 0830 00000000 		.4byte	V24ISR
 2460 0834 00       		.byte	0
 2461 0835 12       		.uleb128 0x12
 2462 0836 12000000 		.4byte	.LVL60
 2463 083a D70D0000 		.4byte	0xdd7
 2464 083e 48080000 		.4byte	0x848
 2465 0842 13       		.uleb128 0x13
 2466 0843 01       		.uleb128 0x1
 2467 0844 50       		.byte	0x50
 2468 0845 01       		.uleb128 0x1
 2469 0846 31       		.byte	0x31
 2470 0847 00       		.byte	0
 2471 0848 14       		.uleb128 0x14
 2472 0849 16000000 		.4byte	.LVL61
 2473 084d 620D0000 		.4byte	0xd62
 2474 0851 00       		.byte	0
 2475 0852 11       		.uleb128 0x11
 2476 0853 CB000000 		.4byte	.LASF80
 2477 0857 01       		.byte	0x1
 2478 0858 9F       		.byte	0x9f
 2479 0859 00000000 		.4byte	.LFB61
ARM GAS  C:\Users\kevin\AppData\Local\Temp\ccrZUpt9.s 			page 76


 2480 085d 1C000000 		.4byte	.LFE61-.LFB61
 2481 0861 01       		.uleb128 0x1
 2482 0862 9C       		.byte	0x9c
 2483 0863 A4080000 		.4byte	0x8a4
 2484 0867 14       		.uleb128 0x14
 2485 0868 06000000 		.4byte	.LVL62
 2486 086c E80D0000 		.4byte	0xde8
 2487 0870 12       		.uleb128 0x12
 2488 0871 0C000000 		.4byte	.LVL63
 2489 0875 EF0D0000 		.4byte	0xdef
 2490 0879 87080000 		.4byte	0x887
 2491 087d 13       		.uleb128 0x13
 2492 087e 01       		.uleb128 0x1
 2493 087f 50       		.byte	0x50
 2494 0880 05       		.uleb128 0x5
 2495 0881 03       		.byte	0x3
 2496 0882 00000000 		.4byte	isr_lowpower_Interrupt
 2497 0886 00       		.byte	0
 2498 0887 12       		.uleb128 0x12
 2499 0888 12000000 		.4byte	.LVL64
 2500 088c 000E0000 		.4byte	0xe00
 2501 0890 9A080000 		.4byte	0x89a
 2502 0894 13       		.uleb128 0x13
 2503 0895 01       		.uleb128 0x1
 2504 0896 50       		.byte	0x50
 2505 0897 01       		.uleb128 0x1
 2506 0898 30       		.byte	0x30
 2507 0899 00       		.byte	0
 2508 089a 14       		.uleb128 0x14
 2509 089b 16000000 		.4byte	.LVL65
 2510 089f 110E0000 		.4byte	0xe11
 2511 08a3 00       		.byte	0
 2512 08a4 11       		.uleb128 0x11
 2513 08a5 3B000000 		.4byte	.LASF81
 2514 08a9 01       		.byte	0x1
 2515 08aa AE       		.byte	0xae
 2516 08ab 00000000 		.4byte	.LFB62
 2517 08af 40000000 		.4byte	.LFE62-.LFB62
 2518 08b3 01       		.uleb128 0x1
 2519 08b4 9C       		.byte	0x9c
 2520 08b5 58090000 		.4byte	0x958
 2521 08b9 12       		.uleb128 0x12
 2522 08ba 0A000000 		.4byte	.LVL66
 2523 08be 180E0000 		.4byte	0xe18
 2524 08c2 D5080000 		.4byte	0x8d5
 2525 08c6 13       		.uleb128 0x13
 2526 08c7 01       		.uleb128 0x1
 2527 08c8 51       		.byte	0x51
 2528 08c9 05       		.uleb128 0x5
 2529 08ca 03       		.byte	0x3
 2530 08cb 00000000 		.4byte	isr_wdt
 2531 08cf 13       		.uleb128 0x13
 2532 08d0 01       		.uleb128 0x1
 2533 08d1 50       		.byte	0x50
 2534 08d2 01       		.uleb128 0x1
 2535 08d3 39       		.byte	0x39
 2536 08d4 00       		.byte	0
ARM GAS  C:\Users\kevin\AppData\Local\Temp\ccrZUpt9.s 			page 77


 2537 08d5 12       		.uleb128 0x12
 2538 08d6 10000000 		.4byte	.LVL67
 2539 08da 9D0D0000 		.4byte	0xd9d
 2540 08de E8080000 		.4byte	0x8e8
 2541 08e2 13       		.uleb128 0x13
 2542 08e3 01       		.uleb128 0x1
 2543 08e4 50       		.byte	0x50
 2544 08e5 01       		.uleb128 0x1
 2545 08e6 39       		.byte	0x39
 2546 08e7 00       		.byte	0
 2547 08e8 14       		.uleb128 0x14
 2548 08e9 14000000 		.4byte	.LVL68
 2549 08ed 320E0000 		.4byte	0xe32
 2550 08f1 12       		.uleb128 0x12
 2551 08f2 1C000000 		.4byte	.LVL69
 2552 08f6 390E0000 		.4byte	0xe39
 2553 08fa 09090000 		.4byte	0x909
 2554 08fe 13       		.uleb128 0x13
 2555 08ff 01       		.uleb128 0x1
 2556 0900 51       		.byte	0x51
 2557 0901 01       		.uleb128 0x1
 2558 0902 31       		.byte	0x31
 2559 0903 13       		.uleb128 0x13
 2560 0904 01       		.uleb128 0x1
 2561 0905 50       		.byte	0x50
 2562 0906 01       		.uleb128 0x1
 2563 0907 30       		.byte	0x30
 2564 0908 00       		.byte	0
 2565 0909 12       		.uleb128 0x12
 2566 090a 24000000 		.4byte	.LVL70
 2567 090e 4F0E0000 		.4byte	0xe4f
 2568 0912 23090000 		.4byte	0x923
 2569 0916 13       		.uleb128 0x13
 2570 0917 01       		.uleb128 0x1
 2571 0918 51       		.byte	0x51
 2572 0919 03       		.uleb128 0x3
 2573 091a 0A       		.byte	0xa
 2574 091b FFFF     		.2byte	0xffff
 2575 091d 13       		.uleb128 0x13
 2576 091e 01       		.uleb128 0x1
 2577 091f 50       		.byte	0x50
 2578 0920 01       		.uleb128 0x1
 2579 0921 30       		.byte	0x30
 2580 0922 00       		.byte	0
 2581 0923 12       		.uleb128 0x12
 2582 0924 2C000000 		.4byte	.LVL71
 2583 0928 650E0000 		.4byte	0xe65
 2584 092c 3B090000 		.4byte	0x93b
 2585 0930 13       		.uleb128 0x13
 2586 0931 01       		.uleb128 0x1
 2587 0932 51       		.byte	0x51
 2588 0933 01       		.uleb128 0x1
 2589 0934 31       		.byte	0x31
 2590 0935 13       		.uleb128 0x13
 2591 0936 01       		.uleb128 0x1
 2592 0937 50       		.byte	0x50
 2593 0938 01       		.uleb128 0x1
ARM GAS  C:\Users\kevin\AppData\Local\Temp\ccrZUpt9.s 			page 78


 2594 0939 30       		.byte	0x30
 2595 093a 00       		.byte	0
 2596 093b 12       		.uleb128 0x12
 2597 093c 32000000 		.4byte	.LVL72
 2598 0940 7B0E0000 		.4byte	0xe7b
 2599 0944 4E090000 		.4byte	0x94e
 2600 0948 13       		.uleb128 0x13
 2601 0949 01       		.uleb128 0x1
 2602 094a 50       		.byte	0x50
 2603 094b 01       		.uleb128 0x1
 2604 094c 31       		.byte	0x31
 2605 094d 00       		.byte	0
 2606 094e 14       		.uleb128 0x14
 2607 094f 36000000 		.4byte	.LVL73
 2608 0953 8C0E0000 		.4byte	0xe8c
 2609 0957 00       		.byte	0
 2610 0958 24       		.uleb128 0x24
 2611 0959 18090000 		.4byte	.LASF82
 2612 095d 01       		.byte	0x1
 2613 095e BA       		.byte	0xba
 2614 095f 5D000000 		.4byte	0x5d
 2615 0963 00000000 		.4byte	.LFB63
 2616 0967 2C010000 		.4byte	.LFE63-.LFB63
 2617 096b 01       		.uleb128 0x1
 2618 096c 9C       		.byte	0x9c
 2619 096d 9B0A0000 		.4byte	0xa9b
 2620 0971 25       		.uleb128 0x25
 2621 0972 696A00   		.ascii	"ij\000"
 2622 0975 01       		.byte	0x1
 2623 0976 BC       		.byte	0xbc
 2624 0977 6B000000 		.4byte	0x6b
 2625 097b 9E000000 		.4byte	.LLST6
 2626 097f 12       		.uleb128 0x12
 2627 0980 0A000000 		.4byte	.LVL74
 2628 0984 930E0000 		.4byte	0xe93
 2629 0988 94090000 		.4byte	0x994
 2630 098c 13       		.uleb128 0x13
 2631 098d 01       		.uleb128 0x1
 2632 098e 50       		.byte	0x50
 2633 098f 03       		.uleb128 0x3
 2634 0990 0A       		.byte	0xa
 2635 0991 E803     		.2byte	0x3e8
 2636 0993 00       		.byte	0
 2637 0994 14       		.uleb128 0x14
 2638 0995 0E000000 		.4byte	.LVL75
 2639 0999 A40E0000 		.4byte	0xea4
 2640 099d 14       		.uleb128 0x14
 2641 099e 12000000 		.4byte	.LVL76
 2642 09a2 AB0E0000 		.4byte	0xeab
 2643 09a6 14       		.uleb128 0x14
 2644 09a7 16000000 		.4byte	.LVL77
 2645 09ab B20E0000 		.4byte	0xeb2
 2646 09af 14       		.uleb128 0x14
 2647 09b0 1C000000 		.4byte	.LVL78
 2648 09b4 B90E0000 		.4byte	0xeb9
 2649 09b8 14       		.uleb128 0x14
 2650 09b9 20000000 		.4byte	.LVL79
ARM GAS  C:\Users\kevin\AppData\Local\Temp\ccrZUpt9.s 			page 79


 2651 09bd C00E0000 		.4byte	0xec0
 2652 09c1 14       		.uleb128 0x14
 2653 09c2 24000000 		.4byte	.LVL80
 2654 09c6 C70E0000 		.4byte	0xec7
 2655 09ca 14       		.uleb128 0x14
 2656 09cb 2E000000 		.4byte	.LVL81
 2657 09cf CF0E0000 		.4byte	0xecf
 2658 09d3 14       		.uleb128 0x14
 2659 09d4 32000000 		.4byte	.LVL82
 2660 09d8 52080000 		.4byte	0x852
 2661 09dc 14       		.uleb128 0x14
 2662 09dd 36000000 		.4byte	.LVL83
 2663 09e1 36070000 		.4byte	0x736
 2664 09e5 14       		.uleb128 0x14
 2665 09e6 3A000000 		.4byte	.LVL84
 2666 09ea 9B070000 		.4byte	0x79b
 2667 09ee 14       		.uleb128 0x14
 2668 09ef 3E000000 		.4byte	.LVL85
 2669 09f3 A4080000 		.4byte	0x8a4
 2670 09f7 12       		.uleb128 0x12
 2671 09f8 44000000 		.4byte	.LVL86
 2672 09fc D70E0000 		.4byte	0xed7
 2673 0a00 0A0A0000 		.4byte	0xa0a
 2674 0a04 13       		.uleb128 0x13
 2675 0a05 01       		.uleb128 0x1
 2676 0a06 50       		.byte	0x50
 2677 0a07 01       		.uleb128 0x1
 2678 0a08 34       		.byte	0x34
 2679 0a09 00       		.byte	0
 2680 0a0a 14       		.uleb128 0x14
 2681 0a0b 66000000 		.4byte	.LVL91
 2682 0a0f E80E0000 		.4byte	0xee8
 2683 0a13 14       		.uleb128 0x14
 2684 0a14 76000000 		.4byte	.LVL92
 2685 0a18 7E0D0000 		.4byte	0xd7e
 2686 0a1c 14       		.uleb128 0x14
 2687 0a1d 7A000000 		.4byte	.LVL93
 2688 0a21 030F0000 		.4byte	0xf03
 2689 0a25 14       		.uleb128 0x14
 2690 0a26 A2000000 		.4byte	.LVL94
 2691 0a2a 7E0D0000 		.4byte	0xd7e
 2692 0a2e 14       		.uleb128 0x14
 2693 0a2f A6000000 		.4byte	.LVL95
 2694 0a33 0A0F0000 		.4byte	0xf0a
 2695 0a37 14       		.uleb128 0x14
 2696 0a38 AA000000 		.4byte	.LVL96
 2697 0a3c 7E0D0000 		.4byte	0xd7e
 2698 0a40 14       		.uleb128 0x14
 2699 0a41 AE000000 		.4byte	.LVL97
 2700 0a45 120F0000 		.4byte	0xf12
 2701 0a49 14       		.uleb128 0x14
 2702 0a4a B2000000 		.4byte	.LVL98
 2703 0a4e 190F0000 		.4byte	0xf19
 2704 0a52 14       		.uleb128 0x14
 2705 0a53 B6000000 		.4byte	.LVL99
 2706 0a57 7E0D0000 		.4byte	0xd7e
 2707 0a5b 14       		.uleb128 0x14
ARM GAS  C:\Users\kevin\AppData\Local\Temp\ccrZUpt9.s 			page 80


 2708 0a5c BA000000 		.4byte	.LVL100
 2709 0a60 200F0000 		.4byte	0xf20
 2710 0a64 14       		.uleb128 0x14
 2711 0a65 BE000000 		.4byte	.LVL101
 2712 0a69 280F0000 		.4byte	0xf28
 2713 0a6d 14       		.uleb128 0x14
 2714 0a6e C2000000 		.4byte	.LVL102
 2715 0a72 7E0D0000 		.4byte	0xd7e
 2716 0a76 14       		.uleb128 0x14
 2717 0a77 C6000000 		.4byte	.LVL103
 2718 0a7b 2F0F0000 		.4byte	0xf2f
 2719 0a7f 14       		.uleb128 0x14
 2720 0a80 CA000000 		.4byte	.LVL104
 2721 0a84 7E0D0000 		.4byte	0xd7e
 2722 0a88 14       		.uleb128 0x14
 2723 0a89 F6000000 		.4byte	.LVL105
 2724 0a8d 00080000 		.4byte	0x800
 2725 0a91 14       		.uleb128 0x14
 2726 0a92 FA000000 		.4byte	.LVL106
 2727 0a96 360F0000 		.4byte	0xf36
 2728 0a9a 00       		.byte	0
 2729 0a9b 26       		.uleb128 0x26
 2730 0a9c 73040000 		.4byte	.LASF83
 2731 0aa0 03       		.byte	0x3
 2732 0aa1 42       		.byte	0x42
 2733 0aa2 6B000000 		.4byte	0x6b
 2734 0aa6 05       		.uleb128 0x5
 2735 0aa7 03       		.byte	0x3
 2736 0aa8 00000000 		.4byte	UART_1_initVar
 2737 0aac 26       		.uleb128 0x26
 2738 0aad 6F070000 		.4byte	.LASF84
 2739 0ab1 03       		.byte	0x3
 2740 0ab2 45       		.byte	0x45
 2741 0ab3 B2000000 		.4byte	0xb2
 2742 0ab7 05       		.uleb128 0x5
 2743 0ab8 03       		.byte	0x3
 2744 0ab9 00000000 		.4byte	UART_1_customIntrHandler
 2745 0abd 26       		.uleb128 0x26
 2746 0abe F8010000 		.4byte	.LASF85
 2747 0ac2 02       		.byte	0x2
 2748 0ac3 42       		.byte	0x42
 2749 0ac4 6B000000 		.4byte	0x6b
 2750 0ac8 05       		.uleb128 0x5
 2751 0ac9 03       		.byte	0x3
 2752 0aca 00000000 		.4byte	UART_0_initVar
 2753 0ace 26       		.uleb128 0x26
 2754 0acf BD080000 		.4byte	.LASF86
 2755 0ad3 02       		.byte	0x2
 2756 0ad4 45       		.byte	0x45
 2757 0ad5 B2000000 		.4byte	0xb2
 2758 0ad9 05       		.uleb128 0x5
 2759 0ada 03       		.byte	0x3
 2760 0adb 00000000 		.4byte	UART_0_customIntrHandler
 2761 0adf 26       		.uleb128 0x26
 2762 0ae0 7C030000 		.4byte	.LASF87
 2763 0ae4 01       		.byte	0x1
 2764 0ae5 17       		.byte	0x17
ARM GAS  C:\Users\kevin\AppData\Local\Temp\ccrZUpt9.s 			page 81


 2765 0ae6 6B000000 		.4byte	0x6b
 2766 0aea 05       		.uleb128 0x5
 2767 0aeb 03       		.byte	0x3
 2768 0aec 00000000 		.4byte	BUZfkg
 2769 0af0 26       		.uleb128 0x26
 2770 0af1 DA050000 		.4byte	.LASF88
 2771 0af5 01       		.byte	0x1
 2772 0af6 17       		.byte	0x17
 2773 0af7 6B000000 		.4byte	0x6b
 2774 0afb 05       		.uleb128 0x5
 2775 0afc 03       		.byte	0x3
 2776 0afd 00000000 		.4byte	qushui_BUZcnt
 2777 0b01 26       		.uleb128 0x26
 2778 0b02 0D000000 		.4byte	.LASF89
 2779 0b06 01       		.byte	0x1
 2780 0b07 17       		.byte	0x17
 2781 0b08 6B000000 		.4byte	0x6b
 2782 0b0c 05       		.uleb128 0x5
 2783 0b0d 03       		.byte	0x3
 2784 0b0e 00000000 		.4byte	BUZfkgtemp
 2785 0b12 26       		.uleb128 0x26
 2786 0b13 34080000 		.4byte	.LASF90
 2787 0b17 01       		.byte	0x1
 2788 0b18 17       		.byte	0x17
 2789 0b19 6B000000 		.4byte	0x6b
 2790 0b1d 05       		.uleb128 0x5
 2791 0b1e 03       		.byte	0x3
 2792 0b1f 00000000 		.4byte	BUZqueshuifkg
 2793 0b23 26       		.uleb128 0x26
 2794 0b24 95070000 		.4byte	.LASF91
 2795 0b28 01       		.byte	0x1
 2796 0b29 17       		.byte	0x17
 2797 0b2a 6B000000 		.4byte	0x6b
 2798 0b2e 05       		.uleb128 0x5
 2799 0b2f 03       		.byte	0x3
 2800 0b30 00000000 		.4byte	standkeyfig
 2801 0b34 27       		.uleb128 0x27
 2802 0b35 BA030000 		.4byte	.LASF92
 2803 0b39 05       		.byte	0x5
 2804 0b3a 2B       		.byte	0x2b
 2805 0b3b 6B000000 		.4byte	0x6b
 2806 0b3f 27       		.uleb128 0x27
 2807 0b40 5F000000 		.4byte	.LASF93
 2808 0b44 05       		.byte	0x5
 2809 0b45 2C       		.byte	0x2c
 2810 0b46 6B000000 		.4byte	0x6b
 2811 0b4a 27       		.uleb128 0x27
 2812 0b4b 00030000 		.4byte	.LASF94
 2813 0b4f 05       		.byte	0x5
 2814 0b50 2D       		.byte	0x2d
 2815 0b51 6B000000 		.4byte	0x6b
 2816 0b55 26       		.uleb128 0x26
 2817 0b56 A7060000 		.4byte	.LASF95
 2818 0b5a 01       		.byte	0x1
 2819 0b5b 15       		.byte	0x15
 2820 0b5c 6B000000 		.4byte	0x6b
 2821 0b60 05       		.uleb128 0x5
ARM GAS  C:\Users\kevin\AppData\Local\Temp\ccrZUpt9.s 			page 82


 2822 0b61 03       		.byte	0x3
 2823 0b62 00000000 		.4byte	NbPressCnt
 2824 0b66 26       		.uleb128 0x26
 2825 0b67 76030000 		.4byte	.LASF96
 2826 0b6b 01       		.byte	0x1
 2827 0b6c 15       		.byte	0x15
 2828 0b6d 6B000000 		.4byte	0x6b
 2829 0b71 05       		.uleb128 0x5
 2830 0b72 03       		.byte	0x3
 2831 0b73 00000000 		.4byte	NBfig
 2832 0b77 26       		.uleb128 0x26
 2833 0b78 DB060000 		.4byte	.LASF97
 2834 0b7c 01       		.byte	0x1
 2835 0b7d 15       		.byte	0x15
 2836 0b7e 6B000000 		.4byte	0x6b
 2837 0b82 05       		.uleb128 0x5
 2838 0b83 03       		.byte	0x3
 2839 0b84 00000000 		.4byte	NBPressCnt
 2840 0b88 26       		.uleb128 0x26
 2841 0b89 08040000 		.4byte	.LASF98
 2842 0b8d 01       		.byte	0x1
 2843 0b8e 15       		.byte	0x15
 2844 0b8f 6B000000 		.4byte	0x6b
 2845 0b93 05       		.uleb128 0x5
 2846 0b94 03       		.byte	0x3
 2847 0b95 00000000 		.4byte	NBPressStart
 2848 0b99 26       		.uleb128 0x26
 2849 0b9a AA050000 		.4byte	.LASF99
 2850 0b9e 01       		.byte	0x1
 2851 0b9f 15       		.byte	0x15
 2852 0ba0 6B000000 		.4byte	0x6b
 2853 0ba4 05       		.uleb128 0x5
 2854 0ba5 03       		.byte	0x3
 2855 0ba6 00000000 		.4byte	lXXZcnt_fig
 2856 0baa 26       		.uleb128 0x26
 2857 0bab B6050000 		.4byte	.LASF100
 2858 0baf 01       		.byte	0x1
 2859 0bb0 1B       		.byte	0x1b
 2860 0bb1 6B000000 		.4byte	0x6b
 2861 0bb5 05       		.uleb128 0x5
 2862 0bb6 03       		.byte	0x3
 2863 0bb7 00000000 		.4byte	TimeBase_Interrupt_CountOne
 2864 0bbb 26       		.uleb128 0x26
 2865 0bbc 63010000 		.4byte	.LASF101
 2866 0bc0 01       		.byte	0x1
 2867 0bc1 1B       		.byte	0x1b
 2868 0bc2 6B000000 		.4byte	0x6b
 2869 0bc6 05       		.uleb128 0x5
 2870 0bc7 03       		.byte	0x3
 2871 0bc8 00000000 		.4byte	TimeBase_Interrupt_CountTwo
 2872 0bcc 26       		.uleb128 0x26
 2873 0bcd 84090000 		.4byte	.LASF102
 2874 0bd1 01       		.byte	0x1
 2875 0bd2 1C       		.byte	0x1c
 2876 0bd3 76000000 		.4byte	0x76
 2877 0bd7 05       		.uleb128 0x5
 2878 0bd8 03       		.byte	0x3
ARM GAS  C:\Users\kevin\AppData\Local\Temp\ccrZUpt9.s 			page 83


 2879 0bd9 00000000 		.4byte	TimeBase_Interrupt_CountThree
 2880 0bdd 27       		.uleb128 0x27
 2881 0bde 83030000 		.4byte	.LASF103
 2882 0be2 05       		.byte	0x5
 2883 0be3 BE       		.byte	0xbe
 2884 0be4 CC000000 		.4byte	0xcc
 2885 0be8 28       		.uleb128 0x28
 2886 0be9 76000000 		.4byte	0x76
 2887 0bed F80B0000 		.4byte	0xbf8
 2888 0bf1 29       		.uleb128 0x29
 2889 0bf2 C5000000 		.4byte	0xc5
 2890 0bf6 0B       		.byte	0xb
 2891 0bf7 00       		.byte	0
 2892 0bf8 26       		.uleb128 0x26
 2893 0bf9 5E020000 		.4byte	.LASF104
 2894 0bfd 01       		.byte	0x1
 2895 0bfe 16       		.byte	0x16
 2896 0bff E80B0000 		.4byte	0xbe8
 2897 0c03 05       		.uleb128 0x5
 2898 0c04 03       		.byte	0x3
 2899 0c05 00000000 		.4byte	LvxinJishi
 2900 0c09 2A       		.uleb128 0x2a
 2901 0c0a 1E040000 		.4byte	.LASF105
 2902 0c0e 05       		.byte	0x5
 2903 0c0f 2001     		.2byte	0x120
 2904 0c11 6B000000 		.4byte	0x6b
 2905 0c15 2A       		.uleb128 0x2a
 2906 0c16 96080000 		.4byte	.LASF106
 2907 0c1a 05       		.byte	0x5
 2908 0c1b 2301     		.2byte	0x123
 2909 0c1d 6B000000 		.4byte	0x6b
 2910 0c21 2A       		.uleb128 0x2a
 2911 0c22 3B060000 		.4byte	.LASF107
 2912 0c26 05       		.byte	0x5
 2913 0c27 2601     		.2byte	0x126
 2914 0c29 76000000 		.4byte	0x76
 2915 0c2d 2A       		.uleb128 0x2a
 2916 0c2e 51020000 		.4byte	.LASF108
 2917 0c32 05       		.byte	0x5
 2918 0c33 2901     		.2byte	0x129
 2919 0c35 6B000000 		.4byte	0x6b
 2920 0c39 28       		.uleb128 0x28
 2921 0c3a 6B000000 		.4byte	0x6b
 2922 0c3e 490C0000 		.4byte	0xc49
 2923 0c42 29       		.uleb128 0x29
 2924 0c43 C5000000 		.4byte	0xc5
 2925 0c47 7F       		.byte	0x7f
 2926 0c48 00       		.byte	0
 2927 0c49 27       		.uleb128 0x27
 2928 0c4a B2060000 		.4byte	.LASF109
 2929 0c4e 06       		.byte	0x6
 2930 0c4f 6B       		.byte	0x6b
 2931 0c50 390C0000 		.4byte	0xc39
 2932 0c54 26       		.uleb128 0x26
 2933 0c55 7D000000 		.4byte	.LASF110
 2934 0c59 01       		.byte	0x1
 2935 0c5a 1A       		.byte	0x1a
ARM GAS  C:\Users\kevin\AppData\Local\Temp\ccrZUpt9.s 			page 84


 2936 0c5b 6B000000 		.4byte	0x6b
 2937 0c5f 05       		.uleb128 0x5
 2938 0c60 03       		.byte	0x3
 2939 0c61 00000000 		.4byte	Ack_Timer
 2940 0c65 26       		.uleb128 0x26
 2941 0c66 43040000 		.4byte	.LASF111
 2942 0c6a 01       		.byte	0x1
 2943 0c6b 13       		.byte	0x13
 2944 0c6c 6B000000 		.4byte	0x6b
 2945 0c70 05       		.uleb128 0x5
 2946 0c71 03       		.byte	0x3
 2947 0c72 00000000 		.4byte	UartRx
 2948 0c76 26       		.uleb128 0x26
 2949 0c77 AB090000 		.4byte	.LASF112
 2950 0c7b 01       		.byte	0x1
 2951 0c7c 13       		.byte	0x13
 2952 0c7d 6B000000 		.4byte	0x6b
 2953 0c81 05       		.uleb128 0x5
 2954 0c82 03       		.byte	0x3
 2955 0c83 00000000 		.4byte	BootloaderSign
 2956 0c87 2B       		.uleb128 0x2b
 2957 0c88 446C7900 		.ascii	"Dly\000"
 2958 0c8c 01       		.byte	0x1
 2959 0c8d 14       		.byte	0x14
 2960 0c8e 81000000 		.4byte	0x81
 2961 0c92 05       		.uleb128 0x5
 2962 0c93 03       		.byte	0x3
 2963 0c94 00000000 		.4byte	Dly
 2964 0c98 26       		.uleb128 0x26
 2965 0c99 D6060000 		.4byte	.LASF113
 2966 0c9d 01       		.byte	0x1
 2967 0c9e 14       		.byte	0x14
 2968 0c9f 81000000 		.4byte	0x81
 2969 0ca3 05       		.uleb128 0x5
 2970 0ca4 03       		.byte	0x3
 2971 0ca5 00000000 		.4byte	Dly1
 2972 0ca9 26       		.uleb128 0x26
 2973 0caa 00060000 		.4byte	.LASF114
 2974 0cae 01       		.byte	0x1
 2975 0caf 18       		.byte	0x18
 2976 0cb0 6B000000 		.4byte	0x6b
 2977 0cb4 05       		.uleb128 0x5
 2978 0cb5 03       		.byte	0x3
 2979 0cb6 00000000 		.4byte	dismode
 2980 0cba 26       		.uleb128 0x26
 2981 0cbb 60060000 		.4byte	.LASF115
 2982 0cbf 01       		.byte	0x1
 2983 0cc0 18       		.byte	0x18
 2984 0cc1 6B000000 		.4byte	0x6b
 2985 0cc5 05       		.uleb128 0x5
 2986 0cc6 03       		.byte	0x3
 2987 0cc7 00000000 		.4byte	V24fig
 2988 0ccb 26       		.uleb128 0x26
 2989 0ccc 18000000 		.4byte	.LASF116
 2990 0cd0 01       		.byte	0x1
 2991 0cd1 18       		.byte	0x18
 2992 0cd2 6B000000 		.4byte	0x6b
ARM GAS  C:\Users\kevin\AppData\Local\Temp\ccrZUpt9.s 			page 85


 2993 0cd6 05       		.uleb128 0x5
 2994 0cd7 03       		.byte	0x3
 2995 0cd8 00000000 		.4byte	V24dengdai
 2996 0cdc 26       		.uleb128 0x26
 2997 0cdd 42080000 		.4byte	.LASF117
 2998 0ce1 01       		.byte	0x1
 2999 0ce2 19       		.byte	0x19
 3000 0ce3 6B000000 		.4byte	0x6b
 3001 0ce7 05       		.uleb128 0x5
 3002 0ce8 03       		.byte	0x3
 3003 0ce9 00000000 		.4byte	V24Vcnt
 3004 0ced 2C       		.uleb128 0x2c
 3005 0cee 8C030000 		.4byte	.LASF118
 3006 0cf2 07       		.byte	0x7
 3007 0cf3 4B       		.byte	0x4b
 3008 0cf4 FE0C0000 		.4byte	0xcfe
 3009 0cf8 2D       		.uleb128 0x2d
 3010 0cf9 81000000 		.4byte	0x81
 3011 0cfd 00       		.byte	0
 3012 0cfe 2C       		.uleb128 0x2c
 3013 0cff 5C040000 		.4byte	.LASF119
 3014 0d03 07       		.byte	0x7
 3015 0d04 75       		.byte	0x75
 3016 0d05 0F0D0000 		.4byte	0xd0f
 3017 0d09 2D       		.uleb128 0x2d
 3018 0d0a 6B000000 		.4byte	0x6b
 3019 0d0e 00       		.byte	0
 3020 0d0f 2E       		.uleb128 0x2e
 3021 0d10 5B080000 		.4byte	.LASF120
 3022 0d14 07       		.byte	0x7
 3023 0d15 81       		.byte	0x81
 3024 0d16 2F       		.uleb128 0x2f
 3025 0d17 10060000 		.4byte	.LASF122
 3026 0d1b 09       		.byte	0x9
 3027 0d1c 5C01     		.2byte	0x15c
 3028 0d1e 81000000 		.4byte	0x81
 3029 0d22 2C       		.uleb128 0x2c
 3030 0d23 69020000 		.4byte	.LASF121
 3031 0d27 08       		.byte	0x8
 3032 0d28 E2       		.byte	0xe2
 3033 0d29 330D0000 		.4byte	0xd33
 3034 0d2d 2D       		.uleb128 0x2d
 3035 0d2e 6B000000 		.4byte	0x6b
 3036 0d32 00       		.byte	0
 3037 0d33 2F       		.uleb128 0x2f
 3038 0d34 B5010000 		.4byte	.LASF123
 3039 0d38 0A       		.byte	0xa
 3040 0d39 5C01     		.2byte	0x15c
 3041 0d3b 81000000 		.4byte	0x81
 3042 0d3f 2C       		.uleb128 0x2c
 3043 0d40 69050000 		.4byte	.LASF124
 3044 0d44 08       		.byte	0x8
 3045 0d45 D7       		.byte	0xd7
 3046 0d46 500D0000 		.4byte	0xd50
 3047 0d4a 2D       		.uleb128 0x2d
 3048 0d4b 6B000000 		.4byte	0x6b
 3049 0d4f 00       		.byte	0
ARM GAS  C:\Users\kevin\AppData\Local\Temp\ccrZUpt9.s 			page 86


 3050 0d50 2E       		.uleb128 0x2e
 3051 0d51 3E020000 		.4byte	.LASF125
 3052 0d55 0B       		.byte	0xb
 3053 0d56 25       		.byte	0x25
 3054 0d57 30       		.uleb128 0x30
 3055 0d58 EC060000 		.4byte	.LASF126
 3056 0d5c 0C       		.byte	0xc
 3057 0d5d 20       		.byte	0x20
 3058 0d5e 6B000000 		.4byte	0x6b
 3059 0d62 2E       		.uleb128 0x2e
 3060 0d63 4A040000 		.4byte	.LASF127
 3061 0d67 0B       		.byte	0xb
 3062 0d68 23       		.byte	0x23
 3063 0d69 2E       		.uleb128 0x2e
 3064 0d6a 08050000 		.4byte	.LASF128
 3065 0d6e 06       		.byte	0x6
 3066 0d6f 82       		.byte	0x82
 3067 0d70 2E       		.uleb128 0x2e
 3068 0d71 4A080000 		.4byte	.LASF129
 3069 0d75 06       		.byte	0x6
 3070 0d76 80       		.byte	0x80
 3071 0d77 2E       		.uleb128 0x2e
 3072 0d78 C8010000 		.4byte	.LASF130
 3073 0d7c 06       		.byte	0x6
 3074 0d7d 7D       		.byte	0x7d
 3075 0d7e 2E       		.uleb128 0x2e
 3076 0d7f 57060000 		.4byte	.LASF131
 3077 0d83 06       		.byte	0x6
 3078 0d84 84       		.byte	0x84
 3079 0d85 2C       		.uleb128 0x2c
 3080 0d86 BE020000 		.4byte	.LASF132
 3081 0d8a 07       		.byte	0x7
 3082 0d8b 7C       		.byte	0x7c
 3083 0d8c 960D0000 		.4byte	0xd96
 3084 0d90 2D       		.uleb128 0x2d
 3085 0d91 76000000 		.4byte	0x76
 3086 0d95 00       		.byte	0
 3087 0d96 2E       		.uleb128 0x2e
 3088 0d97 91020000 		.4byte	.LASF133
 3089 0d9b 0D       		.byte	0xd
 3090 0d9c 3F       		.byte	0x3f
 3091 0d9d 2C       		.uleb128 0x2c
 3092 0d9e E1080000 		.4byte	.LASF134
 3093 0da2 07       		.byte	0x7
 3094 0da3 70       		.byte	0x70
 3095 0da4 AE0D0000 		.4byte	0xdae
 3096 0da8 2D       		.uleb128 0x2d
 3097 0da9 6B000000 		.4byte	0x6b
 3098 0dad 00       		.byte	0
 3099 0dae 2C       		.uleb128 0x2c
 3100 0daf 12020000 		.4byte	.LASF135
 3101 0db3 07       		.byte	0x7
 3102 0db4 72       		.byte	0x72
 3103 0db5 BF0D0000 		.4byte	0xdbf
 3104 0db9 2D       		.uleb128 0x2d
 3105 0dba 6B000000 		.4byte	0x6b
 3106 0dbe 00       		.byte	0
ARM GAS  C:\Users\kevin\AppData\Local\Temp\ccrZUpt9.s 			page 87


 3107 0dbf 2E       		.uleb128 0x2e
 3108 0dc0 C0040000 		.4byte	.LASF136
 3109 0dc4 0E       		.byte	0xe
 3110 0dc5 3F       		.byte	0x3f
 3111 0dc6 2C       		.uleb128 0x2c
 3112 0dc7 D4020000 		.4byte	.LASF137
 3113 0dcb 0B       		.byte	0xb
 3114 0dcc 1D       		.byte	0x1d
 3115 0dcd D70D0000 		.4byte	0xdd7
 3116 0dd1 2D       		.uleb128 0x2d
 3117 0dd2 B2000000 		.4byte	0xb2
 3118 0dd6 00       		.byte	0
 3119 0dd7 2C       		.uleb128 0x2c
 3120 0dd8 93050000 		.4byte	.LASF138
 3121 0ddc 0B       		.byte	0xb
 3122 0ddd 20       		.byte	0x20
 3123 0dde E80D0000 		.4byte	0xde8
 3124 0de2 2D       		.uleb128 0x2d
 3125 0de3 6B000000 		.4byte	0x6b
 3126 0de7 00       		.byte	0
 3127 0de8 2E       		.uleb128 0x2e
 3128 0de9 37070000 		.4byte	.LASF139
 3129 0ded 0F       		.byte	0xf
 3130 0dee 25       		.byte	0x25
 3131 0def 2C       		.uleb128 0x2c
 3132 0df0 87000000 		.4byte	.LASF140
 3133 0df4 0F       		.byte	0xf
 3134 0df5 1D       		.byte	0x1d
 3135 0df6 000E0000 		.4byte	0xe00
 3136 0dfa 2D       		.uleb128 0x2d
 3137 0dfb B2000000 		.4byte	0xb2
 3138 0dff 00       		.byte	0
 3139 0e00 2C       		.uleb128 0x2c
 3140 0e01 C6030000 		.4byte	.LASF141
 3141 0e05 0F       		.byte	0xf
 3142 0e06 20       		.byte	0x20
 3143 0e07 110E0000 		.4byte	0xe11
 3144 0e0b 2D       		.uleb128 0x2d
 3145 0e0c 6B000000 		.4byte	0x6b
 3146 0e10 00       		.byte	0
 3147 0e11 2E       		.uleb128 0x2e
 3148 0e12 E6070000 		.4byte	.LASF142
 3149 0e16 0F       		.byte	0xf
 3150 0e17 23       		.byte	0x23
 3151 0e18 31       		.uleb128 0x31
 3152 0e19 E8040000 		.4byte	.LASF170
 3153 0e1d 07       		.byte	0x7
 3154 0e1e 6A       		.byte	0x6a
 3155 0e1f B2000000 		.4byte	0xb2
 3156 0e23 320E0000 		.4byte	0xe32
 3157 0e27 2D       		.uleb128 0x2d
 3158 0e28 6B000000 		.4byte	0x6b
 3159 0e2c 2D       		.uleb128 0x2d
 3160 0e2d B2000000 		.4byte	0xb2
 3161 0e31 00       		.byte	0
 3162 0e32 2E       		.uleb128 0x2e
 3163 0e33 AA040000 		.4byte	.LASF143
ARM GAS  C:\Users\kevin\AppData\Local\Temp\ccrZUpt9.s 			page 88


 3164 0e37 07       		.byte	0x7
 3165 0e38 3B       		.byte	0x3b
 3166 0e39 2C       		.uleb128 0x2c
 3167 0e3a AB080000 		.4byte	.LASF144
 3168 0e3e 07       		.byte	0x7
 3169 0e3f 3C       		.byte	0x3c
 3170 0e40 4F0E0000 		.4byte	0xe4f
 3171 0e44 2D       		.uleb128 0x2d
 3172 0e45 81000000 		.4byte	0x81
 3173 0e49 2D       		.uleb128 0x2d
 3174 0e4a 81000000 		.4byte	0x81
 3175 0e4e 00       		.byte	0
 3176 0e4f 2C       		.uleb128 0x2c
 3177 0e50 A6070000 		.4byte	.LASF145
 3178 0e54 07       		.byte	0x7
 3179 0e55 45       		.byte	0x45
 3180 0e56 650E0000 		.4byte	0xe65
 3181 0e5a 2D       		.uleb128 0x2d
 3182 0e5b 81000000 		.4byte	0x81
 3183 0e5f 2D       		.uleb128 0x2d
 3184 0e60 81000000 		.4byte	0x81
 3185 0e64 00       		.byte	0
 3186 0e65 2C       		.uleb128 0x2c
 3187 0e66 90040000 		.4byte	.LASF146
 3188 0e6a 07       		.byte	0x7
 3189 0e6b 3F       		.byte	0x3f
 3190 0e6c 7B0E0000 		.4byte	0xe7b
 3191 0e70 2D       		.uleb128 0x2d
 3192 0e71 81000000 		.4byte	0x81
 3193 0e75 2D       		.uleb128 0x2d
 3194 0e76 81000000 		.4byte	0x81
 3195 0e7a 00       		.byte	0
 3196 0e7b 2C       		.uleb128 0x2c
 3197 0e7c F6060000 		.4byte	.LASF147
 3198 0e80 07       		.byte	0x7
 3199 0e81 41       		.byte	0x41
 3200 0e82 8C0E0000 		.4byte	0xe8c
 3201 0e86 2D       		.uleb128 0x2d
 3202 0e87 81000000 		.4byte	0x81
 3203 0e8b 00       		.byte	0
 3204 0e8c 2E       		.uleb128 0x2e
 3205 0e8d 23000000 		.4byte	.LASF148
 3206 0e91 07       		.byte	0x7
 3207 0e92 3A       		.byte	0x3a
 3208 0e93 2C       		.uleb128 0x2c
 3209 0e94 00000000 		.4byte	.LASF149
 3210 0e98 07       		.byte	0x7
 3211 0e99 7B       		.byte	0x7b
 3212 0e9a A40E0000 		.4byte	0xea4
 3213 0e9e 2D       		.uleb128 0x2d
 3214 0e9f 81000000 		.4byte	0x81
 3215 0ea3 00       		.byte	0
 3216 0ea4 2E       		.uleb128 0x2e
 3217 0ea5 FC070000 		.4byte	.LASF150
 3218 0ea9 06       		.byte	0x6
 3219 0eaa 77       		.byte	0x77
 3220 0eab 2E       		.uleb128 0x2e
ARM GAS  C:\Users\kevin\AppData\Local\Temp\ccrZUpt9.s 			page 89


 3221 0eac A1070000 		.4byte	.LASF151
 3222 0eb0 06       		.byte	0x6
 3223 0eb1 7A       		.byte	0x7a
 3224 0eb2 2E       		.uleb128 0x2e
 3225 0eb3 7A060000 		.4byte	.LASF152
 3226 0eb7 06       		.byte	0x6
 3227 0eb8 7B       		.byte	0x7b
 3228 0eb9 2E       		.uleb128 0x2e
 3229 0eba 88070000 		.4byte	.LASF153
 3230 0ebe 06       		.byte	0x6
 3231 0ebf 34       		.byte	0x34
 3232 0ec0 2E       		.uleb128 0x2e
 3233 0ec1 83020000 		.4byte	.LASF154
 3234 0ec5 06       		.byte	0x6
 3235 0ec6 42       		.byte	0x42
 3236 0ec7 32       		.uleb128 0x32
 3237 0ec8 E1030000 		.4byte	.LASF155
 3238 0ecc 05       		.byte	0x5
 3239 0ecd 4A01     		.2byte	0x14a
 3240 0ecf 32       		.uleb128 0x32
 3241 0ed0 61070000 		.4byte	.LASF156
 3242 0ed4 05       		.byte	0x5
 3243 0ed5 4401     		.2byte	0x144
 3244 0ed7 2C       		.uleb128 0x2c
 3245 0ed8 DA010000 		.4byte	.LASF157
 3246 0edc 07       		.byte	0x7
 3247 0edd 5F       		.byte	0x5f
 3248 0ede E80E0000 		.4byte	0xee8
 3249 0ee2 2D       		.uleb128 0x2d
 3250 0ee3 81000000 		.4byte	0x81
 3251 0ee7 00       		.byte	0
 3252 0ee8 2C       		.uleb128 0x2c
 3253 0ee9 4E070000 		.4byte	.LASF158
 3254 0eed 10       		.byte	0x10
 3255 0eee 5B       		.byte	0x5b
 3256 0eef 030F0000 		.4byte	0xf03
 3257 0ef3 2D       		.uleb128 0x2d
 3258 0ef4 6B000000 		.4byte	0x6b
 3259 0ef8 2D       		.uleb128 0x2d
 3260 0ef9 6B000000 		.4byte	0x6b
 3261 0efd 2D       		.uleb128 0x2d
 3262 0efe 6B000000 		.4byte	0x6b
 3263 0f02 00       		.byte	0
 3264 0f03 2E       		.uleb128 0x2e
 3265 0f04 31040000 		.4byte	.LASF159
 3266 0f08 11       		.byte	0x11
 3267 0f09 58       		.byte	0x58
 3268 0f0a 32       		.uleb128 0x32
 3269 0f0b 80060000 		.4byte	.LASF160
 3270 0f0f 05       		.byte	0x5
 3271 0f10 4B01     		.2byte	0x14b
 3272 0f12 2E       		.uleb128 0x2e
 3273 0f13 81080000 		.4byte	.LASF161
 3274 0f17 06       		.byte	0x6
 3275 0f18 35       		.byte	0x35
 3276 0f19 2E       		.uleb128 0x2e
 3277 0f1a 1D090000 		.4byte	.LASF162
ARM GAS  C:\Users\kevin\AppData\Local\Temp\ccrZUpt9.s 			page 90


 3278 0f1e 05       		.byte	0x5
 3279 0f1f 32       		.byte	0x32
 3280 0f20 32       		.uleb128 0x32
 3281 0f21 A2090000 		.4byte	.LASF163
 3282 0f25 05       		.byte	0x5
 3283 0f26 3C01     		.2byte	0x13c
 3284 0f28 2E       		.uleb128 0x2e
 3285 0f29 BF060000 		.4byte	.LASF164
 3286 0f2d 05       		.byte	0x5
 3287 0f2e 22       		.byte	0x22
 3288 0f2f 2E       		.uleb128 0x2e
 3289 0f30 4B030000 		.4byte	.LASF165
 3290 0f34 08       		.byte	0x8
 3291 0f35 DC       		.byte	0xdc
 3292 0f36 2E       		.uleb128 0x2e
 3293 0f37 8B080000 		.4byte	.LASF166
 3294 0f3b 08       		.byte	0x8
 3295 0f3c E8       		.byte	0xe8
 3296 0f3d 00       		.byte	0
 3297              		.section	.debug_abbrev,"",%progbits
 3298              	.Ldebug_abbrev0:
 3299 0000 01       		.uleb128 0x1
 3300 0001 11       		.uleb128 0x11
 3301 0002 01       		.byte	0x1
 3302 0003 25       		.uleb128 0x25
 3303 0004 0E       		.uleb128 0xe
 3304 0005 13       		.uleb128 0x13
 3305 0006 0B       		.uleb128 0xb
 3306 0007 03       		.uleb128 0x3
 3307 0008 0E       		.uleb128 0xe
 3308 0009 1B       		.uleb128 0x1b
 3309 000a 0E       		.uleb128 0xe
 3310 000b 55       		.uleb128 0x55
 3311 000c 17       		.uleb128 0x17
 3312 000d 11       		.uleb128 0x11
 3313 000e 01       		.uleb128 0x1
 3314 000f 10       		.uleb128 0x10
 3315 0010 17       		.uleb128 0x17
 3316 0011 00       		.byte	0
 3317 0012 00       		.byte	0
 3318 0013 02       		.uleb128 0x2
 3319 0014 24       		.uleb128 0x24
 3320 0015 00       		.byte	0
 3321 0016 0B       		.uleb128 0xb
 3322 0017 0B       		.uleb128 0xb
 3323 0018 3E       		.uleb128 0x3e
 3324 0019 0B       		.uleb128 0xb
 3325 001a 03       		.uleb128 0x3
 3326 001b 0E       		.uleb128 0xe
 3327 001c 00       		.byte	0
 3328 001d 00       		.byte	0
 3329 001e 03       		.uleb128 0x3
 3330 001f 24       		.uleb128 0x24
 3331 0020 00       		.byte	0
 3332 0021 0B       		.uleb128 0xb
 3333 0022 0B       		.uleb128 0xb
 3334 0023 3E       		.uleb128 0x3e
ARM GAS  C:\Users\kevin\AppData\Local\Temp\ccrZUpt9.s 			page 91


 3335 0024 0B       		.uleb128 0xb
 3336 0025 03       		.uleb128 0x3
 3337 0026 08       		.uleb128 0x8
 3338 0027 00       		.byte	0
 3339 0028 00       		.byte	0
 3340 0029 04       		.uleb128 0x4
 3341 002a 16       		.uleb128 0x16
 3342 002b 00       		.byte	0
 3343 002c 03       		.uleb128 0x3
 3344 002d 0E       		.uleb128 0xe
 3345 002e 3A       		.uleb128 0x3a
 3346 002f 0B       		.uleb128 0xb
 3347 0030 3B       		.uleb128 0x3b
 3348 0031 0B       		.uleb128 0xb
 3349 0032 49       		.uleb128 0x49
 3350 0033 13       		.uleb128 0x13
 3351 0034 00       		.byte	0
 3352 0035 00       		.byte	0
 3353 0036 05       		.uleb128 0x5
 3354 0037 16       		.uleb128 0x16
 3355 0038 00       		.byte	0
 3356 0039 03       		.uleb128 0x3
 3357 003a 0E       		.uleb128 0xe
 3358 003b 3A       		.uleb128 0x3a
 3359 003c 0B       		.uleb128 0xb
 3360 003d 3B       		.uleb128 0x3b
 3361 003e 05       		.uleb128 0x5
 3362 003f 49       		.uleb128 0x49
 3363 0040 13       		.uleb128 0x13
 3364 0041 00       		.byte	0
 3365 0042 00       		.byte	0
 3366 0043 06       		.uleb128 0x6
 3367 0044 35       		.uleb128 0x35
 3368 0045 00       		.byte	0
 3369 0046 49       		.uleb128 0x49
 3370 0047 13       		.uleb128 0x13
 3371 0048 00       		.byte	0
 3372 0049 00       		.byte	0
 3373 004a 07       		.uleb128 0x7
 3374 004b 0F       		.uleb128 0xf
 3375 004c 00       		.byte	0
 3376 004d 0B       		.uleb128 0xb
 3377 004e 0B       		.uleb128 0xb
 3378 004f 49       		.uleb128 0x49
 3379 0050 13       		.uleb128 0x13
 3380 0051 00       		.byte	0
 3381 0052 00       		.byte	0
 3382 0053 08       		.uleb128 0x8
 3383 0054 15       		.uleb128 0x15
 3384 0055 00       		.byte	0
 3385 0056 27       		.uleb128 0x27
 3386 0057 19       		.uleb128 0x19
 3387 0058 00       		.byte	0
 3388 0059 00       		.byte	0
 3389 005a 09       		.uleb128 0x9
 3390 005b 13       		.uleb128 0x13
 3391 005c 01       		.byte	0x1
ARM GAS  C:\Users\kevin\AppData\Local\Temp\ccrZUpt9.s 			page 92


 3392 005d 0B       		.uleb128 0xb
 3393 005e 0B       		.uleb128 0xb
 3394 005f 3A       		.uleb128 0x3a
 3395 0060 0B       		.uleb128 0xb
 3396 0061 3B       		.uleb128 0x3b
 3397 0062 0B       		.uleb128 0xb
 3398 0063 01       		.uleb128 0x1
 3399 0064 13       		.uleb128 0x13
 3400 0065 00       		.byte	0
 3401 0066 00       		.byte	0
 3402 0067 0A       		.uleb128 0xa
 3403 0068 0D       		.uleb128 0xd
 3404 0069 00       		.byte	0
 3405 006a 03       		.uleb128 0x3
 3406 006b 0E       		.uleb128 0xe
 3407 006c 3A       		.uleb128 0x3a
 3408 006d 0B       		.uleb128 0xb
 3409 006e 3B       		.uleb128 0x3b
 3410 006f 0B       		.uleb128 0xb
 3411 0070 49       		.uleb128 0x49
 3412 0071 13       		.uleb128 0x13
 3413 0072 0B       		.uleb128 0xb
 3414 0073 0B       		.uleb128 0xb
 3415 0074 0D       		.uleb128 0xd
 3416 0075 0B       		.uleb128 0xb
 3417 0076 0C       		.uleb128 0xc
 3418 0077 0B       		.uleb128 0xb
 3419 0078 38       		.uleb128 0x38
 3420 0079 0B       		.uleb128 0xb
 3421 007a 00       		.byte	0
 3422 007b 00       		.byte	0
 3423 007c 0B       		.uleb128 0xb
 3424 007d 2E       		.uleb128 0x2e
 3425 007e 01       		.byte	0x1
 3426 007f 3F       		.uleb128 0x3f
 3427 0080 19       		.uleb128 0x19
 3428 0081 03       		.uleb128 0x3
 3429 0082 0E       		.uleb128 0xe
 3430 0083 3A       		.uleb128 0x3a
 3431 0084 0B       		.uleb128 0xb
 3432 0085 3B       		.uleb128 0x3b
 3433 0086 0B       		.uleb128 0xb
 3434 0087 27       		.uleb128 0x27
 3435 0088 19       		.uleb128 0x19
 3436 0089 20       		.uleb128 0x20
 3437 008a 0B       		.uleb128 0xb
 3438 008b 01       		.uleb128 0x1
 3439 008c 13       		.uleb128 0x13
 3440 008d 00       		.byte	0
 3441 008e 00       		.byte	0
 3442 008f 0C       		.uleb128 0xc
 3443 0090 34       		.uleb128 0x34
 3444 0091 00       		.byte	0
 3445 0092 03       		.uleb128 0x3
 3446 0093 0E       		.uleb128 0xe
 3447 0094 3A       		.uleb128 0x3a
 3448 0095 0B       		.uleb128 0xb
ARM GAS  C:\Users\kevin\AppData\Local\Temp\ccrZUpt9.s 			page 93


 3449 0096 3B       		.uleb128 0x3b
 3450 0097 0B       		.uleb128 0xb
 3451 0098 49       		.uleb128 0x49
 3452 0099 13       		.uleb128 0x13
 3453 009a 00       		.byte	0
 3454 009b 00       		.byte	0
 3455 009c 0D       		.uleb128 0xd
 3456 009d 2E       		.uleb128 0x2e
 3457 009e 00       		.byte	0
 3458 009f 3F       		.uleb128 0x3f
 3459 00a0 19       		.uleb128 0x19
 3460 00a1 03       		.uleb128 0x3
 3461 00a2 0E       		.uleb128 0xe
 3462 00a3 3A       		.uleb128 0x3a
 3463 00a4 0B       		.uleb128 0xb
 3464 00a5 3B       		.uleb128 0x3b
 3465 00a6 0B       		.uleb128 0xb
 3466 00a7 27       		.uleb128 0x27
 3467 00a8 19       		.uleb128 0x19
 3468 00a9 20       		.uleb128 0x20
 3469 00aa 0B       		.uleb128 0xb
 3470 00ab 00       		.byte	0
 3471 00ac 00       		.byte	0
 3472 00ad 0E       		.uleb128 0xe
 3473 00ae 2E       		.uleb128 0x2e
 3474 00af 00       		.byte	0
 3475 00b0 03       		.uleb128 0x3
 3476 00b1 0E       		.uleb128 0xe
 3477 00b2 3A       		.uleb128 0x3a
 3478 00b3 0B       		.uleb128 0xb
 3479 00b4 3B       		.uleb128 0x3b
 3480 00b5 05       		.uleb128 0x5
 3481 00b6 27       		.uleb128 0x27
 3482 00b7 19       		.uleb128 0x19
 3483 00b8 20       		.uleb128 0x20
 3484 00b9 0B       		.uleb128 0xb
 3485 00ba 00       		.byte	0
 3486 00bb 00       		.byte	0
 3487 00bc 0F       		.uleb128 0xf
 3488 00bd 2E       		.uleb128 0x2e
 3489 00be 01       		.byte	0x1
 3490 00bf 3F       		.uleb128 0x3f
 3491 00c0 19       		.uleb128 0x19
 3492 00c1 03       		.uleb128 0x3
 3493 00c2 0E       		.uleb128 0xe
 3494 00c3 3A       		.uleb128 0x3a
 3495 00c4 0B       		.uleb128 0xb
 3496 00c5 3B       		.uleb128 0x3b
 3497 00c6 05       		.uleb128 0x5
 3498 00c7 27       		.uleb128 0x27
 3499 00c8 19       		.uleb128 0x19
 3500 00c9 20       		.uleb128 0x20
 3501 00ca 0B       		.uleb128 0xb
 3502 00cb 01       		.uleb128 0x1
 3503 00cc 13       		.uleb128 0x13
 3504 00cd 00       		.byte	0
 3505 00ce 00       		.byte	0
ARM GAS  C:\Users\kevin\AppData\Local\Temp\ccrZUpt9.s 			page 94


 3506 00cf 10       		.uleb128 0x10
 3507 00d0 05       		.uleb128 0x5
 3508 00d1 00       		.byte	0
 3509 00d2 03       		.uleb128 0x3
 3510 00d3 0E       		.uleb128 0xe
 3511 00d4 3A       		.uleb128 0x3a
 3512 00d5 0B       		.uleb128 0xb
 3513 00d6 3B       		.uleb128 0x3b
 3514 00d7 05       		.uleb128 0x5
 3515 00d8 49       		.uleb128 0x49
 3516 00d9 13       		.uleb128 0x13
 3517 00da 00       		.byte	0
 3518 00db 00       		.byte	0
 3519 00dc 11       		.uleb128 0x11
 3520 00dd 2E       		.uleb128 0x2e
 3521 00de 01       		.byte	0x1
 3522 00df 3F       		.uleb128 0x3f
 3523 00e0 19       		.uleb128 0x19
 3524 00e1 03       		.uleb128 0x3
 3525 00e2 0E       		.uleb128 0xe
 3526 00e3 3A       		.uleb128 0x3a
 3527 00e4 0B       		.uleb128 0xb
 3528 00e5 3B       		.uleb128 0x3b
 3529 00e6 0B       		.uleb128 0xb
 3530 00e7 27       		.uleb128 0x27
 3531 00e8 19       		.uleb128 0x19
 3532 00e9 11       		.uleb128 0x11
 3533 00ea 01       		.uleb128 0x1
 3534 00eb 12       		.uleb128 0x12
 3535 00ec 06       		.uleb128 0x6
 3536 00ed 40       		.uleb128 0x40
 3537 00ee 18       		.uleb128 0x18
 3538 00ef 9742     		.uleb128 0x2117
 3539 00f1 19       		.uleb128 0x19
 3540 00f2 01       		.uleb128 0x1
 3541 00f3 13       		.uleb128 0x13
 3542 00f4 00       		.byte	0
 3543 00f5 00       		.byte	0
 3544 00f6 12       		.uleb128 0x12
 3545 00f7 898201   		.uleb128 0x4109
 3546 00fa 01       		.byte	0x1
 3547 00fb 11       		.uleb128 0x11
 3548 00fc 01       		.uleb128 0x1
 3549 00fd 31       		.uleb128 0x31
 3550 00fe 13       		.uleb128 0x13
 3551 00ff 01       		.uleb128 0x1
 3552 0100 13       		.uleb128 0x13
 3553 0101 00       		.byte	0
 3554 0102 00       		.byte	0
 3555 0103 13       		.uleb128 0x13
 3556 0104 8A8201   		.uleb128 0x410a
 3557 0107 00       		.byte	0
 3558 0108 02       		.uleb128 0x2
 3559 0109 18       		.uleb128 0x18
 3560 010a 9142     		.uleb128 0x2111
 3561 010c 18       		.uleb128 0x18
 3562 010d 00       		.byte	0
ARM GAS  C:\Users\kevin\AppData\Local\Temp\ccrZUpt9.s 			page 95


 3563 010e 00       		.byte	0
 3564 010f 14       		.uleb128 0x14
 3565 0110 898201   		.uleb128 0x4109
 3566 0113 00       		.byte	0
 3567 0114 11       		.uleb128 0x11
 3568 0115 01       		.uleb128 0x1
 3569 0116 31       		.uleb128 0x31
 3570 0117 13       		.uleb128 0x13
 3571 0118 00       		.byte	0
 3572 0119 00       		.byte	0
 3573 011a 15       		.uleb128 0x15
 3574 011b 2E       		.uleb128 0x2e
 3575 011c 01       		.byte	0x1
 3576 011d 31       		.uleb128 0x31
 3577 011e 13       		.uleb128 0x13
 3578 011f 11       		.uleb128 0x11
 3579 0120 01       		.uleb128 0x1
 3580 0121 12       		.uleb128 0x12
 3581 0122 06       		.uleb128 0x6
 3582 0123 40       		.uleb128 0x40
 3583 0124 18       		.uleb128 0x18
 3584 0125 9742     		.uleb128 0x2117
 3585 0127 19       		.uleb128 0x19
 3586 0128 01       		.uleb128 0x1
 3587 0129 13       		.uleb128 0x13
 3588 012a 00       		.byte	0
 3589 012b 00       		.byte	0
 3590 012c 16       		.uleb128 0x16
 3591 012d 34       		.uleb128 0x34
 3592 012e 00       		.byte	0
 3593 012f 31       		.uleb128 0x31
 3594 0130 13       		.uleb128 0x13
 3595 0131 02       		.uleb128 0x2
 3596 0132 17       		.uleb128 0x17
 3597 0133 00       		.byte	0
 3598 0134 00       		.byte	0
 3599 0135 17       		.uleb128 0x17
 3600 0136 0B       		.uleb128 0xb
 3601 0137 01       		.byte	0x1
 3602 0138 11       		.uleb128 0x11
 3603 0139 01       		.uleb128 0x1
 3604 013a 12       		.uleb128 0x12
 3605 013b 06       		.uleb128 0x6
 3606 013c 00       		.byte	0
 3607 013d 00       		.byte	0
 3608 013e 18       		.uleb128 0x18
 3609 013f 34       		.uleb128 0x34
 3610 0140 00       		.byte	0
 3611 0141 31       		.uleb128 0x31
 3612 0142 13       		.uleb128 0x13
 3613 0143 00       		.byte	0
 3614 0144 00       		.byte	0
 3615 0145 19       		.uleb128 0x19
 3616 0146 1D       		.uleb128 0x1d
 3617 0147 01       		.byte	0x1
 3618 0148 31       		.uleb128 0x31
 3619 0149 13       		.uleb128 0x13
ARM GAS  C:\Users\kevin\AppData\Local\Temp\ccrZUpt9.s 			page 96


 3620 014a 11       		.uleb128 0x11
 3621 014b 01       		.uleb128 0x1
 3622 014c 12       		.uleb128 0x12
 3623 014d 06       		.uleb128 0x6
 3624 014e 58       		.uleb128 0x58
 3625 014f 0B       		.uleb128 0xb
 3626 0150 59       		.uleb128 0x59
 3627 0151 0B       		.uleb128 0xb
 3628 0152 00       		.byte	0
 3629 0153 00       		.byte	0
 3630 0154 1A       		.uleb128 0x1a
 3631 0155 898201   		.uleb128 0x4109
 3632 0158 01       		.byte	0x1
 3633 0159 11       		.uleb128 0x11
 3634 015a 01       		.uleb128 0x1
 3635 015b 31       		.uleb128 0x31
 3636 015c 13       		.uleb128 0x13
 3637 015d 00       		.byte	0
 3638 015e 00       		.byte	0
 3639 015f 1B       		.uleb128 0x1b
 3640 0160 1D       		.uleb128 0x1d
 3641 0161 01       		.byte	0x1
 3642 0162 31       		.uleb128 0x31
 3643 0163 13       		.uleb128 0x13
 3644 0164 11       		.uleb128 0x11
 3645 0165 01       		.uleb128 0x1
 3646 0166 12       		.uleb128 0x12
 3647 0167 06       		.uleb128 0x6
 3648 0168 58       		.uleb128 0x58
 3649 0169 0B       		.uleb128 0xb
 3650 016a 59       		.uleb128 0x59
 3651 016b 0B       		.uleb128 0xb
 3652 016c 01       		.uleb128 0x1
 3653 016d 13       		.uleb128 0x13
 3654 016e 00       		.byte	0
 3655 016f 00       		.byte	0
 3656 0170 1C       		.uleb128 0x1c
 3657 0171 05       		.uleb128 0x5
 3658 0172 00       		.byte	0
 3659 0173 03       		.uleb128 0x3
 3660 0174 0E       		.uleb128 0xe
 3661 0175 3A       		.uleb128 0x3a
 3662 0176 0B       		.uleb128 0xb
 3663 0177 3B       		.uleb128 0x3b
 3664 0178 0B       		.uleb128 0xb
 3665 0179 49       		.uleb128 0x49
 3666 017a 13       		.uleb128 0x13
 3667 017b 02       		.uleb128 0x2
 3668 017c 18       		.uleb128 0x18
 3669 017d 00       		.byte	0
 3670 017e 00       		.byte	0
 3671 017f 1D       		.uleb128 0x1d
 3672 0180 34       		.uleb128 0x34
 3673 0181 00       		.byte	0
 3674 0182 03       		.uleb128 0x3
 3675 0183 0E       		.uleb128 0xe
 3676 0184 3A       		.uleb128 0x3a
ARM GAS  C:\Users\kevin\AppData\Local\Temp\ccrZUpt9.s 			page 97


 3677 0185 0B       		.uleb128 0xb
 3678 0186 3B       		.uleb128 0x3b
 3679 0187 0B       		.uleb128 0xb
 3680 0188 49       		.uleb128 0x49
 3681 0189 13       		.uleb128 0x13
 3682 018a 02       		.uleb128 0x2
 3683 018b 17       		.uleb128 0x17
 3684 018c 00       		.byte	0
 3685 018d 00       		.byte	0
 3686 018e 1E       		.uleb128 0x1e
 3687 018f 2E       		.uleb128 0x2e
 3688 0190 01       		.byte	0x1
 3689 0191 3F       		.uleb128 0x3f
 3690 0192 19       		.uleb128 0x19
 3691 0193 03       		.uleb128 0x3
 3692 0194 0E       		.uleb128 0xe
 3693 0195 3A       		.uleb128 0x3a
 3694 0196 0B       		.uleb128 0xb
 3695 0197 3B       		.uleb128 0x3b
 3696 0198 05       		.uleb128 0x5
 3697 0199 27       		.uleb128 0x27
 3698 019a 19       		.uleb128 0x19
 3699 019b 11       		.uleb128 0x11
 3700 019c 01       		.uleb128 0x1
 3701 019d 12       		.uleb128 0x12
 3702 019e 06       		.uleb128 0x6
 3703 019f 40       		.uleb128 0x40
 3704 01a0 18       		.uleb128 0x18
 3705 01a1 9742     		.uleb128 0x2117
 3706 01a3 19       		.uleb128 0x19
 3707 01a4 01       		.uleb128 0x1
 3708 01a5 13       		.uleb128 0x13
 3709 01a6 00       		.byte	0
 3710 01a7 00       		.byte	0
 3711 01a8 1F       		.uleb128 0x1f
 3712 01a9 05       		.uleb128 0x5
 3713 01aa 00       		.byte	0
 3714 01ab 03       		.uleb128 0x3
 3715 01ac 0E       		.uleb128 0xe
 3716 01ad 3A       		.uleb128 0x3a
 3717 01ae 0B       		.uleb128 0xb
 3718 01af 3B       		.uleb128 0x3b
 3719 01b0 05       		.uleb128 0x5
 3720 01b1 49       		.uleb128 0x49
 3721 01b2 13       		.uleb128 0x13
 3722 01b3 02       		.uleb128 0x2
 3723 01b4 18       		.uleb128 0x18
 3724 01b5 00       		.byte	0
 3725 01b6 00       		.byte	0
 3726 01b7 20       		.uleb128 0x20
 3727 01b8 34       		.uleb128 0x34
 3728 01b9 00       		.byte	0
 3729 01ba 03       		.uleb128 0x3
 3730 01bb 0E       		.uleb128 0xe
 3731 01bc 3A       		.uleb128 0x3a
 3732 01bd 0B       		.uleb128 0xb
 3733 01be 3B       		.uleb128 0x3b
ARM GAS  C:\Users\kevin\AppData\Local\Temp\ccrZUpt9.s 			page 98


 3734 01bf 05       		.uleb128 0x5
 3735 01c0 49       		.uleb128 0x49
 3736 01c1 13       		.uleb128 0x13
 3737 01c2 02       		.uleb128 0x2
 3738 01c3 17       		.uleb128 0x17
 3739 01c4 00       		.byte	0
 3740 01c5 00       		.byte	0
 3741 01c6 21       		.uleb128 0x21
 3742 01c7 05       		.uleb128 0x5
 3743 01c8 00       		.byte	0
 3744 01c9 31       		.uleb128 0x31
 3745 01ca 13       		.uleb128 0x13
 3746 01cb 02       		.uleb128 0x2
 3747 01cc 18       		.uleb128 0x18
 3748 01cd 00       		.byte	0
 3749 01ce 00       		.byte	0
 3750 01cf 22       		.uleb128 0x22
 3751 01d0 2E       		.uleb128 0x2e
 3752 01d1 00       		.byte	0
 3753 01d2 3F       		.uleb128 0x3f
 3754 01d3 19       		.uleb128 0x19
 3755 01d4 03       		.uleb128 0x3
 3756 01d5 0E       		.uleb128 0xe
 3757 01d6 3A       		.uleb128 0x3a
 3758 01d7 0B       		.uleb128 0xb
 3759 01d8 3B       		.uleb128 0x3b
 3760 01d9 05       		.uleb128 0x5
 3761 01da 27       		.uleb128 0x27
 3762 01db 19       		.uleb128 0x19
 3763 01dc 11       		.uleb128 0x11
 3764 01dd 01       		.uleb128 0x1
 3765 01de 12       		.uleb128 0x12
 3766 01df 06       		.uleb128 0x6
 3767 01e0 40       		.uleb128 0x40
 3768 01e1 18       		.uleb128 0x18
 3769 01e2 9742     		.uleb128 0x2117
 3770 01e4 19       		.uleb128 0x19
 3771 01e5 00       		.byte	0
 3772 01e6 00       		.byte	0
 3773 01e7 23       		.uleb128 0x23
 3774 01e8 1D       		.uleb128 0x1d
 3775 01e9 01       		.byte	0x1
 3776 01ea 31       		.uleb128 0x31
 3777 01eb 13       		.uleb128 0x13
 3778 01ec 52       		.uleb128 0x52
 3779 01ed 01       		.uleb128 0x1
 3780 01ee 55       		.uleb128 0x55
 3781 01ef 17       		.uleb128 0x17
 3782 01f0 58       		.uleb128 0x58
 3783 01f1 0B       		.uleb128 0xb
 3784 01f2 59       		.uleb128 0x59
 3785 01f3 0B       		.uleb128 0xb
 3786 01f4 01       		.uleb128 0x1
 3787 01f5 13       		.uleb128 0x13
 3788 01f6 00       		.byte	0
 3789 01f7 00       		.byte	0
 3790 01f8 24       		.uleb128 0x24
ARM GAS  C:\Users\kevin\AppData\Local\Temp\ccrZUpt9.s 			page 99


 3791 01f9 2E       		.uleb128 0x2e
 3792 01fa 01       		.byte	0x1
 3793 01fb 3F       		.uleb128 0x3f
 3794 01fc 19       		.uleb128 0x19
 3795 01fd 03       		.uleb128 0x3
 3796 01fe 0E       		.uleb128 0xe
 3797 01ff 3A       		.uleb128 0x3a
 3798 0200 0B       		.uleb128 0xb
 3799 0201 3B       		.uleb128 0x3b
 3800 0202 0B       		.uleb128 0xb
 3801 0203 49       		.uleb128 0x49
 3802 0204 13       		.uleb128 0x13
 3803 0205 11       		.uleb128 0x11
 3804 0206 01       		.uleb128 0x1
 3805 0207 12       		.uleb128 0x12
 3806 0208 06       		.uleb128 0x6
 3807 0209 40       		.uleb128 0x40
 3808 020a 18       		.uleb128 0x18
 3809 020b 9742     		.uleb128 0x2117
 3810 020d 19       		.uleb128 0x19
 3811 020e 01       		.uleb128 0x1
 3812 020f 13       		.uleb128 0x13
 3813 0210 00       		.byte	0
 3814 0211 00       		.byte	0
 3815 0212 25       		.uleb128 0x25
 3816 0213 34       		.uleb128 0x34
 3817 0214 00       		.byte	0
 3818 0215 03       		.uleb128 0x3
 3819 0216 08       		.uleb128 0x8
 3820 0217 3A       		.uleb128 0x3a
 3821 0218 0B       		.uleb128 0xb
 3822 0219 3B       		.uleb128 0x3b
 3823 021a 0B       		.uleb128 0xb
 3824 021b 49       		.uleb128 0x49
 3825 021c 13       		.uleb128 0x13
 3826 021d 02       		.uleb128 0x2
 3827 021e 17       		.uleb128 0x17
 3828 021f 00       		.byte	0
 3829 0220 00       		.byte	0
 3830 0221 26       		.uleb128 0x26
 3831 0222 34       		.uleb128 0x34
 3832 0223 00       		.byte	0
 3833 0224 03       		.uleb128 0x3
 3834 0225 0E       		.uleb128 0xe
 3835 0226 3A       		.uleb128 0x3a
 3836 0227 0B       		.uleb128 0xb
 3837 0228 3B       		.uleb128 0x3b
 3838 0229 0B       		.uleb128 0xb
 3839 022a 49       		.uleb128 0x49
 3840 022b 13       		.uleb128 0x13
 3841 022c 3F       		.uleb128 0x3f
 3842 022d 19       		.uleb128 0x19
 3843 022e 02       		.uleb128 0x2
 3844 022f 18       		.uleb128 0x18
 3845 0230 00       		.byte	0
 3846 0231 00       		.byte	0
 3847 0232 27       		.uleb128 0x27
ARM GAS  C:\Users\kevin\AppData\Local\Temp\ccrZUpt9.s 			page 100


 3848 0233 34       		.uleb128 0x34
 3849 0234 00       		.byte	0
 3850 0235 03       		.uleb128 0x3
 3851 0236 0E       		.uleb128 0xe
 3852 0237 3A       		.uleb128 0x3a
 3853 0238 0B       		.uleb128 0xb
 3854 0239 3B       		.uleb128 0x3b
 3855 023a 0B       		.uleb128 0xb
 3856 023b 49       		.uleb128 0x49
 3857 023c 13       		.uleb128 0x13
 3858 023d 3F       		.uleb128 0x3f
 3859 023e 19       		.uleb128 0x19
 3860 023f 3C       		.uleb128 0x3c
 3861 0240 19       		.uleb128 0x19
 3862 0241 00       		.byte	0
 3863 0242 00       		.byte	0
 3864 0243 28       		.uleb128 0x28
 3865 0244 01       		.uleb128 0x1
 3866 0245 01       		.byte	0x1
 3867 0246 49       		.uleb128 0x49
 3868 0247 13       		.uleb128 0x13
 3869 0248 01       		.uleb128 0x1
 3870 0249 13       		.uleb128 0x13
 3871 024a 00       		.byte	0
 3872 024b 00       		.byte	0
 3873 024c 29       		.uleb128 0x29
 3874 024d 21       		.uleb128 0x21
 3875 024e 00       		.byte	0
 3876 024f 49       		.uleb128 0x49
 3877 0250 13       		.uleb128 0x13
 3878 0251 2F       		.uleb128 0x2f
 3879 0252 0B       		.uleb128 0xb
 3880 0253 00       		.byte	0
 3881 0254 00       		.byte	0
 3882 0255 2A       		.uleb128 0x2a
 3883 0256 34       		.uleb128 0x34
 3884 0257 00       		.byte	0
 3885 0258 03       		.uleb128 0x3
 3886 0259 0E       		.uleb128 0xe
 3887 025a 3A       		.uleb128 0x3a
 3888 025b 0B       		.uleb128 0xb
 3889 025c 3B       		.uleb128 0x3b
 3890 025d 05       		.uleb128 0x5
 3891 025e 49       		.uleb128 0x49
 3892 025f 13       		.uleb128 0x13
 3893 0260 3F       		.uleb128 0x3f
 3894 0261 19       		.uleb128 0x19
 3895 0262 3C       		.uleb128 0x3c
 3896 0263 19       		.uleb128 0x19
 3897 0264 00       		.byte	0
 3898 0265 00       		.byte	0
 3899 0266 2B       		.uleb128 0x2b
 3900 0267 34       		.uleb128 0x34
 3901 0268 00       		.byte	0
 3902 0269 03       		.uleb128 0x3
 3903 026a 08       		.uleb128 0x8
 3904 026b 3A       		.uleb128 0x3a
ARM GAS  C:\Users\kevin\AppData\Local\Temp\ccrZUpt9.s 			page 101


 3905 026c 0B       		.uleb128 0xb
 3906 026d 3B       		.uleb128 0x3b
 3907 026e 0B       		.uleb128 0xb
 3908 026f 49       		.uleb128 0x49
 3909 0270 13       		.uleb128 0x13
 3910 0271 3F       		.uleb128 0x3f
 3911 0272 19       		.uleb128 0x19
 3912 0273 02       		.uleb128 0x2
 3913 0274 18       		.uleb128 0x18
 3914 0275 00       		.byte	0
 3915 0276 00       		.byte	0
 3916 0277 2C       		.uleb128 0x2c
 3917 0278 2E       		.uleb128 0x2e
 3918 0279 01       		.byte	0x1
 3919 027a 3F       		.uleb128 0x3f
 3920 027b 19       		.uleb128 0x19
 3921 027c 03       		.uleb128 0x3
 3922 027d 0E       		.uleb128 0xe
 3923 027e 3A       		.uleb128 0x3a
 3924 027f 0B       		.uleb128 0xb
 3925 0280 3B       		.uleb128 0x3b
 3926 0281 0B       		.uleb128 0xb
 3927 0282 27       		.uleb128 0x27
 3928 0283 19       		.uleb128 0x19
 3929 0284 3C       		.uleb128 0x3c
 3930 0285 19       		.uleb128 0x19
 3931 0286 01       		.uleb128 0x1
 3932 0287 13       		.uleb128 0x13
 3933 0288 00       		.byte	0
 3934 0289 00       		.byte	0
 3935 028a 2D       		.uleb128 0x2d
 3936 028b 05       		.uleb128 0x5
 3937 028c 00       		.byte	0
 3938 028d 49       		.uleb128 0x49
 3939 028e 13       		.uleb128 0x13
 3940 028f 00       		.byte	0
 3941 0290 00       		.byte	0
 3942 0291 2E       		.uleb128 0x2e
 3943 0292 2E       		.uleb128 0x2e
 3944 0293 00       		.byte	0
 3945 0294 3F       		.uleb128 0x3f
 3946 0295 19       		.uleb128 0x19
 3947 0296 03       		.uleb128 0x3
 3948 0297 0E       		.uleb128 0xe
 3949 0298 3A       		.uleb128 0x3a
 3950 0299 0B       		.uleb128 0xb
 3951 029a 3B       		.uleb128 0x3b
 3952 029b 0B       		.uleb128 0xb
 3953 029c 27       		.uleb128 0x27
 3954 029d 19       		.uleb128 0x19
 3955 029e 3C       		.uleb128 0x3c
 3956 029f 19       		.uleb128 0x19
 3957 02a0 00       		.byte	0
 3958 02a1 00       		.byte	0
 3959 02a2 2F       		.uleb128 0x2f
 3960 02a3 2E       		.uleb128 0x2e
 3961 02a4 00       		.byte	0
ARM GAS  C:\Users\kevin\AppData\Local\Temp\ccrZUpt9.s 			page 102


 3962 02a5 3F       		.uleb128 0x3f
 3963 02a6 19       		.uleb128 0x19
 3964 02a7 03       		.uleb128 0x3
 3965 02a8 0E       		.uleb128 0xe
 3966 02a9 3A       		.uleb128 0x3a
 3967 02aa 0B       		.uleb128 0xb
 3968 02ab 3B       		.uleb128 0x3b
 3969 02ac 05       		.uleb128 0x5
 3970 02ad 27       		.uleb128 0x27
 3971 02ae 19       		.uleb128 0x19
 3972 02af 49       		.uleb128 0x49
 3973 02b0 13       		.uleb128 0x13
 3974 02b1 3C       		.uleb128 0x3c
 3975 02b2 19       		.uleb128 0x19
 3976 02b3 00       		.byte	0
 3977 02b4 00       		.byte	0
 3978 02b5 30       		.uleb128 0x30
 3979 02b6 2E       		.uleb128 0x2e
 3980 02b7 00       		.byte	0
 3981 02b8 3F       		.uleb128 0x3f
 3982 02b9 19       		.uleb128 0x19
 3983 02ba 03       		.uleb128 0x3
 3984 02bb 0E       		.uleb128 0xe
 3985 02bc 3A       		.uleb128 0x3a
 3986 02bd 0B       		.uleb128 0xb
 3987 02be 3B       		.uleb128 0x3b
 3988 02bf 0B       		.uleb128 0xb
 3989 02c0 27       		.uleb128 0x27
 3990 02c1 19       		.uleb128 0x19
 3991 02c2 49       		.uleb128 0x49
 3992 02c3 13       		.uleb128 0x13
 3993 02c4 3C       		.uleb128 0x3c
 3994 02c5 19       		.uleb128 0x19
 3995 02c6 00       		.byte	0
 3996 02c7 00       		.byte	0
 3997 02c8 31       		.uleb128 0x31
 3998 02c9 2E       		.uleb128 0x2e
 3999 02ca 01       		.byte	0x1
 4000 02cb 3F       		.uleb128 0x3f
 4001 02cc 19       		.uleb128 0x19
 4002 02cd 03       		.uleb128 0x3
 4003 02ce 0E       		.uleb128 0xe
 4004 02cf 3A       		.uleb128 0x3a
 4005 02d0 0B       		.uleb128 0xb
 4006 02d1 3B       		.uleb128 0x3b
 4007 02d2 0B       		.uleb128 0xb
 4008 02d3 27       		.uleb128 0x27
 4009 02d4 19       		.uleb128 0x19
 4010 02d5 49       		.uleb128 0x49
 4011 02d6 13       		.uleb128 0x13
 4012 02d7 3C       		.uleb128 0x3c
 4013 02d8 19       		.uleb128 0x19
 4014 02d9 01       		.uleb128 0x1
 4015 02da 13       		.uleb128 0x13
 4016 02db 00       		.byte	0
 4017 02dc 00       		.byte	0
 4018 02dd 32       		.uleb128 0x32
ARM GAS  C:\Users\kevin\AppData\Local\Temp\ccrZUpt9.s 			page 103


 4019 02de 2E       		.uleb128 0x2e
 4020 02df 00       		.byte	0
 4021 02e0 3F       		.uleb128 0x3f
 4022 02e1 19       		.uleb128 0x19
 4023 02e2 03       		.uleb128 0x3
 4024 02e3 0E       		.uleb128 0xe
 4025 02e4 3A       		.uleb128 0x3a
 4026 02e5 0B       		.uleb128 0xb
 4027 02e6 3B       		.uleb128 0x3b
 4028 02e7 05       		.uleb128 0x5
 4029 02e8 27       		.uleb128 0x27
 4030 02e9 19       		.uleb128 0x19
 4031 02ea 3C       		.uleb128 0x3c
 4032 02eb 19       		.uleb128 0x19
 4033 02ec 00       		.byte	0
 4034 02ed 00       		.byte	0
 4035 02ee 00       		.byte	0
 4036              		.section	.debug_loc,"",%progbits
 4037              	.Ldebug_loc0:
 4038              	.LLST0:
 4039 0000 08000000 		.4byte	.LVL4
 4040 0004 10000000 		.4byte	.LVL5
 4041 0008 0100     		.2byte	0x1
 4042 000a 53       		.byte	0x53
 4043 000b 00000000 		.4byte	0
 4044 000f 00000000 		.4byte	0
 4045              	.LLST1:
 4046 0013 08000000 		.4byte	.LVL8
 4047 0017 12000000 		.4byte	.LVL9
 4048 001b 0100     		.2byte	0x1
 4049 001d 53       		.byte	0x53
 4050 001e 00000000 		.4byte	0
 4051 0022 00000000 		.4byte	0
 4052              	.LLST2:
 4053 0026 06000000 		.4byte	.LVL29
 4054 002a 0C000000 		.4byte	.LVL31
 4055 002e 0100     		.2byte	0x1
 4056 0030 51       		.byte	0x51
 4057 0031 0C000000 		.4byte	.LVL31
 4058 0035 14000000 		.4byte	.LFE37
 4059 0039 0100     		.2byte	0x1
 4060 003b 52       		.byte	0x52
 4061 003c 00000000 		.4byte	0
 4062 0040 00000000 		.4byte	0
 4063              	.LLST3:
 4064 0044 06000000 		.4byte	.LVL33
 4065 0048 0C000000 		.4byte	.LVL35
 4066 004c 0100     		.2byte	0x1
 4067 004e 51       		.byte	0x51
 4068 004f 0C000000 		.4byte	.LVL35
 4069 0053 14000000 		.4byte	.LFE38
 4070 0057 0100     		.2byte	0x1
 4071 0059 52       		.byte	0x52
 4072 005a 00000000 		.4byte	0
 4073 005e 00000000 		.4byte	0
 4074              	.LLST4:
 4075 0062 06000000 		.4byte	.LVL44
ARM GAS  C:\Users\kevin\AppData\Local\Temp\ccrZUpt9.s 			page 104


 4076 0066 0C000000 		.4byte	.LVL46
 4077 006a 0100     		.2byte	0x1
 4078 006c 51       		.byte	0x51
 4079 006d 0C000000 		.4byte	.LVL46
 4080 0071 14000000 		.4byte	.LFE47
 4081 0075 0100     		.2byte	0x1
 4082 0077 52       		.byte	0x52
 4083 0078 00000000 		.4byte	0
 4084 007c 00000000 		.4byte	0
 4085              	.LLST5:
 4086 0080 06000000 		.4byte	.LVL48
 4087 0084 0C000000 		.4byte	.LVL50
 4088 0088 0100     		.2byte	0x1
 4089 008a 51       		.byte	0x51
 4090 008b 0C000000 		.4byte	.LVL50
 4091 008f 14000000 		.4byte	.LFE48
 4092 0093 0100     		.2byte	0x1
 4093 0095 52       		.byte	0x52
 4094 0096 00000000 		.4byte	0
 4095 009a 00000000 		.4byte	0
 4096              	.LLST6:
 4097 009e 44000000 		.4byte	.LVL86
 4098 00a2 46000000 		.4byte	.LVL87
 4099 00a6 0200     		.2byte	0x2
 4100 00a8 4F       		.byte	0x4f
 4101 00a9 9F       		.byte	0x9f
 4102 00aa 46000000 		.4byte	.LVL87
 4103 00ae 48000000 		.4byte	.LVL88
 4104 00b2 0600     		.2byte	0x6
 4105 00b4 09       		.byte	0x9
 4106 00b5 81       		.byte	0x81
 4107 00b6 73       		.byte	0x73
 4108 00b7 00       		.sleb128 0
 4109 00b8 1C       		.byte	0x1c
 4110 00b9 9F       		.byte	0x9f
 4111 00ba 48000000 		.4byte	.LVL88
 4112 00be 4C000000 		.4byte	.LVL89
 4113 00c2 0600     		.2byte	0x6
 4114 00c4 09       		.byte	0x9
 4115 00c5 81       		.byte	0x81
 4116 00c6 73       		.byte	0x73
 4117 00c7 01       		.sleb128 1
 4118 00c8 1C       		.byte	0x1c
 4119 00c9 9F       		.byte	0x9f
 4120 00ca 4C000000 		.4byte	.LVL89
 4121 00ce 58000000 		.4byte	.LVL90
 4122 00d2 0600     		.2byte	0x6
 4123 00d4 09       		.byte	0x9
 4124 00d5 81       		.byte	0x81
 4125 00d6 73       		.byte	0x73
 4126 00d7 00       		.sleb128 0
 4127 00d8 1C       		.byte	0x1c
 4128 00d9 9F       		.byte	0x9f
 4129 00da 00000000 		.4byte	0
 4130 00de 00000000 		.4byte	0
 4131              		.section	.debug_aranges,"",%progbits
 4132 0000 EC000000 		.4byte	0xec
ARM GAS  C:\Users\kevin\AppData\Local\Temp\ccrZUpt9.s 			page 105


 4133 0004 0200     		.2byte	0x2
 4134 0006 00000000 		.4byte	.Ldebug_info0
 4135 000a 04       		.byte	0x4
 4136 000b 00       		.byte	0
 4137 000c 0000     		.2byte	0
 4138 000e 0000     		.2byte	0
 4139 0010 00000000 		.4byte	.LFB55
 4140 0014 14000000 		.4byte	.LFE55-.LFB55
 4141 0018 00000000 		.4byte	.LFB56
 4142 001c 08000000 		.4byte	.LFE56-.LFB56
 4143 0020 00000000 		.4byte	.LFB53
 4144 0024 38000000 		.4byte	.LFE53-.LFB53
 4145 0028 00000000 		.4byte	.LFB54
 4146 002c 34000000 		.4byte	.LFE54-.LFB54
 4147 0030 00000000 		.4byte	.LFB57
 4148 0034 90000000 		.4byte	.LFE57-.LFB57
 4149 0038 00000000 		.4byte	.LFB33
 4150 003c 08000000 		.4byte	.LFE33-.LFB33
 4151 0040 00000000 		.4byte	.LFB34
 4152 0044 1C000000 		.4byte	.LFE34-.LFB34
 4153 0048 00000000 		.4byte	.LFB35
 4154 004c 1C000000 		.4byte	.LFE35-.LFB35
 4155 0050 00000000 		.4byte	.LFB36
 4156 0054 20000000 		.4byte	.LFE36-.LFB36
 4157 0058 00000000 		.4byte	.LFB37
 4158 005c 14000000 		.4byte	.LFE37-.LFB37
 4159 0060 00000000 		.4byte	.LFB38
 4160 0064 14000000 		.4byte	.LFE38-.LFB38
 4161 0068 00000000 		.4byte	.LFB39
 4162 006c 0C000000 		.4byte	.LFE39-.LFB39
 4163 0070 00000000 		.4byte	.LFB42
 4164 0074 3C000000 		.4byte	.LFE42-.LFB42
 4165 0078 00000000 		.4byte	.LFB43
 4166 007c 08000000 		.4byte	.LFE43-.LFB43
 4167 0080 00000000 		.4byte	.LFB44
 4168 0084 1C000000 		.4byte	.LFE44-.LFB44
 4169 0088 00000000 		.4byte	.LFB45
 4170 008c 1C000000 		.4byte	.LFE45-.LFB45
 4171 0090 00000000 		.4byte	.LFB46
 4172 0094 20000000 		.4byte	.LFE46-.LFB46
 4173 0098 00000000 		.4byte	.LFB47
 4174 009c 14000000 		.4byte	.LFE47-.LFB47
 4175 00a0 00000000 		.4byte	.LFB48
 4176 00a4 14000000 		.4byte	.LFE48-.LFB48
 4177 00a8 00000000 		.4byte	.LFB49
 4178 00ac 0C000000 		.4byte	.LFE49-.LFB49
 4179 00b0 00000000 		.4byte	.LFB52
 4180 00b4 3C000000 		.4byte	.LFE52-.LFB52
 4181 00b8 00000000 		.4byte	.LFB58
 4182 00bc 20000000 		.4byte	.LFE58-.LFB58
 4183 00c0 00000000 		.4byte	.LFB59
 4184 00c4 20000000 		.4byte	.LFE59-.LFB59
 4185 00c8 00000000 		.4byte	.LFB60
 4186 00cc 1C000000 		.4byte	.LFE60-.LFB60
 4187 00d0 00000000 		.4byte	.LFB61
 4188 00d4 1C000000 		.4byte	.LFE61-.LFB61
 4189 00d8 00000000 		.4byte	.LFB62
ARM GAS  C:\Users\kevin\AppData\Local\Temp\ccrZUpt9.s 			page 106


 4190 00dc 40000000 		.4byte	.LFE62-.LFB62
 4191 00e0 00000000 		.4byte	.LFB63
 4192 00e4 2C010000 		.4byte	.LFE63-.LFB63
 4193 00e8 00000000 		.4byte	0
 4194 00ec 00000000 		.4byte	0
 4195              		.section	.debug_ranges,"",%progbits
 4196              	.Ldebug_ranges0:
 4197 0000 0E000000 		.4byte	.LBB44
 4198 0004 12000000 		.4byte	.LBE44
 4199 0008 12000000 		.4byte	.LBB47
 4200 000c 14000000 		.4byte	.LBE47
 4201 0010 00000000 		.4byte	0
 4202 0014 00000000 		.4byte	0
 4203 0018 0E000000 		.4byte	.LBB50
 4204 001c 12000000 		.4byte	.LBE50
 4205 0020 12000000 		.4byte	.LBB53
 4206 0024 14000000 		.4byte	.LBE53
 4207 0028 00000000 		.4byte	0
 4208 002c 00000000 		.4byte	0
 4209 0030 00000000 		.4byte	.LFB55
 4210 0034 14000000 		.4byte	.LFE55
 4211 0038 00000000 		.4byte	.LFB56
 4212 003c 08000000 		.4byte	.LFE56
 4213 0040 00000000 		.4byte	.LFB53
 4214 0044 38000000 		.4byte	.LFE53
 4215 0048 00000000 		.4byte	.LFB54
 4216 004c 34000000 		.4byte	.LFE54
 4217 0050 00000000 		.4byte	.LFB57
 4218 0054 90000000 		.4byte	.LFE57
 4219 0058 00000000 		.4byte	.LFB33
 4220 005c 08000000 		.4byte	.LFE33
 4221 0060 00000000 		.4byte	.LFB34
 4222 0064 1C000000 		.4byte	.LFE34
 4223 0068 00000000 		.4byte	.LFB35
 4224 006c 1C000000 		.4byte	.LFE35
 4225 0070 00000000 		.4byte	.LFB36
 4226 0074 20000000 		.4byte	.LFE36
 4227 0078 00000000 		.4byte	.LFB37
 4228 007c 14000000 		.4byte	.LFE37
 4229 0080 00000000 		.4byte	.LFB38
 4230 0084 14000000 		.4byte	.LFE38
 4231 0088 00000000 		.4byte	.LFB39
 4232 008c 0C000000 		.4byte	.LFE39
 4233 0090 00000000 		.4byte	.LFB42
 4234 0094 3C000000 		.4byte	.LFE42
 4235 0098 00000000 		.4byte	.LFB43
 4236 009c 08000000 		.4byte	.LFE43
 4237 00a0 00000000 		.4byte	.LFB44
 4238 00a4 1C000000 		.4byte	.LFE44
 4239 00a8 00000000 		.4byte	.LFB45
 4240 00ac 1C000000 		.4byte	.LFE45
 4241 00b0 00000000 		.4byte	.LFB46
 4242 00b4 20000000 		.4byte	.LFE46
 4243 00b8 00000000 		.4byte	.LFB47
 4244 00bc 14000000 		.4byte	.LFE47
 4245 00c0 00000000 		.4byte	.LFB48
 4246 00c4 14000000 		.4byte	.LFE48
ARM GAS  C:\Users\kevin\AppData\Local\Temp\ccrZUpt9.s 			page 107


 4247 00c8 00000000 		.4byte	.LFB49
 4248 00cc 0C000000 		.4byte	.LFE49
 4249 00d0 00000000 		.4byte	.LFB52
 4250 00d4 3C000000 		.4byte	.LFE52
 4251 00d8 00000000 		.4byte	.LFB58
 4252 00dc 20000000 		.4byte	.LFE58
 4253 00e0 00000000 		.4byte	.LFB59
 4254 00e4 20000000 		.4byte	.LFE59
 4255 00e8 00000000 		.4byte	.LFB60
 4256 00ec 1C000000 		.4byte	.LFE60
 4257 00f0 00000000 		.4byte	.LFB61
 4258 00f4 1C000000 		.4byte	.LFE61
 4259 00f8 00000000 		.4byte	.LFB62
 4260 00fc 40000000 		.4byte	.LFE62
 4261 0100 00000000 		.4byte	.LFB63
 4262 0104 2C010000 		.4byte	.LFE63
 4263 0108 00000000 		.4byte	0
 4264 010c 00000000 		.4byte	0
 4265              		.section	.debug_line,"",%progbits
 4266              	.Ldebug_line0:
 4267 0000 7A040000 		.section	.debug_str,"MS",%progbits,1
 4267      02003D01 
 4267      00000201 
 4267      FB0E0D00 
 4267      01010101 
 4268              	.LASF149:
 4269 0000 43794465 		.ascii	"CyDelay\000"
 4269      6C617900 
 4270              	.LASF33:
 4271 0008 73646279 		.ascii	"sdby\000"
 4271      00
 4272              	.LASF89:
 4273 000d 42555A66 		.ascii	"BUZfkgtemp\000"
 4273      6B677465 
 4273      6D7000
 4274              	.LASF116:
 4275 0018 56323464 		.ascii	"V24dengdai\000"
 4275      656E6764 
 4275      616900
 4276              	.LASF148:
 4277 0023 43795379 		.ascii	"CySysWdtLock\000"
 4277      73576474 
 4277      4C6F636B 
 4277      00
 4278              	.LASF67:
 4279 0030 72784669 		.ascii	"rxFifoCtrl\000"
 4279      666F4374 
 4279      726C00
 4280              	.LASF81:
 4281 003b 4F70656E 		.ascii	"Open_Watchdog\000"
 4281      5F576174 
 4281      6368646F 
 4281      6700
 4282              	.LASF64:
 4283 0049 55415254 		.ascii	"UART_0_SetRxFifoLevel\000"
 4283      5F305F53 
 4283      65745278 
ARM GAS  C:\Users\kevin\AppData\Local\Temp\ccrZUpt9.s 			page 108


 4283      4669666F 
 4283      4C657665 
 4284              	.LASF93:
 4285 005f 5379735F 		.ascii	"Sys_Testsn\000"
 4285      54657374 
 4285      736E00
 4286              	.LASF53:
 4287 006a 55415254 		.ascii	"UART_0_ScbModeStop\000"
 4287      5F305F53 
 4287      63624D6F 
 4287      64655374 
 4287      6F7000
 4288              	.LASF110:
 4289 007d 41636B5F 		.ascii	"Ack_Timer\000"
 4289      54696D65 
 4289      7200
 4290              	.LASF140:
 4291 0087 6973725F 		.ascii	"isr_lowpower_1_SetVector\000"
 4291      6C6F7770 
 4291      6F776572 
 4291      5F315F53 
 4291      65745665 
 4292              	.LASF76:
 4293 00a0 55415254 		.ascii	"UART_1_I2CSlaveNackGeneration\000"
 4293      5F315F49 
 4293      3243536C 
 4293      6176654E 
 4293      61636B47 
 4294              	.LASF8:
 4295 00be 756E7369 		.ascii	"unsigned int\000"
 4295      676E6564 
 4295      20696E74 
 4295      00
 4296              	.LASF80:
 4297 00cb 4F70656E 		.ascii	"Open_POWERLOW_ISR\000"
 4297      5F504F57 
 4297      45524C4F 
 4297      575F4953 
 4297      5200
 4298              	.LASF22:
 4299 00dd 71757975 		.ascii	"quyuxzsta\000"
 4299      787A7374 
 4299      6100
 4300              	.LASF167:
 4301 00e7 474E5520 		.ascii	"GNU C 4.8.4 20140526 (release) [ARM/embedded-4_8-br"
 4301      4320342E 
 4301      382E3420 
 4301      32303134 
 4301      30353236 
 4302 011a 616E6368 		.ascii	"anch revision 211358] -mcpu=cortex-m0 -mthumb -g -O"
 4302      20726576 
 4302      6973696F 
 4302      6E203231 
 4302      31333538 
 4303 014d 73202D66 		.ascii	"s -ffunction-sections\000"
 4303      66756E63 
 4303      74696F6E 
ARM GAS  C:\Users\kevin\AppData\Local\Temp\ccrZUpt9.s 			page 109


 4303      2D736563 
 4303      74696F6E 
 4304              	.LASF101:
 4305 0163 54696D65 		.ascii	"TimeBase_Interrupt_CountTwo\000"
 4305      42617365 
 4305      5F496E74 
 4305      65727275 
 4305      70745F43 
 4306              	.LASF55:
 4307 017f 55415254 		.ascii	"UART_0_SetCustomInterruptHandler\000"
 4307      5F305F53 
 4307      65744375 
 4307      73746F6D 
 4307      496E7465 
 4308              	.LASF60:
 4309 01a0 55415254 		.ascii	"UART_0_ScbEnableIntr\000"
 4309      5F305F53 
 4309      6362456E 
 4309      61626C65 
 4309      496E7472 
 4310              	.LASF123:
 4311 01b5 55415254 		.ascii	"UART_1_UartGetByte\000"
 4311      5F315F55 
 4311      61727447 
 4311      65744279 
 4311      746500
 4312              	.LASF130:
 4313 01c8 77726974 		.ascii	"write1\000"
 4313      653100
 4314              	.LASF45:
 4315 01cf 74657374 		.ascii	"test\000"
 4315      00
 4316              	.LASF66:
 4317 01d4 6C657665 		.ascii	"level\000"
 4317      6C00
 4318              	.LASF157:
 4319 01da 43795379 		.ascii	"CySysLvdEnable\000"
 4319      734C7664 
 4319      456E6162 
 4319      6C6500
 4320              	.LASF46:
 4321 01e9 616C6172 		.ascii	"alarmsta\000"
 4321      6D737461 
 4321      00
 4322              	.LASF21:
 4323 01f2 6A697368 		.ascii	"jishi\000"
 4323      6900
 4324              	.LASF85:
 4325 01f8 55415254 		.ascii	"UART_0_initVar\000"
 4325      5F305F69 
 4325      6E697456 
 4325      617200
 4326              	.LASF18:
 4327 0207 6572726F 		.ascii	"error\000"
 4327      7200
 4328              	.LASF57:
 4329 020d 66756E63 		.ascii	"func\000"
ARM GAS  C:\Users\kevin\AppData\Local\Temp\ccrZUpt9.s 			page 110


 4329      00
 4330              	.LASF135:
 4331 0212 4379496E 		.ascii	"CyIntDisable\000"
 4331      74446973 
 4331      61626C65 
 4331      00
 4332              	.LASF42:
 4333 021f 75617274 		.ascii	"uart_1_tx\000"
 4333      5F315F74 
 4333      7800
 4334              	.LASF61:
 4335 0229 55415254 		.ascii	"UART_0_Enable\000"
 4335      5F305F45 
 4335      6E61626C 
 4335      6500
 4336              	.LASF40:
 4337 0237 67796675 		.ascii	"gyfull\000"
 4337      6C6C00
 4338              	.LASF125:
 4339 023e 5632345F 		.ascii	"V24_IN_ISR_Disable\000"
 4339      494E5F49 
 4339      53525F44 
 4339      69736162 
 4339      6C6500
 4340              	.LASF108:
 4341 0251 706F7765 		.ascii	"poweroverfig\000"
 4341      726F7665 
 4341      72666967 
 4341      00
 4342              	.LASF104:
 4343 025e 4C767869 		.ascii	"LvxinJishi\000"
 4343      6E4A6973 
 4343      686900
 4344              	.LASF121:
 4345 0269 4C6F6164 		.ascii	"LoadUARTData\000"
 4345      55415254 
 4345      44617461 
 4345      00
 4346              	.LASF62:
 4347 0276 55415254 		.ascii	"UART_0_Start\000"
 4347      5F305F53 
 4347      74617274 
 4347      00
 4348              	.LASF154:
 4349 0283 54696D65 		.ascii	"Timer_Initial\000"
 4349      725F496E 
 4349      69746961 
 4349      6C00
 4350              	.LASF133:
 4351 0291 55415254 		.ascii	"UART_0_UartInit\000"
 4351      5F305F55 
 4351      61727449 
 4351      6E697400 
 4352              	.LASF12:
 4353 02a1 666C6F61 		.ascii	"float\000"
 4353      7400
 4354              	.LASF19:
ARM GAS  C:\Users\kevin\AppData\Local\Temp\ccrZUpt9.s 			page 111


 4355 02a7 6E6F7761 		.ascii	"nowater\000"
 4355      74657200 
 4356              	.LASF48:
 4357 02af 55415254 		.ascii	"UART_ISR_1_FUN\000"
 4357      5F495352 
 4357      5F315F46 
 4357      554E00
 4358              	.LASF132:
 4359 02be 43794465 		.ascii	"CyDelayUs\000"
 4359      6C617955 
 4359      7300
 4360              	.LASF23:
 4361 02c8 6C767869 		.ascii	"lvxingxzsta\000"
 4361      6E67787A 
 4361      73746100 
 4362              	.LASF137:
 4363 02d4 5632345F 		.ascii	"V24_IN_ISR_SetVector\000"
 4363      494E5F49 
 4363      53525F53 
 4363      65745665 
 4363      63746F72 
 4364              	.LASF7:
 4365 02e9 6C6F6E67 		.ascii	"long long unsigned int\000"
 4365      206C6F6E 
 4365      6720756E 
 4365      7369676E 
 4365      65642069 
 4366              	.LASF94:
 4367 0300 5379735F 		.ascii	"Sys_Settingsn\000"
 4367      53657474 
 4367      696E6773 
 4367      6E00
 4368              	.LASF78:
 4369 030e 4F70656E 		.ascii	"Open_UART_TDS_ISR\000"
 4369      5F554152 
 4369      545F5444 
 4369      535F4953 
 4369      5200
 4370              	.LASF79:
 4371 0320 4F70656E 		.ascii	"Open_V24_IN_ISR\000"
 4371      5F563234 
 4371      5F494E5F 
 4371      49535200 
 4372              	.LASF51:
 4373 0330 55415254 		.ascii	"UART_0_Init\000"
 4373      5F305F49 
 4373      6E697400 
 4374              	.LASF20:
 4375 033c 73746F70 		.ascii	"stopzs\000"
 4375      7A7300
 4376              	.LASF39:
 4377 0343 7A686973 		.ascii	"zhishui\000"
 4377      68756900 
 4378              	.LASF165:
 4379 034b 55617274 		.ascii	"Uart_0_Putchar\000"
 4379      5F305F50 
 4379      75746368 
ARM GAS  C:\Users\kevin\AppData\Local\Temp\ccrZUpt9.s 			page 112


 4379      617200
 4380              	.LASF38:
 4381 035a 7A69646F 		.ascii	"zidongbysta\000"
 4381      6E676279 
 4381      73746100 
 4382              	.LASF32:
 4383 0366 6C786677 		.ascii	"lxfw\000"
 4383      00
 4384              	.LASF24:
 4385 036b 73657474 		.ascii	"settingsta\000"
 4385      696E6773 
 4385      746100
 4386              	.LASF96:
 4387 0376 4E426669 		.ascii	"NBfig\000"
 4387      6700
 4388              	.LASF87:
 4389 037c 42555A66 		.ascii	"BUZfkg\000"
 4389      6B6700
 4390              	.LASF103:
 4391 0383 576F726B 		.ascii	"WorkFlag\000"
 4391      466C6167 
 4391      00
 4392              	.LASF118:
 4393 038c 43795379 		.ascii	"CySysWdtClearInterrupt\000"
 4393      73576474 
 4393      436C6561 
 4393      72496E74 
 4393      65727275 
 4394              	.LASF59:
 4395 03a3 6973725F 		.ascii	"isr_lowpower_Interrupt\000"
 4395      6C6F7770 
 4395      6F776572 
 4395      5F496E74 
 4395      65727275 
 4396              	.LASF92:
 4397 03ba 5379735F 		.ascii	"Sys_Flownum\000"
 4397      466C6F77 
 4397      6E756D00 
 4398              	.LASF141:
 4399 03c6 6973725F 		.ascii	"isr_lowpower_1_SetPriority\000"
 4399      6C6F7770 
 4399      6F776572 
 4399      5F315F53 
 4399      65745072 
 4400              	.LASF155:
 4401 03e1 5379735F 		.ascii	"Sys_Init\000"
 4401      496E6974 
 4401      00
 4402              	.LASF30:
 4403 03ea 66617374 		.ascii	"fastfig\000"
 4403      66696700 
 4404              	.LASF73:
 4405 03f2 55415254 		.ascii	"UART_1_SetRxFifoLevel\000"
 4405      5F315F53 
 4405      65745278 
 4405      4669666F 
 4405      4C657665 
ARM GAS  C:\Users\kevin\AppData\Local\Temp\ccrZUpt9.s 			page 113


 4406              	.LASF98:
 4407 0408 4E425072 		.ascii	"NBPressStart\000"
 4407      65737353 
 4407      74617274 
 4407      00
 4408              	.LASF49:
 4409 0415 7265736F 		.ascii	"resource\000"
 4409      75726365 
 4409      00
 4410              	.LASF105:
 4411 041e 6669726D 		.ascii	"firmwave_updatecnt\000"
 4411      77617665 
 4411      5F757064 
 4411      61746563 
 4411      6E7400
 4412              	.LASF159:
 4413 0431 426F6F74 		.ascii	"Bootloadable_Load\000"
 4413      6C6F6164 
 4413      61626C65 
 4413      5F4C6F61 
 4413      6400
 4414              	.LASF111:
 4415 0443 55617274 		.ascii	"UartRx\000"
 4415      527800
 4416              	.LASF127:
 4417 044a 5632345F 		.ascii	"V24_IN_ISR_Enable\000"
 4417      494E5F49 
 4417      53525F45 
 4417      6E61626C 
 4417      6500
 4418              	.LASF119:
 4419 045c 4379496E 		.ascii	"CyIntClearPending\000"
 4419      74436C65 
 4419      61725065 
 4419      6E64696E 
 4419      6700
 4420              	.LASF14:
 4421 046e 63686172 		.ascii	"char\000"
 4421      00
 4422              	.LASF83:
 4423 0473 55415254 		.ascii	"UART_1_initVar\000"
 4423      5F315F69 
 4423      6E697456 
 4423      617200
 4424              	.LASF70:
 4425 0482 55415254 		.ascii	"UART_1_Enable\000"
 4425      5F315F45 
 4425      6E61626C 
 4425      6500
 4426              	.LASF146:
 4427 0490 43795379 		.ascii	"CySysWdtWriteClearOnMatch\000"
 4427      73576474 
 4427      57726974 
 4427      65436C65 
 4427      61724F6E 
 4428              	.LASF143:
 4429 04aa 43795379 		.ascii	"CySysWdtUnlock\000"
ARM GAS  C:\Users\kevin\AppData\Local\Temp\ccrZUpt9.s 			page 114


 4429      73576474 
 4429      556E6C6F 
 4429      636B00
 4430              	.LASF10:
 4431 04b9 75696E74 		.ascii	"uint16\000"
 4431      313600
 4432              	.LASF136:
 4433 04c0 55415254 		.ascii	"UART_1_UartInit\000"
 4433      5F315F55 
 4433      61727449 
 4433      6E697400 
 4434              	.LASF72:
 4435 04d0 55415254 		.ascii	"UART_1_Stop\000"
 4435      5F315F53 
 4435      746F7000 
 4436              	.LASF43:
 4437 04dc 6D61696E 		.ascii	"mainmenusta\000"
 4437      6D656E75 
 4437      73746100 
 4438              	.LASF170:
 4439 04e8 4379496E 		.ascii	"CyIntSetVector\000"
 4439      74536574 
 4439      56656374 
 4439      6F7200
 4440              	.LASF28:
 4441 04f7 706F7765 		.ascii	"poweroff\000"
 4441      726F6666 
 4441      00
 4442              	.LASF44:
 4443 0500 74657374 		.ascii	"teststa\000"
 4443      73746100 
 4444              	.LASF128:
 4445 0508 53746F70 		.ascii	"Stop_All_Module\000"
 4445      5F416C6C 
 4445      5F4D6F64 
 4445      756C6500 
 4446              	.LASF31:
 4447 0518 6C78787A 		.ascii	"lxxz\000"
 4447      00
 4448              	.LASF169:
 4449 051d 443A5C77 		.ascii	"D:\\wifi_work\\450B_code\\new_board\\newboard_0601_"
 4449      6966695F 
 4449      776F726B 
 4449      5C343530 
 4449      425F636F 
 4450 054c 626F6F74 		.ascii	"boot\\UART_Bootloadable.cydsn\000"
 4450      5C554152 
 4450      545F426F 
 4450      6F746C6F 
 4450      61646162 
 4451              	.LASF124:
 4452 0569 4C6F6164 		.ascii	"LoadTDSBoardData\000"
 4452      54445342 
 4452      6F617264 
 4452      44617461 
 4452      00
 4453              	.LASF68:
ARM GAS  C:\Users\kevin\AppData\Local\Temp\ccrZUpt9.s 			page 115


 4454 057a 74784669 		.ascii	"txFifoCtrl\000"
 4454      666F4374 
 4454      726C00
 4455              	.LASF6:
 4456 0585 6C6F6E67 		.ascii	"long long int\000"
 4456      206C6F6E 
 4456      6720696E 
 4456      7400
 4457              	.LASF138:
 4458 0593 5632345F 		.ascii	"V24_IN_ISR_SetPriority\000"
 4458      494E5F49 
 4458      53525F53 
 4458      65745072 
 4458      696F7269 
 4459              	.LASF99:
 4460 05aa 6C58585A 		.ascii	"lXXZcnt_fig\000"
 4460      636E745F 
 4460      66696700 
 4461              	.LASF100:
 4462 05b6 54696D65 		.ascii	"TimeBase_Interrupt_CountOne\000"
 4462      42617365 
 4462      5F496E74 
 4462      65727275 
 4462      70745F43 
 4463              	.LASF27:
 4464 05d2 706F7765 		.ascii	"poweron\000"
 4464      726F6E00 
 4465              	.LASF88:
 4466 05da 71757368 		.ascii	"qushui_BUZcnt\000"
 4466      75695F42 
 4466      555A636E 
 4466      7400
 4467              	.LASF25:
 4468 05e8 61637469 		.ascii	"activation\000"
 4468      76617469 
 4468      6F6E00
 4469              	.LASF16:
 4470 05f3 63796973 		.ascii	"cyisraddress\000"
 4470      72616464 
 4470      72657373 
 4470      00
 4471              	.LASF114:
 4472 0600 6469736D 		.ascii	"dismode\000"
 4472      6F646500 
 4473              	.LASF58:
 4474 0608 6973725F 		.ascii	"isr_wdt\000"
 4474      77647400 
 4475              	.LASF122:
 4476 0610 55415254 		.ascii	"UART_0_UartGetByte\000"
 4476      5F305F55 
 4476      61727447 
 4476      65744279 
 4476      746500
 4477              	.LASF11:
 4478 0623 75696E74 		.ascii	"uint32\000"
 4478      333200
 4479              	.LASF34:
ARM GAS  C:\Users\kevin\AppData\Local\Temp\ccrZUpt9.s 			page 116


 4480 062a 6C78787A 		.ascii	"lxxzwf\000"
 4480      776600
 4481              	.LASF41:
 4482 0631 75617274 		.ascii	"uart_0_tx\000"
 4482      5F305F74 
 4482      7800
 4483              	.LASF107:
 4484 063b 506F7765 		.ascii	"PowerOnCnt00\000"
 4484      724F6E43 
 4484      6E743030 
 4484      00
 4485              	.LASF47:
 4486 0648 55415254 		.ascii	"UART_ISR_0_FUN\000"
 4486      5F495352 
 4486      5F305F46 
 4486      554E00
 4487              	.LASF131:
 4488 0657 636C6561 		.ascii	"clearwdt\000"
 4488      72776474 
 4488      00
 4489              	.LASF115:
 4490 0660 56323466 		.ascii	"V24fig\000"
 4490      696700
 4491              	.LASF54:
 4492 0667 55415254 		.ascii	"UART_1_ScbModeStop\000"
 4492      5F315F53 
 4492      63624D6F 
 4492      64655374 
 4492      6F7000
 4493              	.LASF152:
 4494 067a 72656164 		.ascii	"read1\000"
 4494      3100
 4495              	.LASF160:
 4496 0680 57696669 		.ascii	"Wifi_Fun\000"
 4496      5F46756E 
 4496      00
 4497              	.LASF75:
 4498 0689 55415254 		.ascii	"UART_0_I2CSlaveNackGeneration\000"
 4498      5F305F49 
 4498      3243536C 
 4498      6176654E 
 4498      61636B47 
 4499              	.LASF95:
 4500 06a7 4E625072 		.ascii	"NbPressCnt\000"
 4500      65737343 
 4500      6E7400
 4501              	.LASF109:
 4502 06b2 61727261 		.ascii	"array\000"
 4502      7900
 4503              	.LASF50:
 4504 06b8 56323449 		.ascii	"V24ISR\000"
 4504      535200
 4505              	.LASF164:
 4506 06bf 42757A7A 		.ascii	"Buzzer_Fun\000"
 4506      65725F46 
 4506      756E00
 4507              	.LASF37:
ARM GAS  C:\Users\kevin\AppData\Local\Temp\ccrZUpt9.s 			page 117


 4508 06ca 73686F75 		.ascii	"shoucibysta\000"
 4508      63696279 
 4508      73746100 
 4509              	.LASF113:
 4510 06d6 446C7931 		.ascii	"Dly1\000"
 4510      00
 4511              	.LASF97:
 4512 06db 4E425072 		.ascii	"NBPressCnt\000"
 4512      65737343 
 4512      6E7400
 4513              	.LASF15:
 4514 06e6 72656733 		.ascii	"reg32\000"
 4514      3200
 4515              	.LASF126:
 4516 06ec 56323456 		.ascii	"V24V_Read\000"
 4516      5F526561 
 4516      6400
 4517              	.LASF147:
 4518 06f6 43795379 		.ascii	"CySysWdtEnable\000"
 4518      73576474 
 4518      456E6162 
 4518      6C6500
 4519              	.LASF26:
 4520 0705 6B756169 		.ascii	"kuaijiansta\000"
 4520      6A69616E 
 4520      73746100 
 4521              	.LASF2:
 4522 0711 73686F72 		.ascii	"short int\000"
 4522      7420696E 
 4522      7400
 4523              	.LASF77:
 4524 071b 4F70656E 		.ascii	"Open_UART_WIFI_ISR\000"
 4524      5F554152 
 4524      545F5749 
 4524      46495F49 
 4524      535200
 4525              	.LASF4:
 4526 072e 6C6F6E67 		.ascii	"long int\000"
 4526      20696E74 
 4526      00
 4527              	.LASF139:
 4528 0737 6973725F 		.ascii	"isr_lowpower_1_Disable\000"
 4528      6C6F7770 
 4528      6F776572 
 4528      5F315F44 
 4528      69736162 
 4529              	.LASF158:
 4530 074e 4C65645F 		.ascii	"Led_Pannel_Process\000"
 4530      50616E6E 
 4530      656C5F50 
 4530      726F6365 
 4530      737300
 4531              	.LASF156:
 4532 0761 6C767869 		.ascii	"lvxin_panduan\000"
 4532      6E5F7061 
 4532      6E647561 
 4532      6E00
ARM GAS  C:\Users\kevin\AppData\Local\Temp\ccrZUpt9.s 			page 118


 4533              	.LASF84:
 4534 076f 55415254 		.ascii	"UART_1_customIntrHandler\000"
 4534      5F315F63 
 4534      7573746F 
 4534      6D496E74 
 4534      7248616E 
 4535              	.LASF153:
 4536 0788 43617073 		.ascii	"Caps_Initial\000"
 4536      5F496E69 
 4536      7469616C 
 4536      00
 4537              	.LASF91:
 4538 0795 7374616E 		.ascii	"standkeyfig\000"
 4538      646B6579 
 4538      66696700 
 4539              	.LASF151:
 4540 07a1 72656164 		.ascii	"read\000"
 4540      00
 4541              	.LASF145:
 4542 07a6 43795379 		.ascii	"CySysWdtWriteMatch\000"
 4542      73576474 
 4542      57726974 
 4542      654D6174 
 4542      636800
 4543              	.LASF71:
 4544 07b9 55415254 		.ascii	"UART_1_Start\000"
 4544      5F315F53 
 4544      74617274 
 4544      00
 4545              	.LASF36:
 4546 07c6 7A696A69 		.ascii	"zijiansta\000"
 4546      616E7374 
 4546      6100
 4547              	.LASF65:
 4548 07d0 55415254 		.ascii	"UART_0_SetTxFifoLevel\000"
 4548      5F305F53 
 4548      65745478 
 4548      4669666F 
 4548      4C657665 
 4549              	.LASF142:
 4550 07e6 6973725F 		.ascii	"isr_lowpower_1_Enable\000"
 4550      6C6F7770 
 4550      6F776572 
 4550      5F315F45 
 4550      6E61626C 
 4551              	.LASF150:
 4552 07fc 456D6532 		.ascii	"Eme2prom_Initial\000"
 4552      70726F6D 
 4552      5F496E69 
 4552      7469616C 
 4552      00
 4553              	.LASF17:
 4554 080d 73697A65 		.ascii	"sizetype\000"
 4554      74797065 
 4554      00
 4555              	.LASF5:
 4556 0816 6C6F6E67 		.ascii	"long unsigned int\000"
ARM GAS  C:\Users\kevin\AppData\Local\Temp\ccrZUpt9.s 			page 119


 4556      20756E73 
 4556      69676E65 
 4556      6420696E 
 4556      7400
 4557              	.LASF63:
 4558 0828 55415254 		.ascii	"UART_0_Stop\000"
 4558      5F305F53 
 4558      746F7000 
 4559              	.LASF90:
 4560 0834 42555A71 		.ascii	"BUZqueshuifkg\000"
 4560      75657368 
 4560      7569666B 
 4560      6700
 4561              	.LASF117:
 4562 0842 56323456 		.ascii	"V24Vcnt\000"
 4562      636E7400 
 4563              	.LASF129:
 4564 084a 636C6561 		.ascii	"cleareepromArray\000"
 4564      72656570 
 4564      726F6D41 
 4564      72726179 
 4564      00
 4565              	.LASF120:
 4566 085b 4379536F 		.ascii	"CySoftwareReset\000"
 4566      66747761 
 4566      72655265 
 4566      73657400 
 4567              	.LASF35:
 4568 086b 77696669 		.ascii	"wifiset\000"
 4568      73657400 
 4569              	.LASF1:
 4570 0873 756E7369 		.ascii	"unsigned char\000"
 4570      676E6564 
 4570      20636861 
 4570      7200
 4571              	.LASF161:
 4572 0881 43617073 		.ascii	"Caps_Scan\000"
 4572      5F536361 
 4572      6E00
 4573              	.LASF166:
 4574 088b 4572726F 		.ascii	"Error_Send\000"
 4574      725F5365 
 4574      6E6400
 4575              	.LASF106:
 4576 0896 636C6561 		.ascii	"cleareepromArrayflag\000"
 4576      72656570 
 4576      726F6D41 
 4576      72726179 
 4576      666C6167 
 4577              	.LASF144:
 4578 08ab 43795379 		.ascii	"CySysWdtWriteMode\000"
 4578      73576474 
 4578      57726974 
 4578      654D6F64 
 4578      6500
 4579              	.LASF86:
 4580 08bd 55415254 		.ascii	"UART_0_customIntrHandler\000"
ARM GAS  C:\Users\kevin\AppData\Local\Temp\ccrZUpt9.s 			page 120


 4580      5F305F63 
 4580      7573746F 
 4580      6D496E74 
 4580      7248616E 
 4581              	.LASF29:
 4582 08d6 7374616E 		.ascii	"standbysta\000"
 4582      64627973 
 4582      746100
 4583              	.LASF134:
 4584 08e1 4379496E 		.ascii	"CyIntEnable\000"
 4584      74456E61 
 4584      626C6500 
 4585              	.LASF52:
 4586 08ed 55415254 		.ascii	"UART_1_Init\000"
 4586      5F315F49 
 4586      6E697400 
 4587              	.LASF0:
 4588 08f9 7369676E 		.ascii	"signed char\000"
 4588      65642063 
 4588      68617200 
 4589              	.LASF3:
 4590 0905 73686F72 		.ascii	"short unsigned int\000"
 4590      7420756E 
 4590      7369676E 
 4590      65642069 
 4590      6E7400
 4591              	.LASF82:
 4592 0918 6D61696E 		.ascii	"main\000"
 4592      00
 4593              	.LASF162:
 4594 091d 54696D65 		.ascii	"Timer_Isr_Fun\000"
 4594      725F4973 
 4594      725F4675 
 4594      6E00
 4595              	.LASF56:
 4596 092b 55415254 		.ascii	"UART_1_SetCustomInterruptHandler\000"
 4596      5F315F53 
 4596      65744375 
 4596      73746F6D 
 4596      496E7465 
 4597              	.LASF9:
 4598 094c 75696E74 		.ascii	"uint8\000"
 4598      3800
 4599              	.LASF13:
 4600 0952 646F7562 		.ascii	"double\000"
 4600      6C6500
 4601              	.LASF74:
 4602 0959 55415254 		.ascii	"UART_1_SetTxFifoLevel\000"
 4602      5F315F53 
 4602      65745478 
 4602      4669666F 
 4602      4C657665 
 4603              	.LASF69:
 4604 096f 55415254 		.ascii	"UART_1_ScbEnableIntr\000"
 4604      5F315F53 
 4604      6362456E 
 4604      61626C65 
ARM GAS  C:\Users\kevin\AppData\Local\Temp\ccrZUpt9.s 			page 121


 4604      496E7472 
 4605              	.LASF102:
 4606 0984 54696D65 		.ascii	"TimeBase_Interrupt_CountThree\000"
 4606      42617365 
 4606      5F496E74 
 4606      65727275 
 4606      70745F43 
 4607              	.LASF163:
 4608 09a2 576F726B 		.ascii	"Work_Fun\000"
 4608      5F46756E 
 4608      00
 4609              	.LASF112:
 4610 09ab 426F6F74 		.ascii	"BootloaderSign\000"
 4610      6C6F6164 
 4610      65725369 
 4610      676E00
 4611              	.LASF168:
 4612 09ba 2E5C6D61 		.ascii	".\\main.c\000"
 4612      696E2E63 
 4612      00
 4613              		.ident	"GCC: (GNU Tools for ARM Embedded Processors) 4.8.4 20140526 (release) [ARM/embedded-4_8-br
