ARM GAS  C:\Users\kevin\AppData\Local\Temp\cch7jGms.s 			page 1


   1              		.cpu cortex-m0
   2              		.fpu softvfp
   3              		.eabi_attribute 20, 1
   4              		.eabi_attribute 21, 1
   5              		.eabi_attribute 23, 3
   6              		.eabi_attribute 24, 1
   7              		.eabi_attribute 25, 1
   8              		.eabi_attribute 26, 1
   9              		.eabi_attribute 30, 4
  10              		.eabi_attribute 34, 0
  11              		.eabi_attribute 18, 4
  12              		.code	16
  13              		.file	"module.c"
  14              		.text
  15              	.Ltext0:
  16              		.cfi_sections	.debug_frame
  17              		.section	.text.InterruptHandler,"ax",%progbits
  18              		.align	1
  19              		.global	InterruptHandler
  20              		.code	16
  21              		.thumb_func
  22              		.type	InterruptHandler, %function
  23              	InterruptHandler:
  24              	.LFB35:
  25              		.file 1 ".\\module.c"
   1:.\module.c    **** /* ========================================
   2:.\module.c    ****  *
   3:.\module.c    ****  * Copyright YOUR COMPANY, THE YEAR
   4:.\module.c    ****  * All Rights Reserved
   5:.\module.c    ****  * UNPUBLISHED, LICENSED SOFTWARE.
   6:.\module.c    ****  *
   7:.\module.c    ****  * CONFIDENTIAL AND PROPRIETARY INFORMATION
   8:.\module.c    ****  * WHICH IS THE PROPERTY OF your company.
   9:.\module.c    ****  *
  10:.\module.c    ****  * ========================================
  11:.\module.c    **** */
  12:.\module.c    **** #define _MODULE_
  13:.\module.c    **** #include "module.h"
  14:.\module.c    **** #include "config.h"
  15:.\module.c    **** #include "flash_wr_rd.h"
  16:.\module.c    **** 
  17:.\module.c    **** /*****************************************************************\
  18:.\module.c    ****     Capsense
  19:.\module.c    **** \*****************************************************************/
  20:.\module.c    **** void Caps_Initial(void)
  21:.\module.c    **** {
  22:.\module.c    ****     CapSense_Start();	
  23:.\module.c    **** 
  24:.\module.c    ****     /* Initialize baselines */ 
  25:.\module.c    ****     CapSense_InitializeAllBaselines();
  26:.\module.c    ****         
  27:.\module.c    **** }
  28:.\module.c    ****     
  29:.\module.c    **** 
  30:.\module.c    **** void Caps_Scan(void)
  31:.\module.c    **** {
  32:.\module.c    ****     unsigned char kcnt;    
ARM GAS  C:\Users\kevin\AppData\Local\Temp\cch7jGms.s 			page 2


  33:.\module.c    ****     /* Update all baselines */
  34:.\module.c    ****     CapSense_UpdateEnabledBaselines();
  35:.\module.c    ****     /* Start scanning all enabled sensors */
  36:.\module.c    ****     CapSense_ScanEnabledWidgets();    
  37:.\module.c    ****     /* Wait for scanning to complete */
  38:.\module.c    ****     while(CapSense_IsBusy() != 0)
  39:.\module.c    ****     {
  40:.\module.c    ****     }
  41:.\module.c    ****     kcnt = 0;
  42:.\module.c    ****     BtnData2 = BtnData1;
  43:.\module.c    ****     if(CapSense_CheckIsWidgetActive(BTN_ACTIVATION))  //判断 激活键
  44:.\module.c    ****     {
  45:.\module.c    ****         kcnt++;
  46:.\module.c    ****         BtnData1 |= (0x01 << BTN_ACTIVATION);
  47:.\module.c    ****     }else
  48:.\module.c    ****     {
  49:.\module.c    ****         BtnData1 &= ~(0x01 << BTN_ACTIVATION);
  50:.\module.c    ****     }
  51:.\module.c    ****     if(CapSense_CheckIsWidgetActive(BTN_SETTING))    //判断选择键
  52:.\module.c    ****     {
  53:.\module.c    ****         kcnt++;
  54:.\module.c    ****         BtnData1 |= (0x01 << BTN_SETTING);
  55:.\module.c    ****     }else
  56:.\module.c    ****     {
  57:.\module.c    ****         BtnData1 &= ~(0x01 << BTN_SETTING);
  58:.\module.c    ****     }
  59:.\module.c    ****     if(CapSense_CheckIsWidgetActive(BTN_LINK))    //判断南北键
  60:.\module.c    ****     {
  61:.\module.c    ****         kcnt++;
  62:.\module.c    ****         BtnData1 |= (0x01 << BTN_LINK);
  63:.\module.c    ****     }else
  64:.\module.c    ****     {
  65:.\module.c    ****         BtnData1 &= ~(0x01 << BTN_LINK);
  66:.\module.c    ****     }
  67:.\module.c    ****     
  68:.\module.c    ****     
  69:.\module.c    ****     
  70:.\module.c    ****     
  71:.\module.c    ****     
  72:.\module.c    **** //   if(CapSense_CheckIsWidgetActive(BtnCnt))   
  73:.\module.c    **** //    {
  74:.\module.c    **** //        kcnt++;
  75:.\module.c    **** //        BtnData1 |= (0x01 << BtnCnt);
  76:.\module.c    **** //    }else
  77:.\module.c    **** //    {
  78:.\module.c    **** //        BtnData1 &= ~(0x01 << BtnCnt);
  79:.\module.c    **** //    }
  80:.\module.c    **** //    
  81:.\module.c    **** //    BtnCnt++;
  82:.\module.c    **** //    if(BtnCnt >= BTN_N)
  83:.\module.c    **** //    {
  84:.\module.c    **** //        BtnCnt = 0;
  85:.\module.c    **** //    }
  86:.\module.c    **** //    if((BtnData1&(0x01<<BTN_XZ)) && 
  87:.\module.c    **** //       (!(BtnData2&(0x01<<BTN_XZ))))
  88:.\module.c    **** //    {
  89:.\module.c    **** //        DigitalBuf += 100;
ARM GAS  C:\Users\kevin\AppData\Local\Temp\cch7jGms.s 			page 3


  90:.\module.c    **** //    }
  91:.\module.c    **** }
  92:.\module.c    **** 
  93:.\module.c    **** /*
  94:.\module.c    ****     EZI2C
  95:.\module.c    **** */
  96:.\module.c    **** #if EZI2C_EN
  97:.\module.c    **** void Ezi2c_Initial(void)
  98:.\module.c    **** {
  99:.\module.c    ****     /* Start EZI2C slave (SCB mode) */
 100:.\module.c    ****     EZI2C_EzI2CSetBuffer1(EZI2C_SIZE, 0, ezI2CBuffer);
 101:.\module.c    ****     EZI2C_Start();
 102:.\module.c    **** }
 103:.\module.c    **** #endif
 104:.\module.c    **** 
 105:.\module.c    **** 
 106:.\module.c    **** 
 107:.\module.c    **** 
 108:.\module.c    **** /*******************************************************************************
 109:.\module.c    **** *                       Timer
 110:.\module.c    **** ********************************************************************************/
 111:.\module.c    **** CY_ISR(InterruptHandler)
 112:.\module.c    **** {
  26              		.loc 1 112 0
  27              		.cfi_startproc
  28 0000 08B5     		push	{r3, lr}
  29              		.cfi_def_cfa_offset 8
  30              		.cfi_offset 3, -8
  31              		.cfi_offset 14, -4
 113:.\module.c    **** 	/* Clear Inerrupt */
 114:.\module.c    ****    	Timer_ClearInterrupt(Timer_INTR_MASK_TC );
  32              		.loc 1 114 0
  33 0002 0120     		mov	r0, #1
  34 0004 FFF7FEFF 		bl	Timer_ClearInterrupt
  35              	.LVL0:
 115:.\module.c    ****     
 116:.\module.c    **** 	/*100mS */
 117:.\module.c    ****     //TestPort_Write(~TestPort_ReadDataReg());
 118:.\module.c    ****     T10msSign = 1;
  36              		.loc 1 118 0
  37 0008 014B     		ldr	r3, .L2
  38 000a 0122     		mov	r2, #1
  39 000c 1A70     		strb	r2, [r3]
 119:.\module.c    ****     
 120:.\module.c    ****     
 121:.\module.c    **** }
  40              		.loc 1 121 0
  41              		@ sp needed
  42 000e 08BD     		pop	{r3, pc}
  43              	.L3:
  44              		.align	2
  45              	.L2:
  46 0010 00000000 		.word	T10msSign
  47              		.cfi_endproc
  48              	.LFE35:
  49              		.size	InterruptHandler, .-InterruptHandler
  50              		.section	.text.Caps_Initial,"ax",%progbits
ARM GAS  C:\Users\kevin\AppData\Local\Temp\cch7jGms.s 			page 4


  51              		.align	1
  52              		.global	Caps_Initial
  53              		.code	16
  54              		.thumb_func
  55              		.type	Caps_Initial, %function
  56              	Caps_Initial:
  57              	.LFB33:
  21:.\module.c    **** {
  58              		.loc 1 21 0
  59              		.cfi_startproc
  60 0000 08B5     		push	{r3, lr}
  61              		.cfi_def_cfa_offset 8
  62              		.cfi_offset 3, -8
  63              		.cfi_offset 14, -4
  22:.\module.c    ****     CapSense_Start();	
  64              		.loc 1 22 0
  65 0002 FFF7FEFF 		bl	CapSense_Start
  66              	.LVL1:
  27:.\module.c    **** }
  67              		.loc 1 27 0
  68              		@ sp needed
  25:.\module.c    ****     CapSense_InitializeAllBaselines();
  69              		.loc 1 25 0
  70 0006 FFF7FEFF 		bl	CapSense_InitializeAllBaselines
  71              	.LVL2:
  27:.\module.c    **** }
  72              		.loc 1 27 0
  73 000a 08BD     		pop	{r3, pc}
  74              		.cfi_endproc
  75              	.LFE33:
  76              		.size	Caps_Initial, .-Caps_Initial
  77              		.section	.text.Caps_Scan,"ax",%progbits
  78              		.align	1
  79              		.global	Caps_Scan
  80              		.code	16
  81              		.thumb_func
  82              		.type	Caps_Scan, %function
  83              	Caps_Scan:
  84              	.LFB34:
  31:.\module.c    **** {
  85              		.loc 1 31 0
  86              		.cfi_startproc
  87 0000 10B5     		push	{r4, lr}
  88              		.cfi_def_cfa_offset 8
  89              		.cfi_offset 4, -8
  90              		.cfi_offset 14, -4
  34:.\module.c    ****     CapSense_UpdateEnabledBaselines();
  91              		.loc 1 34 0
  92 0002 FFF7FEFF 		bl	CapSense_UpdateEnabledBaselines
  93              	.LVL3:
  36:.\module.c    ****     CapSense_ScanEnabledWidgets();    
  94              		.loc 1 36 0
  95 0006 FFF7FEFF 		bl	CapSense_ScanEnabledWidgets
  96              	.LVL4:
  97              	.L7:
  38:.\module.c    ****     while(CapSense_IsBusy() != 0)
  98              		.loc 1 38 0 discriminator 1
ARM GAS  C:\Users\kevin\AppData\Local\Temp\cch7jGms.s 			page 5


  99 000a FFF7FEFF 		bl	CapSense_IsBusy
 100              	.LVL5:
 101 000e 0028     		cmp	r0, #0
 102 0010 FBD1     		bne	.L7
 103              	.LVL6:
  42:.\module.c    ****     BtnData2 = BtnData1;
 104              		.loc 1 42 0
 105 0012 134C     		ldr	r4, .L18
 106 0014 134B     		ldr	r3, .L18+4
 107 0016 2278     		ldrb	r2, [r4]
 108 0018 1A70     		strb	r2, [r3]
  43:.\module.c    ****     if(CapSense_CheckIsWidgetActive(BTN_ACTIVATION))  //判断 激活键
 109              		.loc 1 43 0
 110 001a FFF7FEFF 		bl	CapSense_CheckIsWidgetActive
 111              	.LVL7:
 112 001e 2378     		ldrb	r3, [r4]
 113 0020 0122     		mov	r2, #1
 114 0022 0028     		cmp	r0, #0
 115 0024 01D0     		beq	.L8
 116              	.LVL8:
  46:.\module.c    ****         BtnData1 |= (0x01 << BTN_ACTIVATION);
 117              		.loc 1 46 0
 118 0026 1343     		orr	r3, r2
 119 0028 00E0     		b	.L14
 120              	.LVL9:
 121              	.L8:
  49:.\module.c    ****         BtnData1 &= ~(0x01 << BTN_ACTIVATION);
 122              		.loc 1 49 0
 123 002a 9343     		bic	r3, r2
 124              	.LVL10:
 125              	.L14:
  51:.\module.c    ****     if(CapSense_CheckIsWidgetActive(BTN_SETTING))    //判断选择键
 126              		.loc 1 51 0
 127 002c 0120     		mov	r0, #1
  49:.\module.c    ****         BtnData1 &= ~(0x01 << BTN_ACTIVATION);
 128              		.loc 1 49 0
 129 002e 2370     		strb	r3, [r4]
  51:.\module.c    ****     if(CapSense_CheckIsWidgetActive(BTN_SETTING))    //判断选择键
 130              		.loc 1 51 0
 131 0030 FFF7FEFF 		bl	CapSense_CheckIsWidgetActive
 132              	.LVL11:
 133 0034 0223     		mov	r3, #2
  54:.\module.c    ****         BtnData1 |= (0x01 << BTN_SETTING);
 134              		.loc 1 54 0
 135 0036 2278     		ldrb	r2, [r4]
  51:.\module.c    ****     if(CapSense_CheckIsWidgetActive(BTN_SETTING))    //判断选择键
 136              		.loc 1 51 0
 137 0038 0028     		cmp	r0, #0
 138 003a 01D0     		beq	.L10
  54:.\module.c    ****         BtnData1 |= (0x01 << BTN_SETTING);
 139              		.loc 1 54 0
 140 003c 1343     		orr	r3, r2
 141 003e 01E0     		b	.L15
 142              	.L10:
  57:.\module.c    ****         BtnData1 &= ~(0x01 << BTN_SETTING);
 143              		.loc 1 57 0
 144 0040 9A43     		bic	r2, r3
ARM GAS  C:\Users\kevin\AppData\Local\Temp\cch7jGms.s 			page 6


 145 0042 131C     		mov	r3, r2
 146              	.L15:
  59:.\module.c    ****     if(CapSense_CheckIsWidgetActive(BTN_LINK))    //判断南北键
 147              		.loc 1 59 0
 148 0044 0220     		mov	r0, #2
  57:.\module.c    ****         BtnData1 &= ~(0x01 << BTN_SETTING);
 149              		.loc 1 57 0
 150 0046 2370     		strb	r3, [r4]
  59:.\module.c    ****     if(CapSense_CheckIsWidgetActive(BTN_LINK))    //判断南北键
 151              		.loc 1 59 0
 152 0048 FFF7FEFF 		bl	CapSense_CheckIsWidgetActive
 153              	.LVL12:
 154 004c 0423     		mov	r3, #4
  62:.\module.c    ****         BtnData1 |= (0x01 << BTN_LINK);
 155              		.loc 1 62 0
 156 004e 2278     		ldrb	r2, [r4]
  59:.\module.c    ****     if(CapSense_CheckIsWidgetActive(BTN_LINK))    //判断南北键
 157              		.loc 1 59 0
 158 0050 0028     		cmp	r0, #0
 159 0052 01D0     		beq	.L12
  62:.\module.c    ****         BtnData1 |= (0x01 << BTN_LINK);
 160              		.loc 1 62 0
 161 0054 1343     		orr	r3, r2
 162 0056 01E0     		b	.L16
 163              	.L12:
  65:.\module.c    ****         BtnData1 &= ~(0x01 << BTN_LINK);
 164              		.loc 1 65 0
 165 0058 9A43     		bic	r2, r3
 166 005a 131C     		mov	r3, r2
 167              	.L16:
 168 005c 2370     		strb	r3, [r4]
  91:.\module.c    **** }
 169              		.loc 1 91 0
 170              		@ sp needed
 171 005e 10BD     		pop	{r4, pc}
 172              	.L19:
 173              		.align	2
 174              	.L18:
 175 0060 00000000 		.word	BtnData1
 176 0064 00000000 		.word	BtnData2
 177              		.cfi_endproc
 178              	.LFE34:
 179              		.size	Caps_Scan, .-Caps_Scan
 180              		.section	.text.Timer_Initial,"ax",%progbits
 181              		.align	1
 182              		.global	Timer_Initial
 183              		.code	16
 184              		.thumb_func
 185              		.type	Timer_Initial, %function
 186              	Timer_Initial:
 187              	.LFB36:
 122:.\module.c    **** 
 123:.\module.c    **** void Timer_Initial(void)
 124:.\module.c    **** {
 188              		.loc 1 124 0
 189              		.cfi_startproc
 190 0000 08B5     		push	{r3, lr}
ARM GAS  C:\Users\kevin\AppData\Local\Temp\cch7jGms.s 			page 7


 191              		.cfi_def_cfa_offset 8
 192              		.cfi_offset 3, -8
 193              		.cfi_offset 14, -4
 125:.\module.c    ****     /* Enable the Interrupt component connected to interrupt */
 126:.\module.c    ****     CC_ISR_StartEx(InterruptHandler);
 194              		.loc 1 126 0
 195 0002 0348     		ldr	r0, .L21
 196 0004 FFF7FEFF 		bl	CC_ISR_StartEx
 197              	.LVL13:
 127:.\module.c    **** 
 128:.\module.c    **** 	/* Start the components */
 129:.\module.c    ****     Timer_Start();
 130:.\module.c    **** }
 198              		.loc 1 130 0
 199              		@ sp needed
 129:.\module.c    ****     Timer_Start();
 200              		.loc 1 129 0
 201 0008 FFF7FEFF 		bl	Timer_Start
 202              	.LVL14:
 203              		.loc 1 130 0
 204 000c 08BD     		pop	{r3, pc}
 205              	.L22:
 206 000e C046     		.align	2
 207              	.L21:
 208 0010 00000000 		.word	InterruptHandler
 209              		.cfi_endproc
 210              	.LFE36:
 211              		.size	Timer_Initial, .-Timer_Initial
 212              		.section	.text.Eme2prom_Initial,"ax",%progbits
 213              		.align	1
 214              		.global	Eme2prom_Initial
 215              		.code	16
 216              		.thumb_func
 217              		.type	Eme2prom_Initial, %function
 218              	Eme2prom_Initial:
 219              	.LFB37:
 131:.\module.c    **** 
 132:.\module.c    **** /*******************************************************************************
 133:.\module.c    **** *                       EM_E2PROM
 134:.\module.c    **** ********************************************************************************/
 135:.\module.c    **** void Eme2prom_Initial(void)
 136:.\module.c    **** {
 220              		.loc 1 136 0
 221              		.cfi_startproc
 137:.\module.c    ****     //EEPROM_Start();   
 138:.\module.c    **** }
 222              		.loc 1 138 0
 223              		@ sp needed
 224 0000 7047     		bx	lr
 225              		.cfi_endproc
 226              	.LFE37:
 227              		.size	Eme2prom_Initial, .-Eme2prom_Initial
 228              		.section	.text.read,"ax",%progbits
 229              		.align	1
 230              		.global	read
 231              		.code	16
 232              		.thumb_func
ARM GAS  C:\Users\kevin\AppData\Local\Temp\cch7jGms.s 			page 8


 233              		.type	read, %function
 234              	read:
 235              	.LFB38:
 139:.\module.c    **** 
 140:.\module.c    **** 
 141:.\module.c    **** void read(void)
 142:.\module.c    **** {   
 236              		.loc 1 142 0
 237              		.cfi_startproc
 238 0000 70B5     		push	{r4, r5, r6, lr}
 239              		.cfi_def_cfa_offset 16
 240              		.cfi_offset 4, -16
 241              		.cfi_offset 5, -12
 242              		.cfi_offset 6, -8
 243              		.cfi_offset 14, -4
 143:.\module.c    **** 	u_char  i,j,k;
 144:.\module.c    **** 	memset(array,0x00,31);           
 244              		.loc 1 144 0
 245 0002 1A4D     		ldr	r5, .L35
 246 0004 0021     		mov	r1, #0
 247 0006 281C     		mov	r0, r5
 248 0008 1F22     		mov	r2, #31
 249 000a FFF7FEFF 		bl	memset
 250              	.LVL15:
 251 000e 0024     		mov	r4, #0
 252              	.LVL16:
 253              	.L26:
 145:.\module.c    **** 	for(i=0;i<44;i++)
 146:.\module.c    **** 	  {   
 147:.\module.c    **** 	      array[i]=Flash_Read_aByte_Sys(i);
 254              		.loc 1 147 0 discriminator 2
 255 0010 E0B2     		uxtb	r0, r4
 256 0012 FFF7FEFF 		bl	Flash_Read_aByte_Sys
 257              	.LVL17:
 258 0016 2855     		strb	r0, [r5, r4]
 259              	.LVL18:
 260 0018 0134     		add	r4, r4, #1
 261              	.LVL19:
 145:.\module.c    **** 	for(i=0;i<44;i++)
 262              		.loc 1 145 0 discriminator 2
 263 001a 2C2C     		cmp	r4, #44
 264 001c F8D1     		bne	.L26
 145:.\module.c    **** 	for(i=0;i<44;i++)
 265              		.loc 1 145 0 is_stmt 0
 266 001e 0023     		mov	r3, #0
 267              	.LVL20:
 268              	.L28:
 148:.\module.c    **** 	  }
 149:.\module.c    **** 	  
 150:.\module.c    **** 	for(i=0,j=0;i<24;(i=i+2))
 151:.\module.c    **** 	  {
 152:.\module.c    **** 	      Filter_Full_Data_Buf[j]|=array[i+1];
 153:.\module.c    **** 	      Filter_Full_Data_Buf[j]=(Filter_Full_Data_Buf[j]<<8);
 154:.\module.c    **** 	      Filter_Full_Data_Buf[j]|=array[i];
 269              		.loc 1 154 0 is_stmt 1 discriminator 2
 270 0020 134A     		ldr	r2, .L35+4
 271 0022 E818     		add	r0, r5, r3
ARM GAS  C:\Users\kevin\AppData\Local\Temp\cch7jGms.s 			page 9


 272 0024 9918     		add	r1, r3, r2
 152:.\module.c    **** 	      Filter_Full_Data_Buf[j]|=array[i+1];
 273              		.loc 1 152 0 discriminator 2
 274 0026 4678     		ldrb	r6, [r0, #1]
 275 0028 0C88     		ldrh	r4, [r1]
 276              		.loc 1 154 0 discriminator 2
 277 002a 0078     		ldrb	r0, [r0]
 152:.\module.c    **** 	      Filter_Full_Data_Buf[j]|=array[i+1];
 278              		.loc 1 152 0 discriminator 2
 279 002c 3443     		orr	r4, r6
 153:.\module.c    **** 	      Filter_Full_Data_Buf[j]=(Filter_Full_Data_Buf[j]<<8);
 280              		.loc 1 153 0 discriminator 2
 281 002e 2402     		lsl	r4, r4, #8
 282              		.loc 1 154 0 discriminator 2
 283 0030 2043     		orr	r0, r4
 284 0032 0233     		add	r3, r3, #2
 285              	.LVL21:
 286 0034 0880     		strh	r0, [r1]
 287              	.LVL22:
 288 0036 141C     		mov	r4, r2
 150:.\module.c    **** 	for(i=0,j=0;i<24;(i=i+2))
 289              		.loc 1 150 0 discriminator 2
 290 0038 182B     		cmp	r3, #24
 291 003a F1D1     		bne	.L28
 150:.\module.c    **** 	for(i=0,j=0;i<24;(i=i+2))
 292              		.loc 1 150 0 is_stmt 0
 293 003c 0023     		mov	r3, #0
 294              	.L32:
 155:.\module.c    **** 	      j++;
 156:.\module.c    **** 	  }
 157:.\module.c    ****   for(k=0;k<6;k++)
 158:.\module.c    ****     {
 159:.\module.c    ****         if(Filter_Full_Data_Buf[k]>=Filter_Full_Data_Buf[k+6])
 295              		.loc 1 159 0 is_stmt 1
 296 003e E218     		add	r2, r4, r3
 297 0040 1088     		ldrh	r0, [r2]
 298 0042 9189     		ldrh	r1, [r2, #12]
 299 0044 8842     		cmp	r0, r1
 300 0046 01D3     		bcc	.L29
 160:.\module.c    ****             Filter_Full_Data_Buf[k+6]=Filter_Full_Data_Buf[k];
 301              		.loc 1 160 0
 302 0048 9081     		strh	r0, [r2, #12]
 303 004a 00E0     		b	.L30
 304              	.L29:
 161:.\module.c    ****         else
 162:.\module.c    ****             Filter_Full_Data_Buf[k]=Filter_Full_Data_Buf[k+6];
 305              		.loc 1 162 0
 306 004c 1180     		strh	r1, [r2]
 307              	.L30:
 308              	.LVL23:
 309 004e 0233     		add	r3, r3, #2
 157:.\module.c    ****   for(k=0;k<6;k++)
 310              		.loc 1 157 0
 311 0050 0C2B     		cmp	r3, #12
 312 0052 F4D1     		bne	.L32
 163:.\module.c    ****     }
 164:.\module.c    ****  	Firmware_Version=array[25];
ARM GAS  C:\Users\kevin\AppData\Local\Temp\cch7jGms.s 			page 10


 313              		.loc 1 164 0
 314 0054 6A7E     		ldrb	r2, [r5, #25]
 315 0056 0749     		ldr	r1, .L35+8
 165:.\module.c    ****  	Firmware_Versionbak=array[26];  
 316              		.loc 1 165 0
 317 0058 0748     		ldr	r0, .L35+12
 164:.\module.c    ****  	Firmware_Version=array[25];
 318              		.loc 1 164 0
 319 005a 0A70     		strb	r2, [r1]
 320              		.loc 1 165 0
 321 005c AB7E     		ldrb	r3, [r5, #26]
 322 005e 0370     		strb	r3, [r0]
 166:.\module.c    ****  	if(Firmware_Version>=Firmware_Versionbak)
 323              		.loc 1 166 0
 324 0060 9A42     		cmp	r2, r3
 325 0062 01D3     		bcc	.L33
 167:.\module.c    ****      Firmware_Versionbak=Firmware_Version;
 326              		.loc 1 167 0
 327 0064 0270     		strb	r2, [r0]
 328 0066 00E0     		b	.L24
 329              	.L33:
 168:.\module.c    ****   else	
 169:.\module.c    ****      Firmware_Version=Firmware_Versionbak;  		
 330              		.loc 1 169 0
 331 0068 0B70     		strb	r3, [r1]
 332              	.L24:
 170:.\module.c    **** }
 333              		.loc 1 170 0
 334              		@ sp needed
 335 006a 70BD     		pop	{r4, r5, r6, pc}
 336              	.L36:
 337              		.align	2
 338              	.L35:
 339 006c 00000000 		.word	array
 340 0070 00000000 		.word	Filter_Full_Data_Buf
 341 0074 00000000 		.word	Firmware_Version
 342 0078 00000000 		.word	Firmware_Versionbak
 343              		.cfi_endproc
 344              	.LFE38:
 345              		.size	read, .-read
 346              		.section	.text.write,"ax",%progbits
 347              		.align	1
 348              		.global	write
 349              		.code	16
 350              		.thumb_func
 351              		.type	write, %function
 352              	write:
 353              	.LFB39:
 171:.\module.c    **** 
 172:.\module.c    **** void write(void)
 173:.\module.c    **** {
 354              		.loc 1 173 0
 355              		.cfi_startproc
 356 0000 10B5     		push	{r4, lr}
 357              		.cfi_def_cfa_offset 8
 358              		.cfi_offset 4, -8
 359              		.cfi_offset 14, -4
ARM GAS  C:\Users\kevin\AppData\Local\Temp\cch7jGms.s 			page 11


 174:.\module.c    ****     u_char m,n;
 175:.\module.c    **** 	  memset(array,0x00,31);        
 360              		.loc 1 175 0
 361 0002 0D4C     		ldr	r4, .L40
 362 0004 0021     		mov	r1, #0
 363 0006 201C     		mov	r0, r4
 364 0008 1F22     		mov	r2, #31
 365 000a FFF7FEFF 		bl	memset
 366              	.LVL24:
 367 000e 0023     		mov	r3, #0
 368 0010 201C     		mov	r0, r4
 369              	.LVL25:
 370              	.L39:
 176:.\module.c    ****     for(m=0,n=0;m<24;(m=m+2))
 177:.\module.c    **** 	    {
 178:.\module.c    **** 	        array[m]=Filter_Full_Data_Buf[n];//取出n号滤芯计时的低八位
 371              		.loc 1 178 0 discriminator 2
 372 0012 0A4A     		ldr	r2, .L40+4
 373 0014 D15A     		ldrh	r1, [r2, r3]
 374 0016 C218     		add	r2, r0, r3
 375 0018 1170     		strb	r1, [r2]
 376 001a 0233     		add	r3, r3, #2
 377              	.LVL26:
 179:.\module.c    **** 	        array[m+1]=(Filter_Full_Data_Buf[n]>>8);//取出n号滤芯计时的高八位     
 378              		.loc 1 179 0 discriminator 2
 379 001c 090A     		lsr	r1, r1, #8
 380 001e 5170     		strb	r1, [r2, #1]
 381              	.LVL27:
 176:.\module.c    ****     for(m=0,n=0;m<24;(m=m+2))
 382              		.loc 1 176 0 discriminator 2
 383 0020 182B     		cmp	r3, #24
 384 0022 F6D1     		bne	.L39
 180:.\module.c    **** 	        n++;
 181:.\module.c    **** 	    }
 182:.\module.c    **** 	  array[25]=Firmware_Version;
 385              		.loc 1 182 0
 386 0024 064B     		ldr	r3, .L40+8
 183:.\module.c    **** 	  array[26]=Firmware_Version;
 184:.\module.c    **** 	  array[27]=Firmware_Update; 
 185:.\module.c    ****     Flash_Write_aRow_Data_Sys(array);
 186:.\module.c    **** 
 187:.\module.c    **** }
 387              		.loc 1 187 0
 388              		@ sp needed
 182:.\module.c    **** 	  array[25]=Firmware_Version;
 389              		.loc 1 182 0
 390 0026 1B78     		ldrb	r3, [r3]
 391 0028 4376     		strb	r3, [r0, #25]
 183:.\module.c    **** 	  array[26]=Firmware_Version;
 392              		.loc 1 183 0
 393 002a 8376     		strb	r3, [r0, #26]
 184:.\module.c    **** 	  array[27]=Firmware_Update; 
 394              		.loc 1 184 0
 395 002c 054B     		ldr	r3, .L40+12
 396 002e 1B78     		ldrb	r3, [r3]
 397 0030 C376     		strb	r3, [r0, #27]
 185:.\module.c    ****     Flash_Write_aRow_Data_Sys(array);
ARM GAS  C:\Users\kevin\AppData\Local\Temp\cch7jGms.s 			page 12


 398              		.loc 1 185 0
 399 0032 FFF7FEFF 		bl	Flash_Write_aRow_Data_Sys
 400              	.LVL28:
 401              		.loc 1 187 0
 402 0036 10BD     		pop	{r4, pc}
 403              	.L41:
 404              		.align	2
 405              	.L40:
 406 0038 00000000 		.word	array
 407 003c 00000000 		.word	Filter_Full_Data_Buf
 408 0040 00000000 		.word	Firmware_Version
 409 0044 00000000 		.word	Firmware_Update
 410              		.cfi_endproc
 411              	.LFE39:
 412              		.size	write, .-write
 413              		.section	.text.read1,"ax",%progbits
 414              		.align	1
 415              		.global	read1
 416              		.code	16
 417              		.thumb_func
 418              		.type	read1, %function
 419              	read1:
 420              	.LFB40:
 188:.\module.c    **** void read1(void)
 189:.\module.c    **** {
 421              		.loc 1 189 0
 422              		.cfi_startproc
 423 0000 F8B5     		push	{r3, r4, r5, r6, r7, lr}
 424              		.cfi_def_cfa_offset 24
 425              		.cfi_offset 3, -24
 426              		.cfi_offset 4, -20
 427              		.cfi_offset 5, -16
 428              		.cfi_offset 6, -12
 429              		.cfi_offset 7, -8
 430              		.cfi_offset 14, -4
 190:.\module.c    ****     u_char  i,j,k;
 191:.\module.c    **** 	  memset(array,0x00,31);           
 431              		.loc 1 191 0
 432 0002 334C     		ldr	r4, .L61
 433 0004 0021     		mov	r1, #0
 434 0006 201C     		mov	r0, r4
 435 0008 1F22     		mov	r2, #31
 436 000a FFF7FEFF 		bl	memset
 437              	.LVL29:
 438 000e 0025     		mov	r5, #0
 439              	.LVL30:
 440              	.L44:
 192:.\module.c    ****     for(i=0;i<44;i++)
 193:.\module.c    ****     {   
 194:.\module.c    ****         array[i]=Flash_Read_aByte(i);
 441              		.loc 1 194 0 discriminator 2
 442 0010 E8B2     		uxtb	r0, r5
 443 0012 FFF7FEFF 		bl	Flash_Read_aByte
 444              	.LVL31:
 445 0016 6055     		strb	r0, [r4, r5]
 446              	.LVL32:
 447 0018 0135     		add	r5, r5, #1
ARM GAS  C:\Users\kevin\AppData\Local\Temp\cch7jGms.s 			page 13


 448              	.LVL33:
 192:.\module.c    ****     for(i=0;i<44;i++)
 449              		.loc 1 192 0 discriminator 2
 450 001a 2C2D     		cmp	r5, #44
 451 001c F8D1     		bne	.L44
 192:.\module.c    ****     for(i=0;i<44;i++)
 452              		.loc 1 192 0 is_stmt 0
 453 001e 0023     		mov	r3, #0
 454              	.LVL34:
 455              	.L46:
 195:.\module.c    ****     }
 196:.\module.c    ****     
 197:.\module.c    ****     for(i=4,j=0;i<28;(i=i+2))
 198:.\module.c    ****     {
 199:.\module.c    ****         LvxinJishi[j]|=array[i+1];
 200:.\module.c    ****         LvxinJishi[j]=(LvxinJishi[j]<<8);
 201:.\module.c    ****         LvxinJishi[j]|=array[i];
 456              		.loc 1 201 0 is_stmt 1 discriminator 2
 457 0020 2C4A     		ldr	r2, .L61+4
 458 0022 E018     		add	r0, r4, r3
 459 0024 9918     		add	r1, r3, r2
 199:.\module.c    ****         LvxinJishi[j]|=array[i+1];
 460              		.loc 1 199 0 discriminator 2
 461 0026 4679     		ldrb	r6, [r0, #5]
 462 0028 0D88     		ldrh	r5, [r1]
 463              		.loc 1 201 0 discriminator 2
 464 002a 0079     		ldrb	r0, [r0, #4]
 199:.\module.c    ****         LvxinJishi[j]|=array[i+1];
 465              		.loc 1 199 0 discriminator 2
 466 002c 3543     		orr	r5, r6
 200:.\module.c    ****         LvxinJishi[j]=(LvxinJishi[j]<<8);
 467              		.loc 1 200 0 discriminator 2
 468 002e 2D02     		lsl	r5, r5, #8
 469              		.loc 1 201 0 discriminator 2
 470 0030 2843     		orr	r0, r5
 471 0032 0233     		add	r3, r3, #2
 472              	.LVL35:
 473 0034 0880     		strh	r0, [r1]
 474              	.LVL36:
 475 0036 9446     		mov	ip, r2
 197:.\module.c    ****     for(i=4,j=0;i<28;(i=i+2))
 476              		.loc 1 197 0 discriminator 2
 477 0038 182B     		cmp	r3, #24
 478 003a F1D1     		bne	.L46
 197:.\module.c    ****     for(i=4,j=0;i<28;(i=i+2))
 479              		.loc 1 197 0 is_stmt 0
 480 003c 0023     		mov	r3, #0
 481              	.L48:
 482              	.LVL37:
 202:.\module.c    ****         j++;
 203:.\module.c    ****     }
 204:.\module.c    ****     for(i=31,j=0;i<43;i++)
 205:.\module.c    ****     {
 206:.\module.c    ****         Filter_Changed_Num[j]|=array[i];
 483              		.loc 1 206 0 is_stmt 1 discriminator 2
 484 003e 264A     		ldr	r2, .L61+8
 485 0040 E018     		add	r0, r4, r3
ARM GAS  C:\Users\kevin\AppData\Local\Temp\cch7jGms.s 			page 14


 486 0042 9918     		add	r1, r3, r2
 487 0044 C57F     		ldrb	r5, [r0, #31]
 488 0046 0878     		ldrb	r0, [r1]
 489 0048 0133     		add	r3, r3, #1
 490              	.LVL38:
 491 004a 2843     		orr	r0, r5
 492 004c 0870     		strb	r0, [r1]
 493              	.LVL39:
 204:.\module.c    ****     for(i=31,j=0;i<43;i++)
 494              		.loc 1 204 0 discriminator 2
 495 004e 0C2B     		cmp	r3, #12
 496 0050 F5D1     		bne	.L48
 207:.\module.c    ****         j++;
 208:.\module.c    ****     }
 209:.\module.c    ****     jingshuiliang|=array[3];
 497              		.loc 1 209 0
 498 0052 224E     		ldr	r6, .L61+12
 499 0054 E278     		ldrb	r2, [r4, #3]
 500 0056 3388     		ldrh	r3, [r6]
 210:.\module.c    ****     jingshuiliang=(jingshuiliang<<8);
 211:.\module.c    ****     jingshuiliang|=array[2];
 212:.\module.c    ****     
 213:.\module.c    ****     EEjingshuiliang|=array[29];
 501              		.loc 1 213 0
 502 0058 214D     		ldr	r5, .L61+16
 209:.\module.c    ****     jingshuiliang|=array[3];
 503              		.loc 1 209 0
 504 005a 1A43     		orr	r2, r3
 211:.\module.c    ****     jingshuiliang|=array[2];
 505              		.loc 1 211 0
 506 005c A378     		ldrb	r3, [r4, #2]
 210:.\module.c    ****     jingshuiliang=(jingshuiliang<<8);
 507              		.loc 1 210 0
 508 005e 1202     		lsl	r2, r2, #8
 211:.\module.c    ****     jingshuiliang|=array[2];
 509              		.loc 1 211 0
 510 0060 1A43     		orr	r2, r3
 511 0062 92B2     		uxth	r2, r2
 512 0064 3280     		strh	r2, [r6]
 513              		.loc 1 213 0
 514 0066 617F     		ldrb	r1, [r4, #29]
 515 0068 2B88     		ldrh	r3, [r5]
 214:.\module.c    ****     EEjingshuiliang=(EEjingshuiliang<<8);
 215:.\module.c    ****     EEjingshuiliang|=array[28];
 216:.\module.c    ****     
 217:.\module.c    ****     NBfig=array[0];
 516              		.loc 1 217 0
 517 006a 2078     		ldrb	r0, [r4]
 213:.\module.c    ****     EEjingshuiliang|=array[29];
 518              		.loc 1 213 0
 519 006c 0B43     		orr	r3, r1
 215:.\module.c    ****     EEjingshuiliang|=array[28];
 520              		.loc 1 215 0
 521 006e 217F     		ldrb	r1, [r4, #28]
 214:.\module.c    ****     EEjingshuiliang=(EEjingshuiliang<<8);
 522              		.loc 1 214 0
 523 0070 1B02     		lsl	r3, r3, #8
ARM GAS  C:\Users\kevin\AppData\Local\Temp\cch7jGms.s 			page 15


 215:.\module.c    ****     EEjingshuiliang|=array[28];
 524              		.loc 1 215 0
 525 0072 0B43     		orr	r3, r1
 526              		.loc 1 217 0
 527 0074 1B49     		ldr	r1, .L61+20
 215:.\module.c    ****     EEjingshuiliang|=array[28];
 528              		.loc 1 215 0
 529 0076 9BB2     		uxth	r3, r3
 530 0078 2B80     		strh	r3, [r5]
 531              		.loc 1 217 0
 532 007a 0870     		strb	r0, [r1]
 218:.\module.c    ****     
 219:.\module.c    ****     gyfullcnt=array[1];
 533              		.loc 1 219 0
 534 007c 6078     		ldrb	r0, [r4, #1]
 535 007e 1A4F     		ldr	r7, .L61+24
 536 0080 3870     		strb	r0, [r7]
 220:.\module.c    ****     EEgyfullcnt=array[30];
 537              		.loc 1 220 0
 538 0082 A17F     		ldrb	r1, [r4, #30]
 539 0084 194C     		ldr	r4, .L61+28
 540 0086 2170     		strb	r1, [r4]
 221:.\module.c    ****     
 222:.\module.c    ****     if(gyfullcnt>=EEgyfullcnt)
 541              		.loc 1 222 0
 542 0088 8842     		cmp	r0, r1
 543 008a 01D3     		bcc	.L49
 223:.\module.c    ****         EEgyfullcnt=gyfullcnt;
 544              		.loc 1 223 0
 545 008c 2070     		strb	r0, [r4]
 546 008e 00E0     		b	.L50
 547              	.L49:
 224:.\module.c    ****     else
 225:.\module.c    ****         gyfullcnt=EEgyfullcnt;
 548              		.loc 1 225 0
 549 0090 3970     		strb	r1, [r7]
 550              	.L50:
 226:.\module.c    ****     
 227:.\module.c    ****     if(jingshuiliang>=EEjingshuiliang)
 551              		.loc 1 227 0
 552 0092 9A42     		cmp	r2, r3
 553 0094 01D3     		bcc	.L51
 228:.\module.c    ****         EEjingshuiliang=jingshuiliang;
 554              		.loc 1 228 0
 555 0096 2A80     		strh	r2, [r5]
 556 0098 00E0     		b	.L52
 557              	.L51:
 229:.\module.c    ****     else
 230:.\module.c    ****         jingshuiliang=EEjingshuiliang;
 558              		.loc 1 230 0
 559 009a 3380     		strh	r3, [r6]
 560              	.L52:
 561              	.LVL40:
 197:.\module.c    ****     for(i=4,j=0;i<28;(i=i+2))
 562              		.loc 1 197 0 discriminator 1
 563 009c 0023     		mov	r3, #0
 564              	.LVL41:
ARM GAS  C:\Users\kevin\AppData\Local\Temp\cch7jGms.s 			page 16


 565              	.L56:
 231:.\module.c    ****     for(k=0;k<6;k++)
 232:.\module.c    **** 	    {
 233:.\module.c    **** 	        if(LvxinJishi[k]>=LvxinJishi[k+6])
 566              		.loc 1 233 0
 567 009e 6146     		mov	r1, ip
 568 00a0 CA18     		add	r2, r1, r3
 569 00a2 1088     		ldrh	r0, [r2]
 570 00a4 9189     		ldrh	r1, [r2, #12]
 571 00a6 8842     		cmp	r0, r1
 572 00a8 01D3     		bcc	.L53
 234:.\module.c    **** 	            LvxinJishi[k+6]=LvxinJishi[k];
 573              		.loc 1 234 0
 574 00aa 9081     		strh	r0, [r2, #12]
 575 00ac 00E0     		b	.L54
 576              	.L53:
 235:.\module.c    **** 	        else
 236:.\module.c    **** 	            LvxinJishi[k]=LvxinJishi[k+6];
 577              		.loc 1 236 0
 578 00ae 1180     		strh	r1, [r2]
 579              	.L54:
 580 00b0 0233     		add	r3, r3, #2
 231:.\module.c    ****     for(k=0;k<6;k++)
 581              		.loc 1 231 0
 582 00b2 0C2B     		cmp	r3, #12
 583 00b4 F3D1     		bne	.L56
 584 00b6 084B     		ldr	r3, .L61+8
 585 00b8 981D     		add	r0, r3, #6
 586              	.L60:
 587              	.LVL42:
 237:.\module.c    **** 	    }
 238:.\module.c    **** 	  for(k=0;k<6;k++)
 239:.\module.c    **** 	    {
 240:.\module.c    **** 	        if(Filter_Changed_Num[k]>=Filter_Changed_Num[k+6])
 588              		.loc 1 240 0
 589 00ba 1978     		ldrb	r1, [r3]
 590 00bc 9A79     		ldrb	r2, [r3, #6]
 591 00be 9142     		cmp	r1, r2
 592 00c0 01D3     		bcc	.L57
 241:.\module.c    **** 	            Filter_Changed_Num[k+6]=Filter_Changed_Num[k];
 593              		.loc 1 241 0
 594 00c2 9971     		strb	r1, [r3, #6]
 595 00c4 00E0     		b	.L58
 596              	.L57:
 242:.\module.c    **** 	        else
 243:.\module.c    **** 	            Filter_Changed_Num[k]=Filter_Changed_Num[k+6];
 597              		.loc 1 243 0
 598 00c6 1A70     		strb	r2, [r3]
 599              	.L58:
 600              	.LVL43:
 601 00c8 0133     		add	r3, r3, #1
 602              	.LVL44:
 238:.\module.c    **** 	  for(k=0;k<6;k++)
 603              		.loc 1 238 0
 604 00ca 8342     		cmp	r3, r0
 605 00cc F5D1     		bne	.L60
 244:.\module.c    **** 	    }
ARM GAS  C:\Users\kevin\AppData\Local\Temp\cch7jGms.s 			page 17


 245:.\module.c    **** 
 246:.\module.c    **** }
 606              		.loc 1 246 0
 607              		@ sp needed
 608 00ce F8BD     		pop	{r3, r4, r5, r6, r7, pc}
 609              	.L62:
 610              		.align	2
 611              	.L61:
 612 00d0 00000000 		.word	array
 613 00d4 00000000 		.word	LvxinJishi
 614 00d8 00000000 		.word	Filter_Changed_Num
 615 00dc 00000000 		.word	jingshuiliang
 616 00e0 00000000 		.word	EEjingshuiliang
 617 00e4 00000000 		.word	NBfig
 618 00e8 00000000 		.word	gyfullcnt
 619 00ec 00000000 		.word	EEgyfullcnt
 620              		.cfi_endproc
 621              	.LFE40:
 622              		.size	read1, .-read1
 623              		.section	.text.write1,"ax",%progbits
 624              		.align	1
 625              		.global	write1
 626              		.code	16
 627              		.thumb_func
 628              		.type	write1, %function
 629              	write1:
 630              	.LFB41:
 247:.\module.c    **** void write1(void)
 248:.\module.c    **** {
 631              		.loc 1 248 0
 632              		.cfi_startproc
 633 0000 10B5     		push	{r4, lr}
 634              		.cfi_def_cfa_offset 8
 635              		.cfi_offset 4, -8
 636              		.cfi_offset 14, -4
 249:.\module.c    ****     u_char m,n;
 250:.\module.c    **** 	  memset(array,0x00,43);        
 637              		.loc 1 250 0
 638 0002 164C     		ldr	r4, .L66
 639 0004 0021     		mov	r1, #0
 640 0006 201C     		mov	r0, r4
 641 0008 2B22     		mov	r2, #43
 642 000a FFF7FEFF 		bl	memset
 643              	.LVL45:
 644 000e 0023     		mov	r3, #0
 645              	.LVL46:
 646              	.L65:
 251:.\module.c    ****     for(m=4,n=0;m<28;(m=m+2))
 252:.\module.c    **** 	    {
 253:.\module.c    **** 	        array[m]=LvxinJishi[n];//取出n号滤芯计时的低八位
 647              		.loc 1 253 0 discriminator 2
 648 0010 134A     		ldr	r2, .L66+4
 649 0012 D15A     		ldrh	r1, [r2, r3]
 650 0014 E218     		add	r2, r4, r3
 651 0016 1171     		strb	r1, [r2, #4]
 652 0018 0233     		add	r3, r3, #2
 653              	.LVL47:
ARM GAS  C:\Users\kevin\AppData\Local\Temp\cch7jGms.s 			page 18


 254:.\module.c    **** 	        array[m+1]=(LvxinJishi[n]>>8);//取出n号滤芯计时的高八位     
 654              		.loc 1 254 0 discriminator 2
 655 001a 090A     		lsr	r1, r1, #8
 656 001c 5171     		strb	r1, [r2, #5]
 657              	.LVL48:
 251:.\module.c    ****     for(m=4,n=0;m<28;(m=m+2))
 658              		.loc 1 251 0 discriminator 2
 659 001e 182B     		cmp	r3, #24
 660 0020 F6D1     		bne	.L65
 255:.\module.c    **** 	        n++;
 256:.\module.c    **** 	    
 257:.\module.c    **** 	    }
 258:.\module.c    ****     array[2]=jingshuiliang;
 661              		.loc 1 258 0
 662 0022 104B     		ldr	r3, .L66+8
 259:.\module.c    ****     array[3]=(jingshuiliang>>8);
 260:.\module.c    ****     array[28]=EEjingshuiliang;
 261:.\module.c    ****     array[29]=(EEjingshuiliang>>8);
 262:.\module.c    ****     
 263:.\module.c    ****     array[0]=NBfig;
 264:.\module.c    ****     array[1]=gyfullcnt;
 265:.\module.c    ****     array[30]=EEgyfullcnt;
 266:.\module.c    ****     memcpy(&array[31],Filter_Changed_Num,12);
 663              		.loc 1 266 0
 664 0024 201C     		mov	r0, r4
 258:.\module.c    ****     array[2]=jingshuiliang;
 665              		.loc 1 258 0
 666 0026 1B88     		ldrh	r3, [r3]
 667              		.loc 1 266 0
 668 0028 0F49     		ldr	r1, .L66+12
 258:.\module.c    ****     array[2]=jingshuiliang;
 669              		.loc 1 258 0
 670 002a A370     		strb	r3, [r4, #2]
 259:.\module.c    ****     array[3]=(jingshuiliang>>8);
 671              		.loc 1 259 0
 672 002c 1B0A     		lsr	r3, r3, #8
 673 002e E370     		strb	r3, [r4, #3]
 260:.\module.c    ****     array[28]=EEjingshuiliang;
 674              		.loc 1 260 0
 675 0030 0E4B     		ldr	r3, .L66+16
 676              		.loc 1 266 0
 677 0032 0C22     		mov	r2, #12
 260:.\module.c    ****     array[28]=EEjingshuiliang;
 678              		.loc 1 260 0
 679 0034 1B88     		ldrh	r3, [r3]
 680              		.loc 1 266 0
 681 0036 1F30     		add	r0, r0, #31
 260:.\module.c    ****     array[28]=EEjingshuiliang;
 682              		.loc 1 260 0
 683 0038 2377     		strb	r3, [r4, #28]
 261:.\module.c    ****     array[29]=(EEjingshuiliang>>8);
 684              		.loc 1 261 0
 685 003a 1B0A     		lsr	r3, r3, #8
 686 003c 6377     		strb	r3, [r4, #29]
 263:.\module.c    ****     array[0]=NBfig;
 687              		.loc 1 263 0
 688 003e 0C4B     		ldr	r3, .L66+20
ARM GAS  C:\Users\kevin\AppData\Local\Temp\cch7jGms.s 			page 19


 267:.\module.c    ****     Flash_Write_aRow_Data(array);
 268:.\module.c    **** 
 269:.\module.c    **** }
 689              		.loc 1 269 0
 690              		@ sp needed
 263:.\module.c    ****     array[0]=NBfig;
 691              		.loc 1 263 0
 692 0040 1B78     		ldrb	r3, [r3]
 693 0042 2370     		strb	r3, [r4]
 264:.\module.c    ****     array[1]=gyfullcnt;
 694              		.loc 1 264 0
 695 0044 0B4B     		ldr	r3, .L66+24
 696 0046 1B78     		ldrb	r3, [r3]
 697 0048 6370     		strb	r3, [r4, #1]
 265:.\module.c    ****     array[30]=EEgyfullcnt;
 698              		.loc 1 265 0
 699 004a 0B4B     		ldr	r3, .L66+28
 700 004c 1B78     		ldrb	r3, [r3]
 701 004e A377     		strb	r3, [r4, #30]
 266:.\module.c    ****     memcpy(&array[31],Filter_Changed_Num,12);
 702              		.loc 1 266 0
 703 0050 FFF7FEFF 		bl	memcpy
 704              	.LVL49:
 267:.\module.c    ****     Flash_Write_aRow_Data(array);
 705              		.loc 1 267 0
 706 0054 201C     		mov	r0, r4
 707 0056 FFF7FEFF 		bl	Flash_Write_aRow_Data
 708              	.LVL50:
 709              		.loc 1 269 0
 710 005a 10BD     		pop	{r4, pc}
 711              	.L67:
 712              		.align	2
 713              	.L66:
 714 005c 00000000 		.word	array
 715 0060 00000000 		.word	LvxinJishi
 716 0064 00000000 		.word	jingshuiliang
 717 0068 00000000 		.word	Filter_Changed_Num
 718 006c 00000000 		.word	EEjingshuiliang
 719 0070 00000000 		.word	NBfig
 720 0074 00000000 		.word	gyfullcnt
 721 0078 00000000 		.word	EEgyfullcnt
 722              		.cfi_endproc
 723              	.LFE41:
 724              		.size	write1, .-write1
 725              		.section	.text.clean_ram,"ax",%progbits
 726              		.align	1
 727              		.global	clean_ram
 728              		.code	16
 729              		.thumb_func
 730              		.type	clean_ram, %function
 731              	clean_ram:
 732              	.LFB42:
 270:.\module.c    **** void clean_ram(void)
 271:.\module.c    **** {
 733              		.loc 1 271 0
 734              		.cfi_startproc
 735              	.LVL51:
ARM GAS  C:\Users\kevin\AppData\Local\Temp\cch7jGms.s 			page 20


 736              		.loc 1 271 0
 737 0000 0022     		mov	r2, #0
 738              	.LVL52:
 739              	.L70:
 272:.\module.c    ****     u_char n;      
 273:.\module.c    ****     for(n=0;n<44;n++)
 274:.\module.c    ****     {
 275:.\module.c    ****         array[n]=0;
 740              		.loc 1 275 0 discriminator 2
 741 0002 1049     		ldr	r1, .L75
 742 0004 0023     		mov	r3, #0
 743 0006 5118     		add	r1, r2, r1
 744 0008 0132     		add	r2, r2, #1
 745              	.LVL53:
 746 000a 0B70     		strb	r3, [r1]
 747              	.LVL54:
 273:.\module.c    ****     for(n=0;n<44;n++)
 748              		.loc 1 273 0 discriminator 2
 749 000c 2C2A     		cmp	r2, #44
 750 000e F8D1     		bne	.L70
 751              	.L72:
 276:.\module.c    ****     }     
 277:.\module.c    ****     for(n=0;n<12;n++)
 278:.\module.c    ****     {
 279:.\module.c    ****        LvxinJishi[n]=0;   
 752              		.loc 1 279 0 discriminator 2
 753 0010 0D49     		ldr	r1, .L75+4
 754 0012 0022     		mov	r2, #0
 755 0014 5918     		add	r1, r3, r1
 756 0016 0233     		add	r3, r3, #2
 757 0018 0A80     		strh	r2, [r1]
 277:.\module.c    ****     for(n=0;n<12;n++)
 758              		.loc 1 277 0 discriminator 2
 759 001a 182B     		cmp	r3, #24
 760 001c F8D1     		bne	.L72
 761              	.L74:
 762              	.LVL55:
 280:.\module.c    ****     }
 281:.\module.c    ****     for(n=0;n<12;n++)
 282:.\module.c    ****     {
 283:.\module.c    ****         Filter_Changed_Num[n]=0;
 763              		.loc 1 283 0 discriminator 2
 764 001e 0B49     		ldr	r1, .L75+8
 765 0020 0023     		mov	r3, #0
 766 0022 5118     		add	r1, r2, r1
 767 0024 0132     		add	r2, r2, #1
 768              	.LVL56:
 769 0026 0B70     		strb	r3, [r1]
 770              	.LVL57:
 281:.\module.c    ****     for(n=0;n<12;n++)
 771              		.loc 1 281 0 discriminator 2
 772 0028 0C2A     		cmp	r2, #12
 773 002a F8D1     		bne	.L74
 284:.\module.c    ****     }
 285:.\module.c    ****     gyfullcnt=0;
 774              		.loc 1 285 0
 775 002c 084A     		ldr	r2, .L75+12
ARM GAS  C:\Users\kevin\AppData\Local\Temp\cch7jGms.s 			page 21


 286:.\module.c    ****     NBfig=1;
 776              		.loc 1 286 0
 777 002e 0121     		mov	r1, #1
 285:.\module.c    ****     gyfullcnt=0;
 778              		.loc 1 285 0
 779 0030 1370     		strb	r3, [r2]
 780              		.loc 1 286 0
 781 0032 084A     		ldr	r2, .L75+16
 287:.\module.c    ****     jingshuiliang=0;
 288:.\module.c    ****   	EEgyfullcnt=0;
 289:.\module.c    ****   	EEjingshuiliang=0;
 290:.\module.c    **** }
 782              		.loc 1 290 0
 783              		@ sp needed
 286:.\module.c    ****     NBfig=1;
 784              		.loc 1 286 0
 785 0034 1170     		strb	r1, [r2]
 287:.\module.c    ****     jingshuiliang=0;
 786              		.loc 1 287 0
 787 0036 084A     		ldr	r2, .L75+20
 788 0038 1380     		strh	r3, [r2]
 288:.\module.c    ****   	EEgyfullcnt=0;
 789              		.loc 1 288 0
 790 003a 084A     		ldr	r2, .L75+24
 791 003c 1370     		strb	r3, [r2]
 289:.\module.c    ****   	EEjingshuiliang=0;
 792              		.loc 1 289 0
 793 003e 084A     		ldr	r2, .L75+28
 794 0040 1380     		strh	r3, [r2]
 795              		.loc 1 290 0
 796 0042 7047     		bx	lr
 797              	.L76:
 798              		.align	2
 799              	.L75:
 800 0044 00000000 		.word	array
 801 0048 00000000 		.word	LvxinJishi
 802 004c 00000000 		.word	Filter_Changed_Num
 803 0050 00000000 		.word	gyfullcnt
 804 0054 00000000 		.word	NBfig
 805 0058 00000000 		.word	jingshuiliang
 806 005c 00000000 		.word	EEgyfullcnt
 807 0060 00000000 		.word	EEjingshuiliang
 808              		.cfi_endproc
 809              	.LFE42:
 810              		.size	clean_ram, .-clean_ram
 811              		.section	.text.Stop_All_Module,"ax",%progbits
 812              		.align	1
 813              		.global	Stop_All_Module
 814              		.code	16
 815              		.thumb_func
 816              		.type	Stop_All_Module, %function
 817              	Stop_All_Module:
 818              	.LFB43:
 291:.\module.c    **** 
 292:.\module.c    **** void Stop_All_Module(void)
 293:.\module.c    **** {
 819              		.loc 1 293 0
ARM GAS  C:\Users\kevin\AppData\Local\Temp\cch7jGms.s 			page 22


 820              		.cfi_startproc
 821 0000 08B5     		push	{r3, lr}
 822              		.cfi_def_cfa_offset 8
 823              		.cfi_offset 3, -8
 824              		.cfi_offset 14, -4
 294:.\module.c    **** 		K2_Write(0);
 825              		.loc 1 294 0
 826 0002 0020     		mov	r0, #0
 827 0004 FFF7FEFF 		bl	K2_Write
 828              	.LVL58:
 295:.\module.c    **** 		K1_Write(0);
 829              		.loc 1 295 0
 830 0008 0020     		mov	r0, #0
 831 000a FFF7FEFF 		bl	K1_Write
 832              	.LVL59:
 296:.\module.c    **** 		FMQ_Write(0);
 833              		.loc 1 296 0
 834 000e 0020     		mov	r0, #0
 835 0010 FFF7FEFF 		bl	FMQ_Write
 836              	.LVL60:
 297:.\module.c    ****     CapSense_Stop();
 298:.\module.c    ****     Timer_Stop();
 299:.\module.c    ****     PWM_Stop();
 300:.\module.c    ****     Led_Pannel_Shutdown();
 301:.\module.c    ****     UART_0_Stop();
 302:.\module.c    ****     UART_1_Stop();    
 303:.\module.c    **** 
 304:.\module.c    **** }
 837              		.loc 1 304 0
 838              		@ sp needed
 297:.\module.c    ****     CapSense_Stop();
 839              		.loc 1 297 0
 840 0014 FFF7FEFF 		bl	CapSense_Stop
 841              	.LVL61:
 298:.\module.c    ****     Timer_Stop();
 842              		.loc 1 298 0
 843 0018 FFF7FEFF 		bl	Timer_Stop
 844              	.LVL62:
 299:.\module.c    ****     PWM_Stop();
 845              		.loc 1 299 0
 846 001c FFF7FEFF 		bl	PWM_Stop
 847              	.LVL63:
 300:.\module.c    ****     Led_Pannel_Shutdown();
 848              		.loc 1 300 0
 849 0020 FFF7FEFF 		bl	Led_Pannel_Shutdown
 850              	.LVL64:
 301:.\module.c    ****     UART_0_Stop();
 851              		.loc 1 301 0
 852 0024 FFF7FEFF 		bl	UART_0_Stop
 853              	.LVL65:
 302:.\module.c    ****     UART_1_Stop();    
 854              		.loc 1 302 0
 855 0028 FFF7FEFF 		bl	UART_1_Stop
 856              	.LVL66:
 857              		.loc 1 304 0
 858 002c 08BD     		pop	{r3, pc}
 859              		.cfi_endproc
ARM GAS  C:\Users\kevin\AppData\Local\Temp\cch7jGms.s 			page 23


 860              	.LFE43:
 861              		.size	Stop_All_Module, .-Stop_All_Module
 862              		.section	.text.cleareepromArray,"ax",%progbits
 863              		.align	1
 864              		.global	cleareepromArray
 865              		.code	16
 866              		.thumb_func
 867              		.type	cleareepromArray, %function
 868              	cleareepromArray:
 869              	.LFB44:
 305:.\module.c    **** 
 306:.\module.c    **** void cleareepromArray(void)
 307:.\module.c    **** {
 870              		.loc 1 307 0
 871              		.cfi_startproc
 872 0000 38B5     		push	{r3, r4, r5, lr}
 873              		.cfi_def_cfa_offset 16
 874              		.cfi_offset 3, -16
 875              		.cfi_offset 4, -12
 876              		.cfi_offset 5, -8
 877              		.cfi_offset 14, -4
 308:.\module.c    ****     
 309:.\module.c    ****     for(n=0;n<31;n++)
 878              		.loc 1 309 0
 879 0002 0023     		mov	r3, #0
 880              	.L79:
 310:.\module.c    ****     {
 311:.\module.c    ****         array[n]=0;
 881              		.loc 1 311 0 discriminator 2
 882 0004 0D48     		ldr	r0, .L83
 883 0006 0022     		mov	r2, #0
 884 0008 C254     		strb	r2, [r0, r3]
 309:.\module.c    ****     for(n=0;n<31;n++)
 885              		.loc 1 309 0 discriminator 2
 886 000a 0133     		add	r3, r3, #1
 887 000c DBB2     		uxtb	r3, r3
 888 000e 1E2B     		cmp	r3, #30
 889 0010 F8D9     		bls	.L79
 890              	.L81:
 312:.\module.c    ****     }
 313:.\module.c    ****      
 314:.\module.c    ****     
 315:.\module.c    ****     for(n=0;n<12;n++)
 316:.\module.c    ****     {
 317:.\module.c    ****        LvxinJishi[n]=0;
 891              		.loc 1 317 0 discriminator 2
 892 0012 5500     		lsl	r5, r2, #1
 893 0014 0A4C     		ldr	r4, .L83+4
 315:.\module.c    ****     for(n=0;n<12;n++)
 894              		.loc 1 315 0 discriminator 2
 895 0016 0132     		add	r2, r2, #1
 896              		.loc 1 317 0 discriminator 2
 897 0018 0023     		mov	r3, #0
 315:.\module.c    ****     for(n=0;n<12;n++)
 898              		.loc 1 315 0 discriminator 2
 899 001a D2B2     		uxtb	r2, r2
 900              		.loc 1 317 0 discriminator 2
ARM GAS  C:\Users\kevin\AppData\Local\Temp\cch7jGms.s 			page 24


 901 001c 2B53     		strh	r3, [r5, r4]
 315:.\module.c    ****     for(n=0;n<12;n++)
 902              		.loc 1 315 0 discriminator 2
 903 001e 0B2A     		cmp	r2, #11
 904 0020 F7D9     		bls	.L81
 905 0022 084C     		ldr	r4, .L83+8
 318:.\module.c    ****     
 319:.\module.c    ****     
 320:.\module.c    ****     }
 321:.\module.c    ****     
 322:.\module.c    ****     gyfullcnt=0;
 323:.\module.c    ****     NBfig=1;//1为北
 906              		.loc 1 323 0
 907 0024 0849     		ldr	r1, .L83+12
 908 0026 2270     		strb	r2, [r4]
 322:.\module.c    ****     gyfullcnt=0;
 909              		.loc 1 322 0
 910 0028 084A     		ldr	r2, .L83+16
 324:.\module.c    ****     jingshuiliang=0;
 325:.\module.c    ****     array[0]=NBfig;
 326:.\module.c    ****     
 327:.\module.c    ****     
 328:.\module.c    ****     
 329:.\module.c    ****     
 330:.\module.c    ****     
 331:.\module.c    ****    Flash_Write_aRow_Data(array);      
 332:.\module.c    **** 
 333:.\module.c    **** }
 911              		.loc 1 333 0
 912              		@ sp needed
 322:.\module.c    ****     gyfullcnt=0;
 913              		.loc 1 322 0
 914 002a 1370     		strb	r3, [r2]
 323:.\module.c    ****     NBfig=1;//1为北
 915              		.loc 1 323 0
 916 002c 0122     		mov	r2, #1
 917 002e 0A70     		strb	r2, [r1]
 324:.\module.c    ****     jingshuiliang=0;
 918              		.loc 1 324 0
 919 0030 0749     		ldr	r1, .L83+20
 325:.\module.c    ****     array[0]=NBfig;
 920              		.loc 1 325 0
 921 0032 0270     		strb	r2, [r0]
 324:.\module.c    ****     jingshuiliang=0;
 922              		.loc 1 324 0
 923 0034 0B80     		strh	r3, [r1]
 331:.\module.c    ****    Flash_Write_aRow_Data(array);      
 924              		.loc 1 331 0
 925 0036 FFF7FEFF 		bl	Flash_Write_aRow_Data
 926              	.LVL67:
 927              		.loc 1 333 0
 928 003a 38BD     		pop	{r3, r4, r5, pc}
 929              	.L84:
 930              		.align	2
 931              	.L83:
 932 003c 00000000 		.word	array
 933 0040 00000000 		.word	LvxinJishi
ARM GAS  C:\Users\kevin\AppData\Local\Temp\cch7jGms.s 			page 25


 934 0044 00000000 		.word	n
 935 0048 00000000 		.word	NBfig
 936 004c 00000000 		.word	gyfullcnt
 937 0050 00000000 		.word	jingshuiliang
 938              		.cfi_endproc
 939              	.LFE44:
 940              		.size	cleareepromArray, .-cleareepromArray
 941              		.section	.text.clearwdt,"ax",%progbits
 942              		.align	1
 943              		.global	clearwdt
 944              		.code	16
 945              		.thumb_func
 946              		.type	clearwdt, %function
 947              	clearwdt:
 948              	.LFB45:
 334:.\module.c    **** /*******************************************************************************
 335:.\module.c    ****                      WDT
 336:.\module.c    **** ********************************************************************************/
 337:.\module.c    **** void clearwdt(void)
 338:.\module.c    **** {
 949              		.loc 1 338 0
 950              		.cfi_startproc
 951 0000 08B5     		push	{r3, lr}
 952              		.cfi_def_cfa_offset 8
 953              		.cfi_offset 3, -8
 954              		.cfi_offset 14, -4
 339:.\module.c    ****       CySysWdtUnlock();        
 955              		.loc 1 339 0
 956 0002 FFF7FEFF 		bl	CySysWdtUnlock
 957              	.LVL68:
 340:.\module.c    ****       CySysWdtResetCounters(CY_SYS_WDT_COUNTER0_RESET);
 958              		.loc 1 340 0
 959 0006 0820     		mov	r0, #8
 960 0008 FFF7FEFF 		bl	CySysWdtResetCounters
 961              	.LVL69:
 341:.\module.c    ****       CySysWdtLock();
 342:.\module.c    **** 
 343:.\module.c    **** 
 344:.\module.c    **** }
 962              		.loc 1 344 0
 963              		@ sp needed
 341:.\module.c    ****       CySysWdtLock();
 964              		.loc 1 341 0
 965 000c FFF7FEFF 		bl	CySysWdtLock
 966              	.LVL70:
 967              		.loc 1 344 0
 968 0010 08BD     		pop	{r3, pc}
 969              		.cfi_endproc
 970              	.LFE45:
 971              		.size	clearwdt, .-clearwdt
 972              		.comm	FlashDataBuf,128,1
 973              		.comm	array_0,128,1
 974              		.comm	array,128,1
 975              		.comm	AdcTemp,8,4
 976              		.comm	AdcBuf,4,2
 977              		.comm	AdcData,4,2
 978              		.comm	AdcReady,4,4
ARM GAS  C:\Users\kevin\AppData\Local\Temp\cch7jGms.s 			page 26


 979              		.comm	T10msSign,1,1
 980              		.comm	BtnFlag,4,4
 981              		.comm	eepfig,1,1
 982              		.comm	BtnCnt,1,1
 983              		.comm	BtnData,1,1
 984              		.comm	BtnData2,1,1
 985              		.comm	BtnData1,1,1
 986              		.text
 987              	.Letext0:
 988              		.file 2 ".\\Generated_Source\\PSoC4/cytypes.h"
 989              		.file 3 ".\\module.h"
 990              		.file 4 "c:\\program files (x86)\\cypress\\psoc creator\\3.1\\psoc creator\\import\\gnu_cs\\arm\\4
 991              		.file 5 ".\\fun.h"
 992              		.file 6 ".\\flash_wr_rd.h"
 993              		.file 7 ".\\Generated_Source\\PSoC4/CapSense.h"
 994              		.file 8 ".\\Generated_Source\\PSoC4/CapSense_CSHL.h"
 995              		.file 9 ".\\Generated_Source\\PSoC4/Timer.h"
 996              		.file 10 ".\\Generated_Source\\PSoC4/CC_ISR.h"
 997              		.file 11 ".\\Generated_Source\\PSoC4/K2.h"
 998              		.file 12 ".\\Generated_Source\\PSoC4/K1.h"
 999              		.file 13 ".\\Generated_Source\\PSoC4/FMQ.h"
 1000              		.file 14 ".\\Generated_Source\\PSoC4/PWM.h"
 1001              		.file 15 ".\\display.h"
 1002              		.file 16 ".\\Generated_Source\\PSoC4/UART_0.h"
 1003              		.file 17 ".\\Generated_Source\\PSoC4/UART_1.h"
 1004              		.file 18 ".\\Generated_Source\\PSoC4/CyLib.h"