ARM GAS  C:\Users\kevin\AppData\Local\Temp\ccrA27HJ.s 			page 1


   1              		.cpu cortex-m0
   2              		.fpu softvfp
   3              		.eabi_attribute 20, 1
   4              		.eabi_attribute 21, 1
   5              		.eabi_attribute 23, 3
   6              		.eabi_attribute 24, 1
   7              		.eabi_attribute 25, 1
   8              		.eabi_attribute 26, 1
   9              		.eabi_attribute 30, 4
  10              		.eabi_attribute 34, 0
  11              		.eabi_attribute 18, 4
  12              		.code	16
  13              		.file	"uart_wifi.c"
  14              		.text
  15              	.Ltext0:
  16              		.cfi_sections	.debug_frame
  17              		.global	__aeabi_uidiv
  18              		.global	__aeabi_uidivmod
  19              		.section	.text.Tds_Scan_In,"ax",%progbits
  20              		.align	1
  21              		.global	Tds_Scan_In
  22              		.code	16
  23              		.thumb_func
  24              		.type	Tds_Scan_In, %function
  25              	Tds_Scan_In:
  26              	.LFB33:
  27              		.file 1 ".\\uart_wifi.c"
   1:.\uart_wifi.c **** /* ========================================
   2:.\uart_wifi.c ****  *
   3:.\uart_wifi.c ****  * Copyright YOUR COMPANY, THE YEAR
   4:.\uart_wifi.c ****  * All Rights Reserved
   5:.\uart_wifi.c ****  * UNPUBLISHED, LICENSED SOFTWARE.
   6:.\uart_wifi.c ****  *
   7:.\uart_wifi.c ****  * CONFIDENTIAL AND PROPRIETARY INFORMATION
   8:.\uart_wifi.c ****  * WHICH IS THE PROPERTY OF your company.
   9:.\uart_wifi.c ****  *
  10:.\uart_wifi.c ****  * ========================================
  11:.\uart_wifi.c **** */
  12:.\uart_wifi.c **** #define _UART_WIFI_
  13:.\uart_wifi.c **** #include "config.h"
  14:.\uart_wifi.c **** 
  15:.\uart_wifi.c **** const uint8 Tab_tds_in_01[]={									//tds值补偿表
  16:.\uart_wifi.c ****                             0,0,0,0,0,0,0,0,0,0,            						//00-09
  17:.\uart_wifi.c ****                             0,0,0,0,0,0,0,0,0,0,            						//10-19
  18:.\uart_wifi.c ****                             1,1,1,1,1,1,1,1,1,1,            						//20-29
  19:.\uart_wifi.c ****                             2,2,2,2,2,3,3,3,3,3,            						//30-39
  20:.\uart_wifi.c ****                             4,4,4,4,4,4,4,4,4,4,            						//40-49
  21:.\uart_wifi.c ****                             5,5,6,6,6,7,7,8,8,8,            						//50-59
  22:.\uart_wifi.c ****                             9,9,9,9,9,10,10,10,11,12,       						//60-69
  23:.\uart_wifi.c ****                             13,13,13,14,14,14,15,15,16,16,  						//70-79
  24:.\uart_wifi.c ****                             17,18,18,18,19,19,20,20,21,21,              //80-89
  25:.\uart_wifi.c ****                             22,23,24,25,26,27,28,29,30,31,              //90-99
  26:.\uart_wifi.c ****                             31,32,32,35,35,36,36,37,38,39,              //100-109
  27:.\uart_wifi.c ****                             39,40,40,41,41,42,42,43,43,44,              //110-119
  28:.\uart_wifi.c ****                             44,45,45,46,46,47,48,49,50,51,              //120-129
  29:.\uart_wifi.c ****                             52,53,54,55,56,57,58,59,60,61,              //130-139
  30:.\uart_wifi.c ****                             62,63,64,65,66,67,68,68,69,70,              //140-149
ARM GAS  C:\Users\kevin\AppData\Local\Temp\ccrA27HJ.s 			page 2


  31:.\uart_wifi.c ****                             71,72,73,74,75,76,77,78,79,80,              //150-159
  32:.\uart_wifi.c ****                             80,81,82,83,84,85,86,87,88,89,              //160-169
  33:.\uart_wifi.c ****                             90,91,92,93,94,95,96,97,98,99,              //170-179
  34:.\uart_wifi.c ****                             100,101,102,103,104,105,106,107,108,109,    //180-189
  35:.\uart_wifi.c ****                             110,111,112,113,114,115,116,117,118,120,    //190-199
  36:.\uart_wifi.c ****                             122,124,126,128,130,132,134,136,138,140,    //200-209
  37:.\uart_wifi.c ****                             142,144,146,148,150,152,154,156,158,160,    //210-219
  38:.\uart_wifi.c ****                             162,164,166,168,170,172,174,176,178,180,    //220-229
  39:.\uart_wifi.c ****                             183,186,189,192,195,198,200,203,206,208,    //230-239   
  40:.\uart_wifi.c ****                             210,213,216,219,222,225,228,231,234,237,    //240-249  
  41:.\uart_wifi.c ****                             240,243,246,249,252,255                     //250-255
  42:.\uart_wifi.c **** };//
  43:.\uart_wifi.c **** //--------------------------------------------------------
  44:.\uart_wifi.c **** const uint16 Tab_tds_in_02[]={               //tds值补偿表
  45:.\uart_wifi.c ****                             260,264,268,272,                            //256-259
  46:.\uart_wifi.c ****                             276,280,284,288,292,296,300,304,308,312,    //260-269
  47:.\uart_wifi.c ****                             316,320,324,328,332,336,340,345,350,355,    //270-279
  48:.\uart_wifi.c ****                             360,365,370,375,380,385,390,395,400,405,    //280-289   
  49:.\uart_wifi.c ****                             410,415,420,425,430,435,440,445,450,455,    //290-299   
  50:.\uart_wifi.c ****                             460,465,470,475,480,485,490,495,500,505,    //300-309   
  51:.\uart_wifi.c ****                             510,515,520,525,530,535,540,545,550,555,    //310-319   
  52:.\uart_wifi.c ****                             560,566,572,578,584,590,596,602,608,614,    //320-329
  53:.\uart_wifi.c ****                             620,626,632,638,644,650,656,662,668,672     //330-339
  54:.\uart_wifi.c **** };
  55:.\uart_wifi.c **** //--------------------------------------------------------
  56:.\uart_wifi.c **** const uint8 Tab_tds_out[]={                  //tds值补偿表
  57:.\uart_wifi.c ****                             0,1,1,1,1,1,1,1,1,1,                        //00-09
  58:.\uart_wifi.c ****                             1,1,1,1,1,1,1,1,1,1,                        //10-19
  59:.\uart_wifi.c ****                             0,0,0,0,0,0,0,0,0,0,                        //20-29 
  60:.\uart_wifi.c ****                             1,1,1,1,1,2,2,2,2,2,                        //30-39 
  61:.\uart_wifi.c ****                             3,3,3,3,3,4,4,4,4,4,                        //40-49 
  62:.\uart_wifi.c ****                             5,5,6,6,7,7,8,8,9,9,                         //50-59
  63:.\uart_wifi.c ****                             10,10,11,11,12,12,13,13,14,14,              //60-69
  64:.\uart_wifi.c ****                             15,15,16,16,17,18,19,20,21                  //70-79
  65:.\uart_wifi.c **** };
  66:.\uart_wifi.c **** //--------------------------------------------------------
  67:.\uart_wifi.c **** uint16 Tds_Scan_In(uint16 ram_tds_in)
  68:.\uart_wifi.c **** { 
  28              		.loc 1 68 0
  29              		.cfi_startproc
  30              	.LVL0:
  31 0000 70B5     		push	{r4, r5, r6, lr}
  32              		.cfi_def_cfa_offset 16
  33              		.cfi_offset 4, -16
  34              		.cfi_offset 5, -12
  35              		.cfi_offset 6, -8
  36              		.cfi_offset 14, -4
  69:.\uart_wifi.c **** 	uint16 ram_tds_in_remainder,ram_tds_in_disp;
  70:.\uart_wifi.c **** 	ram_tds_in_remainder=ram_tds_in%10;//进水
  71:.\uart_wifi.c **** 	ram_tds_in_disp=ram_tds_in/10;
  37              		.loc 1 71 0
  38 0002 0A21     		mov	r1, #10
  68:.\uart_wifi.c **** { 
  39              		.loc 1 68 0
  40 0004 051C     		mov	r5, r0
  41              		.loc 1 71 0
  42 0006 FFF7FEFF 		bl	__aeabi_uidiv
ARM GAS  C:\Users\kevin\AppData\Local\Temp\ccrA27HJ.s 			page 3


  43              	.LVL1:
  72:.\uart_wifi.c **** 	if(ram_tds_in_disp>=339)
  44              		.loc 1 72 0
  45 000a A923     		mov	r3, #169
  71:.\uart_wifi.c **** 	ram_tds_in_disp=ram_tds_in/10;
  46              		.loc 1 71 0
  47 000c 84B2     		uxth	r4, r0
  48              	.LVL2:
  49              		.loc 1 72 0
  50 000e 5B00     		lsl	r3, r3, #1
  51 0010 9C42     		cmp	r4, r3
  52 0012 02D8     		bhi	.L7
  73:.\uart_wifi.c **** 	    ram_tds_in_disp=339;
  74:.\uart_wifi.c **** 	if(ram_tds_in_disp<20)
  53              		.loc 1 74 0
  54 0014 132C     		cmp	r4, #19
  55 0016 1FD9     		bls	.L5
  56 0018 01E0     		b	.L2
  57              	.L7:
  73:.\uart_wifi.c **** 	    ram_tds_in_disp=339;
  58              		.loc 1 73 0
  59 001a 5424     		mov	r4, #84
  60 001c FF34     		add	r4, r4, #255
  61              	.L2:
  62              	.LVL3:
  75:.\uart_wifi.c **** 	    ram_tds_in_disp+=0; 
  76:.\uart_wifi.c **** 	else if((ram_tds_in_disp>=20)&&(ram_tds_in_disp<256))
  63              		.loc 1 76 0
  64 001e 231C     		mov	r3, r4
  65 0020 143B     		sub	r3, r3, #20
  66 0022 EB2B     		cmp	r3, #235
  67 0024 04D8     		bhi	.L4
  77:.\uart_wifi.c **** 	    ram_tds_in_disp=ram_tds_in_disp+Tab_tds_in_01[ram_tds_in_disp];     
  68              		.loc 1 77 0
  69 0026 0D4B     		ldr	r3, .L10
  70 0028 1B5D     		ldrb	r3, [r3, r4]
  71 002a 1C19     		add	r4, r3, r4
  72              	.LVL4:
  73 002c A4B2     		uxth	r4, r4
  74              	.LVL5:
  75 002e 13E0     		b	.L5
  76              	.L4:
  78:.\uart_wifi.c **** 	else if(ram_tds_in_disp>=256)
  79:.\uart_wifi.c **** 	    ram_tds_in_disp=ram_tds_in_disp+Tab_tds_in_02[ram_tds_in_disp-256]+ram_tds_in_remainder/3;//ra
  77              		.loc 1 79 0
  78 0030 621E     		sub	r2, r4, #1
  79 0032 0B4B     		ldr	r3, .L10+4
  80 0034 FF3A     		sub	r2, r2, #255
  81 0036 5200     		lsl	r2, r2, #1
  70:.\uart_wifi.c **** 	ram_tds_in_remainder=ram_tds_in%10;//进水
  82              		.loc 1 70 0
  83 0038 281C     		mov	r0, r5
  84 003a 0A21     		mov	r1, #10
  85              		.loc 1 79 0
  86 003c D65A     		ldrh	r6, [r2, r3]
  70:.\uart_wifi.c **** 	ram_tds_in_remainder=ram_tds_in%10;//进水
  87              		.loc 1 70 0
ARM GAS  C:\Users\kevin\AppData\Local\Temp\ccrA27HJ.s 			page 4


  88 003e FFF7FEFF 		bl	__aeabi_uidivmod
  89              	.LVL6:
  90              		.loc 1 79 0
  91 0042 88B2     		uxth	r0, r1
  92 0044 0321     		mov	r1, #3
  93 0046 FFF7FEFF 		bl	__aeabi_uidiv
  94              	.LVL7:
  95 004a 2418     		add	r4, r4, r0
  96              	.LVL8:
  97 004c A419     		add	r4, r4, r6
  80:.\uart_wifi.c **** 	if(ram_tds_in_disp>=995)
  98              		.loc 1 80 0
  99 004e 054B     		ldr	r3, .L10+8
  79:.\uart_wifi.c **** 	    ram_tds_in_disp=ram_tds_in_disp+Tab_tds_in_02[ram_tds_in_disp-256]+ram_tds_in_remainder/3;//ra
 100              		.loc 1 79 0
 101 0050 A4B2     		uxth	r4, r4
 102              	.LVL9:
 103              		.loc 1 80 0
 104 0052 9C42     		cmp	r4, r3
 105 0054 00D9     		bls	.L5
  81:.\uart_wifi.c **** 	    ram_tds_in_disp=999;
 106              		.loc 1 81 0
 107 0056 044C     		ldr	r4, .L10+12
 108              	.LVL10:
 109              	.L5:
  82:.\uart_wifi.c **** 	return ram_tds_in_disp;
  83:.\uart_wifi.c **** }
 110              		.loc 1 83 0
 111 0058 201C     		mov	r0, r4
 112              		@ sp needed
 113              	.LVL11:
 114              	.LVL12:
 115 005a 70BD     		pop	{r4, r5, r6, pc}
 116              	.L11:
 117              		.align	2
 118              	.L10:
 119 005c 00000000 		.word	.LANCHOR0
 120 0060 00010000 		.word	.LANCHOR1
 121 0064 E2030000 		.word	994
 122 0068 E7030000 		.word	999
 123              		.cfi_endproc
 124              	.LFE33:
 125              		.size	Tds_Scan_In, .-Tds_Scan_In
 126              		.section	.text.Tds_Scan_Out,"ax",%progbits
 127              		.align	1
 128              		.global	Tds_Scan_Out
 129              		.code	16
 130              		.thumb_func
 131              		.type	Tds_Scan_Out, %function
 132              	Tds_Scan_Out:
 133              	.LFB34:
  84:.\uart_wifi.c **** uint8 Tds_Scan_Out(uint16 ram_tds_out)
  85:.\uart_wifi.c **** {
 134              		.loc 1 85 0
 135              		.cfi_startproc
 136              	.LVL13:
 137 0000 08B5     		push	{r3, lr}
ARM GAS  C:\Users\kevin\AppData\Local\Temp\ccrA27HJ.s 			page 5


 138              		.cfi_def_cfa_offset 8
 139              		.cfi_offset 3, -8
 140              		.cfi_offset 14, -4
  86:.\uart_wifi.c **** 	uint16 ram_tds_out_disp;
  87:.\uart_wifi.c **** 	ram_tds_out_disp=ram_tds_out/10;//出水
 141              		.loc 1 87 0
 142 0002 0A21     		mov	r1, #10
 143 0004 FFF7FEFF 		bl	__aeabi_uidiv
 144              	.LVL14:
 145 0008 80B2     		uxth	r0, r0
 146              	.LVL15:
  88:.\uart_wifi.c **** 	if(ram_tds_out_disp>=79)//
 147              		.loc 1 88 0
 148 000a 4E28     		cmp	r0, #78
 149 000c 06D8     		bhi	.L17
  89:.\uart_wifi.c **** 		ram_tds_out_disp=79;
  90:.\uart_wifi.c **** 	if(ram_tds_out_disp<20)
 150              		.loc 1 90 0
 151 000e 1328     		cmp	r0, #19
 152 0010 05D8     		bhi	.L13
  91:.\uart_wifi.c **** 	  ram_tds_out_disp=ram_tds_out_disp-Tab_tds_out[ram_tds_out_disp];
 153              		.loc 1 91 0
 154 0012 0A4B     		ldr	r3, .L20
 155 0014 2833     		add	r3, r3, #40
 156 0016 1B5C     		ldrb	r3, [r3, r0]
 157 0018 C01A     		sub	r0, r0, r3
 158              	.LVL16:
 159 001a 08E0     		b	.L19
 160              	.LVL17:
 161              	.L17:
  89:.\uart_wifi.c **** 		ram_tds_out_disp=79;
 162              		.loc 1 89 0
 163 001c 4F20     		mov	r0, #79
 164              	.LVL18:
 165              	.L13:
  92:.\uart_wifi.c **** 	else if((ram_tds_out_disp>=20)&&(ram_tds_out_disp<30))
 166              		.loc 1 92 0
 167 001e 031C     		mov	r3, r0
 168 0020 143B     		sub	r3, r3, #20
 169 0022 092B     		cmp	r3, #9
 170 0024 07D9     		bls	.L16
  93:.\uart_wifi.c **** 	  ram_tds_out_disp+=0;
  94:.\uart_wifi.c **** 	else if(ram_tds_out_disp>=30)
  95:.\uart_wifi.c **** 	  ram_tds_out_disp=ram_tds_out_disp+Tab_tds_out[ram_tds_out_disp];
 171              		.loc 1 95 0
 172 0026 054B     		ldr	r3, .L20
 173 0028 2833     		add	r3, r3, #40
 174 002a 1B5C     		ldrb	r3, [r3, r0]
 175 002c 1818     		add	r0, r3, r0
 176              	.LVL19:
 177              	.L19:
 178 002e 80B2     		uxth	r0, r0
 179              	.LVL20:
  96:.\uart_wifi.c **** 	if(ram_tds_out_disp>=98)
 180              		.loc 1 96 0
 181 0030 6128     		cmp	r0, #97
 182 0032 00D9     		bls	.L16
ARM GAS  C:\Users\kevin\AppData\Local\Temp\ccrA27HJ.s 			page 6


  97:.\uart_wifi.c **** 		ram_tds_out_disp=99;
 183              		.loc 1 97 0
 184 0034 6320     		mov	r0, #99
 185              	.LVL21:
 186              	.L16:
  98:.\uart_wifi.c **** 	return ram_tds_out_disp;
 187              		.loc 1 98 0
 188 0036 C0B2     		uxtb	r0, r0
 189              	.LVL22:
  99:.\uart_wifi.c **** }
 190              		.loc 1 99 0
 191              		@ sp needed
 192 0038 08BD     		pop	{r3, pc}
 193              	.L21:
 194 003a C046     		.align	2
 195              	.L20:
 196 003c 80010000 		.word	.LANCHOR2
 197              		.cfi_endproc
 198              	.LFE34:
 199              		.size	Tds_Scan_Out, .-Tds_Scan_Out
 200              		.section	.text.Sum_Verify,"ax",%progbits
 201              		.align	1
 202              		.global	Sum_Verify
 203              		.code	16
 204              		.thumb_func
 205              		.type	Sum_Verify, %function
 206              	Sum_Verify:
 207              	.LFB35:
 100:.\uart_wifi.c **** typedef struct Buffer0
 101:.\uart_wifi.c **** {
 102:.\uart_wifi.c **** 	uint8  	gcATReceData[WIFIBUFLEN];  // wifi 模块一次传输1440字节，这里有51芯片只有1
 103:.\uart_wifi.c **** 	uint16 	gcATReceCount;
 104:.\uart_wifi.c **** } Buffer2;
 105:.\uart_wifi.c **** struct Buffer0    ATReceBuffer[1];
 106:.\uart_wifi.c **** typedef struct Buffer1
 107:.\uart_wifi.c **** {
 108:.\uart_wifi.c **** 	uint8  	gcATReceTdsboardData[TDSBUFLEN];  // wifi 模块一次传输1440字节，这里有51芯片
 109:.\uart_wifi.c ****   uint16  gcATReceTdsboardCount;
 110:.\uart_wifi.c **** } Buffer1;
 111:.\uart_wifi.c **** struct Buffer1    ATTdsReceBuffer[1];
 112:.\uart_wifi.c **** 
 113:.\uart_wifi.c **** struct{
 114:.\uart_wifi.c ****     unsigned send_data_load:1;            //启动发送标志
 115:.\uart_wifi.c ****     unsigned flag_rev_end:1;              //接收完毕标志
 116:.\uart_wifi.c ****     unsigned uart_ack:1;              //应答标志位
 117:.\uart_wifi.c ****     unsigned flag_Uart_Work:1;         //Uart_Work标志位
 118:.\uart_wifi.c **** }WifidatagramWorkFlag;
 119:.\uart_wifi.c **** uint8	Work_State_Num_H,Work_State_Num_L;
 120:.\uart_wifi.c **** uint8	Cmd_Function_Num;
 121:.\uart_wifi.c **** uint16 Cmd_Function,Cmd_Function_Buf[8];     //设置8组缓冲区
 122:.\uart_wifi.c **** 
 123:.\uart_wifi.c **** uint16 Error_Data_Buf[9];
 124:.\uart_wifi.c **** uint8	gcWifiCommunState;   	// 通讯接收状态
 125:.\uart_wifi.c **** uint8	gctdsboardCommunState;   	// 通讯接收状态
 126:.\uart_wifi.c **** uint8 Frame_Num;//总帧数量
 127:.\uart_wifi.c **** uint16 giWIFICommand;//wifi控制命令
 128:.\uart_wifi.c **** uint16 giWIFIDATALength;//wifi数据长度
ARM GAS  C:\Users\kevin\AppData\Local\Temp\ccrA27HJ.s 			page 7


 129:.\uart_wifi.c **** uint8 gcWIFICTL;//wifi控制字
 130:.\uart_wifi.c **** uint16 giTDSBOARDCommand;//wifi控制命令
 131:.\uart_wifi.c **** uint16 giTDSBOARDDATALength;//wifi数据长度
 132:.\uart_wifi.c **** uint8 gcTDSBOARDCTL;//wifi控制字
 133:.\uart_wifi.c **** uint16		iUartSendLen;
 134:.\uart_wifi.c **** uint16		iSendCounter;
 135:.\uart_wifi.c **** uint16 iSendCounter,iUartSendLen;
 136:.\uart_wifi.c **** uint8 *cpSendBufPtr;
 137:.\uart_wifi.c **** uint8	Send_Interval_Counter;//发送时间间隔20ms 
 138:.\uart_wifi.c **** /******************************************************************************
 139:.\uart_wifi.c **** * 函 数 名: uint8 Sum_Verify (uint8 *PBuf, uint16 Len)
 140:.\uart_wifi.c **** * 函数功能: 串口接收程序
 141:.\uart_wifi.c **** * 入口参数: 无
 142:.\uart_wifi.c **** * 返    回: 
 143:.\uart_wifi.c **** *******************************************************************************/
 144:.\uart_wifi.c **** CYBIT Sum_Verify (uint8 *PBuf, uint16 Len)
 145:.\uart_wifi.c **** {
 208              		.loc 1 145 0
 209              		.cfi_startproc
 210              	.LVL23:
 146:.\uart_wifi.c ****     uint8 Verify = 0;
 211              		.loc 1 146 0
 212 0000 0023     		mov	r3, #0
 213              	.LVL24:
 214              	.L23:
 147:.\uart_wifi.c ****     while (Len--)
 215              		.loc 1 147 0 discriminator 1
 216 0002 0139     		sub	r1, r1, #1
 217              	.LVL25:
 218 0004 064A     		ldr	r2, .L26
 219 0006 89B2     		uxth	r1, r1
 220              	.LVL26:
 221 0008 9142     		cmp	r1, r2
 222 000a 04D0     		beq	.L25
 148:.\uart_wifi.c ****     {
 149:.\uart_wifi.c ****         Verify = Verify + (*PBuf);
 223              		.loc 1 149 0
 224 000c 0278     		ldrb	r2, [r0]
 150:.\uart_wifi.c ****         PBuf ++;
 225              		.loc 1 150 0
 226 000e 0130     		add	r0, r0, #1
 227              	.LVL27:
 149:.\uart_wifi.c ****         Verify = Verify + (*PBuf);
 228              		.loc 1 149 0
 229 0010 9B18     		add	r3, r3, r2
 230              	.LVL28:
 231 0012 DBB2     		uxtb	r3, r3
 232              	.LVL29:
 233 0014 F5E7     		b	.L23
 234              	.L25:
 151:.\uart_wifi.c ****     }
 152:.\uart_wifi.c ****     return (Verify == 0);                                //如果verify为0 返回1 否则返回0
 235              		.loc 1 152 0
 236 0016 5842     		neg	r0, r3
 237 0018 5841     		adc	r0, r0, r3
 238              	.LVL30:
 239 001a C0B2     		uxtb	r0, r0
ARM GAS  C:\Users\kevin\AppData\Local\Temp\ccrA27HJ.s 			page 8


 153:.\uart_wifi.c **** }
 240              		.loc 1 153 0
 241              		@ sp needed
 242 001c 7047     		bx	lr
 243              	.L27:
 244 001e C046     		.align	2
 245              	.L26:
 246 0020 FFFF0000 		.word	65535
 247              		.cfi_endproc
 248              	.LFE35:
 249              		.size	Sum_Verify, .-Sum_Verify
 250              		.section	.text.Sum_Make_Verify,"ax",%progbits
 251              		.align	1
 252              		.global	Sum_Make_Verify
 253              		.code	16
 254              		.thumb_func
 255              		.type	Sum_Make_Verify, %function
 256              	Sum_Make_Verify:
 257              	.LFB36:
 154:.\uart_wifi.c **** /******************************************************************************
 155:.\uart_wifi.c **** * 函 数 名: Sum_Make_Verify (uint8 *pBuf, uint len)
 156:.\uart_wifi.c **** * 函数功能: 串口接收程序
 157:.\uart_wifi.c **** * 入口参数: 无
 158:.\uart_wifi.c **** * 返    回: 
 159:.\uart_wifi.c **** *******************************************************************************/
 160:.\uart_wifi.c **** uint8 Sum_Make_Verify (uint8 *PBuf, uint16 Len)
 161:.\uart_wifi.c **** {
 258              		.loc 1 161 0
 259              		.cfi_startproc
 260              	.LVL31:
 162:.\uart_wifi.c ****     uint8 Verify = 0;
 261              		.loc 1 162 0
 262 0000 0023     		mov	r3, #0
 263              	.LVL32:
 264              	.L29:
 163:.\uart_wifi.c ****     while (Len--)
 265              		.loc 1 163 0 discriminator 1
 266 0002 0139     		sub	r1, r1, #1
 267              	.LVL33:
 268 0004 054A     		ldr	r2, .L32
 269 0006 89B2     		uxth	r1, r1
 270              	.LVL34:
 271 0008 9142     		cmp	r1, r2
 272 000a 04D0     		beq	.L31
 164:.\uart_wifi.c ****     {
 165:.\uart_wifi.c ****         Verify = Verify + (*PBuf);
 273              		.loc 1 165 0
 274 000c 0278     		ldrb	r2, [r0]
 166:.\uart_wifi.c ****         ++ PBuf;
 275              		.loc 1 166 0
 276 000e 0130     		add	r0, r0, #1
 277              	.LVL35:
 165:.\uart_wifi.c ****         Verify = Verify + (*PBuf);
 278              		.loc 1 165 0
 279 0010 9B18     		add	r3, r3, r2
 280              	.LVL36:
 281 0012 DBB2     		uxtb	r3, r3
ARM GAS  C:\Users\kevin\AppData\Local\Temp\ccrA27HJ.s 			page 9


 282              	.LVL37:
 283 0014 F5E7     		b	.L29
 284              	.L31:
 167:.\uart_wifi.c ****     }
 168:.\uart_wifi.c ****     return (~Verify + 1);
 285              		.loc 1 168 0
 286 0016 5B42     		neg	r3, r3
 287              	.LVL38:
 288 0018 D8B2     		uxtb	r0, r3
 289              	.LVL39:
 169:.\uart_wifi.c **** }
 290              		.loc 1 169 0
 291              		@ sp needed
 292 001a 7047     		bx	lr
 293              	.L33:
 294              		.align	2
 295              	.L32:
 296 001c FFFF0000 		.word	65535
 297              		.cfi_endproc
 298              	.LFE36:
 299              		.size	Sum_Make_Verify, .-Sum_Make_Verify
 300              		.section	.text.LoadUARTData,"ax",%progbits
 301              		.align	1
 302              		.global	LoadUARTData
 303              		.code	16
 304              		.thumb_func
 305              		.type	LoadUARTData, %function
 306              	LoadUARTData:
 307              	.LFB37:
 170:.\uart_wifi.c **** /*
 171:.\uart_wifi.c **** 	========================================================================
 172:.\uart_wifi.c **** * 函 数 名: LodaUARTData(   IN unsigned char  UartData)
 173:.\uart_wifi.c **** * 函数功能: 串口发送程序
 174:.\uart_wifi.c **** * 入口参数: UartData
 175:.\uart_wifi.c **** * 返    回: 
 176:.\uart_wifi.c **** 	========================================================================
 177:.\uart_wifi.c **** */
 178:.\uart_wifi.c **** void LoadUARTData(uint8  UartData)
 179:.\uart_wifi.c **** {
 308              		.loc 1 179 0
 309              		.cfi_startproc
 310              	.LVL40:
 311 0000 38B5     		push	{r3, r4, r5, lr}
 312              		.cfi_def_cfa_offset 16
 313              		.cfi_offset 3, -16
 314              		.cfi_offset 4, -12
 315              		.cfi_offset 5, -8
 316              		.cfi_offset 14, -4
 180:.\uart_wifi.c **** 	switch (gcWifiCommunState)
 317              		.loc 1 180 0
 318 0002 3C4A     		ldr	r2, .L60
 179:.\uart_wifi.c **** {
 319              		.loc 1 179 0
 320 0004 031C     		mov	r3, r0
 321              		.loc 1 180 0
 322 0006 1078     		ldrb	r0, [r2]
 323              	.LVL41:
ARM GAS  C:\Users\kevin\AppData\Local\Temp\ccrA27HJ.s 			page 10


 324 0008 111C     		mov	r1, r2
 325 000a 0B28     		cmp	r0, #11
 326 000c 6FD8     		bhi	.L35
 327 000e 3A4A     		ldr	r2, .L60+4
 328 0010 FFF7FEFF 		bl	__gnu_thumb1_case_uqi
 329              	.L37:
 330 0014 06       		.byte	(.L36-.L37)/2
 331 0015 0B       		.byte	(.L38-.L37)/2
 332 0016 11       		.byte	(.L39-.L37)/2
 333 0017 17       		.byte	(.L40-.L37)/2
 334 0018 1B       		.byte	(.L41-.L37)/2
 335 0019 1F       		.byte	(.L42-.L37)/2
 336 001a 25       		.byte	(.L43-.L37)/2
 337 001b 2B       		.byte	(.L44-.L37)/2
 338 001c 34       		.byte	(.L45-.L37)/2
 339 001d 3A       		.byte	(.L46-.L37)/2
 340 001e 48       		.byte	(.L47-.L37)/2
 341 001f 5B       		.byte	(.L48-.L37)/2
 342              		.p2align 1
 343              	.L36:
 181:.\uart_wifi.c **** 		{
 182:.\uart_wifi.c **** 			 case WIFI_WAIT_SYN_0:		                 // 1数据包头FA
 183:.\uart_wifi.c **** 			   		if(UartData==WIFI_SYN_0)
 344              		.loc 1 183 0
 345 0020 FA2B     		cmp	r3, #250
 346 0022 65D1     		bne	.L59
 184:.\uart_wifi.c ****   			   		gcWifiCommunState = WIFI_WAIT_SYN_1;
 347              		.loc 1 184 0
 348 0024 0120     		mov	r0, #1
 349 0026 0870     		strb	r0, [r1]
 350 0028 62E0     		b	.L59
 351              	.L38:
 185:.\uart_wifi.c ****   			  	    ATReceBuffer[0].gcATReceData[0]= UartData;
 186:.\uart_wifi.c **** 			  		break;
 187:.\uart_wifi.c **** 			 case WIFI_WAIT_SYN_1:		                // 2数据包头FB
 188:.\uart_wifi.c **** 			   		if(UartData==WIFI_SYN_1)
 352              		.loc 1 188 0
 353 002a FB2B     		cmp	r3, #251
 354 002c 01D1     		bne	.L51
 189:.\uart_wifi.c ****   			   		gcWifiCommunState = WIFI_PROTOCOL_JUDGE;
 355              		.loc 1 189 0
 356 002e 0220     		mov	r0, #2
 357 0030 0870     		strb	r0, [r1]
 358              	.L51:
 190:.\uart_wifi.c ****   			  	    ATReceBuffer[0].gcATReceData[1]= UartData;
 359              		.loc 1 190 0
 360 0032 5370     		strb	r3, [r2, #1]
 191:.\uart_wifi.c **** 			  		break;
 361              		.loc 1 191 0
 362 0034 5DE0     		b	.L34
 363              	.L39:
 192:.\uart_wifi.c **** 			 case WIFI_PROTOCOL_JUDGE:                //3协议版本
 193:.\uart_wifi.c **** 			 			if(UartData==WIFI_PROTOCOL_VERSION)
 364              		.loc 1 193 0
 365 0036 002B     		cmp	r3, #0
 366 0038 01D1     		bne	.L52
 194:.\uart_wifi.c ****   			   		gcWifiCommunState = WIFI_TOTAL_FRAME_NUM;
ARM GAS  C:\Users\kevin\AppData\Local\Temp\ccrA27HJ.s 			page 11


 367              		.loc 1 194 0
 368 003a 0320     		mov	r0, #3
 369 003c 0870     		strb	r0, [r1]
 370              	.L52:
 195:.\uart_wifi.c ****   			  	ATReceBuffer[0].gcATReceData[2]= UartData;
 371              		.loc 1 195 0
 372 003e 9370     		strb	r3, [r2, #2]
 196:.\uart_wifi.c **** 			  		break;
 373              		.loc 1 196 0
 374 0040 57E0     		b	.L34
 375              	.L40:
 197:.\uart_wifi.c **** 			 case WIFI_TOTAL_FRAME_NUM:               //4总帧数量
 198:.\uart_wifi.c **** 			 			gcWifiCommunState = WIFI_FRAME_NUM;
 376              		.loc 1 198 0
 377 0042 0420     		mov	r0, #4
 378 0044 0870     		strb	r0, [r1]
 199:.\uart_wifi.c ****   			  	ATReceBuffer[0].gcATReceData[3]= UartData;
 379              		.loc 1 199 0
 380 0046 D370     		strb	r3, [r2, #3]
 200:.\uart_wifi.c **** 			  		break;		
 381              		.loc 1 200 0
 382 0048 53E0     		b	.L34
 383              	.L41:
 201:.\uart_wifi.c **** 			 case WIFI_FRAME_NUM:                    //5帧序号
 202:.\uart_wifi.c **** 			 			gcWifiCommunState = WIFI_WAIT_CTL;
 384              		.loc 1 202 0
 385 004a 0520     		mov	r0, #5
 386 004c 0870     		strb	r0, [r1]
 203:.\uart_wifi.c ****   			  	ATReceBuffer[0].gcATReceData[4]= UartData;
 387              		.loc 1 203 0
 388 004e 1371     		strb	r3, [r2, #4]
 204:.\uart_wifi.c **** 			  		break;		
 389              		.loc 1 204 0
 390 0050 4FE0     		b	.L34
 391              	.L42:
 205:.\uart_wifi.c **** 			 case WIFI_WAIT_CTL:	               // 6控制字
 206:.\uart_wifi.c **** 			    	gcWIFICTL = UartData;
 392              		.loc 1 206 0
 393 0052 2A48     		ldr	r0, .L60+8
 207:.\uart_wifi.c **** 						gcWifiCommunState = WIFI_COMMAND_1;
 208:.\uart_wifi.c ****   			  	ATReceBuffer[0].gcATReceData[5]= UartData;
 394              		.loc 1 208 0
 395 0054 5371     		strb	r3, [r2, #5]
 206:.\uart_wifi.c **** 			    	gcWIFICTL = UartData;
 396              		.loc 1 206 0
 397 0056 0370     		strb	r3, [r0]
 207:.\uart_wifi.c **** 						gcWifiCommunState = WIFI_COMMAND_1;
 398              		.loc 1 207 0
 399 0058 0620     		mov	r0, #6
 400 005a 0870     		strb	r0, [r1]
 209:.\uart_wifi.c **** 			 			break;		 
 401              		.loc 1 209 0
 402 005c 49E0     		b	.L34
 403              	.L43:
 210:.\uart_wifi.c **** 			 case WIFI_COMMAND_1:	           // 7指令1
 211:.\uart_wifi.c **** 			    	giWIFICommand = UartData;
 404              		.loc 1 211 0
ARM GAS  C:\Users\kevin\AppData\Local\Temp\ccrA27HJ.s 			page 12


 405 005e 2848     		ldr	r0, .L60+12
 212:.\uart_wifi.c **** 						gcWifiCommunState = WIFI_COMMAND_2;
 213:.\uart_wifi.c ****   			  	ATReceBuffer[0].gcATReceData[6]= UartData;
 406              		.loc 1 213 0
 407 0060 9371     		strb	r3, [r2, #6]
 211:.\uart_wifi.c **** 			    	giWIFICommand = UartData;
 408              		.loc 1 211 0
 409 0062 0380     		strh	r3, [r0]
 212:.\uart_wifi.c **** 						gcWifiCommunState = WIFI_COMMAND_2;
 410              		.loc 1 212 0
 411 0064 0720     		mov	r0, #7
 412 0066 0870     		strb	r0, [r1]
 214:.\uart_wifi.c **** 			 			break;
 413              		.loc 1 214 0
 414 0068 43E0     		b	.L34
 415              	.L44:
 215:.\uart_wifi.c **** 			 case WIFI_COMMAND_2:			  // 8指令2
 216:.\uart_wifi.c **** 			    	giWIFICommand = (giWIFICommand<<8)+UartData;
 416              		.loc 1 216 0
 417 006a 2548     		ldr	r0, .L60+12
 217:.\uart_wifi.c ****       				  gcWifiCommunState = WIFI_LENGTH1;     
 218:.\uart_wifi.c ****   			  	ATReceBuffer[0].gcATReceData[7]= UartData;
 418              		.loc 1 218 0
 419 006c D371     		strb	r3, [r2, #7]
 216:.\uart_wifi.c **** 			    	giWIFICommand = (giWIFICommand<<8)+UartData;
 420              		.loc 1 216 0
 421 006e 0488     		ldrh	r4, [r0]
 422 0070 2402     		lsl	r4, r4, #8
 423 0072 1C19     		add	r4, r3, r4
 424 0074 0480     		strh	r4, [r0]
 217:.\uart_wifi.c ****       				  gcWifiCommunState = WIFI_LENGTH1;     
 425              		.loc 1 217 0
 426 0076 0820     		mov	r0, #8
 427 0078 0870     		strb	r0, [r1]
 219:.\uart_wifi.c **** 			 			break;			 					  		
 428              		.loc 1 219 0
 429 007a 3AE0     		b	.L34
 430              	.L45:
 220:.\uart_wifi.c **** 			 case WIFI_LENGTH1:	           // 9数据长度1
 221:.\uart_wifi.c **** 			    	giWIFIDATALength = UartData;
 431              		.loc 1 221 0
 432 007c 2148     		ldr	r0, .L60+16
 222:.\uart_wifi.c **** 						gcWifiCommunState = WIFI_LENGTH2;
 223:.\uart_wifi.c ****   			  	ATReceBuffer[0].gcATReceData[8]= UartData;
 433              		.loc 1 223 0
 434 007e 1372     		strb	r3, [r2, #8]
 221:.\uart_wifi.c **** 			    	giWIFIDATALength = UartData;
 435              		.loc 1 221 0
 436 0080 0380     		strh	r3, [r0]
 222:.\uart_wifi.c **** 						gcWifiCommunState = WIFI_LENGTH2;
 437              		.loc 1 222 0
 438 0082 0920     		mov	r0, #9
 439 0084 0870     		strb	r0, [r1]
 224:.\uart_wifi.c **** 			 			break;
 440              		.loc 1 224 0
 441 0086 34E0     		b	.L34
 442              	.L46:
ARM GAS  C:\Users\kevin\AppData\Local\Temp\ccrA27HJ.s 			page 13


 225:.\uart_wifi.c **** 			 case WIFI_LENGTH2:			  // 10数据长度2
 226:.\uart_wifi.c **** 			    	giWIFIDATALength = (giWIFIDATALength<<8)+UartData;
 443              		.loc 1 226 0
 444 0088 1E4C     		ldr	r4, .L60+16
 445 008a 2088     		ldrh	r0, [r4]
 446 008c 0002     		lsl	r0, r0, #8
 447 008e 1818     		add	r0, r3, r0
 448 0090 80B2     		uxth	r0, r0
 449 0092 2080     		strh	r0, [r4]
 227:.\uart_wifi.c ****     				if(giWIFIDATALength>0)   // 
 450              		.loc 1 227 0
 451 0094 0028     		cmp	r0, #0
 452 0096 01D0     		beq	.L53
 228:.\uart_wifi.c ****       				{
 229:.\uart_wifi.c ****       				  gcWifiCommunState = WIFI_RECEDATA;
 453              		.loc 1 229 0
 454 0098 0B20     		mov	r0, #11
 455 009a 00E0     		b	.L58
 456              	.L53:
 230:.\uart_wifi.c ****       				} 
 231:.\uart_wifi.c ****     				else
 232:.\uart_wifi.c ****       				{
 233:.\uart_wifi.c ****       				   gcWifiCommunState = WIFI_CHCK; 
 457              		.loc 1 233 0
 458 009c 0A20     		mov	r0, #10
 459              	.L58:
 460 009e 0870     		strb	r0, [r1]
 234:.\uart_wifi.c ****       				}
 235:.\uart_wifi.c ****   			  	ATReceBuffer[0].gcATReceData[9]= UartData;
 461              		.loc 1 235 0
 462 00a0 5372     		strb	r3, [r2, #9]
 236:.\uart_wifi.c **** 			 			break;
 463              		.loc 1 236 0
 464 00a2 26E0     		b	.L34
 465              	.L47:
 237:.\uart_wifi.c ****     	case WIFI_CHCK:	  // 11校验 
 238:.\uart_wifi.c ****     				if (ATReceBuffer[0].gcATReceCount<=(WIFIBUFLEN-10-1)) 
 466              		.loc 1 238 0
 467 00a4 101C     		mov	r0, r2
 468 00a6 6430     		add	r0, r0, #100
 469 00a8 0488     		ldrh	r4, [r0]
 470 00aa 592C     		cmp	r4, #89
 471 00ac 21D8     		bhi	.L34
 239:.\uart_wifi.c ****     					{
 240:.\uart_wifi.c ****   			    		ATReceBuffer[0].gcATReceData[10+ATReceBuffer[0].gcATReceCount]= UartData; 
 472              		.loc 1 240 0
 473 00ae 1219     		add	r2, r2, r4
 474 00b0 9372     		strb	r3, [r2, #10]
 241:.\uart_wifi.c ****   			    		ATReceBuffer[0].gcATReceCount = 0;
 475              		.loc 1 241 0
 476 00b2 0023     		mov	r3, #0
 477 00b4 0380     		strh	r3, [r0]
 242:.\uart_wifi.c **** 	      				gcWifiCommunState = WIFI_WAIT_SYN_0;
 478              		.loc 1 242 0
 479 00b6 0B70     		strb	r3, [r1]
 243:.\uart_wifi.c **** 	      				WifiWorkFlag.gcReceComm1OK = 1;  // 数据成功接收完毕 
 480              		.loc 1 243 0
ARM GAS  C:\Users\kevin\AppData\Local\Temp\ccrA27HJ.s 			page 14


 481 00b8 134B     		ldr	r3, .L60+20
 482 00ba 0421     		mov	r1, #4
 483 00bc 1A78     		ldrb	r2, [r3]
 244:.\uart_wifi.c ****                         TestPort_Write(1); 
 484              		.loc 1 244 0
 485 00be 0120     		mov	r0, #1
 243:.\uart_wifi.c **** 	      				WifiWorkFlag.gcReceComm1OK = 1;  // 数据成功接收完毕 
 486              		.loc 1 243 0
 487 00c0 0A43     		orr	r2, r1
 488 00c2 1A70     		strb	r2, [r3]
 489              		.loc 1 244 0
 490 00c4 FFF7FEFF 		bl	TestPort_Write
 491              	.LVL42:
 492 00c8 13E0     		b	.L34
 493              	.L48:
 245:.\uart_wifi.c ****     					}         						
 246:.\uart_wifi.c **** 
 247:.\uart_wifi.c **** 
 248:.\uart_wifi.c **** 
 249:.\uart_wifi.c **** 			 			break;
 250:.\uart_wifi.c **** 		case WIFI_RECEDATA:  // 12数据内容
 251:.\uart_wifi.c ****     				if (ATReceBuffer[0].gcATReceCount<(WIFIBUFLEN-10-1)) 
 494              		.loc 1 251 0
 495 00ca 141C     		mov	r4, r2
 496 00cc 6434     		add	r4, r4, #100
 497 00ce 2088     		ldrh	r0, [r4]
 498 00d0 5828     		cmp	r0, #88
 499 00d2 03D8     		bhi	.L56
 252:.\uart_wifi.c ****     					{
 253:.\uart_wifi.c ****   			    		ATReceBuffer[0].gcATReceData[10+ATReceBuffer[0].gcATReceCount]= UartData;
 500              		.loc 1 253 0
 501 00d4 1518     		add	r5, r2, r0
 254:.\uart_wifi.c ****   			    		ATReceBuffer[0].gcATReceCount++;    						
 502              		.loc 1 254 0
 503 00d6 0130     		add	r0, r0, #1
 253:.\uart_wifi.c ****   			    		ATReceBuffer[0].gcATReceData[10+ATReceBuffer[0].gcATReceCount]= UartData;
 504              		.loc 1 253 0
 505 00d8 AB72     		strb	r3, [r5, #10]
 506              		.loc 1 254 0
 507 00da 2080     		strh	r0, [r4]
 508              	.L56:
 255:.\uart_wifi.c ****     					}
 256:.\uart_wifi.c **** 
 257:.\uart_wifi.c ****     				if(ATReceBuffer[0].gcATReceCount == giWIFIDATALength)
 509              		.loc 1 257 0
 510 00dc 094B     		ldr	r3, .L60+16
 511 00de 6432     		add	r2, r2, #100
 512 00e0 1288     		ldrh	r2, [r2]
 513 00e2 1B88     		ldrh	r3, [r3]
 514 00e4 9A42     		cmp	r2, r3
 515 00e6 04D1     		bne	.L34
 258:.\uart_wifi.c ****     				{
 259:.\uart_wifi.c ****     				  	gcWifiCommunState = WIFI_CHCK;
 516              		.loc 1 259 0
 517 00e8 0A23     		mov	r3, #10
 518 00ea 0B70     		strb	r3, [r1]
 519 00ec 01E0     		b	.L34
ARM GAS  C:\Users\kevin\AppData\Local\Temp\ccrA27HJ.s 			page 15


 520              	.L35:
 260:.\uart_wifi.c ****     				}
 261:.\uart_wifi.c ****     			 	break;
 262:.\uart_wifi.c **** 		default:
 263:.\uart_wifi.c **** 			 	gcWifiCommunState = WIFI_WAIT_SYN_0;	
 521              		.loc 1 263 0
 522 00ee 0023     		mov	r3, #0
 523              	.L59:
 524 00f0 1370     		strb	r3, [r2]
 525              	.L34:
 264:.\uart_wifi.c **** 		}
 265:.\uart_wifi.c **** }
 526              		.loc 1 265 0
 527              		@ sp needed
 528 00f2 38BD     		pop	{r3, r4, r5, pc}
 529              	.L61:
 530              		.align	2
 531              	.L60:
 532 00f4 00000000 		.word	gcWifiCommunState
 533 00f8 00000000 		.word	ATReceBuffer
 534 00fc 00000000 		.word	gcWIFICTL
 535 0100 00000000 		.word	giWIFICommand
 536 0104 00000000 		.word	giWIFIDATALength
 537 0108 00000000 		.word	WifiWorkFlag
 538              		.cfi_endproc
 539              	.LFE37:
 540              		.size	LoadUARTData, .-LoadUARTData
 541              		.section	.text.LoadTDSBoardData,"ax",%progbits
 542              		.align	1
 543              		.global	LoadTDSBoardData
 544              		.code	16
 545              		.thumb_func
 546              		.type	LoadTDSBoardData, %function
 547              	LoadTDSBoardData:
 548              	.LFB38:
 266:.\uart_wifi.c **** /*
 267:.\uart_wifi.c **** 	========================================================================
 268:.\uart_wifi.c **** * 函 数 名: LodaUARTData(   IN unsigned char  UartData)
 269:.\uart_wifi.c **** * 函数功能: 串口发送程序
 270:.\uart_wifi.c **** * 入口参数: UartData
 271:.\uart_wifi.c **** * 返    回: 
 272:.\uart_wifi.c **** 	========================================================================
 273:.\uart_wifi.c **** */
 274:.\uart_wifi.c **** void LoadTDSBoardData(uint8  UartData)
 275:.\uart_wifi.c **** {
 549              		.loc 1 275 0
 550              		.cfi_startproc
 551              	.LVL43:
 552 0000 10B5     		push	{r4, lr}
 553              		.cfi_def_cfa_offset 8
 554              		.cfi_offset 4, -8
 555              		.cfi_offset 14, -4
 276:.\uart_wifi.c **** 	switch (gctdsboardCommunState)
 556              		.loc 1 276 0
 557 0002 3F49     		ldr	r1, .L85
 275:.\uart_wifi.c **** {
 558              		.loc 1 275 0
ARM GAS  C:\Users\kevin\AppData\Local\Temp\ccrA27HJ.s 			page 16


 559 0004 031C     		mov	r3, r0
 560              		.loc 1 276 0
 561 0006 0878     		ldrb	r0, [r1]
 562              	.LVL44:
 563 0008 0A1C     		mov	r2, r1
 564 000a 0B28     		cmp	r0, #11
 565 000c 74D8     		bhi	.L63
 566 000e FFF7FEFF 		bl	__gnu_thumb1_case_uqi
 567              	.L65:
 568 0012 06       		.byte	(.L64-.L65)/2
 569 0013 13       		.byte	(.L66-.L65)/2
 570 0014 1A       		.byte	(.L67-.L65)/2
 571 0015 21       		.byte	(.L68-.L65)/2
 572 0016 26       		.byte	(.L69-.L65)/2
 573 0017 2B       		.byte	(.L70-.L65)/2
 574 0018 32       		.byte	(.L71-.L65)/2
 575 0019 39       		.byte	(.L72-.L65)/2
 576 001a 43       		.byte	(.L73-.L65)/2
 577 001b 4A       		.byte	(.L74-.L65)/2
 578 001c 59       		.byte	(.L75-.L65)/2
 579 001d 0C       		.byte	(.L76-.L65)/2
 580              		.p2align 1
 581              	.L64:
 277:.\uart_wifi.c **** 		{
 278:.\uart_wifi.c **** 			 case TDSBOARD_WAIT_SYN_0:		                 // 1数据包头FA
 279:.\uart_wifi.c **** 			   		if(UartData==TDSBOARD_SYN_0)
 582              		.loc 1 279 0
 583 001e FA2B     		cmp	r3, #250
 584 0020 07D1     		bne	.L77
 280:.\uart_wifi.c ****                     {
 281:.\uart_wifi.c ****   			   		    gctdsboardCommunState = TDSBOARD_WAIT_SYN_1;
 585              		.loc 1 281 0
 586 0022 0121     		mov	r1, #1
 587 0024 1170     		strb	r1, [r2]
 282:.\uart_wifi.c ****                         ATTdsReceBuffer[0].gcATReceTdsboardData[0]= UartData;
 588              		.loc 1 282 0
 589 0026 374A     		ldr	r2, .L85+4
 590 0028 04E0     		b	.L83
 591              	.L76:
 283:.\uart_wifi.c ****                     }
 284:.\uart_wifi.c ****                     else
 285:.\uart_wifi.c ****                         gctdsboardCommunState = TDSBOARD_WAIT_SYN_0;
 286:.\uart_wifi.c **** 			  		break;
 287:.\uart_wifi.c **** 			 case TDSBOARD_WAIT_SYN_1:		                // 2数据包头FB
 288:.\uart_wifi.c **** 			   		if(UartData==TDSBOARD_SYN_1)
 289:.\uart_wifi.c ****                     {
 290:.\uart_wifi.c ****   			   		gctdsboardCommunState = TDSBOARD_PROTOCOL_JUDGE;
 291:.\uart_wifi.c ****   			  	    ATTdsReceBuffer[0].gcATReceTdsboardData[1]= UartData;
 292:.\uart_wifi.c ****                     }
 293:.\uart_wifi.c ****                     else
 294:.\uart_wifi.c ****                         gctdsboardCommunState = TDSBOARD_WAIT_SYN_0;
 295:.\uart_wifi.c **** 			  		break;
 296:.\uart_wifi.c **** 			 case TDSBOARD_PROTOCOL_JUDGE:                //3协议版本
 297:.\uart_wifi.c **** 			 			if(UartData==TDSBOARD_PROTOCOL_VERSION)
 298:.\uart_wifi.c ****   			   		gctdsboardCommunState = TDSBOARD_TOTAL_FRAME_NUM;
 299:.\uart_wifi.c ****   			  	ATTdsReceBuffer[0].gcATReceTdsboardData[2]= UartData;
 300:.\uart_wifi.c **** 			  		break;
ARM GAS  C:\Users\kevin\AppData\Local\Temp\ccrA27HJ.s 			page 17


 301:.\uart_wifi.c **** 			 case TDSBOARD_TOTAL_FRAME_NUM:               //4总帧数量
 302:.\uart_wifi.c **** 			 			gctdsboardCommunState = TDSBOARD_FRAME_NUM;
 303:.\uart_wifi.c ****   			  	ATTdsReceBuffer[0].gcATReceTdsboardData[3]= UartData;
 304:.\uart_wifi.c **** 			  		break;		
 305:.\uart_wifi.c **** 			 case TDSBOARD_FRAME_NUM:                    //5帧序号
 306:.\uart_wifi.c **** 			 			gctdsboardCommunState = TDSBOARD_WAIT_CTL;
 307:.\uart_wifi.c ****   			  	ATTdsReceBuffer[0].gcATReceTdsboardData[4]= UartData;
 308:.\uart_wifi.c **** 			  		break;		
 309:.\uart_wifi.c **** 			 case TDSBOARD_WAIT_CTL:	               // 6控制字
 310:.\uart_wifi.c **** 			    	gcTDSBOARDCTL = UartData;
 311:.\uart_wifi.c **** 						gctdsboardCommunState = TDSBOARD_COMMAND_1;
 312:.\uart_wifi.c ****   			  	ATTdsReceBuffer[0].gcATReceTdsboardData[5]= UartData;
 313:.\uart_wifi.c **** 			 			break;		 
 314:.\uart_wifi.c **** 			 case TDSBOARD_COMMAND_1:	           // 7指令1
 315:.\uart_wifi.c **** 			    	giTDSBOARDCommand = UartData;
 316:.\uart_wifi.c **** 						gctdsboardCommunState = TDSBOARD_COMMAND_2;
 317:.\uart_wifi.c ****   			  	ATTdsReceBuffer[0].gcATReceTdsboardData[6]= UartData;
 318:.\uart_wifi.c **** 			 			break;
 319:.\uart_wifi.c **** 			 case TDSBOARD_COMMAND_2:			  // 8指令2
 320:.\uart_wifi.c **** 			    	giTDSBOARDCommand = (giTDSBOARDCommand<<8)+UartData;
 321:.\uart_wifi.c ****       				  gctdsboardCommunState = TDSBOARD_LENGTH1;     
 322:.\uart_wifi.c ****   			  	ATTdsReceBuffer[0].gcATReceTdsboardData[7]= UartData;
 323:.\uart_wifi.c **** 			 			break;			 					  		
 324:.\uart_wifi.c **** 			 case TDSBOARD_LENGTH1:	           // 9数据长度1
 325:.\uart_wifi.c **** 			    	giTDSBOARDDATALength = UartData;
 326:.\uart_wifi.c **** 						gctdsboardCommunState = TDSBOARD_LENGTH2;
 327:.\uart_wifi.c ****   			  	ATTdsReceBuffer[0].gcATReceTdsboardData[8]= UartData;
 328:.\uart_wifi.c **** 			 			break;
 329:.\uart_wifi.c **** 			 case TDSBOARD_LENGTH2:			  // 10数据长度2
 330:.\uart_wifi.c **** 			    	giTDSBOARDDATALength = (giTDSBOARDDATALength<<8)+UartData;
 331:.\uart_wifi.c ****     				if(giTDSBOARDDATALength>0)   // 
 332:.\uart_wifi.c ****       				{
 333:.\uart_wifi.c ****       				  gctdsboardCommunState = TDSBOARD_RECEDATA;
 334:.\uart_wifi.c ****       				} 
 335:.\uart_wifi.c ****     				else
 336:.\uart_wifi.c ****       				{
 337:.\uart_wifi.c ****       				   gctdsboardCommunState = TDSBOARD_CHCK; 
 338:.\uart_wifi.c ****       				}
 339:.\uart_wifi.c ****   			  	ATTdsReceBuffer[0].gcATReceTdsboardData[9]= UartData;
 340:.\uart_wifi.c **** 			 			break;
 341:.\uart_wifi.c ****     	case TDSBOARD_CHCK:	  // 11校验 
 342:.\uart_wifi.c **** 		    		if (ATTdsReceBuffer[0].gcATReceTdsboardCount<=TDSBUFLEN-10-1) 
 343:.\uart_wifi.c **** 		    			{
 344:.\uart_wifi.c **** 		   			    ATTdsReceBuffer[0].gcATReceTdsboardData[10+ATTdsReceBuffer[0].gcATReceTdsboardCount]= U
 345:.\uart_wifi.c **** 		      			ATTdsReceBuffer[0].gcATReceTdsboardCount = 0;
 346:.\uart_wifi.c **** 		      			gctdsboardCommunState = TDSBOARD_WAIT_SYN_0;
 347:.\uart_wifi.c **** 		      			WifiWorkFlag.gcReceComm2OK = 1;  // 数据成功接收完毕   				
 348:.\uart_wifi.c **** 		    			} 
 349:.\uart_wifi.c ****                      else
 350:.\uart_wifi.c ****                         {
 351:.\uart_wifi.c ****                            gctdsboardCommunState = TDSBOARD_WAIT_SYN_0; 
 352:.\uart_wifi.c ****                         }
 353:.\uart_wifi.c **** 			 			break;
 354:.\uart_wifi.c **** 		case TDSBOARD_RECEDATA:  // 12数据内容
 355:.\uart_wifi.c **** 					  if (ATTdsReceBuffer[0].gcATReceTdsboardCount<TDSBUFLEN-10-1) 
 592              		.loc 1 355 0
 593 002a 3649     		ldr	r1, .L85+4
ARM GAS  C:\Users\kevin\AppData\Local\Temp\ccrA27HJ.s 			page 18


 594 002c C88B     		ldrh	r0, [r1, #30]
 595 002e 1228     		cmp	r0, #18
 596 0030 57D9     		bls	.L84
 597              	.L77:
 285:.\uart_wifi.c ****                         gctdsboardCommunState = TDSBOARD_WAIT_SYN_0;
 598              		.loc 1 285 0
 599 0032 0023     		mov	r3, #0
 600              	.L83:
 601 0034 1370     		strb	r3, [r2]
 602 0036 61E0     		b	.L62
 603              	.L66:
 288:.\uart_wifi.c **** 			   		if(UartData==TDSBOARD_SYN_1)
 604              		.loc 1 288 0
 605 0038 FC2B     		cmp	r3, #252
 606 003a FAD1     		bne	.L77
 290:.\uart_wifi.c ****   			   		gctdsboardCommunState = TDSBOARD_PROTOCOL_JUDGE;
 607              		.loc 1 290 0
 608 003c 0221     		mov	r1, #2
 609 003e 1170     		strb	r1, [r2]
 291:.\uart_wifi.c ****   			  	    ATTdsReceBuffer[0].gcATReceTdsboardData[1]= UartData;
 610              		.loc 1 291 0
 611 0040 304A     		ldr	r2, .L85+4
 612 0042 5370     		strb	r3, [r2, #1]
 613 0044 5AE0     		b	.L62
 614              	.L67:
 297:.\uart_wifi.c **** 			 			if(UartData==TDSBOARD_PROTOCOL_VERSION)
 615              		.loc 1 297 0
 616 0046 002B     		cmp	r3, #0
 617 0048 01D1     		bne	.L79
 298:.\uart_wifi.c ****   			   		gctdsboardCommunState = TDSBOARD_TOTAL_FRAME_NUM;
 618              		.loc 1 298 0
 619 004a 0321     		mov	r1, #3
 620 004c 1170     		strb	r1, [r2]
 621              	.L79:
 299:.\uart_wifi.c ****   			  	ATTdsReceBuffer[0].gcATReceTdsboardData[2]= UartData;
 622              		.loc 1 299 0
 623 004e 2D4A     		ldr	r2, .L85+4
 624 0050 9370     		strb	r3, [r2, #2]
 300:.\uart_wifi.c **** 			  		break;
 625              		.loc 1 300 0
 626 0052 53E0     		b	.L62
 627              	.L68:
 302:.\uart_wifi.c **** 			 			gctdsboardCommunState = TDSBOARD_FRAME_NUM;
 628              		.loc 1 302 0
 629 0054 0421     		mov	r1, #4
 630 0056 1170     		strb	r1, [r2]
 303:.\uart_wifi.c ****   			  	ATTdsReceBuffer[0].gcATReceTdsboardData[3]= UartData;
 631              		.loc 1 303 0
 632 0058 2A4A     		ldr	r2, .L85+4
 633 005a D370     		strb	r3, [r2, #3]
 304:.\uart_wifi.c **** 			  		break;		
 634              		.loc 1 304 0
 635 005c 4EE0     		b	.L62
 636              	.L69:
 306:.\uart_wifi.c **** 			 			gctdsboardCommunState = TDSBOARD_WAIT_CTL;
 637              		.loc 1 306 0
 638 005e 0521     		mov	r1, #5
ARM GAS  C:\Users\kevin\AppData\Local\Temp\ccrA27HJ.s 			page 19


 639 0060 1170     		strb	r1, [r2]
 307:.\uart_wifi.c ****   			  	ATTdsReceBuffer[0].gcATReceTdsboardData[4]= UartData;
 640              		.loc 1 307 0
 641 0062 284A     		ldr	r2, .L85+4
 642 0064 1371     		strb	r3, [r2, #4]
 308:.\uart_wifi.c **** 			  		break;		
 643              		.loc 1 308 0
 644 0066 49E0     		b	.L62
 645              	.L70:
 310:.\uart_wifi.c **** 			    	gcTDSBOARDCTL = UartData;
 646              		.loc 1 310 0
 647 0068 2749     		ldr	r1, .L85+8
 648 006a 0B70     		strb	r3, [r1]
 311:.\uart_wifi.c **** 						gctdsboardCommunState = TDSBOARD_COMMAND_1;
 649              		.loc 1 311 0
 650 006c 0621     		mov	r1, #6
 651 006e 1170     		strb	r1, [r2]
 312:.\uart_wifi.c ****   			  	ATTdsReceBuffer[0].gcATReceTdsboardData[5]= UartData;
 652              		.loc 1 312 0
 653 0070 244A     		ldr	r2, .L85+4
 654 0072 5371     		strb	r3, [r2, #5]
 313:.\uart_wifi.c **** 			 			break;		 
 655              		.loc 1 313 0
 656 0074 42E0     		b	.L62
 657              	.L71:
 315:.\uart_wifi.c **** 			    	giTDSBOARDCommand = UartData;
 658              		.loc 1 315 0
 659 0076 2549     		ldr	r1, .L85+12
 660 0078 0B80     		strh	r3, [r1]
 316:.\uart_wifi.c **** 						gctdsboardCommunState = TDSBOARD_COMMAND_2;
 661              		.loc 1 316 0
 662 007a 0721     		mov	r1, #7
 663 007c 1170     		strb	r1, [r2]
 317:.\uart_wifi.c ****   			  	ATTdsReceBuffer[0].gcATReceTdsboardData[6]= UartData;
 664              		.loc 1 317 0
 665 007e 214A     		ldr	r2, .L85+4
 666 0080 9371     		strb	r3, [r2, #6]
 318:.\uart_wifi.c **** 			 			break;
 667              		.loc 1 318 0
 668 0082 3BE0     		b	.L62
 669              	.L72:
 320:.\uart_wifi.c **** 			    	giTDSBOARDCommand = (giTDSBOARDCommand<<8)+UartData;
 670              		.loc 1 320 0
 671 0084 2149     		ldr	r1, .L85+12
 672 0086 0888     		ldrh	r0, [r1]
 673 0088 0002     		lsl	r0, r0, #8
 674 008a 1818     		add	r0, r3, r0
 675 008c 0880     		strh	r0, [r1]
 321:.\uart_wifi.c ****       				  gctdsboardCommunState = TDSBOARD_LENGTH1;     
 676              		.loc 1 321 0
 677 008e 0821     		mov	r1, #8
 678 0090 1170     		strb	r1, [r2]
 322:.\uart_wifi.c ****   			  	ATTdsReceBuffer[0].gcATReceTdsboardData[7]= UartData;
 679              		.loc 1 322 0
 680 0092 1C4A     		ldr	r2, .L85+4
 681 0094 D371     		strb	r3, [r2, #7]
 323:.\uart_wifi.c **** 			 			break;			 					  		
ARM GAS  C:\Users\kevin\AppData\Local\Temp\ccrA27HJ.s 			page 20


 682              		.loc 1 323 0
 683 0096 31E0     		b	.L62
 684              	.L73:
 325:.\uart_wifi.c **** 			    	giTDSBOARDDATALength = UartData;
 685              		.loc 1 325 0
 686 0098 1D49     		ldr	r1, .L85+16
 687 009a 0B80     		strh	r3, [r1]
 326:.\uart_wifi.c **** 						gctdsboardCommunState = TDSBOARD_LENGTH2;
 688              		.loc 1 326 0
 689 009c 0921     		mov	r1, #9
 690 009e 1170     		strb	r1, [r2]
 327:.\uart_wifi.c ****   			  	ATTdsReceBuffer[0].gcATReceTdsboardData[8]= UartData;
 691              		.loc 1 327 0
 692 00a0 184A     		ldr	r2, .L85+4
 693 00a2 1372     		strb	r3, [r2, #8]
 328:.\uart_wifi.c **** 			 			break;
 694              		.loc 1 328 0
 695 00a4 2AE0     		b	.L62
 696              	.L74:
 330:.\uart_wifi.c **** 			    	giTDSBOARDDATALength = (giTDSBOARDDATALength<<8)+UartData;
 697              		.loc 1 330 0
 698 00a6 1A48     		ldr	r0, .L85+16
 699 00a8 0188     		ldrh	r1, [r0]
 700 00aa 0902     		lsl	r1, r1, #8
 701 00ac 5918     		add	r1, r3, r1
 702 00ae 89B2     		uxth	r1, r1
 703 00b0 0180     		strh	r1, [r0]
 331:.\uart_wifi.c ****     				if(giTDSBOARDDATALength>0)   // 
 704              		.loc 1 331 0
 705 00b2 0029     		cmp	r1, #0
 706 00b4 01D0     		beq	.L80
 333:.\uart_wifi.c ****       				  gctdsboardCommunState = TDSBOARD_RECEDATA;
 707              		.loc 1 333 0
 708 00b6 0B21     		mov	r1, #11
 709 00b8 00E0     		b	.L82
 710              	.L80:
 337:.\uart_wifi.c ****       				   gctdsboardCommunState = TDSBOARD_CHCK; 
 711              		.loc 1 337 0
 712 00ba 0A21     		mov	r1, #10
 713              	.L82:
 714 00bc 1170     		strb	r1, [r2]
 339:.\uart_wifi.c ****   			  	ATTdsReceBuffer[0].gcATReceTdsboardData[9]= UartData;
 715              		.loc 1 339 0
 716 00be 114A     		ldr	r2, .L85+4
 717 00c0 5372     		strb	r3, [r2, #9]
 340:.\uart_wifi.c **** 			 			break;
 718              		.loc 1 340 0
 719 00c2 1BE0     		b	.L62
 720              	.L75:
 342:.\uart_wifi.c **** 		    		if (ATTdsReceBuffer[0].gcATReceTdsboardCount<=TDSBUFLEN-10-1) 
 721              		.loc 1 342 0
 722 00c4 0F49     		ldr	r1, .L85+4
 723 00c6 C88B     		ldrh	r0, [r1, #30]
 724 00c8 1328     		cmp	r0, #19
 725 00ca B2D8     		bhi	.L77
 344:.\uart_wifi.c **** 		   			    ATTdsReceBuffer[0].gcATReceTdsboardData[10+ATTdsReceBuffer[0].gcATReceTdsboardCount]= U
 726              		.loc 1 344 0
ARM GAS  C:\Users\kevin\AppData\Local\Temp\ccrA27HJ.s 			page 21


 727 00cc 0818     		add	r0, r1, r0
 728 00ce 8372     		strb	r3, [r0, #10]
 345:.\uart_wifi.c **** 		      			ATTdsReceBuffer[0].gcATReceTdsboardCount = 0;
 729              		.loc 1 345 0
 730 00d0 0023     		mov	r3, #0
 731 00d2 CB83     		strh	r3, [r1, #30]
 346:.\uart_wifi.c **** 		      			gctdsboardCommunState = TDSBOARD_WAIT_SYN_0;
 732              		.loc 1 346 0
 733 00d4 1370     		strb	r3, [r2]
 347:.\uart_wifi.c **** 		      			WifiWorkFlag.gcReceComm2OK = 1;  // 数据成功接收完毕   				
 734              		.loc 1 347 0
 735 00d6 0F4B     		ldr	r3, .L85+20
 736 00d8 0221     		mov	r1, #2
 737 00da 1A78     		ldrb	r2, [r3]
 738 00dc 0A43     		orr	r2, r1
 739 00de 1A70     		strb	r2, [r3]
 740 00e0 0CE0     		b	.L62
 741              	.L84:
 356:.\uart_wifi.c **** 		    			{
 357:.\uart_wifi.c ****     			 			ATTdsReceBuffer[0].gcATReceTdsboardData[10+ATTdsReceBuffer[0].gcATReceTdsboardCount]= Ua
 742              		.loc 1 357 0
 743 00e2 0C18     		add	r4, r1, r0
 744 00e4 A372     		strb	r3, [r4, #10]
 358:.\uart_wifi.c ****     			    	ATTdsReceBuffer[0].gcATReceTdsboardCount++;
 359:.\uart_wifi.c ****                          if(ATTdsReceBuffer[0].gcATReceTdsboardCount == giTDSBOARDDATALength)
 745              		.loc 1 359 0
 746 00e6 0A4B     		ldr	r3, .L85+16
 358:.\uart_wifi.c ****     			    	ATTdsReceBuffer[0].gcATReceTdsboardCount++;
 747              		.loc 1 358 0
 748 00e8 0130     		add	r0, r0, #1
 749              		.loc 1 359 0
 750 00ea 1B88     		ldrh	r3, [r3]
 358:.\uart_wifi.c ****     			    	ATTdsReceBuffer[0].gcATReceTdsboardCount++;
 751              		.loc 1 358 0
 752 00ec 80B2     		uxth	r0, r0
 753 00ee C883     		strh	r0, [r1, #30]
 754              		.loc 1 359 0
 755 00f0 8342     		cmp	r3, r0
 756 00f2 03D1     		bne	.L62
 360:.\uart_wifi.c ****     				        {
 361:.\uart_wifi.c ****     				  	        gctdsboardCommunState = TDSBOARD_CHCK;
 757              		.loc 1 361 0
 758 00f4 0A23     		mov	r3, #10
 759 00f6 9DE7     		b	.L83
 760              	.L63:
 362:.\uart_wifi.c ****     				        }
 363:.\uart_wifi.c ****     			  	    }
 364:.\uart_wifi.c ****                         else
 365:.\uart_wifi.c ****                         {
 366:.\uart_wifi.c ****                            gctdsboardCommunState = TDSBOARD_WAIT_SYN_0; 
 367:.\uart_wifi.c ****                         }
 368:.\uart_wifi.c ****     			 	break;
 369:.\uart_wifi.c **** 		default:
 370:.\uart_wifi.c **** 			 	gctdsboardCommunState = TDSBOARD_WAIT_SYN_0;	
 761              		.loc 1 370 0
 762 00f8 0023     		mov	r3, #0
 763 00fa 0B70     		strb	r3, [r1]
ARM GAS  C:\Users\kevin\AppData\Local\Temp\ccrA27HJ.s 			page 22


 764              	.L62:
 371:.\uart_wifi.c **** 		}
 372:.\uart_wifi.c **** }
 765              		.loc 1 372 0
 766              		@ sp needed
 767 00fc 10BD     		pop	{r4, pc}
 768              	.L86:
 769 00fe C046     		.align	2
 770              	.L85:
 771 0100 00000000 		.word	gctdsboardCommunState
 772 0104 00000000 		.word	ATTdsReceBuffer
 773 0108 00000000 		.word	gcTDSBOARDCTL
 774 010c 00000000 		.word	giTDSBOARDCommand
 775 0110 00000000 		.word	giTDSBOARDDATALength
 776 0114 00000000 		.word	WifiWorkFlag
 777              		.cfi_endproc
 778              	.LFE38:
 779              		.size	LoadTDSBoardData, .-LoadTDSBoardData
 780              		.section	.text.UART_SendData,"ax",%progbits
 781              		.align	1
 782              		.global	UART_SendData
 783              		.code	16
 784              		.thumb_func
 785              		.type	UART_SendData, %function
 786              	UART_SendData:
 787              	.LFB39:
 373:.\uart_wifi.c **** /**************************************************************************************************
 374:.\uart_wifi.c **** ** 函数名称: void UART_SendData(unsigned char	 *data_buf,unsigned char	 count)
 375:.\uart_wifi.c **** ** 功能描述: 从串口发送数据
 376:.\uart_wifi.c **** ** 入口参数: data_buf:发送数据缓冲区首地址
 377:.\uart_wifi.c **** **			 count	:发送字节数
 378:.\uart_wifi.c **** ** 出口参数:	无
 379:.\uart_wifi.c **** ***************************************************************************************************
 380:.\uart_wifi.c **** void UART_SendData(uint8	 *data_buf,uint16 iCount)
 381:.\uart_wifi.c **** {
 788              		.loc 1 381 0
 789              		.cfi_startproc
 790              	.LVL45:
 382:.\uart_wifi.c **** 	WifidatagramWorkFlag.flag_Uart_Work = 1;                 //置正在通信标志
 791              		.loc 1 382 0
 792 0000 074B     		ldr	r3, .L88
 381:.\uart_wifi.c **** {
 793              		.loc 1 381 0
 794 0002 10B5     		push	{r4, lr}
 795              		.cfi_def_cfa_offset 8
 796              		.cfi_offset 4, -8
 797              		.cfi_offset 14, -4
 798              		.loc 1 382 0
 799 0004 1A78     		ldrb	r2, [r3]
 800 0006 0824     		mov	r4, #8
 801 0008 2243     		orr	r2, r4
 802 000a 1A70     		strb	r2, [r3]
 383:.\uart_wifi.c **** 
 384:.\uart_wifi.c **** 	iUartSendLen = iCount-1;
 803              		.loc 1 384 0
 804 000c 054B     		ldr	r3, .L88+4
 805 000e 0139     		sub	r1, r1, #1
ARM GAS  C:\Users\kevin\AppData\Local\Temp\ccrA27HJ.s 			page 23


 806              	.LVL46:
 807 0010 1980     		strh	r1, [r3]
 385:.\uart_wifi.c **** 	iSendCounter = 0;
 808              		.loc 1 385 0
 809 0012 054B     		ldr	r3, .L88+8
 810 0014 0022     		mov	r2, #0
 811 0016 1A80     		strh	r2, [r3]
 386:.\uart_wifi.c **** //  UART_UartPutChar(data_buf[0]);
 387:.\uart_wifi.c **** 	cpSendBufPtr = &data_buf[0];
 812              		.loc 1 387 0
 813 0018 044B     		ldr	r3, .L88+12
 388:.\uart_wifi.c **** }
 814              		.loc 1 388 0
 815              		@ sp needed
 387:.\uart_wifi.c **** 	cpSendBufPtr = &data_buf[0];
 816              		.loc 1 387 0
 817 001a 1860     		str	r0, [r3]
 818              		.loc 1 388 0
 819 001c 10BD     		pop	{r4, pc}
 820              	.L89:
 821 001e C046     		.align	2
 822              	.L88:
 823 0020 00000000 		.word	WifidatagramWorkFlag
 824 0024 00000000 		.word	iUartSendLen
 825 0028 00000000 		.word	iSendCounter
 826 002c 00000000 		.word	cpSendBufPtr
 827              		.cfi_endproc
 828              	.LFE39:
 829              		.size	UART_SendData, .-UART_SendData
 830              		.section	.text.Comm_Uart_0_PrintHex8,"ax",%progbits
 831              		.align	1
 832              		.global	Comm_Uart_0_PrintHex8
 833              		.code	16
 834              		.thumb_func
 835              		.type	Comm_Uart_0_PrintHex8, %function
 836              	Comm_Uart_0_PrintHex8:
 837              	.LFB40:
 389:.\uart_wifi.c **** /**************************************************************************************************
 390:.\uart_wifi.c **** ** 函数名称: void Comm_Uart_0_PrintHex8(uint8 value)
 391:.\uart_wifi.c **** ** 功能描述: 从串口发送数据
 392:.\uart_wifi.c **** ** 入口参数:	无
 393:.\uart_wifi.c **** ** 出口参数:	无
 394:.\uart_wifi.c **** ***************************************************************************************************
 395:.\uart_wifi.c **** void Comm_Uart_0_PrintHex8(uint8 value)
 396:.\uart_wifi.c **** {
 838              		.loc 1 396 0
 839              		.cfi_startproc
 840              	.LVL47:
 841              	.L92:
 397:.\uart_wifi.c ****     while(UART_0_FIFO_SIZE == UART_0_GET_TX_FIFO_ENTRIES);
 842              		.loc 1 397 0 discriminator 1
 843 0000 044B     		ldr	r3, .L93
 844 0002 1A68     		ldr	r2, [r3]
 845 0004 0F23     		mov	r3, #15
 846 0006 1340     		and	r3, r2
 847 0008 082B     		cmp	r3, #8
 848 000a F9D0     		beq	.L92
ARM GAS  C:\Users\kevin\AppData\Local\Temp\ccrA27HJ.s 			page 24


 398:.\uart_wifi.c ****     UART_0_TX_FIFO_WR_REG = (uint8)(value);
 849              		.loc 1 398 0
 850 000c 024B     		ldr	r3, .L93+4
 399:.\uart_wifi.c **** }
 851              		.loc 1 399 0
 852              		@ sp needed
 398:.\uart_wifi.c ****     UART_0_TX_FIFO_WR_REG = (uint8)(value);
 853              		.loc 1 398 0
 854 000e 1860     		str	r0, [r3]
 855              		.loc 1 399 0
 856 0010 7047     		bx	lr
 857              	.L94:
 858 0012 C046     		.align	2
 859              	.L93:
 860 0014 08020640 		.word	1074135560
 861 0018 40020640 		.word	1074135616
 862              		.cfi_endproc
 863              	.LFE40:
 864              		.size	Comm_Uart_0_PrintHex8, .-Comm_Uart_0_PrintHex8
 865              		.section	.text.Comm_Uart_1_PrintHex8,"ax",%progbits
 866              		.align	1
 867              		.global	Comm_Uart_1_PrintHex8
 868              		.code	16
 869              		.thumb_func
 870              		.type	Comm_Uart_1_PrintHex8, %function
 871              	Comm_Uart_1_PrintHex8:
 872              	.LFB41:
 400:.\uart_wifi.c **** /**************************************************************************************************
 401:.\uart_wifi.c **** ** 函数名称: void Comm_Uart_1_PrintHex8(uint8 value)
 402:.\uart_wifi.c **** ** 功能描述: 从串口发送数据
 403:.\uart_wifi.c **** ** 入口参数:	无
 404:.\uart_wifi.c **** ** 出口参数:	无
 405:.\uart_wifi.c **** ***************************************************************************************************
 406:.\uart_wifi.c **** void Comm_Uart_1_PrintHex8(uint8 value)
 407:.\uart_wifi.c **** {
 873              		.loc 1 407 0
 874              		.cfi_startproc
 875              	.LVL48:
 876              	.L97:
 408:.\uart_wifi.c ****     while(UART_1_FIFO_SIZE == UART_1_GET_TX_FIFO_ENTRIES);
 877              		.loc 1 408 0 discriminator 1
 878 0000 044B     		ldr	r3, .L98
 879 0002 1A68     		ldr	r2, [r3]
 880 0004 0F23     		mov	r3, #15
 881 0006 1340     		and	r3, r2
 882 0008 082B     		cmp	r3, #8
 883 000a F9D0     		beq	.L97
 409:.\uart_wifi.c ****     UART_1_TX_FIFO_WR_REG = (uint8)(value);
 884              		.loc 1 409 0
 885 000c 024B     		ldr	r3, .L98+4
 410:.\uart_wifi.c **** }
 886              		.loc 1 410 0
 887              		@ sp needed
 409:.\uart_wifi.c ****     UART_1_TX_FIFO_WR_REG = (uint8)(value);
 888              		.loc 1 409 0
 889 000e 1860     		str	r0, [r3]
 890              		.loc 1 410 0
ARM GAS  C:\Users\kevin\AppData\Local\Temp\ccrA27HJ.s 			page 25


 891 0010 7047     		bx	lr
 892              	.L99:
 893 0012 C046     		.align	2
 894              	.L98:
 895 0014 08020740 		.word	1074201096
 896 0018 40020740 		.word	1074201152
 897              		.cfi_endproc
 898              	.LFE41:
 899              		.size	Comm_Uart_1_PrintHex8, .-Comm_Uart_1_PrintHex8
 900              		.section	.text.Uart_0_Putchar,"ax",%progbits
 901              		.align	1
 902              		.global	Uart_0_Putchar
 903              		.code	16
 904              		.thumb_func
 905              		.type	Uart_0_Putchar, %function
 906              	Uart_0_Putchar:
 907              	.LFB42:
 411:.\uart_wifi.c **** /**************************************************************************************************
 412:.\uart_wifi.c **** ** 函数名称: void UART_putchar(void)
 413:.\uart_wifi.c **** ** 功能描述: 从串口发送数据
 414:.\uart_wifi.c **** ** 入口参数:	无
 415:.\uart_wifi.c **** ** 出口参数:	无
 416:.\uart_wifi.c **** ***************************************************************************************************
 417:.\uart_wifi.c **** void Uart_0_Putchar(void)
 418:.\uart_wifi.c **** {
 908              		.loc 1 418 0
 909              		.cfi_startproc
 910 0000 08B5     		push	{r3, lr}
 911              		.cfi_def_cfa_offset 8
 912              		.cfi_offset 3, -8
 913              		.cfi_offset 14, -4
 419:.\uart_wifi.c **** 	if(WorkFlag.uart_0_tx!=0)
 914              		.loc 1 419 0
 915 0002 0C4B     		ldr	r3, .L106
 916 0004 9B78     		ldrb	r3, [r3, #2]
 917 0006 DB09     		lsr	r3, r3, #7
 918 0008 12D0     		beq	.L100
 420:.\uart_wifi.c **** 		{
 421:.\uart_wifi.c **** 			if(iSendCounter!=(iUartSendLen+1))
 919              		.loc 1 421 0
 920 000a 0B49     		ldr	r1, .L106+4
 921 000c 0B4A     		ldr	r2, .L106+8
 922 000e 0988     		ldrh	r1, [r1]
 923 0010 1388     		ldrh	r3, [r2]
 924 0012 0131     		add	r1, r1, #1
 925 0014 8B42     		cmp	r3, r1
 926 0016 06D0     		beq	.L102
 422:.\uart_wifi.c **** 			{
 423:.\uart_wifi.c ****           Comm_Uart_0_PrintHex8(cpSendBufPtr[iSendCounter++]);
 927              		.loc 1 423 0
 928 0018 0949     		ldr	r1, .L106+12
 929 001a 581C     		add	r0, r3, #1
 930 001c 0968     		ldr	r1, [r1]
 931 001e 1080     		strh	r0, [r2]
 932 0020 C85C     		ldrb	r0, [r1, r3]
 933 0022 FFF7FEFF 		bl	Comm_Uart_0_PrintHex8
 934              	.LVL49:
ARM GAS  C:\Users\kevin\AppData\Local\Temp\ccrA27HJ.s 			page 26


 935              	.L102:
 424:.\uart_wifi.c **** 	    }
 425:.\uart_wifi.c **** 
 426:.\uart_wifi.c **** 	    WifidatagramWorkFlag.flag_Uart_Work = 0;                 //置正在通信标志
 936              		.loc 1 426 0
 937 0026 074B     		ldr	r3, .L106+16
 938 0028 0821     		mov	r1, #8
 939 002a 1A78     		ldrb	r2, [r3]
 940 002c 8A43     		bic	r2, r1
 941 002e 1A70     		strb	r2, [r3]
 942              	.L100:
 427:.\uart_wifi.c **** 	  }
 428:.\uart_wifi.c ****  
 429:.\uart_wifi.c **** }
 943              		.loc 1 429 0
 944              		@ sp needed
 945 0030 08BD     		pop	{r3, pc}
 946              	.L107:
 947 0032 C046     		.align	2
 948              	.L106:
 949 0034 00000000 		.word	WorkFlag
 950 0038 00000000 		.word	iUartSendLen
 951 003c 00000000 		.word	iSendCounter
 952 0040 00000000 		.word	cpSendBufPtr
 953 0044 00000000 		.word	WifidatagramWorkFlag
 954              		.cfi_endproc
 955              	.LFE42:
 956              		.size	Uart_0_Putchar, .-Uart_0_Putchar
 957              		.section	.text.Uart_1_Putchar,"ax",%progbits
 958              		.align	1
 959              		.global	Uart_1_Putchar
 960              		.code	16
 961              		.thumb_func
 962              		.type	Uart_1_Putchar, %function
 963              	Uart_1_Putchar:
 964              	.LFB43:
 430:.\uart_wifi.c **** /**************************************************************************************************
 431:.\uart_wifi.c **** ** 函数名称: void UART_putchar(void)
 432:.\uart_wifi.c **** ** 功能描述: 从串口发送数据
 433:.\uart_wifi.c **** ** 入口参数:	无
 434:.\uart_wifi.c **** ** 出口参数:	无
 435:.\uart_wifi.c **** ***************************************************************************************************
 436:.\uart_wifi.c **** void Uart_1_Putchar(void)
 437:.\uart_wifi.c **** {
 965              		.loc 1 437 0
 966              		.cfi_startproc
 438:.\uart_wifi.c ****     if(WorkFlag.uart_1_tx!=0)  //接收非空
 439:.\uart_wifi.c ****         {
 440:.\uart_wifi.c **** //        	while(iSendCounter!=(iUartSendLen+1))
 441:.\uart_wifi.c **** //						{
 442:.\uart_wifi.c **** // 							Comm_Uart_1_PrintHex8(cpSendBufPtr[iSendCounter++]);
 443:.\uart_wifi.c **** //        		}
 444:.\uart_wifi.c ****         }
 445:.\uart_wifi.c **** }
 967              		.loc 1 445 0
 968              		@ sp needed
 969 0000 7047     		bx	lr
ARM GAS  C:\Users\kevin\AppData\Local\Temp\ccrA27HJ.s 			page 27


 970              		.cfi_endproc
 971              	.LFE43:
 972              		.size	Uart_1_Putchar, .-Uart_1_Putchar
 973              		.section	.text.SendDataToWifi,"ax",%progbits
 974              		.align	1
 975              		.global	SendDataToWifi
 976              		.code	16
 977              		.thumb_func
 978              		.type	SendDataToWifi, %function
 979              	SendDataToWifi:
 980              	.LFB44:
 446:.\uart_wifi.c **** /*
 447:.\uart_wifi.c **** ***************************************************************************************************
 448:.\uart_wifi.c **** ** 函数名称 ：SendDataToWifi()
 449:.\uart_wifi.c **** ** 函数功能 ：发送数据到WIFI模块                          
 450:.\uart_wifi.c **** ** 入口参数 ：cCtl：控制字类型 
 451:.\uart_wifi.c ****   							0x00(主动发送指令要求对方回复) 
 452:.\uart_wifi.c ****   							0x80(返回指令) 
 453:.\uart_wifi.c ****   							0x40(主动发送无需对方回复)
 454:.\uart_wifi.c ****               unsigned char  *DataBuf  数据缓存区            
 455:.\uart_wifi.c ****               unsigned int   iLength   数据长度          
 456:.\uart_wifi.c **** ** 出口参数 ：无
 457:.\uart_wifi.c **** ***************************************************************************************************
 458:.\uart_wifi.c **** */
 459:.\uart_wifi.c **** void  SendDataToWifi(uint8 cCtl,
 460:.\uart_wifi.c ****                       uint16 cCommand,
 461:.\uart_wifi.c ****                      uint8 *DataBuf,
 462:.\uart_wifi.c **** 		     							uint16 iLength)
 463:.\uart_wifi.c **** {
 981              		.loc 1 463 0
 982              		.cfi_startproc
 983              	.LVL50:
 984 0000 F7B5     		push	{r0, r1, r2, r4, r5, r6, r7, lr}
 985              		.cfi_def_cfa_offset 32
 986              		.cfi_offset 0, -32
 987              		.cfi_offset 1, -28
 988              		.cfi_offset 2, -24
 989              		.cfi_offset 4, -20
 990              		.cfi_offset 5, -16
 991              		.cfi_offset 6, -12
 992              		.cfi_offset 7, -8
 993              		.cfi_offset 14, -4
 464:.\uart_wifi.c ****  
 465:.\uart_wifi.c ****     //uint32 xxxxx;
 466:.\uart_wifi.c ****     static uint8 cBuf[WIFIBUFLEN]; ////51 has only 256 data in soc
 467:.\uart_wifi.c **** 
 468:.\uart_wifi.c **** 
 469:.\uart_wifi.c ****     memset(cBuf,0x00,WIFIBUFLEN);
 994              		.loc 1 469 0
 995 0002 284C     		ldr	r4, .L114
 463:.\uart_wifi.c **** {
 996              		.loc 1 463 0
 997 0004 0F1C     		mov	r7, r1
 998 0006 061C     		mov	r6, r0
 999 0008 0192     		str	r2, [sp, #4]
 1000              		.loc 1 469 0
 1001 000a 201C     		mov	r0, r4
ARM GAS  C:\Users\kevin\AppData\Local\Temp\ccrA27HJ.s 			page 28


 1002              	.LVL51:
 1003 000c 0021     		mov	r1, #0
 1004              	.LVL52:
 1005 000e 6422     		mov	r2, #100
 1006              	.LVL53:
 463:.\uart_wifi.c **** {
 1007              		.loc 1 463 0
 1008 0010 1D1C     		mov	r5, r3
 1009              		.loc 1 469 0
 1010 0012 FFF7FEFF 		bl	memset
 1011              	.LVL54:
 470:.\uart_wifi.c ****     cBuf[0] = WIFI_SYN_0;        	     // SYNC0
 1012              		.loc 1 470 0
 1013 0016 FA23     		mov	r3, #250
 1014 0018 2370     		strb	r3, [r4]
 471:.\uart_wifi.c ****     cBuf[1] = WIFI_SYN_1;        	     // SYNC1
 1015              		.loc 1 471 0
 1016 001a FB23     		mov	r3, #251
 1017 001c 6370     		strb	r3, [r4, #1]
 472:.\uart_wifi.c ****     cBuf[2] = WIFI_PROTOCOL_VERSION;   //MCU_PROTOCOL_VERSION       
 473:.\uart_wifi.c ****     cBuf[3] = DATA_FRAME_EQUE_0;   //FRAME_EQUE_0       
 474:.\uart_wifi.c ****     cBuf[4]= DATA_FRAME_NUM_EQUE_0;//帧需要
 475:.\uart_wifi.c ****     cBuf[5] = cCtl;   	 // Wctrl
 476:.\uart_wifi.c ****     cBuf[6]=(cCommand)>>8;//长度0
 1018              		.loc 1 476 0
 1019 001e 3B0A     		lsr	r3, r7, #8
 1020 0020 A371     		strb	r3, [r4, #6]
 477:.\uart_wifi.c ****     cBuf[7]=(cCommand)&0x00ff;//长度1	  cBuf[8]=(iLength)>>8;//长度0
 478:.\uart_wifi.c ****     cBuf[8]=(iLength)>>8;//长度0
 1021              		.loc 1 478 0
 1022 0022 2B0A     		lsr	r3, r5, #8
 477:.\uart_wifi.c ****     cBuf[7]=(cCommand)&0x00ff;//长度1	  cBuf[8]=(iLength)>>8;//长度0
 1023              		.loc 1 477 0
 1024 0024 E771     		strb	r7, [r4, #7]
 475:.\uart_wifi.c ****     cBuf[5] = cCtl;   	 // Wctrl
 1025              		.loc 1 475 0
 1026 0026 6671     		strb	r6, [r4, #5]
 1027              		.loc 1 478 0
 1028 0028 2372     		strb	r3, [r4, #8]
 479:.\uart_wifi.c ****     cBuf[9]=(iLength)&0x00ff;//长度1
 1029              		.loc 1 479 0
 1030 002a 6572     		strb	r5, [r4, #9]
 1031 002c 1E4F     		ldr	r7, .L114+4
 480:.\uart_wifi.c ****     //cBuf[iLength+10]=0x44;
 481:.\uart_wifi.c ****     if(cCtl==0x00)
 1032              		.loc 1 481 0
 1033 002e 002E     		cmp	r6, #0
 1034 0030 0AD1     		bne	.L110
 482:.\uart_wifi.c ****     {
 483:.\uart_wifi.c ****     	WifidatagramWorkFlag.uart_ack=1;
 1035              		.loc 1 483 0
 1036 0032 3B78     		ldrb	r3, [r7]
 1037 0034 0422     		mov	r2, #4
 1038 0036 1343     		orr	r3, r2
 1039 0038 3B70     		strb	r3, [r7]
 484:.\uart_wifi.c ****     	Ack_Timer = 70; 
 1040              		.loc 1 484 0
ARM GAS  C:\Users\kevin\AppData\Local\Temp\ccrA27HJ.s 			page 29


 1041 003a 1C4B     		ldr	r3, .L114+8
 1042 003c 4622     		mov	r2, #70
 1043 003e 1A70     		strb	r2, [r3]
 485:.\uart_wifi.c ****     	Send_Interval_Counter=10;  
 1044              		.loc 1 485 0
 1045 0040 1B4B     		ldr	r3, .L114+12
 1046 0042 0A22     		mov	r2, #10
 1047 0044 1A70     		strb	r2, [r3]
 1048 0046 08E0     		b	.L111
 1049              	.L110:
 486:.\uart_wifi.c ****     }
 487:.\uart_wifi.c ****     if(cCtl==0x80)
 1050              		.loc 1 487 0
 1051 0048 802E     		cmp	r6, #128
 1052 004a 06D1     		bne	.L111
 488:.\uart_wifi.c ****     {
 489:.\uart_wifi.c ****     	Cmd_Function_Num=0;	
 1053              		.loc 1 489 0
 1054 004c 194B     		ldr	r3, .L114+16
 1055 004e 0022     		mov	r2, #0
 1056 0050 1A70     		strb	r2, [r3]
 490:.\uart_wifi.c ****     	WifidatagramWorkFlag.uart_ack=0;
 1057              		.loc 1 490 0
 1058 0052 3B78     		ldrb	r3, [r7]
 1059 0054 0422     		mov	r2, #4
 1060 0056 9343     		bic	r3, r2
 1061 0058 3B70     		strb	r3, [r7]
 1062              	.L111:
 491:.\uart_wifi.c **** 
 492:.\uart_wifi.c ****     }
 493:.\uart_wifi.c ****     if(iLength!=0)
 494:.\uart_wifi.c ****     {
 495:.\uart_wifi.c ****         memcpy(&cBuf[10],DataBuf,iLength);
 1063              		.loc 1 495 0
 1064 005a 201C     		mov	r0, r4
 493:.\uart_wifi.c ****     if(iLength!=0)
 1065              		.loc 1 493 0
 1066 005c 002D     		cmp	r5, #0
 1067 005e 0DD0     		beq	.L112
 1068              		.loc 1 495 0
 1069 0060 0199     		ldr	r1, [sp, #4]
 1070 0062 2A1C     		mov	r2, r5
 1071 0064 0A30     		add	r0, r0, #10
 1072 0066 FFF7FEFF 		bl	memcpy
 1073              	.LVL55:
 496:.\uart_wifi.c ****         cBuf[iLength+10] = Sum_Make_Verify(&cBuf[0],10+iLength);
 1074              		.loc 1 496 0
 1075 006a 291C     		mov	r1, r5
 1076 006c 0A31     		add	r1, r1, #10
 1077 006e 89B2     		uxth	r1, r1
 1078 0070 201C     		mov	r0, r4
 1079 0072 FFF7FEFF 		bl	Sum_Make_Verify
 1080              	.LVL56:
 1081 0076 6319     		add	r3, r4, r5
 1082 0078 9872     		strb	r0, [r3, #10]
 1083 007a 03E0     		b	.L113
 1084              	.L112:
ARM GAS  C:\Users\kevin\AppData\Local\Temp\ccrA27HJ.s 			page 30


 497:.\uart_wifi.c ****         //cBuf[iLength+10]=0x88;
 498:.\uart_wifi.c ****     }
 499:.\uart_wifi.c ****     else
 500:.\uart_wifi.c ****     {
 501:.\uart_wifi.c ****         cBuf[iLength+10] = Sum_Make_Verify(&cBuf[0],10);	
 1085              		.loc 1 501 0
 1086 007c 0A21     		mov	r1, #10
 1087 007e FFF7FEFF 		bl	Sum_Make_Verify
 1088              	.LVL57:
 1089 0082 A072     		strb	r0, [r4, #10]
 1090              	.L113:
 502:.\uart_wifi.c ****         
 503:.\uart_wifi.c ****     }
 504:.\uart_wifi.c **** 		WifidatagramWorkFlag.flag_Uart_Work=1; 
 1091              		.loc 1 504 0
 1092 0084 3B78     		ldrb	r3, [r7]
 1093 0086 0822     		mov	r2, #8
 1094 0088 1343     		orr	r3, r2
 1095 008a 3B70     		strb	r3, [r7]
 505:.\uart_wifi.c ****     CyGlobalIntDisable;                  //应答时间设置
 1096              		.loc 1 505 0
 1097              	@ 505 ".\uart_wifi.c" 1
 1098 008c 72B6     		CPSID   i
 1099              	@ 0 "" 2
 506:.\uart_wifi.c ****     UART_SendData(cBuf,iLength+11);   ///The Last six 0x00 is PADDING
 1100              		.loc 1 506 0
 1101              		.code	16
 1102 008e 0B35     		add	r5, r5, #11
 1103 0090 A9B2     		uxth	r1, r5
 1104 0092 201C     		mov	r0, r4
 1105 0094 FFF7FEFF 		bl	UART_SendData
 1106              	.LVL58:
 507:.\uart_wifi.c ****     CyGlobalIntEnable;
 1107              		.loc 1 507 0
 1108              	@ 507 ".\uart_wifi.c" 1
 1109 0098 62B6     		CPSIE   i
 1110              	@ 0 "" 2
 508:.\uart_wifi.c ****     TestPort_Write(0); 
 1111              		.loc 1 508 0
 1112              		.code	16
 1113 009a 0020     		mov	r0, #0
 1114 009c FFF7FEFF 		bl	TestPort_Write
 1115              	.LVL59:
 509:.\uart_wifi.c **** }
 1116              		.loc 1 509 0
 1117              		@ sp needed
 1118 00a0 F7BD     		pop	{r0, r1, r2, r4, r5, r6, r7, pc}
 1119              	.L115:
 1120 00a2 C046     		.align	2
 1121              	.L114:
 1122 00a4 00000000 		.word	.LANCHOR3
 1123 00a8 00000000 		.word	WifidatagramWorkFlag
 1124 00ac 00000000 		.word	Ack_Timer
 1125 00b0 00000000 		.word	Send_Interval_Counter
 1126 00b4 00000000 		.word	Cmd_Function_Num
 1127              		.cfi_endproc
 1128              	.LFE44:
ARM GAS  C:\Users\kevin\AppData\Local\Temp\ccrA27HJ.s 			page 31


 1129              		.size	SendDataToWifi, .-SendDataToWifi
 1130              		.section	.text.Mcu_Handshake_Data,"ax",%progbits
 1131              		.align	1
 1132              		.global	Mcu_Handshake_Data
 1133              		.code	16
 1134              		.thumb_func
 1135              		.type	Mcu_Handshake_Data, %function
 1136              	Mcu_Handshake_Data:
 1137              	.LFB45:
 510:.\uart_wifi.c **** 
 511:.\uart_wifi.c **** 
 512:.\uart_wifi.c **** /*
 513:.\uart_wifi.c **** 	========================================================================
 514:.\uart_wifi.c **** ** 函数名称 ：JoinWIFI()
 515:.\uart_wifi.c **** ** 函数功能 ：连接WIFI模块                          
 516:.\uart_wifi.c **** ** 入口参数 ：
 517:.\uart_wifi.c **** 		    cIdx: The group Number
 518:.\uart_wifi.c **** 		    AckFlag:  1 Need wifi model send ack, 0 is not         
 519:.\uart_wifi.c **** ** 出口参数 ：无
 520:.\uart_wifi.c **** 	========================================================================
 521:.\uart_wifi.c **** */
 522:.\uart_wifi.c **** void Mcu_Handshake_Data(void)
 523:.\uart_wifi.c **** {
 1138              		.loc 1 523 0
 1139              		.cfi_startproc
 1140 0000 07B5     		push	{r0, r1, r2, lr}
 1141              		.cfi_def_cfa_offset 16
 1142              		.cfi_offset 0, -16
 1143              		.cfi_offset 1, -12
 1144              		.cfi_offset 2, -8
 1145              		.cfi_offset 14, -4
 524:.\uart_wifi.c ****    uint8 cBuf[6];
 525:.\uart_wifi.c ****    cBuf[0]=0x20;  ////13t450b
 1146              		.loc 1 525 0
 1147 0002 2023     		mov	r3, #32
 1148 0004 6A46     		mov	r2, sp
 1149 0006 1370     		strb	r3, [r2]
 526:.\uart_wifi.c ****    cBuf[1]=0x01;
 1150              		.loc 1 526 0
 1151 0008 0123     		mov	r3, #1
 1152 000a 5370     		strb	r3, [r2, #1]
 527:.\uart_wifi.c ****    cBuf[2]=0x00;  ////Command
 528:.\uart_wifi.c ****    cBuf[3]=PRODUCT_FIRMWARE;
 1153              		.loc 1 528 0
 1154 000c D370     		strb	r3, [r2, #3]
 529:.\uart_wifi.c ****    cBuf[4]=0x00;  ////Command
 530:.\uart_wifi.c ****    cBuf[5]=0x80;   
 1155              		.loc 1 530 0
 1156 000e 8023     		mov	r3, #128
 527:.\uart_wifi.c ****    cBuf[2]=0x00;  ////Command
 1157              		.loc 1 527 0
 1158 0010 0020     		mov	r0, #0
 1159              		.loc 1 530 0
 1160 0012 5371     		strb	r3, [r2, #5]
 531:.\uart_wifi.c ****    SendDataToWifi(CTL_ACK_DATA,MCU_HANDSHAKE_DATA,cBuf,6);
 1161              		.loc 1 531 0
 1162 0014 0349     		ldr	r1, .L117
ARM GAS  C:\Users\kevin\AppData\Local\Temp\ccrA27HJ.s 			page 32


 1163 0016 0623     		mov	r3, #6
 527:.\uart_wifi.c ****    cBuf[2]=0x00;  ////Command
 1164              		.loc 1 527 0
 1165 0018 9070     		strb	r0, [r2, #2]
 529:.\uart_wifi.c ****    cBuf[4]=0x00;  ////Command
 1166              		.loc 1 529 0
 1167 001a 1071     		strb	r0, [r2, #4]
 532:.\uart_wifi.c **** }
 1168              		.loc 1 532 0
 1169              		@ sp needed
 531:.\uart_wifi.c ****    SendDataToWifi(CTL_ACK_DATA,MCU_HANDSHAKE_DATA,cBuf,6);
 1170              		.loc 1 531 0
 1171 001c FFF7FEFF 		bl	SendDataToWifi
 1172              	.LVL60:
 1173              		.loc 1 532 0
 1174 0020 07BD     		pop	{r0, r1, r2, pc}
 1175              	.L118:
 1176 0022 C046     		.align	2
 1177              	.L117:
 1178 0024 C0CC0000 		.word	52416
 1179              		.cfi_endproc
 1180              	.LFE45:
 1181              		.size	Mcu_Handshake_Data, .-Mcu_Handshake_Data
 1182              		.section	.text.App_Host_State,"ax",%progbits
 1183              		.align	1
 1184              		.global	App_Host_State
 1185              		.code	16
 1186              		.thumb_func
 1187              		.type	App_Host_State, %function
 1188              	App_Host_State:
 1189              	.LFB46:
 533:.\uart_wifi.c **** /*
 534:.\uart_wifi.c **** 	========================================================================
 535:.\uart_wifi.c **** ** 函数名称 APP_HOST_STATE()
 536:.\uart_wifi.c **** ** 函数功能 ：连接WIFI模块                          
 537:.\uart_wifi.c **** ** 入口参数 ：         
 538:.\uart_wifi.c **** ** 出口参数 ：无
 539:.\uart_wifi.c **** 	========================================================================
 540:.\uart_wifi.c **** */
 541:.\uart_wifi.c **** void App_Host_State(void)
 542:.\uart_wifi.c **** {
 1190              		.loc 1 542 0
 1191              		.cfi_startproc
 1192 0000 1FB5     		push	{r0, r1, r2, r3, r4, lr}
 1193              		.cfi_def_cfa_offset 24
 1194              		.cfi_offset 0, -24
 1195              		.cfi_offset 1, -20
 1196              		.cfi_offset 2, -16
 1197              		.cfi_offset 3, -12
 1198              		.cfi_offset 4, -8
 1199              		.cfi_offset 14, -4
 543:.\uart_wifi.c ****     uint8 cBuf[16];
 544:.\uart_wifi.c ****     cBuf[0]=0x00;  
 1200              		.loc 1 544 0
 1201 0002 0023     		mov	r3, #0
 1202 0004 6946     		mov	r1, sp
 1203 0006 0B70     		strb	r3, [r1]
ARM GAS  C:\Users\kevin\AppData\Local\Temp\ccrA27HJ.s 			page 33


 545:.\uart_wifi.c ****     cBuf[1]=0x00;//ok
 1204              		.loc 1 545 0
 1205 0008 4B70     		strb	r3, [r1, #1]
 546:.\uart_wifi.c ****     cBuf[2]=Work_State.all; //01待机 02制水中 03制水完成 04 冲洗
 1206              		.loc 1 546 0
 1207 000a 194B     		ldr	r3, .L120
 1208 000c 1B78     		ldrb	r3, [r3]
 1209 000e 8B70     		strb	r3, [r1, #2]
 547:.\uart_wifi.c ****     cBuf[3]=0x06; 	//滤芯级数	1	U8 (总级数)
 1210              		.loc 1 547 0
 1211 0010 0623     		mov	r3, #6
 1212 0012 CB70     		strb	r3, [r1, #3]
 548:.\uart_wifi.c ****     cBuf[4]=Error_Counter;   
 1213              		.loc 1 548 0
 1214 0014 174B     		ldr	r3, .L120+4
 1215 0016 1B78     		ldrb	r3, [r3]
 1216 0018 0B71     		strb	r3, [r1, #4]
 549:.\uart_wifi.c ****     cBuf[5]=LianXuJiShi/600;  //工作状态	1	U8 见注2
 1217              		.loc 1 549 0
 1218 001a 174B     		ldr	r3, .L120+8
 1219 001c 9621     		mov	r1, #150
 1220 001e 1868     		ldr	r0, [r3]
 1221 0020 8900     		lsl	r1, r1, #2
 1222 0022 FFF7FEFF 		bl	__aeabi_uidiv
 1223              	.LVL61:
 550:.\uart_wifi.c ****     cBuf[6]=jingshuiliang>>8; //总净水量	2	U16(现在总净水量)
 1224              		.loc 1 550 0
 1225 0026 154B     		ldr	r3, .L120+12
 1226 0028 6946     		mov	r1, sp
 1227 002a 1B88     		ldrh	r3, [r3]
 549:.\uart_wifi.c ****     cBuf[5]=LianXuJiShi/600;  //工作状态	1	U8 见注2
 1228              		.loc 1 549 0
 1229 002c 6A46     		mov	r2, sp
 1230 002e 5071     		strb	r0, [r2, #5]
 551:.\uart_wifi.c ****     cBuf[7]=jingshuiliang; 
 1231              		.loc 1 551 0
 1232 0030 CB71     		strb	r3, [r1, #7]
 550:.\uart_wifi.c ****     cBuf[6]=jingshuiliang>>8; //总净水量	2	U16(现在总净水量)
 1233              		.loc 1 550 0
 1234 0032 1A0A     		lsr	r2, r3, #8
 552:.\uart_wifi.c ****     cBuf[8]=(Value_Tds0>>8); //TDS(原水)	2	U16(实际TDS值)
 1235              		.loc 1 552 0
 1236 0034 124B     		ldr	r3, .L120+16
 550:.\uart_wifi.c ****     cBuf[6]=jingshuiliang>>8; //总净水量	2	U16(现在总净水量)
 1237              		.loc 1 550 0
 1238 0036 8A71     		strb	r2, [r1, #6]
 1239              		.loc 1 552 0
 1240 0038 1B88     		ldrh	r3, [r3]
 553:.\uart_wifi.c ****     cBuf[9]=Value_Tds0;
 554:.\uart_wifi.c ****     cBuf[10]=(Value_Tds1_bak>>8); //TDS(净水)	2	U16(实际TDS值)
 555:.\uart_wifi.c ****     cBuf[11]=Value_Tds1_bak; 
 556:.\uart_wifi.c ****     cBuf[12]=Value_T; //温度	1	U8(实际温度值 
 557:.\uart_wifi.c ****     cBuf[13]=(Value_Loushui_Ad>>8); //漏水	2	U16(实际AD值)
 558:.\uart_wifi.c ****     cBuf[14]=Value_Loushui_Ad; 
 559:.\uart_wifi.c ****     cBuf[15]=Switch_Data.all; //高、低压开关状态	1	U8 见注    
 560:.\uart_wifi.c ****     SendDataToWifi(ACK_DATA,APP_HOST_STATE,cBuf,16);
 1241              		.loc 1 560 0
ARM GAS  C:\Users\kevin\AppData\Local\Temp\ccrA27HJ.s 			page 34


 1242 003a 8020     		mov	r0, #128
 552:.\uart_wifi.c ****     cBuf[8]=(Value_Tds0>>8); //TDS(原水)	2	U16(实际TDS值)
 1243              		.loc 1 552 0
 1244 003c 1A0A     		lsr	r2, r3, #8
 553:.\uart_wifi.c ****     cBuf[9]=Value_Tds0;
 1245              		.loc 1 553 0
 1246 003e 4B72     		strb	r3, [r1, #9]
 554:.\uart_wifi.c ****     cBuf[10]=(Value_Tds1_bak>>8); //TDS(净水)	2	U16(实际TDS值)
 1247              		.loc 1 554 0
 1248 0040 104B     		ldr	r3, .L120+20
 552:.\uart_wifi.c ****     cBuf[8]=(Value_Tds0>>8); //TDS(原水)	2	U16(实际TDS值)
 1249              		.loc 1 552 0
 1250 0042 0A72     		strb	r2, [r1, #8]
 554:.\uart_wifi.c ****     cBuf[10]=(Value_Tds1_bak>>8); //TDS(净水)	2	U16(实际TDS值)
 1251              		.loc 1 554 0
 1252 0044 1B88     		ldrh	r3, [r3]
 1253 0046 1A0A     		lsr	r2, r3, #8
 555:.\uart_wifi.c ****     cBuf[11]=Value_Tds1_bak; 
 1254              		.loc 1 555 0
 1255 0048 CB72     		strb	r3, [r1, #11]
 556:.\uart_wifi.c ****     cBuf[12]=Value_T; //温度	1	U8(实际温度值 
 1256              		.loc 1 556 0
 1257 004a 0F4B     		ldr	r3, .L120+24
 554:.\uart_wifi.c ****     cBuf[10]=(Value_Tds1_bak>>8); //TDS(净水)	2	U16(实际TDS值)
 1258              		.loc 1 554 0
 1259 004c 8A72     		strb	r2, [r1, #10]
 556:.\uart_wifi.c ****     cBuf[12]=Value_T; //温度	1	U8(实际温度值 
 1260              		.loc 1 556 0
 1261 004e 1B78     		ldrb	r3, [r3]
 1262 0050 0B73     		strb	r3, [r1, #12]
 557:.\uart_wifi.c ****     cBuf[13]=(Value_Loushui_Ad>>8); //漏水	2	U16(实际AD值)
 1263              		.loc 1 557 0
 1264 0052 0E4B     		ldr	r3, .L120+28
 1265 0054 1B88     		ldrh	r3, [r3]
 1266 0056 1A0A     		lsr	r2, r3, #8
 558:.\uart_wifi.c ****     cBuf[14]=Value_Loushui_Ad; 
 1267              		.loc 1 558 0
 1268 0058 8B73     		strb	r3, [r1, #14]
 559:.\uart_wifi.c ****     cBuf[15]=Switch_Data.all; //高、低压开关状态	1	U8 见注    
 1269              		.loc 1 559 0
 1270 005a 0D4B     		ldr	r3, .L120+32
 557:.\uart_wifi.c ****     cBuf[13]=(Value_Loushui_Ad>>8); //漏水	2	U16(实际AD值)
 1271              		.loc 1 557 0
 1272 005c 4A73     		strb	r2, [r1, #13]
 559:.\uart_wifi.c ****     cBuf[15]=Switch_Data.all; //高、低压开关状态	1	U8 见注    
 1273              		.loc 1 559 0
 1274 005e 1B78     		ldrb	r3, [r3]
 1275              		.loc 1 560 0
 1276 0060 6A46     		mov	r2, sp
 559:.\uart_wifi.c ****     cBuf[15]=Switch_Data.all; //高、低压开关状态	1	U8 见注    
 1277              		.loc 1 559 0
 1278 0062 CB73     		strb	r3, [r1, #15]
 1279              		.loc 1 560 0
 1280 0064 B221     		mov	r1, #178
 1281 0066 1023     		mov	r3, #16
 1282 0068 FFF7FEFF 		bl	SendDataToWifi
 1283              	.LVL62:
ARM GAS  C:\Users\kevin\AppData\Local\Temp\ccrA27HJ.s 			page 35


 561:.\uart_wifi.c **** }
 1284              		.loc 1 561 0
 1285 006c 05B0     		add	sp, sp, #20
 1286              		@ sp needed
 1287 006e 00BD     		pop	{pc}
 1288              	.L121:
 1289              		.align	2
 1290              	.L120:
 1291 0070 00000000 		.word	Work_State
 1292 0074 00000000 		.word	Error_Counter
 1293 0078 00000000 		.word	LianXuJiShi
 1294 007c 00000000 		.word	jingshuiliang
 1295 0080 00000000 		.word	Value_Tds0
 1296 0084 00000000 		.word	Value_Tds1_bak
 1297 0088 00000000 		.word	Value_T
 1298 008c 00000000 		.word	Value_Loushui_Ad
 1299 0090 00000000 		.word	Switch_Data
 1300              		.cfi_endproc
 1301              	.LFE46:
 1302              		.size	App_Host_State, .-App_Host_State
 1303              		.section	.text.App_Filter_Changed_Data,"ax",%progbits
 1304              		.align	1
 1305              		.global	App_Filter_Changed_Data
 1306              		.code	16
 1307              		.thumb_func
 1308              		.type	App_Filter_Changed_Data, %function
 1309              	App_Filter_Changed_Data:
 1310              	.LFB47:
 562:.\uart_wifi.c **** void App_Filter_Changed_Data(void)
 563:.\uart_wifi.c **** {
 1311              		.loc 1 563 0
 1312              		.cfi_startproc
 1313 0000 1FB5     		push	{r0, r1, r2, r3, r4, lr}
 1314              		.cfi_def_cfa_offset 24
 1315              		.cfi_offset 0, -24
 1316              		.cfi_offset 1, -20
 1317              		.cfi_offset 2, -16
 1318              		.cfi_offset 3, -12
 1319              		.cfi_offset 4, -8
 1320              		.cfi_offset 14, -4
 564:.\uart_wifi.c **** 	uint8 cBuf[9];
 565:.\uart_wifi.c **** 	cBuf[0]=0x00;  
 1321              		.loc 1 565 0
 1322 0002 0023     		mov	r3, #0
 1323 0004 01AA     		add	r2, sp, #4
 1324 0006 1370     		strb	r3, [r2]
 566:.\uart_wifi.c **** 	cBuf[1]=0x00;//ok
 1325              		.loc 1 566 0
 1326 0008 5370     		strb	r3, [r2, #1]
 567:.\uart_wifi.c **** 	cBuf[2]=Change_Filter.all;
 1327              		.loc 1 567 0
 1328 000a 0B4B     		ldr	r3, .L123
 568:.\uart_wifi.c **** 	cBuf[3]=Filter_Changed_Num[0]; 
 569:.\uart_wifi.c **** 	cBuf[4]=Filter_Changed_Num[1]; 	
 570:.\uart_wifi.c **** 	cBuf[5]=Filter_Changed_Num[2];   
 571:.\uart_wifi.c **** 	cBuf[6]=Filter_Changed_Num[3];  
 572:.\uart_wifi.c **** 	cBuf[7]=Filter_Changed_Num[4]; 
ARM GAS  C:\Users\kevin\AppData\Local\Temp\ccrA27HJ.s 			page 36


 573:.\uart_wifi.c **** 	cBuf[8]=Filter_Changed_Num[5]; 
 574:.\uart_wifi.c **** 	SendDataToWifi(ACK_DATA,APP_FILTER_CHANGED_DATA,cBuf,9);
 1329              		.loc 1 574 0
 1330 000c 8020     		mov	r0, #128
 567:.\uart_wifi.c **** 	cBuf[2]=Change_Filter.all;
 1331              		.loc 1 567 0
 1332 000e 1B78     		ldrb	r3, [r3]
 1333 0010 9370     		strb	r3, [r2, #2]
 568:.\uart_wifi.c **** 	cBuf[3]=Filter_Changed_Num[0]; 
 1334              		.loc 1 568 0
 1335 0012 0A4B     		ldr	r3, .L123+4
 1336 0014 1978     		ldrb	r1, [r3]
 1337 0016 D170     		strb	r1, [r2, #3]
 569:.\uart_wifi.c **** 	cBuf[4]=Filter_Changed_Num[1]; 	
 1338              		.loc 1 569 0
 1339 0018 5978     		ldrb	r1, [r3, #1]
 1340 001a 1171     		strb	r1, [r2, #4]
 570:.\uart_wifi.c **** 	cBuf[5]=Filter_Changed_Num[2];   
 1341              		.loc 1 570 0
 1342 001c 9978     		ldrb	r1, [r3, #2]
 1343 001e 5171     		strb	r1, [r2, #5]
 571:.\uart_wifi.c **** 	cBuf[6]=Filter_Changed_Num[3];  
 1344              		.loc 1 571 0
 1345 0020 D978     		ldrb	r1, [r3, #3]
 1346 0022 9171     		strb	r1, [r2, #6]
 572:.\uart_wifi.c **** 	cBuf[7]=Filter_Changed_Num[4]; 
 1347              		.loc 1 572 0
 1348 0024 1979     		ldrb	r1, [r3, #4]
 1349 0026 D171     		strb	r1, [r2, #7]
 573:.\uart_wifi.c **** 	cBuf[8]=Filter_Changed_Num[5]; 
 1350              		.loc 1 573 0
 1351 0028 5B79     		ldrb	r3, [r3, #5]
 1352              		.loc 1 574 0
 1353 002a B521     		mov	r1, #181
 573:.\uart_wifi.c **** 	cBuf[8]=Filter_Changed_Num[5]; 
 1354              		.loc 1 573 0
 1355 002c 1372     		strb	r3, [r2, #8]
 1356              		.loc 1 574 0
 1357 002e 0923     		mov	r3, #9
 1358 0030 FFF7FEFF 		bl	SendDataToWifi
 1359              	.LVL63:
 575:.\uart_wifi.c **** }
 1360              		.loc 1 575 0
 1361 0034 05B0     		add	sp, sp, #20
 1362              		@ sp needed
 1363 0036 00BD     		pop	{pc}
 1364              	.L124:
 1365              		.align	2
 1366              	.L123:
 1367 0038 00000000 		.word	Change_Filter
 1368 003c 00000000 		.word	Filter_Changed_Num
 1369              		.cfi_endproc
 1370              	.LFE47:
 1371              		.size	App_Filter_Changed_Data, .-App_Filter_Changed_Data
 1372              		.section	.text.App_Error_Data,"ax",%progbits
 1373              		.align	1
 1374              		.global	App_Error_Data
ARM GAS  C:\Users\kevin\AppData\Local\Temp\ccrA27HJ.s 			page 37


 1375              		.code	16
 1376              		.thumb_func
 1377              		.type	App_Error_Data, %function
 1378              	App_Error_Data:
 1379              	.LFB48:
 576:.\uart_wifi.c **** 
 577:.\uart_wifi.c **** void App_Error_Data(void)
 578:.\uart_wifi.c **** {
 1380              		.loc 1 578 0
 1381              		.cfi_startproc
 1382 0000 10B5     		push	{r4, lr}
 1383              		.cfi_def_cfa_offset 8
 1384              		.cfi_offset 4, -8
 1385              		.cfi_offset 14, -4
 1386 0002 86B0     		sub	sp, sp, #24
 1387              		.cfi_def_cfa_offset 32
 579:.\uart_wifi.c **** 	uint8 cBuf[21];
 580:.\uart_wifi.c **** 	cBuf[0]=0x00;  
 1388              		.loc 1 580 0
 1389 0004 6A46     		mov	r2, sp
 1390 0006 0023     		mov	r3, #0
 1391 0008 1370     		strb	r3, [r2]
 581:.\uart_wifi.c **** 	cBuf[1]=0x00;//ok
 1392              		.loc 1 581 0
 1393 000a 5370     		strb	r3, [r2, #1]
 582:.\uart_wifi.c **** 	cBuf[2]=Error_Counter;
 1394              		.loc 1 582 0
 1395 000c 084B     		ldr	r3, .L126
 583:.\uart_wifi.c **** 	memcpy(&cBuf[3],Error_Data_Buf,Error_Counter*2);	
 1396              		.loc 1 583 0
 1397 000e 6846     		mov	r0, sp
 582:.\uart_wifi.c **** 	cBuf[2]=Error_Counter;
 1398              		.loc 1 582 0
 1399 0010 1C78     		ldrb	r4, [r3]
 1400              		.loc 1 583 0
 1401 0012 0849     		ldr	r1, .L126+4
 582:.\uart_wifi.c **** 	cBuf[2]=Error_Counter;
 1402              		.loc 1 582 0
 1403 0014 9470     		strb	r4, [r2, #2]
 1404              		.loc 1 583 0
 1405 0016 6400     		lsl	r4, r4, #1
 1406 0018 221C     		mov	r2, r4
 1407 001a 0330     		add	r0, r0, #3
 1408 001c FFF7FEFF 		bl	memcpy
 1409              	.LVL64:
 584:.\uart_wifi.c **** 	SendDataToWifi(ACK_DATA,APP_ERROR_DATA,cBuf,Error_Counter*2+3);
 1410              		.loc 1 584 0
 1411 0020 E31C     		add	r3, r4, #3
 1412 0022 8020     		mov	r0, #128
 1413 0024 B421     		mov	r1, #180
 1414 0026 6A46     		mov	r2, sp
 1415 0028 FFF7FEFF 		bl	SendDataToWifi
 1416              	.LVL65:
 585:.\uart_wifi.c **** }
 1417              		.loc 1 585 0
 1418 002c 06B0     		add	sp, sp, #24
 1419              		@ sp needed
ARM GAS  C:\Users\kevin\AppData\Local\Temp\ccrA27HJ.s 			page 38


 1420 002e 10BD     		pop	{r4, pc}
 1421              	.L127:
 1422              		.align	2
 1423              	.L126:
 1424 0030 00000000 		.word	Error_Counter
 1425 0034 00000000 		.word	Error_Data_Buf
 1426              		.cfi_endproc
 1427              	.LFE48:
 1428              		.size	App_Error_Data, .-App_Error_Data
 1429              		.section	.text.App_Filter_Used_Time_Data,"ax",%progbits
 1430              		.align	1
 1431              		.global	App_Filter_Used_Time_Data
 1432              		.code	16
 1433              		.thumb_func
 1434              		.type	App_Filter_Used_Time_Data, %function
 1435              	App_Filter_Used_Time_Data:
 1436              	.LFB49:
 586:.\uart_wifi.c **** //void App_Error_Data(void)
 587:.\uart_wifi.c **** //{
 588:.\uart_wifi.c **** //	uint8 cBuf[21];
 589:.\uart_wifi.c **** //	cBuf[0]=0x00;  
 590:.\uart_wifi.c **** //	cBuf[1]=0x00;//ok
 591:.\uart_wifi.c **** //	cBuf[2]=0x00;;
 592:.\uart_wifi.c **** //	SendDataToWifi(ACK_DATA,APP_ERROR_DATA,cBuf,3);
 593:.\uart_wifi.c **** //}
 594:.\uart_wifi.c **** void App_Filter_Used_Time_Data(void)
 595:.\uart_wifi.c **** {
 1437              		.loc 1 595 0
 1438              		.cfi_startproc
 1439 0000 1FB5     		push	{r0, r1, r2, r3, r4, lr}
 1440              		.cfi_def_cfa_offset 24
 1441              		.cfi_offset 0, -24
 1442              		.cfi_offset 1, -20
 1443              		.cfi_offset 2, -16
 1444              		.cfi_offset 3, -12
 1445              		.cfi_offset 4, -8
 1446              		.cfi_offset 14, -4
 596:.\uart_wifi.c **** 	uint8 cBuf[15];
 597:.\uart_wifi.c **** 	cBuf[0]=0x00;  
 1447              		.loc 1 597 0
 1448 0002 0023     		mov	r3, #0
 1449 0004 6846     		mov	r0, sp
 1450 0006 0370     		strb	r3, [r0]
 598:.\uart_wifi.c **** 	cBuf[1]=0x00;//ok
 1451              		.loc 1 598 0
 1452 0008 4370     		strb	r3, [r0, #1]
 599:.\uart_wifi.c **** 	cBuf[2]=0x06;  	//滤芯级数
 1453              		.loc 1 599 0
 1454 000a 0623     		mov	r3, #6
 1455 000c 8370     		strb	r3, [r0, #2]
 600:.\uart_wifi.c **** 	cBuf[3]=(LvxinJishi[0]>>8);  	//滤芯数据0	2	U16(实际滤芯使用时间值)
 1456              		.loc 1 600 0
 1457 000e 104B     		ldr	r3, .L129
 1458 0010 1A88     		ldrh	r2, [r3]
 1459 0012 110A     		lsr	r1, r2, #8
 1460 0014 C170     		strb	r1, [r0, #3]
 601:.\uart_wifi.c **** 	cBuf[4]=LvxinJishi[0];
ARM GAS  C:\Users\kevin\AppData\Local\Temp\ccrA27HJ.s 			page 39


 1461              		.loc 1 601 0
 1462 0016 0271     		strb	r2, [r0, #4]
 602:.\uart_wifi.c **** 	cBuf[5]=(LvxinJishi[1]>>8);  	//滤芯数据0	2	U16(实际滤芯使用时间值)
 1463              		.loc 1 602 0
 1464 0018 5A88     		ldrh	r2, [r3, #2]
 1465 001a 110A     		lsr	r1, r2, #8
 1466 001c 4171     		strb	r1, [r0, #5]
 603:.\uart_wifi.c **** 	cBuf[6]=LvxinJishi[1];
 1467              		.loc 1 603 0
 1468 001e 8271     		strb	r2, [r0, #6]
 604:.\uart_wifi.c **** 	cBuf[7]=(LvxinJishi[2]>>8);  	//滤芯数据0	2	U16(实际滤芯使用时间值)
 1469              		.loc 1 604 0
 1470 0020 9A88     		ldrh	r2, [r3, #4]
 1471 0022 110A     		lsr	r1, r2, #8
 1472 0024 C171     		strb	r1, [r0, #7]
 605:.\uart_wifi.c **** 	cBuf[8]=LvxinJishi[2];
 1473              		.loc 1 605 0
 1474 0026 0272     		strb	r2, [r0, #8]
 606:.\uart_wifi.c **** 	cBuf[9]=(LvxinJishi[3]>>8);  	//滤芯数据0	2	U16(实际滤芯使用时间值)
 1475              		.loc 1 606 0
 1476 0028 DA88     		ldrh	r2, [r3, #6]
 1477 002a 110A     		lsr	r1, r2, #8
 1478 002c 4172     		strb	r1, [r0, #9]
 607:.\uart_wifi.c **** 	cBuf[10]=LvxinJishi[3]; 
 1479              		.loc 1 607 0
 1480 002e 8272     		strb	r2, [r0, #10]
 608:.\uart_wifi.c **** 	cBuf[11]=(LvxinJishi[4]>>8);  	//滤芯数据0	2	U16(实际滤芯使用时间值)
 1481              		.loc 1 608 0
 1482 0030 1A89     		ldrh	r2, [r3, #8]
 1483 0032 110A     		lsr	r1, r2, #8
 1484 0034 C172     		strb	r1, [r0, #11]
 609:.\uart_wifi.c **** 	cBuf[12]=LvxinJishi[4]; 
 1485              		.loc 1 609 0
 1486 0036 0273     		strb	r2, [r0, #12]
 610:.\uart_wifi.c **** 	cBuf[13]=(LvxinJishi[5]>>8);  	//滤芯数据0	2	U16(实际滤芯使用时间值)
 1487              		.loc 1 610 0
 1488 0038 5B89     		ldrh	r3, [r3, #10]
 611:.\uart_wifi.c **** 	cBuf[14]=LvxinJishi[5]; 
 612:.\uart_wifi.c **** 	SendDataToWifi(ACK_DATA,APP_FILTER_CHANGED_DATA,cBuf,15);
 1489              		.loc 1 612 0
 1490 003a B521     		mov	r1, #181
 610:.\uart_wifi.c **** 	cBuf[13]=(LvxinJishi[5]>>8);  	//滤芯数据0	2	U16(实际滤芯使用时间值)
 1491              		.loc 1 610 0
 1492 003c 1A0A     		lsr	r2, r3, #8
 1493 003e 4273     		strb	r2, [r0, #13]
 611:.\uart_wifi.c **** 	cBuf[14]=LvxinJishi[5]; 
 1494              		.loc 1 611 0
 1495 0040 8373     		strb	r3, [r0, #14]
 1496              		.loc 1 612 0
 1497 0042 6A46     		mov	r2, sp
 1498 0044 8020     		mov	r0, #128
 1499 0046 0F23     		mov	r3, #15
 1500 0048 FFF7FEFF 		bl	SendDataToWifi
 1501              	.LVL66:
 613:.\uart_wifi.c **** }
 1502              		.loc 1 613 0
 1503 004c 05B0     		add	sp, sp, #20
ARM GAS  C:\Users\kevin\AppData\Local\Temp\ccrA27HJ.s 			page 40


 1504              		@ sp needed
 1505 004e 00BD     		pop	{pc}
 1506              	.L130:
 1507              		.align	2
 1508              	.L129:
 1509 0050 00000000 		.word	LvxinJishi
 1510              		.cfi_endproc
 1511              	.LFE49:
 1512              		.size	App_Filter_Used_Time_Data, .-App_Filter_Used_Time_Data
 1513              		.section	.text.App_Download_Nb_Sta,"ax",%progbits
 1514              		.align	1
 1515              		.global	App_Download_Nb_Sta
 1516              		.code	16
 1517              		.thumb_func
 1518              		.type	App_Download_Nb_Sta, %function
 1519              	App_Download_Nb_Sta:
 1520              	.LFB50:
 614:.\uart_wifi.c **** void App_Download_Nb_Sta(void)
 615:.\uart_wifi.c **** {
 1521              		.loc 1 615 0
 1522              		.cfi_startproc
 1523 0000 07B5     		push	{r0, r1, r2, lr}
 1524              		.cfi_def_cfa_offset 16
 1525              		.cfi_offset 0, -16
 1526              		.cfi_offset 1, -12
 1527              		.cfi_offset 2, -8
 1528              		.cfi_offset 14, -4
 616:.\uart_wifi.c **** 	uint8 cBuf[2];
 617:.\uart_wifi.c **** 	cBuf[0]=0x00;  
 1529              		.loc 1 617 0
 1530 0002 0023     		mov	r3, #0
 1531 0004 01AA     		add	r2, sp, #4
 1532 0006 1370     		strb	r3, [r2]
 618:.\uart_wifi.c **** 	cBuf[1]=0x00;//ok
 1533              		.loc 1 618 0
 1534 0008 5370     		strb	r3, [r2, #1]
 619:.\uart_wifi.c **** 	SendDataToWifi(ACK_DATA,APP_DOWNLOAD_NB_STA,cBuf,2);
 1535              		.loc 1 619 0
 1536 000a 8020     		mov	r0, #128
 1537 000c A321     		mov	r1, #163
 1538 000e 0223     		mov	r3, #2
 1539 0010 FFF7FEFF 		bl	SendDataToWifi
 1540              	.LVL67:
 620:.\uart_wifi.c **** }
 1541              		.loc 1 620 0
 1542              		@ sp needed
 1543 0014 07BD     		pop	{r0, r1, r2, pc}
 1544              		.cfi_endproc
 1545              	.LFE50:
 1546              		.size	App_Download_Nb_Sta, .-App_Download_Nb_Sta
 1547              		.section	.text.Wifi_Senddingstate_Data,"ax",%progbits
 1548              		.align	1
 1549              		.global	Wifi_Senddingstate_Data
 1550              		.code	16
 1551              		.thumb_func
 1552              		.type	Wifi_Senddingstate_Data, %function
 1553              	Wifi_Senddingstate_Data:
ARM GAS  C:\Users\kevin\AppData\Local\Temp\ccrA27HJ.s 			page 41


 1554              	.LFB51:
 621:.\uart_wifi.c **** void Wifi_Senddingstate_Data(void)
 622:.\uart_wifi.c **** {
 1555              		.loc 1 622 0
 1556              		.cfi_startproc
 1557 0000 07B5     		push	{r0, r1, r2, lr}
 1558              		.cfi_def_cfa_offset 16
 1559              		.cfi_offset 0, -16
 1560              		.cfi_offset 1, -12
 1561              		.cfi_offset 2, -8
 1562              		.cfi_offset 14, -4
 623:.\uart_wifi.c **** 	uint8 cBuf[2];
 624:.\uart_wifi.c **** 	cBuf[0]=0x00;
 1563              		.loc 1 624 0
 1564 0002 0023     		mov	r3, #0
 1565 0004 01AA     		add	r2, sp, #4
 1566 0006 1370     		strb	r3, [r2]
 625:.\uart_wifi.c **** 	cBuf[1]=0x00;
 1567              		.loc 1 625 0
 1568 0008 5370     		strb	r3, [r2, #1]
 626:.\uart_wifi.c **** 	SendDataToWifi(ACK_DATA,WIFI_SENDDINGSTATE_DATA,cBuf,2);
 1569              		.loc 1 626 0
 1570 000a 8020     		mov	r0, #128
 1571 000c 0249     		ldr	r1, .L133
 1572 000e 0223     		mov	r3, #2
 1573 0010 FFF7FEFF 		bl	SendDataToWifi
 1574              	.LVL68:
 627:.\uart_wifi.c **** }
 1575              		.loc 1 627 0
 1576              		@ sp needed
 1577 0014 07BD     		pop	{r0, r1, r2, pc}
 1578              	.L134:
 1579 0016 C046     		.align	2
 1580              	.L133:
 1581 0018 D0CC0000 		.word	52432
 1582              		.cfi_endproc
 1583              	.LFE51:
 1584              		.size	Wifi_Senddingstate_Data, .-Wifi_Senddingstate_Data
 1585              		.section	.text.Wifi_Firmware_Handshake_Data,"ax",%progbits
 1586              		.align	1
 1587              		.global	Wifi_Firmware_Handshake_Data
 1588              		.code	16
 1589              		.thumb_func
 1590              		.type	Wifi_Firmware_Handshake_Data, %function
 1591              	Wifi_Firmware_Handshake_Data:
 1592              	.LFB52:
 628:.\uart_wifi.c **** void Wifi_Firmware_Handshake_Data(void)
 629:.\uart_wifi.c **** {
 1593              		.loc 1 629 0
 1594              		.cfi_startproc
 1595 0000 07B5     		push	{r0, r1, r2, lr}
 1596              		.cfi_def_cfa_offset 16
 1597              		.cfi_offset 0, -16
 1598              		.cfi_offset 1, -12
 1599              		.cfi_offset 2, -8
 1600              		.cfi_offset 14, -4
 630:.\uart_wifi.c **** 	uint8 cBuf[4];
ARM GAS  C:\Users\kevin\AppData\Local\Temp\ccrA27HJ.s 			page 42


 631:.\uart_wifi.c **** 	cBuf[0]=0x00;
 632:.\uart_wifi.c **** 	if(Firmware_Update==0xfe)
 1601              		.loc 1 632 0
 1602 0002 0949     		ldr	r1, .L138
 631:.\uart_wifi.c **** 	cBuf[0]=0x00;
 1603              		.loc 1 631 0
 1604 0004 01AA     		add	r2, sp, #4
 1605              		.loc 1 632 0
 1606 0006 0978     		ldrb	r1, [r1]
 631:.\uart_wifi.c **** 	cBuf[0]=0x00;
 1607              		.loc 1 631 0
 1608 0008 0023     		mov	r3, #0
 1609 000a 1370     		strb	r3, [r2]
 1610              		.loc 1 632 0
 1611 000c FE29     		cmp	r1, #254
 1612 000e 01D1     		bne	.L136
 633:.\uart_wifi.c **** 		cBuf[1]=0x00;
 1613              		.loc 1 633 0
 1614 0010 5370     		strb	r3, [r2, #1]
 1615 0012 01E0     		b	.L137
 1616              	.L136:
 634:.\uart_wifi.c **** 	else
 635:.\uart_wifi.c **** 		cBuf[1]=0x05;		
 1617              		.loc 1 635 0
 1618 0014 0521     		mov	r1, #5
 1619 0016 5170     		strb	r1, [r2, #1]
 1620              	.L137:
 636:.\uart_wifi.c **** 	cBuf[2]=0x00;
 1621              		.loc 1 636 0
 1622 0018 9370     		strb	r3, [r2, #2]
 637:.\uart_wifi.c **** 	cBuf[3]=FIRMWARE_DATALEN;
 1623              		.loc 1 637 0
 1624 001a 8020     		mov	r0, #128
 638:.\uart_wifi.c **** 	SendDataToWifi(ACK_DATA,WIFI_FIRMWARE_HANDSHAKE_DATA,cBuf,4);
 1625              		.loc 1 638 0
 1626 001c 0349     		ldr	r1, .L138+4
 1627 001e 0423     		mov	r3, #4
 637:.\uart_wifi.c **** 	cBuf[3]=FIRMWARE_DATALEN;
 1628              		.loc 1 637 0
 1629 0020 D070     		strb	r0, [r2, #3]
 639:.\uart_wifi.c **** }
 1630              		.loc 1 639 0
 1631              		@ sp needed
 638:.\uart_wifi.c **** 	SendDataToWifi(ACK_DATA,WIFI_FIRMWARE_HANDSHAKE_DATA,cBuf,4);
 1632              		.loc 1 638 0
 1633 0022 FFF7FEFF 		bl	SendDataToWifi
 1634              	.LVL69:
 1635              		.loc 1 639 0
 1636 0026 07BD     		pop	{r0, r1, r2, pc}
 1637              	.L139:
 1638              		.align	2
 1639              	.L138:
 1640 0028 00000000 		.word	Firmware_Update
 1641 002c D1CC0000 		.word	52433
 1642              		.cfi_endproc
 1643              	.LFE52:
 1644              		.size	Wifi_Firmware_Handshake_Data, .-Wifi_Firmware_Handshake_Data
ARM GAS  C:\Users\kevin\AppData\Local\Temp\ccrA27HJ.s 			page 43


 1645              		.section	.text.Wifi_Dect_Data,"ax",%progbits
 1646              		.align	1
 1647              		.global	Wifi_Dect_Data
 1648              		.code	16
 1649              		.thumb_func
 1650              		.type	Wifi_Dect_Data, %function
 1651              	Wifi_Dect_Data:
 1652              	.LFB53:
 640:.\uart_wifi.c **** void Wifi_Dect_Data(void)
 641:.\uart_wifi.c **** {
 1653              		.loc 1 641 0
 1654              		.cfi_startproc
 1655 0000 07B5     		push	{r0, r1, r2, lr}
 1656              		.cfi_def_cfa_offset 16
 1657              		.cfi_offset 0, -16
 1658              		.cfi_offset 1, -12
 1659              		.cfi_offset 2, -8
 1660              		.cfi_offset 14, -4
 642:.\uart_wifi.c **** 	uint8 cBuf[2];
 643:.\uart_wifi.c **** 	cBuf[0]=0x00;
 1661              		.loc 1 643 0
 1662 0002 0023     		mov	r3, #0
 1663 0004 01AA     		add	r2, sp, #4
 1664 0006 1370     		strb	r3, [r2]
 644:.\uart_wifi.c **** 	cBuf[1]=0x00;
 1665              		.loc 1 644 0
 1666 0008 5370     		strb	r3, [r2, #1]
 645:.\uart_wifi.c **** 	SendDataToWifi(ACK_DATA,WIFI_DECT_DATA,cBuf,2);
 1667              		.loc 1 645 0
 1668 000a 8020     		mov	r0, #128
 1669 000c 0249     		ldr	r1, .L141
 1670 000e 0223     		mov	r3, #2
 1671 0010 FFF7FEFF 		bl	SendDataToWifi
 1672              	.LVL70:
 646:.\uart_wifi.c **** }
 1673              		.loc 1 646 0
 1674              		@ sp needed
 1675 0014 07BD     		pop	{r0, r1, r2, pc}
 1676              	.L142:
 1677 0016 C046     		.align	2
 1678              	.L141:
 1679 0018 D6CC0000 		.word	52438
 1680              		.cfi_endproc
 1681              	.LFE53:
 1682              		.size	Wifi_Dect_Data, .-Wifi_Dect_Data
 1683              		.section	.text.Wifi_Firmware_Update_Data,"ax",%progbits
 1684              		.align	1
 1685              		.global	Wifi_Firmware_Update_Data
 1686              		.code	16
 1687              		.thumb_func
 1688              		.type	Wifi_Firmware_Update_Data, %function
 1689              	Wifi_Firmware_Update_Data:
 1690              	.LFB54:
 647:.\uart_wifi.c **** void Wifi_Firmware_Update_Data(void)
 648:.\uart_wifi.c **** {	
 1691              		.loc 1 648 0
 1692              		.cfi_startproc
ARM GAS  C:\Users\kevin\AppData\Local\Temp\ccrA27HJ.s 			page 44


 1693 0000 07B5     		push	{r0, r1, r2, lr}
 1694              		.cfi_def_cfa_offset 16
 1695              		.cfi_offset 0, -16
 1696              		.cfi_offset 1, -12
 1697              		.cfi_offset 2, -8
 1698              		.cfi_offset 14, -4
 649:.\uart_wifi.c **** 	uint8 cBuf[2];
 650:.\uart_wifi.c **** 	cBuf[0]=0x00;
 1699              		.loc 1 650 0
 1700 0002 0023     		mov	r3, #0
 1701 0004 01AA     		add	r2, sp, #4
 1702 0006 1370     		strb	r3, [r2]
 651:.\uart_wifi.c **** 	cBuf[1]=0x00;
 1703              		.loc 1 651 0
 1704 0008 5370     		strb	r3, [r2, #1]
 652:.\uart_wifi.c **** 	SendDataToWifi(ACK_DATA,WIFI_FIRMWARE_UPDATE_DATA,cBuf,2);
 1705              		.loc 1 652 0
 1706 000a 8020     		mov	r0, #128
 1707 000c 0249     		ldr	r1, .L144
 1708 000e 0223     		mov	r3, #2
 1709 0010 FFF7FEFF 		bl	SendDataToWifi
 1710              	.LVL71:
 653:.\uart_wifi.c **** }
 1711              		.loc 1 653 0
 1712              		@ sp needed
 1713 0014 07BD     		pop	{r0, r1, r2, pc}
 1714              	.L145:
 1715 0016 C046     		.align	2
 1716              	.L144:
 1717 0018 D2CC0000 		.word	52434
 1718              		.cfi_endproc
 1719              	.LFE54:
 1720              		.size	Wifi_Firmware_Update_Data, .-Wifi_Firmware_Update_Data
 1721              		.section	.text.App_Search_Filter_Manage_Num,"ax",%progbits
 1722              		.align	1
 1723              		.global	App_Search_Filter_Manage_Num
 1724              		.code	16
 1725              		.thumb_func
 1726              		.type	App_Search_Filter_Manage_Num, %function
 1727              	App_Search_Filter_Manage_Num:
 1728              	.LFB55:
 654:.\uart_wifi.c **** /*
 655:.\uart_wifi.c **** 	========================================================================
 656:.\uart_wifi.c **** ** 函数名称 APP_HOST_STATE()
 657:.\uart_wifi.c **** ** 函数功能 ：连接WIFI模块                          
 658:.\uart_wifi.c **** ** 入口参数 ：         
 659:.\uart_wifi.c **** ** 出口参数 ：无
 660:.\uart_wifi.c **** 	========================================================================
 661:.\uart_wifi.c **** */
 662:.\uart_wifi.c **** void App_Search_Filter_Manage_Num(void)
 663:.\uart_wifi.c **** {
 1729              		.loc 1 663 0
 1730              		.cfi_startproc
 1731 0000 07B5     		push	{r0, r1, r2, lr}
 1732              		.cfi_def_cfa_offset 16
 1733              		.cfi_offset 0, -16
 1734              		.cfi_offset 1, -12
ARM GAS  C:\Users\kevin\AppData\Local\Temp\ccrA27HJ.s 			page 45


 1735              		.cfi_offset 2, -8
 1736              		.cfi_offset 14, -4
 664:.\uart_wifi.c **** 	uint8 cBuf[3];
 665:.\uart_wifi.c **** 	cBuf[0]=0x00;  
 1737              		.loc 1 665 0
 1738 0002 0023     		mov	r3, #0
 1739 0004 01AA     		add	r2, sp, #4
 1740 0006 1370     		strb	r3, [r2]
 666:.\uart_wifi.c **** 	cBuf[1]=0x00;//ok
 1741              		.loc 1 666 0
 1742 0008 5370     		strb	r3, [r2, #1]
 667:.\uart_wifi.c **** 	cBuf[2]=NBfig;
 1743              		.loc 1 667 0
 1744 000a 044B     		ldr	r3, .L147
 668:.\uart_wifi.c **** 	SendDataToWifi(ACK_DATA,APP_SEARCH_FILTER_MANAGE_NUM,cBuf,3);
 1745              		.loc 1 668 0
 1746 000c 8020     		mov	r0, #128
 667:.\uart_wifi.c **** 	cBuf[2]=NBfig;
 1747              		.loc 1 667 0
 1748 000e 1B78     		ldrb	r3, [r3]
 1749              		.loc 1 668 0
 1750 0010 B121     		mov	r1, #177
 667:.\uart_wifi.c **** 	cBuf[2]=NBfig;
 1751              		.loc 1 667 0
 1752 0012 9370     		strb	r3, [r2, #2]
 1753              		.loc 1 668 0
 1754 0014 0323     		mov	r3, #3
 1755 0016 FFF7FEFF 		bl	SendDataToWifi
 1756              	.LVL72:
 669:.\uart_wifi.c **** }
 1757              		.loc 1 669 0
 1758              		@ sp needed
 1759 001a 07BD     		pop	{r0, r1, r2, pc}
 1760              	.L148:
 1761              		.align	2
 1762              	.L147:
 1763 001c 00000000 		.word	NBfig
 1764              		.cfi_endproc
 1765              	.LFE55:
 1766              		.size	App_Search_Filter_Manage_Num, .-App_Search_Filter_Manage_Num
 1767              		.section	.text.App_Download_Filter_Manage_Num,"ax",%progbits
 1768              		.align	1
 1769              		.global	App_Download_Filter_Manage_Num
 1770              		.code	16
 1771              		.thumb_func
 1772              		.type	App_Download_Filter_Manage_Num, %function
 1773              	App_Download_Filter_Manage_Num:
 1774              	.LFB56:
 670:.\uart_wifi.c **** 
 671:.\uart_wifi.c **** /*
 672:.\uart_wifi.c **** 	========================================================================
 673:.\uart_wifi.c **** ** 函数名称 App_Download_Filter_Manage_Num()
 674:.\uart_wifi.c **** ** 函数功能 ：连接WIFI模块                          
 675:.\uart_wifi.c **** ** 入口参数 ：         
 676:.\uart_wifi.c **** ** 出口参数 ：无
 677:.\uart_wifi.c **** 	========================================================================
 678:.\uart_wifi.c **** */
ARM GAS  C:\Users\kevin\AppData\Local\Temp\ccrA27HJ.s 			page 46


 679:.\uart_wifi.c **** void App_Download_Filter_Manage_Num(void)
 680:.\uart_wifi.c **** {
 1775              		.loc 1 680 0
 1776              		.cfi_startproc
 1777 0000 07B5     		push	{r0, r1, r2, lr}
 1778              		.cfi_def_cfa_offset 16
 1779              		.cfi_offset 0, -16
 1780              		.cfi_offset 1, -12
 1781              		.cfi_offset 2, -8
 1782              		.cfi_offset 14, -4
 681:.\uart_wifi.c **** 	uint8 cBuf[2];
 682:.\uart_wifi.c **** 	cBuf[0]=0x00;
 1783              		.loc 1 682 0
 1784 0002 0023     		mov	r3, #0
 1785 0004 01AA     		add	r2, sp, #4
 1786 0006 1370     		strb	r3, [r2]
 683:.\uart_wifi.c **** 	cBuf[1]=0x00;
 1787              		.loc 1 683 0
 1788 0008 5370     		strb	r3, [r2, #1]
 684:.\uart_wifi.c **** 	SendDataToWifi(ACK_DATA,APP_DOWNLOAD_FILTER_MANAGE_NUM,cBuf,2);
 1789              		.loc 1 684 0
 1790 000a 8020     		mov	r0, #128
 1791 000c A221     		mov	r1, #162
 1792 000e 0223     		mov	r3, #2
 1793 0010 FFF7FEFF 		bl	SendDataToWifi
 1794              	.LVL73:
 685:.\uart_wifi.c **** }
 1795              		.loc 1 685 0
 1796              		@ sp needed
 1797 0014 07BD     		pop	{r0, r1, r2, pc}
 1798              		.cfi_endproc
 1799              	.LFE56:
 1800              		.size	App_Download_Filter_Manage_Num, .-App_Download_Filter_Manage_Num
 1801              		.section	.text.App_Download_Filter_Reset_Data,"ax",%progbits
 1802              		.align	1
 1803              		.global	App_Download_Filter_Reset_Data
 1804              		.code	16
 1805              		.thumb_func
 1806              		.type	App_Download_Filter_Reset_Data, %function
 1807              	App_Download_Filter_Reset_Data:
 1808              	.LFB57:
 686:.\uart_wifi.c **** /*
 687:.\uart_wifi.c **** 	========================================================================
 688:.\uart_wifi.c **** ** 函数名称 App_Download_Filter_Manage_Num()
 689:.\uart_wifi.c **** ** 函数功能 ：连接WIFI模块                          
 690:.\uart_wifi.c **** ** 入口参数 ：         
 691:.\uart_wifi.c **** ** 出口参数 ：无
 692:.\uart_wifi.c **** 	========================================================================
 693:.\uart_wifi.c **** */
 694:.\uart_wifi.c **** void App_Download_Filter_Reset_Data(void)
 695:.\uart_wifi.c **** {
 1809              		.loc 1 695 0
 1810              		.cfi_startproc
 1811 0000 07B5     		push	{r0, r1, r2, lr}
 1812              		.cfi_def_cfa_offset 16
 1813              		.cfi_offset 0, -16
 1814              		.cfi_offset 1, -12
ARM GAS  C:\Users\kevin\AppData\Local\Temp\ccrA27HJ.s 			page 47


 1815              		.cfi_offset 2, -8
 1816              		.cfi_offset 14, -4
 696:.\uart_wifi.c **** 	uint8 cBuf[2];
 697:.\uart_wifi.c **** 	cBuf[0]=0x00;
 1817              		.loc 1 697 0
 1818 0002 0023     		mov	r3, #0
 1819 0004 01AA     		add	r2, sp, #4
 1820 0006 1370     		strb	r3, [r2]
 698:.\uart_wifi.c **** 	cBuf[1]=0x00;
 1821              		.loc 1 698 0
 1822 0008 5370     		strb	r3, [r2, #1]
 699:.\uart_wifi.c **** 	SendDataToWifi(ACK_DATA,APP_DOWNLOAD_FILTER_RESET_DATA,cBuf,2);
 1823              		.loc 1 699 0
 1824 000a 8020     		mov	r0, #128
 1825 000c A421     		mov	r1, #164
 1826 000e 0223     		mov	r3, #2
 1827 0010 FFF7FEFF 		bl	SendDataToWifi
 1828              	.LVL74:
 700:.\uart_wifi.c **** }
 1829              		.loc 1 700 0
 1830              		@ sp needed
 1831 0014 07BD     		pop	{r0, r1, r2, pc}
 1832              		.cfi_endproc
 1833              	.LFE57:
 1834              		.size	App_Download_Filter_Reset_Data, .-App_Download_Filter_Reset_Data
 1835              		.section	.text.App_Poweron,"ax",%progbits
 1836              		.align	1
 1837              		.global	App_Poweron
 1838              		.code	16
 1839              		.thumb_func
 1840              		.type	App_Poweron, %function
 1841              	App_Poweron:
 1842              	.LFB58:
 701:.\uart_wifi.c **** /*
 702:.\uart_wifi.c **** 	========================================================================
 703:.\uart_wifi.c **** ** 函数名称 App_Poweron()
 704:.\uart_wifi.c **** ** 函数功能 ：连接WIFI模块                          
 705:.\uart_wifi.c **** ** 入口参数 ：         
 706:.\uart_wifi.c **** ** 出口参数 ：无
 707:.\uart_wifi.c **** 	========================================================================
 708:.\uart_wifi.c **** */
 709:.\uart_wifi.c **** void App_Poweron(void)
 710:.\uart_wifi.c **** {
 1843              		.loc 1 710 0
 1844              		.cfi_startproc
 1845 0000 07B5     		push	{r0, r1, r2, lr}
 1846              		.cfi_def_cfa_offset 16
 1847              		.cfi_offset 0, -16
 1848              		.cfi_offset 1, -12
 1849              		.cfi_offset 2, -8
 1850              		.cfi_offset 14, -4
 711:.\uart_wifi.c **** 		uint8 cBuf[2];
 712:.\uart_wifi.c **** 		cBuf[0]=0x00;
 1851              		.loc 1 712 0
 1852 0002 0023     		mov	r3, #0
 1853 0004 01AA     		add	r2, sp, #4
 1854 0006 1370     		strb	r3, [r2]
ARM GAS  C:\Users\kevin\AppData\Local\Temp\ccrA27HJ.s 			page 48


 713:.\uart_wifi.c **** 		cBuf[1]=0x00;
 1855              		.loc 1 713 0
 1856 0008 5370     		strb	r3, [r2, #1]
 714:.\uart_wifi.c **** 		SendDataToWifi(ACK_DATA,APP_POWERON,cBuf,2);
 1857              		.loc 1 714 0
 1858 000a 8020     		mov	r0, #128
 1859 000c A021     		mov	r1, #160
 1860 000e 0223     		mov	r3, #2
 1861 0010 FFF7FEFF 		bl	SendDataToWifi
 1862              	.LVL75:
 715:.\uart_wifi.c **** }
 1863              		.loc 1 715 0
 1864              		@ sp needed
 1865 0014 07BD     		pop	{r0, r1, r2, pc}
 1866              		.cfi_endproc
 1867              	.LFE58:
 1868              		.size	App_Poweron, .-App_Poweron
 1869              		.section	.text.App_Poweroff,"ax",%progbits
 1870              		.align	1
 1871              		.global	App_Poweroff
 1872              		.code	16
 1873              		.thumb_func
 1874              		.type	App_Poweroff, %function
 1875              	App_Poweroff:
 1876              	.LFB59:
 716:.\uart_wifi.c **** /*
 717:.\uart_wifi.c **** 	========================================================================
 718:.\uart_wifi.c **** ** 函数名称 App_Poweroff()
 719:.\uart_wifi.c **** ** 函数功能 ：连接WIFI模块                          
 720:.\uart_wifi.c **** ** 入口参数 ：         
 721:.\uart_wifi.c **** ** 出口参数 ：无
 722:.\uart_wifi.c **** 	========================================================================
 723:.\uart_wifi.c **** */
 724:.\uart_wifi.c **** void App_Poweroff(void)
 725:.\uart_wifi.c **** {
 1877              		.loc 1 725 0
 1878              		.cfi_startproc
 1879 0000 07B5     		push	{r0, r1, r2, lr}
 1880              		.cfi_def_cfa_offset 16
 1881              		.cfi_offset 0, -16
 1882              		.cfi_offset 1, -12
 1883              		.cfi_offset 2, -8
 1884              		.cfi_offset 14, -4
 726:.\uart_wifi.c **** 		uint8 cBuf[2];
 727:.\uart_wifi.c **** 		cBuf[0]=0x00;
 1885              		.loc 1 727 0
 1886 0002 0023     		mov	r3, #0
 1887 0004 01AA     		add	r2, sp, #4
 1888 0006 1370     		strb	r3, [r2]
 728:.\uart_wifi.c **** 		cBuf[1]=0x00;
 1889              		.loc 1 728 0
 1890 0008 5370     		strb	r3, [r2, #1]
 729:.\uart_wifi.c **** 		SendDataToWifi(ACK_DATA,APP_POWEROFF,cBuf,2);
 1891              		.loc 1 729 0
 1892 000a 8020     		mov	r0, #128
 1893 000c A121     		mov	r1, #161
 1894 000e 0223     		mov	r3, #2
ARM GAS  C:\Users\kevin\AppData\Local\Temp\ccrA27HJ.s 			page 49


 1895 0010 FFF7FEFF 		bl	SendDataToWifi
 1896              	.LVL76:
 730:.\uart_wifi.c **** }
 1897              		.loc 1 730 0
 1898              		@ sp needed
 1899 0014 07BD     		pop	{r0, r1, r2, pc}
 1900              		.cfi_endproc
 1901              	.LFE59:
 1902              		.size	App_Poweroff, .-App_Poweroff
 1903              		.section	.text.Mcu_Poweronsmartlink_Data,"ax",%progbits
 1904              		.align	1
 1905              		.global	Mcu_Poweronsmartlink_Data
 1906              		.code	16
 1907              		.thumb_func
 1908              		.type	Mcu_Poweronsmartlink_Data, %function
 1909              	Mcu_Poweronsmartlink_Data:
 1910              	.LFB60:
 731:.\uart_wifi.c **** /*
 732:.\uart_wifi.c **** 	========================================================================
 733:.\uart_wifi.c **** ** 函数名称 ：Mcu_Poweronsmartlink_Data()
 734:.\uart_wifi.c **** ** 函数功能 ：Mcu_Poweronsmartlink_Data                          
 735:.\uart_wifi.c **** ** 入口参数 ：
 736:.\uart_wifi.c ****         
 737:.\uart_wifi.c **** ** 出口参数 ：无
 738:.\uart_wifi.c **** 	========================================================================
 739:.\uart_wifi.c **** */
 740:.\uart_wifi.c **** void Mcu_Poweronsmartlink_Data(void)
 741:.\uart_wifi.c **** {
 1911              		.loc 1 741 0
 1912              		.cfi_startproc
 1913 0000 08B5     		push	{r3, lr}
 1914              		.cfi_def_cfa_offset 8
 1915              		.cfi_offset 3, -8
 1916              		.cfi_offset 14, -4
 742:.\uart_wifi.c ****    SendDataToWifi(CTL_ACK_DATA,MCU_POWERONSMARTLINK_DATA,0,0);
 1917              		.loc 1 742 0
 1918 0002 0020     		mov	r0, #0
 1919 0004 0249     		ldr	r1, .L154
 1920 0006 021C     		mov	r2, r0
 1921 0008 031C     		mov	r3, r0
 1922 000a FFF7FEFF 		bl	SendDataToWifi
 1923              	.LVL77:
 743:.\uart_wifi.c **** }
 1924              		.loc 1 743 0
 1925              		@ sp needed
 1926 000e 08BD     		pop	{r3, pc}
 1927              	.L155:
 1928              		.align	2
 1929              	.L154:
 1930 0010 C2CC0000 		.word	52418
 1931              		.cfi_endproc
 1932              	.LFE60:
 1933              		.size	Mcu_Poweronsmartlink_Data, .-Mcu_Poweronsmartlink_Data
 1934              		.section	.text.Clean_All_User_Bound,"ax",%progbits
 1935              		.align	1
 1936              		.global	Clean_All_User_Bound
 1937              		.code	16
ARM GAS  C:\Users\kevin\AppData\Local\Temp\ccrA27HJ.s 			page 50


 1938              		.thumb_func
 1939              		.type	Clean_All_User_Bound, %function
 1940              	Clean_All_User_Bound:
 1941              	.LFB61:
 744:.\uart_wifi.c **** /*
 745:.\uart_wifi.c **** 	========================================================================
 746:.\uart_wifi.c **** ** 函数名称 Clean_All_User_Bound()
 747:.\uart_wifi.c **** ** 函数功能 ：连接WIFI模块                          
 748:.\uart_wifi.c **** ** 入口参数 ：        
 749:.\uart_wifi.c **** ** 出口参数 ：无
 750:.\uart_wifi.c **** 	========================================================================
 751:.\uart_wifi.c **** */
 752:.\uart_wifi.c **** void Clean_All_User_Bound(void)
 753:.\uart_wifi.c **** {
 1942              		.loc 1 753 0
 1943              		.cfi_startproc
 1944 0000 08B5     		push	{r3, lr}
 1945              		.cfi_def_cfa_offset 8
 1946              		.cfi_offset 3, -8
 1947              		.cfi_offset 14, -4
 754:.\uart_wifi.c ****    SendDataToWifi(CTL_ACK_DATA,MCU_CLEARALLUSERBOUND_DATA,0,0);
 1948              		.loc 1 754 0
 1949 0002 0020     		mov	r0, #0
 1950 0004 0249     		ldr	r1, .L157
 1951 0006 021C     		mov	r2, r0
 1952 0008 031C     		mov	r3, r0
 1953 000a FFF7FEFF 		bl	SendDataToWifi
 1954              	.LVL78:
 755:.\uart_wifi.c **** }
 1955              		.loc 1 755 0
 1956              		@ sp needed
 1957 000e 08BD     		pop	{r3, pc}
 1958              	.L158:
 1959              		.align	2
 1960              	.L157:
 1961 0010 01600000 		.word	24577
 1962              		.cfi_endproc
 1963              	.LFE61:
 1964              		.size	Clean_All_User_Bound, .-Clean_All_User_Bound
 1965              		.section	.text.Mcu_Firmware_Update,"ax",%progbits
 1966              		.align	1
 1967              		.global	Mcu_Firmware_Update
 1968              		.code	16
 1969              		.thumb_func
 1970              		.type	Mcu_Firmware_Update, %function
 1971              	Mcu_Firmware_Update:
 1972              	.LFB62:
 756:.\uart_wifi.c **** void Mcu_Firmware_Update(void)
 757:.\uart_wifi.c **** {
 1973              		.loc 1 757 0
 1974              		.cfi_startproc
 1975 0000 07B5     		push	{r0, r1, r2, lr}
 1976              		.cfi_def_cfa_offset 16
 1977              		.cfi_offset 0, -16
 1978              		.cfi_offset 1, -12
 1979              		.cfi_offset 2, -8
 1980              		.cfi_offset 14, -4
ARM GAS  C:\Users\kevin\AppData\Local\Temp\ccrA27HJ.s 			page 51


 758:.\uart_wifi.c **** 	  uint8 cBuf[2];
 759:.\uart_wifi.c ****   	cBuf[0] = 0x00;				 //
 760:.\uart_wifi.c ****   	cBuf[1] = FIRMWARE_DATALEN;				 //固件数据长度
 1981              		.loc 1 760 0
 1982 0002 8023     		mov	r3, #128
 759:.\uart_wifi.c ****   	cBuf[0] = 0x00;				 //
 1983              		.loc 1 759 0
 1984 0004 01AA     		add	r2, sp, #4
 1985 0006 0020     		mov	r0, #0
 1986              		.loc 1 760 0
 1987 0008 5370     		strb	r3, [r2, #1]
 761:.\uart_wifi.c ****   	SendDataToWifi(CTL_ACK_DATA,MCU_FIRMWARE_UPDATE,cBuf,2);	
 1988              		.loc 1 761 0
 1989 000a 0349     		ldr	r1, .L160
 1990 000c 0223     		mov	r3, #2
 759:.\uart_wifi.c ****   	cBuf[0] = 0x00;				 //
 1991              		.loc 1 759 0
 1992 000e 1070     		strb	r0, [r2]
 762:.\uart_wifi.c **** }
 1993              		.loc 1 762 0
 1994              		@ sp needed
 761:.\uart_wifi.c ****   	SendDataToWifi(CTL_ACK_DATA,MCU_FIRMWARE_UPDATE,cBuf,2);	
 1995              		.loc 1 761 0
 1996 0010 FFF7FEFF 		bl	SendDataToWifi
 1997              	.LVL79:
 1998              		.loc 1 762 0
 1999 0014 07BD     		pop	{r0, r1, r2, pc}
 2000              	.L161:
 2001 0016 C046     		.align	2
 2002              	.L160:
 2003 0018 C5CC0000 		.word	52421
 2004              		.cfi_endproc
 2005              	.LFE62:
 2006              		.size	Mcu_Firmware_Update, .-Mcu_Firmware_Update
 2007              		.section	.text.Host_State_Data,"ax",%progbits
 2008              		.align	1
 2009              		.global	Host_State_Data
 2010              		.code	16
 2011              		.thumb_func
 2012              		.type	Host_State_Data, %function
 2013              	Host_State_Data:
 2014              	.LFB63:
 763:.\uart_wifi.c **** 
 764:.\uart_wifi.c **** void Host_State_Data(void)
 765:.\uart_wifi.c **** {
 2015              		.loc 1 765 0
 2016              		.cfi_startproc
 2017 0000 1FB5     		push	{r0, r1, r2, r3, r4, lr}
 2018              		.cfi_def_cfa_offset 24
 2019              		.cfi_offset 0, -24
 2020              		.cfi_offset 1, -20
 2021              		.cfi_offset 2, -16
 2022              		.cfi_offset 3, -12
 2023              		.cfi_offset 4, -8
 2024              		.cfi_offset 14, -4
 766:.\uart_wifi.c **** 		uint8 cBuf[14];
 767:.\uart_wifi.c **** 		cBuf[0]=Error_Counter;
ARM GAS  C:\Users\kevin\AppData\Local\Temp\ccrA27HJ.s 			page 52


 2025              		.loc 1 767 0
 2026 0002 1A4B     		ldr	r3, .L163
 2027 0004 6946     		mov	r1, sp
 2028 0006 1B78     		ldrb	r3, [r3]
 2029 0008 0B70     		strb	r3, [r1]
 768:.\uart_wifi.c **** 		cBuf[1]=Work_State.all; //01待机 02制水中 03制水完成 04 冲洗
 2030              		.loc 1 768 0
 2031 000a 194B     		ldr	r3, .L163+4
 2032 000c 1B78     		ldrb	r3, [r3]
 2033 000e 4B70     		strb	r3, [r1, #1]
 769:.\uart_wifi.c **** 		cBuf[2]=LianXuJiShi/600;  //工作状态	1	U8 见注2  
 2034              		.loc 1 769 0
 2035 0010 184B     		ldr	r3, .L163+8
 2036 0012 9621     		mov	r1, #150
 2037 0014 1868     		ldr	r0, [r3]
 2038 0016 8900     		lsl	r1, r1, #2
 2039 0018 FFF7FEFF 		bl	__aeabi_uidiv
 2040              	.LVL80:
 2041 001c 6A46     		mov	r2, sp
 770:.\uart_wifi.c **** 		cBuf[3]=0x06; 	//滤芯级数	1	U8 (总级数)
 2042              		.loc 1 770 0
 2043 001e 0623     		mov	r3, #6
 2044 0020 D370     		strb	r3, [r2, #3]
 771:.\uart_wifi.c **** 		cBuf[4]=(jingshuiliang>>8); //总净水量	2	U16(现在总净水量)
 2045              		.loc 1 771 0
 2046 0022 154B     		ldr	r3, .L163+12
 2047 0024 6946     		mov	r1, sp
 2048 0026 1B88     		ldrh	r3, [r3]
 769:.\uart_wifi.c **** 		cBuf[2]=LianXuJiShi/600;  //工作状态	1	U8 见注2  
 2049              		.loc 1 769 0
 2050 0028 9070     		strb	r0, [r2, #2]
 772:.\uart_wifi.c **** 		cBuf[5]=jingshuiliang; 
 2051              		.loc 1 772 0
 2052 002a 4B71     		strb	r3, [r1, #5]
 771:.\uart_wifi.c **** 		cBuf[4]=(jingshuiliang>>8); //总净水量	2	U16(现在总净水量)
 2053              		.loc 1 771 0
 2054 002c 1A0A     		lsr	r2, r3, #8
 773:.\uart_wifi.c **** 		cBuf[6]=(Value_Tds0>>8); //TDS(原水)	2	U16(实际TDS值)
 2055              		.loc 1 773 0
 2056 002e 134B     		ldr	r3, .L163+16
 771:.\uart_wifi.c **** 		cBuf[4]=(jingshuiliang>>8); //总净水量	2	U16(现在总净水量)
 2057              		.loc 1 771 0
 2058 0030 0A71     		strb	r2, [r1, #4]
 2059              		.loc 1 773 0
 2060 0032 1B88     		ldrh	r3, [r3]
 774:.\uart_wifi.c **** 		cBuf[7]=Value_Tds0;
 775:.\uart_wifi.c **** 		cBuf[8]=(Value_Tds1_bak>>8); //TDS(净水)	2	U16(实际TDS值)
 776:.\uart_wifi.c **** 		cBuf[9]=Value_Tds1_bak; 
 777:.\uart_wifi.c **** 		cBuf[10]=Value_T; //温度	1	U8(实际温度值 
 778:.\uart_wifi.c **** 		cBuf[11]=(Value_Loushui_Ad>>8); //漏水	2	U16(实际AD值)
 779:.\uart_wifi.c **** 		cBuf[12]=Value_Loushui_Ad; 
 780:.\uart_wifi.c **** 		cBuf[13]=Switch_Data.all; //高、低压开关状态	1	U8 见注    
 781:.\uart_wifi.c **** 		SendDataToWifi(CTL_ACK_DATA,HOST_STATE_DATA,cBuf,14);
 2061              		.loc 1 781 0
 2062 0034 0020     		mov	r0, #0
 773:.\uart_wifi.c **** 		cBuf[6]=(Value_Tds0>>8); //TDS(原水)	2	U16(实际TDS值)
 2063              		.loc 1 773 0
ARM GAS  C:\Users\kevin\AppData\Local\Temp\ccrA27HJ.s 			page 53


 2064 0036 1A0A     		lsr	r2, r3, #8
 774:.\uart_wifi.c **** 		cBuf[7]=Value_Tds0;
 2065              		.loc 1 774 0
 2066 0038 CB71     		strb	r3, [r1, #7]
 775:.\uart_wifi.c **** 		cBuf[8]=(Value_Tds1_bak>>8); //TDS(净水)	2	U16(实际TDS值)
 2067              		.loc 1 775 0
 2068 003a 114B     		ldr	r3, .L163+20
 773:.\uart_wifi.c **** 		cBuf[6]=(Value_Tds0>>8); //TDS(原水)	2	U16(实际TDS值)
 2069              		.loc 1 773 0
 2070 003c 8A71     		strb	r2, [r1, #6]
 775:.\uart_wifi.c **** 		cBuf[8]=(Value_Tds1_bak>>8); //TDS(净水)	2	U16(实际TDS值)
 2071              		.loc 1 775 0
 2072 003e 1B88     		ldrh	r3, [r3]
 2073 0040 1A0A     		lsr	r2, r3, #8
 776:.\uart_wifi.c **** 		cBuf[9]=Value_Tds1_bak; 
 2074              		.loc 1 776 0
 2075 0042 4B72     		strb	r3, [r1, #9]
 777:.\uart_wifi.c **** 		cBuf[10]=Value_T; //温度	1	U8(实际温度值 
 2076              		.loc 1 777 0
 2077 0044 0F4B     		ldr	r3, .L163+24
 775:.\uart_wifi.c **** 		cBuf[8]=(Value_Tds1_bak>>8); //TDS(净水)	2	U16(实际TDS值)
 2078              		.loc 1 775 0
 2079 0046 0A72     		strb	r2, [r1, #8]
 777:.\uart_wifi.c **** 		cBuf[10]=Value_T; //温度	1	U8(实际温度值 
 2080              		.loc 1 777 0
 2081 0048 1B78     		ldrb	r3, [r3]
 2082 004a 8B72     		strb	r3, [r1, #10]
 778:.\uart_wifi.c **** 		cBuf[11]=(Value_Loushui_Ad>>8); //漏水	2	U16(实际AD值)
 2083              		.loc 1 778 0
 2084 004c 0E4B     		ldr	r3, .L163+28
 2085 004e 1B88     		ldrh	r3, [r3]
 2086 0050 1A0A     		lsr	r2, r3, #8
 779:.\uart_wifi.c **** 		cBuf[12]=Value_Loushui_Ad; 
 2087              		.loc 1 779 0
 2088 0052 0B73     		strb	r3, [r1, #12]
 780:.\uart_wifi.c **** 		cBuf[13]=Switch_Data.all; //高、低压开关状态	1	U8 见注    
 2089              		.loc 1 780 0
 2090 0054 0D4B     		ldr	r3, .L163+32
 778:.\uart_wifi.c **** 		cBuf[11]=(Value_Loushui_Ad>>8); //漏水	2	U16(实际AD值)
 2091              		.loc 1 778 0
 2092 0056 CA72     		strb	r2, [r1, #11]
 780:.\uart_wifi.c **** 		cBuf[13]=Switch_Data.all; //高、低压开关状态	1	U8 见注    
 2093              		.loc 1 780 0
 2094 0058 1B78     		ldrb	r3, [r3]
 2095              		.loc 1 781 0
 2096 005a 6A46     		mov	r2, sp
 780:.\uart_wifi.c **** 		cBuf[13]=Switch_Data.all; //高、低压开关状态	1	U8 见注    
 2097              		.loc 1 780 0
 2098 005c 4B73     		strb	r3, [r1, #13]
 2099              		.loc 1 781 0
 2100 005e 9021     		mov	r1, #144
 2101 0060 0902     		lsl	r1, r1, #8
 2102 0062 0E23     		mov	r3, #14
 2103 0064 FFF7FEFF 		bl	SendDataToWifi
 2104              	.LVL81:
 782:.\uart_wifi.c **** }
 2105              		.loc 1 782 0
ARM GAS  C:\Users\kevin\AppData\Local\Temp\ccrA27HJ.s 			page 54


 2106 0068 05B0     		add	sp, sp, #20
 2107              		@ sp needed
 2108 006a 00BD     		pop	{pc}
 2109              	.L164:
 2110              		.align	2
 2111              	.L163:
 2112 006c 00000000 		.word	Error_Counter
 2113 0070 00000000 		.word	Work_State
 2114 0074 00000000 		.word	LianXuJiShi
 2115 0078 00000000 		.word	jingshuiliang
 2116 007c 00000000 		.word	Value_Tds0
 2117 0080 00000000 		.word	Value_Tds1_bak
 2118 0084 00000000 		.word	Value_T
 2119 0088 00000000 		.word	Value_Loushui_Ad
 2120 008c 00000000 		.word	Switch_Data
 2121              		.cfi_endproc
 2122              	.LFE63:
 2123              		.size	Host_State_Data, .-Host_State_Data
 2124              		.section	.text.Host_Filter_Changed_Data,"ax",%progbits
 2125              		.align	1
 2126              		.global	Host_Filter_Changed_Data
 2127              		.code	16
 2128              		.thumb_func
 2129              		.type	Host_Filter_Changed_Data, %function
 2130              	Host_Filter_Changed_Data:
 2131              	.LFB64:
 783:.\uart_wifi.c **** 
 784:.\uart_wifi.c **** void Host_Filter_Changed_Data(void)
 785:.\uart_wifi.c **** {
 2132              		.loc 1 785 0
 2133              		.cfi_startproc
 2134 0000 07B5     		push	{r0, r1, r2, lr}
 2135              		.cfi_def_cfa_offset 16
 2136              		.cfi_offset 0, -16
 2137              		.cfi_offset 1, -12
 2138              		.cfi_offset 2, -8
 2139              		.cfi_offset 14, -4
 786:.\uart_wifi.c **** 	uint8 cBuf[8];
 787:.\uart_wifi.c **** 	cBuf[0]=0x06;  	//滤芯级数
 2140              		.loc 1 787 0
 2141 0002 0623     		mov	r3, #6
 2142 0004 6946     		mov	r1, sp
 2143 0006 0B70     		strb	r3, [r1]
 788:.\uart_wifi.c **** 	cBuf[1]=Change_Filter.all;  	
 2144              		.loc 1 788 0
 2145 0008 0B4B     		ldr	r3, .L166
 789:.\uart_wifi.c **** 	cBuf[2]=Filter_Changed_Num[0]; 
 790:.\uart_wifi.c **** 	cBuf[3]=Filter_Changed_Num[1]; 	
 791:.\uart_wifi.c **** 	cBuf[4]=Filter_Changed_Num[2];   
 792:.\uart_wifi.c **** 	cBuf[5]=Filter_Changed_Num[3];  
 793:.\uart_wifi.c **** 	cBuf[6]=Filter_Changed_Num[4]; 
 794:.\uart_wifi.c **** 	cBuf[7]=Filter_Changed_Num[5]; 
 795:.\uart_wifi.c **** 	SendDataToWifi(CTL_ACK_DATA,HOST_FILTER_CHANGED_DATA,cBuf,8);
 2146              		.loc 1 795 0
 2147 000a 0020     		mov	r0, #0
 788:.\uart_wifi.c **** 	cBuf[1]=Change_Filter.all;  	
 2148              		.loc 1 788 0
ARM GAS  C:\Users\kevin\AppData\Local\Temp\ccrA27HJ.s 			page 55


 2149 000c 1B78     		ldrb	r3, [r3]
 796:.\uart_wifi.c **** }
 2150              		.loc 1 796 0
 2151              		@ sp needed
 788:.\uart_wifi.c **** 	cBuf[1]=Change_Filter.all;  	
 2152              		.loc 1 788 0
 2153 000e 4B70     		strb	r3, [r1, #1]
 789:.\uart_wifi.c **** 	cBuf[2]=Filter_Changed_Num[0]; 
 2154              		.loc 1 789 0
 2155 0010 0A4B     		ldr	r3, .L166+4
 2156 0012 1A78     		ldrb	r2, [r3]
 2157 0014 8A70     		strb	r2, [r1, #2]
 790:.\uart_wifi.c **** 	cBuf[3]=Filter_Changed_Num[1]; 	
 2158              		.loc 1 790 0
 2159 0016 5A78     		ldrb	r2, [r3, #1]
 2160 0018 CA70     		strb	r2, [r1, #3]
 791:.\uart_wifi.c **** 	cBuf[4]=Filter_Changed_Num[2];   
 2161              		.loc 1 791 0
 2162 001a 9A78     		ldrb	r2, [r3, #2]
 2163 001c 0A71     		strb	r2, [r1, #4]
 792:.\uart_wifi.c **** 	cBuf[5]=Filter_Changed_Num[3];  
 2164              		.loc 1 792 0
 2165 001e DA78     		ldrb	r2, [r3, #3]
 2166 0020 4A71     		strb	r2, [r1, #5]
 793:.\uart_wifi.c **** 	cBuf[6]=Filter_Changed_Num[4]; 
 2167              		.loc 1 793 0
 2168 0022 1A79     		ldrb	r2, [r3, #4]
 2169 0024 8A71     		strb	r2, [r1, #6]
 794:.\uart_wifi.c **** 	cBuf[7]=Filter_Changed_Num[5]; 
 2170              		.loc 1 794 0
 2171 0026 5B79     		ldrb	r3, [r3, #5]
 795:.\uart_wifi.c **** 	SendDataToWifi(CTL_ACK_DATA,HOST_FILTER_CHANGED_DATA,cBuf,8);
 2172              		.loc 1 795 0
 2173 0028 6A46     		mov	r2, sp
 794:.\uart_wifi.c **** 	cBuf[7]=Filter_Changed_Num[5]; 
 2174              		.loc 1 794 0
 2175 002a CB71     		strb	r3, [r1, #7]
 795:.\uart_wifi.c **** 	SendDataToWifi(CTL_ACK_DATA,HOST_FILTER_CHANGED_DATA,cBuf,8);
 2176              		.loc 1 795 0
 2177 002c 0449     		ldr	r1, .L166+8
 2178 002e 0823     		mov	r3, #8
 2179 0030 FFF7FEFF 		bl	SendDataToWifi
 2180              	.LVL82:
 2181              		.loc 1 796 0
 2182 0034 07BD     		pop	{r0, r1, r2, pc}
 2183              	.L167:
 2184 0036 C046     		.align	2
 2185              	.L166:
 2186 0038 00000000 		.word	Change_Filter
 2187 003c 00000000 		.word	Filter_Changed_Num
 2188 0040 01900000 		.word	36865
 2189              		.cfi_endproc
 2190              	.LFE64:
 2191              		.size	Host_Filter_Changed_Data, .-Host_Filter_Changed_Data
 2192              		.section	.text.Host_Filter_Used_Time_Data,"ax",%progbits
 2193              		.align	1
 2194              		.global	Host_Filter_Used_Time_Data
ARM GAS  C:\Users\kevin\AppData\Local\Temp\ccrA27HJ.s 			page 56


 2195              		.code	16
 2196              		.thumb_func
 2197              		.type	Host_Filter_Used_Time_Data, %function
 2198              	Host_Filter_Used_Time_Data:
 2199              	.LFB65:
 797:.\uart_wifi.c **** void Host_Filter_Used_Time_Data(void)
 798:.\uart_wifi.c **** {
 2200              		.loc 1 798 0
 2201              		.cfi_startproc
 2202 0000 1FB5     		push	{r0, r1, r2, r3, r4, lr}
 2203              		.cfi_def_cfa_offset 24
 2204              		.cfi_offset 0, -24
 2205              		.cfi_offset 1, -20
 2206              		.cfi_offset 2, -16
 2207              		.cfi_offset 3, -12
 2208              		.cfi_offset 4, -8
 2209              		.cfi_offset 14, -4
 799:.\uart_wifi.c **** 	uint8 cBuf[14];
 800:.\uart_wifi.c **** 	cBuf[0]=0x06;  	//滤芯级数
 2210              		.loc 1 800 0
 2211 0002 0623     		mov	r3, #6
 2212 0004 6846     		mov	r0, sp
 2213 0006 0370     		strb	r3, [r0]
 801:.\uart_wifi.c **** 	cBuf[1]=(LvxinJishi[0]>>8);  	//滤芯数据0	2	U16(实际滤芯使用时间值)
 2214              		.loc 1 801 0
 2215 0008 104B     		ldr	r3, .L169
 2216 000a 1A88     		ldrh	r2, [r3]
 2217 000c 110A     		lsr	r1, r2, #8
 2218 000e 4170     		strb	r1, [r0, #1]
 802:.\uart_wifi.c **** 	cBuf[2]=LvxinJishi[0];
 2219              		.loc 1 802 0
 2220 0010 8270     		strb	r2, [r0, #2]
 803:.\uart_wifi.c **** 	cBuf[3]=(LvxinJishi[1]>>8);  	//滤芯数据0	2	U16(实际滤芯使用时间值)
 2221              		.loc 1 803 0
 2222 0012 5A88     		ldrh	r2, [r3, #2]
 2223 0014 110A     		lsr	r1, r2, #8
 2224 0016 C170     		strb	r1, [r0, #3]
 804:.\uart_wifi.c **** 	cBuf[4]=LvxinJishi[1];
 2225              		.loc 1 804 0
 2226 0018 0271     		strb	r2, [r0, #4]
 805:.\uart_wifi.c **** 	cBuf[5]=(LvxinJishi[2]>>8);  	//滤芯数据0	2	U16(实际滤芯使用时间值)
 2227              		.loc 1 805 0
 2228 001a 9A88     		ldrh	r2, [r3, #4]
 2229 001c 110A     		lsr	r1, r2, #8
 2230 001e 4171     		strb	r1, [r0, #5]
 806:.\uart_wifi.c **** 	cBuf[6]=LvxinJishi[2];
 2231              		.loc 1 806 0
 2232 0020 8271     		strb	r2, [r0, #6]
 807:.\uart_wifi.c **** 	cBuf[7]=(LvxinJishi[3]>>8);  	//滤芯数据0	2	U16(实际滤芯使用时间值)
 2233              		.loc 1 807 0
 2234 0022 DA88     		ldrh	r2, [r3, #6]
 2235 0024 110A     		lsr	r1, r2, #8
 2236 0026 C171     		strb	r1, [r0, #7]
 808:.\uart_wifi.c **** 	cBuf[8]=LvxinJishi[3]; 
 2237              		.loc 1 808 0
 2238 0028 0272     		strb	r2, [r0, #8]
 809:.\uart_wifi.c **** 	cBuf[9]=(LvxinJishi[4]>>8);  	//滤芯数据0	2	U16(实际滤芯使用时间值)
ARM GAS  C:\Users\kevin\AppData\Local\Temp\ccrA27HJ.s 			page 57


 2239              		.loc 1 809 0
 2240 002a 1A89     		ldrh	r2, [r3, #8]
 2241 002c 110A     		lsr	r1, r2, #8
 2242 002e 4172     		strb	r1, [r0, #9]
 810:.\uart_wifi.c **** 	cBuf[10]=LvxinJishi[4]; 
 2243              		.loc 1 810 0
 2244 0030 8272     		strb	r2, [r0, #10]
 811:.\uart_wifi.c **** 	cBuf[11]=(LvxinJishi[5]>>8);  	//滤芯数据0	2	U16(实际滤芯使用时间值)
 2245              		.loc 1 811 0
 2246 0032 5B89     		ldrh	r3, [r3, #10]
 812:.\uart_wifi.c **** 	cBuf[12]=LvxinJishi[5]; 
 813:.\uart_wifi.c **** 	SendDataToWifi(CTL_ACK_DATA,HOST_FILTER_USED_TIME_DATA,cBuf,13);
 2247              		.loc 1 813 0
 2248 0034 0649     		ldr	r1, .L169+4
 811:.\uart_wifi.c **** 	cBuf[11]=(LvxinJishi[5]>>8);  	//滤芯数据0	2	U16(实际滤芯使用时间值)
 2249              		.loc 1 811 0
 2250 0036 1A0A     		lsr	r2, r3, #8
 2251 0038 C272     		strb	r2, [r0, #11]
 812:.\uart_wifi.c **** 	cBuf[12]=LvxinJishi[5]; 
 2252              		.loc 1 812 0
 2253 003a 0373     		strb	r3, [r0, #12]
 2254              		.loc 1 813 0
 2255 003c 6A46     		mov	r2, sp
 2256 003e 0020     		mov	r0, #0
 2257 0040 0D23     		mov	r3, #13
 2258 0042 FFF7FEFF 		bl	SendDataToWifi
 2259              	.LVL83:
 814:.\uart_wifi.c **** }
 2260              		.loc 1 814 0
 2261 0046 05B0     		add	sp, sp, #20
 2262              		@ sp needed
 2263 0048 00BD     		pop	{pc}
 2264              	.L170:
 2265 004a C046     		.align	2
 2266              	.L169:
 2267 004c 00000000 		.word	LvxinJishi
 2268 0050 02900000 		.word	36866
 2269              		.cfi_endproc
 2270              	.LFE65:
 2271              		.size	Host_Filter_Used_Time_Data, .-Host_Filter_Used_Time_Data
 2272              		.section	.text.Host_E0_Data,"ax",%progbits
 2273              		.align	1
 2274              		.global	Host_E0_Data
 2275              		.code	16
 2276              		.thumb_func
 2277              		.type	Host_E0_Data, %function
 2278              	Host_E0_Data:
 2279              	.LFB66:
 815:.\uart_wifi.c **** 
 816:.\uart_wifi.c **** void Host_E0_Data(void)
 817:.\uart_wifi.c **** {
 2280              		.loc 1 817 0
 2281              		.cfi_startproc
 2282 0000 08B5     		push	{r3, lr}
 2283              		.cfi_def_cfa_offset 8
 2284              		.cfi_offset 3, -8
 2285              		.cfi_offset 14, -4
ARM GAS  C:\Users\kevin\AppData\Local\Temp\ccrA27HJ.s 			page 58


 818:.\uart_wifi.c **** 	 SendDataToWifi(CTL_ACK_DATA,HOST_E0_DATA,0,0);		
 2286              		.loc 1 818 0
 2287 0002 0020     		mov	r0, #0
 2288 0004 0249     		ldr	r1, .L172
 2289 0006 021C     		mov	r2, r0
 2290 0008 031C     		mov	r3, r0
 2291 000a FFF7FEFF 		bl	SendDataToWifi
 2292              	.LVL84:
 819:.\uart_wifi.c **** }
 2293              		.loc 1 819 0
 2294              		@ sp needed
 2295 000e 08BD     		pop	{r3, pc}
 2296              	.L173:
 2297              		.align	2
 2298              	.L172:
 2299 0010 F0900000 		.word	37104
 2300              		.cfi_endproc
 2301              	.LFE66:
 2302              		.size	Host_E0_Data, .-Host_E0_Data
 2303              		.section	.text.Host_E1_Data,"ax",%progbits
 2304              		.align	1
 2305              		.global	Host_E1_Data
 2306              		.code	16
 2307              		.thumb_func
 2308              		.type	Host_E1_Data, %function
 2309              	Host_E1_Data:
 2310              	.LFB67:
 820:.\uart_wifi.c **** void Host_E1_Data(void)
 821:.\uart_wifi.c **** {
 2311              		.loc 1 821 0
 2312              		.cfi_startproc
 2313 0000 08B5     		push	{r3, lr}
 2314              		.cfi_def_cfa_offset 8
 2315              		.cfi_offset 3, -8
 2316              		.cfi_offset 14, -4
 822:.\uart_wifi.c **** 	 SendDataToWifi(CTL_ACK_DATA,HOST_E1_DATA,0,0);		
 2317              		.loc 1 822 0
 2318 0002 0020     		mov	r0, #0
 2319 0004 0249     		ldr	r1, .L175
 2320 0006 021C     		mov	r2, r0
 2321 0008 031C     		mov	r3, r0
 2322 000a FFF7FEFF 		bl	SendDataToWifi
 2323              	.LVL85:
 823:.\uart_wifi.c **** }
 2324              		.loc 1 823 0
 2325              		@ sp needed
 2326 000e 08BD     		pop	{r3, pc}
 2327              	.L176:
 2328              		.align	2
 2329              	.L175:
 2330 0010 F1900000 		.word	37105
 2331              		.cfi_endproc
 2332              	.LFE67:
 2333              		.size	Host_E1_Data, .-Host_E1_Data
 2334              		.section	.text.Host_E2_Data,"ax",%progbits
 2335              		.align	1
 2336              		.global	Host_E2_Data
ARM GAS  C:\Users\kevin\AppData\Local\Temp\ccrA27HJ.s 			page 59


 2337              		.code	16
 2338              		.thumb_func
 2339              		.type	Host_E2_Data, %function
 2340              	Host_E2_Data:
 2341              	.LFB68:
 824:.\uart_wifi.c **** void Host_E2_Data (void)
 825:.\uart_wifi.c **** {
 2342              		.loc 1 825 0
 2343              		.cfi_startproc
 2344 0000 08B5     		push	{r3, lr}
 2345              		.cfi_def_cfa_offset 8
 2346              		.cfi_offset 3, -8
 2347              		.cfi_offset 14, -4
 826:.\uart_wifi.c **** 	 SendDataToWifi(CTL_ACK_DATA,HOST_E2_DATA,0,0);		
 2348              		.loc 1 826 0
 2349 0002 0020     		mov	r0, #0
 2350 0004 0249     		ldr	r1, .L178
 2351 0006 021C     		mov	r2, r0
 2352 0008 031C     		mov	r3, r0
 2353 000a FFF7FEFF 		bl	SendDataToWifi
 2354              	.LVL86:
 827:.\uart_wifi.c **** }
 2355              		.loc 1 827 0
 2356              		@ sp needed
 2357 000e 08BD     		pop	{r3, pc}
 2358              	.L179:
 2359              		.align	2
 2360              	.L178:
 2361 0010 F2900000 		.word	37106
 2362              		.cfi_endproc
 2363              	.LFE68:
 2364              		.size	Host_E2_Data, .-Host_E2_Data
 2365              		.section	.text.Host_E3_Data,"ax",%progbits
 2366              		.align	1
 2367              		.global	Host_E3_Data
 2368              		.code	16
 2369              		.thumb_func
 2370              		.type	Host_E3_Data, %function
 2371              	Host_E3_Data:
 2372              	.LFB69:
 828:.\uart_wifi.c **** void Host_E3_Data(void)
 829:.\uart_wifi.c **** {
 2373              		.loc 1 829 0
 2374              		.cfi_startproc
 2375 0000 08B5     		push	{r3, lr}
 2376              		.cfi_def_cfa_offset 8
 2377              		.cfi_offset 3, -8
 2378              		.cfi_offset 14, -4
 830:.\uart_wifi.c **** 	 SendDataToWifi(CTL_ACK_DATA,HOST_E3_DATA,0,0);		
 2379              		.loc 1 830 0
 2380 0002 0020     		mov	r0, #0
 2381 0004 0249     		ldr	r1, .L181
 2382 0006 021C     		mov	r2, r0
 2383 0008 031C     		mov	r3, r0
 2384 000a FFF7FEFF 		bl	SendDataToWifi
 2385              	.LVL87:
 831:.\uart_wifi.c **** }
ARM GAS  C:\Users\kevin\AppData\Local\Temp\ccrA27HJ.s 			page 60


 2386              		.loc 1 831 0
 2387              		@ sp needed
 2388 000e 08BD     		pop	{r3, pc}
 2389              	.L182:
 2390              		.align	2
 2391              	.L181:
 2392 0010 F3900000 		.word	37107
 2393              		.cfi_endproc
 2394              	.LFE69:
 2395              		.size	Host_E3_Data, .-Host_E3_Data
 2396              		.section	.text.Host_E4_Data,"ax",%progbits
 2397              		.align	1
 2398              		.global	Host_E4_Data
 2399              		.code	16
 2400              		.thumb_func
 2401              		.type	Host_E4_Data, %function
 2402              	Host_E4_Data:
 2403              	.LFB70:
 832:.\uart_wifi.c **** void Host_E4_Data(void)
 833:.\uart_wifi.c **** {
 2404              		.loc 1 833 0
 2405              		.cfi_startproc
 2406 0000 08B5     		push	{r3, lr}
 2407              		.cfi_def_cfa_offset 8
 2408              		.cfi_offset 3, -8
 2409              		.cfi_offset 14, -4
 834:.\uart_wifi.c **** 	 SendDataToWifi(CTL_ACK_DATA,HOST_E4_DATA,0,0);		
 2410              		.loc 1 834 0
 2411 0002 0020     		mov	r0, #0
 2412 0004 0249     		ldr	r1, .L184
 2413 0006 021C     		mov	r2, r0
 2414 0008 031C     		mov	r3, r0
 2415 000a FFF7FEFF 		bl	SendDataToWifi
 2416              	.LVL88:
 835:.\uart_wifi.c **** }
 2417              		.loc 1 835 0
 2418              		@ sp needed
 2419 000e 08BD     		pop	{r3, pc}
 2420              	.L185:
 2421              		.align	2
 2422              	.L184:
 2423 0010 F4900000 		.word	37108
 2424              		.cfi_endproc
 2425              	.LFE70:
 2426              		.size	Host_E4_Data, .-Host_E4_Data
 2427              		.section	.text.Host_E5_Data,"ax",%progbits
 2428              		.align	1
 2429              		.global	Host_E5_Data
 2430              		.code	16
 2431              		.thumb_func
 2432              		.type	Host_E5_Data, %function
 2433              	Host_E5_Data:
 2434              	.LFB71:
 836:.\uart_wifi.c **** void Host_E5_Data(void)
 837:.\uart_wifi.c **** {
 2435              		.loc 1 837 0
 2436              		.cfi_startproc
ARM GAS  C:\Users\kevin\AppData\Local\Temp\ccrA27HJ.s 			page 61


 2437 0000 08B5     		push	{r3, lr}
 2438              		.cfi_def_cfa_offset 8
 2439              		.cfi_offset 3, -8
 2440              		.cfi_offset 14, -4
 838:.\uart_wifi.c **** 	 SendDataToWifi(CTL_ACK_DATA,HOST_E5_DATA,0,0);		
 2441              		.loc 1 838 0
 2442 0002 0020     		mov	r0, #0
 2443 0004 0249     		ldr	r1, .L187
 2444 0006 021C     		mov	r2, r0
 2445 0008 031C     		mov	r3, r0
 2446 000a FFF7FEFF 		bl	SendDataToWifi
 2447              	.LVL89:
 839:.\uart_wifi.c **** }
 2448              		.loc 1 839 0
 2449              		@ sp needed
 2450 000e 08BD     		pop	{r3, pc}
 2451              	.L188:
 2452              		.align	2
 2453              	.L187:
 2454 0010 F5900000 		.word	37109
 2455              		.cfi_endproc
 2456              	.LFE71:
 2457              		.size	Host_E5_Data, .-Host_E5_Data
 2458              		.section	.text.Host_E6_Data,"ax",%progbits
 2459              		.align	1
 2460              		.global	Host_E6_Data
 2461              		.code	16
 2462              		.thumb_func
 2463              		.type	Host_E6_Data, %function
 2464              	Host_E6_Data:
 2465              	.LFB72:
 840:.\uart_wifi.c **** void Host_E6_Data(void)
 841:.\uart_wifi.c **** {
 2466              		.loc 1 841 0
 2467              		.cfi_startproc
 2468 0000 08B5     		push	{r3, lr}
 2469              		.cfi_def_cfa_offset 8
 2470              		.cfi_offset 3, -8
 2471              		.cfi_offset 14, -4
 842:.\uart_wifi.c **** 	 SendDataToWifi(CTL_ACK_DATA,HOST_E6_DATA,0,0);		
 2472              		.loc 1 842 0
 2473 0002 0020     		mov	r0, #0
 2474 0004 0249     		ldr	r1, .L190
 2475 0006 021C     		mov	r2, r0
 2476 0008 031C     		mov	r3, r0
 2477 000a FFF7FEFF 		bl	SendDataToWifi
 2478              	.LVL90:
 843:.\uart_wifi.c **** }
 2479              		.loc 1 843 0
 2480              		@ sp needed
 2481 000e 08BD     		pop	{r3, pc}
 2482              	.L191:
 2483              		.align	2
 2484              	.L190:
 2485 0010 F6900000 		.word	37110
 2486              		.cfi_endproc
 2487              	.LFE72:
ARM GAS  C:\Users\kevin\AppData\Local\Temp\ccrA27HJ.s 			page 62


 2488              		.size	Host_E6_Data, .-Host_E6_Data
 2489              		.section	.text.Host_E7_Data,"ax",%progbits
 2490              		.align	1
 2491              		.global	Host_E7_Data
 2492              		.code	16
 2493              		.thumb_func
 2494              		.type	Host_E7_Data, %function
 2495              	Host_E7_Data:
 2496              	.LFB73:
 844:.\uart_wifi.c **** void Host_E7_Data(void)
 845:.\uart_wifi.c **** {
 2497              		.loc 1 845 0
 2498              		.cfi_startproc
 2499 0000 08B5     		push	{r3, lr}
 2500              		.cfi_def_cfa_offset 8
 2501              		.cfi_offset 3, -8
 2502              		.cfi_offset 14, -4
 846:.\uart_wifi.c **** 	 SendDataToWifi(CTL_ACK_DATA,HOST_E7_DATA,0,0);		
 2503              		.loc 1 846 0
 2504 0002 0020     		mov	r0, #0
 2505 0004 0249     		ldr	r1, .L193
 2506 0006 021C     		mov	r2, r0
 2507 0008 031C     		mov	r3, r0
 2508 000a FFF7FEFF 		bl	SendDataToWifi
 2509              	.LVL91:
 847:.\uart_wifi.c **** }
 2510              		.loc 1 847 0
 2511              		@ sp needed
 2512 000e 08BD     		pop	{r3, pc}
 2513              	.L194:
 2514              		.align	2
 2515              	.L193:
 2516 0010 F7900000 		.word	37111
 2517              		.cfi_endproc
 2518              	.LFE73:
 2519              		.size	Host_E7_Data, .-Host_E7_Data
 2520              		.section	.text.Host_E8_Data,"ax",%progbits
 2521              		.align	1
 2522              		.global	Host_E8_Data
 2523              		.code	16
 2524              		.thumb_func
 2525              		.type	Host_E8_Data, %function
 2526              	Host_E8_Data:
 2527              	.LFB74:
 848:.\uart_wifi.c **** void Host_E8_Data(void)
 849:.\uart_wifi.c **** {
 2528              		.loc 1 849 0
 2529              		.cfi_startproc
 2530 0000 08B5     		push	{r3, lr}
 2531              		.cfi_def_cfa_offset 8
 2532              		.cfi_offset 3, -8
 2533              		.cfi_offset 14, -4
 850:.\uart_wifi.c **** 	 SendDataToWifi(CTL_ACK_DATA,HOST_E8_DATA,0,0);		
 2534              		.loc 1 850 0
 2535 0002 0020     		mov	r0, #0
 2536 0004 0249     		ldr	r1, .L196
 2537 0006 021C     		mov	r2, r0
ARM GAS  C:\Users\kevin\AppData\Local\Temp\ccrA27HJ.s 			page 63


 2538 0008 031C     		mov	r3, r0
 2539 000a FFF7FEFF 		bl	SendDataToWifi
 2540              	.LVL92:
 851:.\uart_wifi.c **** }
 2541              		.loc 1 851 0
 2542              		@ sp needed
 2543 000e 08BD     		pop	{r3, pc}
 2544              	.L197:
 2545              		.align	2
 2546              	.L196:
 2547 0010 F8900000 		.word	37112
 2548              		.cfi_endproc
 2549              	.LFE74:
 2550              		.size	Host_E8_Data, .-Host_E8_Data
 2551              		.section	.text.Host_E9_Data,"ax",%progbits
 2552              		.align	1
 2553              		.global	Host_E9_Data
 2554              		.code	16
 2555              		.thumb_func
 2556              		.type	Host_E9_Data, %function
 2557              	Host_E9_Data:
 2558              	.LFB75:
 852:.\uart_wifi.c **** void Host_E9_Data(void)
 853:.\uart_wifi.c **** {
 2559              		.loc 1 853 0
 2560              		.cfi_startproc
 2561 0000 08B5     		push	{r3, lr}
 2562              		.cfi_def_cfa_offset 8
 2563              		.cfi_offset 3, -8
 2564              		.cfi_offset 14, -4
 854:.\uart_wifi.c **** 	 SendDataToWifi(CTL_ACK_DATA,HOST_E9_DATA,0,0);		
 2565              		.loc 1 854 0
 2566 0002 0020     		mov	r0, #0
 2567 0004 0249     		ldr	r1, .L199
 2568 0006 021C     		mov	r2, r0
 2569 0008 031C     		mov	r3, r0
 2570 000a FFF7FEFF 		bl	SendDataToWifi
 2571              	.LVL93:
 855:.\uart_wifi.c **** }
 2572              		.loc 1 855 0
 2573              		@ sp needed
 2574 000e 08BD     		pop	{r3, pc}
 2575              	.L200:
 2576              		.align	2
 2577              	.L199:
 2578 0010 F9900000 		.word	37113
 2579              		.cfi_endproc
 2580              	.LFE75:
 2581              		.size	Host_E9_Data, .-Host_E9_Data
 2582              		.section	.text.Load_Command,"ax",%progbits
 2583              		.align	1
 2584              		.global	Load_Command
 2585              		.code	16
 2586              		.thumb_func
 2587              		.type	Load_Command, %function
 2588              	Load_Command:
 2589              	.LFB76:
ARM GAS  C:\Users\kevin\AppData\Local\Temp\ccrA27HJ.s 			page 64


 856:.\uart_wifi.c **** void Load_Command(uint16 icommand)
 857:.\uart_wifi.c **** { 
 2590              		.loc 1 857 0
 2591              		.cfi_startproc
 2592              	.LVL94:
 2593 0000 10B5     		push	{r4, lr}
 2594              		.cfi_def_cfa_offset 8
 2595              		.cfi_offset 4, -8
 2596              		.cfi_offset 14, -4
 858:.\uart_wifi.c **** 	if(Cmd_Function_Num<5) 
 2597              		.loc 1 858 0
 2598 0002 054A     		ldr	r2, .L203
 2599 0004 1378     		ldrb	r3, [r2]
 2600 0006 042B     		cmp	r3, #4
 2601 0008 04D8     		bhi	.L201
 859:.\uart_wifi.c **** 	{
 860:.\uart_wifi.c **** 		Cmd_Function_Buf[Cmd_Function_Num] = icommand;	
 2602              		.loc 1 860 0
 2603 000a 0449     		ldr	r1, .L203+4
 2604 000c 5C00     		lsl	r4, r3, #1
 861:.\uart_wifi.c **** 		Cmd_Function_Num++;
 2605              		.loc 1 861 0
 2606 000e 0133     		add	r3, r3, #1
 860:.\uart_wifi.c **** 		Cmd_Function_Buf[Cmd_Function_Num] = icommand;	
 2607              		.loc 1 860 0
 2608 0010 6052     		strh	r0, [r4, r1]
 2609              		.loc 1 861 0
 2610 0012 1370     		strb	r3, [r2]
 2611              	.L201:
 862:.\uart_wifi.c **** 	}
 863:.\uart_wifi.c **** 
 864:.\uart_wifi.c **** }
 2612              		.loc 1 864 0
 2613              		@ sp needed
 2614 0014 10BD     		pop	{r4, pc}
 2615              	.L204:
 2616 0016 C046     		.align	2
 2617              	.L203:
 2618 0018 00000000 		.word	Cmd_Function_Num
 2619 001c 00000000 		.word	Cmd_Function_Buf
 2620              		.cfi_endproc
 2621              	.LFE76:
 2622              		.size	Load_Command, .-Load_Command
 2623              		.section	.text.Load_Error,"ax",%progbits
 2624              		.align	1
 2625              		.global	Load_Error
 2626              		.code	16
 2627              		.thumb_func
 2628              		.type	Load_Error, %function
 2629              	Load_Error:
 2630              	.LFB77:
 865:.\uart_wifi.c **** void Load_Error(uint16 icommand)
 866:.\uart_wifi.c **** { 
 2631              		.loc 1 866 0
 2632              		.cfi_startproc
 2633              	.LVL95:
 2634 0000 10B5     		push	{r4, lr}
ARM GAS  C:\Users\kevin\AppData\Local\Temp\ccrA27HJ.s 			page 65


 2635              		.cfi_def_cfa_offset 8
 2636              		.cfi_offset 4, -8
 2637              		.cfi_offset 14, -4
 867:.\uart_wifi.c **** 	if(Error_Counter<8) 
 2638              		.loc 1 867 0
 2639 0002 054A     		ldr	r2, .L207
 2640 0004 1378     		ldrb	r3, [r2]
 2641 0006 072B     		cmp	r3, #7
 2642 0008 04D8     		bhi	.L205
 868:.\uart_wifi.c **** 	{
 869:.\uart_wifi.c **** 		Error_Data_Buf[Error_Counter] = icommand;	
 2643              		.loc 1 869 0
 2644 000a 0449     		ldr	r1, .L207+4
 2645 000c 5C00     		lsl	r4, r3, #1
 870:.\uart_wifi.c **** 		Error_Counter++;
 2646              		.loc 1 870 0
 2647 000e 0133     		add	r3, r3, #1
 869:.\uart_wifi.c **** 		Error_Data_Buf[Error_Counter] = icommand;	
 2648              		.loc 1 869 0
 2649 0010 6052     		strh	r0, [r4, r1]
 2650              		.loc 1 870 0
 2651 0012 1370     		strb	r3, [r2]
 2652              	.L205:
 871:.\uart_wifi.c **** 	}
 872:.\uart_wifi.c **** }
 2653              		.loc 1 872 0
 2654              		@ sp needed
 2655 0014 10BD     		pop	{r4, pc}
 2656              	.L208:
 2657 0016 C046     		.align	2
 2658              	.L207:
 2659 0018 00000000 		.word	Error_Counter
 2660 001c 00000000 		.word	Error_Data_Buf
 2661              		.cfi_endproc
 2662              	.LFE77:
 2663              		.size	Load_Error, .-Load_Error
 2664              		.section	.text.Uart_Exception_Handl,"ax",%progbits
 2665              		.align	1
 2666              		.global	Uart_Exception_Handl
 2667              		.code	16
 2668              		.thumb_func
 2669              		.type	Uart_Exception_Handl, %function
 2670              	Uart_Exception_Handl:
 2671              	.LFB78:
 873:.\uart_wifi.c **** /******************************************************************************
 874:.\uart_wifi.c **** * 函 数 名: Uart_Exception_Handl(void)
 875:.\uart_wifi.c **** * 函数功能: 完成超时重发等异常处理
 876:.\uart_wifi.c **** * 入口参数: 无
 877:.\uart_wifi.c **** * 返    回: 
 878:.\uart_wifi.c **** *******************************************************************************/
 879:.\uart_wifi.c **** void Uart_Exception_Handl(void)
 880:.\uart_wifi.c **** {
 2672              		.loc 1 880 0
 2673              		.cfi_startproc
 881:.\uart_wifi.c **** 	if(WifidatagramWorkFlag.uart_ack)
 2674              		.loc 1 881 0
 2675 0000 054B     		ldr	r3, .L214
ARM GAS  C:\Users\kevin\AppData\Local\Temp\ccrA27HJ.s 			page 66


 2676 0002 1A78     		ldrb	r2, [r3]
 2677 0004 5107     		lsl	r1, r2, #29
 2678 0006 06D5     		bpl	.L209
 882:.\uart_wifi.c **** 		{
 883:.\uart_wifi.c **** 		  if(Ack_Timer==0)
 2679              		.loc 1 883 0
 2680 0008 0449     		ldr	r1, .L214+4
 2681 000a 0978     		ldrb	r1, [r1]
 2682 000c 0029     		cmp	r1, #0
 2683 000e 02D1     		bne	.L209
 884:.\uart_wifi.c **** 				{
 885:.\uart_wifi.c **** 				 	WifidatagramWorkFlag.send_data_load= 1;
 2684              		.loc 1 885 0
 2685 0010 0121     		mov	r1, #1
 2686 0012 0A43     		orr	r2, r1
 2687 0014 1A70     		strb	r2, [r3]
 2688              	.L209:
 886:.\uart_wifi.c **** 				}
 887:.\uart_wifi.c **** 		} 
 888:.\uart_wifi.c **** }
 2689              		.loc 1 888 0
 2690              		@ sp needed
 2691 0016 7047     		bx	lr
 2692              	.L215:
 2693              		.align	2
 2694              	.L214:
 2695 0018 00000000 		.word	WifidatagramWorkFlag
 2696 001c 00000000 		.word	Ack_Timer
 2697              		.cfi_endproc
 2698              	.LFE78:
 2699              		.size	Uart_Exception_Handl, .-Uart_Exception_Handl
 2700              		.section	.text.Send_To_WifiUart,"ax",%progbits
 2701              		.align	1
 2702              		.global	Send_To_WifiUart
 2703              		.code	16
 2704              		.thumb_func
 2705              		.type	Send_To_WifiUart, %function
 2706              	Send_To_WifiUart:
 2707              	.LFB79:
 889:.\uart_wifi.c **** /******************************************************************************
 890:.\uart_wifi.c **** * 函 数 名: Send_Uart(void)
 891:.\uart_wifi.c **** * 函数功能: 串口发送程序
 892:.\uart_wifi.c **** * 入口参数: 无
 893:.\uart_wifi.c **** * 返    回: 
 894:.\uart_wifi.c **** *******************************************************************************/
 895:.\uart_wifi.c **** void Send_To_WifiUart(void)
 896:.\uart_wifi.c **** {
 2708              		.loc 1 896 0
 2709              		.cfi_startproc
 897:.\uart_wifi.c ****   uint8 i; 
 898:.\uart_wifi.c **** 	if((!WifidatagramWorkFlag.uart_ack)&&(!WifidatagramWorkFlag.flag_Uart_Work)&&(Send_Interval_Counte
 2710              		.loc 1 898 0
 2711 0000 334B     		ldr	r3, .L240
 2712 0002 0C22     		mov	r2, #12
 2713 0004 1978     		ldrb	r1, [r3]
 896:.\uart_wifi.c **** {
 2714              		.loc 1 896 0
ARM GAS  C:\Users\kevin\AppData\Local\Temp\ccrA27HJ.s 			page 67


 2715 0006 70B5     		push	{r4, r5, r6, lr}
 2716              		.cfi_def_cfa_offset 16
 2717              		.cfi_offset 4, -16
 2718              		.cfi_offset 5, -12
 2719              		.cfi_offset 6, -8
 2720              		.cfi_offset 14, -4
 2721              		.loc 1 898 0
 2722 0008 1142     		tst	r1, r2
 2723 000a 1ED1     		bne	.L217
 2724              		.loc 1 898 0 is_stmt 0 discriminator 1
 2725 000c 314A     		ldr	r2, .L240+4
 2726 000e 1278     		ldrb	r2, [r2]
 2727 0010 002A     		cmp	r2, #0
 2728 0012 1AD1     		bne	.L217
 899:.\uart_wifi.c **** 		{
 900:.\uart_wifi.c **** 			 if(Cmd_Function_Num>0)
 2729              		.loc 1 900 0 is_stmt 1
 2730 0014 304D     		ldr	r5, .L240+8
 2731 0016 2978     		ldrb	r1, [r5]
 2732 0018 0029     		cmp	r1, #0
 2733 001a 16D0     		beq	.L217
 901:.\uart_wifi.c **** 	  		 { 
 902:.\uart_wifi.c **** 	  		   Cmd_Function = Cmd_Function_Buf[0];
 2734              		.loc 1 902 0
 2735 001c 2F4C     		ldr	r4, .L240+12
 2736 001e 3048     		ldr	r0, .L240+16
 2737 0020 2688     		ldrh	r6, [r4]
 2738 0022 0680     		strh	r6, [r0]
 903:.\uart_wifi.c **** 	  			 Cmd_Function_Num--;
 2739              		.loc 1 903 0
 2740 0024 481E     		sub	r0, r1, #1
 2741 0026 C0B2     		uxtb	r0, r0
 2742 0028 2870     		strb	r0, [r5]
 904:.\uart_wifi.c **** 	  			 if(Cmd_Function_Num>0)
 2743              		.loc 1 904 0
 2744 002a 0028     		cmp	r0, #0
 2745 002c 04D1     		bne	.L220
 2746              	.L219:
 905:.\uart_wifi.c **** 	  			 {
 906:.\uart_wifi.c **** 	  				 for(i=0;i<=Cmd_Function_Num;i++)
 907:.\uart_wifi.c **** 	  				 {
 908:.\uart_wifi.c **** 	  				     Cmd_Function_Buf[i] = Cmd_Function_Buf[i+1];	
 909:.\uart_wifi.c **** 	  				 }
 910:.\uart_wifi.c **** 	  			 }
 911:.\uart_wifi.c **** 	  			 WifidatagramWorkFlag.send_data_load = 1;		 	     
 2747              		.loc 1 911 0
 2748 002e 1A78     		ldrb	r2, [r3]
 2749 0030 0121     		mov	r1, #1
 2750 0032 0A43     		orr	r2, r1
 2751 0034 1A70     		strb	r2, [r3]
 2752 0036 08E0     		b	.L217
 2753              	.L220:
 2754              	.LVL96:
 908:.\uart_wifi.c **** 	  				     Cmd_Function_Buf[i] = Cmd_Function_Buf[i+1];	
 2755              		.loc 1 908 0 discriminator 2
 2756 0038 501C     		add	r0, r2, #1
 2757 003a 4500     		lsl	r5, r0, #1
ARM GAS  C:\Users\kevin\AppData\Local\Temp\ccrA27HJ.s 			page 68


 2758 003c 655B     		ldrh	r5, [r4, r5]
 2759 003e 5200     		lsl	r2, r2, #1
 2760              	.LVL97:
 2761 0040 A552     		strh	r5, [r4, r2]
 906:.\uart_wifi.c **** 	  				 for(i=0;i<=Cmd_Function_Num;i++)
 2762              		.loc 1 906 0 discriminator 2
 2763 0042 C2B2     		uxtb	r2, r0
 2764              	.LVL98:
 2765 0044 8A42     		cmp	r2, r1
 2766 0046 F7D1     		bne	.L220
 2767 0048 F1E7     		b	.L219
 2768              	.LVL99:
 2769              	.L217:
 912:.\uart_wifi.c **** 	  		 }
 913:.\uart_wifi.c **** 		}
 914:.\uart_wifi.c ****  	if(WifidatagramWorkFlag.send_data_load)
 2770              		.loc 1 914 0
 2771 004a 1A78     		ldrb	r2, [r3]
 2772 004c D107     		lsl	r1, r2, #31
 2773 004e 3DD5     		bpl	.L216
 915:.\uart_wifi.c **** 	 {
 916:.\uart_wifi.c **** 	   WifidatagramWorkFlag.send_data_load = 0;
 2774              		.loc 1 916 0
 2775 0050 0121     		mov	r1, #1
 2776 0052 8A43     		bic	r2, r1
 2777 0054 1A70     		strb	r2, [r3]
 917:.\uart_wifi.c **** 		 switch(Cmd_Function)
 2778              		.loc 1 917 0
 2779 0056 224B     		ldr	r3, .L240+16
 2780 0058 224A     		ldr	r2, .L240+20
 2781 005a 1B88     		ldrh	r3, [r3]
 2782 005c 9342     		cmp	r3, r2
 2783 005e 33D0     		beq	.L222
 2784 0060 13D8     		bhi	.L223
 2785 0062 9022     		mov	r2, #144
 2786 0064 1202     		lsl	r2, r2, #8
 2787 0066 9342     		cmp	r3, r2
 2788 0068 28D0     		beq	.L224
 2789 006a 05D8     		bhi	.L225
 2790 006c 1E4A     		ldr	r2, .L240+24
 2791 006e 9342     		cmp	r3, r2
 2792 0070 2CD1     		bne	.L216
 918:.\uart_wifi.c **** 		 {
 919:.\uart_wifi.c **** 			//发送握手信号
 920:.\uart_wifi.c **** 			case	MCU_HANDSHAKE_DATA:
 921:.\uart_wifi.c **** 				    Mcu_Handshake_Data();
 922:.\uart_wifi.c **** 				    break;
 923:.\uart_wifi.c **** 			//启动Smarklink
 924:.\uart_wifi.c **** 			case	MCU_POWERONSMARTLINK_DATA:	 				     
 925:.\uart_wifi.c **** 				    Mcu_Poweronsmartlink_Data();	     
 926:.\uart_wifi.c **** 			 	    break;
 927:.\uart_wifi.c **** 			case	MCU_FIRMWARE_UPDATE:  //设备要求固件升级
 928:.\uart_wifi.c **** 						Mcu_Firmware_Update();
 929:.\uart_wifi.c **** 			 			break;	 	
 930:.\uart_wifi.c **** 			case	HOST_STATE_DATA:
 931:.\uart_wifi.c **** 						Host_State_Data();	
 932:.\uart_wifi.c **** 						break;		
ARM GAS  C:\Users\kevin\AppData\Local\Temp\ccrA27HJ.s 			page 69


 933:.\uart_wifi.c **** 			case	HOST_FILTER_CHANGED_DATA:
 934:.\uart_wifi.c **** 						Host_Filter_Changed_Data();	
 935:.\uart_wifi.c **** 						break;	
 936:.\uart_wifi.c **** 			case	HOST_FILTER_USED_TIME_DATA:
 937:.\uart_wifi.c **** 						Host_Filter_Used_Time_Data();	
 938:.\uart_wifi.c **** 						break;
 939:.\uart_wifi.c **** 			case	MCU_CLEARALLUSERBOUND_DATA:
 940:.\uart_wifi.c **** 						Clean_All_User_Bound();
 2793              		.loc 1 940 0
 2794 0072 FFF7FEFF 		bl	Clean_All_User_Bound
 2795              	.LVL100:
 941:.\uart_wifi.c **** 						break;	
 2796              		.loc 1 941 0
 2797 0076 29E0     		b	.L216
 2798              	.L225:
 917:.\uart_wifi.c **** 		 switch(Cmd_Function)
 2799              		.loc 1 917 0
 2800 0078 1C4A     		ldr	r2, .L240+28
 2801 007a 9342     		cmp	r3, r2
 2802 007c 21D0     		beq	.L227
 2803 007e 1C4A     		ldr	r2, .L240+32
 2804 0080 9342     		cmp	r3, r2
 2805 0082 23D1     		bne	.L216
 937:.\uart_wifi.c **** 						Host_Filter_Used_Time_Data();	
 2806              		.loc 1 937 0
 2807 0084 FFF7FEFF 		bl	Host_Filter_Used_Time_Data
 2808              	.LVL101:
 938:.\uart_wifi.c **** 						break;
 2809              		.loc 1 938 0
 2810 0088 20E0     		b	.L216
 2811              	.L223:
 917:.\uart_wifi.c **** 		 switch(Cmd_Function)
 2812              		.loc 1 917 0
 2813 008a 1A4A     		ldr	r2, .L240+36
 2814 008c 9342     		cmp	r3, r2
 2815 008e 0FD0     		beq	.L229
 2816 0090 05D8     		bhi	.L230
 2817 0092 194A     		ldr	r2, .L240+40
 2818 0094 9342     		cmp	r3, r2
 2819 0096 19D1     		bne	.L216
 942:.\uart_wifi.c **** 			case HOST_E0_DATA:
 943:.\uart_wifi.c **** 			  	Host_E0_Data();			      
 944:.\uart_wifi.c **** 				  break;
 945:.\uart_wifi.c **** 			case HOST_E9_DATA:
 946:.\uart_wifi.c **** 			  	Host_E9_Data();			      
 2820              		.loc 1 946 0
 2821 0098 FFF7FEFF 		bl	Host_E9_Data
 2822              	.LVL102:
 947:.\uart_wifi.c **** 				  break;
 2823              		.loc 1 947 0
 2824 009c 16E0     		b	.L216
 2825              	.L230:
 917:.\uart_wifi.c **** 		 switch(Cmd_Function)
 2826              		.loc 1 917 0
 2827 009e 174A     		ldr	r2, .L240+44
 2828 00a0 9342     		cmp	r3, r2
 2829 00a2 08D0     		beq	.L232
ARM GAS  C:\Users\kevin\AppData\Local\Temp\ccrA27HJ.s 			page 70


 2830 00a4 164A     		ldr	r2, .L240+48
 2831 00a6 9342     		cmp	r3, r2
 2832 00a8 10D1     		bne	.L216
 928:.\uart_wifi.c **** 						Mcu_Firmware_Update();
 2833              		.loc 1 928 0
 2834 00aa FFF7FEFF 		bl	Mcu_Firmware_Update
 2835              	.LVL103:
 929:.\uart_wifi.c **** 			 			break;	 	
 2836              		.loc 1 929 0
 2837 00ae 0DE0     		b	.L216
 2838              	.L229:
 921:.\uart_wifi.c **** 				    Mcu_Handshake_Data();
 2839              		.loc 1 921 0
 2840 00b0 FFF7FEFF 		bl	Mcu_Handshake_Data
 2841              	.LVL104:
 922:.\uart_wifi.c **** 				    break;
 2842              		.loc 1 922 0
 2843 00b4 0AE0     		b	.L216
 2844              	.L232:
 925:.\uart_wifi.c **** 				    Mcu_Poweronsmartlink_Data();	     
 2845              		.loc 1 925 0
 2846 00b6 FFF7FEFF 		bl	Mcu_Poweronsmartlink_Data
 2847              	.LVL105:
 926:.\uart_wifi.c **** 			 	    break;
 2848              		.loc 1 926 0
 2849 00ba 07E0     		b	.L216
 2850              	.L224:
 931:.\uart_wifi.c **** 						Host_State_Data();	
 2851              		.loc 1 931 0
 2852 00bc FFF7FEFF 		bl	Host_State_Data
 2853              	.LVL106:
 932:.\uart_wifi.c **** 						break;		
 2854              		.loc 1 932 0
 2855 00c0 04E0     		b	.L216
 2856              	.L227:
 934:.\uart_wifi.c **** 						Host_Filter_Changed_Data();	
 2857              		.loc 1 934 0
 2858 00c2 FFF7FEFF 		bl	Host_Filter_Changed_Data
 2859              	.LVL107:
 935:.\uart_wifi.c **** 						break;	
 2860              		.loc 1 935 0
 2861 00c6 01E0     		b	.L216
 2862              	.L222:
 943:.\uart_wifi.c **** 			  	Host_E0_Data();			      
 2863              		.loc 1 943 0
 2864 00c8 FFF7FEFF 		bl	Host_E0_Data
 2865              	.LVL108:
 2866              	.L216:
 948:.\uart_wifi.c **** 			default:			 		 
 949:.\uart_wifi.c **** 				   break;
 950:.\uart_wifi.c **** 		 }		 		  
 951:.\uart_wifi.c **** 	 } 		 					
 952:.\uart_wifi.c **** }
 2867              		.loc 1 952 0
 2868              		@ sp needed
 2869 00cc 70BD     		pop	{r4, r5, r6, pc}
 2870              	.L241:
ARM GAS  C:\Users\kevin\AppData\Local\Temp\ccrA27HJ.s 			page 71


 2871 00ce C046     		.align	2
 2872              	.L240:
 2873 00d0 00000000 		.word	WifidatagramWorkFlag
 2874 00d4 00000000 		.word	Send_Interval_Counter
 2875 00d8 00000000 		.word	Cmd_Function_Num
 2876 00dc 00000000 		.word	Cmd_Function_Buf
 2877 00e0 00000000 		.word	Cmd_Function
 2878 00e4 F0900000 		.word	37104
 2879 00e8 01600000 		.word	24577
 2880 00ec 01900000 		.word	36865
 2881 00f0 02900000 		.word	36866
 2882 00f4 C0CC0000 		.word	52416
 2883 00f8 F9900000 		.word	37113
 2884 00fc C2CC0000 		.word	52418
 2885 0100 C5CC0000 		.word	52421
 2886              		.cfi_endproc
 2887              	.LFE79:
 2888              		.size	Send_To_WifiUart, .-Send_To_WifiUart
 2889              		.section	.text.Process_From_Wifi_Ctl_Ack_Data,"ax",%progbits
 2890              		.align	1
 2891              		.global	Process_From_Wifi_Ctl_Ack_Data
 2892              		.code	16
 2893              		.thumb_func
 2894              		.type	Process_From_Wifi_Ctl_Ack_Data, %function
 2895              	Process_From_Wifi_Ctl_Ack_Data:
 2896              	.LFB80:
 953:.\uart_wifi.c **** 
 954:.\uart_wifi.c **** 
 955:.\uart_wifi.c **** 
 956:.\uart_wifi.c **** 
 957:.\uart_wifi.c **** 
 958:.\uart_wifi.c **** 
 959:.\uart_wifi.c **** 
 960:.\uart_wifi.c **** /******************************************************************************
 961:.\uart_wifi.c **** * 函 数 名: void Process_From_Wifi_Ctl_Ack_Data(void)
 962:.\uart_wifi.c **** * 函数功能: app、服务器控制数据
 963:.\uart_wifi.c **** * 入口参数: 无
 964:.\uart_wifi.c **** * 返    回: 
 965:.\uart_wifi.c **** *******************************************************************************/
 966:.\uart_wifi.c **** void Process_From_Wifi_Ctl_Ack_Data(void)
 967:.\uart_wifi.c **** {
 2897              		.loc 1 967 0
 2898              		.cfi_startproc
 968:.\uart_wifi.c **** 	 if((WifiWorkFlag.gcReceComm1OK)&&(giWIFIDATALength<=(WIFIBUFLEN-10-1))) 
 2899              		.loc 1 968 0
 2900 0000 614B     		ldr	r3, .L267
 967:.\uart_wifi.c **** {
 2901              		.loc 1 967 0
 2902 0002 70B5     		push	{r4, r5, r6, lr}
 2903              		.cfi_def_cfa_offset 16
 2904              		.cfi_offset 4, -16
 2905              		.cfi_offset 5, -12
 2906              		.cfi_offset 6, -8
 2907              		.cfi_offset 14, -4
 2908              		.loc 1 968 0
 2909 0004 1A78     		ldrb	r2, [r3]
 2910 0006 5107     		lsl	r1, r2, #29
ARM GAS  C:\Users\kevin\AppData\Local\Temp\ccrA27HJ.s 			page 72


 2911 0008 00D4     		bmi	.LCB2378
 2912 000a BBE0     		b	.L242	@long jump
 2913              	.LCB2378:
 2914              		.loc 1 968 0 is_stmt 0 discriminator 1
 2915 000c 5F49     		ldr	r1, .L267+4
 2916 000e 0E88     		ldrh	r6, [r1]
 2917 0010 592E     		cmp	r6, #89
 2918 0012 00D9     		bls	.LCB2382
 2919 0014 B6E0     		b	.L242	@long jump
 2920              	.LCB2382:
 969:.\uart_wifi.c **** 	 {
 970:.\uart_wifi.c **** 	   WifiWorkFlag.gcReceComm1OK =0;
 971:.\uart_wifi.c **** 		 if(ATReceBuffer[0].gcATReceData[10+giWIFIDATALength]==Sum_Make_Verify (&ATReceBuffer[0].gcATRece
 2921              		.loc 1 971 0 is_stmt 1
 2922 0016 5E4C     		ldr	r4, .L267+8
 2923 0018 311C     		mov	r1, r6
 970:.\uart_wifi.c **** 	   WifiWorkFlag.gcReceComm1OK =0;
 2924              		.loc 1 970 0
 2925 001a 0425     		mov	r5, #4
 2926              		.loc 1 971 0
 2927 001c 0A31     		add	r1, r1, #10
 970:.\uart_wifi.c **** 	   WifiWorkFlag.gcReceComm1OK =0;
 2928              		.loc 1 970 0
 2929 001e AA43     		bic	r2, r5
 2930              		.loc 1 971 0
 2931 0020 89B2     		uxth	r1, r1
 2932 0022 201C     		mov	r0, r4
 970:.\uart_wifi.c **** 	   WifiWorkFlag.gcReceComm1OK =0;
 2933              		.loc 1 970 0
 2934 0024 1A70     		strb	r2, [r3]
 2935              		.loc 1 971 0
 2936 0026 FFF7FEFF 		bl	Sum_Make_Verify
 2937              	.LVL109:
 2938 002a A619     		add	r6, r4, r6
 2939 002c B37A     		ldrb	r3, [r6, #10]
 2940 002e 8342     		cmp	r3, r0
 2941 0030 00D0     		beq	.LCB2396
 2942 0032 A7E0     		b	.L242	@long jump
 2943              	.LCB2396:
 972:.\uart_wifi.c **** 		 {
 973:.\uart_wifi.c **** 
 974:.\uart_wifi.c **** 			 switch(giWIFICommand)
 2944              		.loc 1 974 0
 2945 0034 574B     		ldr	r3, .L267+12
 2946 0036 1B88     		ldrh	r3, [r3]
 2947 0038 B22B     		cmp	r3, #178
 2948 003a 58D0     		beq	.L246
 2949 003c 1BD8     		bhi	.L247
 2950 003e A22B     		cmp	r3, #162
 2951 0040 5ED0     		beq	.L248
 2952 0042 0ED8     		bhi	.L249
 2953 0044 A02B     		cmp	r3, #160
 2954 0046 00D1     		bne	.LCB2408
 2955 0048 94E0     		b	.L250	@long jump
 2956              	.LCB2408:
 2957 004a A12B     		cmp	r3, #161
 2958 004c 00D0     		beq	.LCB2410
ARM GAS  C:\Users\kevin\AppData\Local\Temp\ccrA27HJ.s 			page 73


 2959 004e 99E0     		b	.L242	@long jump
 2960              	.LCB2410:
 975:.\uart_wifi.c **** 			 {
 976:.\uart_wifi.c **** 			 	case 	WIFI_SENDDINGSTATE_DATA:			
 977:.\uart_wifi.c **** 			 				SmarkLink_State = ATReceBuffer[0].gcATReceData[10];         //获取当前状态
 978:.\uart_wifi.c ****               if((WIFI_SENDDINGSTATE_DATA_LINK_SERVER==SmarkLink_State)&&(Power_Buzfkg==0))	
 979:.\uart_wifi.c ****               	{
 980:.\uart_wifi.c ****               		Power_Buzfkg=1;								
 981:.\uart_wifi.c ****                 	BUZfkg=1;
 982:.\uart_wifi.c ****                 }
 983:.\uart_wifi.c **** 			 				Wifi_Senddingstate_Data();  		 				  					  					  					  					  					  					  				  					 
 984:.\uart_wifi.c **** 					  	break;
 985:.\uart_wifi.c **** 				case 	WIFI_FIRMWARE_UPDATE_DATA:	
 986:.\uart_wifi.c **** 							Wifi_Firmware_Update_Data(); 
 987:.\uart_wifi.c **** 							break;
 988:.\uart_wifi.c **** 				case 	WIFI_DECT_DATA:
 989:.\uart_wifi.c **** 							Wifi_Dect_Data();  	
 990:.\uart_wifi.c **** 							break;		
 991:.\uart_wifi.c **** 				case 	WIFI_FIRMWARE_HANDSHAKE_DATA:
 992:.\uart_wifi.c **** 							if(ATReceBuffer[0].gcATReceData[10]>Firmware_Version);         //获取当前状态
 993:.\uart_wifi.c **** 								{
 994:.\uart_wifi.c **** 									Firmware_Version=ATReceBuffer[0].gcATReceData[10];
 995:.\uart_wifi.c **** 									Firmware_Update=0xfe;
 996:.\uart_wifi.c **** 								}
 997:.\uart_wifi.c **** 							CyGlobalIntDisable;
 998:.\uart_wifi.c **** 			 				write();
 999:.\uart_wifi.c **** 			 				write1();  
1000:.\uart_wifi.c **** 			 				CyGlobalIntEnable;								
1001:.\uart_wifi.c **** 							Wifi_Firmware_Handshake_Data();
1002:.\uart_wifi.c **** 							firmwave_update_fig=1;
1003:.\uart_wifi.c **** 
1004:.\uart_wifi.c **** 							break; 									
1005:.\uart_wifi.c **** 			 	case  APP_HOST_STATE://APP查询设备工作状态指令	APP查询设备工作状态指令
1006:.\uart_wifi.c **** 			 				App_Host_State(); 
1007:.\uart_wifi.c **** 			 		 		break;	
1008:.\uart_wifi.c **** 				case  APP_FILTER_CHANGED_DATA: 						//0x00B2 //查询本机滤芯使用次数（n级）
1009:.\uart_wifi.c **** 							App_Filter_Changed_Data(); 
1010:.\uart_wifi.c **** 			 		 		break;
1011:.\uart_wifi.c **** 				case  APP_ERROR_DATA: 											//0x00B4 //查询本机故障信息
1012:.\uart_wifi.c **** 							App_Error_Data(); 
1013:.\uart_wifi.c **** 			 		 		break;
1014:.\uart_wifi.c **** 				case  APP_FILTER_USED_TIME_DATA: 					//0x00B3 //查询本机滤芯使用时间（n级）		 		
1015:.\uart_wifi.c **** 			 				App_Filter_Used_Time_Data();
1016:.\uart_wifi.c **** 			 		 		break;
1017:.\uart_wifi.c **** 			 	case  APP_SEARCH_FILTER_MANAGE_NUM:	//查询本机滤芯管理方案号
1018:.\uart_wifi.c **** 			 				App_Search_Filter_Manage_Num(); 	
1019:.\uart_wifi.c **** 			 		 		break;
1020:.\uart_wifi.c **** 			 	case  APP_DOWNLOAD_FILTER_MANAGE_NUM:	//下载本机滤芯管理方案号
1021:.\uart_wifi.c **** 			 				Filter_Full_Data_Buf[0]= ATReceBuffer[0].gcATReceData[11]; 
1022:.\uart_wifi.c **** 			 				Filter_Full_Data_Buf[0]= (Filter_Full_Data_Buf[0]<<8)+ATReceBuffer[0].gcATReceData[12];
1023:.\uart_wifi.c **** 			 				Filter_Full_Data_Buf[1]= ATReceBuffer[0].gcATReceData[13]; 
1024:.\uart_wifi.c **** 			 				Filter_Full_Data_Buf[1]= (Filter_Full_Data_Buf[1]<<8)+ATReceBuffer[0].gcATReceData[14];
1025:.\uart_wifi.c **** 			 				Filter_Full_Data_Buf[2]= ATReceBuffer[0].gcATReceData[15]; 
1026:.\uart_wifi.c **** 			 				Filter_Full_Data_Buf[2]= (Filter_Full_Data_Buf[2]<<8)+ATReceBuffer[0].gcATReceData[16];
1027:.\uart_wifi.c **** 			 				Filter_Full_Data_Buf[3]= ATReceBuffer[0].gcATReceData[17]; 
1028:.\uart_wifi.c **** 			 				Filter_Full_Data_Buf[3]= (Filter_Full_Data_Buf[3]<<8)+ATReceBuffer[0].gcATReceData[18]; 
1029:.\uart_wifi.c **** 			 				Filter_Full_Data_Buf[4]= ATReceBuffer[0].gcATReceData[19]; 
ARM GAS  C:\Users\kevin\AppData\Local\Temp\ccrA27HJ.s 			page 74


1030:.\uart_wifi.c **** 			 				Filter_Full_Data_Buf[4]= (Filter_Full_Data_Buf[4]<<8)+ATReceBuffer[0].gcATReceData[20]; 
1031:.\uart_wifi.c **** 			 				Filter_Full_Data_Buf[5]= ATReceBuffer[0].gcATReceData[21]; 
1032:.\uart_wifi.c **** 			 				Filter_Full_Data_Buf[5]= (Filter_Full_Data_Buf[5]<<8)+ATReceBuffer[0].gcATReceData[22];
1033:.\uart_wifi.c **** 							CyGlobalIntDisable;
1034:.\uart_wifi.c **** 			 				write(); 
1035:.\uart_wifi.c **** 			 				CyGlobalIntEnable;
1036:.\uart_wifi.c **** 			 				App_Download_Filter_Manage_Num(); 		 				 		
1037:.\uart_wifi.c **** 			 		 		break;
1038:.\uart_wifi.c **** 			 	case  APP_DOWNLOAD_FILTER_RESET_DATA:	//下载本机滤芯管理方案号
1039:.\uart_wifi.c ****                             BUZfkg=1;
1040:.\uart_wifi.c **** 
1041:.\uart_wifi.c **** 			 				Filter_Reset_Data_Buf= ATReceBuffer[0].gcATReceData[10];
1042:.\uart_wifi.c **** 			 				F_Filter_Reset_Data_Buf=1; 
1043:.\uart_wifi.c **** 			 				App_Download_Filter_Reset_Data(); 		 				 		
1044:.\uart_wifi.c **** 			 		 		break;	 		
1045:.\uart_wifi.c **** 			 	case  APP_DOWNLOAD_NB_STA:	//远程开机功能
1046:.\uart_wifi.c **** 			 				if(ATReceBuffer[0].gcATReceData[10]==1)
1047:.\uart_wifi.c **** 			 					NBfig=1;//1为北
1048:.\uart_wifi.c **** 			 				else
1049:.\uart_wifi.c **** 			 					NBfig=0;//0为南			 					
1050:.\uart_wifi.c **** 			 		 		App_Download_Nb_Sta();			 		 
1051:.\uart_wifi.c **** 			 		 		break;
1052:.\uart_wifi.c **** 			 	case  APP_POWERON:	//远程开机功能
1053:.\uart_wifi.c **** 			 				WorkFlag.poweroff=0;
1054:.\uart_wifi.c **** 			 				WorkFlag.poweron=1;
1055:.\uart_wifi.c **** 			 				App_Poweron(); 
1056:.\uart_wifi.c **** 			 		 		break;
1057:.\uart_wifi.c **** 			 	case  APP_POWEROFF:	//远程关机功能	
1058:.\uart_wifi.c **** 			 				WorkFlag.poweroff=1;
 2961              		.loc 1 1058 0
 2962 0050 514B     		ldr	r3, .L267+16
 2963 0052 5A78     		ldrb	r2, [r3, #1]
1059:.\uart_wifi.c **** 			 				WorkFlag.poweron=0;
 2964              		.loc 1 1059 0
 2965 0054 1543     		orr	r5, r2
 2966 0056 0222     		mov	r2, #2
 2967 0058 9543     		bic	r5, r2
 2968 005a 5D70     		strb	r5, [r3, #1]
1060:.\uart_wifi.c **** 							App_Poweroff();
 2969              		.loc 1 1060 0
 2970 005c FFF7FEFF 		bl	App_Poweroff
 2971              	.LVL110:
1061:.\uart_wifi.c **** 			 		 		break;
 2972              		.loc 1 1061 0
 2973 0060 90E0     		b	.L242
 2974              	.L249:
 974:.\uart_wifi.c **** 			 switch(giWIFICommand)
 2975              		.loc 1 974 0
 2976 0062 A42B     		cmp	r3, #164
 2977 0064 72D0     		beq	.L252
 2978 0066 00D2     		bcs	.LCB2428
 2979 0068 7BE0     		b	.L253	@long jump
 2980              	.LCB2428:
 2981 006a B12B     		cmp	r3, #177
 2982 006c 00D0     		beq	.LCB2430
 2983 006e 89E0     		b	.L242	@long jump
 2984              	.LCB2430:
ARM GAS  C:\Users\kevin\AppData\Local\Temp\ccrA27HJ.s 			page 75


1018:.\uart_wifi.c **** 			 				App_Search_Filter_Manage_Num(); 	
 2985              		.loc 1 1018 0
 2986 0070 FFF7FEFF 		bl	App_Search_Filter_Manage_Num
 2987              	.LVL111:
1019:.\uart_wifi.c **** 			 		 		break;
 2988              		.loc 1 1019 0
 2989 0074 86E0     		b	.L242
 2990              	.L247:
 974:.\uart_wifi.c **** 			 switch(giWIFICommand)
 2991              		.loc 1 974 0
 2992 0076 494A     		ldr	r2, .L267+20
 2993 0078 9342     		cmp	r3, r2
 2994 007a 13D0     		beq	.L255
 2995 007c 08D8     		bhi	.L256
 2996 007e B42B     		cmp	r3, #180
 2997 0080 38D0     		beq	.L257
 2998 0082 3AD3     		bcc	.L258
 2999 0084 B52B     		cmp	r3, #181
 3000 0086 00D0     		beq	.LCB2447
 3001 0088 7CE0     		b	.L242	@long jump
 3002              	.LCB2447:
1009:.\uart_wifi.c **** 							App_Filter_Changed_Data(); 
 3003              		.loc 1 1009 0
 3004 008a FFF7FEFF 		bl	App_Filter_Changed_Data
 3005              	.LVL112:
1010:.\uart_wifi.c **** 			 		 		break;
 3006              		.loc 1 1010 0
 3007 008e 79E0     		b	.L242
 3008              	.L256:
 974:.\uart_wifi.c **** 			 switch(giWIFICommand)
 3009              		.loc 1 974 0
 3010 0090 434A     		ldr	r2, .L267+24
 3011 0092 9342     		cmp	r3, r2
 3012 0094 16D0     		beq	.L260
 3013 0096 18D3     		bcc	.L261
 3014 0098 424A     		ldr	r2, .L267+28
 3015 009a 9342     		cmp	r3, r2
 3016 009c 72D1     		bne	.L242
 989:.\uart_wifi.c **** 							Wifi_Dect_Data();  	
 3017              		.loc 1 989 0
 3018 009e FFF7FEFF 		bl	Wifi_Dect_Data
 3019              	.LVL113:
 990:.\uart_wifi.c **** 							break;		
 3020              		.loc 1 990 0
 3021 00a2 6FE0     		b	.L242
 3022              	.L255:
 977:.\uart_wifi.c **** 			 				SmarkLink_State = ATReceBuffer[0].gcATReceData[10];         //获取当前状态
 3023              		.loc 1 977 0
 3024 00a4 A37A     		ldrb	r3, [r4, #10]
 3025 00a6 404A     		ldr	r2, .L267+32
 3026 00a8 1370     		strb	r3, [r2]
 978:.\uart_wifi.c ****               if((WIFI_SENDDINGSTATE_DATA_LINK_SERVER==SmarkLink_State)&&(Power_Buzfkg==0))	
 3027              		.loc 1 978 0
 3028 00aa 032B     		cmp	r3, #3
 3029 00ac 07D1     		bne	.L263
 978:.\uart_wifi.c ****               if((WIFI_SENDDINGSTATE_DATA_LINK_SERVER==SmarkLink_State)&&(Power_Buzfkg==0))	
 3030              		.loc 1 978 0 is_stmt 0 discriminator 1
ARM GAS  C:\Users\kevin\AppData\Local\Temp\ccrA27HJ.s 			page 76


 3031 00ae 3F4A     		ldr	r2, .L267+36
 3032 00b0 1378     		ldrb	r3, [r2]
 3033 00b2 002B     		cmp	r3, #0
 3034 00b4 03D1     		bne	.L263
 980:.\uart_wifi.c ****               		Power_Buzfkg=1;								
 3035              		.loc 1 980 0 is_stmt 1
 3036 00b6 0123     		mov	r3, #1
 3037 00b8 1370     		strb	r3, [r2]
 981:.\uart_wifi.c ****                 	BUZfkg=1;
 3038              		.loc 1 981 0
 3039 00ba 3D4A     		ldr	r2, .L267+40
 3040 00bc 1370     		strb	r3, [r2]
 3041              	.L263:
 983:.\uart_wifi.c **** 			 				Wifi_Senddingstate_Data();  		 				  					  					  					  					  					  					  				  					 
 3042              		.loc 1 983 0
 3043 00be FFF7FEFF 		bl	Wifi_Senddingstate_Data
 3044              	.LVL114:
 984:.\uart_wifi.c **** 					  	break;
 3045              		.loc 1 984 0
 3046 00c2 5FE0     		b	.L242
 3047              	.L260:
 986:.\uart_wifi.c **** 							Wifi_Firmware_Update_Data(); 
 3048              		.loc 1 986 0
 3049 00c4 FFF7FEFF 		bl	Wifi_Firmware_Update_Data
 3050              	.LVL115:
 987:.\uart_wifi.c **** 							break;
 3051              		.loc 1 987 0
 3052 00c8 5CE0     		b	.L242
 3053              	.L261:
 994:.\uart_wifi.c **** 									Firmware_Version=ATReceBuffer[0].gcATReceData[10];
 3054              		.loc 1 994 0
 3055 00ca A27A     		ldrb	r2, [r4, #10]
 3056 00cc 394B     		ldr	r3, .L267+44
 3057 00ce 1A70     		strb	r2, [r3]
 995:.\uart_wifi.c **** 									Firmware_Update=0xfe;
 3058              		.loc 1 995 0
 3059 00d0 394B     		ldr	r3, .L267+48
 3060 00d2 FE22     		mov	r2, #254
 3061 00d4 1A70     		strb	r2, [r3]
 997:.\uart_wifi.c **** 							CyGlobalIntDisable;
 3062              		.loc 1 997 0
 3063              	@ 997 ".\uart_wifi.c" 1
 3064 00d6 72B6     		CPSID   i
 3065              	@ 0 "" 2
 998:.\uart_wifi.c **** 			 				write();
 3066              		.loc 1 998 0
 3067              		.code	16
 3068 00d8 FFF7FEFF 		bl	write
 3069              	.LVL116:
 999:.\uart_wifi.c **** 			 				write1();  
 3070              		.loc 1 999 0
 3071 00dc FFF7FEFF 		bl	write1
 3072              	.LVL117:
1000:.\uart_wifi.c **** 			 				CyGlobalIntEnable;								
 3073              		.loc 1 1000 0
 3074              	@ 1000 ".\uart_wifi.c" 1
 3075 00e0 62B6     		CPSIE   i
ARM GAS  C:\Users\kevin\AppData\Local\Temp\ccrA27HJ.s 			page 77


 3076              	@ 0 "" 2
1001:.\uart_wifi.c **** 							Wifi_Firmware_Handshake_Data();
 3077              		.loc 1 1001 0
 3078              		.code	16
 3079 00e2 FFF7FEFF 		bl	Wifi_Firmware_Handshake_Data
 3080              	.LVL118:
1002:.\uart_wifi.c **** 							firmwave_update_fig=1;
 3081              		.loc 1 1002 0
 3082 00e6 354B     		ldr	r3, .L267+52
 3083 00e8 0122     		mov	r2, #1
 3084 00ea 1A70     		strb	r2, [r3]
1004:.\uart_wifi.c **** 							break; 									
 3085              		.loc 1 1004 0
 3086 00ec 4AE0     		b	.L242
 3087              	.L246:
1006:.\uart_wifi.c **** 			 				App_Host_State(); 
 3088              		.loc 1 1006 0
 3089 00ee FFF7FEFF 		bl	App_Host_State
 3090              	.LVL119:
1007:.\uart_wifi.c **** 			 		 		break;	
 3091              		.loc 1 1007 0
 3092 00f2 47E0     		b	.L242
 3093              	.L257:
1012:.\uart_wifi.c **** 							App_Error_Data(); 
 3094              		.loc 1 1012 0
 3095 00f4 FFF7FEFF 		bl	App_Error_Data
 3096              	.LVL120:
1013:.\uart_wifi.c **** 			 		 		break;
 3097              		.loc 1 1013 0
 3098 00f8 44E0     		b	.L242
 3099              	.L258:
1015:.\uart_wifi.c **** 			 				App_Filter_Used_Time_Data();
 3100              		.loc 1 1015 0
 3101 00fa FFF7FEFF 		bl	App_Filter_Used_Time_Data
 3102              	.LVL121:
1016:.\uart_wifi.c **** 			 		 		break;
 3103              		.loc 1 1016 0
 3104 00fe 41E0     		b	.L242
 3105              	.L248:
1021:.\uart_wifi.c **** 			 				Filter_Full_Data_Buf[0]= ATReceBuffer[0].gcATReceData[11]; 
 3106              		.loc 1 1021 0
 3107 0100 E27A     		ldrb	r2, [r4, #11]
1022:.\uart_wifi.c **** 			 				Filter_Full_Data_Buf[0]= (Filter_Full_Data_Buf[0]<<8)+ATReceBuffer[0].gcATReceData[12];
 3108              		.loc 1 1022 0
 3109 0102 217B     		ldrb	r1, [r4, #12]
 3110 0104 2E4B     		ldr	r3, .L267+56
 3111 0106 1202     		lsl	r2, r2, #8
 3112 0108 8A18     		add	r2, r1, r2
 3113 010a 1A80     		strh	r2, [r3]
1023:.\uart_wifi.c **** 			 				Filter_Full_Data_Buf[1]= ATReceBuffer[0].gcATReceData[13]; 
 3114              		.loc 1 1023 0
 3115 010c 627B     		ldrb	r2, [r4, #13]
1024:.\uart_wifi.c **** 			 				Filter_Full_Data_Buf[1]= (Filter_Full_Data_Buf[1]<<8)+ATReceBuffer[0].gcATReceData[14];
 3116              		.loc 1 1024 0
 3117 010e A17B     		ldrb	r1, [r4, #14]
 3118 0110 1202     		lsl	r2, r2, #8
 3119 0112 8A18     		add	r2, r1, r2
ARM GAS  C:\Users\kevin\AppData\Local\Temp\ccrA27HJ.s 			page 78


 3120 0114 5A80     		strh	r2, [r3, #2]
1025:.\uart_wifi.c **** 			 				Filter_Full_Data_Buf[2]= ATReceBuffer[0].gcATReceData[15]; 
 3121              		.loc 1 1025 0
 3122 0116 E27B     		ldrb	r2, [r4, #15]
1026:.\uart_wifi.c **** 			 				Filter_Full_Data_Buf[2]= (Filter_Full_Data_Buf[2]<<8)+ATReceBuffer[0].gcATReceData[16];
 3123              		.loc 1 1026 0
 3124 0118 217C     		ldrb	r1, [r4, #16]
 3125 011a 1202     		lsl	r2, r2, #8
 3126 011c 8A18     		add	r2, r1, r2
 3127 011e 9A80     		strh	r2, [r3, #4]
1027:.\uart_wifi.c **** 			 				Filter_Full_Data_Buf[3]= ATReceBuffer[0].gcATReceData[17]; 
 3128              		.loc 1 1027 0
 3129 0120 627C     		ldrb	r2, [r4, #17]
1028:.\uart_wifi.c **** 			 				Filter_Full_Data_Buf[3]= (Filter_Full_Data_Buf[3]<<8)+ATReceBuffer[0].gcATReceData[18]; 
 3130              		.loc 1 1028 0
 3131 0122 A17C     		ldrb	r1, [r4, #18]
 3132 0124 1202     		lsl	r2, r2, #8
 3133 0126 8A18     		add	r2, r1, r2
 3134 0128 DA80     		strh	r2, [r3, #6]
1029:.\uart_wifi.c **** 			 				Filter_Full_Data_Buf[4]= ATReceBuffer[0].gcATReceData[19]; 
 3135              		.loc 1 1029 0
 3136 012a E27C     		ldrb	r2, [r4, #19]
1030:.\uart_wifi.c **** 			 				Filter_Full_Data_Buf[4]= (Filter_Full_Data_Buf[4]<<8)+ATReceBuffer[0].gcATReceData[20]; 
 3137              		.loc 1 1030 0
 3138 012c 217D     		ldrb	r1, [r4, #20]
 3139 012e 1202     		lsl	r2, r2, #8
 3140 0130 8A18     		add	r2, r1, r2
 3141 0132 1A81     		strh	r2, [r3, #8]
1031:.\uart_wifi.c **** 			 				Filter_Full_Data_Buf[5]= ATReceBuffer[0].gcATReceData[21]; 
 3142              		.loc 1 1031 0
 3143 0134 627D     		ldrb	r2, [r4, #21]
1032:.\uart_wifi.c **** 			 				Filter_Full_Data_Buf[5]= (Filter_Full_Data_Buf[5]<<8)+ATReceBuffer[0].gcATReceData[22];
 3144              		.loc 1 1032 0
 3145 0136 A17D     		ldrb	r1, [r4, #22]
 3146 0138 1202     		lsl	r2, r2, #8
 3147 013a 8A18     		add	r2, r1, r2
 3148 013c 5A81     		strh	r2, [r3, #10]
1033:.\uart_wifi.c **** 							CyGlobalIntDisable;
 3149              		.loc 1 1033 0
 3150              	@ 1033 ".\uart_wifi.c" 1
 3151 013e 72B6     		CPSID   i
 3152              	@ 0 "" 2
1034:.\uart_wifi.c **** 			 				write(); 
 3153              		.loc 1 1034 0
 3154              		.code	16
 3155 0140 FFF7FEFF 		bl	write
 3156              	.LVL122:
1035:.\uart_wifi.c **** 			 				CyGlobalIntEnable;
 3157              		.loc 1 1035 0
 3158              	@ 1035 ".\uart_wifi.c" 1
 3159 0144 62B6     		CPSIE   i
 3160              	@ 0 "" 2
1036:.\uart_wifi.c **** 			 				App_Download_Filter_Manage_Num(); 		 				 		
 3161              		.loc 1 1036 0
 3162              		.code	16
 3163 0146 FFF7FEFF 		bl	App_Download_Filter_Manage_Num
 3164              	.LVL123:
ARM GAS  C:\Users\kevin\AppData\Local\Temp\ccrA27HJ.s 			page 79


1037:.\uart_wifi.c **** 			 		 		break;
 3165              		.loc 1 1037 0
 3166 014a 1BE0     		b	.L242
 3167              	.L252:
1039:.\uart_wifi.c ****                             BUZfkg=1;
 3168              		.loc 1 1039 0
 3169 014c 184A     		ldr	r2, .L267+40
 3170 014e 0123     		mov	r3, #1
 3171 0150 1370     		strb	r3, [r2]
1041:.\uart_wifi.c **** 			 				Filter_Reset_Data_Buf= ATReceBuffer[0].gcATReceData[10];
 3172              		.loc 1 1041 0
 3173 0152 A17A     		ldrb	r1, [r4, #10]
 3174 0154 1B4A     		ldr	r2, .L267+60
 3175 0156 1170     		strb	r1, [r2]
1042:.\uart_wifi.c **** 			 				F_Filter_Reset_Data_Buf=1; 
 3176              		.loc 1 1042 0
 3177 0158 1B4A     		ldr	r2, .L267+64
 3178 015a 1370     		strb	r3, [r2]
1043:.\uart_wifi.c **** 			 				App_Download_Filter_Reset_Data(); 		 				 		
 3179              		.loc 1 1043 0
 3180 015c FFF7FEFF 		bl	App_Download_Filter_Reset_Data
 3181              	.LVL124:
1044:.\uart_wifi.c **** 			 		 		break;	 		
 3182              		.loc 1 1044 0
 3183 0160 10E0     		b	.L242
 3184              	.L253:
1046:.\uart_wifi.c **** 			 				if(ATReceBuffer[0].gcATReceData[10]==1)
 3185              		.loc 1 1046 0
 3186 0162 A27A     		ldrb	r2, [r4, #10]
 3187 0164 194B     		ldr	r3, .L267+68
 3188 0166 012A     		cmp	r2, #1
 3189 0168 00D0     		beq	.L266
1049:.\uart_wifi.c **** 			 					NBfig=0;//0为南			 					
 3190              		.loc 1 1049 0
 3191 016a 0022     		mov	r2, #0
 3192              	.L266:
 3193 016c 1A70     		strb	r2, [r3]
1050:.\uart_wifi.c **** 			 		 		App_Download_Nb_Sta();			 		 
 3194              		.loc 1 1050 0
 3195 016e FFF7FEFF 		bl	App_Download_Nb_Sta
 3196              	.LVL125:
1051:.\uart_wifi.c **** 			 		 		break;
 3197              		.loc 1 1051 0
 3198 0172 07E0     		b	.L242
 3199              	.L250:
1053:.\uart_wifi.c **** 			 				WorkFlag.poweroff=0;
 3200              		.loc 1 1053 0
 3201 0174 084B     		ldr	r3, .L267+16
1054:.\uart_wifi.c **** 			 				WorkFlag.poweron=1;
 3202              		.loc 1 1054 0
 3203 0176 0221     		mov	r1, #2
1053:.\uart_wifi.c **** 			 				WorkFlag.poweroff=0;
 3204              		.loc 1 1053 0
 3205 0178 5A78     		ldrb	r2, [r3, #1]
1054:.\uart_wifi.c **** 			 				WorkFlag.poweron=1;
 3206              		.loc 1 1054 0
 3207 017a AA43     		bic	r2, r5
ARM GAS  C:\Users\kevin\AppData\Local\Temp\ccrA27HJ.s 			page 80


 3208 017c 0A43     		orr	r2, r1
 3209 017e 5A70     		strb	r2, [r3, #1]
1055:.\uart_wifi.c **** 			 				App_Poweron(); 
 3210              		.loc 1 1055 0
 3211 0180 FFF7FEFF 		bl	App_Poweron
 3212              	.LVL126:
 3213              	.L242:
1062:.\uart_wifi.c **** 				 default:				 				 				 
1063:.\uart_wifi.c **** 					break;
1064:.\uart_wifi.c **** 				 
1065:.\uart_wifi.c **** 			 } 
1066:.\uart_wifi.c **** 		 }
1067:.\uart_wifi.c **** 		}		 					
1068:.\uart_wifi.c **** }
 3214              		.loc 1 1068 0
 3215              		@ sp needed
 3216 0184 70BD     		pop	{r4, r5, r6, pc}
 3217              	.L268:
 3218 0186 C046     		.align	2
 3219              	.L267:
 3220 0188 00000000 		.word	WifiWorkFlag
 3221 018c 00000000 		.word	giWIFIDATALength
 3222 0190 00000000 		.word	ATReceBuffer
 3223 0194 00000000 		.word	giWIFICommand
 3224 0198 00000000 		.word	WorkFlag
 3225 019c D0CC0000 		.word	52432
 3226 01a0 D2CC0000 		.word	52434
 3227 01a4 D6CC0000 		.word	52438
 3228 01a8 00000000 		.word	SmarkLink_State
 3229 01ac 00000000 		.word	Power_Buzfkg
 3230 01b0 00000000 		.word	BUZfkg
 3231 01b4 00000000 		.word	Firmware_Version
 3232 01b8 00000000 		.word	Firmware_Update
 3233 01bc 00000000 		.word	firmwave_update_fig
 3234 01c0 00000000 		.word	Filter_Full_Data_Buf
 3235 01c4 00000000 		.word	Filter_Reset_Data_Buf
 3236 01c8 00000000 		.word	F_Filter_Reset_Data_Buf
 3237 01cc 00000000 		.word	NBfig
 3238              		.cfi_endproc
 3239              	.LFE80:
 3240              		.size	Process_From_Wifi_Ctl_Ack_Data, .-Process_From_Wifi_Ctl_Ack_Data
 3241              		.section	.text.Process_From_Wifi_Noa_Data,"ax",%progbits
 3242              		.align	1
 3243              		.global	Process_From_Wifi_Noa_Data
 3244              		.code	16
 3245              		.thumb_func
 3246              		.type	Process_From_Wifi_Noa_Data, %function
 3247              	Process_From_Wifi_Noa_Data:
 3248              	.LFB81:
1069:.\uart_wifi.c **** /******************************************************************************
1070:.\uart_wifi.c **** * 函 数 名: void Process_From_Wifi_Noa_Data(void)
1071:.\uart_wifi.c **** * 函数功能: app、服务器控制数据
1072:.\uart_wifi.c **** * 入口参数: 无
1073:.\uart_wifi.c **** * 返    回: 
1074:.\uart_wifi.c **** *******************************************************************************/
1075:.\uart_wifi.c **** void Process_From_Wifi_Noa_Data(void)
1076:.\uart_wifi.c **** {
ARM GAS  C:\Users\kevin\AppData\Local\Temp\ccrA27HJ.s 			page 81


 3249              		.loc 1 1076 0
 3250              		.cfi_startproc
 3251 0000 38B5     		push	{r3, r4, r5, lr}
 3252              		.cfi_def_cfa_offset 16
 3253              		.cfi_offset 3, -16
 3254              		.cfi_offset 4, -12
 3255              		.cfi_offset 5, -8
 3256              		.cfi_offset 14, -4
1077:.\uart_wifi.c **** 	 if((WifiWorkFlag.gcReceComm1OK)&&(giWIFIDATALength<=(WIFIBUFLEN-10-1)))
 3257              		.loc 1 1077 0
 3258 0002 144B     		ldr	r3, .L274
 3259 0004 1A78     		ldrb	r2, [r3]
 3260 0006 5107     		lsl	r1, r2, #29
 3261 0008 23D5     		bpl	.L269
 3262              		.loc 1 1077 0 is_stmt 0 discriminator 1
 3263 000a 1349     		ldr	r1, .L274+4
 3264 000c 0D88     		ldrh	r5, [r1]
 3265 000e 592D     		cmp	r5, #89
 3266 0010 1FD8     		bhi	.L269
1078:.\uart_wifi.c **** 	 {
1079:.\uart_wifi.c **** 	   WifiWorkFlag.gcReceComm1OK =0;
 3267              		.loc 1 1079 0 is_stmt 1
 3268 0012 0421     		mov	r1, #4
 3269 0014 8A43     		bic	r2, r1
1080:.\uart_wifi.c **** 		 if(ATReceBuffer[0].gcATReceData[10+giWIFIDATALength]==Sum_Make_Verify (&ATReceBuffer[0].gcATRece
 3270              		.loc 1 1080 0
 3271 0016 114C     		ldr	r4, .L274+8
 3272 0018 291C     		mov	r1, r5
 3273 001a 0A31     		add	r1, r1, #10
 3274 001c 89B2     		uxth	r1, r1
 3275 001e 201C     		mov	r0, r4
1079:.\uart_wifi.c **** 	   WifiWorkFlag.gcReceComm1OK =0;
 3276              		.loc 1 1079 0
 3277 0020 1A70     		strb	r2, [r3]
 3278              		.loc 1 1080 0
 3279 0022 FFF7FEFF 		bl	Sum_Make_Verify
 3280              	.LVL127:
 3281 0026 6519     		add	r5, r4, r5
 3282 0028 AB7A     		ldrb	r3, [r5, #10]
 3283 002a 8342     		cmp	r3, r0
 3284 002c 11D1     		bne	.L269
1081:.\uart_wifi.c **** 		 {
1082:.\uart_wifi.c **** 			 switch(giWIFICommand)
 3285              		.loc 1 1082 0
 3286 002e 0C4B     		ldr	r3, .L274+12
 3287 0030 1A88     		ldrh	r2, [r3]
 3288 0032 0C4B     		ldr	r3, .L274+16
 3289 0034 9A42     		cmp	r2, r3
 3290 0036 0CD1     		bne	.L269
1083:.\uart_wifi.c **** 			 {
1084:.\uart_wifi.c **** 			 		case 	WIFI_SENDDINGSTATE_DATA:				      
1085:.\uart_wifi.c **** 					    	SmarkLink_State = ATReceBuffer[0].gcATReceData[10];         //获取当前状态
 3291              		.loc 1 1085 0
 3292 0038 A37A     		ldrb	r3, [r4, #10]
 3293 003a 0B4A     		ldr	r2, .L274+20
 3294 003c 1370     		strb	r3, [r2]
1086:.\uart_wifi.c ****                 if((WIFI_SENDDINGSTATE_DATA_LINK_SERVER==SmarkLink_State)&&(Power_Buzfkg==0))						
ARM GAS  C:\Users\kevin\AppData\Local\Temp\ccrA27HJ.s 			page 82


 3295              		.loc 1 1086 0
 3296 003e 032B     		cmp	r3, #3
 3297 0040 07D1     		bne	.L269
 3298              		.loc 1 1086 0 is_stmt 0 discriminator 1
 3299 0042 0A4A     		ldr	r2, .L274+24
 3300 0044 1378     		ldrb	r3, [r2]
 3301 0046 002B     		cmp	r3, #0
 3302 0048 03D1     		bne	.L269
1087:.\uart_wifi.c ****                 {
1088:.\uart_wifi.c ****               		Power_Buzfkg=1;								
 3303              		.loc 1 1088 0 is_stmt 1
 3304 004a 0123     		mov	r3, #1
 3305 004c 1370     		strb	r3, [r2]
1089:.\uart_wifi.c ****                 	BUZfkg=1;
 3306              		.loc 1 1089 0
 3307 004e 084A     		ldr	r2, .L274+28
 3308 0050 1370     		strb	r3, [r2]
 3309              	.L269:
1090:.\uart_wifi.c ****                 }
1091:.\uart_wifi.c **** 					  		break;
1092:.\uart_wifi.c **** 				 	default:				 				 				 
1093:.\uart_wifi.c **** 								break;
1094:.\uart_wifi.c **** 				 
1095:.\uart_wifi.c **** 			 } 
1096:.\uart_wifi.c **** 		 }
1097:.\uart_wifi.c **** 	 }		 					
1098:.\uart_wifi.c **** }
 3310              		.loc 1 1098 0
 3311              		@ sp needed
 3312 0052 38BD     		pop	{r3, r4, r5, pc}
 3313              	.L275:
 3314              		.align	2
 3315              	.L274:
 3316 0054 00000000 		.word	WifiWorkFlag
 3317 0058 00000000 		.word	giWIFIDATALength
 3318 005c 00000000 		.word	ATReceBuffer
 3319 0060 00000000 		.word	giWIFICommand
 3320 0064 D0CC0000 		.word	52432
 3321 0068 00000000 		.word	SmarkLink_State
 3322 006c 00000000 		.word	Power_Buzfkg
 3323 0070 00000000 		.word	BUZfkg
 3324              		.cfi_endproc
 3325              	.LFE81:
 3326              		.size	Process_From_Wifi_Noa_Data, .-Process_From_Wifi_Noa_Data
 3327              		.section	.text.Process_From_Wifi_Ack_Data,"ax",%progbits
 3328              		.align	1
 3329              		.global	Process_From_Wifi_Ack_Data
 3330              		.code	16
 3331              		.thumb_func
 3332              		.type	Process_From_Wifi_Ack_Data, %function
 3333              	Process_From_Wifi_Ack_Data:
 3334              	.LFB82:
1099:.\uart_wifi.c **** /******************************************************************************
1100:.\uart_wifi.c **** * 函 数 名: void Process_From_Wifi_Ack_Data(void)
1101:.\uart_wifi.c **** * 函数功能: wifi应答数据
1102:.\uart_wifi.c **** * 入口参数: 无
1103:.\uart_wifi.c **** * 返    回: 
ARM GAS  C:\Users\kevin\AppData\Local\Temp\ccrA27HJ.s 			page 83


1104:.\uart_wifi.c **** *******************************************************************************/
1105:.\uart_wifi.c **** void Process_From_Wifi_Ack_Data(void)
1106:.\uart_wifi.c **** {
 3335              		.loc 1 1106 0
 3336              		.cfi_startproc
1107:.\uart_wifi.c **** 	 if((WifiWorkFlag.gcReceComm1OK)&&(giWIFIDATALength<=(WIFIBUFLEN-10-1)))
 3337              		.loc 1 1107 0
 3338 0000 244B     		ldr	r3, .L316
1106:.\uart_wifi.c **** {
 3339              		.loc 1 1106 0
 3340 0002 70B5     		push	{r4, r5, r6, lr}
 3341              		.cfi_def_cfa_offset 16
 3342              		.cfi_offset 4, -16
 3343              		.cfi_offset 5, -12
 3344              		.cfi_offset 6, -8
 3345              		.cfi_offset 14, -4
 3346              		.loc 1 1107 0
 3347 0004 1A78     		ldrb	r2, [r3]
 3348 0006 5107     		lsl	r1, r2, #29
 3349 0008 42D5     		bpl	.L276
 3350              		.loc 1 1107 0 is_stmt 0 discriminator 1
 3351 000a 2349     		ldr	r1, .L316+4
 3352 000c 0D88     		ldrh	r5, [r1]
 3353 000e 592D     		cmp	r5, #89
 3354 0010 3ED8     		bhi	.L276
1108:.\uart_wifi.c **** 	 {
1109:.\uart_wifi.c **** 	   WifiWorkFlag.gcReceComm1OK =0;
1110:.\uart_wifi.c **** 		 if(ATReceBuffer[0].gcATReceData[10+giWIFIDATALength]==Sum_Make_Verify (&ATReceBuffer[0].gcATRece
 3355              		.loc 1 1110 0 is_stmt 1
 3356 0012 224C     		ldr	r4, .L316+8
 3357 0014 291C     		mov	r1, r5
1109:.\uart_wifi.c **** 	   WifiWorkFlag.gcReceComm1OK =0;
 3358              		.loc 1 1109 0
 3359 0016 0426     		mov	r6, #4
 3360              		.loc 1 1110 0
 3361 0018 0A31     		add	r1, r1, #10
1109:.\uart_wifi.c **** 	   WifiWorkFlag.gcReceComm1OK =0;
 3362              		.loc 1 1109 0
 3363 001a B243     		bic	r2, r6
 3364              		.loc 1 1110 0
 3365 001c 89B2     		uxth	r1, r1
 3366 001e 201C     		mov	r0, r4
1109:.\uart_wifi.c **** 	   WifiWorkFlag.gcReceComm1OK =0;
 3367              		.loc 1 1109 0
 3368 0020 1A70     		strb	r2, [r3]
 3369              		.loc 1 1110 0
 3370 0022 FFF7FEFF 		bl	Sum_Make_Verify
 3371              	.LVL128:
 3372 0026 6519     		add	r5, r4, r5
 3373 0028 AB7A     		ldrb	r3, [r5, #10]
 3374 002a 8342     		cmp	r3, r0
 3375 002c 30D1     		bne	.L276
1111:.\uart_wifi.c **** 		 {
1112:.\uart_wifi.c **** 			 switch(giWIFICommand)
 3376              		.loc 1 1112 0
 3377 002e 1C4B     		ldr	r3, .L316+12
 3378 0030 1C4A     		ldr	r2, .L316+16
ARM GAS  C:\Users\kevin\AppData\Local\Temp\ccrA27HJ.s 			page 84


 3379 0032 1B88     		ldrh	r3, [r3]
 3380 0034 9342     		cmp	r3, r2
 3381 0036 23D0     		beq	.L284
 3382 0038 0DD8     		bhi	.L281
 3383 003a 9022     		mov	r2, #144
 3384 003c 1202     		lsl	r2, r2, #8
 3385 003e 9342     		cmp	r3, r2
 3386 0040 1ED0     		beq	.L284
 3387 0042 01D8     		bhi	.L283
 3388 0044 184A     		ldr	r2, .L316+20
 3389 0046 03E0     		b	.L315
 3390              	.L283:
 3391 0048 184A     		ldr	r2, .L316+24
 3392 004a 9342     		cmp	r3, r2
 3393 004c 18D0     		beq	.L284
 3394 004e 184A     		ldr	r2, .L316+28
 3395              	.L315:
 3396 0050 9342     		cmp	r3, r2
 3397 0052 15D0     		beq	.L284
 3398 0054 1CE0     		b	.L276
 3399              	.L281:
 3400 0056 174A     		ldr	r2, .L316+32
 3401 0058 9342     		cmp	r3, r2
 3402 005a 07D0     		beq	.L287
 3403 005c 01D8     		bhi	.L288
 3404 005e 164A     		ldr	r2, .L316+36
 3405 0060 F6E7     		b	.L315
 3406              	.L288:
 3407 0062 164A     		ldr	r2, .L316+40
 3408 0064 9342     		cmp	r3, r2
 3409 0066 0BD0     		beq	.L284
 3410 0068 154A     		ldr	r2, .L316+44
 3411 006a F1E7     		b	.L315
 3412              	.L287:
1113:.\uart_wifi.c **** 			 {
1114:.\uart_wifi.c ****          case MCU_HANDSHAKE_DATA:		
1115:.\uart_wifi.c ****                 {
1116:.\uart_wifi.c **** 							 		if((ATReceBuffer[0].gcATReceData[10] == 0x00)  && (ATReceBuffer[0].gcATReceData[11] == LI
 3413              		.loc 1 1116 0
 3414 006c 6389     		ldrh	r3, [r4, #10]
 3415 006e 002B     		cmp	r3, #0
 3416 0070 0ED1     		bne	.L276
1117:.\uart_wifi.c **** 								  	{
1118:.\uart_wifi.c **** 									  	WifidatagramWorkFlag.uart_ack = 0;
 3417              		.loc 1 1118 0
 3418 0072 144B     		ldr	r3, .L316+48
 3419 0074 1A78     		ldrb	r2, [r3]
 3420 0076 B243     		bic	r2, r6
 3421 0078 1A70     		strb	r2, [r3]
1119:.\uart_wifi.c ****                                         SmarkLink_State=ATReceBuffer[0].gcATReceData[12];
 3422              		.loc 1 1119 0
 3423 007a 227B     		ldrb	r2, [r4, #12]
 3424 007c 124B     		ldr	r3, .L316+52
 3425 007e 06E0     		b	.L314
 3426              	.L284:
1120:.\uart_wifi.c **** 									  	//BUZfkg=1;
1121:.\uart_wifi.c **** 								  	}				      
ARM GAS  C:\Users\kevin\AppData\Local\Temp\ccrA27HJ.s 			page 85


1122:.\uart_wifi.c **** 								  break;
1123:.\uart_wifi.c ****                 }
1124:.\uart_wifi.c **** 			   case MCU_CLEARALLUSERBOUND_DATA:			 
1125:.\uart_wifi.c **** 				 		if((ATReceBuffer[0].gcATReceData[10] == 0x00)  && (ATReceBuffer[0].gcATReceData[11] == LINKN
 3427              		.loc 1 1125 0
 3428 0080 6389     		ldrh	r3, [r4, #10]
 3429 0082 002B     		cmp	r3, #0
 3430 0084 04D1     		bne	.L276
1126:.\uart_wifi.c **** 	  					{
1127:.\uart_wifi.c **** 	  						WifidatagramWorkFlag.uart_ack = 0;
 3431              		.loc 1 1127 0
 3432 0086 0F4B     		ldr	r3, .L316+48
 3433 0088 0421     		mov	r1, #4
 3434 008a 1A78     		ldrb	r2, [r3]
 3435 008c 8A43     		bic	r2, r1
 3436              	.L314:
 3437 008e 1A70     		strb	r2, [r3]
 3438              	.L276:
1128:.\uart_wifi.c **** 	  					}
1129:.\uart_wifi.c **** 					  break;				 
1130:.\uart_wifi.c **** 		 
1131:.\uart_wifi.c **** 				 case MCU_POWERONSMARTLINK_DATA:				 
1132:.\uart_wifi.c **** 				 		if((ATReceBuffer[0].gcATReceData[10] == 0x00)  && (ATReceBuffer[0].gcATReceData[11] == LINKN
1133:.\uart_wifi.c **** 					  {
1134:.\uart_wifi.c **** 						  WifidatagramWorkFlag.uart_ack = 0;
1135:.\uart_wifi.c **** 						 	
1136:.\uart_wifi.c **** 					  }			      
1137:.\uart_wifi.c **** 					  break;
1138:.\uart_wifi.c **** 				case	HOST_STATE_DATA: 
1139:.\uart_wifi.c **** 						if((ATReceBuffer[0].gcATReceData[10] == 0x00)  && (ATReceBuffer[0].gcATReceData[11] == LINKNE
1140:.\uart_wifi.c **** 					  {
1141:.\uart_wifi.c **** 						  WifidatagramWorkFlag.uart_ack = 0;
1142:.\uart_wifi.c **** 					  }				      
1143:.\uart_wifi.c **** 					  break;
1144:.\uart_wifi.c **** 				 case MCU_FIRMWARE_UPDATE:	 
1145:.\uart_wifi.c **** 				 		if((ATReceBuffer[0].gcATReceData[10] == 0x00)  && (ATReceBuffer[0].gcATReceData[11] == LINKN
1146:.\uart_wifi.c **** 					  {
1147:.\uart_wifi.c **** 						  WifidatagramWorkFlag.uart_ack = 0;
1148:.\uart_wifi.c **** 					  }				      
1149:.\uart_wifi.c **** 					  break;
1150:.\uart_wifi.c **** 				case	HOST_FILTER_CHANGED_DATA:
1151:.\uart_wifi.c **** 						if((ATReceBuffer[0].gcATReceData[10] == 0x00)  && (ATReceBuffer[0].gcATReceData[11] == E0_REP
1152:.\uart_wifi.c **** 					  {
1153:.\uart_wifi.c **** 						  WifidatagramWorkFlag.uart_ack = 0;
1154:.\uart_wifi.c **** 					  }				      
1155:.\uart_wifi.c **** 					  break;
1156:.\uart_wifi.c **** 				case	HOST_FILTER_USED_TIME_DATA:
1157:.\uart_wifi.c **** 						if((ATReceBuffer[0].gcATReceData[10] == 0x00)  && (ATReceBuffer[0].gcATReceData[11] == E0_REP
1158:.\uart_wifi.c **** 					  {
1159:.\uart_wifi.c **** 						  WifidatagramWorkFlag.uart_ack = 0;
1160:.\uart_wifi.c **** 					  }				      
1161:.\uart_wifi.c **** 					  break;
1162:.\uart_wifi.c **** 				 case HOST_E0_DATA:
1163:.\uart_wifi.c **** 				 
1164:.\uart_wifi.c **** 				 		if((ATReceBuffer[0].gcATReceData[10] == 0x00)  && (ATReceBuffer[0].gcATReceData[11] == E0_RE
1165:.\uart_wifi.c **** 					  {
1166:.\uart_wifi.c **** 						  WifidatagramWorkFlag.uart_ack = 0;
ARM GAS  C:\Users\kevin\AppData\Local\Temp\ccrA27HJ.s 			page 86


1167:.\uart_wifi.c **** 					  }				      
1168:.\uart_wifi.c **** 					  break;
1169:.\uart_wifi.c **** 				case HOST_E9_DATA:
1170:.\uart_wifi.c **** 				 
1171:.\uart_wifi.c **** 				 		if((ATReceBuffer[0].gcATReceData[10] == 0x00)  && (ATReceBuffer[0].gcATReceData[11] == E0_RE
1172:.\uart_wifi.c **** 					  {
1173:.\uart_wifi.c **** 						  WifidatagramWorkFlag.uart_ack = 0;
1174:.\uart_wifi.c **** 					  }				      
1175:.\uart_wifi.c **** 					  break;
1176:.\uart_wifi.c **** 				 default:
1177:.\uart_wifi.c **** 				 		break;
1178:.\uart_wifi.c **** 				 
1179:.\uart_wifi.c **** 			 } 
1180:.\uart_wifi.c **** 		 }
1181:.\uart_wifi.c **** 	 }		 					
1182:.\uart_wifi.c **** }
 3439              		.loc 1 1182 0
 3440              		@ sp needed
 3441 0090 70BD     		pop	{r4, r5, r6, pc}
 3442              	.L317:
 3443 0092 C046     		.align	2
 3444              	.L316:
 3445 0094 00000000 		.word	WifiWorkFlag
 3446 0098 00000000 		.word	giWIFIDATALength
 3447 009c 00000000 		.word	ATReceBuffer
 3448 00a0 00000000 		.word	giWIFICommand
 3449 00a4 F0900000 		.word	37104
 3450 00a8 01600000 		.word	24577
 3451 00ac 01900000 		.word	36865
 3452 00b0 02900000 		.word	36866
 3453 00b4 C0CC0000 		.word	52416
 3454 00b8 F9900000 		.word	37113
 3455 00bc C2CC0000 		.word	52418
 3456 00c0 C5CC0000 		.word	52421
 3457 00c4 00000000 		.word	WifidatagramWorkFlag
 3458 00c8 00000000 		.word	SmarkLink_State
 3459              		.cfi_endproc
 3460              	.LFE82:
 3461              		.size	Process_From_Wifi_Ack_Data, .-Process_From_Wifi_Ack_Data
 3462              		.section	.text.Process_From_Tdsboard_Data,"ax",%progbits
 3463              		.align	1
 3464              		.global	Process_From_Tdsboard_Data
 3465              		.code	16
 3466              		.thumb_func
 3467              		.type	Process_From_Tdsboard_Data, %function
 3468              	Process_From_Tdsboard_Data:
 3469              	.LFB83:
1183:.\uart_wifi.c **** /******************************************************************************
1184:.\uart_wifi.c **** * 函 数 名: void ProcessUARTData(void)
1185:.\uart_wifi.c **** * 函数功能: 机器上报数据
1186:.\uart_wifi.c **** * 入口参数: 无
1187:.\uart_wifi.c **** * 返    回: 
1188:.\uart_wifi.c **** *******************************************************************************/
1189:.\uart_wifi.c **** void Process_From_Tdsboard_Data(void)
1190:.\uart_wifi.c **** {
 3470              		.loc 1 1190 0
 3471              		.cfi_startproc
ARM GAS  C:\Users\kevin\AppData\Local\Temp\ccrA27HJ.s 			page 87


 3472 0000 F8B5     		push	{r3, r4, r5, r6, r7, lr}
 3473              		.cfi_def_cfa_offset 24
 3474              		.cfi_offset 3, -24
 3475              		.cfi_offset 4, -20
 3476              		.cfi_offset 5, -16
 3477              		.cfi_offset 6, -12
 3478              		.cfi_offset 7, -8
 3479              		.cfi_offset 14, -4
1191:.\uart_wifi.c **** 	 if((WifiWorkFlag.gcReceComm2OK)&&(giTDSBOARDDATALength<(TDSBUFLEN-10-1)))
 3480              		.loc 1 1191 0
 3481 0002 2E4D     		ldr	r5, .L324
 3482 0004 2E4E     		ldr	r6, .L324+4
 3483 0006 2B78     		ldrb	r3, [r5]
 3484 0008 9A07     		lsl	r2, r3, #30
 3485 000a 3FD5     		bpl	.L320
 3486              		.loc 1 1191 0 is_stmt 0 discriminator 1
 3487 000c 2D4A     		ldr	r2, .L324+8
 3488 000e 1788     		ldrh	r7, [r2]
 3489 0010 122F     		cmp	r7, #18
 3490 0012 3BD8     		bhi	.L320
1192:.\uart_wifi.c **** 		 {
1193:.\uart_wifi.c **** 		   WifiWorkFlag.gcReceComm2OK =0;
1194:.\uart_wifi.c **** 		     //
1195:.\uart_wifi.c **** 			 if(ATTdsReceBuffer[0].gcATReceTdsboardData[10+giTDSBOARDDATALength]==Sum_Make_Verify (&ATTdsRec
 3491              		.loc 1 1195 0 is_stmt 1
 3492 0014 2C4C     		ldr	r4, .L324+12
 3493 0016 391C     		mov	r1, r7
1193:.\uart_wifi.c **** 		   WifiWorkFlag.gcReceComm2OK =0;
 3494              		.loc 1 1193 0
 3495 0018 0222     		mov	r2, #2
 3496              		.loc 1 1195 0
 3497 001a 0A31     		add	r1, r1, #10
1193:.\uart_wifi.c **** 		   WifiWorkFlag.gcReceComm2OK =0;
 3498              		.loc 1 1193 0
 3499 001c 9343     		bic	r3, r2
 3500              		.loc 1 1195 0
 3501 001e 89B2     		uxth	r1, r1
 3502 0020 201C     		mov	r0, r4
1193:.\uart_wifi.c **** 		   WifiWorkFlag.gcReceComm2OK =0;
 3503              		.loc 1 1193 0
 3504 0022 2B70     		strb	r3, [r5]
 3505              		.loc 1 1195 0
 3506 0024 FFF7FEFF 		bl	Sum_Make_Verify
 3507              	.LVL129:
 3508 0028 E719     		add	r7, r4, r7
 3509 002a BB7A     		ldrb	r3, [r7, #10]
 3510 002c 8342     		cmp	r3, r0
 3511 002e 2DD1     		bne	.L320
1196:.\uart_wifi.c **** 			 {
1197:.\uart_wifi.c **** 		                      Tds_Ack_Timer=30;
 3512              		.loc 1 1197 0
 3513 0030 1E23     		mov	r3, #30
 3514 0032 3370     		strb	r3, [r6]
1198:.\uart_wifi.c **** 				 switch(giTDSBOARDCommand)
 3515              		.loc 1 1198 0
 3516 0034 254B     		ldr	r3, .L324+16
 3517 0036 1A88     		ldrh	r2, [r3]
ARM GAS  C:\Users\kevin\AppData\Local\Temp\ccrA27HJ.s 			page 88


 3518 0038 8023     		mov	r3, #128
 3519 003a 5B01     		lsl	r3, r3, #5
 3520 003c 9A42     		cmp	r2, r3
 3521 003e 25D1     		bne	.L320
1199:.\uart_wifi.c **** 				 {
1200:.\uart_wifi.c **** 					 case 0x1000:		      
1201:.\uart_wifi.c **** //					  	Value_Tds0=ATTdsReceBuffer[0].gcATReceTdsboardData[10];
1202:.\uart_wifi.c **** //					  	Value_Tds0=(Value_Tds0<<8)+ATTdsReceBuffer[0].gcATReceTdsboardData[11];
1203:.\uart_wifi.c **** //					  	Value_Tds1=ATTdsReceBuffer[0].gcATReceTdsboardData[12];
1204:.\uart_wifi.c **** //					  	Value_Tds1=(Value_Tds1<<8)+ATTdsReceBuffer[0].gcATReceTdsboardData[13];
1205:.\uart_wifi.c **** 					  	Value_Loushui_Ad=ATTdsReceBuffer[0].gcATReceTdsboardData[14];
 3522              		.loc 1 1205 0
 3523 0040 A27B     		ldrb	r2, [r4, #14]
1206:.\uart_wifi.c **** 					  	Value_Loushui_Ad=(Value_Loushui_Ad<<8)+ATTdsReceBuffer[0].gcATReceTdsboardData[15];
 3524              		.loc 1 1206 0
 3525 0042 E37B     		ldrb	r3, [r4, #15]
 3526 0044 1202     		lsl	r2, r2, #8
 3527 0046 9A18     		add	r2, r3, r2
 3528 0048 214B     		ldr	r3, .L324+20
 3529 004a 1A80     		strh	r2, [r3]
1207:.\uart_wifi.c **** 					  	Value_T=ATTdsReceBuffer[0].gcATReceTdsboardData[16];
 3530              		.loc 1 1207 0
 3531 004c 227C     		ldrb	r2, [r4, #16]
 3532 004e 214B     		ldr	r3, .L324+24
 3533 0050 1A70     		strb	r2, [r3]
1208:.\uart_wifi.c **** 					  	Value_Flow=ATTdsReceBuffer[0].gcATReceTdsboardData[17];
 3534              		.loc 1 1208 0
 3535 0052 627C     		ldrb	r2, [r4, #17]
1209:.\uart_wifi.c **** 					  	Value_Flow=(Value_Flow<<8)+ATTdsReceBuffer[0].gcATReceTdsboardData[18];	
 3536              		.loc 1 1209 0
 3537 0054 A37C     		ldrb	r3, [r4, #18]
 3538 0056 1202     		lsl	r2, r2, #8
 3539 0058 9A18     		add	r2, r3, r2
 3540 005a 1F4B     		ldr	r3, .L324+28
 3541 005c 1A80     		strh	r2, [r3]
1210:.\uart_wifi.c ****               Value_Tds0_Tmp=ATTdsReceBuffer[0].gcATReceTdsboardData[19];
 3542              		.loc 1 1210 0
 3543 005e E07C     		ldrb	r0, [r4, #19]
1211:.\uart_wifi.c **** 					  	Value_Tds0_Tmp=(Value_Tds0_Tmp<<8)+ATTdsReceBuffer[0].gcATReceTdsboardData[20];	
 3544              		.loc 1 1211 0
 3545 0060 237D     		ldrb	r3, [r4, #20]
 3546 0062 0002     		lsl	r0, r0, #8
 3547 0064 1818     		add	r0, r3, r0
 3548 0066 1D4B     		ldr	r3, .L324+32
 3549 0068 80B2     		uxth	r0, r0
 3550 006a 1880     		strh	r0, [r3]
1212:.\uart_wifi.c ****               Value_Tds1_Tmp=ATTdsReceBuffer[0].gcATReceTdsboardData[21];
 3551              		.loc 1 1212 0
 3552 006c 637D     		ldrb	r3, [r4, #21]
1213:.\uart_wifi.c **** 					  	Value_Tds1_Tmp=(Value_Tds1_Tmp<<8)+ATTdsReceBuffer[0].gcATReceTdsboardData[22];	
 3553              		.loc 1 1213 0
 3554 006e A47D     		ldrb	r4, [r4, #22]
 3555 0070 1B02     		lsl	r3, r3, #8
 3556 0072 E418     		add	r4, r4, r3
 3557 0074 1A4B     		ldr	r3, .L324+36
 3558 0076 A4B2     		uxth	r4, r4
 3559 0078 1C80     		strh	r4, [r3]
ARM GAS  C:\Users\kevin\AppData\Local\Temp\ccrA27HJ.s 			page 89


1214:.\uart_wifi.c ****               Value_Tds0=Tds_Scan_In(Value_Tds0_Tmp);//原水
 3560              		.loc 1 1214 0
 3561 007a FFF7FEFF 		bl	Tds_Scan_In
 3562              	.LVL130:
 3563 007e 194B     		ldr	r3, .L324+40
 3564 0080 1880     		strh	r0, [r3]
1215:.\uart_wifi.c ****               Value_Tds1=Tds_Scan_Out(Value_Tds1_Tmp);
 3565              		.loc 1 1215 0
 3566 0082 201C     		mov	r0, r4
 3567 0084 FFF7FEFF 		bl	Tds_Scan_Out
 3568              	.LVL131:
 3569 0088 174B     		ldr	r3, .L324+44
 3570 008a 1880     		strh	r0, [r3]
 3571              	.L320:
1216:.\uart_wifi.c **** 						  break;
1217:.\uart_wifi.c **** 					 default:				 					 
1218:.\uart_wifi.c **** 						break;
1219:.\uart_wifi.c **** 				 } 
1220:.\uart_wifi.c **** 			 }
1221:.\uart_wifi.c **** 		 }		
1222:.\uart_wifi.c ****    if(Tds_Ack_Timer==0)
 3572              		.loc 1 1222 0
 3573 008c 3478     		ldrb	r4, [r6]
 3574 008e 002C     		cmp	r4, #0
 3575 0090 13D1     		bne	.L318
1223:.\uart_wifi.c ****     {
1224:.\uart_wifi.c ****         Tds_Ack_Timer=30;
 3576              		.loc 1 1224 0
 3577 0092 1E22     		mov	r2, #30
 3578 0094 3270     		strb	r2, [r6]
1225:.\uart_wifi.c ****          memset(ATTdsReceBuffer[0].gcATReceTdsboardData,0x00,TDSBUFLEN);
 3579              		.loc 1 1225 0
 3580 0096 0C4E     		ldr	r6, .L324+12
 3581 0098 211C     		mov	r1, r4
 3582 009a 301C     		mov	r0, r6
 3583 009c FFF7FEFF 		bl	memset
 3584              	.LVL132:
1226:.\uart_wifi.c ****         gctdsboardCommunState=0;
 3585              		.loc 1 1226 0
 3586 00a0 124B     		ldr	r3, .L324+48
1227:.\uart_wifi.c ****         giTDSBOARDCommand=0;
1228:.\uart_wifi.c ****         giTDSBOARDDATALength=0;
1229:.\uart_wifi.c ****         WifiWorkFlag.gcReceComm2OK=0;
 3587              		.loc 1 1229 0
 3588 00a2 0222     		mov	r2, #2
1226:.\uart_wifi.c ****         gctdsboardCommunState=0;
 3589              		.loc 1 1226 0
 3590 00a4 1C70     		strb	r4, [r3]
1227:.\uart_wifi.c ****         giTDSBOARDCommand=0;
 3591              		.loc 1 1227 0
 3592 00a6 094B     		ldr	r3, .L324+16
1230:.\uart_wifi.c ****         ATTdsReceBuffer[0].gcATReceTdsboardCount=0; 
 3593              		.loc 1 1230 0
 3594 00a8 F483     		strh	r4, [r6, #30]
1227:.\uart_wifi.c ****         giTDSBOARDCommand=0;
 3595              		.loc 1 1227 0
 3596 00aa 1C80     		strh	r4, [r3]
ARM GAS  C:\Users\kevin\AppData\Local\Temp\ccrA27HJ.s 			page 90


1228:.\uart_wifi.c ****         giTDSBOARDDATALength=0;
 3597              		.loc 1 1228 0
 3598 00ac 054B     		ldr	r3, .L324+8
 3599 00ae 1C80     		strh	r4, [r3]
1229:.\uart_wifi.c ****         WifiWorkFlag.gcReceComm2OK=0;
 3600              		.loc 1 1229 0
 3601 00b0 2B78     		ldrb	r3, [r5]
 3602 00b2 9343     		bic	r3, r2
 3603 00b4 2B70     		strb	r3, [r5]
1231:.\uart_wifi.c ****         Open_UART_TDS_ISR();
 3604              		.loc 1 1231 0
 3605 00b6 FFF7FEFF 		bl	Open_UART_TDS_ISR
 3606              	.LVL133:
 3607              	.L318:
1232:.\uart_wifi.c ****     }
1233:.\uart_wifi.c **** }
 3608              		.loc 1 1233 0
 3609              		@ sp needed
 3610 00ba F8BD     		pop	{r3, r4, r5, r6, r7, pc}
 3611              	.L325:
 3612              		.align	2
 3613              	.L324:
 3614 00bc 00000000 		.word	WifiWorkFlag
 3615 00c0 00000000 		.word	Tds_Ack_Timer
 3616 00c4 00000000 		.word	giTDSBOARDDATALength
 3617 00c8 00000000 		.word	ATTdsReceBuffer
 3618 00cc 00000000 		.word	giTDSBOARDCommand
 3619 00d0 00000000 		.word	Value_Loushui_Ad
 3620 00d4 00000000 		.word	Value_T
 3621 00d8 00000000 		.word	Value_Flow
 3622 00dc 00000000 		.word	Value_Tds0_Tmp
 3623 00e0 00000000 		.word	Value_Tds1_Tmp
 3624 00e4 00000000 		.word	Value_Tds0
 3625 00e8 00000000 		.word	Value_Tds1
 3626 00ec 00000000 		.word	gctdsboardCommunState
 3627              		.cfi_endproc
 3628              	.LFE83:
 3629              		.size	Process_From_Tdsboard_Data, .-Process_From_Tdsboard_Data
 3630              		.section	.text.Error_Send,"ax",%progbits
 3631              		.align	1
 3632              		.global	Error_Send
 3633              		.code	16
 3634              		.thumb_func
 3635              		.type	Error_Send, %function
 3636              	Error_Send:
 3637              	.LFB84:
1234:.\uart_wifi.c **** void Error_Send(void)
1235:.\uart_wifi.c **** {
 3638              		.loc 1 1235 0
 3639              		.cfi_startproc
1236:.\uart_wifi.c **** 
1237:.\uart_wifi.c **** 	if((ErrorFlag.Error_09==1)&&(SendFlag.host_e9_data==0))//漏水
 3640              		.loc 1 1237 0
 3641 0000 124B     		ldr	r3, .L329
1235:.\uart_wifi.c **** {
 3642              		.loc 1 1235 0
 3643 0002 10B5     		push	{r4, lr}
ARM GAS  C:\Users\kevin\AppData\Local\Temp\ccrA27HJ.s 			page 91


 3644              		.cfi_def_cfa_offset 8
 3645              		.cfi_offset 4, -8
 3646              		.cfi_offset 14, -4
 3647              		.loc 1 1237 0
 3648 0004 5A78     		ldrb	r2, [r3, #1]
 3649 0006 1C1C     		mov	r4, r3
 3650 0008 9007     		lsl	r0, r2, #30
 3651 000a 0CD5     		bpl	.L327
 3652              		.loc 1 1237 0 is_stmt 0 discriminator 1
 3653 000c 104B     		ldr	r3, .L329+4
 3654 000e 5A78     		ldrb	r2, [r3, #1]
 3655 0010 9107     		lsl	r1, r2, #30
 3656 0012 08D4     		bmi	.L327
1238:.\uart_wifi.c **** 		{
1239:.\uart_wifi.c **** 			SendFlag.host_e9_data=1;
 3657              		.loc 1 1239 0 is_stmt 1
 3658 0014 0221     		mov	r1, #2
 3659 0016 0A43     		orr	r2, r1
1240:.\uart_wifi.c **** 			Load_Error(HOST_E9_DATA);
 3660              		.loc 1 1240 0
 3661 0018 0E48     		ldr	r0, .L329+8
1239:.\uart_wifi.c **** 			SendFlag.host_e9_data=1;
 3662              		.loc 1 1239 0
 3663 001a 5A70     		strb	r2, [r3, #1]
 3664              		.loc 1 1240 0
 3665 001c FFF7FEFF 		bl	Load_Error
 3666              	.LVL134:
1241:.\uart_wifi.c **** 			Load_Command(HOST_E9_DATA);
 3667              		.loc 1 1241 0
 3668 0020 0C48     		ldr	r0, .L329+8
 3669 0022 FFF7FEFF 		bl	Load_Command
 3670              	.LVL135:
 3671              	.L327:
1242:.\uart_wifi.c **** 		}		
1243:.\uart_wifi.c **** 	if((ErrorFlag.Error_00==1)&&(SendFlag.host_e0_data==0))//制水超时故障上报
 3672              		.loc 1 1243 0
 3673 0026 2178     		ldrb	r1, [r4]
 3674 0028 C907     		lsl	r1, r1, #31
 3675 002a C90F     		lsr	r1, r1, #31
 3676 002c C9B2     		uxtb	r1, r1
 3677 002e 0129     		cmp	r1, #1
 3678 0030 0BD1     		bne	.L326
 3679              		.loc 1 1243 0 is_stmt 0 discriminator 1
 3680 0032 074B     		ldr	r3, .L329+4
 3681 0034 1A78     		ldrb	r2, [r3]
 3682 0036 D007     		lsl	r0, r2, #31
 3683 0038 07D4     		bmi	.L326
1244:.\uart_wifi.c **** 		{
1245:.\uart_wifi.c **** 			SendFlag.host_e0_data=1;
 3684              		.loc 1 1245 0 is_stmt 1
 3685 003a 0A43     		orr	r2, r1
1246:.\uart_wifi.c **** 			Load_Error(HOST_E0_DATA);
 3686              		.loc 1 1246 0
 3687 003c 0648     		ldr	r0, .L329+12
1245:.\uart_wifi.c **** 			SendFlag.host_e0_data=1;
 3688              		.loc 1 1245 0
 3689 003e 1A70     		strb	r2, [r3]
ARM GAS  C:\Users\kevin\AppData\Local\Temp\ccrA27HJ.s 			page 92


 3690              		.loc 1 1246 0
 3691 0040 FFF7FEFF 		bl	Load_Error
 3692              	.LVL136:
1247:.\uart_wifi.c **** 			Load_Command(HOST_E0_DATA);
 3693              		.loc 1 1247 0
 3694 0044 0448     		ldr	r0, .L329+12
 3695 0046 FFF7FEFF 		bl	Load_Command
 3696              	.LVL137:
 3697              	.L326:
1248:.\uart_wifi.c **** 		}
1249:.\uart_wifi.c **** }
 3698              		.loc 1 1249 0
 3699              		@ sp needed
 3700 004a 10BD     		pop	{r4, pc}
 3701              	.L330:
 3702              		.align	2
 3703              	.L329:
 3704 004c 00000000 		.word	ErrorFlag
 3705 0050 00000000 		.word	SendFlag
 3706 0054 F9900000 		.word	37113
 3707 0058 F0900000 		.word	37104
 3708              		.cfi_endproc
 3709              	.LFE84:
 3710              		.size	Error_Send, .-Error_Send
 3711              		.section	.text.Process_From_Wifi_Data,"ax",%progbits
 3712              		.align	1
 3713              		.global	Process_From_Wifi_Data
 3714              		.code	16
 3715              		.thumb_func
 3716              		.type	Process_From_Wifi_Data, %function
 3717              	Process_From_Wifi_Data:
 3718              	.LFB85:
1250:.\uart_wifi.c **** /*
1251:.\uart_wifi.c **** ***************************************************************************************************
1252:.\uart_wifi.c **** ** 函数名称 ：ProcessWIFIData()
1253:.\uart_wifi.c **** ** 函数功能 ：WIFI数据帧处理                        
1254:.\uart_wifi.c **** ** 入口参数 ：无
1255:.\uart_wifi.c **** ** 出口参数 ：无
1256:.\uart_wifi.c **** ***************************************************************************************************
1257:.\uart_wifi.c **** */
1258:.\uart_wifi.c **** void Process_From_Wifi_Data(void)
1259:.\uart_wifi.c **** {
 3719              		.loc 1 1259 0
 3720              		.cfi_startproc
 3721 0000 10B5     		push	{r4, lr}
 3722              		.cfi_def_cfa_offset 8
 3723              		.cfi_offset 4, -8
 3724              		.cfi_offset 14, -4
1260:.\uart_wifi.c ****     //uint8 i;//数据缓冲区判断，主要判断哪些代码需要发送	
1261:.\uart_wifi.c ****   //Rev_Uart();		
1262:.\uart_wifi.c **** 	if((gcWIFICTL & ACK_DATA) == ACK_DATA) 				// 返回指令
 3725              		.loc 1 1262 0
 3726 0002 074B     		ldr	r3, .L337
 3727 0004 1A78     		ldrb	r2, [r3]
 3728 0006 1C1C     		mov	r4, r3
 3729 0008 7F2A     		cmp	r2, #127
 3730 000a 01D9     		bls	.L332
ARM GAS  C:\Users\kevin\AppData\Local\Temp\ccrA27HJ.s 			page 93


1263:.\uart_wifi.c **** 		{	
1264:.\uart_wifi.c **** 			Process_From_Wifi_Ack_Data();
 3731              		.loc 1 1264 0
 3732 000c FFF7FEFF 		bl	Process_From_Wifi_Ack_Data
 3733              	.LVL138:
 3734              	.L332:
1265:.\uart_wifi.c **** 		}
1266:.\uart_wifi.c **** 	if((gcWIFICTL & NOA_DATA) == NOA_DATA) // 主动发送无需对方回复
 3735              		.loc 1 1266 0
 3736 0010 2378     		ldrb	r3, [r4]
 3737 0012 5A06     		lsl	r2, r3, #25
 3738 0014 01D5     		bpl	.L333
1267:.\uart_wifi.c **** 		{  	
1268:.\uart_wifi.c **** 			Process_From_Wifi_Noa_Data();
 3739              		.loc 1 1268 0
 3740 0016 FFF7FEFF 		bl	Process_From_Wifi_Noa_Data
 3741              	.LVL139:
 3742              	.L333:
1269:.\uart_wifi.c **** 		}
1270:.\uart_wifi.c **** 	if((gcWIFICTL & CTL_ACK_DATA) == CTL_ACK_DATA) // 主动发送需对方回复
1271:.\uart_wifi.c **** 		{  	
1272:.\uart_wifi.c **** 			Process_From_Wifi_Ctl_Ack_Data();
 3743              		.loc 1 1272 0
 3744 001a FFF7FEFF 		bl	Process_From_Wifi_Ctl_Ack_Data
 3745              	.LVL140:
1273:.\uart_wifi.c **** 		}
1274:.\uart_wifi.c **** }
 3746              		.loc 1 1274 0
 3747              		@ sp needed
 3748 001e 10BD     		pop	{r4, pc}
 3749              	.L338:
 3750              		.align	2
 3751              	.L337:
 3752 0020 00000000 		.word	gcWIFICTL
 3753              		.cfi_endproc
 3754              	.LFE85:
 3755              		.size	Process_From_Wifi_Data, .-Process_From_Wifi_Data
 3756              		.comm	iSendCounter,2,2
 3757              		.comm	iUartSendLen,2,2
 3758              		.comm	gcTDSBOARDCTL,1,1
 3759              		.comm	giTDSBOARDDATALength,2,2
 3760              		.comm	giTDSBOARDCommand,2,2
 3761              		.comm	gcWIFICTL,1,1
 3762              		.comm	giWIFIDATALength,2,2
 3763              		.comm	giWIFICommand,2,2
 3764              		.comm	Frame_Num,1,1
 3765              		.comm	gctdsboardCommunState,1,1
 3766              		.comm	gcWifiCommunState,1,1
 3767              		.comm	Error_Data_Buf,18,2
 3768              		.comm	Cmd_Function_Buf,16,2
 3769              		.comm	Cmd_Function,2,2
 3770              		.comm	Cmd_Function_Num,1,1
 3771              		.comm	WifidatagramWorkFlag,4,4
 3772              		.comm	ATTdsReceBuffer,32,2
 3773              		.comm	ATReceBuffer,102,2
 3774              		.global	Tab_tds_out
 3775              		.global	Tab_tds_in_02
ARM GAS  C:\Users\kevin\AppData\Local\Temp\ccrA27HJ.s 			page 94


 3776              		.global	Tab_tds_in_01
 3777              		.comm	Send_Interval_Counter,1,1
 3778              		.comm	Value_Flow,2,2
 3779              		.comm	Value_T,1,1
 3780              		.comm	Value_Loushui_Ad,2,2
 3781              		.comm	Value_Tds1_Tmp,2,2
 3782              		.comm	Value_Tds0_Tmp,2,2
 3783              		.comm	Value_Tds1,2,2
 3784              		.comm	Value_Tds0,2,2
 3785              		.comm	cpSendBufPtr,4,4
 3786              		.comm	Work_State_Num_L,1,1
 3787              		.comm	Work_State_Num_H,1,1
 3788              		.comm	Ack_Timer,1,1
 3789              		.comm	u8SmartLinkState,1,1
 3790              		.comm	u8LinkState,1,1
 3791              		.comm	TDScheck4,4,4
 3792              		.comm	TDScheck3,4,4
 3793              		.comm	TDScheck2,4,4
 3794              		.comm	TDScheck1,4,4
 3795              		.comm	WifiWorkFlag,4,4
 3796              		.section	.rodata
 3797              		.align	1
 3798              		.set	.LANCHOR0,. + 0
 3799              		.set	.LANCHOR1,. + 256
 3800              		.set	.LANCHOR2,. + 384
 3801              		.type	Tab_tds_in_01, %object
 3802              		.size	Tab_tds_in_01, 256
 3803              	Tab_tds_in_01:
 3804 0000 00       		.byte	0
 3805 0001 00       		.byte	0
 3806 0002 00       		.byte	0
 3807 0003 00       		.byte	0
 3808 0004 00       		.byte	0
 3809 0005 00       		.byte	0
 3810 0006 00       		.byte	0
 3811 0007 00       		.byte	0
 3812 0008 00       		.byte	0
 3813 0009 00       		.byte	0
 3814 000a 00       		.byte	0
 3815 000b 00       		.byte	0
 3816 000c 00       		.byte	0
 3817 000d 00       		.byte	0
 3818 000e 00       		.byte	0
 3819 000f 00       		.byte	0
 3820 0010 00       		.byte	0
 3821 0011 00       		.byte	0
 3822 0012 00       		.byte	0
 3823 0013 00       		.byte	0
 3824 0014 01       		.byte	1
 3825 0015 01       		.byte	1
 3826 0016 01       		.byte	1
 3827 0017 01       		.byte	1
 3828 0018 01       		.byte	1
 3829 0019 01       		.byte	1
 3830 001a 01       		.byte	1
 3831 001b 01       		.byte	1
 3832 001c 01       		.byte	1
ARM GAS  C:\Users\kevin\AppData\Local\Temp\ccrA27HJ.s 			page 95


 3833 001d 01       		.byte	1
 3834 001e 02       		.byte	2
 3835 001f 02       		.byte	2
 3836 0020 02       		.byte	2
 3837 0021 02       		.byte	2
 3838 0022 02       		.byte	2
 3839 0023 03       		.byte	3
 3840 0024 03       		.byte	3
 3841 0025 03       		.byte	3
 3842 0026 03       		.byte	3
 3843 0027 03       		.byte	3
 3844 0028 04       		.byte	4
 3845 0029 04       		.byte	4
 3846 002a 04       		.byte	4
 3847 002b 04       		.byte	4
 3848 002c 04       		.byte	4
 3849 002d 04       		.byte	4
 3850 002e 04       		.byte	4
 3851 002f 04       		.byte	4
 3852 0030 04       		.byte	4
 3853 0031 04       		.byte	4
 3854 0032 05       		.byte	5
 3855 0033 05       		.byte	5
 3856 0034 06       		.byte	6
 3857 0035 06       		.byte	6
 3858 0036 06       		.byte	6
 3859 0037 07       		.byte	7
 3860 0038 07       		.byte	7
 3861 0039 08       		.byte	8
 3862 003a 08       		.byte	8
 3863 003b 08       		.byte	8
 3864 003c 09       		.byte	9
 3865 003d 09       		.byte	9
 3866 003e 09       		.byte	9
 3867 003f 09       		.byte	9
 3868 0040 09       		.byte	9
 3869 0041 0A       		.byte	10
 3870 0042 0A       		.byte	10
 3871 0043 0A       		.byte	10
 3872 0044 0B       		.byte	11
 3873 0045 0C       		.byte	12
 3874 0046 0D       		.byte	13
 3875 0047 0D       		.byte	13
 3876 0048 0D       		.byte	13
 3877 0049 0E       		.byte	14
 3878 004a 0E       		.byte	14
 3879 004b 0E       		.byte	14
 3880 004c 0F       		.byte	15
 3881 004d 0F       		.byte	15
 3882 004e 10       		.byte	16
 3883 004f 10       		.byte	16
 3884 0050 11       		.byte	17
 3885 0051 12       		.byte	18
 3886 0052 12       		.byte	18
 3887 0053 12       		.byte	18
 3888 0054 13       		.byte	19
 3889 0055 13       		.byte	19
ARM GAS  C:\Users\kevin\AppData\Local\Temp\ccrA27HJ.s 			page 96


 3890 0056 14       		.byte	20
 3891 0057 14       		.byte	20
 3892 0058 15       		.byte	21
 3893 0059 15       		.byte	21
 3894 005a 16       		.byte	22
 3895 005b 17       		.byte	23
 3896 005c 18       		.byte	24
 3897 005d 19       		.byte	25
 3898 005e 1A       		.byte	26
 3899 005f 1B       		.byte	27
 3900 0060 1C       		.byte	28
 3901 0061 1D       		.byte	29
 3902 0062 1E       		.byte	30
 3903 0063 1F       		.byte	31
 3904 0064 1F       		.byte	31
 3905 0065 20       		.byte	32
 3906 0066 20       		.byte	32
 3907 0067 23       		.byte	35
 3908 0068 23       		.byte	35
 3909 0069 24       		.byte	36
 3910 006a 24       		.byte	36
 3911 006b 25       		.byte	37
 3912 006c 26       		.byte	38
 3913 006d 27       		.byte	39
 3914 006e 27       		.byte	39
 3915 006f 28       		.byte	40
 3916 0070 28       		.byte	40
 3917 0071 29       		.byte	41
 3918 0072 29       		.byte	41
 3919 0073 2A       		.byte	42
 3920 0074 2A       		.byte	42
 3921 0075 2B       		.byte	43
 3922 0076 2B       		.byte	43
 3923 0077 2C       		.byte	44
 3924 0078 2C       		.byte	44
 3925 0079 2D       		.byte	45
 3926 007a 2D       		.byte	45
 3927 007b 2E       		.byte	46
 3928 007c 2E       		.byte	46
 3929 007d 2F       		.byte	47
 3930 007e 30       		.byte	48
 3931 007f 31       		.byte	49
 3932 0080 32       		.byte	50
 3933 0081 33       		.byte	51
 3934 0082 34       		.byte	52
 3935 0083 35       		.byte	53
 3936 0084 36       		.byte	54
 3937 0085 37       		.byte	55
 3938 0086 38       		.byte	56
 3939 0087 39       		.byte	57
 3940 0088 3A       		.byte	58
 3941 0089 3B       		.byte	59
 3942 008a 3C       		.byte	60
 3943 008b 3D       		.byte	61
 3944 008c 3E       		.byte	62
 3945 008d 3F       		.byte	63
 3946 008e 40       		.byte	64
ARM GAS  C:\Users\kevin\AppData\Local\Temp\ccrA27HJ.s 			page 97


 3947 008f 41       		.byte	65
 3948 0090 42       		.byte	66
 3949 0091 43       		.byte	67
 3950 0092 44       		.byte	68
 3951 0093 44       		.byte	68
 3952 0094 45       		.byte	69
 3953 0095 46       		.byte	70
 3954 0096 47       		.byte	71
 3955 0097 48       		.byte	72
 3956 0098 49       		.byte	73
 3957 0099 4A       		.byte	74
 3958 009a 4B       		.byte	75
 3959 009b 4C       		.byte	76
 3960 009c 4D       		.byte	77
 3961 009d 4E       		.byte	78
 3962 009e 4F       		.byte	79
 3963 009f 50       		.byte	80
 3964 00a0 50       		.byte	80
 3965 00a1 51       		.byte	81
 3966 00a2 52       		.byte	82
 3967 00a3 53       		.byte	83
 3968 00a4 54       		.byte	84
 3969 00a5 55       		.byte	85
 3970 00a6 56       		.byte	86
 3971 00a7 57       		.byte	87
 3972 00a8 58       		.byte	88
 3973 00a9 59       		.byte	89
 3974 00aa 5A       		.byte	90
 3975 00ab 5B       		.byte	91
 3976 00ac 5C       		.byte	92
 3977 00ad 5D       		.byte	93
 3978 00ae 5E       		.byte	94
 3979 00af 5F       		.byte	95
 3980 00b0 60       		.byte	96
 3981 00b1 61       		.byte	97
 3982 00b2 62       		.byte	98
 3983 00b3 63       		.byte	99
 3984 00b4 64       		.byte	100
 3985 00b5 65       		.byte	101
 3986 00b6 66       		.byte	102
 3987 00b7 67       		.byte	103
 3988 00b8 68       		.byte	104
 3989 00b9 69       		.byte	105
 3990 00ba 6A       		.byte	106
 3991 00bb 6B       		.byte	107
 3992 00bc 6C       		.byte	108
 3993 00bd 6D       		.byte	109
 3994 00be 6E       		.byte	110
 3995 00bf 6F       		.byte	111
 3996 00c0 70       		.byte	112
 3997 00c1 71       		.byte	113
 3998 00c2 72       		.byte	114
 3999 00c3 73       		.byte	115
 4000 00c4 74       		.byte	116
 4001 00c5 75       		.byte	117
 4002 00c6 76       		.byte	118
 4003 00c7 78       		.byte	120
ARM GAS  C:\Users\kevin\AppData\Local\Temp\ccrA27HJ.s 			page 98


 4004 00c8 7A       		.byte	122
 4005 00c9 7C       		.byte	124
 4006 00ca 7E       		.byte	126
 4007 00cb 80       		.byte	-128
 4008 00cc 82       		.byte	-126
 4009 00cd 84       		.byte	-124
 4010 00ce 86       		.byte	-122
 4011 00cf 88       		.byte	-120
 4012 00d0 8A       		.byte	-118
 4013 00d1 8C       		.byte	-116
 4014 00d2 8E       		.byte	-114
 4015 00d3 90       		.byte	-112
 4016 00d4 92       		.byte	-110
 4017 00d5 94       		.byte	-108
 4018 00d6 96       		.byte	-106
 4019 00d7 98       		.byte	-104
 4020 00d8 9A       		.byte	-102
 4021 00d9 9C       		.byte	-100
 4022 00da 9E       		.byte	-98
 4023 00db A0       		.byte	-96
 4024 00dc A2       		.byte	-94
 4025 00dd A4       		.byte	-92
 4026 00de A6       		.byte	-90
 4027 00df A8       		.byte	-88
 4028 00e0 AA       		.byte	-86
 4029 00e1 AC       		.byte	-84
 4030 00e2 AE       		.byte	-82
 4031 00e3 B0       		.byte	-80
 4032 00e4 B2       		.byte	-78
 4033 00e5 B4       		.byte	-76
 4034 00e6 B7       		.byte	-73
 4035 00e7 BA       		.byte	-70
 4036 00e8 BD       		.byte	-67
 4037 00e9 C0       		.byte	-64
 4038 00ea C3       		.byte	-61
 4039 00eb C6       		.byte	-58
 4040 00ec C8       		.byte	-56
 4041 00ed CB       		.byte	-53
 4042 00ee CE       		.byte	-50
 4043 00ef D0       		.byte	-48
 4044 00f0 D2       		.byte	-46
 4045 00f1 D5       		.byte	-43
 4046 00f2 D8       		.byte	-40
 4047 00f3 DB       		.byte	-37
 4048 00f4 DE       		.byte	-34
 4049 00f5 E1       		.byte	-31
 4050 00f6 E4       		.byte	-28
 4051 00f7 E7       		.byte	-25
 4052 00f8 EA       		.byte	-22
 4053 00f9 ED       		.byte	-19
 4054 00fa F0       		.byte	-16
 4055 00fb F3       		.byte	-13
 4056 00fc F6       		.byte	-10
 4057 00fd F9       		.byte	-7
 4058 00fe FC       		.byte	-4
 4059 00ff FF       		.byte	-1
 4060              		.type	Tab_tds_in_02, %object
ARM GAS  C:\Users\kevin\AppData\Local\Temp\ccrA27HJ.s 			page 99


 4061              		.size	Tab_tds_in_02, 168
 4062              	Tab_tds_in_02:
 4063 0100 0401     		.short	260
 4064 0102 0801     		.short	264
 4065 0104 0C01     		.short	268
 4066 0106 1001     		.short	272
 4067 0108 1401     		.short	276
 4068 010a 1801     		.short	280
 4069 010c 1C01     		.short	284
 4070 010e 2001     		.short	288
 4071 0110 2401     		.short	292
 4072 0112 2801     		.short	296
 4073 0114 2C01     		.short	300
 4074 0116 3001     		.short	304
 4075 0118 3401     		.short	308
 4076 011a 3801     		.short	312
 4077 011c 3C01     		.short	316
 4078 011e 4001     		.short	320
 4079 0120 4401     		.short	324
 4080 0122 4801     		.short	328
 4081 0124 4C01     		.short	332
 4082 0126 5001     		.short	336
 4083 0128 5401     		.short	340
 4084 012a 5901     		.short	345
 4085 012c 5E01     		.short	350
 4086 012e 6301     		.short	355
 4087 0130 6801     		.short	360
 4088 0132 6D01     		.short	365
 4089 0134 7201     		.short	370
 4090 0136 7701     		.short	375
 4091 0138 7C01     		.short	380
 4092 013a 8101     		.short	385
 4093 013c 8601     		.short	390
 4094 013e 8B01     		.short	395
 4095 0140 9001     		.short	400
 4096 0142 9501     		.short	405
 4097 0144 9A01     		.short	410
 4098 0146 9F01     		.short	415
 4099 0148 A401     		.short	420
 4100 014a A901     		.short	425
 4101 014c AE01     		.short	430
 4102 014e B301     		.short	435
 4103 0150 B801     		.short	440
 4104 0152 BD01     		.short	445
 4105 0154 C201     		.short	450
 4106 0156 C701     		.short	455
 4107 0158 CC01     		.short	460
 4108 015a D101     		.short	465
 4109 015c D601     		.short	470
 4110 015e DB01     		.short	475
 4111 0160 E001     		.short	480
 4112 0162 E501     		.short	485
 4113 0164 EA01     		.short	490
 4114 0166 EF01     		.short	495
 4115 0168 F401     		.short	500
 4116 016a F901     		.short	505
 4117 016c FE01     		.short	510
ARM GAS  C:\Users\kevin\AppData\Local\Temp\ccrA27HJ.s 			page 100


 4118 016e 0302     		.short	515
 4119 0170 0802     		.short	520
 4120 0172 0D02     		.short	525
 4121 0174 1202     		.short	530
 4122 0176 1702     		.short	535
 4123 0178 1C02     		.short	540
 4124 017a 2102     		.short	545
 4125 017c 2602     		.short	550
 4126 017e 2B02     		.short	555
 4127 0180 3002     		.short	560
 4128 0182 3602     		.short	566
 4129 0184 3C02     		.short	572
 4130 0186 4202     		.short	578
 4131 0188 4802     		.short	584
 4132 018a 4E02     		.short	590
 4133 018c 5402     		.short	596
 4134 018e 5A02     		.short	602
 4135 0190 6002     		.short	608
 4136 0192 6602     		.short	614
 4137 0194 6C02     		.short	620
 4138 0196 7202     		.short	626
 4139 0198 7802     		.short	632
 4140 019a 7E02     		.short	638
 4141 019c 8402     		.short	644
 4142 019e 8A02     		.short	650
 4143 01a0 9002     		.short	656
 4144 01a2 9602     		.short	662
 4145 01a4 9C02     		.short	668
 4146 01a6 A002     		.short	672
 4147              		.type	Tab_tds_out, %object
 4148              		.size	Tab_tds_out, 79
 4149              	Tab_tds_out:
 4150 01a8 00       		.byte	0
 4151 01a9 01       		.byte	1
 4152 01aa 01       		.byte	1
 4153 01ab 01       		.byte	1
 4154 01ac 01       		.byte	1
 4155 01ad 01       		.byte	1
 4156 01ae 01       		.byte	1
 4157 01af 01       		.byte	1
 4158 01b0 01       		.byte	1
 4159 01b1 01       		.byte	1
 4160 01b2 01       		.byte	1
 4161 01b3 01       		.byte	1
 4162 01b4 01       		.byte	1
 4163 01b5 01       		.byte	1
 4164 01b6 01       		.byte	1
 4165 01b7 01       		.byte	1
 4166 01b8 01       		.byte	1
 4167 01b9 01       		.byte	1
 4168 01ba 01       		.byte	1
 4169 01bb 01       		.byte	1
 4170 01bc 00       		.byte	0
 4171 01bd 00       		.byte	0
 4172 01be 00       		.byte	0
 4173 01bf 00       		.byte	0
 4174 01c0 00       		.byte	0
ARM GAS  C:\Users\kevin\AppData\Local\Temp\ccrA27HJ.s 			page 101


 4175 01c1 00       		.byte	0
 4176 01c2 00       		.byte	0
 4177 01c3 00       		.byte	0
 4178 01c4 00       		.byte	0
 4179 01c5 00       		.byte	0
 4180 01c6 01       		.byte	1
 4181 01c7 01       		.byte	1
 4182 01c8 01       		.byte	1
 4183 01c9 01       		.byte	1
 4184 01ca 01       		.byte	1
 4185 01cb 02       		.byte	2
 4186 01cc 02       		.byte	2
 4187 01cd 02       		.byte	2
 4188 01ce 02       		.byte	2
 4189 01cf 02       		.byte	2
 4190 01d0 03       		.byte	3
 4191 01d1 03       		.byte	3
 4192 01d2 03       		.byte	3
 4193 01d3 03       		.byte	3
 4194 01d4 03       		.byte	3
 4195 01d5 04       		.byte	4
 4196 01d6 04       		.byte	4
 4197 01d7 04       		.byte	4
 4198 01d8 04       		.byte	4
 4199 01d9 04       		.byte	4
 4200 01da 05       		.byte	5
 4201 01db 05       		.byte	5
 4202 01dc 06       		.byte	6
 4203 01dd 06       		.byte	6
 4204 01de 07       		.byte	7
 4205 01df 07       		.byte	7
 4206 01e0 08       		.byte	8
 4207 01e1 08       		.byte	8
 4208 01e2 09       		.byte	9
 4209 01e3 09       		.byte	9
 4210 01e4 0A       		.byte	10
 4211 01e5 0A       		.byte	10
 4212 01e6 0B       		.byte	11
 4213 01e7 0B       		.byte	11
 4214 01e8 0C       		.byte	12
 4215 01e9 0C       		.byte	12
 4216 01ea 0D       		.byte	13
 4217 01eb 0D       		.byte	13
 4218 01ec 0E       		.byte	14
 4219 01ed 0E       		.byte	14
 4220 01ee 0F       		.byte	15
 4221 01ef 0F       		.byte	15
 4222 01f0 10       		.byte	16
 4223 01f1 10       		.byte	16
 4224 01f2 11       		.byte	17
 4225 01f3 12       		.byte	18
 4226 01f4 13       		.byte	19
 4227 01f5 14       		.byte	20
 4228 01f6 15       		.byte	21
 4229 01f7 00       		.bss
 4230              		.set	.LANCHOR3,. + 0
 4231              		.type	cBuf.7334, %object
ARM GAS  C:\Users\kevin\AppData\Local\Temp\ccrA27HJ.s 			page 102


 4232              		.size	cBuf.7334, 100
 4233              	cBuf.7334:
 4234 0000 00000000 		.space	100
 4234      00000000 
 4234      00000000 
 4234      00000000 
 4234      00000000 
 4235              		.text
 4236              	.Letext0:
 4237              		.file 2 ".\\Generated_Source\\PSoC4/cytypes.h"
 4238              		.file 3 ".\\fun.h"
 4239              		.file 4 ".\\uart_wifi.h"
 4240              		.file 5 ".\\module.h"
 4241              		.file 6 ".\\Generated_Source\\PSoC4/TestPort.h"