ARM GAS  C:\Users\kevin\AppData\Local\Temp\ccrA27HJ.s 			page 1


   1              		.cpu cortex-m0
   2              		.fpu softvfp
   3              		.eabi_attribute 20, 1
   4              		.eabi_attribute 21, 1
   5              		.eabi_attribute 23, 3
   6              		.eabi_attribute 24, 1
   7              		.eabi_attribute 25, 1
   8              		.eabi_attribute 26, 1
   9              		.eabi_attribute 30, 4
  10              		.eabi_attribute 34, 0
  11              		.eabi_attribute 18, 4
  12              		.code	16
  13              		.file	"uart_wifi.c"
  14              		.text
  15              	.Ltext0:
  16              		.cfi_sections	.debug_frame
  17              		.global	__aeabi_uidiv
  18              		.global	__aeabi_uidivmod
  19              		.section	.text.Tds_Scan_In,"ax",%progbits
  20              		.align	1
  21              		.global	Tds_Scan_In
  22              		.code	16
  23              		.thumb_func
  24              		.type	Tds_Scan_In, %function
  25              	Tds_Scan_In:
  26              	.LFB33:
  27              		.file 1 ".\\uart_wifi.c"
   1:.\uart_wifi.c **** /* ========================================
   2:.\uart_wifi.c ****  *
   3:.\uart_wifi.c ****  * Copyright YOUR COMPANY, THE YEAR
   4:.\uart_wifi.c ****  * All Rights Reserved
   5:.\uart_wifi.c ****  * UNPUBLISHED, LICENSED SOFTWARE.
   6:.\uart_wifi.c ****  *
   7:.\uart_wifi.c ****  * CONFIDENTIAL AND PROPRIETARY INFORMATION
   8:.\uart_wifi.c ****  * WHICH IS THE PROPERTY OF your company.
   9:.\uart_wifi.c ****  *
  10:.\uart_wifi.c ****  * ========================================
  11:.\uart_wifi.c **** */
  12:.\uart_wifi.c **** #define _UART_WIFI_
  13:.\uart_wifi.c **** #include "config.h"
  14:.\uart_wifi.c **** 
  15:.\uart_wifi.c **** const uint8 Tab_tds_in_01[]={									//tds值补偿表
  16:.\uart_wifi.c ****                             0,0,0,0,0,0,0,0,0,0,            						//00-09
  17:.\uart_wifi.c ****                             0,0,0,0,0,0,0,0,0,0,            						//10-19
  18:.\uart_wifi.c ****                             1,1,1,1,1,1,1,1,1,1,            						//20-29
  19:.\uart_wifi.c ****                             2,2,2,2,2,3,3,3,3,3,            						//30-39
  20:.\uart_wifi.c ****                             4,4,4,4,4,4,4,4,4,4,            						//40-49
  21:.\uart_wifi.c ****                             5,5,6,6,6,7,7,8,8,8,            						//50-59
  22:.\uart_wifi.c ****                             9,9,9,9,9,10,10,10,11,12,       						//60-69
  23:.\uart_wifi.c ****                             13,13,13,14,14,14,15,15,16,16,  						//70-79
  24:.\uart_wifi.c ****                             17,18,18,18,19,19,20,20,21,21,              //80-89
  25:.\uart_wifi.c ****                             22,23,24,25,26,27,28,29,30,31,              //90-99
  26:.\uart_wifi.c ****                             31,32,32,35,35,36,36,37,38,39,              //100-109
  27:.\uart_wifi.c ****                             39,40,40,41,41,42,42,43,43,44,              //110-119
  28:.\uart_wifi.c ****                             44,45,45,46,46,47,48,49,50,51,              //120-129
  29:.\uart_wifi.c ****                             52,53,54,55,56,57,58,59,60,61,              //130-139
  30:.\uart_wifi.c ****                             62,63,64,65,66,67,68,68,69,70,              //140-149
ARM GAS  C:\Users\kevin\AppData\Local\Temp\ccrA27HJ.s 			page 2


  31:.\uart_wifi.c ****                             71,72,73,74,75,76,77,78,79,80,              //150-159
  32:.\uart_wifi.c ****                             80,81,82,83,84,85,86,87,88,89,              //160-169
  33:.\uart_wifi.c ****                             90,91,92,93,94,95,96,97,98,99,              //170-179
  34:.\uart_wifi.c ****                             100,101,102,103,104,105,106,107,108,109,    //180-189
  35:.\uart_wifi.c ****                             110,111,112,113,114,115,116,117,118,120,    //190-199
  36:.\uart_wifi.c ****                             122,124,126,128,130,132,134,136,138,140,    //200-209
  37:.\uart_wifi.c ****                             142,144,146,148,150,152,154,156,158,160,    //210-219
  38:.\uart_wifi.c ****                             162,164,166,168,170,172,174,176,178,180,    //220-229
  39:.\uart_wifi.c ****                             183,186,189,192,195,198,200,203,206,208,    //230-239   
  40:.\uart_wifi.c ****                             210,213,216,219,222,225,228,231,234,237,    //240-249  
  41:.\uart_wifi.c ****                             240,243,246,249,252,255                     //250-255
  42:.\uart_wifi.c **** };//
  43:.\uart_wifi.c **** //--------------------------------------------------------
  44:.\uart_wifi.c **** const uint16 Tab_tds_in_02[]={               //tds值补偿表
  45:.\uart_wifi.c ****                             260,264,268,272,                            //256-259
  46:.\uart_wifi.c ****                             276,280,284,288,292,296,300,304,308,312,    //260-269
  47:.\uart_wifi.c ****                             316,320,324,328,332,336,340,345,350,355,    //270-279
  48:.\uart_wifi.c ****                             360,365,370,375,380,385,390,395,400,405,    //280-289   
  49:.\uart_wifi.c ****                             410,415,420,425,430,435,440,445,450,455,    //290-299   
  50:.\uart_wifi.c ****                             460,465,470,475,480,485,490,495,500,505,    //300-309   
  51:.\uart_wifi.c ****                             510,515,520,525,530,535,540,545,550,555,    //310-319   
  52:.\uart_wifi.c ****                             560,566,572,578,584,590,596,602,608,614,    //320-329
  53:.\uart_wifi.c ****                             620,626,632,638,644,650,656,662,668,672     //330-339
  54:.\uart_wifi.c **** };
  55:.\uart_wifi.c **** //--------------------------------------------------------
  56:.\uart_wifi.c **** const uint8 Tab_tds_out[]={                  //tds值补偿表
  57:.\uart_wifi.c ****                             0,1,1,1,1,1,1,1,1,1,                        //00-09
  58:.\uart_wifi.c ****                             1,1,1,1,1,1,1,1,1,1,                        //10-19
  59:.\uart_wifi.c ****                             0,0,0,0,0,0,0,0,0,0,                        //20-29 
  60:.\uart_wifi.c ****                             1,1,1,1,1,2,2,2,2,2,                        //30-39 
  61:.\uart_wifi.c ****                             3,3,3,3,3,4,4,4,4,4,                        //40-49 
  62:.\uart_wifi.c ****                             5,5,6,6,7,7,8,8,9,9,                         //50-59
  63:.\uart_wifi.c ****                             10,10,11,11,12,12,13,13,14,14,              //60-69
  64:.\uart_wifi.c ****                             15,15,16,16,17,18,19,20,21                  //70-79
  65:.\uart_wifi.c **** };
  66:.\uart_wifi.c **** //--------------------------------------------------------
  67:.\uart_wifi.c **** uint16 Tds_Scan_In(uint16 ram_tds_in)
  68:.\uart_wifi.c **** { 
  28              		.loc 1 68 0
  29              		.cfi_startproc
  30              	.LVL0:
  31 0000 70B5     		push	{r4, r5, r6, lr}
  32              		.cfi_def_cfa_offset 16
  33              		.cfi_offset 4, -16
  34              		.cfi_offset 5, -12
  35              		.cfi_offset 6, -8
  36              		.cfi_offset 14, -4
  69:.\uart_wifi.c **** 	uint16 ram_tds_in_remainder,ram_tds_in_disp;
  70:.\uart_wifi.c **** 	ram_tds_in_remainder=ram_tds_in%10;//进水
  71:.\uart_wifi.c **** 	ram_tds_in_disp=ram_tds_in/10;
  37              		.loc 1 71 0
  38 0002 0A21     		mov	r1, #10
  68:.\uart_wifi.c **** { 
  39              		.loc 1 68 0
  40 0004 051C     		mov	r5, r0
  41              		.loc 1 71 0
  42 0006 FFF7FEFF 		bl	__aeabi_uidiv
ARM GAS  C:\Users\kevin\AppData\Local\Temp\ccrA27HJ.s 			page 3


  43              	.LVL1:
  72:.\uart_wifi.c **** 	if(ram_tds_in_disp>=339)
  44              		.loc 1 72 0
  45 000a A923     		mov	r3, #169
  71:.\uart_wifi.c **** 	ram_tds_in_disp=ram_tds_in/10;
  46              		.loc 1 71 0
  47 000c 84B2     		uxth	r4, r0
  48              	.LVL2:
  49              		.loc 1 72 0
  50 000e 5B00     		lsl	r3, r3, #1
  51 0010 9C42     		cmp	r4, r3
  52 0012 02D8     		bhi	.L7
  73:.\uart_wifi.c **** 	    ram_tds_in_disp=339;
  74:.\uart_wifi.c **** 	if(ram_tds_in_disp<20)
  53              		.loc 1 74 0
  54 0014 132C     		cmp	r4, #19
  55 0016 1FD9     		bls	.L5
  56 0018 01E0     		b	.L2
  57              	.L7:
  73:.\uart_wifi.c **** 	    ram_tds_in_disp=339;
  58              		.loc 1 73 0
  59 001a 5424     		mov	r4, #84
  60 001c FF34     		add	r4, r4, #255
  61              	.L2:
  62              	.LVL3:
  75:.\uart_wifi.c **** 	    ram_tds_in_disp+=0; 
  76:.\uart_wifi.c **** 	else if((ram_tds_in_disp>=20)&&(ram_tds_in_disp<256))
  63              		.loc 1 76 0
  64 001e 231C     		mov	r3, r4
  65 0020 143B     		sub	r3, r3, #20
  66 0022 EB2B     		cmp	r3, #235
  67 0024 04D8     		bhi	.L4
  77:.\uart_wifi.c **** 	    ram_tds_in_disp=ram_tds_in_disp+Tab_tds_in_01[ram_tds_in_disp];     
  68              		.loc 1 77 0
  69 0026 0D4B     		ldr	r3, .L10
  70 0028 1B5D     		ldrb	r3, [r3, r4]
  71 002a 1C19     		add	r4, r3, r4
  72              	.LVL4:
  73 002c A4B2     		uxth	r4, r4
  74              	.LVL5:
  75 002e 13E0     		b	.L5
  76              	.L4:
  78:.\uart_wifi.c **** 	else if(ram_tds_in_disp>=256)
  79:.\uart_wifi.c **** 	    ram_tds_in_disp=ram_tds_in_disp+Tab_tds_in_02[ram_tds_in_disp-256]+ram_tds_in_remainder/3;//ra
  77              		.loc 1 79 0
  78 0030 621E     		sub	r2, r4, #1
  79 0032 0B4B     		ldr	r3, .L10+4
  80 0034 FF3A     		sub	r2, r2, #255
  81 0036 5200     		lsl	r2, r2, #1
  70:.\uart_wifi.c **** 	ram_tds_in_remainder=ram_tds_in%10;//进水
  82              		.loc 1 70 0
  83 0038 281C     		mov	r0, r5
  84 003a 0A21     		mov	r1, #10
  85              		.loc 1 79 0
  86 003c D65A     		ldrh	r6, [r2, r3]
  70:.\uart_wifi.c **** 	ram_tds_in_remainder=ram_tds_in%10;//进水
  87              		.loc 1 70 0
ARM GAS  C:\Users\kevin\AppData\Local\Temp\ccrA27HJ.s 			page 4


  88 003e FFF7FEFF 		bl	__aeabi_uidivmod
  89              	.LVL6:
  90              		.loc 1 79 0
  91 0042 88B2     		uxth	r0, r1
  92 0044 0321     		mov	r1, #3
  93 0046 FFF7FEFF 		bl	__aeabi_uidiv
  94              	.LVL7:
  95 004a 2418     		add	r4, r4, r0
  96              	.LVL8:
  97 004c A419     		add	r4, r4, r6
  80:.\uart_wifi.c **** 	if(ram_tds_in_disp>=995)
  98              		.loc 1 80 0
  99 004e 054B     		ldr	r3, .L10+8
  79:.\uart_wifi.c **** 	    ram_tds_in_disp=ram_tds_in_disp+Tab_tds_in_02[ram_tds_in_disp-256]+ram_tds_in_remainder/3;//ra
 100              		.loc 1 79 0
 101 0050 A4B2     		uxth	r4, r4
 102              	.LVL9:
 103              		.loc 1 80 0
 104 0052 9C42     		cmp	r4, r3
 105 0054 00D9     		bls	.L5
  81:.\uart_wifi.c **** 	    ram_tds_in_disp=999;
 106              		.loc 1 81 0
 107 0056 044C     		ldr	r4, .L10+12
 108              	.LVL10:
 109              	.L5:
  82:.\uart_wifi.c **** 	return ram_tds_in_disp;
  83:.\uart_wifi.c **** }
 110              		.loc 1 83 0
 111 0058 201C     		mov	r0, r4
 112              		@ sp needed
 113              	.LVL11:
 114              	.LVL12:
 115 005a 70BD     		pop	{r4, r5, r6, pc}
 116              	.L11:
 117              		.align	2
 118              	.L10:
 119 005c 00000000 		.word	.LANCHOR0
 120 0060 00010000 		.word	.LANCHOR1
 121 0064 E2030000 		.word	994
 122 0068 E7030000 		.word	999
 123              		.cfi_endproc
 124              	.LFE33:
 125              		.size	Tds_Scan_In, .-Tds_Scan_In
 126              		.section	.text.Tds_Scan_Out,"ax",%progbits
 127              		.align	1
 128              		.global	Tds_Scan_Out
 129              		.code	16
 130              		.thumb_func
 131              		.type	Tds_Scan_Out, %function
 132              	Tds_Scan_Out:
 133              	.LFB34:
  84:.\uart_wifi.c **** uint8 Tds_Scan_Out(uint16 ram_tds_out)
  85:.\uart_wifi.c **** {
 134              		.loc 1 85 0
 135              		.cfi_startproc
 136              	.LVL13:
 137 0000 08B5     		push	{r3, lr}
ARM GAS  C:\Users\kevin\AppData\Local\Temp\ccrA27HJ.s 			page 5


 138              		.cfi_def_cfa_offset 8
 139              		.cfi_offset 3, -8
 140              		.cfi_offset 14, -4
  86:.\uart_wifi.c **** 	uint16 ram_tds_out_disp;
  87:.\uart_wifi.c **** 	ram_tds_out_disp=ram_tds_out/10;//出水
 141              		.loc 1 87 0
 142 0002 0A21     		mov	r1, #10
 143 0004 FFF7FEFF 		bl	__aeabi_uidiv
 144              	.LVL14:
 145 0008 80B2     		uxth	r0, r0
 146              	.LVL15:
  88:.\uart_wifi.c **** 	if(ram_tds_out_disp>=79)//
 147              		.loc 1 88 0
 148 000a 4E28     		cmp	r0, #78
 149 000c 06D8     		bhi	.L17
  89:.\uart_wifi.c **** 		ram_tds_out_disp=79;
  90:.\uart_wifi.c **** 	if(ram_tds_out_disp<20)
 150              		.loc 1 90 0
 151 000e 1328     		cmp	r0, #19
 152 0010 05D8     		bhi	.L13
  91:.\uart_wifi.c **** 	  ram_tds_out_disp=ram_tds_out_disp-Tab_tds_out[ram_tds_out_disp];
 153              		.loc 1 91 0
 154 0012 0A4B     		ldr	r3, .L20
 155 0014 2833     		add	r3, r3, #40
 156 0016 1B5C     		ldrb	r3, [r3, r0]
 157 0018 C01A     		sub	r0, r0, r3
 158              	.LVL16:
 159 001a 08E0     		b	.L19
 160              	.LVL17:
 161              	.L17:
  89:.\uart_wifi.c **** 		ram_tds_out_disp=79;
 162              		.loc 1 89 0
 163 001c 4F20     		mov	r0, #79
 164              	.LVL18:
 165              	.L13:
  92:.\uart_wifi.c **** 	else if((ram_tds_out_disp>=20)&&(ram_tds_out_disp<30))
 166              		.loc 1 92 0
 167 001e 031C     		mov	r3, r0
 168 0020 143B     		sub	r3, r3, #20
 169 0022 092B     		cmp	r3, #9
 170 0024 07D9     		bls	.L16
  93:.\uart_wifi.c **** 	  ram_tds_out_disp+=0;
  94:.\uart_wifi.c **** 	else if(ram_tds_out_disp>=30)
  95:.\uart_wifi.c **** 	  ram_tds_out_disp=ram_tds_out_disp+Tab_tds_out[ram_tds_out_disp];
 171              		.loc 1 95 0
 172 0026 054B     		ldr	r3, .L20
 173 0028 2833     		add	r3, r3, #40
 174 002a 1B5C     		ldrb	r3, [r3, r0]
 175 002c 1818     		add	r0, r3, r0
 176              	.LVL19:
 177              	.L19:
 178 002e 80B2     		uxth	r0, r0
 179              	.LVL20:
  96:.\uart_wifi.c **** 	if(ram_tds_out_disp>=98)
 180              		.loc 1 96 0
 181 0030 6128     		cmp	r0, #97
 182 0032 00D9     		bls	.L16
ARM GAS  C:\Users\kevin\AppData\Local\Temp\ccrA27HJ.s 			page 6


  97:.\uart_wifi.c **** 		ram_tds_out_disp=99;
 183              		.loc 1 97 0
 184 0034 6320     		mov	r0, #99
 185              	.LVL21:
 186              	.L16:
  98:.\uart_wifi.c **** 	return ram_tds_out_disp;
 187              		.loc 1 98 0
 188 0036 C0B2     		uxtb	r0, r0
 189              	.LVL22:
  99:.\uart_wifi.c **** }
 190              		.loc 1 99 0
 191              		@ sp needed
 192 0038 08BD     		pop	{r3, pc}
 193              	.L21:
 194 003a C046     		.align	2
 195              	.L20:
 196 003c 80010000 		.word	.LANCHOR2
 197              		.cfi_endproc
 198              	.LFE34:
 199              		.size	Tds_Scan_Out, .-Tds_Scan_Out
 200              		.section	.text.Sum_Verify,"ax",%progbits
 201              		.align	1
 202              		.global	Sum_Verify
 203              		.code	16
 204              		.thumb_func
 205              		.type	Sum_Verify, %function
 206              	Sum_Verify:
 207              	.LFB35:
 100:.\uart_wifi.c **** typedef struct Buffer0
 101:.\uart_wifi.c **** {
 102:.\uart_wifi.c **** 	uint8  	gcATReceData[WIFIBUFLEN];  // wifi 模块一次传输1440字节，这里有51芯片只有1
 103:.\uart_wifi.c **** 	uint16 	gcATReceCount;
 104:.\uart_wifi.c **** } Buffer2;
 105:.\uart_wifi.c **** struct Buffer0    ATReceBuffer[1];
 106:.\uart_wifi.c **** typedef struct Buffer1
 107:.\uart_wifi.c **** {
 108:.\uart_wifi.c **** 	uint8  	gcATReceTdsboardData[TDSBUFLEN];  // wifi 模块一次传输1440字节，这里有51芯片
 109:.\uart_wifi.c ****   uint16  gcATReceTdsboardCount;
 110:.\uart_wifi.c **** } Buffer1;
 111:.\uart_wifi.c **** struct Buffer1    ATTdsReceBuffer[1];
 112:.\uart_wifi.c **** 
 113:.\uart_wifi.c **** struct{
 114:.\uart_wifi.c ****     unsigned send_data_load:1;            //启动发送标志
 115:.\uart_wifi.c ****     unsigned flag_rev_end:1;              //接收完毕标志
 116:.\uart_wifi.c ****     unsigned uart_ack:1;              //应答标志位
 117:.\uart_wifi.c ****     unsigned flag_Uart_Work:1;         //Uart_Work标志位
 118:.\uart_wifi.c **** }WifidatagramWorkFlag;
 119:.\uart_wifi.c **** uint8	Work_State_Num_H,Work_State_Num_L;
 120:.\uart_wifi.c **** uint8	Cmd_Function_Num;
 121:.\uart_wifi.c **** uint16 Cmd_Function,Cmd_Function_Buf[8];     //设置8组缓冲区
 122:.\uart_wifi.c **** 
 123:.\uart_wifi.c **** uint16 Error_Data_Buf[9];
 124:.\uart_wifi.c **** uint8	gcWifiCommunState;   	// 通讯接收状态
 125:.\uart_wifi.c **** uint8	gctdsboardCommunState;   	// 通讯接收状态
 126:.\uart_wifi.c **** uint8 Frame_Num;//总帧数量
 127:.\uart_wifi.c **** uint16 giWIFICommand;//wifi控制命令
 128:.\uart_wifi.c **** uint16 giWIFIDATALength;//wifi数据长度
ARM GAS  C:\Users\kevin\AppData\Local\Temp\ccrA27HJ.s 			page 7


 129:.\uart_wifi.c **** uint8 gcWIFICTL;//wifi控制字
 130:.\uart_wifi.c **** uint16 giTDSBOARDCommand;//wifi控制命令
 131:.\uart_wifi.c **** uint16 giTDSBOARDDATALength;//wifi数据长度
 132:.\uart_wifi.c **** uint8 gcTDSBOARDCTL;//wifi控制字
 133:.\uart_wifi.c **** uint16		iUartSendLen;
 134:.\uart_wifi.c **** uint16		iSendCounter;
 135:.\uart_wifi.c **** uint16 iSendCounter,iUartSendLen;
 136:.\uart_wifi.c **** uint8 *cpSendBufPtr;
 137:.\uart_wifi.c **** uint8	Send_Interval_Counter;//发送时间间隔20ms 
 138:.\uart_wifi.c **** /******************************************************************************
 139:.\uart_wifi.c **** * 函 数 名: uint8 Sum_Verify (uint8 *PBuf, uint16 Len)
 140:.\uart_wifi.c **** * 函数功能: 串口接收程序
 141:.\uart_wifi.c **** * 入口参数: 无
 142:.\uart_wifi.c **** * 返    回: 
 143:.\uart_wifi.c **** *******************************************************************************/
 144:.\uart_wifi.c **** CYBIT Sum_Verify (uint8 *PBuf, uint16 Len)
 145:.\uart_wifi.c **** {
 208              		.loc 1 145 0
 209              		.cfi_startproc
 210              	.LVL23:
 146:.\uart_wifi.c ****     uint8 Verify = 0;
 211              		.loc 1 146 0
 212 0000 0023     		mov	r3, #0
 213              	.LVL24:
 214              	.L23:
 147:.\uart_wifi.c ****     while (Len--)
 215              		.loc 1 147 0 discriminator 1
 216 0002 0139     		sub	r1, r1, #1
 217              	.LVL25:
 218 0004 064A     		ldr	r2, .L26
 219 0006 89B2     		uxth	r1, r1
 220              	.LVL26:
 221 0008 9142     		cmp	r1, r2
 222 000a 04D0     		beq	.L25
 148:.\uart_wifi.c ****     {
 149:.\uart_wifi.c ****         Verify = Verify + (*PBuf);
 223              		.loc 1 149 0
 224 000c 0278     		ldrb	r2, [r0]
 150:.\uart_wifi.c ****         PBuf ++;
 225              		.loc 1 150 0
 226 000e 0130     		add	r0, r0, #1
 227              	.LVL27:
 149:.\uart_wifi.c ****         Verify = Verify + (*PBuf);
 228              		.loc 1 149 0
 229 0010 9B18     		add	r3, r3, r2
 230              	.LVL28:
 231 0012 DBB2     		uxtb	r3, r3
 232              	.LVL29:
 233 0014 F5E7     		b	.L23
 234              	.L25:
 151:.\uart_wifi.c ****     }
 152:.\uart_wifi.c ****     return (Verify == 0);                                //如果verify为0 返回1 否则返回0
 235              		.loc 1 152 0
 236 0016 5842     		neg	r0, r3
 237 0018 5841     		adc	r0, r0, r3
 238              	.LVL30:
 239 001a C0B2     		uxtb	r0, r0
ARM GAS  C:\Users\kevin\AppData\Local\Temp\ccrA27HJ.s 			page 8


 153:.\uart_wifi.c **** }
 240              		.loc 1 153 0
 241              		@ sp needed
 242 001c 7047     		bx	lr
 243              	.L27:
 244 001e C046     		.align	2
 245              	.L26:
 246 0020 FFFF0000 		.word	65535
 247              		.cfi_endproc
 248              	.LFE35:
 249              		.size	Sum_Verify, .-Sum_Verify
 250              		.section	.text.Sum_Make_Verify,"ax",%progbits
 251              		.align	1
 252              		.global	Sum_Make_Verify
 253              		.code	16
 254              		.thumb_func
 255              		.type	Sum_Make_Verify, %function
 256              	Sum_Make_Verify:
 257              	.LFB36:
 154:.\uart_wifi.c **** /******************************************************************************
 155:.\uart_wifi.c **** * 函 数 名: Sum_Make_Verify (uint8 *pBuf, uint len)
 156:.\uart_wifi.c **** * 函数功能: 串口接收程序
 157:.\uart_wifi.c **** * 入口参数: 无
 158:.\uart_wifi.c **** * 返    回: 
 159:.\uart_wifi.c **** *******************************************************************************/
 160:.\uart_wifi.c **** uint8 Sum_Make_Verify (uint8 *PBuf, uint16 Len)
 161:.\uart_wifi.c **** {
 258              		.loc 1 161 0
 259              		.cfi_startproc
 260              	.LVL31:
 162:.\uart_wifi.c ****     uint8 Verify = 0;
 261              		.loc 1 162 0
 262 0000 0023     		mov	r3, #0
 263              	.LVL32:
 264              	.L29:
 163:.\uart_wifi.c ****     while (Len--)
 265              		.loc 1 163 0 discriminator 1
 266 0002 0139     		sub	r1, r1, #1
 267              	.LVL33:
 268 0004 054A     		ldr	r2, .L32
 269 0006 89B2     		uxth	r1, r1
 270              	.LVL34:
 271 0008 9142     		cmp	r1, r2
 272 000a 04D0     		beq	.L31
 164:.\uart_wifi.c ****     {
 165:.\uart_wifi.c ****         Verify = Verify + (*PBuf);
 273              		.loc 1 165 0
 274 000c 0278     		ldrb	r2, [r0]
 166:.\uart_wifi.c ****         ++ PBuf;
 275              		.loc 1 166 0
 276 000e 0130     		add	r0, r0, #1
 277              	.LVL35:
 165:.\uart_wifi.c ****         Verify = Verify + (*PBuf);
 278              		.loc 1 165 0
 279 0010 9B18     		add	r3, r3, r2
 280              	.LVL36:
 281 0012 DBB2     		uxtb	r3, r3
ARM GAS  C:\Users\kevin\AppData\Local\Temp\ccrA27HJ.s 			page 9


 282              	.LVL37:
 283 0014 F5E7     		b	.L29
 284              	.L31:
 167:.\uart_wifi.c ****     }
 168:.\uart_wifi.c ****     return (~Verify + 1);
 285              		.loc 1 168 0
 286 0016 5B42     		neg	r3, r3
 287              	.LVL38:
 288 0018 D8B2     		uxtb	r0, r3
 289              	.LVL39:
 169:.\uart_wifi.c **** }
 290              		.loc 1 169 0
 291              		@ sp needed
 292 001a 7047     		bx	lr
 293              	.L33:
 294              		.align	2
 295              	.L32:
 296 001c FFFF0000 		.word	65535
 297              		.cfi_endproc
 298              	.LFE36:
 299              		.size	Sum_Make_Verify, .-Sum_Make_Verify
 300              		.section	.text.LoadUARTData,"ax",%progbits
 301              		.align	1
 302              		.global	LoadUARTData
 303              		.code	16
 304              		.thumb_func
 305              		.type	LoadUARTData, %function
 306              	LoadUARTData:
 307              	.LFB37:
 170:.\uart_wifi.c **** /*
 171:.\uart_wifi.c **** 	========================================================================
 172:.\uart_wifi.c **** * 函 数 名: LodaUARTData(   IN unsigned char  UartData)
 173:.\uart_wifi.c **** * 函数功能: 串口发送程序
 174:.\uart_wifi.c **** * 入口参数: UartData
 175:.\uart_wifi.c **** * 返    回: 
 176:.\uart_wifi.c **** 	========================================================================
 177:.\uart_wifi.c **** */
 178:.\uart_wifi.c **** void LoadUARTData(uint8  UartData)
 179:.\uart_wifi.c **** {
 308              		.loc 1 179 0
 309              		.cfi_startproc
 310              	.LVL40:
 311 0000 38B5     		push	{r3, r4, r5, lr}
 312              		.cfi_def_cfa_offset 16
 313              		.cfi_offset 3, -16
 314              		.cfi_offset 4, -12
 315              		.cfi_offset 5, -8
 316              		.cfi_offset 14, -4
 180:.\uart_wifi.c **** 	switch (gcWifiCommunState)
 317              		.loc 1 180 0
 318 0002 3C4A     		ldr	r2, .L60
 179:.\uart_wifi.c **** {
 319              		.loc 1 179 0
 320 0004 031C     		mov	r3, r0
 321              		.loc 1 180 0
 322 0006 1078     		ldrb	r0, [r2]
 323              	.LVL41:
ARM GAS  C:\Users\kevin\AppData\Local\Temp\ccrA27HJ.s 			page 10


 324 0008 111C     		mov	r1, r2
 325 000a 0B28     		cmp	r0, #11
 326 000c 6FD8     		bhi	.L35
 327 000e 3A4A     		ldr	r2, .L60+4
 328 0010 FFF7FEFF 		bl	__gnu_thumb1_case_uqi
 329              	.L37:
 330 0014 06       		.byte	(.L36-.L37)/2
 331 0015 0B       		.byte	(.L38-.L37)/2
 332 0016 11       		.byte	(.L39-.L37)/2
 333 0017 17       		.byte	(.L40-.L37)/2
 334 0018 1B       		.byte	(.L41-.L37)/2
 335 0019 1F       		.byte	(.L42-.L37)/2
 336 001a 25       		.byte	(.L43-.L37)/2
 337 001b 2B       		.byte	(.L44-.L37)/2
 338 001c 34       		.byte	(.L45-.L37)/2
 339 001d 3A       		.byte	(.L46-.L37)/2
 340 001e 48       		.byte	(.L47-.L37)/2
 341 001f 5B       		.byte	(.L48-.L37)/2
 342              		.p2align 1
 343              	.L36:
 181:.\uart_wifi.c **** 		{
 182:.\uart_wifi.c **** 			 case WIFI_WAIT_SYN_0:		                 // 1数据包头FA
 183:.\uart_wifi.c **** 			   		if(UartData==WIFI_SYN_0)
 344              		.loc 1 183 0
 345 0020 FA2B     		cmp	r3, #250
 346 0022 65D1     		bne	.L59
 184:.\uart_wifi.c ****   			   		gcWifiCommunState = WIFI_WAIT_SYN_1;
 347              		.loc 1 184 0
 348 0024 0120     		mov	r0, #1
 349 0026 0870     		strb	r0, [r1]
 350 0028 62E0     		b	.L59
 351              	.L38:
 185:.\uart_wifi.c ****   			  	    ATReceBuffer[0].gcATReceData[0]= UartData;
 186:.\uart_wifi.c **** 			  		break;
 187:.\uart_wifi.c **** 			 case WIFI_WAIT_SYN_1:		                // 2数据包头FB
 188:.\uart_wifi.c **** 			   		if(UartData==WIFI_SYN_1)
 352              		.loc 1 188 0
 353 002a FB2B     		cmp	r3, #251
 354 002c 01D1     		bne	.L51
 189:.\uart_wifi.c ****   			   		gcWifiCommunState = WIFI_PROTOCOL_JUDGE;
 355              		.loc 1 189 0
 356 002e 0220     		mov	r0, #2
 357 0030 0870     		strb	r0, [r1]
 358              	.L51:
 190:.\uart_wifi.c ****   			  	    ATReceBuffer[0].gcATReceData[1]= UartData;
 359              		.loc 1 190 0
 360 0032 5370     		strb	r3, [r2, #1]
 191:.\uart_wifi.c **** 			  		break;
 361              		.loc 1 191 0
 362 0034 5DE0     		b	.L34
 363              	.L39:
 192:.\uart_wifi.c **** 			 case WIFI_PROTOCOL_JUDGE:                //3协议版本
 193:.\uart_wifi.c **** 			 			if(UartData==WIFI_PROTOCOL_VERSION)
 364              		.loc 1 193 0
 365 0036 002B     		cmp	r3, #0
 366 0038 01D1     		bne	.L52
 194:.\uart_wifi.c ****   			   		gcWifiCommunState = WIFI_TOTAL_FRAME_NUM;
ARM GAS  C:\Users\kevin\AppData\Local\Temp\ccrA27HJ.s 			page 11


 367              		.loc 1 194 0
 368 003a 0320     		mov	r0, #3
 369 003c 0870     		strb	r0, [r1]
 370              	.L52:
 195:.\uart_wifi.c ****   			  	ATReceBuffer[0].gcATReceData[2]= UartData;
 371              		.loc 1 195 0
 372 003e 9370     		strb	r3, [r2, #2]
 196:.\uart_wifi.c **** 			  		break;
 373              		.loc 1 196 0
 374 0040 57E0     		b	.L34
 375              	.L40:
 197:.\uart_wifi.c **** 			 case WIFI_TOTAL_FRAME_NUM:               //4总帧数量
 198:.\uart_wifi.c **** 			 			gcWifiCommunState = WIFI_FRAME_NUM;
 376              		.loc 1 198 0
 377 0042 0420     		mov	r0, #4
 378 0044 0870     		strb	r0, [r1]
 199:.\uart_wifi.c ****   			  	ATReceBuffer[0].gcATReceData[3]= UartData;
 379              		.loc 1 199 0
 380 0046 D370     		strb	r3, [r2, #3]
 200:.\uart_wifi.c **** 			  		break;		
 381              		.loc 1 200 0
 382 0048 53E0     		b	.L34
 383              	.L41:
 201:.\uart_wifi.c **** 			 case WIFI_FRAME_NUM:                    //5帧序号
 202:.\uart_wifi.c **** 			 			gcWifiCommunState = WIFI_WAIT_CTL;
 384              		.loc 1 202 0
 385 004a 0520     		mov	r0, #5
 386 004c 0870     		strb	r0, [r1]
 203:.\uart_wifi.c ****   			  	ATReceBuffer[0].gcATReceData[4]= UartData;
 387              		.loc 1 203 0
 388 004e 1371     		strb	r3, [r2, #4]
 204:.\uart_wifi.c **** 			  		break;		
 389              		.loc 1 204 0
 390 0050 4FE0     		b	.L34
 391              	.L42:
 205:.\uart_wifi.c **** 			 case WIFI_WAIT_CTL:	               // 6控制字
 206:.\uart_wifi.c **** 			    	gcWIFICTL = UartData;
 392              		.loc 1 206 0
 393 0052 2A48     		ldr	r0, .L60+8
 207:.\uart_wifi.c **** 						gcWifiCommunState = WIFI_COMMAND_1;
 208:.\uart_wifi.c ****   			  	ATReceBuffer[0].gcATReceData[5]= UartData;
 394              		.loc 1 208 0
 395 0054 5371     		strb	r3, [r2, #5]
 206:.\uart_wifi.c **** 			    	gcWIFICTL = UartData;
 396              		.loc 1 206 0
 397 0056 0370     		strb	r3, [r0]
 207:.\uart_wifi.c **** 						gcWifiCommunState = WIFI_COMMAND_1;
 398              		.loc 1 207 0
 399 0058 0620     		mov	r0, #6
 400 005a 0870     		strb	r0, [r1]
 209:.\uart_wifi.c **** 			 			break;		 
 401              		.loc 1 209 0
 402 005c 49E0     		b	.L34
 403              	.L43:
 210:.\uart_wifi.c **** 			 case WIFI_COMMAND_1:	           // 7指令1
 211:.\uart_wifi.c **** 			    	giWIFICommand = UartData;
 404              		.loc 1 211 0
ARM GAS  C:\Users\kevin\AppData\Local\Temp\ccrA27HJ.s 			page 12


 405 005e 2848     		ldr	r0, .L60+12
 212:.\uart_wifi.c **** 						gcWifiCommunState = WIFI_COMMAND_2;
 213:.\uart_wifi.c ****   			  	ATReceBuffer[0].gcATReceData[6]= UartData;
 406              		.loc 1 213 0
 407 0060 9371     		strb	r3, [r2, #6]
 211:.\uart_wifi.c **** 			    	giWIFICommand = UartData;
 408              		.loc 1 211 0
 409 0062 0380     		strh	r3, [r0]
 212:.\uart_wifi.c **** 						gcWifiCommunState = WIFI_COMMAND_2;
 410              		.loc 1 212 0
 411 0064 0720     		mov	r0, #7
 412 0066 0870     		strb	r0, [r1]
 214:.\uart_wifi.c **** 			 			break;
 413              		.loc 1 214 0
 414 0068 43E0     		b	.L34
 415              	.L44:
 215:.\uart_wifi.c **** 			 case WIFI_COMMAND_2:			  // 8指令2
 216:.\uart_wifi.c **** 			    	giWIFICommand = (giWIFICommand<<8)+UartData;
 416              		.loc 1 216 0
 417 006a 2548     		ldr	r0, .L60+12
 217:.\uart_wifi.c ****       				  gcWifiCommunState = WIFI_LENGTH1;     
 218:.\uart_wifi.c ****   			  	ATReceBuffer[0].gcATReceData[7]= UartData;
 418              		.loc 1 218 0
 419 006c D371     		strb	r3, [r2, #7]
 216:.\uart_wifi.c **** 			    	giWIFICommand = (giWIFICommand<<8)+UartData;
 420              		.loc 1 216 0
 421 006e 0488     		ldrh	r4, [r0]
 422 0070 2402     		lsl	r4, r4, #8
 423 0072 1C19     		add	r4, r3, r4
 424 0074 0480     		strh	r4, [r0]
 217:.\uart_wifi.c ****       				  gcWifiCommunState = WIFI_LENGTH1;     
 425              		.loc 1 217 0
 426 0076 0820     		mov	r0, #8
 427 0078 0870     		strb	r0, [r1]
 219:.\uart_wifi.c **** 			 			break;			 					  		
 428              		.loc 1 219 0
 429 007a 3AE0     		b	.L34
 430              	.L45:
 220:.\uart_wifi.c **** 			 case WIFI_LENGTH1:	           // 9数据长度1
 221:.\uart_wifi.c **** 			    	giWIFIDATALength = UartData;
 431              		.loc 1 221 0
 432 007c 2148     		ldr	r0, .L60+16
 222:.\uart_wifi.c **** 						gcWifiCommunState = WIFI_LENGTH2;
 223:.\uart_wifi.c ****   			  	ATReceBuffer[0].gcATReceData[8]= UartData;
 433              		.loc 1 223 0
 434 007e 1372     		strb	r3, [r2, #8]
 221:.\uart_wifi.c **** 			    	giWIFIDATALength = UartData;
 435              		.loc 1 221 0
 436 0080 0380     		strh	r3, [r0]
 222:.\uart_wifi.c **** 						gcWifiCommunState = WIFI_LENGTH2;
 437              		.loc 1 222 0
 438 0082 0920     		mov	r0, #9
 439 0084 0870     		strb	r0, [r1]
 224:.\uart_wifi.c **** 			 			break;
 440              		.loc 1 224 0
 441 0086 34E0     		b	.L34
 442              	.L46:
ARM GAS  C:\Users\kevin\AppData\Local\Temp\ccrA27HJ.s 			page 13


 225:.\uart_wifi.c **** 			 case WIFI_LENGTH2:			  // 10数据长度2
 226:.\uart_wifi.c **** 			    	giWIFIDATALength = (giWIFIDATALength<<8)+UartData;
 443              		.loc 1 226 0
 444 0088 1E4C     		ldr	r4, .L60+16
 445 008a 2088     		ldrh	r0, [r4]
 446 008c 0002     		lsl	r0, r0, #8
 447 008e 1818     		add	r0, r3, r0
 448 0090 80B2     		uxth	r0, r0
 449 0092 2080     		strh	r0, [r4]
 227:.\uart_wifi.c ****     				if(giWIFIDATALength>0)   // 
 450              		.loc 1 227 0
 451 0094 0028     		cmp	r0, #0
 452 0096 01D0     		beq	.L53
 228:.\uart_wifi.c ****       				{
 229:.\uart_wifi.c ****       				  gcWifiCommunState = WIFI_RECEDATA;
 453              		.loc 1 229 0
 454 0098 0B20     		mov	r0, #11
 455 009a 00E0     		b	.L58
 456              	.L53:
 230:.\uart_wifi.c ****       				} 
 231:.\uart_wifi.c ****     				else
 232:.\uart_wifi.c ****       				{
 233:.\uart_wifi.c ****       				   gcWifiCommunState = WIFI_CHCK; 
 457              		.loc 1 233 0
 458 009c 0A20     		mov	r0, #10
 459              	.L58:
 460 009e 0870     		strb	r0, [r1]
 234:.\uart_wifi.c ****       				}
 235:.\uart_wifi.c ****   			  	ATReceBuffer[0].gcATReceData[9]= UartData;
 461              		.loc 1 235 0
 462 00a0 5372     		strb	r3, [r2, #9]
 236:.\uart_wifi.c **** 			 			break;
 463              		.loc 1 236 0
 464 00a2 26E0     		b	.L34
 465              	.L47:
 237:.\uart_wifi.c ****     	case WIFI_CHCK:	  // 11校验 
 238:.\uart_wifi.c ****     				if (ATReceBuffer[0].gcATReceCount<=(WIFIBUFLEN-10-1)) 
 466              		.loc 1 238 0
 467 00a4 101C     		mov	r0, r2
 468 00a6 6430     		add	r0, r0, #100
 469 00a8 0488     		ldrh	r4, [r0]
 470 00aa 592C     		cmp	r4, #89
 471 00ac 21D8     		bhi	.L34
 239:.\uart_wifi.c ****     					{
 240:.\uart_wifi.c ****   			    		ATReceBuffer[0].gcATReceData[10+ATReceBuffer[0].gcATReceCount]= UartData; 
 472              		.loc 1 240 0
 473 00ae 1219     		add	r2, r2, r4
 474 00b0 9372     		strb	r3, [r2, #10]
 241:.\uart_wifi.c ****   			    		ATReceBuffer[0].gcATReceCount = 0;
 475              		.loc 1 241 0
 476 00b2 0023     		mov	r3, #0
 477 00b4 0380     		strh	r3, [r0]
 242:.\uart_wifi.c **** 	      				gcWifiCommunState = WIFI_WAIT_SYN_0;
 478              		.loc 1 242 0
 479 00b6 0B70     		strb	r3, [r1]
 243:.\uart_wifi.c **** 	      				WifiWorkFlag.gcReceComm1OK = 1;  // 数据成功接收完毕 
 480              		.loc 1 243 0
ARM GAS  C:\Users\kevin\AppData\Local\Temp\ccrA27HJ.s 			page 14


 481 00b8 134B     		ldr	r3, .L60+20
 482 00ba 0421     		mov	r1, #4
 483 00bc 1A78     		ldrb	r2, [r3]
 244:.\uart_wifi.c ****                         TestPort_Write(1); 
 484              		.loc 1 244 0
 485 00be 0120     		mov	r0, #1
 243:.\uart_wifi.c **** 	      				WifiWorkFlag.gcReceComm1OK = 1;  // 数据成功接收完毕 
 486              		.loc 1 243 0
 487 00c0 0A43     		orr	r2, r1
 488 00c2 1A70     		strb	r2, [r3]
 489              		.loc 1 244 0
 490 00c4 FFF7FEFF 		bl	TestPort_Write
 491              	.LVL42:
 492 00c8 13E0     		b	.L34
 493              	.L48:
 245:.\uart_wifi.c ****     					}         						
 246:.\uart_wifi.c **** 
 247:.\uart_wifi.c **** 
 248:.\uart_wifi.c **** 
 249:.\uart_wifi.c **** 			 			break;
 250:.\uart_wifi.c **** 		case WIFI_RECEDATA:  // 12数据内容
 251:.\uart_wifi.c ****     				if (ATReceBuffer[0].gcATReceCount<(WIFIBUFLEN-10-1)) 
 494              		.loc 1 251 0
 495 00ca 141C     		mov	r4, r2
 496 00cc 6434     		add	r4, r4, #100
 497 00ce 2088     		ldrh	r0, [r4]
 498 00d0 5828     		cmp	r0, #88
 499 00d2 03D8     		bhi	.L56
 252:.\uart_wifi.c ****     					{
 253:.\uart_wifi.c ****   			    		ATReceBuffer[0].gcATReceData[10+ATReceBuffer[0].gcATReceCount]= UartData;
 500              		.loc 1 253 0
 501 00d4 1518     		add	r5, r2, r0
 254:.\uart_wifi.c ****   			    		ATReceBuffer[0].gcATReceCount++;    						
 502              		.loc 1 254 0
 503 00d6 0130     		add	r0, r0, #1
 253:.\uart_wifi.c ****   			    		ATReceBuffer[0].gcATReceData[10+ATReceBuffer[0].gcATReceCount]= UartData;
 504              		.loc 1 253 0
 505 00d8 AB72     		strb	r3, [r5, #10]
 506              		.loc 1 254 0
 507 00da 2080     		strh	r0, [r4]
 508              	.L56:
 255:.\uart_wifi.c ****     					}
 256:.\uart_wifi.c **** 
 257:.\uart_wifi.c ****     				if(ATReceBuffer[0].gcATReceCount == giWIFIDATALength)
 509              		.loc 1 257 0
 510 00dc 094B     		ldr	r3, .L60+16
 511 00de 6432     		add	r2, r2, #100
 512 00e0 1288     		ldrh	r2, [r2]
 513 00e2 1B88     		ldrh	r3, [r3]
 514 00e4 9A42     		cmp	r2, r3
 515 00e6 04D1     		bne	.L34
 258:.\uart_wifi.c ****     				{
 259:.\uart_wifi.c ****     				  	gcWifiCommunState = WIFI_CHCK;
 516              		.loc 1 259 0
 517 00e8 0A23     		mov	r3, #10
 518 00ea 0B70     		strb	r3, [r1]
 519 00ec 01E0     		b	.L34
ARM GAS  C:\Users\kevin\AppData\Local\Temp\ccrA27HJ.s 			page 15


 520              	.L35:
 260:.\uart_wifi.c ****     				}
 261:.\uart_wifi.c ****     			 	break;
 262:.\uart_wifi.c **** 		default:
 263:.\uart_wifi.c **** 			 	gcWifiCommunState = WIFI_WAIT_SYN_0;	
 521              		.loc 1 263 0
 522 00ee 0023     		mov	r3, #0
 523              	.L59:
 524 00f0 1370     		strb	r3, [r2]
 525              	.L34:
 264:.\uart_wifi.c **** 		}
 265:.\uart_wifi.c **** }
 526              		.loc 1 265 0
 527              		@ sp needed
 528 00f2 38BD     		pop	{r3, r4, r5, pc}
 529              	.L61:
 530              		.align	2
 531              	.L60:
 532 00f4 00000000 		.word	gcWifiCommunState
 533 00f8 00000000 		.word	ATReceBuffer
 534 00fc 00000000 		.word	gcWIFICTL
 535 0100 00000000 		.word	giWIFICommand
 536 0104 00000000 		.word	giWIFIDATALength
 537 0108 00000000 		.word	WifiWorkFlag
 538              		.cfi_endproc
 539              	.LFE37:
 540              		.size	LoadUARTData, .-LoadUARTData
 541              		.section	.text.LoadTDSBoardData,"ax",%progbits
 542              		.align	1
 543              		.global	LoadTDSBoardData
 544              		.code	16
 545              		.thumb_func
 546              		.type	LoadTDSBoardData, %function
 547              	LoadTDSBoardData:
 548              	.LFB38:
 266:.\uart_wifi.c **** /*
 267:.\uart_wifi.c **** 	========================================================================
 268:.\uart_wifi.c **** * 函 数 名: LodaUARTData(   IN unsigned char  UartData)
 269:.\uart_wifi.c **** * 函数功能: 串口发送程序
 270:.\uart_wifi.c **** * 入口参数: UartData
 271:.\uart_wifi.c **** * 返    回: 
 272:.\uart_wifi.c **** 	========================================================================
 273:.\uart_wifi.c **** */
 274:.\uart_wifi.c **** void LoadTDSBoardData(uint8  UartData)
 275:.\uart_wifi.c **** {
 549              		.loc 1 275 0
 550              		.cfi_startproc
 551              	.LVL43:
 552 0000 10B5     		push	{r4, lr}
 553              		.cfi_def_cfa_offset 8
 554              		.cfi_offset 4, -8
 555              		.cfi_offset 14, -4
 276:.\uart_wifi.c **** 	switch (gctdsboardCommunState)
 556              		.loc 1 276 0
 557 0002 3F49     		ldr	r1, .L85
 275:.\uart_wifi.c **** {
 558              		.loc 1 275 0
ARM GAS  C:\Users\kevin\AppData\Local\Temp\ccrA27HJ.s 			page 16


 559 0004 031C     		mov	r3, r0
 560              		.loc 1 276 0
 561 0006 0878     		ldrb	r0, [r1]
 562              	.LVL44:
 563 0008 0A1C     		mov	r2, r1
 564 000a 0B28     		cmp	r0, #11
 565 000c 74D8     		bhi	.L63
 566 000e FFF7FEFF 		bl	__gnu_thumb1_case_uqi
 567              	.L65:
 568 0012 06       		.byte	(.L64-.L65)/2
 569 0013 13       		.byte	(.L66-.L65)/2
 570 0014 1A       		.byte	(.L67-.L65)/2
 571 0015 21       		.byte	(.L68-.L65)/2
 572 0016 26       		.byte	(.L69-.L65)/2
 573 0017 2B       		.byte	(.L70-.L65)/2
 574 0018 32       		.byte	(.L71-.L65)/2
 575 0019 39       		.byte	(.L72-.L65)/2
 576 001a 43       		.byte	(.L73-.L65)/2
 577 001b 4A       		.byte	(.L74-.L65)/2
 578 001c 59       		.byte	(.L75-.L65)/2
 579 001d 0C       		.byte	(.L76-.L65)/2
 580              		.p2align 1
 581              	.L64:
 277:.\uart_wifi.c **** 		{
 278:.\uart_wifi.c **** 			 case TDSBOARD_WAIT_SYN_0:		                 // 1数据包头FA
 279:.\uart_wifi.c **** 			   		if(UartData==TDSBOARD_SYN_0)
 582              		.loc 1 279 0
 583 001e FA2B     		cmp	r3, #250
 584 0020 07D1     		bne	.L77
 280:.\uart_wifi.c ****                     {
 281:.\uart_wifi.c ****   			   		    gctdsboardCommunState = TDSBOARD_WAIT_SYN_1;
 585              		.loc 1 281 0
 586 0022 0121     		mov	r1, #1
 587 0024 1170     		strb	r1, [r2]
 282:.\uart_wifi.c ****                         ATTdsReceBuffer[0].gcATReceTdsboardData[0]= UartData;
 588              		.loc 1 282 0
 589 0026 374A     		ldr	r2, .L85+4
 590 0028 04E0     		b	.L83
 591              	.L76:
 283:.\uart_wifi.c ****                     }
 284:.\uart_wifi.c ****                     else
 285:.\uart_wifi.c ****                         gctdsboardCommunState = TDSBOARD_WAIT_SYN_0;
 286:.\uart_wifi.c **** 			  		break;
 287:.\uart_wifi.c **** 			 case TDSBOARD_WAIT_SYN_1:		                // 2数据包头FB
 288:.\uart_wifi.c **** 			   		if(UartData==TDSBOARD_SYN_1)
 289:.\uart_wifi.c ****                     {
 290:.\uart_wifi.c ****   			   		gctdsboardCommunState = TDSBOARD_PROTOCOL_JUDGE;
 291:.\uart_wifi.c ****   			  	    ATTdsReceBuffer[0].gcATReceTdsboardData[1]= UartData;
 292:.\uart_wifi.c ****                     }
 293:.\uart_wifi.c ****                     else
 294:.\uart_wifi.c ****                         gctdsboardCommunState = TDSBOARD_WAIT_SYN_0;
 295:.\uart_wifi.c **** 			  		break;
 296:.\uart_wifi.c **** 			 case TDSBOARD_PROTOCOL_JUDGE:                //3协议版本
 297:.\uart_wifi.c **** 			 			if(UartData==TDSBOARD_PROTOCOL_VERSION)
 298:.\uart_wifi.c ****   			   		gctdsboardCommunState = TDSBOARD_TOTAL_FRAME_NUM;
 299:.\uart_wifi.c ****   			  	ATTdsReceBuffer[0].gcATReceTdsboardData[2]= UartData;
 300:.\uart_wifi.c **** 			  		break;
ARM GAS  C:\Users\kevin\AppData\Local\Temp\ccrA27HJ.s 			page 17


 301:.\uart_wifi.c **** 			 case TDSBOARD_TOTAL_FRAME_NUM:               //4总帧数量
 302:.\uart_wifi.c **** 			 			gctdsboardCommunState = TDSBOARD_FRAME_NUM;
 303:.\uart_wifi.c ****   			  	ATTdsReceBuffer[0].gcATReceTdsboardData[3]= UartData;
 304:.\uart_wifi.c **** 			  		break;		
 305:.\uart_wifi.c **** 			 case TDSBOARD_FRAME_NUM:                    //5帧序号
 306:.\uart_wifi.c **** 			 			gctdsboardCommunState = TDSBOARD_WAIT_CTL;
 307:.\uart_wifi.c ****   			  	ATTdsReceBuffer[0].gcATReceTdsboardData[4]= UartData;
 308:.\uart_wifi.c **** 			  		break;		
 309:.\uart_wifi.c **** 			 case TDSBOARD_WAIT_CTL:	               // 6控制字
 310:.\uart_wifi.c **** 			    	gcTDSBOARDCTL = UartData;
 311:.\uart_wifi.c **** 						gctdsboardCommunState = TDSBOARD_COMMAND_1;
 312:.\uart_wifi.c ****   			  	ATTdsReceBuffer[0].gcATReceTdsboardData[5]= UartData;
 313:.\uart_wifi.c **** 			 			break;		 
 314:.\uart_wifi.c **** 			 case TDSBOARD_COMMAND_1:	           // 7指令1
 315:.\uart_wifi.c **** 			    	giTDSBOARDCommand = UartData;
 316:.\uart_wifi.c **** 						gctdsboardCommunState = TDSBOARD_COMMAND_2;
 317:.\uart_wifi.c ****   			  	ATTdsReceBuffer[0].gcATReceTdsboardData[6]= UartData;
 318:.\uart_wifi.c **** 			 			break;
 319:.\uart_wifi.c **** 			 case TDSBOARD_COMMAND_2:			  // 8指令2
 320:.\uart_wifi.c **** 			    	giTDSBOARDCommand = (giTDSBOARDCommand<<8)+UartData;
 321:.\uart_wifi.c ****       				  gctdsboardCommunState = TDSBOARD_LENGTH1;     
 322:.\uart_wifi.c ****   			  	ATTdsReceBuffer[0].gcATReceTdsboardData[7]= UartData;
 323:.\uart_wifi.c **** 			 			break;			 					  		
 324:.\uart_wifi.c **** 			 case TDSBOARD_LENGTH1:	           // 9数据长度1
 325:.\uart_wifi.c **** 			    	giTDSBOARDDATALength = UartData;
 326:.\uart_wifi.c **** 						gctdsboardCommunState = TDSBOARD_LENGTH2;
 327:.\uart_wifi.c ****   			  	ATTdsReceBuffer[0].gcATReceTdsboardData[8]= UartData;
 328:.\uart_wifi.c **** 			 			break;
 329:.\uart_wifi.c **** 			 case TDSBOARD_LENGTH2:			  // 10数据长度2
 330:.\uart_wifi.c **** 			    	giTDSBOARDDATALength = (giTDSBOARDDATALength<<8)+UartData;
 331:.\uart_wifi.c ****     				if(giTDSBOARDDATALength>0)   // 
 332:.\uart_wifi.c ****       				{
 333:.\uart_wifi.c ****       				  gctdsboardCommunState = TDSBOARD_RECEDATA;
 334:.\uart_wifi.c ****       				} 
 335:.\uart_wifi.c ****     				else
 336:.\uart_wifi.c ****       				{
 337:.\uart_wifi.c ****       				   gctdsboardCommunState = TDSBOARD_CHCK; 
 338:.\uart_wifi.c ****       				}
 339:.\uart_wifi.c ****   			  	ATTdsReceBuffer[0].gcATReceTdsboardData[9]= UartData;
 340:.\uart_wifi.c **** 			 			break;
 341:.\uart_wifi.c ****     	case TDSBOARD_CHCK:	  // 11校验 
 342:.\uart_wifi.c **** 		    		if (ATTdsReceBuffer[0].gcATReceTdsboardCount<=TDSBUFLEN-10-1) 
 343:.\uart_wifi.c **** 		    			{
 344:.\uart_wifi.c **** 		   			    ATTdsReceBuffer[0].gcATReceTdsboardData[10+ATTdsReceBuffer[0].gcATReceTdsboardCount]= U
 345:.\uart_wifi.c **** 		      			ATTdsReceBuffer[0].gcATReceTdsboardCount = 0;
 346:.\uart_wifi.c **** 		      			gctdsboardCommunState = TDSBOARD_WAIT_SYN_0;
 347:.\uart_wifi.c **** 		      			WifiWorkFlag.gcReceComm2OK = 1;  // 数据成功接收完毕   				
 348:.\uart_wifi.c **** 		    			} 
 349:.\uart_wifi.c ****                      else
 350:.\uart_wifi.c ****                         {
 351:.\uart_wifi.c ****                            gctdsboardCommunState = TDSBOARD_WAIT_SYN_0; 
 352:.\uart_wifi.c ****                         }
 353:.\uart_wifi.c **** 			 			break;
 354:.\uart_wifi.c **** 		case TDSBOARD_RECEDATA:  // 12数据内容
 355:.\uart_wifi.c **** 					  if (ATTdsReceBuffer[0].gcATReceTdsboardCount<TDSBUFLEN-10-1) 
 592              		.loc 1 355 0
 593 002a 3649     		ldr	r1, .L85+4
ARM GAS  C:\Users\kevin\AppData\Local\Temp\ccrA27HJ.s 			page 18


 594 002c C88B     		ldrh	r0, [r1, #30]
 595 002e 1228     		cmp	r0, #18
 596 0030 57D9     		bls	.L84
 597              	.L77:
 285:.\uart_wifi.c ****                         gctdsboardCommunState = TDSBOARD_WAIT_SYN_0;
 598              		.loc 1 285 0
 599 0032 0023     		mov	r3, #0
 600              	.L83:
 601 0034 1370     		strb	r3, [r2]
 602 0036 61E0     		b	.L62
 603              	.L66:
 288:.\uart_wifi.c **** 			   		if(UartData==TDSBOARD_SYN_1)
 604              		.loc 1 288 0
 605 0038 FC2B     		cmp	r3, #252
 606 003a FAD1     		bne	.L77
 290:.\uart_wifi.c ****   			   		gctdsboardCommunState = TDSBOARD_PROTOCOL_JUDGE;
 607              		.loc 1 290 0
 608 003c 0221     		mov	r1, #2
 609 003e 1170     		strb	r1, [r2]
 291:.\uart_wifi.c ****   			  	    ATTdsReceBuffer[0].gcATReceTdsboardData[1]= UartData;
 610              		.loc 1 291 0
 611 0040 304A     		ldr	r2, .L85+4
 612 0042 5370     		strb	r3, [r2, #1]
 613 0044 5AE0     		b	.L62
 614              	.L67:
 297:.\uart_wifi.c **** 			 			if(UartData==TDSBOARD_PROTOCOL_VERSION)
 615              		.loc 1 297 0
 616 0046 002B     		cmp	r3, #0
 617 0048 01D1     		bne	.L79
 298:.\uart_wifi.c ****   			   		gctdsboardCommunState = TDSBOARD_TOTAL_FRAME_NUM;
 618              		.loc 1 298 0
 619 004a 0321     		mov	r1, #3
 620 004c 1170     		strb	r1, [r2]
 621              	.L79:
 299:.\uart_wifi.c ****   			  	ATTdsReceBuffer[0].gcATReceTdsboardData[2]= UartData;
 622              		.loc 1 299 0
 623 004e 2D4A     		ldr	r2, .L85+4
 624 0050 9370     		strb	r3, [r2, #2]
 300:.\uart_wifi.c **** 			  		break;
 625              		.loc 1 300 0
 626 0052 53E0     		b	.L62
 627              	.L68:
 302:.\uart_wifi.c **** 			 			gctdsboardCommunState = TDSBOARD_FRAME_NUM;
 628              		.loc 1 302 0
 629 0054 0421     		mov	r1, #4
 630 0056 1170     		strb	r1, [r2]
 303:.\uart_wifi.c ****   			  	ATTdsReceBuffer[0].gcATReceTdsboardData[3]= UartData;
 631              		.loc 1 303 0
 632 0058 2A4A     		ldr	r2, .L85+4
 633 005a D370     		strb	r3, [r2, #3]
 304:.\uart_wifi.c **** 			  		break;		
 634              		.loc 1 304 0
 635 005c 4EE0     		b	.L62
 636              	.L69:
 306:.\uart_wifi.c **** 			 			gctdsboardCommunState = TDSBOARD_WAIT_CTL;
 637              		.loc 1 306 0
 638 005e 0521     		mov	r1, #5
ARM GAS  C:\Users\kevin\AppData\Local\Temp\ccrA27HJ.s 			page 19


 639 0060 1170     		strb	r1, [r2]
 307:.\uart_wifi.c ****   			  	ATTdsReceBuffer[0].gcATReceTdsboardData[4]= UartData;
 640              		.loc 1 307 0
 641 0062 284A     		ldr	r2, .L85+4
 642 0064 1371     		strb	r3, [r2, #4]
 308:.\uart_wifi.c **** 			  		break;		
 643              		.loc 1 308 0
 644 0066 49E0     		b	.L62
 645              	.L70:
 310:.\uart_wifi.c **** 			    	gcTDSBOARDCTL = UartData;
 646              		.loc 1 310 0
 647 0068 2749     		ldr	r1, .L85+8
 648 006a 0B70     		strb	r3, [r1]
 311:.\uart_wifi.c **** 						gctdsboardCommunState = TDSBOARD_COMMAND_1;
 649              		.loc 1 311 0
 650 006c 0621     		mov	r1, #6
 651 006e 1170     		strb	r1, [r2]
 312:.\uart_wifi.c ****   			  	ATTdsReceBuffer[0].gcATReceTdsboardData[5]= UartData;
 652              		.loc 1 312 0
 653 0070 244A     		ldr	r2, .L85+4
 654 0072 5371     		strb	r3, [r2, #5]
 313:.\uart_wifi.c **** 			 			break;		 
 655              		.loc 1 313 0
 656 0074 42E0     		b	.L62
 657              	.L71:
 315:.\uart_wifi.c **** 			    	giTDSBOARDCommand = UartData;
 658              		.loc 1 315 0
 659 0076 2549     		ldr	r1, .L85+12
 660 0078 0B80     		strh	r3, [r1]
 316:.\uart_wifi.c **** 						gctdsboardCommunState = TDSBOARD_COMMAND_2;
 661              		.loc 1 316 0
 662 007a 0721     		mov	r1, #7
 663 007c 1170     		strb	r1, [r2]
 317:.\uart_wifi.c ****   			  	ATTdsReceBuffer[0].gcATReceTdsboardData[6]= UartData;
 664              		.loc 1 317 0
 665 007e 214A     		ldr	r2, .L85+4
 666 0080 9371     		strb	r3, [r2, #6]
 318:.\uart_wifi.c **** 			 			break;
 667              		.loc 1 318 0
 668 0082 3BE0     		b	.L62
 669              	.L72:
 320:.\uart_wifi.c **** 			    	giTDSBOARDCommand = (giTDSBOARDCommand<<8)+UartData;
 670              		.loc 1 320 0
 671 0084 2149     		ldr	r1, .L85+12
 672 0086 0888     		ldrh	r0, [r1]
 673 0088 0002     		lsl	r0, r0, #8
 674 008a 1818     		add	r0, r3, r0
 675 008c 0880     		strh	r0, [r1]
 321:.\uart_wifi.c ****       				  gctdsboardCommunState = TDSBOARD_LENGTH1;     
 676              		.loc 1 321 0
 677 008e 0821     		mov	r1, #8
 678 0090 1170     		strb	r1, [r2]
 322:.\uart_wifi.c ****   			  	ATTdsReceBuffer[0].gcATReceTdsboardData[7]= UartData;
 679              		.loc 1 322 0
 680 0092 1C4A     		ldr	r2, .L85+4
 681 0094 D371     		strb	r3, [r2, #7]
 323:.\uart_wifi.c **** 			 			break;			 					  		
ARM GAS  C:\Users\kevin\AppData\Local\Temp\ccrA27HJ.s 			page 20


 682              		.loc 1 323 0
 683 0096 31E0     		b	.L62
 684              	.L73:
 325:.\uart_wifi.c **** 			    	giTDSBOARDDATALength = UartData;
 685              		.loc 1 325 0
 686 0098 1D49     		ldr	r1, .L85+16
 687 009a 0B80     		strh	r3, [r1]
 326:.\uart_wifi.c **** 						gctdsboardCommunState = TDSBOARD_LENGTH2;
 688              		.loc 1 326 0
 689 009c 0921     		mov	r1, #9
 690 009e 1170     		strb	r1, [r2]
 327:.\uart_wifi.c ****   			  	ATTdsReceBuffer[0].gcATReceTdsboardData[8]= UartData;
 691              		.loc 1 327 0
 692 00a0 184A     		ldr	r2, .L85+4
 693 00a2 1372     		strb	r3, [r2, #8]
 328:.\uart_wifi.c **** 			 			break;
 694              		.loc 1 328 0
 695 00a4 2AE0     		b	.L62
 696              	.L74:
 330:.\uart_wifi.c **** 			    	giTDSBOARDDATALength = (giTDSBOARDDATALength<<8)+UartData;
 697              		.loc 1 330 0
 698 00a6 1A48     		ldr	r0, .L85+16
 699 00a8 0188     		ldrh	r1, [r0]
 700 00aa 0902     		lsl	r1, r1, #8
 701 00ac 5918     		add	r1, r3, r1
 702 00ae 89B2     		uxth	r1, r1
 703 00b0 0180     		strh	r1, [r0]
 331:.\uart_wifi.c ****     				if(giTDSBOARDDATALength>0)   // 
 704              		.loc 1 331 0
 705 00b2 0029     		cmp	r1, #0
 706 00b4 01D0     		beq	.L80
 333:.\uart_wifi.c ****       				  gctdsboardCommunState = TDSBOARD_RECEDATA;
 707              		.loc 1 333 0
 708 00b6 0B21     		mov	r1, #11
 709 00b8 00E0     		b	.L82
 710              	.L80:
 337:.\uart_wifi.c ****       				   gctdsboardCommunState = TDSBOARD_CHCK; 
 711              		.loc 1 337 0
 712 00ba 0A21     		mov	r1, #10
 713              	.L82:
 714 00bc 1170     		strb	r1, [r2]
 339:.\uart_wifi.c ****   			  	ATTdsReceBuffer[0].gcATReceTdsboardData[9]= UartData;
 715              		.loc 1 339 0
 716 00be 114A     		ldr	r2, .L85+4
 717 00c0 5372     		strb	r3, [r2, #9]
 340:.\uart_wifi.c **** 			 			break;
 718              		.loc 1 340 0
 719 00c2 1BE0     		b	.L62
 720              	.L75:
 342:.\uart_wifi.c **** 		    		if (ATTdsReceBuffer[0].gcATReceTdsboardCount<=TDSBUFLEN-10-1) 
 721              		.loc 1 342 0
 722 00c4 0F49     		ldr	r1, .L85+4
 723 00c6 C88B     		ldrh	r0, [r1, #30]
 724 00c8 1328     		cmp	r0, #19
 725 00ca B2D8     		bhi	.L77
 344:.\uart_wifi.c **** 		   			    ATTdsReceBuffer[0].gcATReceTdsboardData[10+ATTdsReceBuffer[0].gcATReceTdsboardCount]= U
 726              		.loc 1 344 0
ARM GAS  C:\Users\kevin\AppData\Local\Temp\ccrA27HJ.s 			page 21


 727 00cc 0818     		add	r0, r1, r0
 728 00ce 8372     		strb	r3, [r0, #10]
 345:.\uart_wifi.c **** 		      			ATTdsReceBuffer[0].gcATReceTdsboardCount = 0;
 729              		.loc 1 345 0
 730 00d0 0023     		mov	r3, #0
 731 00d2 CB83     		strh	r3, [r1, #30]
 346:.\uart_wifi.c **** 		      			gctdsboardCommunState = TDSBOARD_WAIT_SYN_0;
 732              		.loc 1 346 0
 733 00d4 1370     		strb	r3, [r2]
 347:.\uart_wifi.c **** 		      			WifiWorkFlag.gcReceComm2OK = 1;  // 数据成功接收完毕   				
 734              		.loc 1 347 0
 735 00d6 0F4B     		ldr	r3, .L85+20
 736 00d8 0221     		mov	r1, #2
 737 00da 1A78     		ldrb	r2, [r3]
 738 00dc 0A43     		orr	r2, r1
 739 00de 1A70     		strb	r2, [r3]
 740 00e0 0CE0     		b	.L62
 741              	.L84:
 356:.\uart_wifi.c **** 		    			{
 357:.\uart_wifi.c ****     			 			ATTdsReceBuffer[0].gcATReceTdsboardData[10+ATTdsReceBuffer[0].gcATReceTdsboardCount]= Ua
 742              		.loc 1 357 0
 743 00e2 0C18     		add	r4, r1, r0
 744 00e4 A372     		strb	r3, [r4, #10]
 358:.\uart_wifi.c ****     			    	ATTdsReceBuffer[0].gcATReceTdsboardCount++;
 359:.\uart_wifi.c ****                          if(ATTdsReceBuffer[0].gcATReceTdsboardCount == giTDSBOARDDATALength)
 745              		.loc 1 359 0
 746 00e6 0A4B     		ldr	r3, .L85+16
 358:.\uart_wifi.c ****     			    	ATTdsReceBuffer[0].gcATReceTdsboardCount++;
 747              		.loc 1 358 0
 748 00e8 0130     		add	r0, r0, #1
 749              		.loc 1 359 0
 750 00ea 1B88     		ldrh	r3, [r3]
 358:.\uart_wifi.c ****     			    	ATTdsReceBuffer[0].gcATReceTdsboardCount++;
 751              		.loc 1 358 0
 752 00ec 80B2     		uxth	r0, r0
 753 00ee C883     		strh	r0, [r1, #30]
 754              		.loc 1 359 0
 755 00f0 8342     		cmp	r3, r0
 756 00f2 03D1     		bne	.L62
 360:.\uart_wifi.c ****     				        {
 361:.\uart_wifi.c ****     				  	        gctdsboardCommunState = TDSBOARD_CHCK;
 757              		.loc 1 361 0
 758 00f4 0A23     		mov	r3, #10
 759 00f6 9DE7     		b	.L83
 760              	.L63:
 362:.\uart_wifi.c ****     				        }
 363:.\uart_wifi.c ****     			  	    }
 364:.\uart_wifi.c ****                         else
 365:.\uart_wifi.c ****                         {
 366:.\uart_wifi.c ****                            gctdsboardCommunState = TDSBOARD_WAIT_SYN_0; 
 367:.\uart_wifi.c ****                         }
 368:.\uart_wifi.c ****     			 	break;
 369:.\uart_wifi.c **** 		default:
 370:.\uart_wifi.c **** 			 	gctdsboardCommunState = TDSBOARD_WAIT_SYN_0;	
 761              		.loc 1 370 0
 762 00f8 0023     		mov	r3, #0
 763 00fa 0B70     		strb	r3, [r1]
ARM GAS  C:\Users\kevin\AppData\Local\Temp\ccrA27HJ.s 			page 22


 764              	.L62:
 371:.\uart_wifi.c **** 		}
 372:.\uart_wifi.c **** }
 765              		.loc 1 372 0
 766              		@ sp needed
 767 00fc 10BD     		pop	{r4, pc}
 768              	.L86:
 769 00fe C046     		.align	2
 770              	.L85:
 771 0100 00000000 		.word	gctdsboardCommunState
 772 0104 00000000 		.word	ATTdsReceBuffer
 773 0108 00000000 		.word	gcTDSBOARDCTL
 774 010c 00000000 		.word	giTDSBOARDCommand
 775 0110 00000000 		.word	giTDSBOARDDATALength
 776 0114 00000000 		.word	WifiWorkFlag
 777              		.cfi_endproc
 778              	.LFE38:
 779              		.size	LoadTDSBoardData, .-LoadTDSBoardData
 780              		.section	.text.UART_SendData,"ax",%progbits
 781              		.align	1
 782              		.global	UART_SendData
 783              		.code	16
 784              		.thumb_func
 785              		.type	UART_SendData, %function
 786              	UART_SendData:
 787              	.LFB39:
 373:.\uart_wifi.c **** /**************************************************************************************************
 374:.\uart_wifi.c **** ** 函数名称: void UART_SendData(unsigned char	 *data_buf,unsigned char	 count)
 375:.\uart_wifi.c **** ** 功能描述: 从串口发送数据
 376:.\uart_wifi.c **** ** 入口参数: data_buf:发送数据缓冲区首地址
 377:.\uart_wifi.c **** **			 count	:发送字节数
 378:.\uart_wifi.c **** ** 出口参数:	无
 379:.\uart_wifi.c **** ***************************************************************************************************
 380:.\uart_wifi.c **** void UART_SendData(uint8	 *data_buf,uint16 iCount)
 381:.\uart_wifi.c **** {
 788              		.loc 1 381 0
 789              		.cfi_startproc
 790              	.LVL45:
 382:.\uart_wifi.c **** 	WifidatagramWorkFlag.flag_Uart_Work = 1;                 //置正在通信标志
 791              		.loc 1 382 0
 792 0000 074B     		ldr	r3, .L88
 381:.\uart_wifi.c **** {
 793              		.loc 1 381 0
 794 0002 10B5     		push	{r4, lr}
 795              		.cfi_def_cfa_offset 8
 796              		.cfi_offset 4, -8
 797              		.cfi_offset 14, -4
 798              		.loc 1 382 0
 799 0004 1A78     		ldrb	r2, [r3]
 800 0006 0824     		mov	r4, #8
 801 0008 2243     		orr	r2, r4
 802 000a 1A70     		strb	r2, [r3]
 383:.\uart_wifi.c **** 
 384:.\uart_wifi.c **** 	iUartSendLen = iCount-1;
 803              		.loc 1 384 0
 804 000c 054B     		ldr	r3, .L88+4
 805 000e 0139     		sub	r1, r1, #1
ARM GAS  C:\Users\kevin\AppData\Local\Temp\ccrA27HJ.s 			page 23


 806              	.LVL46:
 807 0010 1980     		strh	r1, [r3]
 385:.\uart_wifi.c **** 	iSendCounter = 0;
 808              		.loc 1 385 0
 809 0012 054B     		ldr	r3, .L88+8
 810 0014 0022     		mov	r2, #0
 811 0016 1A80     		strh	r2, [r3]
 386:.\uart_wifi.c **** //  UART_UartPutChar(data_buf[0]);
 387:.\uart_wifi.c **** 	cpSendBufPtr = &data_buf[0];
 812              		.loc 1 387 0
 813 0018 044B     		ldr	r3, .L88+12
 388:.\uart_wifi.c **** }
 814              		.loc 1 388 0
 815              		@ sp needed
 387:.\uart_wifi.c **** 	cpSendBufPtr = &data_buf[0];
 816              		.loc 1 387 0
 817 001a 1860     		str	r0, [r3]
 818              		.loc 1 388 0
 819 001c 10BD     		pop	{r4, pc}
 820              	.L89:
 821 001e C046     		.align	2
 822              	.L88:
 823 0020 00000000 		.word	WifidatagramWorkFlag
 824 0024 00000000 		.word	iUartSendLen
 825 0028 00000000 		.word	iSendCounter
 826 002c 00000000 		.word	cpSendBufPtr
 827              		.cfi_endproc
 828              	.LFE39:
 829              		.size	UART_SendData, .-UART_SendData
 830              		.section	.text.Comm_Uart_0_PrintHex8,"ax",%progbits
 831              		.align	1
 832              		.global	Comm_Uart_0_PrintHex8
 833              		.code	16
 834              		.thumb_func
 835              		.type	Comm_Uart_0_PrintHex8, %function
 836              	Comm_Uart_0_PrintHex8:
 837              	.LFB40:
 389:.\uart_wifi.c **** /**************************************************************************************************
 390:.\uart_wifi.c **** ** 函数名称: void Comm_Uart_0_PrintHex8(uint8 value)
 391:.\uart_wifi.c **** ** 功能描述: 从串口发送数据
 392:.\uart_wifi.c **** ** 入口参数:	无
 393:.\uart_wifi.c **** ** 出口参数:	无
 394:.\uart_wifi.c **** ***************************************************************************************************
 395:.\uart_wifi.c **** void Comm_Uart_0_PrintHex8(uint8 value)
 396:.\uart_wifi.c **** {
 838              		.loc 1 396 0
 839              		.cfi_startproc
 840              	.LVL47:
 841              	.L92:
 397:.\uart_wifi.c ****     while(UART_0_FIFO_SIZE == UART_0_GET_TX_FIFO_ENTRIES);
 842              		.loc 1 397 0 discriminator 1
 843 0000 044B     		ldr	r3, .L93
 844 0002 1A68     		ldr	r2, [r3]
 845 0004 0F23     		mov	r3, #15
 846 0006 1340     		and	r3, r2
 847 0008 082B     		cmp	r3, #8
 848 000a F9D0     		beq	.L92
ARM GAS  C:\Users\kevin\AppData\Local\Temp\ccrA27HJ.s 			page 24


 398:.\uart_wifi.c ****     UART_0_TX_FIFO_WR_REG = (uint8)(value);
 849              		.loc 1 398 0
 850 000c 024B     		ldr	r3, .L93+4
 399:.\uart_wifi.c **** }
 851              		.loc 1 399 0
 852              		@ sp needed
 398:.\uart_wifi.c ****     UART_0_TX_FIFO_WR_REG = (uint8)(value);
 853              		.loc 1 398 0
 854 000e 1860     		str	r0, [r3]
 855              		.loc 1 399 0
 856 0010 7047     		bx	lr
 857              	.L94:
 858 0012 C046     		.align	2
 859              	.L93:
 860 0014 08020640 		.word	1074135560
 861 0018 40020640 		.word	1074135616
 862              		.cfi_endproc
 863              	.LFE40:
 864              		.size	Comm_Uart_0_PrintHex8, .-Comm_Uart_0_PrintHex8
 865              		.section	.text.Comm_Uart_1_PrintHex8,"ax",%progbits
 866              		.align	1
 867              		.global	Comm_Uart_1_PrintHex8
 868              		.code	16
 869              		.thumb_func
 870              		.type	Comm_Uart_1_PrintHex8, %function
 871              	Comm_Uart_1_PrintHex8:
 872              	.LFB41:
 400:.\uart_wifi.c **** /**************************************************************************************************
 401:.\uart_wifi.c **** ** 函数名称: void Comm_Uart_1_PrintHex8(uint8 value)
 402:.\uart_wifi.c **** ** 功能描述: 从串口发送数据
 403:.\uart_wifi.c **** ** 入口参数:	无
 404:.\uart_wifi.c **** ** 出口参数:	无
 405:.\uart_wifi.c **** ***************************************************************************************************
 406:.\uart_wifi.c **** void Comm_Uart_1_PrintHex8(uint8 value)
 407:.\uart_wifi.c **** {
 873              		.loc 1 407 0
 874              		.cfi_startproc
 875              	.LVL48:
 876              	.L97:
 408:.\uart_wifi.c ****     while(UART_1_FIFO_SIZE == UART_1_GET_TX_FIFO_ENTRIES);
 877              		.loc 1 408 0 discriminator 1
 878 0000 044B     		ldr	r3, .L98
 879 0002 1A68     		ldr	r2, [r3]
 880 0004 0F23     		mov	r3, #15
 881 0006 1340     		and	r3, r2
 882 0008 082B     		cmp	r3, #8
 883 000a F9D0     		beq	.L97
 409:.\uart_wifi.c ****     UART_1_TX_FIFO_WR_REG = (uint8)(value);
 884              		.loc 1 409 0
 885 000c 024B     		ldr	r3, .L98+4
 410:.\uart_wifi.c **** }
 886              		.loc 1 410 0
 887              		@ sp needed
 409:.\uart_wifi.c ****     UART_1_TX_FIFO_WR_REG = (uint8)(value);
 888              		.loc 1 409 0
 889 000e 1860     		str	r0, [r3]
 890              		.loc 1 410 0
ARM GAS  C:\Users\kevin\AppData\Local\Temp\ccrA27HJ.s 			page 25


 891 0010 7047     		bx	lr
 892              	.L99:
 893 0012 C046     		.align	2
 894              	.L98:
 895 0014 08020740 		.word	1074201096
 896 0018 40020740 		.word	1074201152
 897              		.cfi_endproc
 898              	.LFE41:
 899              		.size	Comm_Uart_1_PrintHex8, .-Comm_Uart_1_PrintHex8
 900              		.section	.text.Uart_0_Putchar,"ax",%progbits
 901              		.align	1
 902              		.global	Uart_0_Putchar
 903              		.code	16
 904              		.thumb_func
 905              		.type	Uart_0_Putchar, %function
 906              	Uart_0_Putchar:
 907              	.LFB42:
 411:.\uart_wifi.c **** /**************************************************************************************************
 412:.\uart_wifi.c **** ** 函数名称: void UART_putchar(void)
 413:.\uart_wifi.c **** ** 功能描述: 从串口发送数据
 414:.\uart_wifi.c **** ** 入口参数:	无
 415:.\uart_wifi.c **** ** 出口参数:	无
 416:.\uart_wifi.c **** ***************************************************************************************************
 417:.\uart_wifi.c **** void Uart_0_Putchar(void)
 418:.\uart_wifi.c **** {
 908              		.loc 1 418 0
 909              		.cfi_startproc
 910 0000 08B5     		push	{r3, lr}
 911              		.cfi_def_cfa_offset 8
 912              		.cfi_offset 3, -8
 913              		.cfi_offset 14, -4
 419:.\uart_wifi.c **** 	if(WorkFlag.uart_0_tx!=0)
 914              		.loc 1 419 0
 915 0002 0C4B     		ldr	r3, .L106
 916 0004 9B78     		ldrb	r3, [r3, #2]
 917 0006 DB09     		lsr	r3, r3, #7
 918 0008 12D0     		beq	.L100
 420:.\uart_wifi.c **** 		{
 421:.\uart_wifi.c **** 			if(iSendCounter!=(iUartSendLen+1))
 919              		.loc 1 421 0
 920 000a 0B49     		ldr	r1, .L106+4
 921 000c 0B4A     		ldr	r2, .L106+8
 922 000e 0988     		ldrh	r1, [r1]
 923 0010 1388     		ldrh	r3, [r2]
 924 0012 0131     		add	r1, r1, #1
 925 0014 8B42     		cmp	r3, r1
 926 0016 06D0     		beq	.L102
 422:.\uart_wifi.c **** 			{
 423:.\uart_wifi.c ****           Comm_Uart_0_PrintHex8(cpSendBufPtr[iSendCounter++]);
 927              		.loc 1 423 0
 928 0018 0949     		ldr	r1, .L106+12
 929 001a 581C     		add	r0, r3, #1
 930 001c 0968     		ldr	r1, [r1]
 931 001e 1080     		strh	r0, [r2]
 932 0020 C85C     		ldrb	r0, [r1, r3]
 933 0022 FFF7FEFF 		bl	Comm_Uart_0_PrintHex8
 934              	.LVL49:
ARM GAS  C:\Users\kevin\AppData\Local\Temp\ccrA27HJ.s 			page 26


 935              	.L102:
 424:.\uart_wifi.c **** 	    }
 425:.\uart_wifi.c **** 
 426:.\uart_wifi.c **** 	    WifidatagramWorkFlag.flag_Uart_Work = 0;                 //置正在通信标志
 936              		.loc 1 426 0
 937 0026 074B     		ldr	r3, .L106+16
 938 0028 0821     		mov	r1, #8
 939 002a 1A78     		ldrb	r2, [r3]
 940 002c 8A43     		bic	r2, r1
 941 002e 1A70     		strb	r2, [r3]
 942              	.L100:
 427:.\uart_wifi.c **** 	  }
 428:.\uart_wifi.c ****  
 429:.\uart_wifi.c **** }
 943              		.loc 1 429 0
 944              		@ sp needed
 945 0030 08BD     		pop	{r3, pc}
 946              	.L107:
 947 0032 C046     		.align	2
 948              	.L106:
 949 0034 00000000 		.word	WorkFlag
 950 0038 00000000 		.word	iUartSendLen
 951 003c 00000000 		.word	iSendCounter
 952 0040 00000000 		.word	cpSendBufPtr
 953 0044 00000000 		.word	WifidatagramWorkFlag
 954              		.cfi_endproc
 955              	.LFE42:
 956              		.size	Uart_0_Putchar, .-Uart_0_Putchar
 957              		.section	.text.Uart_1_Putchar,"ax",%progbits
 958              		.align	1
 959              		.global	Uart_1_Putchar
 960              		.code	16
 961              		.thumb_func
 962              		.type	Uart_1_Putchar, %function
 963              	Uart_1_Putchar:
 964              	.LFB43:
 430:.\uart_wifi.c **** /**************************************************************************************************
 431:.\uart_wifi.c **** ** 函数名称: void UART_putchar(void)
 432:.\uart_wifi.c **** ** 功能描述: 从串口发送数据
 433:.\uart_wifi.c **** ** 入口参数:	无
 434:.\uart_wifi.c **** ** 出口参数:	无
 435:.\uart_wifi.c **** ***************************************************************************************************
 436:.\uart_wifi.c **** void Uart_1_Putchar(void)
 437:.\uart_wifi.c **** {
 965              		.loc 1 437 0
 966              		.cfi_startproc
 438:.\uart_wifi.c ****     if(WorkFlag.uart_1_tx!=0)  //接收非空
 439:.\uart_wifi.c ****         {
 440:.\uart_wifi.c **** //        	while(iSendCounter!=(iUartSendLen+1))
 441:.\uart_wifi.c **** //						{
 442:.\uart_wifi.c **** // 							Comm_Uart_1_PrintHex8(cpSendBufPtr[iSendCounter++]);
 443:.\uart_wifi.c **** //        		}
 444:.\uart_wifi.c ****         }
 445:.\uart_wifi.c **** }
 967              		.loc 1 445 0
 968              		@ sp needed
 969 0000 7047     		bx	lr
ARM GAS  C:\Users\kevin\AppData\Local\Temp\ccrA27HJ.s 			page 27


 970              		.cfi_endproc
 971              	.LFE43:
 972              		.size	Uart_1_Putchar, .-Uart_1_Putchar
 973              		.section	.text.SendDataToWifi,"ax",%progbits
 974              		.align	1
 975              		.global	SendDataToWifi
 976              		.code	16
 977              		.thumb_func
 978              		.type	SendDataToWifi, %function
 979              	SendDataToWifi:
 980              	.LFB44:
 446:.\uart_wifi.c **** /*
 447:.\uart_wifi.c **** ***************************************************************************************************
 448:.\uart_wifi.c **** ** 函数名称 ：SendDataToWifi()
 449:.\uart_wifi.c **** ** 函数功能 ：发送数据到WIFI模块                          
 450:.\uart_wifi.c **** ** 入口参数 ：cCtl：控制字类型 
 451:.\uart_wifi.c ****   							0x00(主动发送指令要求对方回复) 
 452:.\uart_wifi.c ****   							0x80(返回指令) 
 453:.\uart_wifi.c ****   							0x40(主动发送无需对方回复)
 454:.\uart_wifi.c ****               unsigned char  *DataBuf  数据缓存区            
 455:.\uart_wifi.c ****               unsigned int   iLength   数据长度          
 456:.\uart_wifi.c **** ** 出口参数 ：无
 457:.\uart_wifi.c **** ***************************************************************************************************
 458:.\uart_wifi.c **** */
 459:.\uart_wifi.c **** void  SendDataToWifi(uint8 cCtl,
 460:.\uart_wifi.c ****                       uint16 cCommand,
 461:.\uart_wifi.c ****                      uint8 *DataBuf,
 462:.\uart_wifi.c **** 		     							uint16 iLength)
 463:.\uart_wifi.c **** {
 981              		.loc 1 463 0
 982              		.cfi_startproc
 983              	.LVL50:
 984 0000 F7B5     		push	{r0, r1, r2, r4, r5, r6, r7, lr}
 985              		.cfi_def_cfa_offset 32
 986              		.cfi_offset 0, -32
 987              		.cfi_offset 1, -28
 988              		.cfi_offset 2, -24
 989              		.cfi_offset 4, -20
 990              		.cfi_offset 5, -16
 991              		.cfi_offset 6, -12
 992              		.cfi_offset 7, -8
 993              		.cfi_offset 14, -4
 464:.\uart_wifi.c ****  
 465:.\uart_wifi.c ****     //uint32 xxxxx;
 466:.\uart_wifi.c ****     static uint8 cBuf[WIFIBUFLEN]; ////51 has only 256 data in soc
 467:.\uart_wifi.c **** 
 468:.\uart_wifi.c **** 
 469:.\uart_wifi.c ****     memset(cBuf,0x00,WIFIBUFLEN);
 994              		.loc 1 469 0
 995 0002 284C     		ldr	r4, .L114
 463:.\uart_wifi.c **** {
 996              		.loc 1 463 0
 997 0004 0F1C     		mov	r7, r1
 998 0006 061C     		mov	r6, r0
 999 0008 0192     		str	r2, [sp, #4]
 1000              		.loc 1 469 0
 1001 000a 201C     		mov	r0, r4
ARM GAS  C:\Users\kevin\AppData\Local\Temp\ccrA27HJ.s 			page 28


 1002              	.LVL51:
 1003 000c 0021     		mov	r1, #0
 1004              	.LVL52:
 1005 000e 6422     		mov	r2, #100
 1006              	.LVL53:
 463:.\uart_wifi.c **** {
 1007              		.loc 1 463 0
 1008 0010 1D1C     		mov	r5, r3
 1009              		.loc 1 469 0
 1010 0012 FFF7FEFF 		bl	memset
 1011              	.LVL54:
 470:.\uart_wifi.c ****     cBuf[0] = WIFI_SYN_0;        	     // SYNC0
 1012              		.loc 1 470 0
 1013 0016 FA23     		mov	r3, #250
 1014 0018 2370     		strb	r3, [r4]
 471:.\uart_wifi.c ****     cBuf[1] = WIFI_SYN_1;        	     // SYNC1
 1015              		.loc 1 471 0
 1016 001a FB23     		mov	r3, #251
 1017 001c 6370     		strb	r3, [r4, #1]
 472:.\uart_wifi.c ****     cBuf[2] = WIFI_PROTOCOL_VERSION;   //MCU_PROTOCOL_VERSION       
 473:.\uart_wifi.c ****     cBuf[3] = DATA_FRAME_EQUE_0;   //FRAME_EQUE_0       
 474:.\uart_wifi.c ****     cBuf[4]= DATA_FRAME_NUM_EQUE_0;//帧需要
 475:.\uart_wifi.c ****     cBuf[5] = cCtl;   	 // Wctrl
 476:.\uart_wifi.c ****     cBuf[6]=(cCommand)>>8;//长度0
 1018              		.loc 1 476 0
 1019 001e 3B0A     		lsr	r3, r7, #8
 1020 0020 A371     		strb	r3, [r4, #6]
 477:.\uart_wifi.c ****     cBuf[7]=(cCommand)&0x00ff;//长度1	  cBuf[8]=(iLength)>>8;//长度0
 478:.\uart_wifi.c ****     cBuf[8]=(iLength)>>8;//长度0
 1021              		.loc 1 478 0
 1022 0022 2B0A     		lsr	r3, r5, #8
 477:.\uart_wifi.c ****     cBuf[7]=(cCommand)&0x00ff;//长度1	  cBuf[8]=(iLength)>>8;//长度0
 1023              		.loc 1 477 0
 1024 0024 E771     		strb	r7, [r4, #7]
 475:.\uart_wifi.c ****     cBuf[5] = cCtl;   	 // Wctrl
 1025              		.loc 1 475 0
 1026 0026 6671     		strb	r6, [r4, #5]
 1027              		.loc 1 478 0
 1028 0028 2372     		strb	r3, [r4, #8]
 479:.\uart_wifi.c ****     cBuf[9]=(iLength)&0x00ff;//长度1
 1029              		.loc 1 479 0
 1030 002a 6572     		strb	r5, [r4, #9]
 1031 002c 1E4F     		ldr	r7, .L114+4
 480:.\uart_wifi.c ****     //cBuf[iLength+10]=0x44;
 481:.\uart_wifi.c ****     if(cCtl==0x00)
 1032              		.loc 1 481 0
 1033 002e 002E     		cmp	r6, #0
 1034 0030 0AD1     		bne	.L110
 482:.\uart_wifi.c ****     {
 483:.\uart_wifi.c ****     	WifidatagramWorkFlag.uart_ack=1;
 1035              		.loc 1 483 0
 1036 0032 3B78     		ldrb	r3, [r7]
 1037 0034 0422     		mov	r2, #4
 1038 0036 1343     		orr	r3, r2
 1039 0038 3B70     		strb	r3, [r7]
 484:.\uart_wifi.c ****     	Ack_Timer = 70; 
 1040              		.loc 1 484 0
ARM GAS  C:\Users\kevin\AppData\Local\Temp\ccrA27HJ.s 			page 29


 1041 003a 1C4B     		ldr	r3, .L114+8
 1042 003c 4622     		mov	r2, #70
 1043 003e 1A70     		strb	r2, [r3]
 485:.\uart_wifi.c ****     	Send_Interval_Counter=10;  
 1044              		.loc 1 485 0
 1045 0040 1B4B     		ldr	r3, .L114+12
 1046 0042 0A22     		mov	r2, #10
 1047 0044 1A70     		strb	r2, [r3]
 1048 0046 08E0     		b	.L111
 1049              	.L110:
 486:.\uart_wifi.c ****     }
 487:.\uart_wifi.c ****     if(cCtl==0x80)
 1050              		.loc 1 487 0
 1051 0048 802E     		cmp	r6, #128
 1052 004a 06D1     		bne	.L111
 488:.\uart_wifi.c ****     {
 489:.\uart_wifi.c ****     	Cmd_Function_Num=0;	
 1053              		.loc 1 489 0
 1054 004c 194B     		ldr	r3, .L114+16
 1055 004e 0022     		mov	r2, #0
 1056 0050 1A70     		strb	r2, [r3]
 490:.\uart_wifi.c ****     	WifidatagramWorkFlag.uart_ack=0;
 1057              		.loc 1 490 0
 1058 0052 3B78     		ldrb	r3, [r7]
 1059 0054 0422     		mov	r2, #4
 1060 0056 9343     		bic	r3, r2
 1061 0058 3B70     		strb	r3, [r7]
 1062              	.L111:
 491:.\uart_wifi.c **** 
 492:.\uart_wifi.c ****     }
 493:.\uart_wifi.c ****     if(iLength!=0)
 494:.\uart_wifi.c ****     {
 495:.\uart_wifi.c ****         memcpy(&cBuf[10],DataBuf,iLength);
 1063              		.loc 1 495 0
 1064 005a 201C     		mov	r0, r4
 493:.\uart_wifi.c ****     if(iLength!=0)
 1065              		.loc 1 493 0
 1066 005c 002D     		cmp	r5, #0
 1067 005e 0DD0     		beq	.L112
 1068              		.loc 1 495 0
 1069 0060 0199     		ldr	r1, [sp, #4]
 1070 0062 2A1C     		mov	r2, r5
 1071 0064 0A30     		add	r0, r0, #10
 1072 0066 FFF7FEFF 		bl	memcpy
 1073              	.LVL55:
 496:.\uart_wifi.c ****         cBuf[iLength+10] = Sum_Make_Verify(&cBuf[0],10+iLength);
 1074              		.loc 1 496 0
 1075 006a 291C     		mov	r1, r5
 1076 006c 0A31     		add	r1, r1, #10
 1077 006e 89B2     		uxth	r1, r1
 1078 0070 201C     		mov	r0, r4
 1079 0072 FFF7FEFF 		bl	Sum_Make_Verify
 1080              	.LVL56:
 1081 0076 6319     		add	r3, r4, r5
 1082 0078 9872     		strb	r0, [r3, #10]
 1083 007a 03E0     		b	.L113
 1084              	.L112:
ARM GAS  C:\Users\kevin\AppData\Local\Temp\ccrA27HJ.s 			page 30


 497:.\uart_wifi.c ****         //cBuf[iLength+10]=0x88;
 498:.\uart_wifi.c ****     }
 499:.\uart_wifi.c ****     else
 500:.\uart_wifi.c ****     {
 501:.\uart_wifi.c ****         cBuf[iLength+10] = Sum_Make_Verify(&cBuf[0],10);	
 1085              		.loc 1 501 0
 1086 007c 0A21     		mov	r1, #10
 1087 007e FFF7FEFF 		bl	Sum_Make_Verify
 1088              	.LVL57:
 1089 0082 A072     		strb	r0, [r4, #10]
 1090              	.L113:
 502:.\uart_wifi.c ****         
 503:.\uart_wifi.c ****     }
 504:.\uart_wifi.c **** 		WifidatagramWorkFlag.flag_Uart_Work=1; 
 1091              		.loc 1 504 0
 1092 0084 3B78     		ldrb	r3, [r7]
 1093 0086 0822     		mov	r2, #8
 1094 0088 1343     		orr	r3, r2
 1095 008a 3B70     		strb	r3, [r7]
 505:.\uart_wifi.c ****     CyGlobalIntDisable;                  //应答时间设置
 1096              		.loc 1 505 0
 1097              	@ 505 ".\uart_wifi.c" 1
 1098 008c 72B6     		CPSID   i
 1099              	@ 0 "" 2
 506:.\uart_wifi.c ****     UART_SendData(cBuf,iLength+11);   ///The Last six 0x00 is PADDING
 1100              		.loc 1 506 0
 1101              		.code	16
 1102 008e 0B35     		add	r5, r5, #11
 1103 0090 A9B2     		uxth	r1, r5
 1104 0092 201C     		mov	r0, r4
 1105 0094 FFF7FEFF 		bl	UART_SendData
 1106              	.LVL58:
 507:.\uart_wifi.c ****     CyGlobalIntEnable;
 1107              		.loc 1 507 0
 1108              	@ 507 ".\uart_wifi.c" 1
 1109 0098 62B6     		CPSIE   i
 1110              	@ 0 "" 2
 508:.\uart_wifi.c ****     TestPort_Write(0); 
 1111              		.loc 1 508 0
 1112              		.code	16
 1113 009a 0020     		mov	r0, #0
 1114 009c FFF7FEFF 		bl	TestPort_Write
 1115              	.LVL59:
 509:.\uart_wifi.c **** }
 1116              		.loc 1 509 0
 1117              		@ sp needed
 1118 00a0 F7BD     		pop	{r0, r1, r2, r4, r5, r6, r7, pc}
 1119              	.L115:
 1120 00a2 C046     		.align	2
 1121              	.L114:
 1122 00a4 00000000 		.word	.LANCHOR3
 1123 00a8 00000000 		.word	WifidatagramWorkFlag
 1124 00ac 00000000 		.word	Ack_Timer
 1125 00b0 00000000 		.word	Send_Interval_Counter
 1126 00b4 00000000 		.word	Cmd_Function_Num
 1127              		.cfi_endproc
 1128              	.LFE44:
ARM GAS  C:\Users\kevin\AppData\Local\Temp\ccrA27HJ.s 			page 31


 1129              		.size	SendDataToWifi, .-SendDataToWifi
 1130              		.section	.text.Mcu_Handshake_Data,"ax",%progbits
 1131              		.align	1
 1132              		.global	Mcu_Handshake_Data
 1133              		.code	16
 1134              		.thumb_func
 1135              		.type	Mcu_Handshake_Data, %function
 1136              	Mcu_Handshake_Data:
 1137              	.LFB45:
 510:.\uart_wifi.c **** 
 511:.\uart_wifi.c **** 
 512:.\uart_wifi.c **** /*
 513:.\uart_wifi.c **** 	========================================================================
 514:.\uart_wifi.c **** ** 函数名称 ：JoinWIFI()
 515:.\uart_wifi.c **** ** 函数功能 ：连接WIFI模块                          
 516:.\uart_wifi.c **** ** 入口参数 ：
 517:.\uart_wifi.c **** 		    cIdx: The group Number
 518:.\uart_wifi.c **** 		    AckFlag:  1 Need wifi model send ack, 0 is not         
 519:.\uart_wifi.c **** ** 出口参数 ：无
 520:.\uart_wifi.c **** 	========================================================================
 521:.\uart_wifi.c **** */
 522:.\uart_wifi.c **** void Mcu_Handshake_Data(void)
 523:.\uart_wifi.c **** {
 1138              		.loc 1 523 0
 1139              		.cfi_startproc
 1140 0000 07B5     		push	{r0, r1, r2, lr}
 1141              		.cfi_def_cfa_offset 16
 1142              		.cfi_offset 0, -16
 1143              		.cfi_offset 1, -12
 1144              		.cfi_offset 2, -8
 1145              		.cfi_offset 14, -4
 524:.\uart_wifi.c ****    uint8 cBuf[6];
 525:.\uart_wifi.c ****    cBuf[0]=0x20;  ////13t450b
 1146              		.loc 1 525 0
 1147 0002 2023     		mov	r3, #32
 1148 0004 6A46     		mov	r2, sp
 1149 0006 1370     		strb	r3, [r2]
 526:.\uart_wifi.c ****    cBuf[1]=0x01;
 1150              		.loc 1 526 0
 1151 0008 0123     		mov	r3, #1
 1152 000a 5370     		strb	r3, [r2, #1]
 527:.\uart_wifi.c ****    cBuf[2]=0x00;  ////Command
 528:.\uart_wifi.c ****    cBuf[3]=PRODUCT_FIRMWARE;
 1153              		.loc 1 528 0
 1154 000c D370     		strb	r3, [r2, #3]
 529:.\uart_wifi.c ****    cBuf[4]=0x00;  ////Command
 530:.\uart_wifi.c ****    cBuf[5]=0x80;   
 1155              		.loc 1 530 0
 1156 000e 8023     		mov	r3, #128
 527:.\uart_wifi.c ****    cBuf[2]=0x00;  ////Command
 1157              		.loc 1 527 0
 1158 0010 0020     		mov	r0, #0
 1159              		.loc 1 530 0
 1160 0012 5371     		strb	r3, [r2, #5]
 531:.\uart_wifi.c ****    SendDataToWifi(CTL_ACK_DATA,MCU_HANDSHAKE_DATA,cBuf,6);
 1161              		.loc 1 531 0
 1162 0014 0349     		ldr	r1, .L117
ARM GAS  C:\Users\kevin\AppData\Local\Temp\ccrA27HJ.s 			page 32


 1163 0016 0623     		mov	r3, #6
 527:.\uart_wifi.c ****    cBuf[2]=0x00;  ////Command
 1164              		.loc 1 527 0
 1165 0018 9070     		strb	r0, [r2, #2]
 529:.\uart_wifi.c ****    cBuf[4]=0x00;  ////Command
 1166              		.loc 1 529 0
 1167 001a 1071     		strb	r0, [r2, #4]
 532:.\uart_wifi.c **** }
 1168              		.loc 1 532 0
 1169              		@ sp needed
 531:.\uart_wifi.c ****    SendDataToWifi(CTL_ACK_DATA,MCU_HANDSHAKE_DATA,cBuf,6);
 1170              		.loc 1 531 0
 1171 001c FFF7FEFF 		bl	SendDataToWifi
 1172              	.LVL60:
 1173              		.loc 1 532 0
 1174 0020 07BD     		pop	{r0, r1, r2, pc}
 1175              	.L118:
 1176 0022 C046     		.align	2
 1177              	.L117:
 1178 0024 C0CC0000 		.word	52416
 1179              		.cfi_endproc
 1180              	.LFE45:
 1181              		.size	Mcu_Handshake_Data, .-Mcu_Handshake_Data
 1182              		.section	.text.App_Host_State,"ax",%progbits
 1183              		.align	1
 1184              		.global	App_Host_State
 1185              		.code	16
 1186              		.thumb_func
 1187              		.type	App_Host_State, %function
 1188              	App_Host_State:
 1189              	.LFB46:
 533:.\uart_wifi.c **** /*
 534:.\uart_wifi.c **** 	========================================================================
 535:.\uart_wifi.c **** ** 函数名称 APP_HOST_STATE()
 536:.\uart_wifi.c **** ** 函数功能 ：连接WIFI模块                          
 537:.\uart_wifi.c **** ** 入口参数 ：         
 538:.\uart_wifi.c **** ** 出口参数 ：无
 539:.\uart_wifi.c **** 	========================================================================
 540:.\uart_wifi.c **** */
 541:.\uart_wifi.c **** void App_Host_State(void)
 542:.\uart_wifi.c **** {
 1190              		.loc 1 542 0
 1191              		.cfi_startproc
 1192 0000 1FB5     		push	{r0, r1, r2, r3, r4, lr}
 1193              		.cfi_def_cfa_offset 24
 1194              		.cfi_offset 0, -24
 1195              		.cfi_offset 1, -20
 1196              		.cfi_offset 2, -16
 1197              		.cfi_offset 3, -12
 1198              		.cfi_offset 4, -8
 1199              		.cfi_offset 14, -4
 543:.\uart_wifi.c ****     uint8 cBuf[16];
 544:.\uart_wifi.c ****     cBuf[0]=0x00;  
 1200              		.loc 1 544 0
 1201 0002 0023     		mov	r3, #0
 1202 0004 6946     		mov	r1, sp
 1203 0006 0B70     		strb	r3, [r1]
ARM GAS  C:\Users\kevin\AppData\Local\Temp\ccrA27HJ.s 			page 33


 545:.\uart_wifi.c ****     cBuf[1]=0x00;//ok
 1204              		.loc 1 545 0
 1205 0008 4B70     		strb	r3, [r1, #1]
 546:.\uart_wifi.c ****     cBuf[2]=Work_State.all; //01待机 02制水中 03制水完成 04 冲洗
 1206              		.loc 1 546 0
 1207 000a 194B     		ldr	r3, .L120
 1208 000c 1B78     		ldrb	r3, [r3]
 1209 000e 8B70     		strb	r3, [r1, #2]
 547:.\uart_wifi.c ****     cBuf[3]=0x06; 	//滤芯级数	1	U8 (总级数)
 1210              		.loc 1 547 0
 1211 0010 0623     		mov	r3, #6
 1212 0012 CB70     		strb	r3, [r1, #3]
 548:.\uart_wifi.c ****     cBuf[4]=Error_Counter;   
 1213              		.loc 1 548 0
 1214 0014 174B     		ldr	r3, .L120+4
 1215 0016 1B78     		ldrb	r3, [r3]
 1216 0018 0B71     		strb	r3, [r1, #4]
 549:.\uart_wifi.c ****     cBuf[5]=LianXuJiShi/600;  //工作状态	1	U8 见注2
 1217              		.loc 1 549 0
 1218 001a 174B     		ldr	r3, .L120+8
 1219 001c 9621     		mov	r1, #150
 1220 001e 1868     		ldr	r0, [r3]
 1221 0020 8900     		lsl	r1, r1, #2
 1222 0022 FFF7FEFF 		bl	__aeabi_uidiv
 1223              	.LVL61:
 550:.\uart_wifi.c ****     cBuf[6]=jingshuiliang>>8; //总净水量	2	U16(现在总净水量)
 1224              		.loc 1 550 0
 1225 0026 154B     		ldr	r3, .L120+12
 1226 0028 6946     		mov	r1, sp
 1227 002a 1B88     		ldrh	r3, [r3]
 549:.\uart_wifi.c ****     cBuf[5]=LianXuJiShi/600;  //工作状态	1	U8 见注2
 1228              		.loc 1 549 0
 1229 002c 6A46     		mov	r2, sp
 1230 002e 5071     		strb	r0, [r2, #5]
 551:.\uart_wifi.c ****     cBuf[7]=jingshuiliang; 
 1231              		.loc 1 551 0
 1232 0030 CB71     		strb	r3, [r1, #7]
 550:.\uart_wifi.c ****     cBuf[6]=jingshuiliang>>8; //总净水量	2	U16(现在总净水量)
 1233              		.loc 1 550 0
 1234 0032 1A0A     		lsr	r2, r3, #8
 552:.\uart_wifi.c ****     cBuf[8]=(Value_Tds0>>8); //TDS(原水)	2	U16(实际TDS值)
 1235              		.loc 1 552 0
 1236 0034 124B     		ldr	r3, .L120+16
 550:.\uart_wifi.c ****     cBuf[6]=jingshuiliang>>8; //总净水量	2	U16(现在总净水量)
 1237              		.loc 1 550 0
 1238 0036 8A71     		strb	r2, [r1, #6]
 1239              		.loc 1 552 0
 1240 0038 1B88     		ldrh	r3, [r3]
 553:.\uart_wifi.c ****     cBuf[9]=Value_Tds0;
 554:.\uart_wifi.c ****     cBuf[10]=(Value_Tds1_bak>>8); //TDS(净水)	2	U16(实际TDS值)
 555:.\uart_wifi.c ****     cBuf[11]=Value_Tds1_bak; 
 556:.\uart_wifi.c ****     cBuf[12]=Value_T; //温度	1	U8(实际温度值 
 557:.\uart_wifi.c ****     cBuf[13]=(Value_Loushui_Ad>>8); //漏水	2	U16(实际AD值)
 558:.\uart_wifi.c ****     cBuf[14]=Value_Loushui_Ad; 
 559:.\uart_wifi.c ****     cBuf[15]=Switch_Data.all; //高、低压开关状态	1	U8 见注    
 560:.\uart_wifi.c ****     SendDataToWifi(ACK_DATA,APP_HOST_STATE,cBuf,16);
 1241              		.loc 1 560 0
ARM GAS  C:\Users\kevin\AppData\Local\Temp\ccrA27HJ.s 			page 34


 1242 003a 8020     		mov	r0, #128
 552:.\uart_wifi.c ****     cBuf[8]=(Value_Tds0>>8); //TDS(原水)	2	U16(实际TDS值)
 1243              		.loc 1 552 0
 1244 003c 1A0A     		lsr	r2, r3, #8
 553:.\uart_wifi.c ****     cBuf[9]=Value_Tds0;
 1245              		.loc 1 553 0
 1246 003e 4B72     		strb	r3, [r1, #9]
 554:.\uart_wifi.c ****     cBuf[10]=(Value_Tds1_bak>>8); //TDS(净水)	2	U16(实际TDS值)
 1247              		.loc 1 554 0
 1248 0040 104B     		ldr	r3, .L120+20
 552:.\uart_wifi.c ****     cBuf[8]=(Value_Tds0>>8); //TDS(原水)	2	U16(实际TDS值)
 1249              		.loc 1 552 0
 1250 0042 0A72     		strb	r2, [r1, #8]
 554:.\uart_wifi.c ****     cBuf[10]=(Value_Tds1_bak>>8); //TDS(净水)	2	U16(实际TDS值)
 1251              		.loc 1 554 0
 1252 0044 1B88     		ldrh	r3, [r3]
 1253 0046 1A0A     		lsr	r2, r3, #8
 555:.\uart_wifi.c ****     cBuf[11]=Value_Tds1_bak; 
 1254              		.loc 1 555 0
 1255 0048 CB72     		strb	r3, [r1, #11]
 556:.\uart_wifi.c ****     cBuf[12]=Value_T; //温度	1	U8(实际温度值 
 1256              		.loc 1 556 0
 1257 004a 0F4B     		ldr	r3, .L120+24
 554:.\uart_wifi.c ****     cBuf[10]=(Value_Tds1_bak>>8); //TDS(净水)	2	U16(实际TDS值)
 1258              		.loc 1 554 0
 1259 004c 8A72     		strb	r2, [r1, #10]
 556:.\uart_wifi.c ****     cBuf[12]=Value_T; //温度	1	U8(实际温度值 
 1260              		.loc 1 556 0
 1261 004e 1B78     		ldrb	r3, [r3]
 1262 0050 0B73     		strb	r3, [r1, #12]
 557:.\uart_wifi.c ****     cBuf[13]=(Value_Loushui_Ad>>8); //漏水	2	U16(实际AD值)
 1263              		.loc 1 557 0
 1264 0052 0E4B     		ldr	r3, .L120+28
 1265 0054 1B88     		ldrh	r3, [r3]
 1266 0056 1A0A     		lsr	r2, r3, #8
 558:.\uart_wifi.c ****     cBuf[14]=Value_Loushui_Ad; 
 1267              		.loc 1 558 0
 1268 0058 8B73     		strb	r3, [r1, #14]
 559:.\uart_wifi.c ****     cBuf[15]=Switch_Data.all; //高、低压开关状态	1	U8 见注    
 1269              		.loc 1 559 0
 1270 005a 0D4B     		ldr	r3, .L120+32
 557:.\uart_wifi.c ****     cBuf[13]=(Value_Loushui_Ad>>8); //漏水	2	U16(实际AD值)
 1271              		.loc 1 557 0
 1272 005c 4A73     		strb	r2, [r1, #13]
 559:.\uart_wifi.c ****     cBuf[15]=Switch_Data.all; //高、低压开关状态	1	U8 见注    
 1273              		.loc 1 559 0
 1274 005e 1B78     		ldrb	r3, [r3]
 1275              		.loc 1 560 0
 1276 0060 6A46     		mov	r2, sp
 559:.\uart_wifi.c ****     cBuf[15]=Switch_Data.all; //高、低压开关状态	1	U8 见注    
 1277              		.loc 1 559 0
 1278 0062 CB73     		strb	r3, [r1, #15]
 1279              		.loc 1 560 0
 1280 0064 B221     		mov	r1, #178
 1281 0066 1023     		mov	r3, #16
 1282 0068 FFF7FEFF 		bl	SendDataToWifi
 1283              	.LVL62:
ARM GAS  C:\Users\kevin\AppData\Local\Temp\ccrA27HJ.s 			page 35


 561:.\uart_wifi.c **** }
 1284              		.loc 1 561 0
 1285 006c 05B0     		add	sp, sp, #20
 1286              		@ sp needed
 1287 006e 00BD     		pop	{pc}
 1288              	.L121:
 1289              		.align	2
 1290              	.L120:
 1291 0070 00000000 		.word	Work_State
 1292 0074 00000000 		.word	Error_Counter
 1293 0078 00000000 		.word	LianXuJiShi
 1294 007c 00000000 		.word	jingshuiliang
 1295 0080 00000000 		.word	Value_Tds0
 1296 0084 00000000 		.word	Value_Tds1_bak
 1297 0088 00000000 		.word	Value_T
 1298 008c 00000000 		.word	Value_Loushui_Ad
 1299 0090 00000000 		.word	Switch_Data
 1300              		.cfi_endproc
 1301              	.LFE46:
 1302              		.size	App_Host_State, .-App_Host_State
 1303              		.section	.text.App_Filter_Changed_Data,"ax",%progbits
 1304              		.align	1
 1305              		.global	App_Filter_Changed_Data
 1306              		.code	16
 1307              		.thumb_func
 1308              		.type	App_Filter_Changed_Data, %function
 1309              	App_Filter_Changed_Data:
 1310              	.LFB47:
 562:.\uart_wifi.c **** void App_Filter_Changed_Data(void)
 563:.\uart_wifi.c **** {
 1311              		.loc 1 563 0
 1312              		.cfi_startproc
 1313 0000 1FB5     		push	{r0, r1, r2, r3, r4, lr}
 1314              		.cfi_def_cfa_offset 24
 1315              		.cfi_offset 0, -24
 1316              		.cfi_offset 1, -20
 1317              		.cfi_offset 2, -16
 1318              		.cfi_offset 3, -12
 1319              		.cfi_offset 4, -8
 1320              		.cfi_offset 14, -4
 564:.\uart_wifi.c **** 	uint8 cBuf[9];
 565:.\uart_wifi.c **** 	cBuf[0]=0x00;  
 1321              		.loc 1 565 0
 1322 0002 0023     		mov	r3, #0
 1323 0004 01AA     		add	r2, sp, #4
 1324 0006 1370     		strb	r3, [r2]
 566:.\uart_wifi.c **** 	cBuf[1]=0x00;//ok
 1325              		.loc 1 566 0
 1326 0008 5370     		strb	r3, [r2, #1]
 567:.\uart_wifi.c **** 	cBuf[2]=Change_Filter.all;
 1327              		.loc 1 567 0
 1328 000a 0B4B     		ldr	r3, .L123
 568:.\uart_wifi.c **** 	cBuf[3]=Filter_Changed_Num[0]; 
 569:.\uart_wifi.c **** 	cBuf[4]=Filter_Changed_Num[1]; 	
 570:.\uart_wifi.c **** 	cBuf[5]=Filter_Changed_Num[2];   
 571:.\uart_wifi.c **** 	cBuf[6]=Filter_Changed_Num[3];  
 572:.\uart_wifi.c **** 	cBuf[7]=Filter_Changed_Num[4]; 
ARM GAS  C:\Users\kevin\AppData\Local\Temp\ccrA27HJ.s 			page 36


 573:.\uart_wifi.c **** 	cBuf[8]=Filter_Changed_Num[5]; 
 574:.\uart_wifi.c **** 	SendDataToWifi(ACK_DATA,APP_FILTER_CHANGED_DATA,cBuf,9);
 1329              		.loc 1 574 0
 1330 000c 8020     		mov	r0, #128
 567:.\uart_wifi.c **** 	cBuf[2]=Change_Filter.all;
 1331              		.loc 1 567 0
 1332 000e 1B78     		ldrb	r3, [r3]
 1333 0010 9370     		strb	r3, [r2, #2]
 568:.\uart_wifi.c **** 	cBuf[3]=Filter_Changed_Num[0]; 
 1334              		.loc 1 568 0
 1335 0012 0A4B     		ldr	r3, .L123+4
 1336 0014 1978     		ldrb	r1, [r3]
 1337 0016 D170     		strb	r1, [r2, #3]
 569:.\uart_wifi.c **** 	cBuf[4]=Filter_Changed_Num[1]; 	
 1338              		.loc 1 569 0
 1339 0018 5978     		ldrb	r1, [r3, #1]
 1340 001a 1171     		strb	r1, [r2, #4]
 570:.\uart_wifi.c **** 	cBuf[5]=Filter_Changed_Num[2];   
 1341              		.loc 1 570 0
 1342 001c 9978     		ldrb	r1, [r3, #2]
 1343 001e 5171     		strb	r1, [r2, #5]
 571:.\uart_wifi.c **** 	cBuf[6]=Filter_Changed_Num[3];  
 1344              		.loc 1 571 0
 1345 0020 D978     		ldrb	r1, [r3, #3]
 1346 0022 9171     		strb	r1, [r2, #6]
 572:.\uart_wifi.c **** 	cBuf[7]=Filter_Changed_Num[4]; 
 1347              		.loc 1 572 0
 1348 0024 1979     		ldrb	r1, [r3, #4]
 1349 0026 D171     		strb	r1, [r2, #7]
 573:.\uart_wifi.c **** 	cBuf[8]=Filter_Changed_Num[5]; 
 1350              		.loc 1 573 0
 1351 0028 5B79     		ldrb	r3, [r3, #5]
 1352              		.loc 1 574 0
 1353 002a B521     		mov	r1, #181
 573:.\uart_wifi.c **** 	cBuf[8]=Filter_Changed_Num[5]; 
 1354              		.loc 1 573 0
 1355 002c 1372     		strb	r3, [r2, #8]
 1356              		.loc 1 574 0
 1357 002e 0923     		mov	r3, #9
 1358 0030 FFF7FEFF 		bl	SendDataToWifi
 1359              	.LVL63:
 575:.\uart_wifi.c **** }
 1360              		.loc 1 575 0
 1361 0034 05B0     		add	sp, sp, #20
 1362              		@ sp needed
 1363 0036 00BD     		pop	{pc}
 1364              	.L124:
 1365              		.align	2
 1366              	.L123:
 1367 0038 00000000 		.word	Change_Filter
 1368 003c 00000000 		.word	Filter_Changed_Num
 1369              		.cfi_endproc
 1370              	.LFE47:
 1371              		.size	App_Filter_Changed_Data, .-App_Filter_Changed_Data
 1372              		.section	.text.App_Error_Data,"ax",%progbits
 1373              		.align	1
 1374              		.global	App_Error_Data
ARM GAS  C:\Users\kevin\AppData\Local\Temp\ccrA27HJ.s 			page 37


 1375              		.code	16
 1376              		.thumb_func
 1377              		.type	App_Error_Data, %function
 1378              	App_Error_Data:
 1379              	.LFB48:
 576:.\uart_wifi.c **** 
 577:.\uart_wifi.c **** void App_Error_Data(void)
 578:.\uart_wifi.c **** {
 1380              		.loc 1 578 0
 1381              		.cfi_startproc
 1382 0000 10B5     		push	{r4, lr}
 1383              		.cfi_def_cfa_offset 8
 1384              		.cfi_offset 4, -8
 1385              		.cfi_offset 14, -4
 1386 0002 86B0     		sub	sp, sp, #24
 1387              		.cfi_def_cfa_offset 32
 579:.\uart_wifi.c **** 	uint8 cBuf[21];
 580:.\uart_wifi.c **** 	cBuf[0]=0x00;  
 1388              		.loc 1 580 0
 1389 0004 6A46     		mov	r2, sp
 1390 0006 0023     		mov	r3, #0
 1391 0008 1370     		strb	r3, [r2]
 581:.\uart_wifi.c **** 	cBuf[1]=0x00;//ok
 1392              		.loc 1 581 0
 1393 000a 5370     		strb	r3, [r2, #1]
 582:.\uart_wifi.c **** 	cBuf[2]=Error_Counter;
 1394              		.loc 1 582 0
 1395 000c 084B     		ldr	r3, .L126
 583:.\uart_wifi.c **** 	memcpy(&cBuf[3],Error_Data_Buf,Error_Counter*2);	
 1396              		.loc 1 583 0
 1397 000e 6846     		mov	r0, sp
 582:.\uart_wifi.c **** 	cBuf[2]=Error_Counter;
 1398              		.loc 1 582 0
 1399 0010 1C78     		ldrb	r4, [r3]
 1400              		.loc 1 583 0
 1401 0012 0849     		ldr	r1, .L126+4
 582:.\uart_wifi.c **** 	cBuf[2]=Error_Counter;
 1402              		.loc 1 582 0
 1403 0014 9470     		strb	r4, [r2, #2]
 1404              		.loc 1 583 0
 1405 0016 6400     		lsl	r4, r4, #1
 1406 0018 221C     		mov	r2, r4
 1407 001a 0330     		add	r0, r0, #3
 1408 001c FFF7FEFF 		bl	memcpy
 1409              	.LVL64:
 584:.\uart_wifi.c **** 	SendDataToWifi(ACK_DATA,APP_ERROR_DATA,cBuf,Error_Counter*2+3);
 1410              		.loc 1 584 0
 1411 0020 E31C     		add	r3, r4, #3
 1412 0022 8020     		mov	r0, #128
 1413 0024 B421     		mov	r1, #180
 1414 0026 6A46     		mov	r2, sp
 1415 0028 FFF7FEFF 		bl	SendDataToWifi
 1416              	.LVL65:
 585:.\uart_wifi.c **** }
 1417              		.loc 1 585 0
 1418 002c 06B0     		add	sp, sp, #24
 1419              		@ sp needed
ARM GAS  C:\Users\kevin\AppData\Local\Temp\ccrA27HJ.s 			page 38


 1420 002e 10BD     		pop	{r4, pc}
 1421              	.L127:
 1422              		.align	2
 1423              	.L126:
 1424 0030 00000000 		.word	Error_Counter
 1425 0034 00000000 		.word	Error_Data_Buf
 1426              		.cfi_endproc
 1427              	.LFE48:
 1428              		.size	App_Error_Data, .-App_Error_Data
 1429              		.section	.text.App_Filter_Used_Time_Data,"ax",%progbits
 1430              		.align	1
 1431              		.global	App_Filter_Used_Time_Data
 1432              		.code	16
 1433              		.thumb_func
 1434              		.type	App_Filter_Used_Time_Data, %function
 1435              	App_Filter_Used_Time_Data:
 1436              	.LFB49:
 586:.\uart_wifi.c **** //void App_Error_Data(void)
 587:.\uart_wifi.c **** //{
 588:.\uart_wifi.c **** //	uint8 cBuf[21];
 589:.\uart_wifi.c **** //	cBuf[0]=0x00;  
 590:.\uart_wifi.c **** //	cBuf[1]=0x00;//ok
 591:.\uart_wifi.c **** //	cBuf[2]=0x00;;
 592:.\uart_wifi.c **** //	SendDataToWifi(ACK_DATA,APP_ERROR_DATA,cBuf,3);
 593:.\uart_wifi.c **** //}
 594:.\uart_wifi.c **** void App_Filter_Used_Time_Data(void)
 595:.\uart_wifi.c **** {
 1437              		.loc 1 595 0
 1438              		.cfi_startproc
 1439 0000 1FB5     		push	{r0, r1, r2, r3, r4, lr}
 1440              		.cfi_def_cfa_offset 24
 1441              		.cfi_offset 0, -24
 1442              		.cfi_offset 1, -20
 1443              		.cfi_offset 2, -16
 1444              		.cfi_offset 3, -12
 1445              		.cfi_offset 4, -8
 1446              		.cfi_offset 14, -4
 596:.\uart_wifi.c **** 	uint8 cBuf[15];
 597:.\uart_wifi.c **** 	cBuf[0]=0x00;  
 1447              		.loc 1 597 0
 1448 0002 0023     		mov	r3, #0
 1449 0004 6846     		mov	r0, sp
 1450 0006 0370     		strb	r3, [r0]
 598:.\uart_wifi.c **** 	cBuf[1]=0x00;//ok
 1451              		.loc 1 598 0
 1452 0008 4370     		strb	r3, [r0, #1]
 599:.\uart_wifi.c **** 	cBuf[2]=0x06;  	//滤芯级数
 1453              		.loc 1 599 0
 1454 000a 0623     		mov	r3, #6
 1455 000c 8370     		strb	r3, [r0, #2]
 600:.\uart_wifi.c **** 	cBuf[3]=(LvxinJishi[0]>>8);  	//滤芯数据0	2	U16(实际滤芯使用时间值)
 1456              		.loc 1 600 0
 1457 000e 104B     		ldr	r3, .L129
 1458 0010 1A88     		ldrh	r2, [r3]
 1459 0012 110A     		lsr	r1, r2, #8
 1460 0014 C170     		strb	r1, [r0, #3]
 601:.\uart_wifi.c **** 	cBuf[4]=LvxinJishi[0];
ARM GAS  C:\Users\kevin\AppData\Local\Temp\ccrA27HJ.s 			page 39


 1461              		.loc 1 601 0
 1462 0016 0271     		strb	r2, [r0, #4]
 602:.\uart_wifi.c **** 	cBuf[5]=(LvxinJishi[1]>>8);  	//滤芯数据0	2	U16(实际滤芯使用时间值)
 1463              		.loc 1 602 0
 1464 0018 5A88     		ldrh	r2, [r3, #2]
 1465 001a 110A     		lsr	r1, r2, #8
 1466 001c 4171     		strb	r1, [r0, #5]
 603:.\uart_wifi.c **** 	cBuf[6]=LvxinJishi[1];
 1467              		.loc 1 603 0
 1468 001e 8271     		strb	r2, [r0, #6]
 604:.\uart_wifi.c **** 	cBuf[7]=(LvxinJishi[2]>>8);  	//滤芯数据0	2	U16(实际滤芯使用时间值)
 1469              		.loc 1 604 0
 1470 0020 9A88     		ldrh	r2, [r3, #4]
 1471 0022 110A     		lsr	r1, r2, #8
 1472 0024 C171     		strb	r1, [r0, #7]
 605:.\uart_wifi.c **** 	cBuf[8]=LvxinJishi[2];
 1473              		.loc 1 605 0
 1474 0026 0272     		strb	r2, [r0, #8]
 606:.\uart_wifi.c **** 	cBuf[9]=(LvxinJishi[3]>>8);  	//滤芯数据0	2	U16(实际滤芯使用时间值)
 1475              		.loc 1 606 0
 1476 0028 DA88     		ldrh	r2, [r3, #6]
 1477 002a 110A     		lsr	r1, r2, #8
 1478 002c 4172     		strb	r1, [r0, #9]
 607:.\uart_wifi.c **** 	cBuf[10]=LvxinJishi[3]; 
 1479              		.loc 1 607 0
 1480 002e 8272     		strb	r2, [r0, #10]
 608:.\uart_wifi.c **** 	cBuf[11]=(LvxinJishi[4]>>8);  	//滤芯数据0	2	U16(实际滤芯使用时间值)
 1481              		.loc 1 608 0
 1482 0030 1A89     		ldrh	r2, [r3, #8]
 1483 0032 110A     		lsr	r1, r2, #8
 1484 0034 C172     		strb	r1, [r0, #11]
 609:.\uart_wifi.c **** 	cBuf[12]=LvxinJishi[4]; 
 1485              		.loc 1 609 0
 1486 0036 0273     		strb	r2, [r0, #12]
 610:.\uart_wifi.c **** 	cBuf[13]=(LvxinJishi[5]>>8);  	//滤芯数据0	2	U16(实际滤芯使用时间值)
 1487              		.loc 1 610 0
 1488 0038 5B89     		ldrh	r3, [r3, #10]
 611:.\uart_wifi.c **** 	cBuf[14]=LvxinJishi[5]; 
 612:.\uart_wifi.c **** 	SendDataToWifi(ACK_DATA,APP_FILTER_CHANGED_DATA,cBuf,15);
 1489              		.loc 1 612 0
 1490 003a B521     		mov	r1, #181
 610:.\uart_wifi.c **** 	cBuf[13]=(LvxinJishi[5]>>8);  	//滤芯数据0	2	U16(实际滤芯使用时间值)
 1491              		.loc 1 610 0
 1492 003c 1A0A     		lsr	r2, r3, #8
 1493 003e 4273     		strb	r2, [r0, #13]
 611:.\uart_wifi.c **** 	cBuf[14]=LvxinJishi[5]; 
 1494              		.loc 1 611 0
 1495 0040 8373     		strb	r3, [r0, #14]
 1496              		.loc 1 612 0
 1497 0042 6A46     		mov	r2, sp
 1498 0044 8020     		mov	r0, #128
 1499 0046 0F23     		mov	r3, #15
 1500 0048 FFF7FEFF 		bl	SendDataToWifi
 1501              	.LVL66:
 613:.\uart_wifi.c **** }
 1502              		.loc 1 613 0
 1503 004c 05B0     		add	sp, sp, #20
ARM GAS  C:\Users\kevin\AppData\Local\Temp\ccrA27HJ.s 			page 40


 1504              		@ sp needed
 1505 004e 00BD     		pop	{pc}
 1506              	.L130:
 1507              		.align	2
 1508              	.L129:
 1509 0050 00000000 		.word	LvxinJishi
 1510              		.cfi_endproc
 1511              	.LFE49:
 1512              		.size	App_Filter_Used_Time_Data, .-App_Filter_Used_Time_Data
 1513              		.section	.text.App_Download_Nb_Sta,"ax",%progbits
 1514              		.align	1
 1515              		.global	App_Download_Nb_Sta
 1516              		.code	16
 1517              		.thumb_func
 1518              		.type	App_Download_Nb_Sta, %function
 1519              	App_Download_Nb_Sta:
 1520              	.LFB50:
 614:.\uart_wifi.c **** void App_Download_Nb_Sta(void)
 615:.\uart_wifi.c **** {
 1521              		.loc 1 615 0
 1522              		.cfi_startproc
 1523 0000 07B5     		push	{r0, r1, r2, lr}
 1524              		.cfi_def_cfa_offset 16
 1525              		.cfi_offset 0, -16
 1526              		.cfi_offset 1, -12
 1527              		.cfi_offset 2, -8
 1528              		.cfi_offset 14, -4
 616:.\uart_wifi.c **** 	uint8 cBuf[2];
 617:.\uart_wifi.c **** 	cBuf[0]=0x00;  
 1529              		.loc 1 617 0
 1530 0002 0023     		mov	r3, #0
 1531 0004 01AA     		add	r2, sp, #4
 1532 0006 1370     		strb	r3, [r2]
 618:.\uart_wifi.c **** 	cBuf[1]=0x00;//ok
 1533              		.loc 1 618 0
 1534 0008 5370     		strb	r3, [r2, #1]
 619:.\uart_wifi.c **** 	SendDataToWifi(ACK_DATA,APP_DOWNLOAD_NB_STA,cBuf,2);
 1535              		.loc 1 619 0
 1536 000a 8020     		mov	r0, #128
 1537 000c A321     		mov	r1, #163
 1538 000e 0223     		mov	r3, #2
 1539 0010 FFF7FEFF 		bl	SendDataToWifi
 1540              	.LVL67:
 620:.\uart_wifi.c **** }
 1541              		.loc 1 620 0
 1542              		@ sp needed
 1543 0014 07BD     		pop	{r0, r1, r2, pc}
 1544              		.cfi_endproc
 1545              	.LFE50:
 1546              		.size	App_Download_Nb_Sta, .-App_Download_Nb_Sta
 1547              		.section	.text.Wifi_Senddingstate_Data,"ax",%progbits
 1548              		.align	1
 1549              		.global	Wifi_Senddingstate_Data
 1550              		.code	16
 1551              		.thumb_func
 1552              		.type	Wifi_Senddingstate_Data, %function
 1553              	Wifi_Senddingstate_Data:
ARM GAS  C:\Users\kevin\AppData\Local\Temp\ccrA27HJ.s 			page 41


 1554              	.LFB51:
 621:.\uart_wifi.c **** void Wifi_Senddingstate_Data(void)
 622:.\uart_wifi.c **** {
 1555              		.loc 1 622 0
 1556              		.cfi_startproc
 1557 0000 07B5     		push	{r0, r1, r2, lr}
 1558              		.cfi_def_cfa_offset 16
 1559              		.cfi_offset 0, -16
 1560              		.cfi_offset 1, -12
 1561              		.cfi_offset 2, -8
 1562              		.cfi_offset 14, -4
 623:.\uart_wifi.c **** 	uint8 cBuf[2];
 624:.\uart_wifi.c **** 	cBuf[0]=0x00;
 1563              		.loc 1 624 0
 1564 0002 0023     		mov	r3, #0
 1565 0004 01AA     		add	r2, sp, #4
 1566 0006 1370     		strb	r3, [r2]
 625:.\uart_wifi.c **** 	cBuf[1]=0x00;
 1567              		.loc 1 625 0
 1568 0008 5370     		strb	r3, [r2, #1]
 626:.\uart_wifi.c **** 	SendDataToWifi(ACK_DATA,WIFI_SENDDINGSTATE_DATA,cBuf,2);
 1569              		.loc 1 626 0
 1570 000a 8020     		mov	r0, #128
 1571 000c 0249     		ldr	r1, .L133
 1572 000e 0223     		mov	r3, #2
 1573 0010 FFF7FEFF 		bl	SendDataToWifi
 1574              	.LVL68:
 627:.\uart_wifi.c **** }
 1575              		.loc 1 627 0
 1576              		@ sp needed
 1577 0014 07BD     		pop	{r0, r1, r2, pc}
 1578              	.L134:
 1579 0016 C046     		.align	2
 1580              	.L133:
 1581 0018 D0CC0000 		.word	52432
 1582              		.cfi_endproc
 1583              	.LFE51:
 1584              		.size	Wifi_Senddingstate_Data, .-Wifi_Senddingstate_Data
 1585              		.section	.text.Wifi_Firmware_Handshake_Data,"ax",%progbits
 1586              		.align	1
 1587              		.global	Wifi_Firmware_Handshake_Data
 1588              		.code	16
 1589              		.thumb_func
 1590              		.type	Wifi_Firmware_Handshake_Data, %function
 1591              	Wifi_Firmware_Handshake_Data:
 1592              	.LFB52:
 628:.\uart_wifi.c **** void Wifi_Firmware_Handshake_Data(void)
 629:.\uart_wifi.c **** {
 1593              		.loc 1 629 0
 1594              		.cfi_startproc
 1595 0000 07B5     		push	{r0, r1, r2, lr}
 1596              		.cfi_def_cfa_offset 16
 1597              		.cfi_offset 0, -16
 1598              		.cfi_offset 1, -12
 1599              		.cfi_offset 2, -8
 1600              		.cfi_offset 14, -4
 630:.\uart_wifi.c **** 	uint8 cBuf[4];
ARM GAS  C:\Users\kevin\AppData\Local\Temp\ccrA27HJ.s 			page 42


 631:.\uart_wifi.c **** 	cBuf[0]=0x00;
 632:.\uart_wifi.c **** 	if(Firmware_Update==0xfe)
 1601              		.loc 1 632 0
 1602 0002 0949     		ldr	r1, .L138
 631:.\uart_wifi.c **** 	cBuf[0]=0x00;
 1603              		.loc 1 631 0
 1604 0004 01AA     		add	r2, sp, #4
 1605              		.loc 1 632 0
 1606 0006 0978     		ldrb	r1, [r1]
 631:.\uart_wifi.c **** 	cBuf[0]=0x00;
 1607              		.loc 1 631 0
 1608 0008 0023     		mov	r3, #0
 1609 000a 1370     		strb	r3, [r2]
 1610              		.loc 1 632 0
 1611 000c FE29     		cmp	r1, #254
 1612 000e 01D1     		bne	.L136
 633:.\uart_wifi.c **** 		cBuf[1]=0x00;
 1613              		.loc 1 633 0
 1614 0010 5370     		strb	r3, [r2, #1]
 1615 0012 01E0     		b	.L137
 1616              	.L136:
 634:.\uart_wifi.c **** 	else
 635:.\uart_wifi.c **** 		cBuf[1]=0x05;		
 1617              		.loc 1 635 0
 1618 0014 0521     		mov	r1, #5
 1619 0016 5170     		strb	r1, [r2, #1]
 1620              	.L137:
 636:.\uart_wifi.c **** 	cBuf[2]=0x00;
 1621              		.loc 1 636 0
 1622 0018 9370     		strb	r3, [r2, #2]
 637:.\uart_wifi.c **** 	cBuf[3]=FIRMWARE_DATALEN;
 1623              		.loc 1 637 0
 1624 001a 8020     		mov	r0, #128
 638:.\uart_wifi.c **** 	SendDataToWifi(ACK_DATA,WIFI_FIRMWARE_HANDSHAKE_DATA,cBuf,4);
 1625              		.loc 1 638 0
 1626 001c 0349     		ldr	r1, .L138+4
 1627 001e 0423     		mov	r3, #4
 637:.\uart_wifi.c **** 	cBuf[3]=FIRMWARE_DATALEN;
 1628              		.loc 1 637 0
 1629 0020 D070     		strb	r0, [r2, #3]
 639:.\uart_wifi.c **** }
 1630              		.loc 1 639 0
 1631              		@ sp needed
 638:.\uart_wifi.c **** 	SendDataToWifi(ACK_DATA,WIFI_FIRMWARE_HANDSHAKE_DATA,cBuf,4);
 1632              		.loc 1 638 0
 1633 0022 FFF7FEFF 		bl	SendDataToWifi
 1634              	.LVL69:
 1635              		.loc 1 639 0
 1636 0026 07BD     		pop	{r0, r1, r2, pc}
 1637              	.L139:
 1638              		.align	2
 1639              	.L138:
 1640 0028 00000000 		.word	Firmware_Update
 1641 002c D1CC0000 		.word	52433
 1642              		.cfi_endproc
 1643              	.LFE52:
 1644              		.size	Wifi_Firmware_Handshake_Data, .-Wifi_Firmware_Handshake_Data
ARM GAS  C:\Users\kevin\AppData\Local\Temp\ccrA27HJ.s 			page 43


 1645              		.section	.text.Wifi_Dect_Data,"ax",%progbits
 1646              		.align	1
 1647              		.global	Wifi_Dect_Data
 1648              		.code	16
 1649              		.thumb_func
 1650              		.type	Wifi_Dect_Data, %function
 1651              	Wifi_Dect_Data:
 1652              	.LFB53:
 640:.\uart_wifi.c **** void Wifi_Dect_Data(void)
 641:.\uart_wifi.c **** {
 1653              		.loc 1 641 0
 1654              		.cfi_startproc
 1655 0000 07B5     		push	{r0, r1, r2, lr}
 1656              		.cfi_def_cfa_offset 16
 1657              		.cfi_offset 0, -16
 1658              		.cfi_offset 1, -12
 1659              		.cfi_offset 2, -8
 1660              		.cfi_offset 14, -4
 642:.\uart_wifi.c **** 	uint8 cBuf[2];
 643:.\uart_wifi.c **** 	cBuf[0]=0x00;
 1661              		.loc 1 643 0
 1662 0002 0023     		mov	r3, #0
 1663 0004 01AA     		add	r2, sp, #4
 1664 0006 1370     		strb	r3, [r2]
 644:.\uart_wifi.c **** 	cBuf[1]=0x00;
 1665              		.loc 1 644 0
 1666 0008 5370     		strb	r3, [r2, #1]
 645:.\uart_wifi.c **** 	SendDataToWifi(ACK_DATA,WIFI_DECT_DATA,cBuf,2);
 1667              		.loc 1 645 0
 1668 000a 8020     		mov	r0, #128
 1669 000c 0249     		ldr	r1, .L141
 1670 000e 0223     		mov	r3, #2
 1671 0010 FFF7FEFF 		bl	SendDataToWifi
 1672              	.LVL70:
 646:.\uart_wifi.c **** }
 1673              		.loc 1 646 0
 1674              		@ sp needed
 1675 0014 07BD     		pop	{r0, r1, r2, pc}
 1676              	.L142:
 1677 0016 C046     		.align	2
 1678              	.L141:
 1679 0018 D6CC0000 		.word	52438
 1680              		.cfi_endproc
 1681              	.LFE53:
 1682              		.size	Wifi_Dect_Data, .-Wifi_Dect_Data
 1683              		.section	.text.Wifi_Firmware_Update_Data,"ax",%progbits
 1684              		.align	1
 1685              		.global	Wifi_Firmware_Update_Data
 1686              		.code	16
 1687              		.thumb_func
 1688              		.type	Wifi_Firmware_Update_Data, %function
 1689              	Wifi_Firmware_Update_Data:
 1690              	.LFB54:
 647:.\uart_wifi.c **** void Wifi_Firmware_Update_Data(void)
 648:.\uart_wifi.c **** {	
 1691              		.loc 1 648 0
 1692              		.cfi_startproc
ARM GAS  C:\Users\kevin\AppData\Local\Temp\ccrA27HJ.s 			page 44


 1693 0000 07B5     		push	{r0, r1, r2, lr}
 1694              		.cfi_def_cfa_offset 16
 1695              		.cfi_offset 0, -16
 1696              		.cfi_offset 1, -12
 1697              		.cfi_offset 2, -8
 1698              		.cfi_offset 14, -4
 649:.\uart_wifi.c **** 	uint8 cBuf[2];
 650:.\uart_wifi.c **** 	cBuf[0]=0x00;
 1699              		.loc 1 650 0
 1700 0002 0023     		mov	r3, #0
 1701 0004 01AA     		add	r2, sp, #4
 1702 0006 1370     		strb	r3, [r2]
 651:.\uart_wifi.c **** 	cBuf[1]=0x00;
 1703              		.loc 1 651 0
 1704 0008 5370     		strb	r3, [r2, #1]
 652:.\uart_wifi.c **** 	SendDataToWifi(ACK_DATA,WIFI_FIRMWARE_UPDATE_DATA,cBuf,2);
 1705              		.loc 1 652 0
 1706 000a 8020     		mov	r0, #128
 1707 000c 0249     		ldr	r1, .L144
 1708 000e 0223     		mov	r3, #2
 1709 0010 FFF7FEFF 		bl	SendDataToWifi
 1710              	.LVL71:
 653:.\uart_wifi.c **** }
 1711              		.loc 1 653 0
 1712              		@ sp needed
 1713 0014 07BD     		pop	{r0, r1, r2, pc}
 1714              	.L145:
 1715 0016 C046     		.align	2
 1716              	.L144:
 1717 0018 D2CC0000 		.word	52434
 1718              		.cfi_endproc
 1719              	.LFE54:
 1720              		.size	Wifi_Firmware_Update_Data, .-Wifi_Firmware_Update_Data
 1721              		.section	.text.App_Search_Filter_Manage_Num,"ax",%progbits
 1722              		.align	1
 1723              		.global	App_Search_Filter_Manage_Num
 1724              		.code	16
 1725              		.thumb_func
 1726              		.type	App_Search_Filter_Manage_Num, %function
 1727              	App_Search_Filter_Manage_Num:
 1728              	.LFB55:
 654:.\uart_wifi.c **** /*
 655:.\uart_wifi.c **** 	========================================================================
 656:.\uart_wifi.c **** ** 函数名称 APP_HOST_STATE()
 657:.\uart_wifi.c **** ** 函数功能 ：连接WIFI模块                          
 658:.\uart_wifi.c **** ** 入口参数 ：         
 659:.\uart_wifi.c **** ** 出口参数 ：无
 660:.\uart_wifi.c **** 	========================================================================
 661:.\uart_wifi.c **** */
 662:.\uart_wifi.c **** void App_Search_Filter_Manage_Num(void)
 663:.\uart_wifi.c **** {
 1729              		.loc 1 663 0
 1730              		.cfi_startproc
 1731 0000 07B5     		push	{r0, r1, r2, lr}
 1732              		.cfi_def_cfa_offset 16
 1733              		.cfi_offset 0, -16
 1734              		.cfi_offset 1, -12
ARM GAS  C:\Users\kevin\AppData\Local\Temp\ccrA27HJ.s 			page 45


 1735              		.cfi_offset 2, -8
 1736              		.cfi_offset 14, -4
 664:.\uart_wifi.c **** 	uint8 cBuf[3];
 665:.\uart_wifi.c **** 	cBuf[0]=0x00;  
 1737              		.loc 1 665 0
 1738 0002 0023     		mov	r3, #0
 1739 0004 01AA     		add	r2, sp, #4
 1740 0006 1370     		strb	r3, [r2]
 666:.\uart_wifi.c **** 	cBuf[1]=0x00;//ok
 1741              		.loc 1 666 0
 1742 0008 5370     		strb	r3, [r2, #1]
 667:.\uart_wifi.c **** 	cBuf[2]=NBfig;
 1743              		.loc 1 667 0
 1744 000a 044B     		ldr	r3, .L147
 668:.\uart_wifi.c **** 	SendDataToWifi(ACK_DATA,APP_SEARCH_FILTER_MANAGE_NUM,cBuf,3);
 1745              		.loc 1 668 0
 1746 000c 8020     		mov	r0, #128
 667:.\uart_wifi.c **** 	cBuf[2]=NBfig;
 1747              		.loc 1 667 0
 1748 000e 1B78     		ldrb	r3, [r3]
 1749              		.loc 1 668 0
 1750 0010 B121     		mov	r1, #177
 667:.\uart_wifi.c **** 	cBuf[2]=NBfig;
 1751              		.loc 1 667 0
 1752 0012 9370     		strb	r3, [r2, #2]
 1753              		.loc 1 668 0
 1754 0014 0323     		mov	r3, #3
 1755 0016 FFF7FEFF 		bl	SendDataToWifi
 1756              	.LVL72:
 669:.\uart_wifi.c **** }
 1757              		.loc 1 669 0
 1758              		@ sp needed
 1759 001a 07BD     		pop	{r0, r1, r2, pc}
 1760              	.L148:
 1761              		.align	2
 1762              	.L147:
 1763 001c 00000000 		.word	NBfig
 1764              		.cfi_endproc
 1765              	.LFE55:
 1766              		.size	App_Search_Filter_Manage_Num, .-App_Search_Filter_Manage_Num
 1767              		.section	.text.App_Download_Filter_Manage_Num,"ax",%progbits
 1768              		.align	1
 1769              		.global	App_Download_Filter_Manage_Num
 1770              		.code	16
 1771              		.thumb_func
 1772              		.type	App_Download_Filter_Manage_Num, %function
 1773              	App_Download_Filter_Manage_Num:
 1774              	.LFB56:
 670:.\uart_wifi.c **** 
 671:.\uart_wifi.c **** /*
 672:.\uart_wifi.c **** 	========================================================================
 673:.\uart_wifi.c **** ** 函数名称 App_Download_Filter_Manage_Num()
 674:.\uart_wifi.c **** ** 函数功能 ：连接WIFI模块                          
 675:.\uart_wifi.c **** ** 入口参数 ：         
 676:.\uart_wifi.c **** ** 出口参数 ：无
 677:.\uart_wifi.c **** 	========================================================================
 678:.\uart_wifi.c **** */
ARM GAS  C:\Users\kevin\AppData\Local\Temp\ccrA27HJ.s 			page 46


 679:.\uart_wifi.c **** void App_Download_Filter_Manage_Num(void)
 680:.\uart_wifi.c **** {
 1775              		.loc 1 680 0
 1776              		.cfi_startproc
 1777 0000 07B5     		push	{r0, r1, r2, lr}
 1778              		.cfi_def_cfa_offset 16
 1779              		.cfi_offset 0, -16
 1780              		.cfi_offset 1, -12
 1781              		.cfi_offset 2, -8
 1782              		.cfi_offset 14, -4
 681:.\uart_wifi.c **** 	uint8 cBuf[2];
 682:.\uart_wifi.c **** 	cBuf[0]=0x00;
 1783              		.loc 1 682 0
 1784 0002 0023     		mov	r3, #0
 1785 0004 01AA     		add	r2, sp, #4
 1786 0006 1370     		strb	r3, [r2]
 683:.\uart_wifi.c **** 	cBuf[1]=0x00;
 1787              		.loc 1 683 0
 1788 0008 5370     		strb	r3, [r2, #1]
 684:.\uart_wifi.c **** 	SendDataToWifi(ACK_DATA,APP_DOWNLOAD_FILTER_MANAGE_NUM,cBuf,2);
 1789              		.loc 1 684 0
 1790 000a 8020     		mov	r0, #128
 1791 000c A221     		mov	r1, #162
 1792 000e 0223     		mov	r3, #2
 1793 0010 FFF7FEFF 		bl	SendDataToWifi
 1794              	.LVL73:
 685:.\uart_wifi.c **** }
 1795              		.loc 1 685 0
 1796              		@ sp needed
 1797 0014 07BD     		pop	{r0, r1, r2, pc}
 1798              		.cfi_endproc
 1799              	.LFE56:
 1800              		.size	App_Download_Filter_Manage_Num, .-App_Download_Filter_Manage_Num
 1801              		.section	.text.App_Download_Filter_Reset_Data,"ax",%progbits
 1802              		.align	1
 1803              		.global	App_Download_Filter_Reset_Data
 1804              		.code	16
 1805              		.thumb_func
 1806              		.type	App_Download_Filter_Reset_Data, %function
 1807              	App_Download_Filter_Reset_Data:
 1808              	.LFB57:
 686:.\uart_wifi.c **** /*
 687:.\uart_wifi.c **** 	========================================================================
 688:.\uart_wifi.c **** ** 函数名称 App_Download_Filter_Manage_Num()
 689:.\uart_wifi.c **** ** 函数功能 ：连接WIFI模块                          
 690:.\uart_wifi.c **** ** 入口参数 ：         
 691:.\uart_wifi.c **** ** 出口参数 ：无
 692:.\uart_wifi.c **** 	========================================================================
 693:.\uart_wifi.c **** */
 694:.\uart_wifi.c **** void App_Download_Filter_Reset_Data(void)
 695:.\uart_wifi.c **** {
 1809              		.loc 1 695 0
 1810              		.cfi_startproc
 1811 0000 07B5     		push	{r0, r1, r2, lr}
 1812              		.cfi_def_cfa_offset 16
 1813              		.cfi_offset 0, -16
 1814              		.cfi_offset 1, -12
ARM GAS  C:\Users\kevin\AppData\Local\Temp\ccrA27HJ.s 			page 47


 1815              		.cfi_offset 2, -8
 1816              		.cfi_offset 14, -4
 696:.\uart_wifi.c **** 	uint8 cBuf[2];
 697:.\uart_wifi.c **** 	cBuf[0]=0x00;
 1817              		.loc 1 697 0
 1818 0002 0023     		mov	r3, #0
 1819 0004 01AA     		add	r2, sp, #4
 1820 0006 1370     		strb	r3, [r2]
 698:.\uart_wifi.c **** 	cBuf[1]=0x00;
 1821              		.loc 1 698 0
 1822 0008 5370     		strb	r3, [r2, #1]
 699:.\uart_wifi.c **** 	SendDataToWifi(ACK_DATA,APP_DOWNLOAD_FILTER_RESET_DATA,cBuf,2);
 1823              		.loc 1 699 0
 1824 000a 8020     		mov	r0, #128
 1825 000c A421     		mov	r1, #164
 1826 000e 0223     		mov	r3, #2
 1827 0010 FFF7FEFF 		bl	SendDataToWifi
 1828              	.LVL74:
 700:.\uart_wifi.c **** }
 1829              		.loc 1 700 0
 1830              		@ sp needed
 1831 0014 07BD     		pop	{r0, r1, r2, pc}
 1832              		.cfi_endproc
 1833              	.LFE57:
 1834              		.size	App_Download_Filter_Reset_Data, .-App_Download_Filter_Reset_Data
 1835              		.section	.text.App_Poweron,"ax",%progbits
 1836              		.align	1
 1837              		.global	App_Poweron
 1838              		.code	16
 1839              		.thumb_func
 1840              		.type	App_Poweron, %function
 1841              	App_Poweron:
 1842              	.LFB58:
 701:.\uart_wifi.c **** /*
 702:.\uart_wifi.c **** 	========================================================================
 703:.\uart_wifi.c **** ** 函数名称 App_Poweron()
 704:.\uart_wifi.c **** ** 函数功能 ：连接WIFI模块                          
 705:.\uart_wifi.c **** ** 入口参数 ：         
 706:.\uart_wifi.c **** ** 出口参数 ：无
 707:.\uart_wifi.c **** 	========================================================================
 708:.\uart_wifi.c **** */
 709:.\uart_wifi.c **** void App_Poweron(void)
 710:.\uart_wifi.c **** {
 1843              		.loc 1 710 0
 1844              		.cfi_startproc
 1845 0000 07B5     		push	{r0, r1, r2, lr}
 1846              		.cfi_def_cfa_offset 16
 1847              		.cfi_offset 0, -16
 1848              		.cfi_offset 1, -12
 1849              		.cfi_offset 2, -8
 1850              		.cfi_offset 14, -4
 711:.\uart_wifi.c **** 		uint8 cBuf[2];
 712:.\uart_wifi.c **** 		cBuf[0]=0x00;
 1851              		.loc 1 712 0
 1852 0002 0023     		mov	r3, #0
 1853 0004 01AA     		add	r2, sp, #4
 1854 0006 1370     		strb	r3, [r2]
ARM GAS  C:\Users\kevin\AppData\Local\Temp\ccrA27HJ.s 			page 48


 713:.\uart_wifi.c **** 		cBuf[1]=0x00;
 1855              		.loc 1 713 0
 1856 0008 5370     		strb	r3, [r2, #1]
 714:.\uart_wifi.c **** 		SendDataToWifi(ACK_DATA,APP_POWERON,cBuf,2);
 1857              		.loc 1 714 0
 1858 000a 8020     		mov	r0, #128
 1859 000c A021     		mov	r1, #160
 1860 000e 0223     		mov	r3, #2
 1861 0010 FFF7FEFF 		bl	SendDataToWifi
 1862              	.LVL75:
 715:.\uart_wifi.c **** }
 1863              		.loc 1 715 0
 1864              		@ sp needed
 1865 0014 07BD     		pop	{r0, r1, r2, pc}
 1866              		.cfi_endproc
 1867              	.LFE58:
 1868              		.size	App_Poweron, .-App_Poweron
 1869              		.section	.text.App_Poweroff,"ax",%progbits
 1870              		.align	1
 1871              		.global	App_Poweroff
 1872              		.code	16
 1873              		.thumb_func
 1874              		.type	App_Poweroff, %function
 1875              	App_Poweroff:
 1876              	.LFB59:
 716:.\uart_wifi.c **** /*
 717:.\uart_wifi.c **** 	========================================================================
 718:.\uart_wifi.c **** ** 函数名称 App_Poweroff()
 719:.\uart_wifi.c **** ** 函数功能 ：连接WIFI模块                          
 720:.\uart_wifi.c **** ** 入口参数 ：         
 721:.\uart_wifi.c **** ** 出口参数 ：无
 722:.\uart_wifi.c **** 	========================================================================
 723:.\uart_wifi.c **** */
 724:.\uart_wifi.c **** void App_Poweroff(void)
 725:.\uart_wifi.c **** {
 1877              		.loc 1 725 0
 1878              		.cfi_startproc
 1879 0000 07B5     		push	{r0, r1, r2, lr}
 1880              		.cfi_def_cfa_offset 16
 1881              		.cfi_offset 0, -16
 1882              		.cfi_offset 1, -12
 1883              		.cfi_offset 2, -8
 1884              		.cfi_offset 14, -4
 726:.\uart_wifi.c **** 		uint8 cBuf[2];
 727:.\uart_wifi.c **** 		cBuf[0]=0x00;
 1885              		.loc 1 727 0
 1886 0002 0023     		mov	r3, #0
 1887 0004 01AA     		add	r2, sp, #4
 1888 0006 1370     		strb	r3, [r2]
 728:.\uart_wifi.c **** 		cBuf[1]=0x00;
 1889              		.loc 1 728 0
 1890 0008 5370     		strb	r3, [r2, #1]
 729:.\uart_wifi.c **** 		SendDataToWifi(ACK_DATA,APP_POWEROFF,cBuf,2);
 1891              		.loc 1 729 0
 1892 000a 8020     		mov	r0, #128
 1893 000c A121     		mov	r1, #161
 1894 000e 0223     		mov	r3, #2
ARM GAS  C:\Users\kevin\AppData\Local\Temp\ccrA27HJ.s 			page 49


 1895 0010 FFF7FEFF 		bl	SendDataToWifi
 1896              	.LVL76:
 730:.\uart_wifi.c **** }
 1897              		.loc 1 730 0
 1898              		@ sp needed
 1899 0014 07BD     		pop	{r0, r1, r2, pc}
 1900              		.cfi_endproc
 1901              	.LFE59:
 1902              		.size	App_Poweroff, .-App_Poweroff
 1903              		.section	.text.Mcu_Poweronsmartlink_Data,"ax",%progbits
 1904              		.align	1
 1905              		.global	Mcu_Poweronsmartlink_Data
 1906              		.code	16
 1907              		.thumb_func
 1908              		.type	Mcu_Poweronsmartlink_Data, %function
 1909              	Mcu_Poweronsmartlink_Data:
 1910              	.LFB60:
 731:.\uart_wifi.c **** /*
 732:.\uart_wifi.c **** 	========================================================================
 733:.\uart_wifi.c **** ** 函数名称 ：Mcu_Poweronsmartlink_Data()
 734:.\uart_wifi.c **** ** 函数功能 ：Mcu_Poweronsmartlink_Data                          
 735:.\uart_wifi.c **** ** 入口参数 ：
 736:.\uart_wifi.c ****         
 737:.\uart_wifi.c **** ** 出口参数 ：无
 738:.\uart_wifi.c **** 	========================================================================
 739:.\uart_wifi.c **** */
 740:.\uart_wifi.c **** void Mcu_Poweronsmartlink_Data(void)
 741:.\uart_wifi.c **** {
 1911              		.loc 1 741 0
 1912              		.cfi_startproc
 1913 0000 08B5     		push	{r3, lr}
 1914              		.cfi_def_cfa_offset 8
 1915              		.cfi_offset 3, -8
 1916              		.cfi_offset 14, -4
 742:.\uart_wifi.c ****    SendDataToWifi(CTL_ACK_DATA,MCU_POWERONSMARTLINK_DATA,0,0);
 1917              		.loc 1 742 0
 1918 0002 0020     		mov	r0, #0
 1919 0004 0249     		ldr	r1, .L154
 1920 0006 021C     		mov	r2, r0
 1921 0008 031C     		mov	r3, r0
 1922 000a FFF7FEFF 		bl	SendDataToWifi
 1923              	.LVL77:
 743:.\uart_wifi.c **** }
 1924              		.loc 1 743 0
 1925              		@ sp needed
 1926 000e 08BD     		pop	{r3, pc}
 1927              	.L155:
 1928              		.align	2
 1929              	.L154:
 1930 0010 C2CC0000 		.word	52418
 1931              		.cfi_endproc
 1932              	.LFE60:
 1933              		.size	Mcu_Poweronsmartlink_Data, .-Mcu_Poweronsmartlink_Data
 1934              		.section	.text.Clean_All_User_Bound,"ax",%progbits
 1935              		.align	1
 1936              		.global	Clean_All_User_Bound
 1937              		.code	16
ARM GAS  C:\Users\kevin\AppData\Local\Temp\ccrA27HJ.s 			page 50


 1938              		.thumb_func
 1939              		.type	Clean_All_User_Bound, %function
 1940              	Clean_All_User_Bound:
 1941              	.LFB61:
 744:.\uart_wifi.c **** /*
 745:.\uart_wifi.c **** 	========================================================================
 746:.\uart_wifi.c **** ** 函数名称 Clean_All_User_Bound()
 747:.\uart_wifi.c **** ** 函数功能 ：连接WIFI模块                          
 748:.\uart_wifi.c **** ** 入口参数 ：        
 749:.\uart_wifi.c **** ** 出口参数 ：无
 750:.\uart_wifi.c **** 	========================================================================
 751:.\uart_wifi.c **** */
 752:.\uart_wifi.c **** void Clean_All_User_Bound(void)
 753:.\uart_wifi.c **** {
 1942              		.loc 1 753 0
 1943              		.cfi_startproc
 1944 0000 08B5     		push	{r3, lr}
 1945              		.cfi_def_cfa_offset 8
 1946              		.cfi_offset 3, -8
 1947              		.cfi_offset 14, -4
 754:.\uart_wifi.c ****    SendDataToWifi(CTL_ACK_DATA,MCU_CLEARALLUSERBOUND_DATA,0,0);
 1948              		.loc 1 754 0
 1949 0002 0020     		mov	r0, #0
 1950 0004 0249     		ldr	r1, .L157
 1951 0006 021C     		mov	r2, r0
 1952 0008 031C     		mov	r3, r0
 1953 000a FFF7FEFF 		bl	SendDataToWifi
 1954              	.LVL78:
 755:.\uart_wifi.c **** }
 1955              		.loc 1 755 0
 1956              		@ sp needed
 1957 000e 08BD     		pop	{r3, pc}
 1958              	.L158:
 1959              		.align	2
 1960              	.L157:
 1961 0010 01600000 		.word	24577
 1962              		.cfi_endproc
 1963              	.LFE61:
 1964              		.size	Clean_All_User_Bound, .-Clean_All_User_Bound
 1965              		.section	.text.Mcu_Firmware_Update,"ax",%progbits
 1966              		.align	1
 1967              		.global	Mcu_Firmware_Update
 1968              		.code	16
 1969              		.thumb_func
 1970              		.type	Mcu_Firmware_Update, %function
 1971              	Mcu_Firmware_Update:
 1972              	.LFB62:
 756:.\uart_wifi.c **** void Mcu_Firmware_Update(void)
 757:.\uart_wifi.c **** {
 1973              		.loc 1 757 0
 1974              		.cfi_startproc
 1975 0000 07B5     		push	{r0, r1, r2, lr}
 1976              		.cfi_def_cfa_offset 16
 1977              		.cfi_offset 0, -16
 1978              		.cfi_offset 1, -12
 1979              		.cfi_offset 2, -8
 1980              		.cfi_offset 14, -4
ARM GAS  C:\Users\kevin\AppData\Local\Temp\ccrA27HJ.s 			page 51


 758:.\uart_wifi.c **** 	  uint8 cBuf[2];
 759:.\uart_wifi.c ****   	cBuf[0] = 0x00;				 //
 760:.\uart_wifi.c ****   	cBuf[1] = FIRMWARE_DATALEN;				 //固件数据长度
 1981              		.loc 1 760 0
 1982 0002 8023     		mov	r3, #128
 759:.\uart_wifi.c ****   	cBuf[0] = 0x00;				 //
 1983              		.loc 1 759 0
 1984 0004 01AA     		add	r2, sp, #4
 1985 0006 0020     		mov	r0, #0
 1986              		.loc 1 760 0
 1987 0008 5370     		strb	r3, [r2, #1]
 761:.\uart_wifi.c ****   	SendDataToWifi(CTL_ACK_DATA,MCU_FIRMWARE_UPDATE,cBuf,2);	
 1988              		.loc 1 761 0
 1989 000a 0349     		ldr	r1, .L160
 1990 000c 0223     		mov	r3, #2
 759:.\uart_wifi.c ****   	cBuf[0] = 0x00;				 //
 1991              		.loc 1 759 0
 1992 000e 1070     		strb	r0, [r2]
 762:.\uart_wifi.c **** }
 1993              		.loc 1 762 0
 1994              		@ sp needed
 761:.\uart_wifi.c ****   	SendDataToWifi(CTL_ACK_DATA,MCU_FIRMWARE_UPDATE,cBuf,2);	
 1995              		.loc 1 761 0
 1996 0010 FFF7FEFF 		bl	SendDataToWifi
 1997              	.LVL79:
 1998              		.loc 1 762 0
 1999 0014 07BD     		pop	{r0, r1, r2, pc}
 2000              	.L161:
 2001 0016 C046     		.align	2
 2002              	.L160:
 2003 0018 C5CC0000 		.word	52421
 2004              		.cfi_endproc
 2005              	.LFE62:
 2006              		.size	Mcu_Firmware_Update, .-Mcu_Firmware_Update
 2007              		.section	.text.Host_State_Data,"ax",%progbits
 2008              		.align	1
 2009              		.global	Host_State_Data
 2010              		.code	16
 2011              		.thumb_func
 2012              		.type	Host_State_Data, %function
 2013              	Host_State_Data:
 2014              	.LFB63:
 763:.\uart_wifi.c **** 
 764:.\uart_wifi.c **** void Host_State_Data(void)
 765:.\uart_wifi.c **** {
 2015              		.loc 1 765 0
 2016              		.cfi_startproc
 2017 0000 1FB5     		push	{r0, r1, r2, r3, r4, lr}
 2018              		.cfi_def_cfa_offset 24
 2019              		.cfi_offset 0, -24
 2020              		.cfi_offset 1, -20
 2021              		.cfi_offset 2, -16
 2022              		.cfi_offset 3, -12
 2023              		.cfi_offset 4, -8
 2024              		.cfi_offset 14, -4
 766:.\uart_wifi.c **** 		uint8 cBuf[14];
 767:.\uart_wifi.c **** 		cBuf[0]=Error_Counter;
ARM GAS  C:\Users\kevin\AppData\Local\Temp\ccrA27HJ.s 			page 52


 2025              		.loc 1 767 0
 2026 0002 1A4B     		ldr	r3, .L163
 2027 0004 6946     		mov	r1, sp
 2028 0006 1B78     		ldrb	r3, [r3]
 2029 0008 0B70     		strb	r3, [r1]
 768:.\uart_wifi.c **** 		cBuf[1]=Work_State.all; //01待机 02制水中 03制水完成 04 冲洗
 2030              		.loc 1 768 0
 2031 000a 194B     		ldr	r3, .L163+4
 2032 000c 1B78     		ldrb	r3, [r3]
 2033 000e 4B70     		strb	r3, [r1, #1]
 769:.\uart_wifi.c **** 		cBuf[2]=LianXuJiShi/600;  //工作状态	1	U8 见注2  
 2034              		.loc 1 769 0
 2035 0010 184B     		ldr	r3, .L163+8
 2036 0012 9621     		mov	r1, #150
 2037 0014 1868     		ldr	r0, [r3]
 2038 0016 8900     		lsl	r1, r1, #2
 2039 0018 FFF7FEFF 		bl	__aeabi_uidiv
 2040              	.LVL80:
 2041 001c 6A46     		mov	r2, sp
 770:.\uart_wifi.c **** 		cBuf[3]=0x06; 	//滤芯级数	1	U8 (总级数)
 2042              		.loc 1 770 0
 2043 001e 0623     		mov	r3, #6
 2044 0020 D370     		strb	r3, [r2, #3]
 771:.\uart_wifi.c **** 		cBuf[4]=(jingshuiliang>>8); //总净水量	2	U16(现在总净水量)
 2045              		.loc 1 771 0
 2046 0022 154B     		ldr	r3, .L163+12
 2047 0024 6946     		mov	r1, sp
 2048 0026 1B88     		ldrh	r3, [r3]
 769:.\uart_wifi.c **** 		cBuf[2]=LianXuJiShi/600;  //工作状态	1	U8 见注2  
 2049              		.loc 1 769 0
 2050 0028 9070     		strb	r0, [r2, #2]
 772:.\uart_wifi.c **** 		cBuf[5]=jingshuiliang; 
 2051              		.loc 1 772 0
 2052 002a 4B71     		strb	r3, [r1, #5]
 771:.\uart_wifi.c **** 		cBuf[4]=(jingshuiliang>>8); //总净水量	2	U16(现在总净水量)
 2053              		.loc 1 771 0
 2054 002c 1A0A     		lsr	r2, r3, #8
 773:.\uart_wifi.c **** 		cBuf[6]=(Value_Tds0>>8); //TDS(原水)	2	U16(实际TDS值)
 2055              		.loc 1 773 0
 2056 002e 134B     		ldr	r3, .L163+16
 771:.\uart_wifi.c **** 		cBuf[4]=(jingshuiliang>>8); //总净水量	2	U16(现在总净水量)
 2057              		.loc 1 771 0
 2058 0030 0A71     		strb	r2, [r1, #4]
 2059              		.loc 1 773 0
 2060 0032 1B88     		ldrh	r3, [r3]
 774:.\uart_wifi.c **** 		cBuf[7]=Value_Tds0;
 775:.\uart_wifi.c **** 		cBuf[8]=(Value_Tds1_bak>>8); //TDS(净水)	2	U16(实际TDS值)
 776:.\uart_wifi.c **** 		cBuf[9]=Value_Tds1_bak; 
 777:.\uart_wifi.c **** 		cBuf[10]=Value_T; //温度	1	U8(实际温度值 
 778:.\uart_wifi.c **** 		cBuf[11]=(Value_Loushui_Ad>>8); //漏水	2	U16(实际AD值)
 779:.\uart_wifi.c **** 		cBuf[12]=Value_Loushui_Ad; 
 780:.\uart_wifi.c **** 		cBuf[13]=Switch_Data.all; //高、低压开关状态	1	U8 见注    
 781:.\uart_wifi.c **** 		SendDataToWifi(CTL_ACK_DATA,HOST_STATE_DATA,cBuf,14);
 2061              		.loc 1 781 0
 2062 0034 0020     		mov	r0, #0
 773:.\uart_wifi.c **** 		cBuf[6]=(Value_Tds0>>8); //TDS(原水)	2	U16(实际TDS值)
 2063              		.loc 1 773 0
ARM GAS  C:\Users\kevin\AppData\Local\Temp\ccrA27HJ.s 			page 53


 2064 0036 1A0A     		lsr	r2, r3, #8
 774:.\uart_wifi.c **** 		cBuf[7]=Value_Tds0;
 2065              		.loc 1 774 0
 2066 0038 CB71     		strb	r3, [r1, #7]
 775:.\uart_wifi.c **** 		cBuf[8]=(Value_Tds1_bak>>8); //TDS(净水)	2	U16(实际TDS值)
 2067              		.loc 1 775 0
 2068 003a 114B     		ldr	r3, .L163+20
 773:.\uart_wifi.c **** 		cBuf[6]=(Value_Tds0>>8); //TDS(原水)	2	U16(实际TDS值)
 2069              		.loc 1 773 0
 2070 003c 8A71     		strb	r2, [r1, #6]
 775:.\uart_wifi.c **** 		cBuf[8]=(Value_Tds1_bak>>8); //TDS(净水)	2	U16(实际TDS值)
 2071              		.loc 1 775 0
 2072 003e 1B88     		ldrh	r3, [r3]
 2073 0040 1A0A     		lsr	r2, r3, #8
 776:.\uart_wifi.c **** 		cBuf[9]=Value_Tds1_bak; 
 2074              		.loc 1 776 0
 2075 0042 4B72     		strb	r3, [r1, #9]
 777:.\uart_wifi.c **** 		cBuf[10]=Value_T; //温度	1	U8(实际温度值 
 2076              		.loc 1 777 0
 2077 0044 0F4B     		ldr	r3, .L163+24
 775:.\uart_wifi.c **** 		cBuf[8]=(Value_Tds1_bak>>8); //TDS(净水)	2	U16(实际TDS值)
 2078              		.loc 1 775 0
 2079 0046 0A72     		strb	r2, [r1, #8]
 777:.\uart_wifi.c **** 		cBuf[10]=Value_T; //温度	1	U8(实际温度值 
 2080              		.loc 1 777 0
 2081 0048 1B78     		ldrb	r3, [r3]
 2082 004a 8B72     		strb	r3, [r1, #10]
 778:.\uart_wifi.c **** 		cBuf[11]=(Value_Loushui_Ad>>8); //漏水	2	U16(实际AD值)
 2083              		.loc 1 778 0
 2084 004c 0E4B     		ldr	r3, .L163+28
 2085 004e 1B88     		ldrh	r3, [r3]
 2086 0050 1A0A     		lsr	r2, r3, #8
 779:.\uart_wifi.c **** 		cBuf[12]=Value_Loushui_Ad; 
 2087              		.loc 1 779 0
 2088 0052 0B73     		strb	r3, [r1, #12]
 780:.\uart_wifi.c **** 		cBuf[13]=Switch_Data.all; //高、低压开关状态	1	U8 见注    
 2089              		.loc 1 780 0
 2090 0054 0D4B     		ldr	r3, .L163+32
 778:.\uart_wifi.c **** 		cBuf[11]=(Value_Loushui_Ad>>8); //漏水	2	U16(实际AD值)
 2091              		.loc 1 778 0
 2092 0056 CA72     		strb	r2, [r1, #11]
 780:.\uart_wifi.c **** 		cBuf[13]=Switch_Data.all; //高、低压开关状态	1	U8 见注    
 2093              		.loc 1 780 0
 2094 0058 1B78     		ldrb	r3, [r3]
 2095              		.loc 1 781 0
 2096 005a 6A46     		mov	r2, sp
 780:.\uart_wifi.c **** 		cBuf[13]=Switch_Data.all; //高、低压开关状态	1	U8 见注    
 2097              		.loc 1 780 0
 2098 005c 4B73     		strb	r3, [r1, #13]
 2099              		.loc 1 781 0
 2100 005e 9021     		mov	r1, #144
 2101 0060 0902     		lsl	r1, r1, #8
 2102 0062 0E23     		mov	r3, #14
 2103 0064 FFF7FEFF 		bl	SendDataToWifi
 2104              	.LVL81:
 782:.\uart_wifi.c **** }
 2105              		.loc 1 782 0
ARM GAS  C:\Users\kevin\AppData\Local\Temp\ccrA27HJ.s 			page 54


 2106 0068 05B0     		add	sp, sp, #20
 2107              		@ sp needed
 2108 006a 00BD     		pop	{pc}
 2109              	.L164:
 2110              		.align	2
 2111              	.L163:
 2112 006c 00000000 		.word	Error_Counter
 2113 0070 00000000 		.word	Work_State
 2114 0074 00000000 		.word	LianXuJiShi
 2115 0078 00000000 		.word	jingshuiliang
 2116 007c 00000000 		.word	Value_Tds0
 2117 0080 00000000 		.word	Value_Tds1_bak
 2118 0084 00000000 		.word	Value_T
 2119 0088 00000000 		.word	Value_Loushui_Ad
 2120 008c 00000000 		.word	Switch_Data
 2121              		.cfi_endproc
 2122              	.LFE63:
 2123              		.size	Host_State_Data, .-Host_State_Data
 2124              		.section	.text.Host_Filter_Changed_Data,"ax",%progbits
 2125              		.align	1
 2126              		.global	Host_Filter_Changed_Data
 2127              		.code	16
 2128              		.thumb_func
 2129              		.type	Host_Filter_Changed_Data, %function
 2130              	Host_Filter_Changed_Data:
 2131              	.LFB64:
 783:.\uart_wifi.c **** 
 784:.\uart_wifi.c **** void Host_Filter_Changed_Data(void)
 785:.\uart_wifi.c **** {
 2132              		.loc 1 785 0
 2133              		.cfi_startproc
 2134 0000 07B5     		push	{r0, r1, r2, lr}
 2135              		.cfi_def_cfa_offset 16
 2136              		.cfi_offset 0, -16
 2137              		.cfi_offset 1, -12
 2138              		.cfi_offset 2, -8
 2139              		.cfi_offset 14, -4
 786:.\uart_wifi.c **** 	uint8 cBuf[8];
 787:.\uart_wifi.c **** 	cBuf[0]=0x06;  	//滤芯级数
 2140              		.loc 1 787 0
 2141 0002 0623     		mov	r3, #6
 2142 0004 6946     		mov	r1, sp
 2143 0006 0B70     		strb	r3, [r1]
 788:.\uart_wifi.c **** 	cBuf[1]=Change_Filter.all;  	
 2144              		.loc 1 788 0
 2145 0008 0B4B     		ldr	r3, .L166
 789:.\uart_wifi.c **** 	cBuf[2]=Filter_Changed_Num[0]; 
 790:.\uart_wifi.c **** 	cBuf[3]=Filter_Changed_Num[1]; 	
 791:.\uart_wifi.c **** 	cBuf[4]=Filter_Changed_Num[2];   
 792:.\uart_wifi.c **** 	cBuf[5]=Filter_Changed_Num[3];  
 793:.\uart_wifi.c **** 	cBuf[6]=Filter_Changed_Num[4]; 
 794:.\uart_wifi.c **** 	cBuf[7]=Filter_Changed_Num[5]; 
 795:.\uart_wifi.c **** 	SendDataToWifi(CTL_ACK_DATA,HOST_FILTER_CHANGED_DATA,cBuf,8);
 2146              		.loc 1 795 0
 2147 000a 0020     		mov	r0, #0
 788:.\uart_wifi.c **** 	cBuf[1]=Change_Filter.all;  	
 2148              		.loc 1 788 0
ARM GAS  C:\Users\kevin\AppData\Local\Temp\ccrA27HJ.s 			page 55


 2149 000c 1B78     		ldrb	r3, [r3]
 796:.\uart_wifi.c **** }
 2150              		.loc 1 796 0
 2151              		@ sp needed
 788:.\uart_wifi.c **** 	cBuf[1]=Change_Filter.all;  	
 2152              		.loc 1 788 0
 2153 000e 4B70     		strb	r3, [r1, #1]
 789:.\uart_wifi.c **** 	cBuf[2]=Filter_Changed_Num[0]; 
 2154              		.loc 1 789 0
 2155 0010 0A4B     		ldr	r3, .L166+4
 2156 0012 1A78     		ldrb	r2, [r3]
 2157 0014 8A70     		strb	r2, [r1, #2]
 790:.\uart_wifi.c **** 	cBuf[3]=Filter_Changed_Num[1]; 	
 2158              		.loc 1 790 0
 2159 0016 5A78     		ldrb	r2, [r3, #1]
 2160 0018 CA70     		strb	r2, [r1, #3]
 791:.\uart_wifi.c **** 	cBuf[4]=Filter_Changed_Num[2];   
 2161              		.loc 1 791 0
 2162 001a 9A78     		ldrb	r2, [r3, #2]
 2163 001c 0A71     		strb	r2, [r1, #4]
 792:.\uart_wifi.c **** 	cBuf[5]=Filter_Changed_Num[3];  
 2164              		.loc 1 792 0
 2165 001e DA78     		ldrb	r2, [r3, #3]
 2166 0020 4A71     		strb	r2, [r1, #5]
 793:.\uart_wifi.c **** 	cBuf[6]=Filter_Changed_Num[4]; 
 2167              		.loc 1 793 0
 2168 0022 1A79     		ldrb	r2, [r3, #4]
 2169 0024 8A71     		strb	r2, [r1, #6]
 794:.\uart_wifi.c **** 	cBuf[7]=Filter_Changed_Num[5]; 
 2170              		.loc 1 794 0
 2171 0026 5B79     		ldrb	r3, [r3, #5]
 795:.\uart_wifi.c **** 	SendDataToWifi(CTL_ACK_DATA,HOST_FILTER_CHANGED_DATA,cBuf,8);
 2172              		.loc 1 795 0
 2173 0028 6A46     		mov	r2, sp
 794:.\uart_wifi.c **** 	cBuf[7]=Filter_Changed_Num[5]; 
 2174              		.loc 1 794 0
 2175 002a CB71     		strb	r3, [r1, #7]
 795:.\uart_wifi.c **** 	SendDataToWifi(CTL_ACK_DATA,HOST_FILTER_CHANGED_DATA,cBuf,8);
 2176              		.loc 1 795 0
 2177 002c 0449     		ldr	r1, .L166+8
 2178 002e 0823     		mov	r3, #8
 2179 0030 FFF7FEFF 		bl	SendDataToWifi
 2180              	.LVL82:
 2181              		.loc 1 796 0
 2182 0034 07BD     		pop	{r0, r1, r2, pc}
 2183              	.L167:
 2184 0036 C046     		.align	2
 2185              	.L166:
 2186 0038 00000000 		.word	Change_Filter
 2187 003c 00000000 		.word	Filter_Changed_Num
 2188 0040 01900000 		.word	36865
 2189              		.cfi_endproc
 2190              	.LFE64:
 2191              		.size	Host_Filter_Changed_Data, .-Host_Filter_Changed_Data
 2192              		.section	.text.Host_Filter_Used_Time_Data,"ax",%progbits
 2193              		.align	1
 2194              		.global	Host_Filter_Used_Time_Data
ARM GAS  C:\Users\kevin\AppData\Local\Temp\ccrA27HJ.s 			page 56


 2195              		.code	16
 2196              		.thumb_func
 2197              		.type	Host_Filter_Used_Time_Data, %function
 2198              	Host_Filter_Used_Time_Data:
 2199              	.LFB65:
 797:.\uart_wifi.c **** void Host_Filter_Used_Time_Data(void)
 798:.\uart_wifi.c **** {
 2200              		.loc 1 798 0
 2201              		.cfi_startproc
 2202 0000 1FB5     		push	{r0, r1, r2, r3, r4, lr}
 2203              		.cfi_def_cfa_offset 24
 2204              		.cfi_offset 0, -24
 2205              		.cfi_offset 1, -20
 2206              		.cfi_offset 2, -16
 2207              		.cfi_offset 3, -12
 2208              		.cfi_offset 4, -8
 2209              		.cfi_offset 14, -4
 799:.\uart_wifi.c **** 	uint8 cBuf[14];
 800:.\uart_wifi.c **** 	cBuf[0]=0x06;  	//滤芯级数
 2210              		.loc 1 800 0
 2211 0002 0623     		mov	r3, #6
 2212 0004 6846     		mov	r0, sp
 2213 0006 0370     		strb	r3, [r0]
 801:.\uart_wifi.c **** 	cBuf[1]=(LvxinJishi[0]>>8);  	//滤芯数据0	2	U16(实际滤芯使用时间值)
 2214              		.loc 1 801 0
 2215 0008 104B     		ldr	r3, .L169
 2216 000a 1A88     		ldrh	r2, [r3]
 2217 000c 110A     		lsr	r1, r2, #8
 2218 000e 4170     		strb	r1, [r0, #1]
 802:.\uart_wifi.c **** 	cBuf[2]=LvxinJishi[0];
 2219              		.loc 1 802 0
 2220 0010 8270     		strb	r2, [r0, #2]
 803:.\uart_wifi.c **** 	cBuf[3]=(LvxinJishi[1]>>8);  	//滤芯数据0	2	U16(实际滤芯使用时间值)
 2221              		.loc 1 803 0
 2222 0012 5A88     		ldrh	r2, [r3, #2]
 2223 0014 110A     		lsr	r1, r2, #8
 2224 0016 C170     		strb	r1, [r0, #3]
 804:.\uart_wifi.c **** 	cBuf[4]=LvxinJishi[1];
 2225              		.loc 1 804 0
 2226 0018 0271     		strb	r2, [r0, #4]
 805:.\uart_wifi.c **** 	cBuf[5]=(LvxinJishi[2]>>8);  	//滤芯数据0	2	U16(实际滤芯使用时间值)
 2227              		.loc 1 805 0
 2228 001a 9A88     		ldrh	r2, [r3, #4]
 2229 001c 110A     		lsr	r1, r2, #8
 2230 001e 4171     		strb	r1, [r0, #5]
 806:.\uart_wifi.c **** 	cBuf[6]=LvxinJishi[2];
 2231              		.loc 1 806 0
 2232 0020 8271     		strb	r2, [r0, #6]
 807:.\uart_wifi.c **** 	cBuf[7]=(LvxinJishi[3]>>8);  	//滤芯数据0	2	U16(实际滤芯使用时间值)
 2233              		.loc 1 807 0
 2234 0022 DA88     		ldrh	r2, [r3, #6]
 2235 0024 110A     		lsr	r1, r2, #8
 2236 0026 C171     		strb	r1, [r0, #7]
 808:.\uart_wifi.c **** 	cBuf[8]=LvxinJishi[3]; 
 2237              		.loc 1 808 0
 2238 0028 0272     		strb	r2, [r0, #8]
 809:.\uart_wifi.c **** 	cBuf[9]=(LvxinJishi[4]>>8);  	//滤芯数据0	2	U16(实际滤芯使用时间值)
ARM GAS  C:\Users\kevin\AppData\Local\Temp\ccrA27HJ.s 			page 57


 2239              		.loc 1 809 0
 2240 002a 1A89     		ldrh	r2, [r3, #8]
 2241 002c 110A     		lsr	r1, r2, #8
 2242 002e 4172     		strb	r1, [r0, #9]
 810:.\uart_wifi.c **** 	cBuf[10]=LvxinJishi[4]; 
 2243              		.loc 1 810 0
 2244 0030 8272     		strb	r2, [r0, #10]
 811:.\uart_wifi.c **** 	cBuf[11]=(LvxinJishi[5]>>8);  	//滤芯数据0	2	U16(实际滤芯使用时间值)
 2245              		.loc 1 811 0
 2246 0032 5B89     		ldrh	r3, [r3, #10]
 812:.\uart_wifi.c **** 	cBuf[12]=LvxinJishi[5]; 
 813:.\uart_wifi.c **** 	SendDataToWifi(CTL_ACK_DATA,HOST_FILTER_USED_TIME_DATA,cBuf,13);
 2247              		.loc 1 813 0
 2248 0034 0649     		ldr	r1, .L169+4
 811:.\uart_wifi.c **** 	cBuf[11]=(LvxinJishi[5]>>8);  	//滤芯数据0	2	U16(实际滤芯使用时间值)
 2249              		.loc 1 811 0
 2250 0036 1A0A     		lsr	r2, r3, #8
 2251 0038 C272     		strb	r2, [r0, #11]
 812:.\uart_wifi.c **** 	cBuf[12]=LvxinJishi[5]; 
 2252              		.loc 1 812 0
 2253 003a 0373     		strb	r3, [r0, #12]
 2254              		.loc 1 813 0
 2255 003c 6A46     		mov	r2, sp
 2256 003e 0020     		mov	r0, #0
 2257 0040 0D23     		mov	r3, #13
 2258 0042 FFF7FEFF 		bl	SendDataToWifi
 2259              	.LVL83:
 814:.\uart_wifi.c **** }
 2260              		.loc 1 814 0
 2261 0046 05B0     		add	sp, sp, #20
 2262              		@ sp needed
 2263 0048 00BD     		pop	{pc}
 2264              	.L170:
 2265 004a C046     		.align	2
 2266              	.L169:
 2267 004c 00000000 		.word	LvxinJishi
 2268 0050 02900000 		.word	36866
 2269              		.cfi_endproc
 2270              	.LFE65:
 2271              		.size	Host_Filter_Used_Time_Data, .-Host_Filter_Used_Time_Data
 2272              		.section	.text.Host_E0_Data,"ax",%progbits
 2273              		.align	1
 2274              		.global	Host_E0_Data
 2275              		.code	16
 2276              		.thumb_func
 2277              		.type	Host_E0_Data, %function
 2278              	Host_E0_Data:
 2279              	.LFB66:
 815:.\uart_wifi.c **** 
 816:.\uart_wifi.c **** void Host_E0_Data(void)
 817:.\uart_wifi.c **** {
 2280              		.loc 1 817 0
 2281              		.cfi_startproc
 2282 0000 08B5     		push	{r3, lr}
 2283              		.cfi_def_cfa_offset 8
 2284              		.cfi_offset 3, -8
 2285              		.cfi_offset 14, -4
ARM GAS  C:\Users\kevin\AppData\Local\Temp\ccrA27HJ.s 			page 58


 818:.\uart_wifi.c **** 	 SendDataToWifi(CTL_ACK_DATA,HOST_E0_DATA,0,0);		
 2286              		.loc 1 818 0
 2287 0002 0020     		mov	r0, #0
 2288 0004 0249     		ldr	r1, .L172
 2289 0006 021C     		mov	r2, r0
 2290 0008 031C     		mov	r3, r0
 2291 000a FFF7FEFF 		bl	SendDataToWifi
 2292              	.LVL84:
 819:.\uart_wifi.c **** }
 2293              		.loc 1 819 0
 2294              		@ sp needed
 2295 000e 08BD     		pop	{r3, pc}
 2296              	.L173:
 2297              		.align	2
 2298              	.L172:
 2299 0010 F0900000 		.word	37104
 2300              		.cfi_endproc
 2301              	.LFE66:
 2302              		.size	Host_E0_Data, .-Host_E0_Data
 2303              		.section	.text.Host_E1_Data,"ax",%progbits
 2304              		.align	1
 2305              		.global	Host_E1_Data
 2306              		.code	16
 2307              		.thumb_func
 2308              		.type	Host_E1_Data, %function
 2309              	Host_E1_Data:
 2310              	.LFB67:
 820:.\uart_wifi.c **** void Host_E1_Data(void)
 821:.\uart_wifi.c **** {
 2311              		.loc 1 821 0
 2312              		.cfi_startproc
 2313 0000 08B5     		push	{r3, lr}
 2314              		.cfi_def_cfa_offset 8
 2315              		.cfi_offset 3, -8
 2316              		.cfi_offset 14, -4
 822:.\uart_wifi.c **** 	 SendDataToWifi(CTL_ACK_DATA,HOST_E1_DATA,0,0);		
 2317              		.loc 1 822 0
 2318 0002 0020     		mov	r0, #0
 2319 0004 0249     		ldr	r1, .L175
 2320 0006 021C     		mov	r2, r0
 2321 0008 031C     		mov	r3, r0
 2322 000a FFF7FEFF 		bl	SendDataToWifi
 2323              	.LVL85:
 823:.\uart_wifi.c **** }
 2324              		.loc 1 823 0
 2325              		@ sp needed
 2326 000e 08BD     		pop	{r3, pc}
 2327              	.L176:
 2328              		.align	2
 2329              	.L175:
 2330 0010 F1900000 		.word	37105
 2331              		.cfi_endproc
 2332              	.LFE67:
 2333              		.size	Host_E1_Data, .-Host_E1_Data
 2334              		.section	.text.Host_E2_Data,"ax",%progbits
 2335              		.align	1
 2336              		.global	Host_E2_Data
ARM GAS  C:\Users\kevin\AppData\Local\Temp\ccrA27HJ.s 			page 59


 2337              		.code	16
 2338              		.thumb_func
 2339              		.type	Host_E2_Data, %function
 2340              	Host_E2_Data:
 2341              	.LFB68:
 824:.\uart_wifi.c **** void Host_E2_Data (void)
 825:.\uart_wifi.c **** {
 2342              		.loc 1 825 0
 2343              		.cfi_startproc
 2344 0000 08B5     		push	{r3, lr}
 2345              		.cfi_def_cfa_offset 8
 2346              		.cfi_offset 3, -8
 2347              		.cfi_offset 14, -4
 826:.\uart_wifi.c **** 	 SendDataToWifi(CTL_ACK_DATA,HOST_E2_DATA,0,0);		
 2348              		.loc 1 826 0
 2349 0002 0020     		mov	r0, #0
 2350 0004 0249     		ldr	r1, .L178
 2351 0006 021C     		mov	r2, r0
 2352 0008 031C     		mov	r3, r0
 2353 000a FFF7FEFF 		bl	SendDataToWifi
 2354              	.LVL86:
 827:.\uart_wifi.c **** }
 2355              		.loc 1 827 0
 2356              		@ sp needed
 2357 000e 08BD     		pop	{r3, pc}
 2358              	.L179:
 2359              		.align	2
 2360              	.L178:
 2361 0010 F2900000 		.word	37106
 2362              		.cfi_endproc
 2363              	.LFE68:
 2364              		.size	Host_E2_Data, .-Host_E2_Data
 2365              		.section	.text.Host_E3_Data,"ax",%progbits
 2366              		.align	1
 2367              		.global	Host_E3_Data
 2368              		.code	16
 2369              		.thumb_func
 2370              		.type	Host_E3_Data, %function
 2371              	Host_E3_Data:
 2372              	.LFB69:
 828:.\uart_wifi.c **** void Host_E3_Data(void)
 829:.\uart_wifi.c **** {
 2373              		.loc 1 829 0
 2374              		.cfi_startproc
 2375 0000 08B5     		push	{r3, lr}
 2376              		.cfi_def_cfa_offset 8
 2377              		.cfi_offset 3, -8
 2378              		.cfi_offset 14, -4
 830:.\uart_wifi.c **** 	 SendDataToWifi(CTL_ACK_DATA,HOST_E3_DATA,0,0);		
 2379              		.loc 1 830 0
 2380 0002 0020     		mov	r0, #0
 2381 0004 0249     		ldr	r1, .L181
 2382 0006 021C     		mov	r2, r0
 2383 0008 031C     		mov	r3, r0
 2384 000a FFF7FEFF 		bl	SendDataToWifi
 2385              	.LVL87:
 831:.\uart_wifi.c **** }
ARM GAS  C:\Users\kevin\AppData\Local\Temp\ccrA27HJ.s 			page 60


 2386              		.loc 1 831 0
 2387              		@ sp needed
 2388 000e 08BD     		pop	{r3, pc}
 2389              	.L182:
 2390              		.align	2
 2391              	.L181:
 2392 0010 F3900000 		.word	37107
 2393              		.cfi_endproc
 2394              	.LFE69:
 2395              		.size	Host_E3_Data, .-Host_E3_Data
 2396              		.section	.text.Host_E4_Data,"ax",%progbits
 2397              		.align	1
 2398              		.global	Host_E4_Data
 2399              		.code	16
 2400              		.thumb_func
 2401              		.type	Host_E4_Data, %function
 2402              	Host_E4_Data:
 2403              	.LFB70:
 832:.\uart_wifi.c **** void Host_E4_Data(void)
 833:.\uart_wifi.c **** {
 2404              		.loc 1 833 0
 2405              		.cfi_startproc
 2406 0000 08B5     		push	{r3, lr}
 2407              		.cfi_def_cfa_offset 8
 2408              		.cfi_offset 3, -8
 2409              		.cfi_offset 14, -4
 834:.\uart_wifi.c **** 	 SendDataToWifi(CTL_ACK_DATA,HOST_E4_DATA,0,0);		
 2410              		.loc 1 834 0
 2411 0002 0020     		mov	r0, #0
 2412 0004 0249     		ldr	r1, .L184
 2413 0006 021C     		mov	r2, r0
 2414 0008 031C     		mov	r3, r0
 2415 000a FFF7FEFF 		bl	SendDataToWifi
 2416              	.LVL88:
 835:.\uart_wifi.c **** }
 2417              		.loc 1 835 0
 2418              		@ sp needed
 2419 000e 08BD     		pop	{r3, pc}
 2420              	.L185:
 2421              		.align	2
 2422              	.L184:
 2423 0010 F4900000 		.word	37108
 2424              		.cfi_endproc
 2425              	.LFE70:
 2426              		.size	Host_E4_Data, .-Host_E4_Data
 2427              		.section	.text.Host_E5_Data,"ax",%progbits
 2428              		.align	1
 2429              		.global	Host_E5_Data
 2430              		.code	16
 2431              		.thumb_func
 2432              		.type	Host_E5_Data, %function
 2433              	Host_E5_Data:
 2434              	.LFB71:
 836:.\uart_wifi.c **** void Host_E5_Data(void)
 837:.\uart_wifi.c **** {
 2435              		.loc 1 837 0
 2436              		.cfi_startproc
ARM GAS  C:\Users\kevin\AppData\Local\Temp\ccrA27HJ.s 			page 61


 2437 0000 08B5     		push	{r3, lr}
 2438              		.cfi_def_cfa_offset 8
 2439              		.cfi_offset 3, -8
 2440              		.cfi_offset 14, -4
 838:.\uart_wifi.c **** 	 SendDataToWifi(CTL_ACK_DATA,HOST_E5_DATA,0,0);		
 2441              		.loc 1 838 0
 2442 0002 0020     		mov	r0, #0
 2443 0004 0249     		ldr	r1, .L187
 2444 0006 021C     		mov	r2, r0
 2445 0008 031C     		mov	r3, r0
 2446 000a FFF7FEFF 		bl	SendDataToWifi
 2447              	.LVL89:
 839:.\uart_wifi.c **** }
 2448              		.loc 1 839 0
 2449              		@ sp needed
 2450 000e 08BD     		pop	{r3, pc}
 2451              	.L188:
 2452              		.align	2
 2453              	.L187:
 2454 0010 F5900000 		.word	37109
 2455              		.cfi_endproc
 2456              	.LFE71:
 2457              		.size	Host_E5_Data, .-Host_E5_Data
 2458              		.section	.text.Host_E6_Data,"ax",%progbits
 2459              		.align	1
 2460              		.global	Host_E6_Data
 2461              		.code	16
 2462              		.thumb_func
 2463              		.type	Host_E6_Data, %function
 2464              	Host_E6_Data:
 2465              	.LFB72:
 840:.\uart_wifi.c **** void Host_E6_Data(void)
 841:.\uart_wifi.c **** {
 2466              		.loc 1 841 0
 2467              		.cfi_startproc
 2468 0000 08B5     		push	{r3, lr}
 2469              		.cfi_def_cfa_offset 8
 2470              		.cfi_offset 3, -8
 2471              		.cfi_offset 14, -4
 842:.\uart_wifi.c **** 	 SendDataToWifi(CTL_ACK_DATA,HOST_E6_DATA,0,0);		
 2472              		.loc 1 842 0
 2473 0002 0020     		mov	r0, #0
 2474 0004 0249     		ldr	r1, .L190
 2475 0006 021C     		mov	r2, r0
 2476 0008 031C     		mov	r3, r0
 2477 000a FFF7FEFF 		bl	SendDataToWifi
 2478              	.LVL90:
 843:.\uart_wifi.c **** }
 2479              		.loc 1 843 0
 2480              		@ sp needed
 2481 000e 08BD     		pop	{r3, pc}
 2482              	.L191:
 2483              		.align	2
 2484              	.L190:
 2485 0010 F6900000 		.word	37110
 2486              		.cfi_endproc
 2487              	.LFE72:
ARM GAS  C:\Users\kevin\AppData\Local\Temp\ccrA27HJ.s 			page 62


 2488              		.size	Host_E6_Data, .-Host_E6_Data
 2489              		.section	.text.Host_E7_Data,"ax",%progbits
 2490              		.align	1
 2491              		.global	Host_E7_Data
 2492              		.code	16
 2493              		.thumb_func
 2494              		.type	Host_E7_Data, %function
 2495              	Host_E7_Data:
 2496              	.LFB73:
 844:.\uart_wifi.c **** void Host_E7_Data(void)
 845:.\uart_wifi.c **** {
 2497              		.loc 1 845 0
 2498              		.cfi_startproc
 2499 0000 08B5     		push	{r3, lr}
 2500              		.cfi_def_cfa_offset 8
 2501              		.cfi_offset 3, -8
 2502              		.cfi_offset 14, -4
 846:.\uart_wifi.c **** 	 SendDataToWifi(CTL_ACK_DATA,HOST_E7_DATA,0,0);		
 2503              		.loc 1 846 0
 2504 0002 0020     		mov	r0, #0
 2505 0004 0249     		ldr	r1, .L193
 2506 0006 021C     		mov	r2, r0
 2507 0008 031C     		mov	r3, r0
 2508 000a FFF7FEFF 		bl	SendDataToWifi
 2509              	.LVL91:
 847:.\uart_wifi.c **** }
 2510              		.loc 1 847 0
 2511              		@ sp needed
 2512 000e 08BD     		pop	{r3, pc}
 2513              	.L194:
 2514              		.align	2
 2515              	.L193:
 2516 0010 F7900000 		.word	37111
 2517              		.cfi_endproc
 2518              	.LFE73:
 2519              		.size	Host_E7_Data, .-Host_E7_Data
 2520              		.section	.text.Host_E8_Data,"ax",%progbits
 2521              		.align	1
 2522              		.global	Host_E8_Data
 2523              		.code	16
 2524              		.thumb_func
 2525              		.type	Host_E8_Data, %function
 2526              	Host_E8_Data:
 2527              	.LFB74:
 848:.\uart_wifi.c **** void Host_E8_Data(void)
 849:.\uart_wifi.c **** {
 2528              		.loc 1 849 0
 2529              		.cfi_startproc
 2530 0000 08B5     		push	{r3, lr}
 2531              		.cfi_def_cfa_offset 8
 2532              		.cfi_offset 3, -8
 2533              		.cfi_offset 14, -4
 850:.\uart_wifi.c **** 	 SendDataToWifi(CTL_ACK_DATA,HOST_E8_DATA,0,0);		
 2534              		.loc 1 850 0
 2535 0002 0020     		mov	r0, #0
 2536 0004 0249     		ldr	r1, .L196
 2537 0006 021C     		mov	r2, r0
ARM GAS  C:\Users\kevin\AppData\Local\Temp\ccrA27HJ.s 			page 63


 2538 0008 031C     		mov	r3, r0
 2539 000a FFF7FEFF 		bl	SendDataToWifi
 2540              	.LVL92:
 851:.\uart_wifi.c **** }
 2541              		.loc 1 851 0
 2542              		@ sp needed
 2543 000e 08BD     		pop	{r3, pc}
 2544              	.L197:
 2545              		.align	2
 2546              	.L196:
 2547 0010 F8900000 		.word	37112
 2548              		.cfi_endproc
 2549              	.LFE74:
 2550              		.size	Host_E8_Data, .-Host_E8_Data
 2551              		.section	.text.Host_E9_Data,"ax",%progbits
 2552              		.align	1
 2553              		.global	Host_E9_Data
 2554              		.code	16
 2555              		.thumb_func
 2556              		.type	Host_E9_Data, %function
 2557              	Host_E9_Data:
 2558              	.LFB75:
 852:.\uart_wifi.c **** void Host_E9_Data(void)
 853:.\uart_wifi.c **** {
 2559              		.loc 1 853 0
 2560              		.cfi_startproc
 2561 0000 08B5     		push	{r3, lr}
 2562              		.cfi_def_cfa_offset 8
 2563              		.cfi_offset 3, -8
 2564              		.cfi_offset 14, -4
 854:.\uart_wifi.c **** 	 SendDataToWifi(CTL_ACK_DATA,HOST_E9_DATA,0,0);		
 2565              		.loc 1 854 0
 2566 0002 0020     		mov	r0, #0
 2567 0004 0249     		ldr	r1, .L199
 2568 0006 021C     		mov	r2, r0
 2569 0008 031C     		mov	r3, r0
 2570 000a FFF7FEFF 		bl	SendDataToWifi
 2571              	.LVL93:
 855:.\uart_wifi.c **** }
 2572              		.loc 1 855 0
 2573              		@ sp needed
 2574 000e 08BD     		pop	{r3, pc}
 2575              	.L200:
 2576              		.align	2
 2577              	.L199:
 2578 0010 F9900000 		.word	37113
 2579              		.cfi_endproc
 2580              	.LFE75:
 2581              		.size	Host_E9_Data, .-Host_E9_Data
 2582              		.section	.text.Load_Command,"ax",%progbits
 2583              		.align	1
 2584              		.global	Load_Command
 2585              		.code	16
 2586              		.thumb_func
 2587              		.type	Load_Command, %function
 2588              	Load_Command:
 2589              	.LFB76:
ARM GAS  C:\Users\kevin\AppData\Local\Temp\ccrA27HJ.s 			page 64


 856:.\uart_wifi.c **** void Load_Command(uint16 icommand)
 857:.\uart_wifi.c **** { 
 2590              		.loc 1 857 0
 2591              		.cfi_startproc
 2592              	.LVL94:
 2593 0000 10B5     		push	{r4, lr}
 2594              		.cfi_def_cfa_offset 8
 2595              		.cfi_offset 4, -8
 2596              		.cfi_offset 14, -4
 858:.\uart_wifi.c **** 	if(Cmd_Function_Num<5) 
 2597              		.loc 1 858 0
 2598 0002 054A     		ldr	r2, .L203
 2599 0004 1378     		ldrb	r3, [r2]
 2600 0006 042B     		cmp	r3, #4
 2601 0008 04D8     		bhi	.L201
 859:.\uart_wifi.c **** 	{
 860:.\uart_wifi.c **** 		Cmd_Function_Buf[Cmd_Function_Num] = icommand;	
 2602              		.loc 1 860 0
 2603 000a 0449     		ldr	r1, .L203+4
 2604 000c 5C00     		lsl	r4, r3, #1
 861:.\uart_wifi.c **** 		Cmd_Function_Num++;
 2605              		.loc 1 861 0
 2606 000e 0133     		add	r3, r3, #1
 860:.\uart_wifi.c **** 		Cmd_Function_Buf[Cmd_Function_Num] = icommand;	
 2607              		.loc 1 860 0
 2608 0010 6052     		strh	r0, [r4, r1]
 2609              		.loc 1 861 0
 2610 0012 1370     		strb	r3, [r2]
 2611              	.L201:
 862:.\uart_wifi.c **** 	}
 863:.\uart_wifi.c **** 
 864:.\uart_wifi.c **** }
 2612              		.loc 1 864 0
 2613              		@ sp needed
 2614 0014 10BD     		pop	{r4, pc}
 2615              	.L204:
 2616 0016 C046     		.align	2
 2617              	.L203:
 2618 0018 00000000 		.word	Cmd_Function_Num
 2619 001c 00000000 		.word	Cmd_Function_Buf
 2620              		.cfi_endproc
 2621              	.LFE76:
 2622              		.size	Load_Command, .-Load_Command
 2623              		.section	.text.Load_Error,"ax",%progbits
 2624              		.align	1
 2625              		.global	Load_Error
 2626              		.code	16
 2627              		.thumb_func
 2628              		.type	Load_Error, %function
 2629              	Load_Error:
 2630              	.LFB77:
 865:.\uart_wifi.c **** void Load_Error(uint16 icommand)
 866:.\uart_wifi.c **** { 
 2631              		.loc 1 866 0
 2632              		.cfi_startproc
 2633              	.LVL95:
 2634 0000 10B5     		push	{r4, lr}
ARM GAS  C:\Users\kevin\AppData\Local\Temp\ccrA27HJ.s 			page 65


 2635              		.cfi_def_cfa_offset 8
 2636              		.cfi_offset 4, -8
 2637              		.cfi_offset 14, -4
 867:.\uart_wifi.c **** 	if(Error_Counter<8) 
 2638              		.loc 1 867 0
 2639 0002 054A     		ldr	r2, .L207
 2640 0004 1378     		ldrb	r3, [r2]
 2641 0006 072B     		cmp	r3, #7
 2642 0008 04D8     		bhi	.L205
 868:.\uart_wifi.c **** 	{
 869:.\uart_wifi.c **** 		Error_Data_Buf[Error_Counter] = icommand;	
 2643              		.loc 1 869 0
 2644 000a 0449     		ldr	r1, .L207+4
 2645 000c 5C00     		lsl	r4, r3, #1
 870:.\uart_wifi.c **** 		Error_Counter++;
 2646              		.loc 1 870 0
 2647 000e 0133     		add	r3, r3, #1
 869:.\uart_wifi.c **** 		Error_Data_Buf[Error_Counter] = icommand;	
 2648              		.loc 1 869 0
 2649 0010 6052     		strh	r0, [r4, r1]
 2650              		.loc 1 870 0
 2651 0012 1370     		strb	r3, [r2]
 2652              	.L205:
 871:.\uart_wifi.c **** 	}
 872:.\uart_wifi.c **** }
 2653              		.loc 1 872 0
 2654              		@ sp needed
 2655 0014 10BD     		pop	{r4, pc}
 2656              	.L208:
 2657 0016 C046     		.align	2
 2658              	.L207:
 2659 0018 00000000 		.word	Error_Counter
 2660 001c 00000000 		.word	Error_Data_Buf
 2661              		.cfi_endproc
 2662              	.LFE77:
 2663              		.size	Load_Error, .-Load_Error
 2664              		.section	.text.Uart_Exception_Handl,"ax",%progbits
 2665              		.align	1
 2666              		.global	Uart_Exception_Handl
 2667              		.code	16
 2668              		.thumb_func
 2669              		.type	Uart_Exception_Handl, %function
 2670              	Uart_Exception_Handl:
 2671              	.LFB78:
 873:.\uart_wifi.c **** /******************************************************************************
 874:.\uart_wifi.c **** * 函 数 名: Uart_Exception_Handl(void)
 875:.\uart_wifi.c **** * 函数功能: 完成超时重发等异常处理
 876:.\uart_wifi.c **** * 入口参数: 无
 877:.\uart_wifi.c **** * 返    回: 
 878:.\uart_wifi.c **** *******************************************************************************/
 879:.\uart_wifi.c **** void Uart_Exception_Handl(void)
 880:.\uart_wifi.c **** {
 2672              		.loc 1 880 0
 2673              		.cfi_startproc
 881:.\uart_wifi.c **** 	if(WifidatagramWorkFlag.uart_ack)
 2674              		.loc 1 881 0
 2675 0000 054B     		ldr	r3, .L214
ARM GAS  C:\Users\kevin\AppData\Local\Temp\ccrA27HJ.s 			page 66


 2676 0002 1A78     		ldrb	r2, [r3]
 2677 0004 5107     		lsl	r1, r2, #29
 2678 0006 06D5     		bpl	.L209
 882:.\uart_wifi.c **** 		{
 883:.\uart_wifi.c **** 		  if(Ack_Timer==0)
 2679              		.loc 1 883 0
 2680 0008 0449     		ldr	r1, .L214+4
 2681 000a 0978     		ldrb	r1, [r1]
 2682 000c 0029     		cmp	r1, #0
 2683 000e 02D1     		bne	.L209
 884:.\uart_wifi.c **** 				{
 885:.\uart_wifi.c **** 				 	WifidatagramWorkFlag.send_data_load= 1;
 2684              		.loc 1 885 0
 2685 0010 0121     		mov	r1, #1
 2686 0012 0A43     		orr	r2, r1
 2687 0014 1A70     		strb	r2, [r3]
 2688              	.L209:
 886:.\uart_wifi.c **** 				}
 887:.\uart_wifi.c **** 		} 
 888:.\uart_wifi.c **** }
 2689              		.loc 1 888 0
 2690              		@ sp needed
 2691 0016 7047     		bx	lr
 2692              	.L215:
 2693              		.align	2
 2694              	.L214:
 2695 0018 00000000 		.word	WifidatagramWorkFlag
 2696 001c 00000000 		.word	Ack_Timer
 2697              		.cfi_endproc
 2698              	.LFE78:
 2699              		.size	Uart_Exception_Handl, .-Uart_Exception_Handl
 2700              		.section	.text.Send_To_WifiUart,"ax",%progbits
 2701              		.align	1
 2702              		.global	Send_To_WifiUart
 2703              		.code	16
 2704              		.thumb_func
 2705              		.type	Send_To_WifiUart, %function
 2706              	Send_To_WifiUart:
 2707              	.LFB79:
 889:.\uart_wifi.c **** /******************************************************************************
 890:.\uart_wifi.c **** * 函 数 名: Send_Uart(void)
 891:.\uart_wifi.c **** * 函数功能: 串口发送程序
 892:.\uart_wifi.c **** * 入口参数: 无
 893:.\uart_wifi.c **** * 返    回: 
 894:.\uart_wifi.c **** *******************************************************************************/
 895:.\uart_wifi.c **** void Send_To_WifiUart(void)
 896:.\uart_wifi.c **** {
 2708              		.loc 1 896 0
 2709              		.cfi_startproc
 897:.\uart_wifi.c ****   uint8 i; 
 898:.\uart_wifi.c **** 	if((!WifidatagramWorkFlag.uart_ack)&&(!WifidatagramWorkFlag.flag_Uart_Work)&&(Send_Interval_Counte
 2710              		.loc 1 898 0
 2711 0000 334B     		ldr	r3, .L240
 2712 0002 0C22     		mov	r2, #12
 2713 0004 1978     		ldrb	r1, [r3]
 896:.\uart_wifi.c **** {
 2714              		.loc 1 896 0
ARM GAS  C:\Users\kevin\AppData\Local\Temp\ccrA27HJ.s 			page 67


 2715 0006 70B5     		push	{r4, r5, r6, lr}
 2716              		.cfi_def_cfa_offset 16
 2717              		.cfi_offset 4, -16
 2718              		.cfi_offset 5, -12
 2719              		.cfi_offset 6, -8
 2720              		.cfi_offset 14, -4
 2721              		.loc 1 898 0
 2722 0008 1142     		tst	r1, r2
 2723 000a 1ED1     		bne	.L217
 2724              		.loc 1 898 0 is_stmt 0 discriminator 1
 2725 000c 314A     		ldr	r2, .L240+4
 2726 000e 1278     		ldrb	r2, [r2]
 2727 0010 002A     		cmp	r2, #0
 2728 0012 1AD1     		bne	.L217
 899:.\uart_wifi.c **** 		{
 900:.\uart_wifi.c **** 			 if(Cmd_Function_Num>0)
 2729              		.loc 1 900 0 is_stmt 1
 2730 0014 304D     		ldr	r5, .L240+8
 2731 0016 2978     		ldrb	r1, [r5]
 2732 0018 0029     		cmp	r1, #0
 2733 001a 16D0     		beq	.L217
 901:.\uart_wifi.c **** 	  		 { 
 902:.\uart_wifi.c **** 	  		   Cmd_Function = Cmd_Function_Buf[0];
 2734              		.loc 1 902 0
 2735 001c 2F4C     		ldr	r4, .L240+12
 2736 001e 3048     		ldr	r0, .L240+16
 2737 0020 2688     		ldrh	r6, [r4]
 2738 0022 0680     		strh	r6, [r0]
 903:.\uart_wifi.c **** 	  			 Cmd_Function_Num--;
 2739              		.loc 1 903 0
 2740 0024 481E     		sub	r0, r1, #1
 2741 0026 C0B2     		uxtb	r0, r0
 2742 0028 2870     		strb	r0, [r5]
 904:.\uart_wifi.c **** 	  			 if(Cmd_Function_Num>0)
 2743              		.loc 1 904 0
 2744 002a 0028     		cmp	r0, #0
 2745 002c 04D1     		bne	.L220
 2746              	.L219:
 905:.\uart_wifi.c **** 	  			 {
 906:.\uart_wifi.c **** 	  				 for(i=0;i<=Cmd_Function_Num;i++)
 907:.\uart_wifi.c **** 	  				 {
 908:.\uart_wifi.c **** 	  				     Cmd_Function_Buf[i] = Cmd_Function_Buf[i+1];	
 909:.\uart_wifi.c **** 	  				 }
 910:.\uart_wifi.c **** 	  			 }
 911:.\uart_wifi.c **** 	  			 WifidatagramWorkFlag.send_data_load = 1;		 	     
 2747              		.loc 1 911 0
 2748 002e 1A78     		ldrb	r2, [r3]
 2749 0030 0121     		mov	r1, #1
 2750 0032 0A43     		orr	r2, r1
 2751 0034 1A70     		strb	r2, [r3]
 2752 0036 08E0     		b	.L217
 2753              	.L220:
 2754              	.LVL96:
 908:.\uart_wifi.c **** 	  				     Cmd_Function_Buf[i] = Cmd_Function_Buf[i+1];	
 2755              		.loc 1 908 0 discriminator 2
 2756 0038 501C     		add	r0, r2, #1
 2757 003a 4500     		lsl	r5, r0, #1
ARM GAS  C:\Users\kevin\AppData\Local\Temp\ccrA27HJ.s 			page 68


 2758 003c 655B     		ldrh	r5, [r4, r5]
 2759 003e 5200     		lsl	r2, r2, #1
 2760              	.LVL97:
 2761 0040 A552     		strh	r5, [r4, r2]
 906:.\uart_wifi.c **** 	  				 for(i=0;i<=Cmd_Function_Num;i++)
 2762              		.loc 1 906 0 discriminator 2
 2763 0042 C2B2     		uxtb	r2, r0
 2764              	.LVL98:
 2765 0044 8A42     		cmp	r2, r1
 2766 0046 F7D1     		bne	.L220
 2767 0048 F1E7     		b	.L219
 2768              	.LVL99:
 2769              	.L217:
 912:.\uart_wifi.c **** 	  		 }
 913:.\uart_wifi.c **** 		}
 914:.\uart_wifi.c ****  	if(WifidatagramWorkFlag.send_data_load)
 2770              		.loc 1 914 0
 2771 004a 1A78     		ldrb	r2, [r3]
 2772 004c D107     		lsl	r1, r2, #31
 2773 004e 3DD5     		bpl	.L216
 915:.\uart_wifi.c **** 	 {
 916:.\uart_wifi.c **** 	   WifidatagramWorkFlag.send_data_load = 0;
 2774              		.loc 1 916 0
 2775 0050 0121     		mov	r1, #1
 2776 0052 8A43     		bic	r2, r1
 2777 0054 1A70     		strb	r2, [r3]
 917:.\uart_wifi.c **** 		 switch(Cmd_Function)
 2778              		.loc 1 917 0
 2779 0056 224B     		ldr	r3, .L240+16
 2780 0058 224A     		ldr	r2, .L240+20
 2781 005a 1B88     		ldrh	r3, [r3]
 2782 005c 9342     		cmp	r3, r2
 2783 005e 33D0     		beq	.L222
 2784 0060 13D8     		bhi	.L223
 2785 0062 9022     		mov	r2, #144
 2786 0064 1202     		lsl	r2, r2, #8
 2787 0066 9342     		cmp	r3, r2
 2788 0068 28D0     		beq	.L224
 2789 006a 05D8     		bhi	.L225
 2790 006c 1E4A     		ldr	r2, .L240+24
 2791 006e 9342     		cmp	r3, r2
 2792 0070 2CD1     		bne	.L216
 918:.\uart_wifi.c **** 		 {
 919:.\uart_wifi.c **** 			//发送握手信号
 920:.\uart_wifi.c **** 			case	MCU_HANDSHAKE_DATA:
 921:.\uart_wifi.c **** 				    Mcu_Handshake_Data();
 922:.\uart_wifi.c **** 				    break;
 923:.\uart_wifi.c **** 			//启动Smarklink
 924:.\uart_wifi.c **** 			case	MCU_POWERONSMARTLINK_DATA:	 				     
 925:.\uart_wifi.c **** 				    Mcu_Poweronsmartlink_Data();	     
 926:.\uart_wifi.c **** 			 	    break;
 927:.\uart_wifi.c **** 			case	MCU_FIRMWARE_UPDATE:  //设备要求固件升级
 928:.\uart_wifi.c **** 						Mcu_Firmware_Update();
 929:.\uart_wifi.c **** 			 			break;	 	
 930:.\uart_wifi.c **** 			case	HOST_STATE_DATA:
 931:.\uart_wifi.c **** 						Host_State_Data();	
 932:.\uart_wifi.c **** 						break;		
ARM GAS  C:\Users\kevin\AppData\Local\Temp\ccrA27HJ.s 			page 69


 933:.\uart_wifi.c **** 			case	HOST_FILTER_CHANGED_DATA:
 934:.\uart_wifi.c **** 						Host_Filter_Changed_Data();	
 935:.\uart_wifi.c **** 						break;	
 936:.\uart_wifi.c **** 			case	HOST_FILTER_USED_TIME_DATA:
 937:.\uart_wifi.c **** 						Host_Filter_Used_Time_Data();	
 938:.\uart_wifi.c **** 						break;
 939:.\uart_wifi.c **** 			case	MCU_CLEARALLUSERBOUND_DATA:
 940:.\uart_wifi.c **** 						Clean_All_User_Bound();
 2793              		.loc 1 940 0
 2794 0072 FFF7FEFF 		bl	Clean_All_User_Bound
 2795              	.LVL100:
 941:.\uart_wifi.c **** 						break;	
 2796              		.loc 1 941 0
 2797 0076 29E0     		b	.L216
 2798              	.L225:
 917:.\uart_wifi.c **** 		 switch(Cmd_Function)
 2799              		.loc 1 917 0
 2800 0078 1C4A     		ldr	r2, .L240+28
 2801 007a 9342     		cmp	r3, r2
 2802 007c 21D0     		beq	.L227
 2803 007e 1C4A     		ldr	r2, .L240+32
 2804 0080 9342     		cmp	r3, r2
 2805 0082 23D1     		bne	.L216
 937:.\uart_wifi.c **** 						Host_Filter_Used_Time_Data();	
 2806              		.loc 1 937 0
 2807 0084 FFF7FEFF 		bl	Host_Filter_Used_Time_Data
 2808              	.LVL101:
 938:.\uart_wifi.c **** 						break;
 2809              		.loc 1 938 0
 2810 0088 20E0     		b	.L216
 2811              	.L223:
 917:.\uart_wifi.c **** 		 switch(Cmd_Function)
 2812              		.loc 1 917 0
 2813 008a 1A4A     		ldr	r2, .L240+36
 2814 008c 9342     		cmp	r3, r2
 2815 008e 0FD0     		beq	.L229
 2816 0090 05D8     		bhi	.L230
 2817 0092 194A     		ldr	r2, .L240+40
 2818 0094 9342     		cmp	r3, r2
 2819 0096 19D1     		bne	.L216
 942:.\uart_wifi.c **** 			case HOST_E0_DATA:
 943:.\uart_wifi.c **** 			  	Host_E0_Data();			      
 944:.\uart_wifi.c **** 				  break;
 945:.\uart_wifi.c **** 			case HOST_E9_DATA:
 946:.\uart_wifi.c **** 			  	Host_E9_Data();			      
 2820              		.loc 1 946 0
 2821 0098 FFF7FEFF 		bl	Host_E9_Data
 2822              	.LVL102:
 947:.\uart_wifi.c **** 				  break;
 2823              		.loc 1 947 0
 2824 009c 16E0     		b	.L216
 2825              	.L230:
 917:.\uart_wifi.c **** 		 switch(Cmd_Function)
 2826              		.loc 1 917 0
 2827 009e 174A     		ldr	r2, .L240+44
 2828 00a0 9342     		cmp	r3, r2
 2829 00a2 08D0     		beq	.L232
ARM GAS  C:\Users\kevin\AppData\Local\Temp\ccrA27HJ.s 			page 70


 2830 00a4 164A     		ldr	r2, .L240+48
 2831 00a6 9342     		cmp	r3, r2
 2832 00a8 10D1     		bne	.L216
 928:.\uart_wifi.c **** 						Mcu_Firmware_Update();
 2833              		.loc 1 928 0
 2834 00aa FFF7FEFF 		bl	Mcu_Firmware_Update
 2835              	.LVL103:
 929:.\uart_wifi.c **** 			 			break;	 	
 2836              		.loc 1 929 0
 2837 00ae 0DE0     		b	.L216
 2838              	.L229:
 921:.\uart_wifi.c **** 				    Mcu_Handshake_Data();
 2839              		.loc 1 921 0
 2840 00b0 FFF7FEFF 		bl	Mcu_Handshake_Data
 2841              	.LVL104:
 922:.\uart_wifi.c **** 				    break;
 2842              		.loc 1 922 0
 2843 00b4 0AE0     		b	.L216
 2844              	.L232:
 925:.\uart_wifi.c **** 				    Mcu_Poweronsmartlink_Data();	     
 2845              		.loc 1 925 0
 2846 00b6 FFF7FEFF 		bl	Mcu_Poweronsmartlink_Data
 2847              	.LVL105:
 926:.\uart_wifi.c **** 			 	    break;
 2848              		.loc 1 926 0
 2849 00ba 07E0     		b	.L216
 2850              	.L224:
 931:.\uart_wifi.c **** 						Host_State_Data();	
 2851              		.loc 1 931 0
 2852 00bc FFF7FEFF 		bl	Host_State_Data
 2853              	.LVL106:
 932:.\uart_wifi.c **** 						break;		
 2854              		.loc 1 932 0
 2855 00c0 04E0     		b	.L216
 2856              	.L227:
 934:.\uart_wifi.c **** 						Host_Filter_Changed_Data();	
 2857              		.loc 1 934 0
 2858 00c2 FFF7FEFF 		bl	Host_Filter_Changed_Data
 2859              	.LVL107:
 935:.\uart_wifi.c **** 						break;	
 2860              		.loc 1 935 0
 2861 00c6 01E0     		b	.L216
 2862              	.L222:
 943:.\uart_wifi.c **** 			  	Host_E0_Data();			      
 2863              		.loc 1 943 0
 2864 00c8 FFF7FEFF 		bl	Host_E0_Data
 2865              	.LVL108:
 2866              	.L216:
 948:.\uart_wifi.c **** 			default:			 		 
 949:.\uart_wifi.c **** 				   break;
 950:.\uart_wifi.c **** 		 }		 		  
 951:.\uart_wifi.c **** 	 } 		 					
 952:.\uart_wifi.c **** }
 2867              		.loc 1 952 0
 2868              		@ sp needed
 2869 00cc 70BD     		pop	{r4, r5, r6, pc}
 2870              	.L241:
ARM GAS  C:\Users\kevin\AppData\Local\Temp\ccrA27HJ.s 			page 71


 2871 00ce C046     		.align	2
 2872              	.L240:
 2873 00d0 00000000 		.word	WifidatagramWorkFlag
 2874 00d4 00000000 		.word	Send_Interval_Counter
 2875 00d8 00000000 		.word	Cmd_Function_Num
 2876 00dc 00000000 		.word	Cmd_Function_Buf
 2877 00e0 00000000 		.word	Cmd_Function
 2878 00e4 F0900000 		.word	37104
 2879 00e8 01600000 		.word	24577
 2880 00ec 01900000 		.word	36865
 2881 00f0 02900000 		.word	36866
 2882 00f4 C0CC0000 		.word	52416
 2883 00f8 F9900000 		.word	37113
 2884 00fc C2CC0000 		.word	52418
 2885 0100 C5CC0000 		.word	52421
 2886              		.cfi_endproc
 2887              	.LFE79:
 2888              		.size	Send_To_WifiUart, .-Send_To_WifiUart
 2889              		.section	.text.Process_From_Wifi_Ctl_Ack_Data,"ax",%progbits
 2890              		.align	1
 2891              		.global	Process_From_Wifi_Ctl_Ack_Data
 2892              		.code	16
 2893              		.thumb_func
 2894              		.type	Process_From_Wifi_Ctl_Ack_Data, %function
 2895              	Process_From_Wifi_Ctl_Ack_Data:
 2896              	.LFB80:
 953:.\uart_wifi.c **** 
 954:.\uart_wifi.c **** 
 955:.\uart_wifi.c **** 
 956:.\uart_wifi.c **** 
 957:.\uart_wifi.c **** 
 958:.\uart_wifi.c **** 
 959:.\uart_wifi.c **** 
 960:.\uart_wifi.c **** /******************************************************************************
 961:.\uart_wifi.c **** * 函 数 名: void Process_From_Wifi_Ctl_Ack_Data(void)
 962:.\uart_wifi.c **** * 函数功能: app、服务器控制数据
 963:.\uart_wifi.c **** * 入口参数: 无
 964:.\uart_wifi.c **** * 返    回: 
 965:.\uart_wifi.c **** *******************************************************************************/
 966:.\uart_wifi.c **** void Process_From_Wifi_Ctl_Ack_Data(void)
 967:.\uart_wifi.c **** {
 2897              		.loc 1 967 0
 2898              		.cfi_startproc
 968:.\uart_wifi.c **** 	 if((WifiWorkFlag.gcReceComm1OK)&&(giWIFIDATALength<=(WIFIBUFLEN-10-1))) 
 2899              		.loc 1 968 0
 2900 0000 614B     		ldr	r3, .L267
 967:.\uart_wifi.c **** {
 2901              		.loc 1 967 0
 2902 0002 70B5     		push	{r4, r5, r6, lr}
 2903              		.cfi_def_cfa_offset 16
 2904              		.cfi_offset 4, -16
 2905              		.cfi_offset 5, -12
 2906              		.cfi_offset 6, -8
 2907              		.cfi_offset 14, -4
 2908              		.loc 1 968 0
 2909 0004 1A78     		ldrb	r2, [r3]
 2910 0006 5107     		lsl	r1, r2, #29
ARM GAS  C:\Users\kevin\AppData\Local\Temp\ccrA27HJ.s 			page 72


 2911 0008 00D4     		bmi	.LCB2378
 2912 000a BBE0     		b	.L242	@long jump
 2913              	.LCB2378:
 2914              		.loc 1 968 0 is_stmt 0 discriminator 1
 2915 000c 5F49     		ldr	r1, .L267+4
 2916 000e 0E88     		ldrh	r6, [r1]
 2917 0010 592E     		cmp	r6, #89
 2918 0012 00D9     		bls	.LCB2382
 2919 0014 B6E0     		b	.L242	@long jump
 2920              	.LCB2382:
 969:.\uart_wifi.c **** 	 {
 970:.\uart_wifi.c **** 	   WifiWorkFlag.gcReceComm1OK =0;
 971:.\uart_wifi.c **** 		 if(ATReceBuffer[0].gcATReceData[10+giWIFIDATALength]==Sum_Make_Verify (&ATReceBuffer[0].gcATRece
 2921              		.loc 1 971 0 is_stmt 1
 2922 0016 5E4C     		ldr	r4, .L267+8
 2923 0018 311C     		mov	r1, r6
 970:.\uart_wifi.c **** 	   WifiWorkFlag.gcReceComm1OK =0;
 2924              		.loc 1 970 0
 2925 001a 0425     		mov	r5, #4
 2926              		.loc 1 971 0
 2927 001c 0A31     		add	r1, r1, #10
 970:.\uart_wifi.c **** 	   WifiWorkFlag.gcReceComm1OK =0;
 2928              		.loc 1 970 0
 2929 001e AA43     		bic	r2, r5
 2930              		.loc 1 971 0
 2931 0020 89B2     		uxth	r1, r1
 2932 0022 201C     		mov	r0, r4
 970:.\uart_wifi.c **** 	   WifiWorkFlag.gcReceComm1OK =0;
 2933              		.loc 1 970 0
 2934 0024 1A70     		strb	r2, [r3]
 2935              		.loc 1 971 0
 2936 0026 FFF7FEFF 		bl	Sum_Make_Verify
 2937              	.LVL109:
 2938 002a A619     		add	r6, r4, r6
 2939 002c B37A     		ldrb	r3, [r6, #10]
 2940 002e 8342     		cmp	r3, r0
 2941 0030 00D0     		beq	.LCB2396
 2942 0032 A7E0     		b	.L242	@long jump
 2943              	.LCB2396:
 972:.\uart_wifi.c **** 		 {
 973:.\uart_wifi.c **** 
 974:.\uart_wifi.c **** 			 switch(giWIFICommand)
 2944              		.loc 1 974 0
 2945 0034 574B     		ldr	r3, .L267+12
 2946 0036 1B88     		ldrh	r3, [r3]
 2947 0038 B22B     		cmp	r3, #178
 2948 003a 58D0     		beq	.L246
 2949 003c 1BD8     		bhi	.L247
 2950 003e A22B     		cmp	r3, #162
 2951 0040 5ED0     		beq	.L248
 2952 0042 0ED8     		bhi	.L249
 2953 0044 A02B     		cmp	r3, #160
 2954 0046 00D1     		bne	.LCB2408
 2955 0048 94E0     		b	.L250	@long jump
 2956              	.LCB2408:
 2957 004a A12B     		cmp	r3, #161
 2958 004c 00D0     		beq	.LCB2410
ARM GAS  C:\Users\kevin\AppData\Local\Temp\ccrA27HJ.s 			page 73


 2959 004e 99E0     		b	.L242	@long jump
 2960              	.LCB2410:
 975:.\uart_wifi.c **** 			 {
 976:.\uart_wifi.c **** 			 	case 	WIFI_SENDDINGSTATE_DATA:			
 977:.\uart_wifi.c **** 			 				SmarkLink_State = ATReceBuffer[0].gcATReceData[10];         //获取当前状态
 978:.\uart_wifi.c ****               if((WIFI_SENDDINGSTATE_DATA_LINK_SERVER==SmarkLink_State)&&(Power_Buzfkg==0))	
 979:.\uart_wifi.c ****               	{
 980:.\uart_wifi.c ****               		Power_Buzfkg=1;								
 981:.\uart_wifi.c ****                 	BUZfkg=1;
 982:.\uart_wifi.c ****                 }
 983:.\uart_wifi.c **** 			 				Wifi_Senddingstate_Data();  		 				  					  					  					  					  					  					  				  					 
 984:.\uart_wifi.c **** 					  	break;
 985:.\uart_wifi.c **** 				case 	WIFI_FIRMWARE_UPDATE_DATA:	
 986:.\uart_wifi.c **** 							Wifi_Firmware_Update_Data(); 
 987:.\uart_wifi.c **** 							break;
 988:.\uart_wifi.c **** 				case 	WIFI_DECT_DATA:
 989:.\uart_wifi.c **** 							Wifi_Dect_Data();  	
 990:.\uart_wifi.c **** 							break;		
 991:.\uart_wifi.c **** 				case 	WIFI_FIRMWARE_HANDSHAKE_DATA:
 992:.\uart_wifi.c **** 							if(ATReceBuffer[0].gcATReceData[10]>Firmware_Version);         //获取当前状态
 993:.\uart_wifi.c **** 								{
 994:.\uart_wifi.c **** 									Firmware_Version=ATReceBuffer[0].gcATReceData[10];
 995:.\uart_wifi.c **** 									Firmware_Update=0xfe;
 996:.\uart_wifi.c **** 								}
 997:.\uart_wifi.c **** 							CyGlobalIntDisable;
 998:.\uart_wifi.c **** 			 				write();
 999:.\uart_wifi.c **** 			 				write1();  
1000:.\uart_wifi.c **** 			 				CyGlobalIntEnable;								
1001:.\uart_wifi.c **** 							Wifi_Firmware_Handshake_Data();
1002:.\uart_wifi.c **** 							firmwave_update_fig=1;
1003:.\uart_wifi.c **** 
1004:.\uart_wifi.c **** 							break; 									
1005:.\uart_wifi.c **** 			 	case  APP_HOST_STATE://APP查询设备工作状态指令	APP查询设备工作状态指令
1006:.\uart_wifi.c **** 			 				App_Host_State(); 
1007:.\uart_wifi.c **** 			 		 		break;	
1008:.\uart_wifi.c **** 				case  APP_FILTER_CHANGED_DATA: 						//0x00B2 //查询本机滤芯使用次数（n级）
1009:.\uart_wifi.c **** 							App_Filter_Changed_Data(); 
1010:.\uart_wifi.c **** 			 		 		break;
1011:.\uart_wifi.c **** 				case  APP_ERROR_DATA: 											//0x00B4 //查询本机故障信息
1012:.\uart_wifi.c **** 							App_Error_Data(); 
1013:.\uart_wifi.c **** 			 		 		break;
1014:.\uart_wifi.c **** 				case  APP_FILTER_USED_TIME_DATA: 					//0x00B3 //查询本机滤芯使用时间（n级）		 		
1015:.\uart_wifi.c **** 			 				App_Filter_Used_Time_Data();
1016:.\uart_wifi.c **** 			 		 		break;
1017:.\uart_wifi.c **** 			 	case  APP_SEARCH_FILTER_MANAGE_NUM:	//查询本机滤芯管理方案号
1018:.\uart_wifi.c **** 			 				App_Search_Filter_Manage_Num(); 	
1019:.\uart_wifi.c **** 			 		 		break;
1020:.\uart_wifi.c **** 			 	case  APP_DOWNLOAD_FILTER_MANAGE_NUM:	//下载本机滤芯管理方案号
1021:.\uart_wifi.c **** 			 				Filter_Full_Data_Buf[0]= ATReceBuffer[0].gcATReceData[11]; 
1022:.\uart_wifi.c **** 			 				Filter_Full_Data_Buf[0]= (Filter_Full_Data_Buf[0]<<8)+ATReceBuffer[0].gcATReceData[12];
1023:.\uart_wifi.c **** 			 				Filter_Full_Data_Buf[1]= ATReceBuffer[0].gcATReceData[13]; 
1024:.\uart_wifi.c **** 			 				Filter_Full_Data_Buf[1]= (Filter_Full_Data_Buf[1]<<8)+ATReceBuffer[0].gcATReceData[14];
1025:.\uart_wifi.c **** 			 				Filter_Full_Data_Buf[2]= ATReceBuffer[0].gcATReceData[15]; 
1026:.\uart_wifi.c **** 			 				Filter_Full_Data_Buf[2]= (Filter_Full_Data_Buf[2]<<8)+ATReceBuffer[0].gcATReceData[16];
1027:.\uart_wifi.c **** 			 				Filter_Full_Data_Buf[3]= ATReceBuffer[0].gcATReceData[17]; 
1028:.\uart_wifi.c **** 			 				Filter_Full_Data_Buf[3]= (Filter_Full_Data_Buf[3]<<8)+ATReceBuffer[0].gcATReceData[18]; 
1029:.\uart_wifi.c **** 			 				Filter_Full_Data_Buf[4]= ATReceBuffer[0].gcATReceData[19]; 
ARM GAS  C:\Users\kevin\AppData\Local\Temp\ccrA27HJ.s 			page 74


1030:.\uart_wifi.c **** 			 				Filter_Full_Data_Buf[4]= (Filter_Full_Data_Buf[4]<<8)+ATReceBuffer[0].gcATReceData[20]; 
1031:.\uart_wifi.c **** 			 				Filter_Full_Data_Buf[5]= ATReceBuffer[0].gcATReceData[21]; 
1032:.\uart_wifi.c **** 			 				Filter_Full_Data_Buf[5]= (Filter_Full_Data_Buf[5]<<8)+ATReceBuffer[0].gcATReceData[22];
1033:.\uart_wifi.c **** 							CyGlobalIntDisable;
1034:.\uart_wifi.c **** 			 				write(); 
1035:.\uart_wifi.c **** 			 				CyGlobalIntEnable;
1036:.\uart_wifi.c **** 			 				App_Download_Filter_Manage_Num(); 		 				 		
1037:.\uart_wifi.c **** 			 		 		break;
1038:.\uart_wifi.c **** 			 	case  APP_DOWNLOAD_FILTER_RESET_DATA:	//下载本机滤芯管理方案号
1039:.\uart_wifi.c ****                             BUZfkg=1;
1040:.\uart_wifi.c **** 
1041:.\uart_wifi.c **** 			 				Filter_Reset_Data_Buf= ATReceBuffer[0].gcATReceData[10];
1042:.\uart_wifi.c **** 			 				F_Filter_Reset_Data_Buf=1; 
1043:.\uart_wifi.c **** 			 				App_Download_Filter_Reset_Data(); 		 				 		
1044:.\uart_wifi.c **** 			 		 		break;	 		
1045:.\uart_wifi.c **** 			 	case  APP_DOWNLOAD_NB_STA:	//远程开机功能
1046:.\uart_wifi.c **** 			 				if(ATReceBuffer[0].gcATReceData[10]==1)
1047:.\uart_wifi.c **** 			 					NBfig=1;//1为北
1048:.\uart_wifi.c **** 			 				else
1049:.\uart_wifi.c **** 			 					NBfig=0;//0为南			 					
1050:.\uart_wifi.c **** 			 		 		App_Download_Nb_Sta();			 		 
1051:.\uart_wifi.c **** 			 		 		break;
1052:.\uart_wifi.c **** 			 	case  APP_POWERON:	//远程开机功能
1053:.\uart_wifi.c **** 			 				WorkFlag.poweroff=0;
1054:.\uart_wifi.c **** 			 				WorkFlag.poweron=1;
1055:.\uart_wifi.c **** 			 				App_Poweron(); 
1056:.\uart_wifi.c **** 			 		 		break;
1057:.\uart_wifi.c **** 			 	case  APP_POWEROFF:	//远程关机功能	
1058:.\uart_wifi.c **** 			 				WorkFlag.poweroff=1;
 2961              		.loc 1 1058 0
 2962 0050 514B     		ldr	r3, .L267+16
 2963 0052 5A78     		ldrb	r2, [r3, #1]
1059:.\uart_wifi.c **** 			 				WorkFlag.poweron=0;
 2964              		.loc 1 1059 0
 2965 0054 1543     		orr	r5, r2
 2966 0056 0222     		mov	r2, #2
 2967 0058 9543     		bic	r5, r2
 2968 005a 5D70     		strb	r5, [r3, #1]
1060:.\uart_wifi.c **** 							App_Poweroff();
 2969              		.loc 1 1060 0
 2970 005c FFF7FEFF 		bl	App_Poweroff
 2971              	.LVL110:
1061:.\uart_wifi.c **** 			 		 		break;
 2972              		.loc 1 1061 0
 2973 0060 90E0     		b	.L242
 2974              	.L249:
 974:.\uart_wifi.c **** 			 switch(giWIFICommand)
 2975              		.loc 1 974 0
 2976 0062 A42B     		cmp	r3, #164
 2977 0064 72D0     		beq	.L252
 2978 0066 00D2     		bcs	.LCB2428
 2979 0068 7BE0     		b	.L253	@long jump
 2980              	.LCB2428:
 2981 006a B12B     		cmp	r3, #177
 2982 006c 00D0     		beq	.LCB2430
 2983 006e 89E0     		b	.L242	@long jump
 2984              	.LCB2430:
ARM GAS  C:\Users\kevin\AppData\Local\Temp\ccrA27HJ.s 			page 75


1018:.\uart_wifi.c **** 			 				App_Search_Filter_Manage_Num(); 	
 2985              		.loc 1 1018 0
 2986 0070 FFF7FEFF 		bl	App_Search_Filter_Manage_Num
 2987              	.LVL111:
1019:.\uart_wifi.c **** 			 		 		break;
 2988              		.loc 1 1019 0
 2989 0074 86E0     		b	.L242
 2990              	.L247:
 974:.\uart_wifi.c **** 			 switch(giWIFICommand)
 2991              		.loc 1 974 0
 2992 0076 494A     		ldr	r2, .L267+20
 2993 0078 9342     		cmp	r3, r2
 2994 007a 13D0     		beq	.L255
 2995 007c 08D8     		bhi	.L256
 2996 007e B42B     		cmp	r3, #180
 2997 0080 38D0     		beq	.L257
 2998 0082 3AD3     		bcc	.L258
 2999 0084 B52B     		cmp	r3, #181
 3000 0086 00D0     		beq	.LCB2447
 3001 0088 7CE0     		b	.L242	@long jump
 3002              	.LCB2447:
1009:.\uart_wifi.c **** 							App_Filter_Changed_Data(); 
 3003              		.loc 1 1009 0
 3004 008a FFF7FEFF 		bl	App_Filter_Changed_Data
 3005              	.LVL112:
1010:.\uart_wifi.c **** 			 		 		break;
 3006              		.loc 1 1010 0
 3007 008e 79E0     		b	.L242
 3008              	.L256:
 974:.\uart_wifi.c **** 			 switch(giWIFICommand)
 3009              		.loc 1 974 0
 3010 0090 434A     		ldr	r2, .L267+24
 3011 0092 9342     		cmp	r3, r2
 3012 0094 16D0     		beq	.L260
 3013 0096 18D3     		bcc	.L261
 3014 0098 424A     		ldr	r2, .L267+28
 3015 009a 9342     		cmp	r3, r2
 3016 009c 72D1     		bne	.L242
 989:.\uart_wifi.c **** 							Wifi_Dect_Data();  	
 3017              		.loc 1 989 0
 3018 009e FFF7FEFF 		bl	Wifi_Dect_Data
 3019              	.LVL113:
 990:.\uart_wifi.c **** 							break;		
 3020              		.loc 1 990 0
 3021 00a2 6FE0     		b	.L242
 3022              	.L255:
 977:.\uart_wifi.c **** 			 				SmarkLink_State = ATReceBuffer[0].gcATReceData[10];         //获取当前状态
 3023              		.loc 1 977 0
 3024 00a4 A37A     		ldrb	r3, [r4, #10]
 3025 00a6 404A     		ldr	r2, .L267+32
 3026 00a8 1370     		strb	r3, [r2]
 978:.\uart_wifi.c ****               if((WIFI_SENDDINGSTATE_DATA_LINK_SERVER==SmarkLink_State)&&(Power_Buzfkg==0))	
 3027              		.loc 1 978 0
 3028 00aa 032B     		cmp	r3, #3
 3029 00ac 07D1     		bne	.L263
 978:.\uart_wifi.c ****               if((WIFI_SENDDINGSTATE_DATA_LINK_SERVER==SmarkLink_State)&&(Power_Buzfkg==0))	
 3030              		.loc 1 978 0 is_stmt 0 discriminator 1
ARM GAS  C:\Users\kevin\AppData\Local\Temp\ccrA27HJ.s 			page 76


 3031 00ae 3F4A     		ldr	r2, .L267+36
 3032 00b0 1378     		ldrb	r3, [r2]
 3033 00b2 002B     		cmp	r3, #0
 3034 00b4 03D1     		bne	.L263
 980:.\uart_wifi.c ****               		Power_Buzfkg=1;								
 3035              		.loc 1 980 0 is_stmt 1
 3036 00b6 0123     		mov	r3, #1
 3037 00b8 1370     		strb	r3, [r2]
 981:.\uart_wifi.c ****                 	BUZfkg=1;
 3038              		.loc 1 981 0
 3039 00ba 3D4A     		ldr	r2, .L267+40
 3040 00bc 1370     		strb	r3, [r2]
 3041              	.L263:
 983:.\uart_wifi.c **** 			 				Wifi_Senddingstate_Data();  		 				  					  					  					  					  					  					  				  					 
 3042              		.loc 1 983 0
 3043 00be FFF7FEFF 		bl	Wifi_Senddingstate_Data
 3044              	.LVL114:
 984:.\uart_wifi.c **** 					  	break;
 3045              		.loc 1 984 0
 3046 00c2 5FE0     		b	.L242
 3047              	.L260:
 986:.\uart_wifi.c **** 							Wifi_Firmware_Update_Data(); 
 3048              		.loc 1 986 0
 3049 00c4 FFF7FEFF 		bl	Wifi_Firmware_Update_Data
 3050              	.LVL115:
 987:.\uart_wifi.c **** 							break;
 3051              		.loc 1 987 0
 3052 00c8 5CE0     		b	.L242
 3053              	.L261:
 994:.\uart_wifi.c **** 									Firmware_Version=ATReceBuffer[0].gcATReceData[10];
 3054              		.loc 1 994 0
 3055 00ca A27A     		ldrb	r2, [r4, #10]
 3056 00cc 394B     		ldr	r3, .L267+44
 3057 00ce 1A70     		strb	r2, [r3]
 995:.\uart_wifi.c **** 									Firmware_Update=0xfe;
 3058              		.loc 1 995 0
 3059 00d0 394B     		ldr	r3, .L267+48
 3060 00d2 FE22     		mov	r2, #254
 3061 00d4 1A70     		strb	r2, [r3]
 997:.\uart_wifi.c **** 							CyGlobalIntDisable;
 3062              		.loc 1 997 0
 3063              	@ 997 ".\uart_wifi.c" 1
 3064 00d6 72B6     		CPSID   i
 3065              	@ 0 "" 2
 998:.\uart_wifi.c **** 			 				write();
 3066              		.loc 1 998 0
 3067              		.code	16
 3068 00d8 FFF7FEFF 		bl	write
 3069              	.LVL116:
 999:.\uart_wifi.c **** 			 				write1();  
 3070              		.loc 1 999 0
 3071 00dc FFF7FEFF 		bl	write1
 3072              	.LVL117:
1000:.\uart_wifi.c **** 			 				CyGlobalIntEnable;								
 3073              		.loc 1 1000 0
 3074              	@ 1000 ".\uart_wifi.c" 1
 3075 00e0 62B6     		CPSIE   i
ARM GAS  C:\Users\kevin\AppData\Local\Temp\ccrA27HJ.s 			page 77


 3076              	@ 0 "" 2
1001:.\uart_wifi.c **** 							Wifi_Firmware_Handshake_Data();
 3077              		.loc 1 1001 0
 3078              		.code	16
 3079 00e2 FFF7FEFF 		bl	Wifi_Firmware_Handshake_Data
 3080              	.LVL118:
1002:.\uart_wifi.c **** 							firmwave_update_fig=1;
 3081              		.loc 1 1002 0
 3082 00e6 354B     		ldr	r3, .L267+52
 3083 00e8 0122     		mov	r2, #1
 3084 00ea 1A70     		strb	r2, [r3]
1004:.\uart_wifi.c **** 							break; 									
 3085              		.loc 1 1004 0
 3086 00ec 4AE0     		b	.L242
 3087              	.L246:
1006:.\uart_wifi.c **** 			 				App_Host_State(); 
 3088              		.loc 1 1006 0
 3089 00ee FFF7FEFF 		bl	App_Host_State
 3090              	.LVL119:
1007:.\uart_wifi.c **** 			 		 		break;	
 3091              		.loc 1 1007 0
 3092 00f2 47E0     		b	.L242
 3093              	.L257:
1012:.\uart_wifi.c **** 							App_Error_Data(); 
 3094              		.loc 1 1012 0
 3095 00f4 FFF7FEFF 		bl	App_Error_Data
 3096              	.LVL120:
1013:.\uart_wifi.c **** 			 		 		break;
 3097              		.loc 1 1013 0
 3098 00f8 44E0     		b	.L242
 3099              	.L258:
1015:.\uart_wifi.c **** 			 				App_Filter_Used_Time_Data();
 3100              		.loc 1 1015 0
 3101 00fa FFF7FEFF 		bl	App_Filter_Used_Time_Data
 3102              	.LVL121:
1016:.\uart_wifi.c **** 			 		 		break;
 3103              		.loc 1 1016 0
 3104 00fe 41E0     		b	.L242
 3105              	.L248:
1021:.\uart_wifi.c **** 			 				Filter_Full_Data_Buf[0]= ATReceBuffer[0].gcATReceData[11]; 
 3106              		.loc 1 1021 0
 3107 0100 E27A     		ldrb	r2, [r4, #11]
1022:.\uart_wifi.c **** 			 				Filter_Full_Data_Buf[0]= (Filter_Full_Data_Buf[0]<<8)+ATReceBuffer[0].gcATReceData[12];
 3108              		.loc 1 1022 0
 3109 0102 217B     		ldrb	r1, [r4, #12]
 3110 0104 2E4B     		ldr	r3, .L267+56
 3111 0106 1202     		lsl	r2, r2, #8
 3112 0108 8A18     		add	r2, r1, r2
 3113 010a 1A80     		strh	r2, [r3]
1023:.\uart_wifi.c **** 			 				Filter_Full_Data_Buf[1]= ATReceBuffer[0].gcATReceData[13]; 
 3114              		.loc 1 1023 0
 3115 010c 627B     		ldrb	r2, [r4, #13]
1024:.\uart_wifi.c **** 			 				Filter_Full_Data_Buf[1]= (Filter_Full_Data_Buf[1]<<8)+ATReceBuffer[0].gcATReceData[14];
 3116              		.loc 1 1024 0
 3117 010e A17B     		ldrb	r1, [r4, #14]
 3118 0110 1202     		lsl	r2, r2, #8
 3119 0112 8A18     		add	r2, r1, r2
ARM GAS  C:\Users\kevin\AppData\Local\Temp\ccrA27HJ.s 			page 78


 3120 0114 5A80     		strh	r2, [r3, #2]
1025:.\uart_wifi.c **** 			 				Filter_Full_Data_Buf[2]= ATReceBuffer[0].gcATReceData[15]; 
 3121              		.loc 1 1025 0
 3122 0116 E27B     		ldrb	r2, [r4, #15]
1026:.\uart_wifi.c **** 			 				Filter_Full_Data_Buf[2]= (Filter_Full_Data_Buf[2]<<8)+ATReceBuffer[0].gcATReceData[16];
 3123              		.loc 1 1026 0
 3124 0118 217C     		ldrb	r1, [r4, #16]
 3125 011a 1202     		lsl	r2, r2, #8
 3126 011c 8A18     		add	r2, r1, r2
 3127 011e 9A80     		strh	r2, [r3, #4]
1027:.\uart_wifi.c **** 			 				Filter_Full_Data_Buf[3]= ATReceBuffer[0].gcATReceData[17]; 
 3128              		.loc 1 1027 0
 3129 0120 627C     		ldrb	r2, [r4, #17]
1028:.\uart_wifi.c **** 			 				Filter_Full_Data_Buf[3]= (Filter_Full_Data_Buf[3]<<8)+ATReceBuffer[0].gcATReceData[18]; 
 3130              		.loc 1 1028 0
 3131 0122 A17C     		ldrb	r1, [r4, #18]
 3132 0124 1202     		lsl	r2, r2, #8
 3133 0126 8A18     		add	r2, r1, r2
 3134 0128 DA80     		strh	r2, [r3, #6]
1029:.\uart_wifi.c **** 			 				Filter_Full_Data_Buf[4]= ATReceBuffer[0].gcATReceData[19]; 
 3135              		.loc 1 1029 0
 3136 012a E27C     		ldrb	r2, [r4, #19]
1030:.\uart_wifi.c **** 			 				Filter_Full_Data_Buf[4]= (Filter_Full_Data_Buf[4]<<8)+ATReceBuffer[0].gcATReceData[20]; 
 3137              		.loc 1 1030 0
 3138 012c 217D     		ldrb	r1, [r4, #20]
 3139 012e 1202     		lsl	r2, r2, #8
 3140 0130 8A18     		add	r2, r1, r2
 3141 0132 1A81     		strh	r2, [r3, #8]
1031:.\uart_wifi.c **** 			 				Filter_Full_Data_Buf[5]= ATReceBuffer[0].gcATReceData[21]; 
 3142              		.loc 1 1031 0
 3143 0134 627D     		ldrb	r2, [r4, #21]
1032:.\uart_wifi.c **** 			 				Filter_Full_Data_Buf[5]= (Filter_Full_Data_Buf[5]<<8)+ATReceBuffer[0].gcATReceData[22];
 3144              		.loc 1 1032 0
 3145 0136 A17D     		ldrb	r1, [r4, #22]
 3146 0138 1202     		lsl	r2, r2, #8
 3147 013a 8A18     		add	r2, r1, r2
 3148 013c 5A81     		strh	r2, [r3, #10]
1033:.\uart_wifi.c **** 							CyGlobalIntDisable;
 3149              		.loc 1 1033 0
 3150              	@ 1033 ".\uart_wifi.c" 1
 3151 013e 72B6     		CPSID   i
 3152              	@ 0 "" 2
1034:.\uart_wifi.c **** 			 				write(); 
 3153              		.loc 1 1034 0
 3154              		.code	16
 3155 0140 FFF7FEFF 		bl	write
 3156              	.LVL122:
1035:.\uart_wifi.c **** 			 				CyGlobalIntEnable;
 3157              		.loc 1 1035 0
 3158              	@ 1035 ".\uart_wifi.c" 1
 3159 0144 62B6     		CPSIE   i
 3160              	@ 0 "" 2
1036:.\uart_wifi.c **** 			 				App_Download_Filter_Manage_Num(); 		 				 		
 3161              		.loc 1 1036 0
 3162              		.code	16
 3163 0146 FFF7FEFF 		bl	App_Download_Filter_Manage_Num
 3164              	.LVL123:
ARM GAS  C:\Users\kevin\AppData\Local\Temp\ccrA27HJ.s 			page 79


1037:.\uart_wifi.c **** 			 		 		break;
 3165              		.loc 1 1037 0
 3166 014a 1BE0     		b	.L242
 3167              	.L252:
1039:.\uart_wifi.c ****                             BUZfkg=1;
 3168              		.loc 1 1039 0
 3169 014c 184A     		ldr	r2, .L267+40
 3170 014e 0123     		mov	r3, #1
 3171 0150 1370     		strb	r3, [r2]
1041:.\uart_wifi.c **** 			 				Filter_Reset_Data_Buf= ATReceBuffer[0].gcATReceData[10];
 3172              		.loc 1 1041 0
 3173 0152 A17A     		ldrb	r1, [r4, #10]
 3174 0154 1B4A     		ldr	r2, .L267+60
 3175 0156 1170     		strb	r1, [r2]
1042:.\uart_wifi.c **** 			 				F_Filter_Reset_Data_Buf=1; 
 3176              		.loc 1 1042 0
 3177 0158 1B4A     		ldr	r2, .L267+64
 3178 015a 1370     		strb	r3, [r2]
1043:.\uart_wifi.c **** 			 				App_Download_Filter_Reset_Data(); 		 				 		
 3179              		.loc 1 1043 0
 3180 015c FFF7FEFF 		bl	App_Download_Filter_Reset_Data
 3181              	.LVL124:
1044:.\uart_wifi.c **** 			 		 		break;	 		
 3182              		.loc 1 1044 0
 3183 0160 10E0     		b	.L242
 3184              	.L253:
1046:.\uart_wifi.c **** 			 				if(ATReceBuffer[0].gcATReceData[10]==1)
 3185              		.loc 1 1046 0
 3186 0162 A27A     		ldrb	r2, [r4, #10]
 3187 0164 194B     		ldr	r3, .L267+68
 3188 0166 012A     		cmp	r2, #1
 3189 0168 00D0     		beq	.L266
1049:.\uart_wifi.c **** 			 					NBfig=0;//0为南			 					
 3190              		.loc 1 1049 0
 3191 016a 0022     		mov	r2, #0
 3192              	.L266:
 3193 016c 1A70     		strb	r2, [r3]
1050:.\uart_wifi.c **** 			 		 		App_Download_Nb_Sta();			 		 
 3194              		.loc 1 1050 0
 3195 016e FFF7FEFF 		bl	App_Download_Nb_Sta
 3196              	.LVL125:
1051:.\uart_wifi.c **** 			 		 		break;
 3197              		.loc 1 1051 0
 3198 0172 07E0     		b	.L242
 3199              	.L250:
1053:.\uart_wifi.c **** 			 				WorkFlag.poweroff=0;
 3200              		.loc 1 1053 0
 3201 0174 084B     		ldr	r3, .L267+16
1054:.\uart_wifi.c **** 			 				WorkFlag.poweron=1;
 3202              		.loc 1 1054 0
 3203 0176 0221     		mov	r1, #2
1053:.\uart_wifi.c **** 			 				WorkFlag.poweroff=0;
 3204              		.loc 1 1053 0
 3205 0178 5A78     		ldrb	r2, [r3, #1]
1054:.\uart_wifi.c **** 			 				WorkFlag.poweron=1;
 3206              		.loc 1 1054 0
 3207 017a AA43     		bic	r2, r5
ARM GAS  C:\Users\kevin\AppData\Local\Temp\ccrA27HJ.s 			page 80


 3208 017c 0A43     		orr	r2, r1
 3209 017e 5A70     		strb	r2, [r3, #1]
1055:.\uart_wifi.c **** 			 				App_Poweron(); 
 3210              		.loc 1 1055 0
 3211 0180 FFF7FEFF 		bl	App_Poweron
 3212              	.LVL126:
 3213              	.L242:
1062:.\uart_wifi.c **** 				 default:				 				 				 
1063:.\uart_wifi.c **** 					break;
1064:.\uart_wifi.c **** 				 
1065:.\uart_wifi.c **** 			 } 
1066:.\uart_wifi.c **** 		 }
1067:.\uart_wifi.c **** 		}		 					
1068:.\uart_wifi.c **** }
 3214              		.loc 1 1068 0
 3215              		@ sp needed
 3216 0184 70BD     		pop	{r4, r5, r6, pc}
 3217              	.L268:
 3218 0186 C046     		.align	2
 3219              	.L267:
 3220 0188 00000000 		.word	WifiWorkFlag
 3221 018c 00000000 		.word	giWIFIDATALength
 3222 0190 00000000 		.word	ATReceBuffer
 3223 0194 00000000 		.word	giWIFICommand
 3224 0198 00000000 		.word	WorkFlag
 3225 019c D0CC0000 		.word	52432
 3226 01a0 D2CC0000 		.word	52434
 3227 01a4 D6CC0000 		.word	52438
 3228 01a8 00000000 		.word	SmarkLink_State
 3229 01ac 00000000 		.word	Power_Buzfkg
 3230 01b0 00000000 		.word	BUZfkg
 3231 01b4 00000000 		.word	Firmware_Version
 3232 01b8 00000000 		.word	Firmware_Update
 3233 01bc 00000000 		.word	firmwave_update_fig
 3234 01c0 00000000 		.word	Filter_Full_Data_Buf
 3235 01c4 00000000 		.word	Filter_Reset_Data_Buf
 3236 01c8 00000000 		.word	F_Filter_Reset_Data_Buf
 3237 01cc 00000000 		.word	NBfig
 3238              		.cfi_endproc
 3239              	.LFE80:
 3240              		.size	Process_From_Wifi_Ctl_Ack_Data, .-Process_From_Wifi_Ctl_Ack_Data
 3241              		.section	.text.Process_From_Wifi_Noa_Data,"ax",%progbits
 3242              		.align	1
 3243              		.global	Process_From_Wifi_Noa_Data
 3244              		.code	16
 3245              		.thumb_func
 3246              		.type	Process_From_Wifi_Noa_Data, %function
 3247              	Process_From_Wifi_Noa_Data:
 3248              	.LFB81:
1069:.\uart_wifi.c **** /******************************************************************************
1070:.\uart_wifi.c **** * 函 数 名: void Process_From_Wifi_Noa_Data(void)
1071:.\uart_wifi.c **** * 函数功能: app、服务器控制数据
1072:.\uart_wifi.c **** * 入口参数: 无
1073:.\uart_wifi.c **** * 返    回: 
1074:.\uart_wifi.c **** *******************************************************************************/
1075:.\uart_wifi.c **** void Process_From_Wifi_Noa_Data(void)
1076:.\uart_wifi.c **** {
ARM GAS  C:\Users\kevin\AppData\Local\Temp\ccrA27HJ.s 			page 81


 3249              		.loc 1 1076 0
 3250              		.cfi_startproc
 3251 0000 38B5     		push	{r3, r4, r5, lr}
 3252              		.cfi_def_cfa_offset 16
 3253              		.cfi_offset 3, -16
 3254              		.cfi_offset 4, -12
 3255              		.cfi_offset 5, -8
 3256              		.cfi_offset 14, -4
1077:.\uart_wifi.c **** 	 if((WifiWorkFlag.gcReceComm1OK)&&(giWIFIDATALength<=(WIFIBUFLEN-10-1)))
 3257              		.loc 1 1077 0
 3258 0002 144B     		ldr	r3, .L274
 3259 0004 1A78     		ldrb	r2, [r3]
 3260 0006 5107     		lsl	r1, r2, #29
 3261 0008 23D5     		bpl	.L269
 3262              		.loc 1 1077 0 is_stmt 0 discriminator 1
 3263 000a 1349     		ldr	r1, .L274+4
 3264 000c 0D88     		ldrh	r5, [r1]
 3265 000e 592D     		cmp	r5, #89
 3266 0010 1FD8     		bhi	.L269
1078:.\uart_wifi.c **** 	 {
1079:.\uart_wifi.c **** 	   WifiWorkFlag.gcReceComm1OK =0;
 3267              		.loc 1 1079 0 is_stmt 1
 3268 0012 0421     		mov	r1, #4
 3269 0014 8A43     		bic	r2, r1
1080:.\uart_wifi.c **** 		 if(ATReceBuffer[0].gcATReceData[10+giWIFIDATALength]==Sum_Make_Verify (&ATReceBuffer[0].gcATRece
 3270              		.loc 1 1080 0
 3271 0016 114C     		ldr	r4, .L274+8
 3272 0018 291C     		mov	r1, r5
 3273 001a 0A31     		add	r1, r1, #10
 3274 001c 89B2     		uxth	r1, r1
 3275 001e 201C     		mov	r0, r4
1079:.\uart_wifi.c **** 	   WifiWorkFlag.gcReceComm1OK =0;
 3276              		.loc 1 1079 0
 3277 0020 1A70     		strb	r2, [r3]
 3278              		.loc 1 1080 0
 3279 0022 FFF7FEFF 		bl	Sum_Make_Verify
 3280              	.LVL127:
 3281 0026 6519     		add	r5, r4, r5
 3282 0028 AB7A     		ldrb	r3, [r5, #10]
 3283 002a 8342     		cmp	r3, r0
 3284 002c 11D1     		bne	.L269
1081:.\uart_wifi.c **** 		 {
1082:.\uart_wifi.c **** 			 switch(giWIFICommand)
 3285              		.loc 1 1082 0
 3286 002e 0C4B     		ldr	r3, .L274+12
 3287 0030 1A88     		ldrh	r2, [r3]
 3288 0032 0C4B     		ldr	r3, .L274+16
 3289 0034 9A42     		cmp	r2, r3
 3290 0036 0CD1     		bne	.L269
1083:.\uart_wifi.c **** 			 {
1084:.\uart_wifi.c **** 			 		case 	WIFI_SENDDINGSTATE_DATA:				      
1085:.\uart_wifi.c **** 					    	SmarkLink_State = ATReceBuffer[0].gcATReceData[10];         //获取当前状态
 3291              		.loc 1 1085 0
 3292 0038 A37A     		ldrb	r3, [r4, #10]
 3293 003a 0B4A     		ldr	r2, .L274+20
 3294 003c 1370     		strb	r3, [r2]
1086:.\uart_wifi.c ****                 if((WIFI_SENDDINGSTATE_DATA_LINK_SERVER==SmarkLink_State)&&(Power_Buzfkg==0))						
ARM GAS  C:\Users\kevin\AppData\Local\Temp\ccrA27HJ.s 			page 82


 3295              		.loc 1 1086 0
 3296 003e 032B     		cmp	r3, #3
 3297 0040 07D1     		bne	.L269
 3298              		.loc 1 1086 0 is_stmt 0 discriminator 1
 3299 0042 0A4A     		ldr	r2, .L274+24
 3300 0044 1378     		ldrb	r3, [r2]
 3301 0046 002B     		cmp	r3, #0
 3302 0048 03D1     		bne	.L269
1087:.\uart_wifi.c ****                 {
1088:.\uart_wifi.c ****               		Power_Buzfkg=1;								
 3303              		.loc 1 1088 0 is_stmt 1
 3304 004a 0123     		mov	r3, #1
 3305 004c 1370     		strb	r3, [r2]
1089:.\uart_wifi.c ****                 	BUZfkg=1;
 3306              		.loc 1 1089 0
 3307 004e 084A     		ldr	r2, .L274+28
 3308 0050 1370     		strb	r3, [r2]
 3309              	.L269:
1090:.\uart_wifi.c ****                 }
1091:.\uart_wifi.c **** 					  		break;
1092:.\uart_wifi.c **** 				 	default:				 				 				 
1093:.\uart_wifi.c **** 								break;
1094:.\uart_wifi.c **** 				 
1095:.\uart_wifi.c **** 			 } 
1096:.\uart_wifi.c **** 		 }
1097:.\uart_wifi.c **** 	 }		 					
1098:.\uart_wifi.c **** }
 3310              		.loc 1 1098 0
 3311              		@ sp needed
 3312 0052 38BD     		pop	{r3, r4, r5, pc}
 3313              	.L275:
 3314              		.align	2
 3315              	.L274:
 3316 0054 00000000 		.word	WifiWorkFlag
 3317 0058 00000000 		.word	giWIFIDATALength
 3318 005c 00000000 		.word	ATReceBuffer
 3319 0060 00000000 		.word	giWIFICommand
 3320 0064 D0CC0000 		.word	52432
 3321 0068 00000000 		.word	SmarkLink_State
 3322 006c 00000000 		.word	Power_Buzfkg
 3323 0070 00000000 		.word	BUZfkg
 3324              		.cfi_endproc
 3325              	.LFE81:
 3326              		.size	Process_From_Wifi_Noa_Data, .-Process_From_Wifi_Noa_Data
 3327              		.section	.text.Process_From_Wifi_Ack_Data,"ax",%progbits
 3328              		.align	1
 3329              		.global	Process_From_Wifi_Ack_Data
 3330              		.code	16
 3331              		.thumb_func
 3332              		.type	Process_From_Wifi_Ack_Data, %function
 3333              	Process_From_Wifi_Ack_Data:
 3334              	.LFB82:
1099:.\uart_wifi.c **** /******************************************************************************
1100:.\uart_wifi.c **** * 函 数 名: void Process_From_Wifi_Ack_Data(void)
1101:.\uart_wifi.c **** * 函数功能: wifi应答数据
1102:.\uart_wifi.c **** * 入口参数: 无
1103:.\uart_wifi.c **** * 返    回: 
ARM GAS  C:\Users\kevin\AppData\Local\Temp\ccrA27HJ.s 			page 83


1104:.\uart_wifi.c **** *******************************************************************************/
1105:.\uart_wifi.c **** void Process_From_Wifi_Ack_Data(void)
1106:.\uart_wifi.c **** {
 3335              		.loc 1 1106 0
 3336              		.cfi_startproc
1107:.\uart_wifi.c **** 	 if((WifiWorkFlag.gcReceComm1OK)&&(giWIFIDATALength<=(WIFIBUFLEN-10-1)))
 3337              		.loc 1 1107 0
 3338 0000 244B     		ldr	r3, .L316
1106:.\uart_wifi.c **** {
 3339              		.loc 1 1106 0
 3340 0002 70B5     		push	{r4, r5, r6, lr}
 3341              		.cfi_def_cfa_offset 16
 3342              		.cfi_offset 4, -16
 3343              		.cfi_offset 5, -12
 3344              		.cfi_offset 6, -8
 3345              		.cfi_offset 14, -4
 3346              		.loc 1 1107 0
 3347 0004 1A78     		ldrb	r2, [r3]
 3348 0006 5107     		lsl	r1, r2, #29
 3349 0008 42D5     		bpl	.L276
 3350              		.loc 1 1107 0 is_stmt 0 discriminator 1
 3351 000a 2349     		ldr	r1, .L316+4
 3352 000c 0D88     		ldrh	r5, [r1]
 3353 000e 592D     		cmp	r5, #89
 3354 0010 3ED8     		bhi	.L276
1108:.\uart_wifi.c **** 	 {
1109:.\uart_wifi.c **** 	   WifiWorkFlag.gcReceComm1OK =0;
1110:.\uart_wifi.c **** 		 if(ATReceBuffer[0].gcATReceData[10+giWIFIDATALength]==Sum_Make_Verify (&ATReceBuffer[0].gcATRece
 3355              		.loc 1 1110 0 is_stmt 1
 3356 0012 224C     		ldr	r4, .L316+8
 3357 0014 291C     		mov	r1, r5
1109:.\uart_wifi.c **** 	   WifiWorkFlag.gcReceComm1OK =0;
 3358              		.loc 1 1109 0
 3359 0016 0426     		mov	r6, #4
 3360              		.loc 1 1110 0
 3361 0018 0A31     		add	r1, r1, #10
1109:.\uart_wifi.c **** 	   WifiWorkFlag.gcReceComm1OK =0;
 3362              		.loc 1 1109 0
 3363 001a B243     		bic	r2, r6
 3364              		.loc 1 1110 0
 3365 001c 89B2     		uxth	r1, r1
 3366 001e 201C     		mov	r0, r4
1109:.\uart_wifi.c **** 	   WifiWorkFlag.gcReceComm1OK =0;
 3367              		.loc 1 1109 0
 3368 0020 1A70     		strb	r2, [r3]
 3369              		.loc 1 1110 0
 3370 0022 FFF7FEFF 		bl	Sum_Make_Verify
 3371              	.LVL128:
 3372 0026 6519     		add	r5, r4, r5
 3373 0028 AB7A     		ldrb	r3, [r5, #10]
 3374 002a 8342     		cmp	r3, r0
 3375 002c 30D1     		bne	.L276
1111:.\uart_wifi.c **** 		 {
1112:.\uart_wifi.c **** 			 switch(giWIFICommand)
 3376              		.loc 1 1112 0
 3377 002e 1C4B     		ldr	r3, .L316+12
 3378 0030 1C4A     		ldr	r2, .L316+16
ARM GAS  C:\Users\kevin\AppData\Local\Temp\ccrA27HJ.s 			page 84


 3379 0032 1B88     		ldrh	r3, [r3]
 3380 0034 9342     		cmp	r3, r2
 3381 0036 23D0     		beq	.L284
 3382 0038 0DD8     		bhi	.L281
 3383 003a 9022     		mov	r2, #144
 3384 003c 1202     		lsl	r2, r2, #8
 3385 003e 9342     		cmp	r3, r2
 3386 0040 1ED0     		beq	.L284
 3387 0042 01D8     		bhi	.L283
 3388 0044 184A     		ldr	r2, .L316+20
 3389 0046 03E0     		b	.L315
 3390              	.L283:
 3391 0048 184A     		ldr	r2, .L316+24
 3392 004a 9342     		cmp	r3, r2
 3393 004c 18D0     		beq	.L284
 3394 004e 184A     		ldr	r2, .L316+28
 3395              	.L315:
 3396 0050 9342     		cmp	r3, r2
 3397 0052 15D0     		beq	.L284
 3398 0054 1CE0     		b	.L276
 3399              	.L281:
 3400 0056 174A     		ldr	r2, .L316+32
 3401 0058 9342     		cmp	r3, r2
 3402 005a 07D0     		beq	.L287
 3403 005c 01D8     		bhi	.L288
 3404 005e 164A     		ldr	r2, .L316+36
 3405 0060 F6E7     		b	.L315
 3406              	.L288:
 3407 0062 164A     		ldr	r2, .L316+40
 3408 0064 9342     		cmp	r3, r2
 3409 0066 0BD0     		beq	.L284
 3410 0068 154A     		ldr	r2, .L316+44
 3411 006a F1E7     		b	.L315
 3412              	.L287:
1113:.\uart_wifi.c **** 			 {
1114:.\uart_wifi.c ****          case MCU_HANDSHAKE_DATA:		
1115:.\uart_wifi.c ****                 {
1116:.\uart_wifi.c **** 							 		if((ATReceBuffer[0].gcATReceData[10] == 0x00)  && (ATReceBuffer[0].gcATReceData[11] == LI
 3413              		.loc 1 1116 0
 3414 006c 6389     		ldrh	r3, [r4, #10]
 3415 006e 002B     		cmp	r3, #0
 3416 0070 0ED1     		bne	.L276
1117:.\uart_wifi.c **** 								  	{
1118:.\uart_wifi.c **** 									  	WifidatagramWorkFlag.uart_ack = 0;
 3417              		.loc 1 1118 0
 3418 0072 144B     		ldr	r3, .L316+48
 3419 0074 1A78     		ldrb	r2, [r3]
 3420 0076 B243     		bic	r2, r6
 3421 0078 1A70     		strb	r2, [r3]
1119:.\uart_wifi.c ****                                         SmarkLink_State=ATReceBuffer[0].gcATReceData[12];
 3422              		.loc 1 1119 0
 3423 007a 227B     		ldrb	r2, [r4, #12]
 3424 007c 124B     		ldr	r3, .L316+52
 3425 007e 06E0     		b	.L314
 3426              	.L284:
1120:.\uart_wifi.c **** 									  	//BUZfkg=1;
1121:.\uart_wifi.c **** 								  	}				      
ARM GAS  C:\Users\kevin\AppData\Local\Temp\ccrA27HJ.s 			page 85


1122:.\uart_wifi.c **** 								  break;
1123:.\uart_wifi.c ****                 }
1124:.\uart_wifi.c **** 			   case MCU_CLEARALLUSERBOUND_DATA:			 
1125:.\uart_wifi.c **** 				 		if((ATReceBuffer[0].gcATReceData[10] == 0x00)  && (ATReceBuffer[0].gcATReceData[11] == LINKN
 3427              		.loc 1 1125 0
 3428 0080 6389     		ldrh	r3, [r4, #10]
 3429 0082 002B     		cmp	r3, #0
 3430 0084 04D1     		bne	.L276
1126:.\uart_wifi.c **** 	  					{
1127:.\uart_wifi.c **** 	  						WifidatagramWorkFlag.uart_ack = 0;
 3431              		.loc 1 1127 0
 3432 0086 0F4B     		ldr	r3, .L316+48
 3433 0088 0421     		mov	r1, #4
 3434 008a 1A78     		ldrb	r2, [r3]
 3435 008c 8A43     		bic	r2, r1
 3436              	.L314:
 3437 008e 1A70     		strb	r2, [r3]
 3438              	.L276:
1128:.\uart_wifi.c **** 	  					}
1129:.\uart_wifi.c **** 					  break;				 
1130:.\uart_wifi.c **** 		 
1131:.\uart_wifi.c **** 				 case MCU_POWERONSMARTLINK_DATA:				 
1132:.\uart_wifi.c **** 				 		if((ATReceBuffer[0].gcATReceData[10] == 0x00)  && (ATReceBuffer[0].gcATReceData[11] == LINKN
1133:.\uart_wifi.c **** 					  {
1134:.\uart_wifi.c **** 						  WifidatagramWorkFlag.uart_ack = 0;
1135:.\uart_wifi.c **** 						 	
1136:.\uart_wifi.c **** 					  }			      
1137:.\uart_wifi.c **** 					  break;
1138:.\uart_wifi.c **** 				case	HOST_STATE_DATA: 
1139:.\uart_wifi.c **** 						if((ATReceBuffer[0].gcATReceData[10] == 0x00)  && (ATReceBuffer[0].gcATReceData[11] == LINKNE
1140:.\uart_wifi.c **** 					  {
1141:.\uart_wifi.c **** 						  WifidatagramWorkFlag.uart_ack = 0;
1142:.\uart_wifi.c **** 					  }				      
1143:.\uart_wifi.c **** 					  break;
1144:.\uart_wifi.c **** 				 case MCU_FIRMWARE_UPDATE:	 
1145:.\uart_wifi.c **** 				 		if((ATReceBuffer[0].gcATReceData[10] == 0x00)  && (ATReceBuffer[0].gcATReceData[11] == LINKN
1146:.\uart_wifi.c **** 					  {
1147:.\uart_wifi.c **** 						  WifidatagramWorkFlag.uart_ack = 0;
1148:.\uart_wifi.c **** 					  }				      
1149:.\uart_wifi.c **** 					  break;
1150:.\uart_wifi.c **** 				case	HOST_FILTER_CHANGED_DATA:
1151:.\uart_wifi.c **** 						if((ATReceBuffer[0].gcATReceData[10] == 0x00)  && (ATReceBuffer[0].gcATReceData[11] == E0_REP
1152:.\uart_wifi.c **** 					  {
1153:.\uart_wifi.c **** 						  WifidatagramWorkFlag.uart_ack = 0;
1154:.\uart_wifi.c **** 					  }				      
1155:.\uart_wifi.c **** 					  break;
1156:.\uart_wifi.c **** 				case	HOST_FILTER_USED_TIME_DATA:
1157:.\uart_wifi.c **** 						if((ATReceBuffer[0].gcATReceData[10] == 0x00)  && (ATReceBuffer[0].gcATReceData[11] == E0_REP
1158:.\uart_wifi.c **** 					  {
1159:.\uart_wifi.c **** 						  WifidatagramWorkFlag.uart_ack = 0;
1160:.\uart_wifi.c **** 					  }				      
1161:.\uart_wifi.c **** 					  break;
1162:.\uart_wifi.c **** 				 case HOST_E0_DATA:
1163:.\uart_wifi.c **** 				 
1164:.\uart_wifi.c **** 				 		if((ATReceBuffer[0].gcATReceData[10] == 0x00)  && (ATReceBuffer[0].gcATReceData[11] == E0_RE
1165:.\uart_wifi.c **** 					  {
1166:.\uart_wifi.c **** 						  WifidatagramWorkFlag.uart_ack = 0;
ARM GAS  C:\Users\kevin\AppData\Local\Temp\ccrA27HJ.s 			page 86


1167:.\uart_wifi.c **** 					  }				      
1168:.\uart_wifi.c **** 					  break;
1169:.\uart_wifi.c **** 				case HOST_E9_DATA:
1170:.\uart_wifi.c **** 				 
1171:.\uart_wifi.c **** 				 		if((ATReceBuffer[0].gcATReceData[10] == 0x00)  && (ATReceBuffer[0].gcATReceData[11] == E0_RE
1172:.\uart_wifi.c **** 					  {
1173:.\uart_wifi.c **** 						  WifidatagramWorkFlag.uart_ack = 0;
1174:.\uart_wifi.c **** 					  }				      
1175:.\uart_wifi.c **** 					  break;
1176:.\uart_wifi.c **** 				 default:
1177:.\uart_wifi.c **** 				 		break;
1178:.\uart_wifi.c **** 				 
1179:.\uart_wifi.c **** 			 } 
1180:.\uart_wifi.c **** 		 }
1181:.\uart_wifi.c **** 	 }		 					
1182:.\uart_wifi.c **** }
 3439              		.loc 1 1182 0
 3440              		@ sp needed
 3441 0090 70BD     		pop	{r4, r5, r6, pc}
 3442              	.L317:
 3443 0092 C046     		.align	2
 3444              	.L316:
 3445 0094 00000000 		.word	WifiWorkFlag
 3446 0098 00000000 		.word	giWIFIDATALength
 3447 009c 00000000 		.word	ATReceBuffer
 3448 00a0 00000000 		.word	giWIFICommand
 3449 00a4 F0900000 		.word	37104
 3450 00a8 01600000 		.word	24577
 3451 00ac 01900000 		.word	36865
 3452 00b0 02900000 		.word	36866
 3453 00b4 C0CC0000 		.word	52416
 3454 00b8 F9900000 		.word	37113
 3455 00bc C2CC0000 		.word	52418
 3456 00c0 C5CC0000 		.word	52421
 3457 00c4 00000000 		.word	WifidatagramWorkFlag
 3458 00c8 00000000 		.word	SmarkLink_State
 3459              		.cfi_endproc
 3460              	.LFE82:
 3461              		.size	Process_From_Wifi_Ack_Data, .-Process_From_Wifi_Ack_Data
 3462              		.section	.text.Process_From_Tdsboard_Data,"ax",%progbits
 3463              		.align	1
 3464              		.global	Process_From_Tdsboard_Data
 3465              		.code	16
 3466              		.thumb_func
 3467              		.type	Process_From_Tdsboard_Data, %function
 3468              	Process_From_Tdsboard_Data:
 3469              	.LFB83:
1183:.\uart_wifi.c **** /******************************************************************************
1184:.\uart_wifi.c **** * 函 数 名: void ProcessUARTData(void)
1185:.\uart_wifi.c **** * 函数功能: 机器上报数据
1186:.\uart_wifi.c **** * 入口参数: 无
1187:.\uart_wifi.c **** * 返    回: 
1188:.\uart_wifi.c **** *******************************************************************************/
1189:.\uart_wifi.c **** void Process_From_Tdsboard_Data(void)
1190:.\uart_wifi.c **** {
 3470              		.loc 1 1190 0
 3471              		.cfi_startproc
ARM GAS  C:\Users\kevin\AppData\Local\Temp\ccrA27HJ.s 			page 87


 3472 0000 F8B5     		push	{r3, r4, r5, r6, r7, lr}
 3473              		.cfi_def_cfa_offset 24
 3474              		.cfi_offset 3, -24
 3475              		.cfi_offset 4, -20
 3476              		.cfi_offset 5, -16
 3477              		.cfi_offset 6, -12
 3478              		.cfi_offset 7, -8
 3479              		.cfi_offset 14, -4
1191:.\uart_wifi.c **** 	 if((WifiWorkFlag.gcReceComm2OK)&&(giTDSBOARDDATALength<(TDSBUFLEN-10-1)))
 3480              		.loc 1 1191 0
 3481 0002 2E4D     		ldr	r5, .L324
 3482 0004 2E4E     		ldr	r6, .L324+4
 3483 0006 2B78     		ldrb	r3, [r5]
 3484 0008 9A07     		lsl	r2, r3, #30
 3485 000a 3FD5     		bpl	.L320
 3486              		.loc 1 1191 0 is_stmt 0 discriminator 1
 3487 000c 2D4A     		ldr	r2, .L324+8
 3488 000e 1788     		ldrh	r7, [r2]
 3489 0010 122F     		cmp	r7, #18
 3490 0012 3BD8     		bhi	.L320
1192:.\uart_wifi.c **** 		 {
1193:.\uart_wifi.c **** 		   WifiWorkFlag.gcReceComm2OK =0;
1194:.\uart_wifi.c **** 		     //
1195:.\uart_wifi.c **** 			 if(ATTdsReceBuffer[0].gcATReceTdsboardData[10+giTDSBOARDDATALength]==Sum_Make_Verify (&ATTdsRec
 3491              		.loc 1 1195 0 is_stmt 1
 3492 0014 2C4C     		ldr	r4, .L324+12
 3493 0016 391C     		mov	r1, r7
1193:.\uart_wifi.c **** 		   WifiWorkFlag.gcReceComm2OK =0;
 3494              		.loc 1 1193 0
 3495 0018 0222     		mov	r2, #2
 3496              		.loc 1 1195 0
 3497 001a 0A31     		add	r1, r1, #10
1193:.\uart_wifi.c **** 		   WifiWorkFlag.gcReceComm2OK =0;
 3498              		.loc 1 1193 0
 3499 001c 9343     		bic	r3, r2
 3500              		.loc 1 1195 0
 3501 001e 89B2     		uxth	r1, r1
 3502 0020 201C     		mov	r0, r4
1193:.\uart_wifi.c **** 		   WifiWorkFlag.gcReceComm2OK =0;
 3503              		.loc 1 1193 0
 3504 0022 2B70     		strb	r3, [r5]
 3505              		.loc 1 1195 0
 3506 0024 FFF7FEFF 		bl	Sum_Make_Verify
 3507              	.LVL129:
 3508 0028 E719     		add	r7, r4, r7
 3509 002a BB7A     		ldrb	r3, [r7, #10]
 3510 002c 8342     		cmp	r3, r0
 3511 002e 2DD1     		bne	.L320
1196:.\uart_wifi.c **** 			 {
1197:.\uart_wifi.c **** 		                      Tds_Ack_Timer=30;
 3512              		.loc 1 1197 0
 3513 0030 1E23     		mov	r3, #30
 3514 0032 3370     		strb	r3, [r6]
1198:.\uart_wifi.c **** 				 switch(giTDSBOARDCommand)
 3515              		.loc 1 1198 0
 3516 0034 254B     		ldr	r3, .L324+16
 3517 0036 1A88     		ldrh	r2, [r3]
ARM GAS  C:\Users\kevin\AppData\Local\Temp\ccrA27HJ.s 			page 88


 3518 0038 8023     		mov	r3, #128
 3519 003a 5B01     		lsl	r3, r3, #5
 3520 003c 9A42     		cmp	r2, r3
 3521 003e 25D1     		bne	.L320
1199:.\uart_wifi.c **** 				 {
1200:.\uart_wifi.c **** 					 case 0x1000:		      
1201:.\uart_wifi.c **** //					  	Value_Tds0=ATTdsReceBuffer[0].gcATReceTdsboardData[10];
1202:.\uart_wifi.c **** //					  	Value_Tds0=(Value_Tds0<<8)+ATTdsReceBuffer[0].gcATReceTdsboardData[11];
1203:.\uart_wifi.c **** //					  	Value_Tds1=ATTdsReceBuffer[0].gcATReceTdsboardData[12];
1204:.\uart_wifi.c **** //					  	Value_Tds1=(Value_Tds1<<8)+ATTdsReceBuffer[0].gcATReceTdsboardData[13];
1205:.\uart_wifi.c **** 					  	Value_Loushui_Ad=ATTdsReceBuffer[0].gcATReceTdsboardData[14];
 3522              		.loc 1 1205 0
 3523 0040 A27B     		ldrb	r2, [r4, #14]
1206:.\uart_wifi.c **** 					  	Value_Loushui_Ad=(Value_Loushui_Ad<<8)+ATTdsReceBuffer[0].gcATReceTdsboardData[15];
 3524              		.loc 1 1206 0
 3525 0042 E37B     		ldrb	r3, [r4, #15]
 3526 0044 1202     		lsl	r2, r2, #8
 3527 0046 9A18     		add	r2, r3, r2
 3528 0048 214B     		ldr	r3, .L324+20
 3529 004a 1A80     		strh	r2, [r3]
1207:.\uart_wifi.c **** 					  	Value_T=ATTdsReceBuffer[0].gcATReceTdsboardData[16];
 3530              		.loc 1 1207 0
 3531 004c 227C     		ldrb	r2, [r4, #16]
 3532 004e 214B     		ldr	r3, .L324+24
 3533 0050 1A70     		strb	r2, [r3]
1208:.\uart_wifi.c **** 					  	Value_Flow=ATTdsReceBuffer[0].gcATReceTdsboardData[17];
 3534              		.loc 1 1208 0
 3535 0052 627C     		ldrb	r2, [r4, #17]
1209:.\uart_wifi.c **** 					  	Value_Flow=(Value_Flow<<8)+ATTdsReceBuffer[0].gcATReceTdsboardData[18];	
 3536              		.loc 1 1209 0
 3537 0054 A37C     		ldrb	r3, [r4, #18]
 3538 0056 1202     		lsl	r2, r2, #8
 3539 0058 9A18     		add	r2, r3, r2
 3540 005a 1F4B     		ldr	r3, .L324+28
 3541 005c 1A80     		strh	r2, [r3]
1210:.\uart_wifi.c ****               Value_Tds0_Tmp=ATTdsReceBuffer[0].gcATReceTdsboardData[19];
 3542              		.loc 1 1210 0
 3543 005e E07C     		ldrb	r0, [r4, #19]
1211:.\uart_wifi.c **** 					  	Value_Tds0_Tmp=(Value_Tds0_Tmp<<8)+ATTdsReceBuffer[0].gcATReceTdsboardData[20];	
 3544              		.loc 1 1211 0
 3545 0060 237D     		ldrb	r3, [r4, #20]
 3546 0062 0002     		lsl	r0, r0, #8
 3547 0064 1818     		add	r0, r3, r0
 3548 0066 1D4B     		ldr	r3, .L324+32
 3549 0068 80B2     		uxth	r0, r0
 3550 006a 1880     		strh	r0, [r3]
1212:.\uart_wifi.c ****               Value_Tds1_Tmp=ATTdsReceBuffer[0].gcATReceTdsboardData[21];
 3551              		.loc 1 1212 0
 3552 006c 637D     		ldrb	r3, [r4, #21]
1213:.\uart_wifi.c **** 					  	Value_Tds1_Tmp=(Value_Tds1_Tmp<<8)+ATTdsReceBuffer[0].gcATReceTdsboardData[22];	
 3553              		.loc 1 1213 0
 3554 006e A47D     		ldrb	r4, [r4, #22]
 3555 0070 1B02     		lsl	r3, r3, #8
 3556 0072 E418     		add	r4, r4, r3
 3557 0074 1A4B     		ldr	r3, .L324+36
 3558 0076 A4B2     		uxth	r4, r4
 3559 0078 1C80     		strh	r4, [r3]
ARM GAS  C:\Users\kevin\AppData\Local\Temp\ccrA27HJ.s 			page 89


1214:.\uart_wifi.c ****               Value_Tds0=Tds_Scan_In(Value_Tds0_Tmp);//原水
 3560              		.loc 1 1214 0
 3561 007a FFF7FEFF 		bl	Tds_Scan_In
 3562              	.LVL130:
 3563 007e 194B     		ldr	r3, .L324+40
 3564 0080 1880     		strh	r0, [r3]
1215:.\uart_wifi.c ****               Value_Tds1=Tds_Scan_Out(Value_Tds1_Tmp);
 3565              		.loc 1 1215 0
 3566 0082 201C     		mov	r0, r4
 3567 0084 FFF7FEFF 		bl	Tds_Scan_Out
 3568              	.LVL131:
 3569 0088 174B     		ldr	r3, .L324+44
 3570 008a 1880     		strh	r0, [r3]
 3571              	.L320:
1216:.\uart_wifi.c **** 						  break;
1217:.\uart_wifi.c **** 					 default:				 					 
1218:.\uart_wifi.c **** 						break;
1219:.\uart_wifi.c **** 				 } 
1220:.\uart_wifi.c **** 			 }
1221:.\uart_wifi.c **** 		 }		
1222:.\uart_wifi.c ****    if(Tds_Ack_Timer==0)
 3572              		.loc 1 1222 0
 3573 008c 3478     		ldrb	r4, [r6]
 3574 008e 002C     		cmp	r4, #0
 3575 0090 13D1     		bne	.L318
1223:.\uart_wifi.c ****     {
1224:.\uart_wifi.c ****         Tds_Ack_Timer=30;
 3576              		.loc 1 1224 0
 3577 0092 1E22     		mov	r2, #30
 3578 0094 3270     		strb	r2, [r6]
1225:.\uart_wifi.c ****          memset(ATTdsReceBuffer[0].gcATReceTdsboardData,0x00,TDSBUFLEN);
 3579              		.loc 1 1225 0
 3580 0096 0C4E     		ldr	r6, .L324+12
 3581 0098 211C     		mov	r1, r4
 3582 009a 301C     		mov	r0, r6
 3583 009c FFF7FEFF 		bl	memset
 3584              	.LVL132:
1226:.\uart_wifi.c ****         gctdsboardCommunState=0;
 3585              		.loc 1 1226 0
 3586 00a0 124B     		ldr	r3, .L324+48
1227:.\uart_wifi.c ****         giTDSBOARDCommand=0;
1228:.\uart_wifi.c ****         giTDSBOARDDATALength=0;
1229:.\uart_wifi.c ****         WifiWorkFlag.gcReceComm2OK=0;
 3587              		.loc 1 1229 0
 3588 00a2 0222     		mov	r2, #2
1226:.\uart_wifi.c ****         gctdsboardCommunState=0;
 3589              		.loc 1 1226 0
 3590 00a4 1C70     		strb	r4, [r3]
1227:.\uart_wifi.c ****         giTDSBOARDCommand=0;
 3591              		.loc 1 1227 0
 3592 00a6 094B     		ldr	r3, .L324+16
1230:.\uart_wifi.c ****         ATTdsReceBuffer[0].gcATReceTdsboardCount=0; 
 3593              		.loc 1 1230 0
 3594 00a8 F483     		strh	r4, [r6, #30]
1227:.\uart_wifi.c ****         giTDSBOARDCommand=0;
 3595              		.loc 1 1227 0
 3596 00aa 1C80     		strh	r4, [r3]
ARM GAS  C:\Users\kevin\AppData\Local\Temp\ccrA27HJ.s 			page 90


1228:.\uart_wifi.c ****         giTDSBOARDDATALength=0;
 3597              		.loc 1 1228 0
 3598 00ac 054B     		ldr	r3, .L324+8
 3599 00ae 1C80     		strh	r4, [r3]
1229:.\uart_wifi.c ****         WifiWorkFlag.gcReceComm2OK=0;
 3600              		.loc 1 1229 0
 3601 00b0 2B78     		ldrb	r3, [r5]
 3602 00b2 9343     		bic	r3, r2
 3603 00b4 2B70     		strb	r3, [r5]
1231:.\uart_wifi.c ****         Open_UART_TDS_ISR();
 3604              		.loc 1 1231 0
 3605 00b6 FFF7FEFF 		bl	Open_UART_TDS_ISR
 3606              	.LVL133:
 3607              	.L318:
1232:.\uart_wifi.c ****     }
1233:.\uart_wifi.c **** }
 3608              		.loc 1 1233 0
 3609              		@ sp needed
 3610 00ba F8BD     		pop	{r3, r4, r5, r6, r7, pc}
 3611              	.L325:
 3612              		.align	2
 3613              	.L324:
 3614 00bc 00000000 		.word	WifiWorkFlag
 3615 00c0 00000000 		.word	Tds_Ack_Timer
 3616 00c4 00000000 		.word	giTDSBOARDDATALength
 3617 00c8 00000000 		.word	ATTdsReceBuffer
 3618 00cc 00000000 		.word	giTDSBOARDCommand
 3619 00d0 00000000 		.word	Value_Loushui_Ad
 3620 00d4 00000000 		.word	Value_T
 3621 00d8 00000000 		.word	Value_Flow
 3622 00dc 00000000 		.word	Value_Tds0_Tmp
 3623 00e0 00000000 		.word	Value_Tds1_Tmp
 3624 00e4 00000000 		.word	Value_Tds0
 3625 00e8 00000000 		.word	Value_Tds1
 3626 00ec 00000000 		.word	gctdsboardCommunState
 3627              		.cfi_endproc
 3628              	.LFE83:
 3629              		.size	Process_From_Tdsboard_Data, .-Process_From_Tdsboard_Data
 3630              		.section	.text.Error_Send,"ax",%progbits
 3631              		.align	1
 3632              		.global	Error_Send
 3633              		.code	16
 3634              		.thumb_func
 3635              		.type	Error_Send, %function
 3636              	Error_Send:
 3637              	.LFB84:
1234:.\uart_wifi.c **** void Error_Send(void)
1235:.\uart_wifi.c **** {
 3638              		.loc 1 1235 0
 3639              		.cfi_startproc
1236:.\uart_wifi.c **** 
1237:.\uart_wifi.c **** 	if((ErrorFlag.Error_09==1)&&(SendFlag.host_e9_data==0))//漏水
 3640              		.loc 1 1237 0
 3641 0000 124B     		ldr	r3, .L329
1235:.\uart_wifi.c **** {
 3642              		.loc 1 1235 0
 3643 0002 10B5     		push	{r4, lr}
ARM GAS  C:\Users\kevin\AppData\Local\Temp\ccrA27HJ.s 			page 91


 3644              		.cfi_def_cfa_offset 8
 3645              		.cfi_offset 4, -8
 3646              		.cfi_offset 14, -4
 3647              		.loc 1 1237 0
 3648 0004 5A78     		ldrb	r2, [r3, #1]
 3649 0006 1C1C     		mov	r4, r3
 3650 0008 9007     		lsl	r0, r2, #30
 3651 000a 0CD5     		bpl	.L327
 3652              		.loc 1 1237 0 is_stmt 0 discriminator 1
 3653 000c 104B     		ldr	r3, .L329+4
 3654 000e 5A78     		ldrb	r2, [r3, #1]
 3655 0010 9107     		lsl	r1, r2, #30
 3656 0012 08D4     		bmi	.L327
1238:.\uart_wifi.c **** 		{
1239:.\uart_wifi.c **** 			SendFlag.host_e9_data=1;
 3657              		.loc 1 1239 0 is_stmt 1
 3658 0014 0221     		mov	r1, #2
 3659 0016 0A43     		orr	r2, r1
1240:.\uart_wifi.c **** 			Load_Error(HOST_E9_DATA);
 3660              		.loc 1 1240 0
 3661 0018 0E48     		ldr	r0, .L329+8
1239:.\uart_wifi.c **** 			SendFlag.host_e9_data=1;
 3662              		.loc 1 1239 0
 3663 001a 5A70     		strb	r2, [r3, #1]
 3664              		.loc 1 1240 0
 3665 001c FFF7FEFF 		bl	Load_Error
 3666              	.LVL134:
1241:.\uart_wifi.c **** 			Load_Command(HOST_E9_DATA);
 3667              		.loc 1 1241 0
 3668 0020 0C48     		ldr	r0, .L329+8
 3669 0022 FFF7FEFF 		bl	Load_Command
 3670              	.LVL135:
 3671              	.L327:
1242:.\uart_wifi.c **** 		}		
1243:.\uart_wifi.c **** 	if((ErrorFlag.Error_00==1)&&(SendFlag.host_e0_data==0))//制水超时故障上报
 3672              		.loc 1 1243 0
 3673 0026 2178     		ldrb	r1, [r4]
 3674 0028 C907     		lsl	r1, r1, #31
 3675 002a C90F     		lsr	r1, r1, #31
 3676 002c C9B2     		uxtb	r1, r1
 3677 002e 0129     		cmp	r1, #1
 3678 0030 0BD1     		bne	.L326
 3679              		.loc 1 1243 0 is_stmt 0 discriminator 1
 3680 0032 074B     		ldr	r3, .L329+4
 3681 0034 1A78     		ldrb	r2, [r3]
 3682 0036 D007     		lsl	r0, r2, #31
 3683 0038 07D4     		bmi	.L326
1244:.\uart_wifi.c **** 		{
1245:.\uart_wifi.c **** 			SendFlag.host_e0_data=1;
 3684              		.loc 1 1245 0 is_stmt 1
 3685 003a 0A43     		orr	r2, r1
1246:.\uart_wifi.c **** 			Load_Error(HOST_E0_DATA);
 3686              		.loc 1 1246 0
 3687 003c 0648     		ldr	r0, .L329+12
1245:.\uart_wifi.c **** 			SendFlag.host_e0_data=1;
 3688              		.loc 1 1245 0
 3689 003e 1A70     		strb	r2, [r3]
ARM GAS  C:\Users\kevin\AppData\Local\Temp\ccrA27HJ.s 			page 92


 3690              		.loc 1 1246 0
 3691 0040 FFF7FEFF 		bl	Load_Error
 3692              	.LVL136:
1247:.\uart_wifi.c **** 			Load_Command(HOST_E0_DATA);
 3693              		.loc 1 1247 0
 3694 0044 0448     		ldr	r0, .L329+12
 3695 0046 FFF7FEFF 		bl	Load_Command
 3696              	.LVL137:
 3697              	.L326:
1248:.\uart_wifi.c **** 		}
1249:.\uart_wifi.c **** }
 3698              		.loc 1 1249 0
 3699              		@ sp needed
 3700 004a 10BD     		pop	{r4, pc}
 3701              	.L330:
 3702              		.align	2
 3703              	.L329:
 3704 004c 00000000 		.word	ErrorFlag
 3705 0050 00000000 		.word	SendFlag
 3706 0054 F9900000 		.word	37113
 3707 0058 F0900000 		.word	37104
 3708              		.cfi_endproc
 3709              	.LFE84:
 3710              		.size	Error_Send, .-Error_Send
 3711              		.section	.text.Process_From_Wifi_Data,"ax",%progbits
 3712              		.align	1
 3713              		.global	Process_From_Wifi_Data
 3714              		.code	16
 3715              		.thumb_func
 3716              		.type	Process_From_Wifi_Data, %function
 3717              	Process_From_Wifi_Data:
 3718              	.LFB85:
1250:.\uart_wifi.c **** /*
1251:.\uart_wifi.c **** ***************************************************************************************************
1252:.\uart_wifi.c **** ** 函数名称 ：ProcessWIFIData()
1253:.\uart_wifi.c **** ** 函数功能 ：WIFI数据帧处理                        
1254:.\uart_wifi.c **** ** 入口参数 ：无
1255:.\uart_wifi.c **** ** 出口参数 ：无
1256:.\uart_wifi.c **** ***************************************************************************************************
1257:.\uart_wifi.c **** */
1258:.\uart_wifi.c **** void Process_From_Wifi_Data(void)
1259:.\uart_wifi.c **** {
 3719              		.loc 1 1259 0
 3720              		.cfi_startproc
 3721 0000 10B5     		push	{r4, lr}
 3722              		.cfi_def_cfa_offset 8
 3723              		.cfi_offset 4, -8
 3724              		.cfi_offset 14, -4
1260:.\uart_wifi.c ****     //uint8 i;//数据缓冲区判断，主要判断哪些代码需要发送	
1261:.\uart_wifi.c ****   //Rev_Uart();		
1262:.\uart_wifi.c **** 	if((gcWIFICTL & ACK_DATA) == ACK_DATA) 				// 返回指令
 3725              		.loc 1 1262 0
 3726 0002 074B     		ldr	r3, .L337
 3727 0004 1A78     		ldrb	r2, [r3]
 3728 0006 1C1C     		mov	r4, r3
 3729 0008 7F2A     		cmp	r2, #127
 3730 000a 01D9     		bls	.L332
ARM GAS  C:\Users\kevin\AppData\Local\Temp\ccrA27HJ.s 			page 93


1263:.\uart_wifi.c **** 		{	
1264:.\uart_wifi.c **** 			Process_From_Wifi_Ack_Data();
 3731              		.loc 1 1264 0
 3732 000c FFF7FEFF 		bl	Process_From_Wifi_Ack_Data
 3733              	.LVL138:
 3734              	.L332:
1265:.\uart_wifi.c **** 		}
1266:.\uart_wifi.c **** 	if((gcWIFICTL & NOA_DATA) == NOA_DATA) // 主动发送无需对方回复
 3735              		.loc 1 1266 0
 3736 0010 2378     		ldrb	r3, [r4]
 3737 0012 5A06     		lsl	r2, r3, #25
 3738 0014 01D5     		bpl	.L333
1267:.\uart_wifi.c **** 		{  	
1268:.\uart_wifi.c **** 			Process_From_Wifi_Noa_Data();
 3739              		.loc 1 1268 0
 3740 0016 FFF7FEFF 		bl	Process_From_Wifi_Noa_Data
 3741              	.LVL139:
 3742              	.L333:
1269:.\uart_wifi.c **** 		}
1270:.\uart_wifi.c **** 	if((gcWIFICTL & CTL_ACK_DATA) == CTL_ACK_DATA) // 主动发送需对方回复
1271:.\uart_wifi.c **** 		{  	
1272:.\uart_wifi.c **** 			Process_From_Wifi_Ctl_Ack_Data();
 3743              		.loc 1 1272 0
 3744 001a FFF7FEFF 		bl	Process_From_Wifi_Ctl_Ack_Data
 3745              	.LVL140:
1273:.\uart_wifi.c **** 		}
1274:.\uart_wifi.c **** }
 3746              		.loc 1 1274 0
 3747              		@ sp needed
 3748 001e 10BD     		pop	{r4, pc}
 3749              	.L338:
 3750              		.align	2
 3751              	.L337:
 3752 0020 00000000 		.word	gcWIFICTL
 3753              		.cfi_endproc
 3754              	.LFE85:
 3755              		.size	Process_From_Wifi_Data, .-Process_From_Wifi_Data
 3756              		.comm	iSendCounter,2,2
 3757              		.comm	iUartSendLen,2,2
 3758              		.comm	gcTDSBOARDCTL,1,1
 3759              		.comm	giTDSBOARDDATALength,2,2
 3760              		.comm	giTDSBOARDCommand,2,2
 3761              		.comm	gcWIFICTL,1,1
 3762              		.comm	giWIFIDATALength,2,2
 3763              		.comm	giWIFICommand,2,2
 3764              		.comm	Frame_Num,1,1
 3765              		.comm	gctdsboardCommunState,1,1
 3766              		.comm	gcWifiCommunState,1,1
 3767              		.comm	Error_Data_Buf,18,2
 3768              		.comm	Cmd_Function_Buf,16,2
 3769              		.comm	Cmd_Function,2,2
 3770              		.comm	Cmd_Function_Num,1,1
 3771              		.comm	WifidatagramWorkFlag,4,4
 3772              		.comm	ATTdsReceBuffer,32,2
 3773              		.comm	ATReceBuffer,102,2
 3774              		.global	Tab_tds_out
 3775              		.global	Tab_tds_in_02
ARM GAS  C:\Users\kevin\AppData\Local\Temp\ccrA27HJ.s 			page 94


 3776              		.global	Tab_tds_in_01
 3777              		.comm	Send_Interval_Counter,1,1
 3778              		.comm	Value_Flow,2,2
 3779              		.comm	Value_T,1,1
 3780              		.comm	Value_Loushui_Ad,2,2
 3781              		.comm	Value_Tds1_Tmp,2,2
 3782              		.comm	Value_Tds0_Tmp,2,2
 3783              		.comm	Value_Tds1,2,2
 3784              		.comm	Value_Tds0,2,2
 3785              		.comm	cpSendBufPtr,4,4
 3786              		.comm	Work_State_Num_L,1,1
 3787              		.comm	Work_State_Num_H,1,1
 3788              		.comm	Ack_Timer,1,1
 3789              		.comm	u8SmartLinkState,1,1
 3790              		.comm	u8LinkState,1,1
 3791              		.comm	TDScheck4,4,4
 3792              		.comm	TDScheck3,4,4
 3793              		.comm	TDScheck2,4,4
 3794              		.comm	TDScheck1,4,4
 3795              		.comm	WifiWorkFlag,4,4
 3796              		.section	.rodata
 3797              		.align	1
 3798              		.set	.LANCHOR0,. + 0
 3799              		.set	.LANCHOR1,. + 256
 3800              		.set	.LANCHOR2,. + 384
 3801              		.type	Tab_tds_in_01, %object
 3802              		.size	Tab_tds_in_01, 256
 3803              	Tab_tds_in_01:
 3804 0000 00       		.byte	0
 3805 0001 00       		.byte	0
 3806 0002 00       		.byte	0
 3807 0003 00       		.byte	0
 3808 0004 00       		.byte	0
 3809 0005 00       		.byte	0
 3810 0006 00       		.byte	0
 3811 0007 00       		.byte	0
 3812 0008 00       		.byte	0
 3813 0009 00       		.byte	0
 3814 000a 00       		.byte	0
 3815 000b 00       		.byte	0
 3816 000c 00       		.byte	0
 3817 000d 00       		.byte	0
 3818 000e 00       		.byte	0
 3819 000f 00       		.byte	0
 3820 0010 00       		.byte	0
 3821 0011 00       		.byte	0
 3822 0012 00       		.byte	0
 3823 0013 00       		.byte	0
 3824 0014 01       		.byte	1
 3825 0015 01       		.byte	1
 3826 0016 01       		.byte	1
 3827 0017 01       		.byte	1
 3828 0018 01       		.byte	1
 3829 0019 01       		.byte	1
 3830 001a 01       		.byte	1
 3831 001b 01       		.byte	1
 3832 001c 01       		.byte	1
ARM GAS  C:\Users\kevin\AppData\Local\Temp\ccrA27HJ.s 			page 95


 3833 001d 01       		.byte	1
 3834 001e 02       		.byte	2
 3835 001f 02       		.byte	2
 3836 0020 02       		.byte	2
 3837 0021 02       		.byte	2
 3838 0022 02       		.byte	2
 3839 0023 03       		.byte	3
 3840 0024 03       		.byte	3
 3841 0025 03       		.byte	3
 3842 0026 03       		.byte	3
 3843 0027 03       		.byte	3
 3844 0028 04       		.byte	4
 3845 0029 04       		.byte	4
 3846 002a 04       		.byte	4
 3847 002b 04       		.byte	4
 3848 002c 04       		.byte	4
 3849 002d 04       		.byte	4
 3850 002e 04       		.byte	4
 3851 002f 04       		.byte	4
 3852 0030 04       		.byte	4
 3853 0031 04       		.byte	4
 3854 0032 05       		.byte	5
 3855 0033 05       		.byte	5
 3856 0034 06       		.byte	6
 3857 0035 06       		.byte	6
 3858 0036 06       		.byte	6
 3859 0037 07       		.byte	7
 3860 0038 07       		.byte	7
 3861 0039 08       		.byte	8
 3862 003a 08       		.byte	8
 3863 003b 08       		.byte	8
 3864 003c 09       		.byte	9
 3865 003d 09       		.byte	9
 3866 003e 09       		.byte	9
 3867 003f 09       		.byte	9
 3868 0040 09       		.byte	9
 3869 0041 0A       		.byte	10
 3870 0042 0A       		.byte	10
 3871 0043 0A       		.byte	10
 3872 0044 0B       		.byte	11
 3873 0045 0C       		.byte	12
 3874 0046 0D       		.byte	13
 3875 0047 0D       		.byte	13
 3876 0048 0D       		.byte	13
 3877 0049 0E       		.byte	14
 3878 004a 0E       		.byte	14
 3879 004b 0E       		.byte	14
 3880 004c 0F       		.byte	15
 3881 004d 0F       		.byte	15
 3882 004e 10       		.byte	16
 3883 004f 10       		.byte	16
 3884 0050 11       		.byte	17
 3885 0051 12       		.byte	18
 3886 0052 12       		.byte	18
 3887 0053 12       		.byte	18
 3888 0054 13       		.byte	19
 3889 0055 13       		.byte	19
ARM GAS  C:\Users\kevin\AppData\Local\Temp\ccrA27HJ.s 			page 96


 3890 0056 14       		.byte	20
 3891 0057 14       		.byte	20
 3892 0058 15       		.byte	21
 3893 0059 15       		.byte	21
 3894 005a 16       		.byte	22
 3895 005b 17       		.byte	23
 3896 005c 18       		.byte	24
 3897 005d 19       		.byte	25
 3898 005e 1A       		.byte	26
 3899 005f 1B       		.byte	27
 3900 0060 1C       		.byte	28
 3901 0061 1D       		.byte	29
 3902 0062 1E       		.byte	30
 3903 0063 1F       		.byte	31
 3904 0064 1F       		.byte	31
 3905 0065 20       		.byte	32
 3906 0066 20       		.byte	32
 3907 0067 23       		.byte	35
 3908 0068 23       		.byte	35
 3909 0069 24       		.byte	36
 3910 006a 24       		.byte	36
 3911 006b 25       		.byte	37
 3912 006c 26       		.byte	38
 3913 006d 27       		.byte	39
 3914 006e 27       		.byte	39
 3915 006f 28       		.byte	40
 3916 0070 28       		.byte	40
 3917 0071 29       		.byte	41
 3918 0072 29       		.byte	41
 3919 0073 2A       		.byte	42
 3920 0074 2A       		.byte	42
 3921 0075 2B       		.byte	43
 3922 0076 2B       		.byte	43
 3923 0077 2C       		.byte	44
 3924 0078 2C       		.byte	44
 3925 0079 2D       		.byte	45
 3926 007a 2D       		.byte	45
 3927 007b 2E       		.byte	46
 3928 007c 2E       		.byte	46
 3929 007d 2F       		.byte	47
 3930 007e 30       		.byte	48
 3931 007f 31       		.byte	49
 3932 0080 32       		.byte	50
 3933 0081 33       		.byte	51
 3934 0082 34       		.byte	52
 3935 0083 35       		.byte	53
 3936 0084 36       		.byte	54
 3937 0085 37       		.byte	55
 3938 0086 38       		.byte	56
 3939 0087 39       		.byte	57
 3940 0088 3A       		.byte	58
 3941 0089 3B       		.byte	59
 3942 008a 3C       		.byte	60
 3943 008b 3D       		.byte	61
 3944 008c 3E       		.byte	62
 3945 008d 3F       		.byte	63
 3946 008e 40       		.byte	64
ARM GAS  C:\Users\kevin\AppData\Local\Temp\ccrA27HJ.s 			page 97


 3947 008f 41       		.byte	65
 3948 0090 42       		.byte	66
 3949 0091 43       		.byte	67
 3950 0092 44       		.byte	68
 3951 0093 44       		.byte	68
 3952 0094 45       		.byte	69
 3953 0095 46       		.byte	70
 3954 0096 47       		.byte	71
 3955 0097 48       		.byte	72
 3956 0098 49       		.byte	73
 3957 0099 4A       		.byte	74
 3958 009a 4B       		.byte	75
 3959 009b 4C       		.byte	76
 3960 009c 4D       		.byte	77
 3961 009d 4E       		.byte	78
 3962 009e 4F       		.byte	79
 3963 009f 50       		.byte	80
 3964 00a0 50       		.byte	80
 3965 00a1 51       		.byte	81
 3966 00a2 52       		.byte	82
 3967 00a3 53       		.byte	83
 3968 00a4 54       		.byte	84
 3969 00a5 55       		.byte	85
 3970 00a6 56       		.byte	86
 3971 00a7 57       		.byte	87
 3972 00a8 58       		.byte	88
 3973 00a9 59       		.byte	89
 3974 00aa 5A       		.byte	90
 3975 00ab 5B       		.byte	91
 3976 00ac 5C       		.byte	92
 3977 00ad 5D       		.byte	93
 3978 00ae 5E       		.byte	94
 3979 00af 5F       		.byte	95
 3980 00b0 60       		.byte	96
 3981 00b1 61       		.byte	97
 3982 00b2 62       		.byte	98
 3983 00b3 63       		.byte	99
 3984 00b4 64       		.byte	100
 3985 00b5 65       		.byte	101
 3986 00b6 66       		.byte	102
 3987 00b7 67       		.byte	103
 3988 00b8 68       		.byte	104
 3989 00b9 69       		.byte	105
 3990 00ba 6A       		.byte	106
 3991 00bb 6B       		.byte	107
 3992 00bc 6C       		.byte	108
 3993 00bd 6D       		.byte	109
 3994 00be 6E       		.byte	110
 3995 00bf 6F       		.byte	111
 3996 00c0 70       		.byte	112
 3997 00c1 71       		.byte	113
 3998 00c2 72       		.byte	114
 3999 00c3 73       		.byte	115
 4000 00c4 74       		.byte	116
 4001 00c5 75       		.byte	117
 4002 00c6 76       		.byte	118
 4003 00c7 78       		.byte	120
ARM GAS  C:\Users\kevin\AppData\Local\Temp\ccrA27HJ.s 			page 98


 4004 00c8 7A       		.byte	122
 4005 00c9 7C       		.byte	124
 4006 00ca 7E       		.byte	126
 4007 00cb 80       		.byte	-128
 4008 00cc 82       		.byte	-126
 4009 00cd 84       		.byte	-124
 4010 00ce 86       		.byte	-122
 4011 00cf 88       		.byte	-120
 4012 00d0 8A       		.byte	-118
 4013 00d1 8C       		.byte	-116
 4014 00d2 8E       		.byte	-114
 4015 00d3 90       		.byte	-112
 4016 00d4 92       		.byte	-110
 4017 00d5 94       		.byte	-108
 4018 00d6 96       		.byte	-106
 4019 00d7 98       		.byte	-104
 4020 00d8 9A       		.byte	-102
 4021 00d9 9C       		.byte	-100
 4022 00da 9E       		.byte	-98
 4023 00db A0       		.byte	-96
 4024 00dc A2       		.byte	-94
 4025 00dd A4       		.byte	-92
 4026 00de A6       		.byte	-90
 4027 00df A8       		.byte	-88
 4028 00e0 AA       		.byte	-86
 4029 00e1 AC       		.byte	-84
 4030 00e2 AE       		.byte	-82
 4031 00e3 B0       		.byte	-80
 4032 00e4 B2       		.byte	-78
 4033 00e5 B4       		.byte	-76
 4034 00e6 B7       		.byte	-73
 4035 00e7 BA       		.byte	-70
 4036 00e8 BD       		.byte	-67
 4037 00e9 C0       		.byte	-64
 4038 00ea C3       		.byte	-61
 4039 00eb C6       		.byte	-58
 4040 00ec C8       		.byte	-56
 4041 00ed CB       		.byte	-53
 4042 00ee CE       		.byte	-50
 4043 00ef D0       		.byte	-48
 4044 00f0 D2       		.byte	-46
 4045 00f1 D5       		.byte	-43
 4046 00f2 D8       		.byte	-40
 4047 00f3 DB       		.byte	-37
 4048 00f4 DE       		.byte	-34
 4049 00f5 E1       		.byte	-31
 4050 00f6 E4       		.byte	-28
 4051 00f7 E7       		.byte	-25
 4052 00f8 EA       		.byte	-22
 4053 00f9 ED       		.byte	-19
 4054 00fa F0       		.byte	-16
 4055 00fb F3       		.byte	-13
 4056 00fc F6       		.byte	-10
 4057 00fd F9       		.byte	-7
 4058 00fe FC       		.byte	-4
 4059 00ff FF       		.byte	-1
 4060              		.type	Tab_tds_in_02, %object
ARM GAS  C:\Users\kevin\AppData\Local\Temp\ccrA27HJ.s 			page 99


 4061              		.size	Tab_tds_in_02, 168
 4062              	Tab_tds_in_02:
 4063 0100 0401     		.short	260
 4064 0102 0801     		.short	264
 4065 0104 0C01     		.short	268
 4066 0106 1001     		.short	272
 4067 0108 1401     		.short	276
 4068 010a 1801     		.short	280
 4069 010c 1C01     		.short	284
 4070 010e 2001     		.short	288
 4071 0110 2401     		.short	292
 4072 0112 2801     		.short	296
 4073 0114 2C01     		.short	300
 4074 0116 3001     		.short	304
 4075 0118 3401     		.short	308
 4076 011a 3801     		.short	312
 4077 011c 3C01     		.short	316
 4078 011e 4001     		.short	320
 4079 0120 4401     		.short	324
 4080 0122 4801     		.short	328
 4081 0124 4C01     		.short	332
 4082 0126 5001     		.short	336
 4083 0128 5401     		.short	340
 4084 012a 5901     		.short	345
 4085 012c 5E01     		.short	350
 4086 012e 6301     		.short	355
 4087 0130 6801     		.short	360
 4088 0132 6D01     		.short	365
 4089 0134 7201     		.short	370
 4090 0136 7701     		.short	375
 4091 0138 7C01     		.short	380
 4092 013a 8101     		.short	385
 4093 013c 8601     		.short	390
 4094 013e 8B01     		.short	395
 4095 0140 9001     		.short	400
 4096 0142 9501     		.short	405
 4097 0144 9A01     		.short	410
 4098 0146 9F01     		.short	415
 4099 0148 A401     		.short	420
 4100 014a A901     		.short	425
 4101 014c AE01     		.short	430
 4102 014e B301     		.short	435
 4103 0150 B801     		.short	440
 4104 0152 BD01     		.short	445
 4105 0154 C201     		.short	450
 4106 0156 C701     		.short	455
 4107 0158 CC01     		.short	460
 4108 015a D101     		.short	465
 4109 015c D601     		.short	470
 4110 015e DB01     		.short	475
 4111 0160 E001     		.short	480
 4112 0162 E501     		.short	485
 4113 0164 EA01     		.short	490
 4114 0166 EF01     		.short	495
 4115 0168 F401     		.short	500
 4116 016a F901     		.short	505
 4117 016c FE01     		.short	510
ARM GAS  C:\Users\kevin\AppData\Local\Temp\ccrA27HJ.s 			page 100


 4118 016e 0302     		.short	515
 4119 0170 0802     		.short	520
 4120 0172 0D02     		.short	525
 4121 0174 1202     		.short	530
 4122 0176 1702     		.short	535
 4123 0178 1C02     		.short	540
 4124 017a 2102     		.short	545
 4125 017c 2602     		.short	550
 4126 017e 2B02     		.short	555
 4127 0180 3002     		.short	560
 4128 0182 3602     		.short	566
 4129 0184 3C02     		.short	572
 4130 0186 4202     		.short	578
 4131 0188 4802     		.short	584
 4132 018a 4E02     		.short	590
 4133 018c 5402     		.short	596
 4134 018e 5A02     		.short	602
 4135 0190 6002     		.short	608
 4136 0192 6602     		.short	614
 4137 0194 6C02     		.short	620
 4138 0196 7202     		.short	626
 4139 0198 7802     		.short	632
 4140 019a 7E02     		.short	638
 4141 019c 8402     		.short	644
 4142 019e 8A02     		.short	650
 4143 01a0 9002     		.short	656
 4144 01a2 9602     		.short	662
 4145 01a4 9C02     		.short	668
 4146 01a6 A002     		.short	672
 4147              		.type	Tab_tds_out, %object
 4148              		.size	Tab_tds_out, 79
 4149              	Tab_tds_out:
 4150 01a8 00       		.byte	0
 4151 01a9 01       		.byte	1
 4152 01aa 01       		.byte	1
 4153 01ab 01       		.byte	1
 4154 01ac 01       		.byte	1
 4155 01ad 01       		.byte	1
 4156 01ae 01       		.byte	1
 4157 01af 01       		.byte	1
 4158 01b0 01       		.byte	1
 4159 01b1 01       		.byte	1
 4160 01b2 01       		.byte	1
 4161 01b3 01       		.byte	1
 4162 01b4 01       		.byte	1
 4163 01b5 01       		.byte	1
 4164 01b6 01       		.byte	1
 4165 01b7 01       		.byte	1
 4166 01b8 01       		.byte	1
 4167 01b9 01       		.byte	1
 4168 01ba 01       		.byte	1
 4169 01bb 01       		.byte	1
 4170 01bc 00       		.byte	0
 4171 01bd 00       		.byte	0
 4172 01be 00       		.byte	0
 4173 01bf 00       		.byte	0
 4174 01c0 00       		.byte	0
ARM GAS  C:\Users\kevin\AppData\Local\Temp\ccrA27HJ.s 			page 101


 4175 01c1 00       		.byte	0
 4176 01c2 00       		.byte	0
 4177 01c3 00       		.byte	0
 4178 01c4 00       		.byte	0
 4179 01c5 00       		.byte	0
 4180 01c6 01       		.byte	1
 4181 01c7 01       		.byte	1
 4182 01c8 01       		.byte	1
 4183 01c9 01       		.byte	1
 4184 01ca 01       		.byte	1
 4185 01cb 02       		.byte	2
 4186 01cc 02       		.byte	2
 4187 01cd 02       		.byte	2
 4188 01ce 02       		.byte	2
 4189 01cf 02       		.byte	2
 4190 01d0 03       		.byte	3
 4191 01d1 03       		.byte	3
 4192 01d2 03       		.byte	3
 4193 01d3 03       		.byte	3
 4194 01d4 03       		.byte	3
 4195 01d5 04       		.byte	4
 4196 01d6 04       		.byte	4
 4197 01d7 04       		.byte	4
 4198 01d8 04       		.byte	4
 4199 01d9 04       		.byte	4
 4200 01da 05       		.byte	5
 4201 01db 05       		.byte	5
 4202 01dc 06       		.byte	6
 4203 01dd 06       		.byte	6
 4204 01de 07       		.byte	7
 4205 01df 07       		.byte	7
 4206 01e0 08       		.byte	8
 4207 01e1 08       		.byte	8
 4208 01e2 09       		.byte	9
 4209 01e3 09       		.byte	9
 4210 01e4 0A       		.byte	10
 4211 01e5 0A       		.byte	10
 4212 01e6 0B       		.byte	11
 4213 01e7 0B       		.byte	11
 4214 01e8 0C       		.byte	12
 4215 01e9 0C       		.byte	12
 4216 01ea 0D       		.byte	13
 4217 01eb 0D       		.byte	13
 4218 01ec 0E       		.byte	14
 4219 01ed 0E       		.byte	14
 4220 01ee 0F       		.byte	15
 4221 01ef 0F       		.byte	15
 4222 01f0 10       		.byte	16
 4223 01f1 10       		.byte	16
 4224 01f2 11       		.byte	17
 4225 01f3 12       		.byte	18
 4226 01f4 13       		.byte	19
 4227 01f5 14       		.byte	20
 4228 01f6 15       		.byte	21
 4229 01f7 00       		.bss
 4230              		.set	.LANCHOR3,. + 0
 4231              		.type	cBuf.7334, %object
ARM GAS  C:\Users\kevin\AppData\Local\Temp\ccrA27HJ.s 			page 102


 4232              		.size	cBuf.7334, 100
 4233              	cBuf.7334:
 4234 0000 00000000 		.space	100
 4234      00000000 
 4234      00000000 
 4234      00000000 
 4234      00000000 
 4235              		.text
 4236              	.Letext0:
 4237              		.file 2 ".\\Generated_Source\\PSoC4/cytypes.h"
 4238              		.file 3 ".\\fun.h"
 4239              		.file 4 ".\\uart_wifi.h"
 4240              		.file 5 ".\\module.h"
 4241              		.file 6 ".\\Generated_Source\\PSoC4/TestPort.h"
 4242              		.section	.debug_info,"",%progbits
 4243              	.Ldebug_info0:
 4244 0000 A8190000 		.4byte	0x19a8
 4245 0004 0400     		.2byte	0x4
 4246 0006 00000000 		.4byte	.Ldebug_abbrev0
 4247 000a 04       		.byte	0x4
 4248 000b 01       		.uleb128 0x1
 4249 000c 83010000 		.4byte	.LASF236
 4250 0010 01       		.byte	0x1
 4251 0011 44000000 		.4byte	.LASF237
 4252 0015 A3060000 		.4byte	.LASF238
 4253 0019 00000000 		.4byte	.Ldebug_ranges0+0
 4254 001d 00000000 		.4byte	0
 4255 0021 00000000 		.4byte	.Ldebug_line0
 4256 0025 02       		.uleb128 0x2
 4257 0026 01       		.byte	0x1
 4258 0027 06       		.byte	0x6
 4259 0028 D70B0000 		.4byte	.LASF0
 4260 002c 02       		.uleb128 0x2
 4261 002d 01       		.byte	0x1
 4262 002e 08       		.byte	0x8
 4263 002f 170B0000 		.4byte	.LASF1
 4264 0033 02       		.uleb128 0x2
 4265 0034 02       		.byte	0x2
 4266 0035 05       		.byte	0x5
 4267 0036 21090000 		.4byte	.LASF2
 4268 003a 02       		.uleb128 0x2
 4269 003b 02       		.byte	0x2
 4270 003c 07       		.byte	0x7
 4271 003d E30B0000 		.4byte	.LASF3
 4272 0041 02       		.uleb128 0x2
 4273 0042 04       		.byte	0x4
 4274 0043 05       		.byte	0x5
 4275 0044 3E090000 		.4byte	.LASF4
 4276 0048 02       		.uleb128 0x2
 4277 0049 04       		.byte	0x4
 4278 004a 07       		.byte	0x7
 4279 004b 5C0A0000 		.4byte	.LASF5
 4280 004f 02       		.uleb128 0x2
 4281 0050 08       		.byte	0x8
 4282 0051 05       		.byte	0x5
 4283 0052 1D070000 		.4byte	.LASF6
 4284 0056 02       		.uleb128 0x2
ARM GAS  C:\Users\kevin\AppData\Local\Temp\ccrA27HJ.s 			page 103


 4285 0057 08       		.byte	0x8
 4286 0058 07       		.byte	0x7
 4287 0059 AD030000 		.4byte	.LASF7
 4288 005d 03       		.uleb128 0x3
 4289 005e 04       		.byte	0x4
 4290 005f 05       		.byte	0x5
 4291 0060 696E7400 		.ascii	"int\000"
 4292 0064 02       		.uleb128 0x2
 4293 0065 04       		.byte	0x4
 4294 0066 07       		.byte	0x7
 4295 0067 12010000 		.4byte	.LASF8
 4296 006b 04       		.uleb128 0x4
 4297 006c 480C0000 		.4byte	.LASF9
 4298 0070 02       		.byte	0x2
 4299 0071 A1       		.byte	0xa1
 4300 0072 2C000000 		.4byte	0x2c
 4301 0076 04       		.uleb128 0x4
 4302 0077 43060000 		.4byte	.LASF10
 4303 007b 02       		.byte	0x2
 4304 007c A2       		.byte	0xa2
 4305 007d 3A000000 		.4byte	0x3a
 4306 0081 04       		.uleb128 0x4
 4307 0082 19080000 		.4byte	.LASF11
 4308 0086 02       		.byte	0x2
 4309 0087 A3       		.byte	0xa3
 4310 0088 48000000 		.4byte	0x48
 4311 008c 02       		.uleb128 0x2
 4312 008d 04       		.byte	0x4
 4313 008e 04       		.byte	0x4
 4314 008f 70030000 		.4byte	.LASF12
 4315 0093 02       		.uleb128 0x2
 4316 0094 08       		.byte	0x8
 4317 0095 04       		.byte	0x4
 4318 0096 4E0C0000 		.4byte	.LASF13
 4319 009a 02       		.uleb128 0x2
 4320 009b 01       		.byte	0x1
 4321 009c 08       		.byte	0x8
 4322 009d 0B060000 		.4byte	.LASF14
 4323 00a1 05       		.uleb128 0x5
 4324 00a2 D6080000 		.4byte	.LASF15
 4325 00a6 02       		.byte	0x2
 4326 00a7 4D01     		.2byte	0x14d
 4327 00a9 AD000000 		.4byte	0xad
 4328 00ad 06       		.uleb128 0x6
 4329 00ae 81000000 		.4byte	0x81
 4330 00b2 02       		.uleb128 0x2
 4331 00b3 04       		.byte	0x4
 4332 00b4 07       		.byte	0x7
 4333 00b5 460A0000 		.4byte	.LASF16
 4334 00b9 07       		.uleb128 0x7
 4335 00ba 04       		.byte	0x4
 4336 00bb 08       		.uleb128 0x8
 4337 00bc 04       		.byte	0x4
 4338 00bd 6B000000 		.4byte	0x6b
 4339 00c1 09       		.uleb128 0x9
 4340 00c2 04       		.byte	0x4
 4341 00c3 03       		.byte	0x3
ARM GAS  C:\Users\kevin\AppData\Local\Temp\ccrA27HJ.s 			page 104


 4342 00c4 8C       		.byte	0x8c
 4343 00c5 60010000 		.4byte	0x160
 4344 00c9 0A       		.uleb128 0xa
 4345 00ca 52000000 		.4byte	.LASF17
 4346 00ce 03       		.byte	0x3
 4347 00cf 8E       		.byte	0x8e
 4348 00d0 64000000 		.4byte	0x64
 4349 00d4 04       		.byte	0x4
 4350 00d5 01       		.byte	0x1
 4351 00d6 1F       		.byte	0x1f
 4352 00d7 00       		.byte	0
 4353 00d8 0A       		.uleb128 0xa
 4354 00d9 5B000000 		.4byte	.LASF18
 4355 00dd 03       		.byte	0x3
 4356 00de 8F       		.byte	0x8f
 4357 00df 64000000 		.4byte	0x64
 4358 00e3 04       		.byte	0x4
 4359 00e4 01       		.byte	0x1
 4360 00e5 1E       		.byte	0x1e
 4361 00e6 00       		.byte	0
 4362 00e7 0A       		.uleb128 0xa
 4363 00e8 64000000 		.4byte	.LASF19
 4364 00ec 03       		.byte	0x3
 4365 00ed 90       		.byte	0x90
 4366 00ee 64000000 		.4byte	0x64
 4367 00f2 04       		.byte	0x4
 4368 00f3 01       		.byte	0x1
 4369 00f4 1D       		.byte	0x1d
 4370 00f5 00       		.byte	0
 4371 00f6 0A       		.uleb128 0xa
 4372 00f7 6D000000 		.4byte	.LASF20
 4373 00fb 03       		.byte	0x3
 4374 00fc 91       		.byte	0x91
 4375 00fd 64000000 		.4byte	0x64
 4376 0101 04       		.byte	0x4
 4377 0102 01       		.byte	0x1
 4378 0103 1C       		.byte	0x1c
 4379 0104 00       		.byte	0
 4380 0105 0A       		.uleb128 0xa
 4381 0106 76000000 		.4byte	.LASF21
 4382 010a 03       		.byte	0x3
 4383 010b 92       		.byte	0x92
 4384 010c 64000000 		.4byte	0x64
 4385 0110 04       		.byte	0x4
 4386 0111 01       		.byte	0x1
 4387 0112 1B       		.byte	0x1b
 4388 0113 00       		.byte	0
 4389 0114 0A       		.uleb128 0xa
 4390 0115 7F000000 		.4byte	.LASF22
 4391 0119 03       		.byte	0x3
 4392 011a 93       		.byte	0x93
 4393 011b 64000000 		.4byte	0x64
 4394 011f 04       		.byte	0x4
 4395 0120 01       		.byte	0x1
 4396 0121 1A       		.byte	0x1a
 4397 0122 00       		.byte	0
 4398 0123 0A       		.uleb128 0xa
ARM GAS  C:\Users\kevin\AppData\Local\Temp\ccrA27HJ.s 			page 105


 4399 0124 88000000 		.4byte	.LASF23
 4400 0128 03       		.byte	0x3
 4401 0129 94       		.byte	0x94
 4402 012a 64000000 		.4byte	0x64
 4403 012e 04       		.byte	0x4
 4404 012f 01       		.byte	0x1
 4405 0130 19       		.byte	0x19
 4406 0131 00       		.byte	0
 4407 0132 0A       		.uleb128 0xa
 4408 0133 91000000 		.4byte	.LASF24
 4409 0137 03       		.byte	0x3
 4410 0138 95       		.byte	0x95
 4411 0139 64000000 		.4byte	0x64
 4412 013d 04       		.byte	0x4
 4413 013e 01       		.byte	0x1
 4414 013f 18       		.byte	0x18
 4415 0140 00       		.byte	0
 4416 0141 0A       		.uleb128 0xa
 4417 0142 9A000000 		.4byte	.LASF25
 4418 0146 03       		.byte	0x3
 4419 0147 96       		.byte	0x96
 4420 0148 64000000 		.4byte	0x64
 4421 014c 04       		.byte	0x4
 4422 014d 01       		.byte	0x1
 4423 014e 17       		.byte	0x17
 4424 014f 00       		.byte	0
 4425 0150 0A       		.uleb128 0xa
 4426 0151 A3000000 		.4byte	.LASF26
 4427 0155 03       		.byte	0x3
 4428 0156 97       		.byte	0x97
 4429 0157 64000000 		.4byte	0x64
 4430 015b 04       		.byte	0x4
 4431 015c 01       		.byte	0x1
 4432 015d 16       		.byte	0x16
 4433 015e 00       		.byte	0
 4434 015f 00       		.byte	0
 4435 0160 09       		.uleb128 0x9
 4436 0161 04       		.byte	0x4
 4437 0162 03       		.byte	0x3
 4438 0163 A0       		.byte	0xa0
 4439 0164 1C030000 		.4byte	0x31c
 4440 0168 0A       		.uleb128 0xa
 4441 0169 64020000 		.4byte	.LASF27
 4442 016d 03       		.byte	0x3
 4443 016e A1       		.byte	0xa1
 4444 016f 64000000 		.4byte	0x64
 4445 0173 04       		.byte	0x4
 4446 0174 01       		.byte	0x1
 4447 0175 1F       		.byte	0x1f
 4448 0176 00       		.byte	0
 4449 0177 0A       		.uleb128 0xa
 4450 0178 76030000 		.4byte	.LASF28
 4451 017c 03       		.byte	0x3
 4452 017d A2       		.byte	0xa2
 4453 017e 64000000 		.4byte	0x64
 4454 0182 04       		.byte	0x4
 4455 0183 01       		.byte	0x1
ARM GAS  C:\Users\kevin\AppData\Local\Temp\ccrA27HJ.s 			page 106


 4456 0184 1E       		.byte	0x1e
 4457 0185 00       		.byte	0
 4458 0186 0A       		.uleb128 0xa
 4459 0187 69040000 		.4byte	.LASF29
 4460 018b 03       		.byte	0x3
 4461 018c A3       		.byte	0xa3
 4462 018d 64000000 		.4byte	0x64
 4463 0191 04       		.byte	0x4
 4464 0192 01       		.byte	0x1
 4465 0193 1D       		.byte	0x1d
 4466 0194 00       		.byte	0
 4467 0195 0A       		.uleb128 0xa
 4468 0196 5E020000 		.4byte	.LASF30
 4469 019a 03       		.byte	0x3
 4470 019b A4       		.byte	0xa4
 4471 019c 64000000 		.4byte	0x64
 4472 01a0 04       		.byte	0x4
 4473 01a1 01       		.byte	0x1
 4474 01a2 1C       		.byte	0x1c
 4475 01a3 00       		.byte	0
 4476 01a4 0A       		.uleb128 0xa
 4477 01a5 5A010000 		.4byte	.LASF31
 4478 01a9 03       		.byte	0x3
 4479 01aa A5       		.byte	0xa5
 4480 01ab 64000000 		.4byte	0x64
 4481 01af 04       		.byte	0x4
 4482 01b0 01       		.byte	0x1
 4483 01b1 1B       		.byte	0x1b
 4484 01b2 00       		.byte	0
 4485 01b3 0A       		.uleb128 0xa
 4486 01b4 A1030000 		.4byte	.LASF32
 4487 01b8 03       		.byte	0x3
 4488 01b9 A6       		.byte	0xa6
 4489 01ba 64000000 		.4byte	0x64
 4490 01be 04       		.byte	0x4
 4491 01bf 01       		.byte	0x1
 4492 01c0 1A       		.byte	0x1a
 4493 01c1 00       		.byte	0
 4494 01c2 0A       		.uleb128 0xa
 4495 01c3 C1040000 		.4byte	.LASF33
 4496 01c7 03       		.byte	0x3
 4497 01c8 A7       		.byte	0xa7
 4498 01c9 64000000 		.4byte	0x64
 4499 01cd 04       		.byte	0x4
 4500 01ce 01       		.byte	0x1
 4501 01cf 19       		.byte	0x19
 4502 01d0 00       		.byte	0
 4503 01d1 0A       		.uleb128 0xa
 4504 01d2 C8070000 		.4byte	.LASF34
 4505 01d6 03       		.byte	0x3
 4506 01d7 A8       		.byte	0xa8
 4507 01d8 64000000 		.4byte	0x64
 4508 01dc 04       		.byte	0x4
 4509 01dd 01       		.byte	0x1
 4510 01de 18       		.byte	0x18
 4511 01df 00       		.byte	0
 4512 01e0 0A       		.uleb128 0xa
ARM GAS  C:\Users\kevin\AppData\Local\Temp\ccrA27HJ.s 			page 107


 4513 01e1 0C090000 		.4byte	.LASF35
 4514 01e5 03       		.byte	0x3
 4515 01e6 A9       		.byte	0xa9
 4516 01e7 64000000 		.4byte	0x64
 4517 01eb 04       		.byte	0x4
 4518 01ec 01       		.byte	0x1
 4519 01ed 17       		.byte	0x17
 4520 01ee 00       		.byte	0
 4521 01ef 0A       		.uleb128 0xa
 4522 01f0 7C070000 		.4byte	.LASF36
 4523 01f4 03       		.byte	0x3
 4524 01f5 AA       		.byte	0xaa
 4525 01f6 64000000 		.4byte	0x64
 4526 01fa 04       		.byte	0x4
 4527 01fb 01       		.byte	0x1
 4528 01fc 16       		.byte	0x16
 4529 01fd 00       		.byte	0
 4530 01fe 0A       		.uleb128 0xa
 4531 01ff 80060000 		.4byte	.LASF37
 4532 0203 03       		.byte	0x3
 4533 0204 AB       		.byte	0xab
 4534 0205 64000000 		.4byte	0x64
 4535 0209 04       		.byte	0x4
 4536 020a 01       		.byte	0x1
 4537 020b 15       		.byte	0x15
 4538 020c 00       		.byte	0
 4539 020d 0A       		.uleb128 0xa
 4540 020e 940B0000 		.4byte	.LASF38
 4541 0212 03       		.byte	0x3
 4542 0213 AC       		.byte	0xac
 4543 0214 64000000 		.4byte	0x64
 4544 0218 04       		.byte	0x4
 4545 0219 01       		.byte	0x1
 4546 021a 14       		.byte	0x14
 4547 021b 00       		.byte	0
 4548 021c 0A       		.uleb128 0xa
 4549 021d 2B050000 		.4byte	.LASF39
 4550 0221 03       		.byte	0x3
 4551 0222 AD       		.byte	0xad
 4552 0223 64000000 		.4byte	0x64
 4553 0227 04       		.byte	0x4
 4554 0228 01       		.byte	0x1
 4555 0229 13       		.byte	0x13
 4556 022a 00       		.byte	0
 4557 022b 0A       		.uleb128 0xa
 4558 022c 9E060000 		.4byte	.LASF40
 4559 0230 03       		.byte	0x3
 4560 0231 AE       		.byte	0xae
 4561 0232 64000000 		.4byte	0x64
 4562 0236 04       		.byte	0x4
 4563 0237 01       		.byte	0x1
 4564 0238 12       		.byte	0x12
 4565 0239 00       		.byte	0
 4566 023a 0A       		.uleb128 0xa
 4567 023b AF040000 		.4byte	.LASF41
 4568 023f 03       		.byte	0x3
 4569 0240 AF       		.byte	0xaf
ARM GAS  C:\Users\kevin\AppData\Local\Temp\ccrA27HJ.s 			page 108


 4570 0241 64000000 		.4byte	0x64
 4571 0245 04       		.byte	0x4
 4572 0246 01       		.byte	0x1
 4573 0247 11       		.byte	0x11
 4574 0248 00       		.byte	0
 4575 0249 0A       		.uleb128 0xa
 4576 024a 37000000 		.4byte	.LASF42
 4577 024e 03       		.byte	0x3
 4578 024f B0       		.byte	0xb0
 4579 0250 64000000 		.4byte	0x64
 4580 0254 04       		.byte	0x4
 4581 0255 01       		.byte	0x1
 4582 0256 10       		.byte	0x10
 4583 0257 00       		.byte	0
 4584 0258 0A       		.uleb128 0xa
 4585 0259 20080000 		.4byte	.LASF43
 4586 025d 03       		.byte	0x3
 4587 025e B1       		.byte	0xb1
 4588 025f 64000000 		.4byte	0x64
 4589 0263 04       		.byte	0x4
 4590 0264 01       		.byte	0x1
 4591 0265 0F       		.byte	0xf
 4592 0266 00       		.byte	0
 4593 0267 0A       		.uleb128 0xa
 4594 0268 E70A0000 		.4byte	.LASF44
 4595 026c 03       		.byte	0x3
 4596 026d B2       		.byte	0xb2
 4597 026e 64000000 		.4byte	0x64
 4598 0272 04       		.byte	0x4
 4599 0273 01       		.byte	0x1
 4600 0274 0E       		.byte	0xe
 4601 0275 00       		.byte	0
 4602 0276 0A       		.uleb128 0xa
 4603 0277 220A0000 		.4byte	.LASF45
 4604 027b 03       		.byte	0x3
 4605 027c B3       		.byte	0xb3
 4606 027d 64000000 		.4byte	0x64
 4607 0281 04       		.byte	0x4
 4608 0282 01       		.byte	0x1
 4609 0283 0D       		.byte	0xd
 4610 0284 00       		.byte	0
 4611 0285 0A       		.uleb128 0xa
 4612 0286 A2080000 		.4byte	.LASF46
 4613 028a 03       		.byte	0x3
 4614 028b B4       		.byte	0xb4
 4615 028c 64000000 		.4byte	0x64
 4616 0290 04       		.byte	0x4
 4617 0291 01       		.byte	0x1
 4618 0292 0C       		.byte	0xc
 4619 0293 00       		.byte	0
 4620 0294 0A       		.uleb128 0xa
 4621 0295 A3040000 		.4byte	.LASF47
 4622 0299 03       		.byte	0x3
 4623 029a B5       		.byte	0xb5
 4624 029b 64000000 		.4byte	0x64
 4625 029f 04       		.byte	0x4
 4626 02a0 01       		.byte	0x1
ARM GAS  C:\Users\kevin\AppData\Local\Temp\ccrA27HJ.s 			page 109


 4627 02a1 0B       		.byte	0xb
 4628 02a2 00       		.byte	0
 4629 02a3 0A       		.uleb128 0xa
 4630 02a4 81040000 		.4byte	.LASF48
 4631 02a8 03       		.byte	0x3
 4632 02a9 B6       		.byte	0xb6
 4633 02aa 64000000 		.4byte	0x64
 4634 02ae 04       		.byte	0x4
 4635 02af 01       		.byte	0x1
 4636 02b0 0A       		.byte	0xa
 4637 02b1 00       		.byte	0
 4638 02b2 0A       		.uleb128 0xa
 4639 02b3 9C020000 		.4byte	.LASF49
 4640 02b7 03       		.byte	0x3
 4641 02b8 B7       		.byte	0xb7
 4642 02b9 64000000 		.4byte	0x64
 4643 02bd 04       		.byte	0x4
 4644 02be 01       		.byte	0x1
 4645 02bf 09       		.byte	0x9
 4646 02c0 00       		.byte	0
 4647 02c1 0A       		.uleb128 0xa
 4648 02c2 27080000 		.4byte	.LASF50
 4649 02c6 03       		.byte	0x3
 4650 02c7 B8       		.byte	0xb8
 4651 02c8 64000000 		.4byte	0x64
 4652 02cc 04       		.byte	0x4
 4653 02cd 01       		.byte	0x1
 4654 02ce 08       		.byte	0x8
 4655 02cf 00       		.byte	0
 4656 02d0 0A       		.uleb128 0xa
 4657 02d1 87020000 		.4byte	.LASF51
 4658 02d5 03       		.byte	0x3
 4659 02d6 B9       		.byte	0xb9
 4660 02d7 64000000 		.4byte	0x64
 4661 02db 04       		.byte	0x4
 4662 02dc 01       		.byte	0x1
 4663 02dd 07       		.byte	0x7
 4664 02de 00       		.byte	0
 4665 02df 0A       		.uleb128 0xa
 4666 02e0 57060000 		.4byte	.LASF52
 4667 02e4 03       		.byte	0x3
 4668 02e5 BA       		.byte	0xba
 4669 02e6 64000000 		.4byte	0x64
 4670 02ea 04       		.byte	0x4
 4671 02eb 01       		.byte	0x1
 4672 02ec 06       		.byte	0x6
 4673 02ed 00       		.byte	0
 4674 02ee 0A       		.uleb128 0xa
 4675 02ef 96060000 		.4byte	.LASF53
 4676 02f3 03       		.byte	0x3
 4677 02f4 BB       		.byte	0xbb
 4678 02f5 64000000 		.4byte	0x64
 4679 02f9 04       		.byte	0x4
 4680 02fa 01       		.byte	0x1
 4681 02fb 05       		.byte	0x5
 4682 02fc 00       		.byte	0
 4683 02fd 0A       		.uleb128 0xa
ARM GAS  C:\Users\kevin\AppData\Local\Temp\ccrA27HJ.s 			page 110


 4684 02fe 31020000 		.4byte	.LASF54
 4685 0302 03       		.byte	0x3
 4686 0303 BC       		.byte	0xbc
 4687 0304 64000000 		.4byte	0x64
 4688 0308 04       		.byte	0x4
 4689 0309 01       		.byte	0x1
 4690 030a 04       		.byte	0x4
 4691 030b 00       		.byte	0
 4692 030c 0A       		.uleb128 0xa
 4693 030d 55020000 		.4byte	.LASF55
 4694 0311 03       		.byte	0x3
 4695 0312 BD       		.byte	0xbd
 4696 0313 64000000 		.4byte	0x64
 4697 0317 04       		.byte	0x4
 4698 0318 01       		.byte	0x1
 4699 0319 03       		.byte	0x3
 4700 031a 00       		.byte	0
 4701 031b 00       		.byte	0
 4702 031c 09       		.uleb128 0x9
 4703 031d 04       		.byte	0x4
 4704 031e 03       		.byte	0x3
 4705 031f C0       		.byte	0xc0
 4706 0320 BB030000 		.4byte	0x3bb
 4707 0324 0A       		.uleb128 0xa
 4708 0325 E1080000 		.4byte	.LASF56
 4709 0329 03       		.byte	0x3
 4710 032a C1       		.byte	0xc1
 4711 032b 64000000 		.4byte	0x64
 4712 032f 04       		.byte	0x4
 4713 0330 01       		.byte	0x1
 4714 0331 1F       		.byte	0x1f
 4715 0332 00       		.byte	0
 4716 0333 0A       		.uleb128 0xa
 4717 0334 B4040000 		.4byte	.LASF57
 4718 0338 03       		.byte	0x3
 4719 0339 C2       		.byte	0xc2
 4720 033a 64000000 		.4byte	0x64
 4721 033e 04       		.byte	0x4
 4722 033f 01       		.byte	0x1
 4723 0340 1E       		.byte	0x1e
 4724 0341 00       		.byte	0
 4725 0342 0A       		.uleb128 0xa
 4726 0343 BF0A0000 		.4byte	.LASF58
 4727 0347 03       		.byte	0x3
 4728 0348 C3       		.byte	0xc3
 4729 0349 64000000 		.4byte	0x64
 4730 034d 04       		.byte	0x4
 4731 034e 01       		.byte	0x1
 4732 034f 1D       		.byte	0x1d
 4733 0350 00       		.byte	0
 4734 0351 0A       		.uleb128 0xa
 4735 0352 89060000 		.4byte	.LASF59
 4736 0356 03       		.byte	0x3
 4737 0357 C4       		.byte	0xc4
 4738 0358 64000000 		.4byte	0x64
 4739 035c 04       		.byte	0x4
 4740 035d 01       		.byte	0x1
ARM GAS  C:\Users\kevin\AppData\Local\Temp\ccrA27HJ.s 			page 111


 4741 035e 1C       		.byte	0x1c
 4742 035f 00       		.byte	0
 4743 0360 0A       		.uleb128 0xa
 4744 0361 1D020000 		.4byte	.LASF60
 4745 0365 03       		.byte	0x3
 4746 0366 C5       		.byte	0xc5
 4747 0367 64000000 		.4byte	0x64
 4748 036b 04       		.byte	0x4
 4749 036c 01       		.byte	0x1
 4750 036d 1B       		.byte	0x1b
 4751 036e 00       		.byte	0
 4752 036f 0A       		.uleb128 0xa
 4753 0370 C9080000 		.4byte	.LASF61
 4754 0374 03       		.byte	0x3
 4755 0375 C6       		.byte	0xc6
 4756 0376 64000000 		.4byte	0x64
 4757 037a 04       		.byte	0x4
 4758 037b 01       		.byte	0x1
 4759 037c 1A       		.byte	0x1a
 4760 037d 00       		.byte	0
 4761 037e 0A       		.uleb128 0xa
 4762 037f 4C040000 		.4byte	.LASF62
 4763 0383 03       		.byte	0x3
 4764 0384 C7       		.byte	0xc7
 4765 0385 64000000 		.4byte	0x64
 4766 0389 04       		.byte	0x4
 4767 038a 01       		.byte	0x1
 4768 038b 19       		.byte	0x19
 4769 038c 00       		.byte	0
 4770 038d 0A       		.uleb128 0xa
 4771 038e C20B0000 		.4byte	.LASF63
 4772 0392 03       		.byte	0x3
 4773 0393 C8       		.byte	0xc8
 4774 0394 64000000 		.4byte	0x64
 4775 0398 04       		.byte	0x4
 4776 0399 01       		.byte	0x1
 4777 039a 18       		.byte	0x18
 4778 039b 00       		.byte	0
 4779 039c 0A       		.uleb128 0xa
 4780 039d 4A060000 		.4byte	.LASF64
 4781 03a1 03       		.byte	0x3
 4782 03a2 C9       		.byte	0xc9
 4783 03a3 64000000 		.4byte	0x64
 4784 03a7 04       		.byte	0x4
 4785 03a8 01       		.byte	0x1
 4786 03a9 17       		.byte	0x17
 4787 03aa 00       		.byte	0
 4788 03ab 0A       		.uleb128 0xa
 4789 03ac 39010000 		.4byte	.LASF65
 4790 03b0 03       		.byte	0x3
 4791 03b1 CA       		.byte	0xca
 4792 03b2 64000000 		.4byte	0x64
 4793 03b6 04       		.byte	0x4
 4794 03b7 01       		.byte	0x1
 4795 03b8 16       		.byte	0x16
 4796 03b9 00       		.byte	0
 4797 03ba 00       		.byte	0
ARM GAS  C:\Users\kevin\AppData\Local\Temp\ccrA27HJ.s 			page 112


 4798 03bb 09       		.uleb128 0x9
 4799 03bc 04       		.byte	0x4
 4800 03bd 03       		.byte	0x3
 4801 03be D1       		.byte	0xd1
 4802 03bf E2030000 		.4byte	0x3e2
 4803 03c3 0A       		.uleb128 0xa
 4804 03c4 CA0C0000 		.4byte	.LASF66
 4805 03c8 03       		.byte	0x3
 4806 03c9 D3       		.byte	0xd3
 4807 03ca 64000000 		.4byte	0x64
 4808 03ce 04       		.byte	0x4
 4809 03cf 01       		.byte	0x1
 4810 03d0 1F       		.byte	0x1f
 4811 03d1 00       		.byte	0
 4812 03d2 0A       		.uleb128 0xa
 4813 03d3 FF010000 		.4byte	.LASF67
 4814 03d7 03       		.byte	0x3
 4815 03d8 D4       		.byte	0xd4
 4816 03d9 64000000 		.4byte	0x64
 4817 03dd 04       		.byte	0x4
 4818 03de 01       		.byte	0x1
 4819 03df 1E       		.byte	0x1e
 4820 03e0 00       		.byte	0
 4821 03e1 00       		.byte	0
 4822 03e2 0B       		.uleb128 0xb
 4823 03e3 04       		.byte	0x4
 4824 03e4 03       		.byte	0x3
 4825 03e5 CE       		.byte	0xce
 4826 03e6 01040000 		.4byte	0x401
 4827 03ea 0C       		.uleb128 0xc
 4828 03eb 616C6C00 		.ascii	"all\000"
 4829 03ef 03       		.byte	0x3
 4830 03f0 D0       		.byte	0xd0
 4831 03f1 6B000000 		.4byte	0x6b
 4832 03f5 0C       		.uleb128 0xc
 4833 03f6 62697400 		.ascii	"bit\000"
 4834 03fa 03       		.byte	0x3
 4835 03fb D5       		.byte	0xd5
 4836 03fc BB030000 		.4byte	0x3bb
 4837 0400 00       		.byte	0
 4838 0401 09       		.uleb128 0x9
 4839 0402 04       		.byte	0x4
 4840 0403 03       		.byte	0x3
 4841 0404 DB       		.byte	0xdb
 4842 0405 46040000 		.4byte	0x446
 4843 0409 0A       		.uleb128 0xa
 4844 040a 9E090000 		.4byte	.LASF68
 4845 040e 03       		.byte	0x3
 4846 040f DD       		.byte	0xdd
 4847 0410 64000000 		.4byte	0x64
 4848 0414 04       		.byte	0x4
 4849 0415 01       		.byte	0x1
 4850 0416 1F       		.byte	0x1f
 4851 0417 00       		.byte	0
 4852 0418 0A       		.uleb128 0xa
 4853 0419 3C000000 		.4byte	.LASF69
 4854 041d 03       		.byte	0x3
ARM GAS  C:\Users\kevin\AppData\Local\Temp\ccrA27HJ.s 			page 113


 4855 041e DE       		.byte	0xde
 4856 041f 64000000 		.4byte	0x64
 4857 0423 04       		.byte	0x4
 4858 0424 01       		.byte	0x1
 4859 0425 1E       		.byte	0x1e
 4860 0426 00       		.byte	0
 4861 0427 0A       		.uleb128 0xa
 4862 0428 B80A0000 		.4byte	.LASF70
 4863 042c 03       		.byte	0x3
 4864 042d DF       		.byte	0xdf
 4865 042e 64000000 		.4byte	0x64
 4866 0432 04       		.byte	0x4
 4867 0433 01       		.byte	0x1
 4868 0434 1D       		.byte	0x1d
 4869 0435 00       		.byte	0
 4870 0436 0A       		.uleb128 0xa
 4871 0437 72050000 		.4byte	.LASF71
 4872 043b 03       		.byte	0x3
 4873 043c E0       		.byte	0xe0
 4874 043d 64000000 		.4byte	0x64
 4875 0441 04       		.byte	0x4
 4876 0442 01       		.byte	0x1
 4877 0443 1C       		.byte	0x1c
 4878 0444 00       		.byte	0
 4879 0445 00       		.byte	0
 4880 0446 0B       		.uleb128 0xb
 4881 0447 04       		.byte	0x4
 4882 0448 03       		.byte	0x3
 4883 0449 D8       		.byte	0xd8
 4884 044a 65040000 		.4byte	0x465
 4885 044e 0C       		.uleb128 0xc
 4886 044f 616C6C00 		.ascii	"all\000"
 4887 0453 03       		.byte	0x3
 4888 0454 DA       		.byte	0xda
 4889 0455 6B000000 		.4byte	0x6b
 4890 0459 0C       		.uleb128 0xc
 4891 045a 62697400 		.ascii	"bit\000"
 4892 045e 03       		.byte	0x3
 4893 045f E1       		.byte	0xe1
 4894 0460 01040000 		.4byte	0x401
 4895 0464 00       		.byte	0
 4896 0465 09       		.uleb128 0x9
 4897 0466 04       		.byte	0x4
 4898 0467 03       		.byte	0x3
 4899 0468 F8       		.byte	0xf8
 4900 0469 E8040000 		.4byte	0x4e8
 4901 046d 0A       		.uleb128 0xa
 4902 046e 0C040000 		.4byte	.LASF72
 4903 0472 03       		.byte	0x3
 4904 0473 FA       		.byte	0xfa
 4905 0474 64000000 		.4byte	0x64
 4906 0478 04       		.byte	0x4
 4907 0479 01       		.byte	0x1
 4908 047a 1F       		.byte	0x1f
 4909 047b 00       		.byte	0
 4910 047c 0A       		.uleb128 0xa
 4911 047d 14040000 		.4byte	.LASF73
ARM GAS  C:\Users\kevin\AppData\Local\Temp\ccrA27HJ.s 			page 114


 4912 0481 03       		.byte	0x3
 4913 0482 FB       		.byte	0xfb
 4914 0483 64000000 		.4byte	0x64
 4915 0487 04       		.byte	0x4
 4916 0488 01       		.byte	0x1
 4917 0489 1E       		.byte	0x1e
 4918 048a 00       		.byte	0
 4919 048b 0A       		.uleb128 0xa
 4920 048c 1C040000 		.4byte	.LASF74
 4921 0490 03       		.byte	0x3
 4922 0491 FC       		.byte	0xfc
 4923 0492 64000000 		.4byte	0x64
 4924 0496 04       		.byte	0x4
 4925 0497 01       		.byte	0x1
 4926 0498 1D       		.byte	0x1d
 4927 0499 00       		.byte	0
 4928 049a 0A       		.uleb128 0xa
 4929 049b 24040000 		.4byte	.LASF75
 4930 049f 03       		.byte	0x3
 4931 04a0 FD       		.byte	0xfd
 4932 04a1 64000000 		.4byte	0x64
 4933 04a5 04       		.byte	0x4
 4934 04a6 01       		.byte	0x1
 4935 04a7 1C       		.byte	0x1c
 4936 04a8 00       		.byte	0
 4937 04a9 0A       		.uleb128 0xa
 4938 04aa 2C040000 		.4byte	.LASF76
 4939 04ae 03       		.byte	0x3
 4940 04af FE       		.byte	0xfe
 4941 04b0 64000000 		.4byte	0x64
 4942 04b4 04       		.byte	0x4
 4943 04b5 01       		.byte	0x1
 4944 04b6 1B       		.byte	0x1b
 4945 04b7 00       		.byte	0
 4946 04b8 0A       		.uleb128 0xa
 4947 04b9 34040000 		.4byte	.LASF77
 4948 04bd 03       		.byte	0x3
 4949 04be FF       		.byte	0xff
 4950 04bf 64000000 		.4byte	0x64
 4951 04c3 04       		.byte	0x4
 4952 04c4 01       		.byte	0x1
 4953 04c5 1A       		.byte	0x1a
 4954 04c6 00       		.byte	0
 4955 04c7 0D       		.uleb128 0xd
 4956 04c8 3C040000 		.4byte	.LASF78
 4957 04cc 03       		.byte	0x3
 4958 04cd 0001     		.2byte	0x100
 4959 04cf 64000000 		.4byte	0x64
 4960 04d3 04       		.byte	0x4
 4961 04d4 01       		.byte	0x1
 4962 04d5 19       		.byte	0x19
 4963 04d6 00       		.byte	0
 4964 04d7 0D       		.uleb128 0xd
 4965 04d8 44040000 		.4byte	.LASF79
 4966 04dc 03       		.byte	0x3
 4967 04dd 0101     		.2byte	0x101
 4968 04df 64000000 		.4byte	0x64
ARM GAS  C:\Users\kevin\AppData\Local\Temp\ccrA27HJ.s 			page 115


 4969 04e3 04       		.byte	0x4
 4970 04e4 01       		.byte	0x1
 4971 04e5 18       		.byte	0x18
 4972 04e6 00       		.byte	0
 4973 04e7 00       		.byte	0
 4974 04e8 0B       		.uleb128 0xb
 4975 04e9 04       		.byte	0x4
 4976 04ea 03       		.byte	0x3
 4977 04eb F5       		.byte	0xf5
 4978 04ec 08050000 		.4byte	0x508
 4979 04f0 0C       		.uleb128 0xc
 4980 04f1 616C6C00 		.ascii	"all\000"
 4981 04f5 03       		.byte	0x3
 4982 04f6 F7       		.byte	0xf7
 4983 04f7 6B000000 		.4byte	0x6b
 4984 04fb 0E       		.uleb128 0xe
 4985 04fc 62697400 		.ascii	"bit\000"
 4986 0500 03       		.byte	0x3
 4987 0501 0201     		.2byte	0x102
 4988 0503 65040000 		.4byte	0x465
 4989 0507 00       		.byte	0
 4990 0508 09       		.uleb128 0x9
 4991 0509 04       		.byte	0x4
 4992 050a 04       		.byte	0x4
 4993 050b B1       		.byte	0xb1
 4994 050c 7A050000 		.4byte	0x57a
 4995 0510 0A       		.uleb128 0xa
 4996 0511 17030000 		.4byte	.LASF80
 4997 0515 04       		.byte	0x4
 4998 0516 B2       		.byte	0xb2
 4999 0517 64000000 		.4byte	0x64
 5000 051b 04       		.byte	0x4
 5001 051c 01       		.byte	0x1
 5002 051d 1F       		.byte	0x1f
 5003 051e 00       		.byte	0
 5004 051f 0A       		.uleb128 0xa
 5005 0520 E9050000 		.4byte	.LASF81
 5006 0524 04       		.byte	0x4
 5007 0525 B3       		.byte	0xb3
 5008 0526 64000000 		.4byte	0x64
 5009 052a 04       		.byte	0x4
 5010 052b 01       		.byte	0x1
 5011 052c 1E       		.byte	0x1e
 5012 052d 00       		.byte	0
 5013 052e 0A       		.uleb128 0xa
 5014 052f 29000000 		.4byte	.LASF82
 5015 0533 04       		.byte	0x4
 5016 0534 B4       		.byte	0xb4
 5017 0535 64000000 		.4byte	0x64
 5018 0539 04       		.byte	0x4
 5019 053a 01       		.byte	0x1
 5020 053b 1D       		.byte	0x1d
 5021 053c 00       		.byte	0
 5022 053d 0A       		.uleb128 0xa
 5023 053e 080C0000 		.4byte	.LASF83
 5024 0542 04       		.byte	0x4
 5025 0543 B5       		.byte	0xb5
ARM GAS  C:\Users\kevin\AppData\Local\Temp\ccrA27HJ.s 			page 116


 5026 0544 64000000 		.4byte	0x64
 5027 0548 04       		.byte	0x4
 5028 0549 01       		.byte	0x1
 5029 054a 1C       		.byte	0x1c
 5030 054b 00       		.byte	0
 5031 054c 0A       		.uleb128 0xa
 5032 054d 38070000 		.4byte	.LASF84
 5033 0551 04       		.byte	0x4
 5034 0552 B6       		.byte	0xb6
 5035 0553 64000000 		.4byte	0x64
 5036 0557 04       		.byte	0x4
 5037 0558 01       		.byte	0x1
 5038 0559 1B       		.byte	0x1b
 5039 055a 00       		.byte	0
 5040 055b 0A       		.uleb128 0xa
 5041 055c 0A010000 		.4byte	.LASF85
 5042 0560 04       		.byte	0x4
 5043 0561 B7       		.byte	0xb7
 5044 0562 64000000 		.4byte	0x64
 5045 0566 04       		.byte	0x4
 5046 0567 01       		.byte	0x1
 5047 0568 1A       		.byte	0x1a
 5048 0569 00       		.byte	0
 5049 056a 0A       		.uleb128 0xa
 5050 056b EE080000 		.4byte	.LASF86
 5051 056f 04       		.byte	0x4
 5052 0570 B8       		.byte	0xb8
 5053 0571 64000000 		.4byte	0x64
 5054 0575 04       		.byte	0x4
 5055 0576 01       		.byte	0x1
 5056 0577 19       		.byte	0x19
 5057 0578 00       		.byte	0
 5058 0579 00       		.byte	0
 5059 057a 0F       		.uleb128 0xf
 5060 057b BA0C0000 		.4byte	.LASF89
 5061 057f 66       		.byte	0x66
 5062 0580 01       		.byte	0x1
 5063 0581 64       		.byte	0x64
 5064 0582 9F050000 		.4byte	0x59f
 5065 0586 10       		.uleb128 0x10
 5066 0587 4F0A0000 		.4byte	.LASF87
 5067 058b 01       		.byte	0x1
 5068 058c 66       		.byte	0x66
 5069 058d 9F050000 		.4byte	0x59f
 5070 0591 00       		.byte	0
 5071 0592 10       		.uleb128 0x10
 5072 0593 90090000 		.4byte	.LASF88
 5073 0597 01       		.byte	0x1
 5074 0598 67       		.byte	0x67
 5075 0599 76000000 		.4byte	0x76
 5076 059d 64       		.byte	0x64
 5077 059e 00       		.byte	0
 5078 059f 11       		.uleb128 0x11
 5079 05a0 6B000000 		.4byte	0x6b
 5080 05a4 AF050000 		.4byte	0x5af
 5081 05a8 12       		.uleb128 0x12
 5082 05a9 B2000000 		.4byte	0xb2
ARM GAS  C:\Users\kevin\AppData\Local\Temp\ccrA27HJ.s 			page 117


 5083 05ad 63       		.byte	0x63
 5084 05ae 00       		.byte	0
 5085 05af 0F       		.uleb128 0xf
 5086 05b0 C20C0000 		.4byte	.LASF90
 5087 05b4 20       		.byte	0x20
 5088 05b5 01       		.byte	0x1
 5089 05b6 6A       		.byte	0x6a
 5090 05b7 D4050000 		.4byte	0x5d4
 5091 05bb 10       		.uleb128 0x10
 5092 05bc A30A0000 		.4byte	.LASF91
 5093 05c0 01       		.byte	0x1
 5094 05c1 6C       		.byte	0x6c
 5095 05c2 D4050000 		.4byte	0x5d4
 5096 05c6 00       		.byte	0
 5097 05c7 10       		.uleb128 0x10
 5098 05c8 A4050000 		.4byte	.LASF92
 5099 05cc 01       		.byte	0x1
 5100 05cd 6D       		.byte	0x6d
 5101 05ce 76000000 		.4byte	0x76
 5102 05d2 1E       		.byte	0x1e
 5103 05d3 00       		.byte	0
 5104 05d4 11       		.uleb128 0x11
 5105 05d5 6B000000 		.4byte	0x6b
 5106 05d9 E4050000 		.4byte	0x5e4
 5107 05dd 12       		.uleb128 0x12
 5108 05de B2000000 		.4byte	0xb2
 5109 05e2 1D       		.byte	0x1d
 5110 05e3 00       		.byte	0
 5111 05e4 09       		.uleb128 0x9
 5112 05e5 04       		.byte	0x4
 5113 05e6 01       		.byte	0x1
 5114 05e7 71       		.byte	0x71
 5115 05e8 29060000 		.4byte	0x629
 5116 05ec 0A       		.uleb128 0xa
 5117 05ed BC020000 		.4byte	.LASF93
 5118 05f1 01       		.byte	0x1
 5119 05f2 72       		.byte	0x72
 5120 05f3 64000000 		.4byte	0x64
 5121 05f7 04       		.byte	0x4
 5122 05f8 01       		.byte	0x1
 5123 05f9 1F       		.byte	0x1f
 5124 05fa 00       		.byte	0
 5125 05fb 0A       		.uleb128 0xa
 5126 05fc D3000000 		.4byte	.LASF94
 5127 0600 01       		.byte	0x1
 5128 0601 73       		.byte	0x73
 5129 0602 64000000 		.4byte	0x64
 5130 0606 04       		.byte	0x4
 5131 0607 01       		.byte	0x1
 5132 0608 1E       		.byte	0x1e
 5133 0609 00       		.byte	0
 5134 060a 0A       		.uleb128 0xa
 5135 060b A3070000 		.4byte	.LASF95
 5136 060f 01       		.byte	0x1
 5137 0610 74       		.byte	0x74
 5138 0611 64000000 		.4byte	0x64
 5139 0615 04       		.byte	0x4
ARM GAS  C:\Users\kevin\AppData\Local\Temp\ccrA27HJ.s 			page 118


 5140 0616 01       		.byte	0x1
 5141 0617 1D       		.byte	0x1d
 5142 0618 00       		.byte	0
 5143 0619 0A       		.uleb128 0xa
 5144 061a 74090000 		.4byte	.LASF96
 5145 061e 01       		.byte	0x1
 5146 061f 75       		.byte	0x75
 5147 0620 64000000 		.4byte	0x64
 5148 0624 04       		.byte	0x4
 5149 0625 01       		.byte	0x1
 5150 0626 1C       		.byte	0x1c
 5151 0627 00       		.byte	0
 5152 0628 00       		.byte	0
 5153 0629 13       		.uleb128 0x13
 5154 062a 900C0000 		.4byte	.LASF99
 5155 062e 01       		.byte	0x1
 5156 062f 43       		.byte	0x43
 5157 0630 76000000 		.4byte	0x76
 5158 0634 00000000 		.4byte	.LFB33
 5159 0638 6C000000 		.4byte	.LFE33-.LFB33
 5160 063c 01       		.uleb128 0x1
 5161 063d 9C       		.byte	0x9c
 5162 063e 70060000 		.4byte	0x670
 5163 0642 14       		.uleb128 0x14
 5164 0643 98040000 		.4byte	.LASF101
 5165 0647 01       		.byte	0x1
 5166 0648 43       		.byte	0x43
 5167 0649 76000000 		.4byte	0x76
 5168 064d 00000000 		.4byte	.LLST0
 5169 0651 15       		.uleb128 0x15
 5170 0652 E5020000 		.4byte	.LASF97
 5171 0656 01       		.byte	0x1
 5172 0657 45       		.byte	0x45
 5173 0658 76000000 		.4byte	0x76
 5174 065c 21000000 		.4byte	.LLST1
 5175 0660 15       		.uleb128 0x15
 5176 0661 840B0000 		.4byte	.LASF98
 5177 0665 01       		.byte	0x1
 5178 0666 45       		.byte	0x45
 5179 0667 76000000 		.4byte	0x76
 5180 066b 47000000 		.4byte	.LLST2
 5181 066f 00       		.byte	0
 5182 0670 13       		.uleb128 0x13
 5183 0671 2B070000 		.4byte	.LASF100
 5184 0675 01       		.byte	0x1
 5185 0676 54       		.byte	0x54
 5186 0677 6B000000 		.4byte	0x6b
 5187 067b 00000000 		.4byte	.LFB34
 5188 067f 40000000 		.4byte	.LFE34-.LFB34
 5189 0683 01       		.uleb128 0x1
 5190 0684 9C       		.byte	0x9c
 5191 0685 A8060000 		.4byte	0x6a8
 5192 0689 14       		.uleb128 0x14
 5193 068a F6040000 		.4byte	.LASF102
 5194 068e 01       		.byte	0x1
 5195 068f 54       		.byte	0x54
 5196 0690 76000000 		.4byte	0x76
ARM GAS  C:\Users\kevin\AppData\Local\Temp\ccrA27HJ.s 			page 119


 5197 0694 86000000 		.4byte	.LLST3
 5198 0698 15       		.uleb128 0x15
 5199 0699 F9000000 		.4byte	.LASF103
 5200 069d 01       		.byte	0x1
 5201 069e 56       		.byte	0x56
 5202 069f 76000000 		.4byte	0x76
 5203 06a3 A7000000 		.4byte	.LLST4
 5204 06a7 00       		.byte	0
 5205 06a8 16       		.uleb128 0x16
 5206 06a9 91020000 		.4byte	.LASF104
 5207 06ad 01       		.byte	0x1
 5208 06ae 90       		.byte	0x90
 5209 06af 6B000000 		.4byte	0x6b
 5210 06b3 00000000 		.4byte	.LFB35
 5211 06b7 24000000 		.4byte	.LFE35-.LFB35
 5212 06bb 01       		.uleb128 0x1
 5213 06bc 9C       		.byte	0x9c
 5214 06bd EF060000 		.4byte	0x6ef
 5215 06c1 14       		.uleb128 0x14
 5216 06c2 2B090000 		.4byte	.LASF105
 5217 06c6 01       		.byte	0x1
 5218 06c7 90       		.byte	0x90
 5219 06c8 BB000000 		.4byte	0xbb
 5220 06cc D0000000 		.4byte	.LLST5
 5221 06d0 17       		.uleb128 0x17
 5222 06d1 4C656E00 		.ascii	"Len\000"
 5223 06d5 01       		.byte	0x1
 5224 06d6 90       		.byte	0x90
 5225 06d7 76000000 		.4byte	0x76
 5226 06db FB000000 		.4byte	.LLST6
 5227 06df 15       		.uleb128 0x15
 5228 06e0 49080000 		.4byte	.LASF106
 5229 06e4 01       		.byte	0x1
 5230 06e5 92       		.byte	0x92
 5231 06e6 6B000000 		.4byte	0x6b
 5232 06ea 31010000 		.4byte	.LLST7
 5233 06ee 00       		.byte	0
 5234 06ef 16       		.uleb128 0x16
 5235 06f0 59040000 		.4byte	.LASF107
 5236 06f4 01       		.byte	0x1
 5237 06f5 A0       		.byte	0xa0
 5238 06f6 6B000000 		.4byte	0x6b
 5239 06fa 00000000 		.4byte	.LFB36
 5240 06fe 20000000 		.4byte	.LFE36-.LFB36
 5241 0702 01       		.uleb128 0x1
 5242 0703 9C       		.byte	0x9c
 5243 0704 36070000 		.4byte	0x736
 5244 0708 14       		.uleb128 0x14
 5245 0709 2B090000 		.4byte	.LASF105
 5246 070d 01       		.byte	0x1
 5247 070e A0       		.byte	0xa0
 5248 070f BB000000 		.4byte	0xbb
 5249 0713 5B010000 		.4byte	.LLST8
 5250 0717 17       		.uleb128 0x17
 5251 0718 4C656E00 		.ascii	"Len\000"
 5252 071c 01       		.byte	0x1
 5253 071d A0       		.byte	0xa0
ARM GAS  C:\Users\kevin\AppData\Local\Temp\ccrA27HJ.s 			page 120


 5254 071e 76000000 		.4byte	0x76
 5255 0722 86010000 		.4byte	.LLST9
 5256 0726 15       		.uleb128 0x15
 5257 0727 49080000 		.4byte	.LASF106
 5258 072b 01       		.byte	0x1
 5259 072c A2       		.byte	0xa2
 5260 072d 6B000000 		.4byte	0x6b
 5261 0731 BC010000 		.4byte	.LLST10
 5262 0735 00       		.byte	0
 5263 0736 18       		.uleb128 0x18
 5264 0737 2F030000 		.4byte	.LASF109
 5265 073b 01       		.byte	0x1
 5266 073c B2       		.byte	0xb2
 5267 073d 00000000 		.4byte	.LFB37
 5268 0741 0C010000 		.4byte	.LFE37-.LFB37
 5269 0745 01       		.uleb128 0x1
 5270 0746 9C       		.byte	0x9c
 5271 0747 6A070000 		.4byte	0x76a
 5272 074b 14       		.uleb128 0x14
 5273 074c CB020000 		.4byte	.LASF108
 5274 0750 01       		.byte	0x1
 5275 0751 B2       		.byte	0xb2
 5276 0752 6B000000 		.4byte	0x6b
 5277 0756 F4010000 		.4byte	.LLST11
 5278 075a 19       		.uleb128 0x19
 5279 075b C8000000 		.4byte	.LVL42
 5280 075f 43190000 		.4byte	0x1943
 5281 0763 1A       		.uleb128 0x1a
 5282 0764 01       		.uleb128 0x1
 5283 0765 50       		.byte	0x50
 5284 0766 01       		.uleb128 0x1
 5285 0767 31       		.byte	0x31
 5286 0768 00       		.byte	0
 5287 0769 00       		.byte	0
 5288 076a 1B       		.uleb128 0x1b
 5289 076b F6060000 		.4byte	.LASF110
 5290 076f 01       		.byte	0x1
 5291 0770 1201     		.2byte	0x112
 5292 0772 00000000 		.4byte	.LFB38
 5293 0776 18010000 		.4byte	.LFE38-.LFB38
 5294 077a 01       		.uleb128 0x1
 5295 077b 9C       		.byte	0x9c
 5296 077c 91070000 		.4byte	0x791
 5297 0780 1C       		.uleb128 0x1c
 5298 0781 CB020000 		.4byte	.LASF108
 5299 0785 01       		.byte	0x1
 5300 0786 1201     		.2byte	0x112
 5301 0788 6B000000 		.4byte	0x6b
 5302 078c 15020000 		.4byte	.LLST12
 5303 0790 00       		.byte	0
 5304 0791 1B       		.uleb128 0x1b
 5305 0792 090B0000 		.4byte	.LASF111
 5306 0796 01       		.byte	0x1
 5307 0797 7C01     		.2byte	0x17c
 5308 0799 00000000 		.4byte	.LFB39
 5309 079d 30000000 		.4byte	.LFE39-.LFB39
 5310 07a1 01       		.uleb128 0x1
ARM GAS  C:\Users\kevin\AppData\Local\Temp\ccrA27HJ.s 			page 121


 5311 07a2 9C       		.byte	0x9c
 5312 07a3 C6070000 		.4byte	0x7c6
 5313 07a7 1D       		.uleb128 0x1d
 5314 07a8 B8090000 		.4byte	.LASF112
 5315 07ac 01       		.byte	0x1
 5316 07ad 7C01     		.2byte	0x17c
 5317 07af BB000000 		.4byte	0xbb
 5318 07b3 01       		.uleb128 0x1
 5319 07b4 50       		.byte	0x50
 5320 07b5 1C       		.uleb128 0x1c
 5321 07b6 EF060000 		.4byte	.LASF113
 5322 07ba 01       		.byte	0x1
 5323 07bb 7C01     		.2byte	0x17c
 5324 07bd 76000000 		.4byte	0x76
 5325 07c1 36020000 		.4byte	.LLST13
 5326 07c5 00       		.byte	0
 5327 07c6 1B       		.uleb128 0x1b
 5328 07c7 3C030000 		.4byte	.LASF114
 5329 07cb 01       		.byte	0x1
 5330 07cc 8B01     		.2byte	0x18b
 5331 07ce 00000000 		.4byte	.LFB40
 5332 07d2 1C000000 		.4byte	.LFE40-.LFB40
 5333 07d6 01       		.uleb128 0x1
 5334 07d7 9C       		.byte	0x9c
 5335 07d8 EB070000 		.4byte	0x7eb
 5336 07dc 1D       		.uleb128 0x1d
 5337 07dd CC040000 		.4byte	.LASF115
 5338 07e1 01       		.byte	0x1
 5339 07e2 8B01     		.2byte	0x18b
 5340 07e4 6B000000 		.4byte	0x6b
 5341 07e8 01       		.uleb128 0x1
 5342 07e9 50       		.byte	0x50
 5343 07ea 00       		.byte	0
 5344 07eb 1B       		.uleb128 0x1b
 5345 07ec E9070000 		.4byte	.LASF116
 5346 07f0 01       		.byte	0x1
 5347 07f1 9601     		.2byte	0x196
 5348 07f3 00000000 		.4byte	.LFB41
 5349 07f7 1C000000 		.4byte	.LFE41-.LFB41
 5350 07fb 01       		.uleb128 0x1
 5351 07fc 9C       		.byte	0x9c
 5352 07fd 10080000 		.4byte	0x810
 5353 0801 1D       		.uleb128 0x1d
 5354 0802 CC040000 		.4byte	.LASF115
 5355 0806 01       		.byte	0x1
 5356 0807 9601     		.2byte	0x196
 5357 0809 6B000000 		.4byte	0x6b
 5358 080d 01       		.uleb128 0x1
 5359 080e 50       		.byte	0x50
 5360 080f 00       		.byte	0
 5361 0810 1B       		.uleb128 0x1b
 5362 0811 89040000 		.4byte	.LASF117
 5363 0815 01       		.byte	0x1
 5364 0816 A101     		.2byte	0x1a1
 5365 0818 00000000 		.4byte	.LFB42
 5366 081c 48000000 		.4byte	.LFE42-.LFB42
 5367 0820 01       		.uleb128 0x1
ARM GAS  C:\Users\kevin\AppData\Local\Temp\ccrA27HJ.s 			page 122


 5368 0821 9C       		.byte	0x9c
 5369 0822 30080000 		.4byte	0x830
 5370 0826 1E       		.uleb128 0x1e
 5371 0827 26000000 		.4byte	.LVL49
 5372 082b C6070000 		.4byte	0x7c6
 5373 082f 00       		.byte	0
 5374 0830 1F       		.uleb128 0x1f
 5375 0831 FF070000 		.4byte	.LASF158
 5376 0835 01       		.byte	0x1
 5377 0836 B401     		.2byte	0x1b4
 5378 0838 00000000 		.4byte	.LFB43
 5379 083c 02000000 		.4byte	.LFE43-.LFB43
 5380 0840 01       		.uleb128 0x1
 5381 0841 9C       		.byte	0x9c
 5382 0842 1B       		.uleb128 0x1b
 5383 0843 1A000000 		.4byte	.LASF118
 5384 0847 01       		.byte	0x1
 5385 0848 CB01     		.2byte	0x1cb
 5386 084a 00000000 		.4byte	.LFB44
 5387 084e B8000000 		.4byte	.LFE44-.LFB44
 5388 0852 01       		.uleb128 0x1
 5389 0853 9C       		.byte	0x9c
 5390 0854 41090000 		.4byte	0x941
 5391 0858 1C       		.uleb128 0x1c
 5392 0859 B50C0000 		.4byte	.LASF119
 5393 085d 01       		.byte	0x1
 5394 085e CB01     		.2byte	0x1cb
 5395 0860 6B000000 		.4byte	0x6b
 5396 0864 57020000 		.4byte	.LLST14
 5397 0868 1C       		.uleb128 0x1c
 5398 0869 5C090000 		.4byte	.LASF120
 5399 086d 01       		.byte	0x1
 5400 086e CC01     		.2byte	0x1cc
 5401 0870 76000000 		.4byte	0x76
 5402 0874 78020000 		.4byte	.LLST15
 5403 0878 1C       		.uleb128 0x1c
 5404 0879 AC000000 		.4byte	.LASF121
 5405 087d 01       		.byte	0x1
 5406 087e CD01     		.2byte	0x1cd
 5407 0880 BB000000 		.4byte	0xbb
 5408 0884 99020000 		.4byte	.LLST16
 5409 0888 1C       		.uleb128 0x1c
 5410 0889 CF0B0000 		.4byte	.LASF122
 5411 088d 01       		.byte	0x1
 5412 088e CE01     		.2byte	0x1ce
 5413 0890 76000000 		.4byte	0x76
 5414 0894 B8020000 		.4byte	.LLST17
 5415 0898 20       		.uleb128 0x20
 5416 0899 DC080000 		.4byte	.LASF123
 5417 089d 01       		.byte	0x1
 5418 089e D201     		.2byte	0x1d2
 5419 08a0 9F050000 		.4byte	0x59f
 5420 08a4 05       		.uleb128 0x5
 5421 08a5 03       		.byte	0x3
 5422 08a6 00000000 		.4byte	cBuf.7334
 5423 08aa 21       		.uleb128 0x21
 5424 08ab 16000000 		.4byte	.LVL54
ARM GAS  C:\Users\kevin\AppData\Local\Temp\ccrA27HJ.s 			page 123


 5425 08af 54190000 		.4byte	0x1954
 5426 08b3 C9080000 		.4byte	0x8c9
 5427 08b7 1A       		.uleb128 0x1a
 5428 08b8 01       		.uleb128 0x1
 5429 08b9 52       		.byte	0x52
 5430 08ba 02       		.uleb128 0x2
 5431 08bb 08       		.byte	0x8
 5432 08bc 64       		.byte	0x64
 5433 08bd 1A       		.uleb128 0x1a
 5434 08be 01       		.uleb128 0x1
 5435 08bf 51       		.byte	0x51
 5436 08c0 01       		.uleb128 0x1
 5437 08c1 30       		.byte	0x30
 5438 08c2 1A       		.uleb128 0x1a
 5439 08c3 01       		.uleb128 0x1
 5440 08c4 50       		.byte	0x50
 5441 08c5 02       		.uleb128 0x2
 5442 08c6 74       		.byte	0x74
 5443 08c7 00       		.sleb128 0
 5444 08c8 00       		.byte	0
 5445 08c9 21       		.uleb128 0x21
 5446 08ca 6A000000 		.4byte	.LVL55
 5447 08ce 71190000 		.4byte	0x1971
 5448 08d2 EA080000 		.4byte	0x8ea
 5449 08d6 1A       		.uleb128 0x1a
 5450 08d7 01       		.uleb128 0x1
 5451 08d8 52       		.byte	0x52
 5452 08d9 02       		.uleb128 0x2
 5453 08da 75       		.byte	0x75
 5454 08db 00       		.sleb128 0
 5455 08dc 1A       		.uleb128 0x1a
 5456 08dd 01       		.uleb128 0x1
 5457 08de 51       		.byte	0x51
 5458 08df 03       		.uleb128 0x3
 5459 08e0 7D       		.byte	0x7d
 5460 08e1 04       		.sleb128 4
 5461 08e2 06       		.byte	0x6
 5462 08e3 1A       		.uleb128 0x1a
 5463 08e4 01       		.uleb128 0x1
 5464 08e5 50       		.byte	0x50
 5465 08e6 02       		.uleb128 0x2
 5466 08e7 74       		.byte	0x74
 5467 08e8 0A       		.sleb128 10
 5468 08e9 00       		.byte	0
 5469 08ea 21       		.uleb128 0x21
 5470 08eb 76000000 		.4byte	.LVL56
 5471 08ef EF060000 		.4byte	0x6ef
 5472 08f3 04090000 		.4byte	0x904
 5473 08f7 1A       		.uleb128 0x1a
 5474 08f8 01       		.uleb128 0x1
 5475 08f9 51       		.byte	0x51
 5476 08fa 02       		.uleb128 0x2
 5477 08fb 75       		.byte	0x75
 5478 08fc 0A       		.sleb128 10
 5479 08fd 1A       		.uleb128 0x1a
 5480 08fe 01       		.uleb128 0x1
 5481 08ff 50       		.byte	0x50
ARM GAS  C:\Users\kevin\AppData\Local\Temp\ccrA27HJ.s 			page 124


 5482 0900 02       		.uleb128 0x2
 5483 0901 74       		.byte	0x74
 5484 0902 00       		.sleb128 0
 5485 0903 00       		.byte	0
 5486 0904 21       		.uleb128 0x21
 5487 0905 82000000 		.4byte	.LVL57
 5488 0909 EF060000 		.4byte	0x6ef
 5489 090d 17090000 		.4byte	0x917
 5490 0911 1A       		.uleb128 0x1a
 5491 0912 01       		.uleb128 0x1
 5492 0913 51       		.byte	0x51
 5493 0914 01       		.uleb128 0x1
 5494 0915 3A       		.byte	0x3a
 5495 0916 00       		.byte	0
 5496 0917 21       		.uleb128 0x21
 5497 0918 98000000 		.4byte	.LVL58
 5498 091c 91070000 		.4byte	0x791
 5499 0920 31090000 		.4byte	0x931
 5500 0924 1A       		.uleb128 0x1a
 5501 0925 01       		.uleb128 0x1
 5502 0926 51       		.byte	0x51
 5503 0927 02       		.uleb128 0x2
 5504 0928 75       		.byte	0x75
 5505 0929 00       		.sleb128 0
 5506 092a 1A       		.uleb128 0x1a
 5507 092b 01       		.uleb128 0x1
 5508 092c 50       		.byte	0x50
 5509 092d 02       		.uleb128 0x2
 5510 092e 74       		.byte	0x74
 5511 092f 00       		.sleb128 0
 5512 0930 00       		.byte	0
 5513 0931 19       		.uleb128 0x19
 5514 0932 A0000000 		.4byte	.LVL59
 5515 0936 43190000 		.4byte	0x1943
 5516 093a 1A       		.uleb128 0x1a
 5517 093b 01       		.uleb128 0x1
 5518 093c 50       		.byte	0x50
 5519 093d 01       		.uleb128 0x1
 5520 093e 30       		.byte	0x30
 5521 093f 00       		.byte	0
 5522 0940 00       		.byte	0
 5523 0941 1B       		.uleb128 0x1b
 5524 0942 C4030000 		.4byte	.LASF124
 5525 0946 01       		.byte	0x1
 5526 0947 0A02     		.2byte	0x20a
 5527 0949 00000000 		.4byte	.LFB45
 5528 094d 28000000 		.4byte	.LFE45-.LFB45
 5529 0951 01       		.uleb128 0x1
 5530 0952 9C       		.byte	0x9c
 5531 0953 88090000 		.4byte	0x988
 5532 0957 20       		.uleb128 0x20
 5533 0958 DC080000 		.4byte	.LASF123
 5534 095c 01       		.byte	0x1
 5535 095d 0C02     		.2byte	0x20c
 5536 095f 88090000 		.4byte	0x988
 5537 0963 02       		.uleb128 0x2
 5538 0964 91       		.byte	0x91
ARM GAS  C:\Users\kevin\AppData\Local\Temp\ccrA27HJ.s 			page 125


 5539 0965 70       		.sleb128 -16
 5540 0966 19       		.uleb128 0x19
 5541 0967 20000000 		.4byte	.LVL60
 5542 096b 42080000 		.4byte	0x842
 5543 096f 1A       		.uleb128 0x1a
 5544 0970 01       		.uleb128 0x1
 5545 0971 53       		.byte	0x53
 5546 0972 01       		.uleb128 0x1
 5547 0973 36       		.byte	0x36
 5548 0974 1A       		.uleb128 0x1a
 5549 0975 01       		.uleb128 0x1
 5550 0976 52       		.byte	0x52
 5551 0977 02       		.uleb128 0x2
 5552 0978 7D       		.byte	0x7d
 5553 0979 00       		.sleb128 0
 5554 097a 1A       		.uleb128 0x1a
 5555 097b 01       		.uleb128 0x1
 5556 097c 51       		.byte	0x51
 5557 097d 03       		.uleb128 0x3
 5558 097e 0B       		.byte	0xb
 5559 097f C0CC     		.2byte	0xccc0
 5560 0981 1A       		.uleb128 0x1a
 5561 0982 01       		.uleb128 0x1
 5562 0983 50       		.byte	0x50
 5563 0984 01       		.uleb128 0x1
 5564 0985 30       		.byte	0x30
 5565 0986 00       		.byte	0
 5566 0987 00       		.byte	0
 5567 0988 11       		.uleb128 0x11
 5568 0989 6B000000 		.4byte	0x6b
 5569 098d 98090000 		.4byte	0x998
 5570 0991 12       		.uleb128 0x12
 5571 0992 B2000000 		.4byte	0xb2
 5572 0996 05       		.byte	0x5
 5573 0997 00       		.byte	0
 5574 0998 22       		.uleb128 0x22
 5575 0999 1C050000 		.4byte	.LASF125
 5576 099d 01       		.byte	0x1
 5577 099e 1D02     		.2byte	0x21d
 5578 09a0 00000000 		.4byte	.LFB46
 5579 09a4 94000000 		.4byte	.LFE46-.LFB46
 5580 09a8 01       		.uleb128 0x1
 5581 09a9 9C       		.byte	0x9c
 5582 09aa DF090000 		.4byte	0x9df
 5583 09ae 20       		.uleb128 0x20
 5584 09af DC080000 		.4byte	.LASF123
 5585 09b3 01       		.byte	0x1
 5586 09b4 1F02     		.2byte	0x21f
 5587 09b6 DF090000 		.4byte	0x9df
 5588 09ba 02       		.uleb128 0x2
 5589 09bb 91       		.byte	0x91
 5590 09bc 68       		.sleb128 -24
 5591 09bd 19       		.uleb128 0x19
 5592 09be 6C000000 		.4byte	.LVL62
 5593 09c2 42080000 		.4byte	0x842
 5594 09c6 1A       		.uleb128 0x1a
 5595 09c7 01       		.uleb128 0x1
ARM GAS  C:\Users\kevin\AppData\Local\Temp\ccrA27HJ.s 			page 126


 5596 09c8 53       		.byte	0x53
 5597 09c9 01       		.uleb128 0x1
 5598 09ca 40       		.byte	0x40
 5599 09cb 1A       		.uleb128 0x1a
 5600 09cc 01       		.uleb128 0x1
 5601 09cd 52       		.byte	0x52
 5602 09ce 02       		.uleb128 0x2
 5603 09cf 7D       		.byte	0x7d
 5604 09d0 00       		.sleb128 0
 5605 09d1 1A       		.uleb128 0x1a
 5606 09d2 01       		.uleb128 0x1
 5607 09d3 51       		.byte	0x51
 5608 09d4 02       		.uleb128 0x2
 5609 09d5 08       		.byte	0x8
 5610 09d6 B2       		.byte	0xb2
 5611 09d7 1A       		.uleb128 0x1a
 5612 09d8 01       		.uleb128 0x1
 5613 09d9 50       		.byte	0x50
 5614 09da 02       		.uleb128 0x2
 5615 09db 09       		.byte	0x9
 5616 09dc 80       		.byte	0x80
 5617 09dd 00       		.byte	0
 5618 09de 00       		.byte	0
 5619 09df 11       		.uleb128 0x11
 5620 09e0 6B000000 		.4byte	0x6b
 5621 09e4 EF090000 		.4byte	0x9ef
 5622 09e8 12       		.uleb128 0x12
 5623 09e9 B2000000 		.4byte	0xb2
 5624 09ed 0F       		.byte	0xf
 5625 09ee 00       		.byte	0
 5626 09ef 1B       		.uleb128 0x1b
 5627 09f0 0A0A0000 		.4byte	.LASF126
 5628 09f4 01       		.byte	0x1
 5629 09f5 3202     		.2byte	0x232
 5630 09f7 00000000 		.4byte	.LFB47
 5631 09fb 40000000 		.4byte	.LFE47-.LFB47
 5632 09ff 01       		.uleb128 0x1
 5633 0a00 9C       		.byte	0x9c
 5634 0a01 360A0000 		.4byte	0xa36
 5635 0a05 20       		.uleb128 0x20
 5636 0a06 DC080000 		.4byte	.LASF123
 5637 0a0a 01       		.byte	0x1
 5638 0a0b 3402     		.2byte	0x234
 5639 0a0d 360A0000 		.4byte	0xa36
 5640 0a11 02       		.uleb128 0x2
 5641 0a12 91       		.byte	0x91
 5642 0a13 6C       		.sleb128 -20
 5643 0a14 19       		.uleb128 0x19
 5644 0a15 34000000 		.4byte	.LVL63
 5645 0a19 42080000 		.4byte	0x842
 5646 0a1d 1A       		.uleb128 0x1a
 5647 0a1e 01       		.uleb128 0x1
 5648 0a1f 53       		.byte	0x53
 5649 0a20 01       		.uleb128 0x1
 5650 0a21 39       		.byte	0x39
 5651 0a22 1A       		.uleb128 0x1a
 5652 0a23 01       		.uleb128 0x1
ARM GAS  C:\Users\kevin\AppData\Local\Temp\ccrA27HJ.s 			page 127


 5653 0a24 52       		.byte	0x52
 5654 0a25 02       		.uleb128 0x2
 5655 0a26 7D       		.byte	0x7d
 5656 0a27 04       		.sleb128 4
 5657 0a28 1A       		.uleb128 0x1a
 5658 0a29 01       		.uleb128 0x1
 5659 0a2a 51       		.byte	0x51
 5660 0a2b 02       		.uleb128 0x2
 5661 0a2c 08       		.byte	0x8
 5662 0a2d B5       		.byte	0xb5
 5663 0a2e 1A       		.uleb128 0x1a
 5664 0a2f 01       		.uleb128 0x1
 5665 0a30 50       		.byte	0x50
 5666 0a31 02       		.uleb128 0x2
 5667 0a32 09       		.byte	0x9
 5668 0a33 80       		.byte	0x80
 5669 0a34 00       		.byte	0
 5670 0a35 00       		.byte	0
 5671 0a36 11       		.uleb128 0x11
 5672 0a37 6B000000 		.4byte	0x6b
 5673 0a3b 460A0000 		.4byte	0xa46
 5674 0a3f 12       		.uleb128 0x12
 5675 0a40 B2000000 		.4byte	0xb2
 5676 0a44 08       		.byte	0x8
 5677 0a45 00       		.byte	0
 5678 0a46 1B       		.uleb128 0x1b
 5679 0a47 C4000000 		.4byte	.LASF127
 5680 0a4b 01       		.byte	0x1
 5681 0a4c 4102     		.2byte	0x241
 5682 0a4e 00000000 		.4byte	.LFB48
 5683 0a52 38000000 		.4byte	.LFE48-.LFB48
 5684 0a56 01       		.uleb128 0x1
 5685 0a57 9C       		.byte	0x9c
 5686 0a58 B10A0000 		.4byte	0xab1
 5687 0a5c 20       		.uleb128 0x20
 5688 0a5d DC080000 		.4byte	.LASF123
 5689 0a61 01       		.byte	0x1
 5690 0a62 4302     		.2byte	0x243
 5691 0a64 B10A0000 		.4byte	0xab1
 5692 0a68 02       		.uleb128 0x2
 5693 0a69 91       		.byte	0x91
 5694 0a6a 60       		.sleb128 -32
 5695 0a6b 21       		.uleb128 0x21
 5696 0a6c 20000000 		.4byte	.LVL64
 5697 0a70 71190000 		.4byte	0x1971
 5698 0a74 8E0A0000 		.4byte	0xa8e
 5699 0a78 1A       		.uleb128 0x1a
 5700 0a79 01       		.uleb128 0x1
 5701 0a7a 52       		.byte	0x52
 5702 0a7b 02       		.uleb128 0x2
 5703 0a7c 74       		.byte	0x74
 5704 0a7d 00       		.sleb128 0
 5705 0a7e 1A       		.uleb128 0x1a
 5706 0a7f 01       		.uleb128 0x1
 5707 0a80 51       		.byte	0x51
 5708 0a81 05       		.uleb128 0x5
 5709 0a82 03       		.byte	0x3
ARM GAS  C:\Users\kevin\AppData\Local\Temp\ccrA27HJ.s 			page 128


 5710 0a83 00000000 		.4byte	Error_Data_Buf
 5711 0a87 1A       		.uleb128 0x1a
 5712 0a88 01       		.uleb128 0x1
 5713 0a89 50       		.byte	0x50
 5714 0a8a 02       		.uleb128 0x2
 5715 0a8b 7D       		.byte	0x7d
 5716 0a8c 03       		.sleb128 3
 5717 0a8d 00       		.byte	0
 5718 0a8e 19       		.uleb128 0x19
 5719 0a8f 2C000000 		.4byte	.LVL65
 5720 0a93 42080000 		.4byte	0x842
 5721 0a97 1A       		.uleb128 0x1a
 5722 0a98 01       		.uleb128 0x1
 5723 0a99 53       		.byte	0x53
 5724 0a9a 02       		.uleb128 0x2
 5725 0a9b 74       		.byte	0x74
 5726 0a9c 03       		.sleb128 3
 5727 0a9d 1A       		.uleb128 0x1a
 5728 0a9e 01       		.uleb128 0x1
 5729 0a9f 52       		.byte	0x52
 5730 0aa0 02       		.uleb128 0x2
 5731 0aa1 7D       		.byte	0x7d
 5732 0aa2 00       		.sleb128 0
 5733 0aa3 1A       		.uleb128 0x1a
 5734 0aa4 01       		.uleb128 0x1
 5735 0aa5 51       		.byte	0x51
 5736 0aa6 02       		.uleb128 0x2
 5737 0aa7 08       		.byte	0x8
 5738 0aa8 B4       		.byte	0xb4
 5739 0aa9 1A       		.uleb128 0x1a
 5740 0aaa 01       		.uleb128 0x1
 5741 0aab 50       		.byte	0x50
 5742 0aac 02       		.uleb128 0x2
 5743 0aad 09       		.byte	0x9
 5744 0aae 80       		.byte	0x80
 5745 0aaf 00       		.byte	0
 5746 0ab0 00       		.byte	0
 5747 0ab1 11       		.uleb128 0x11
 5748 0ab2 6B000000 		.4byte	0x6b
 5749 0ab6 C10A0000 		.4byte	0xac1
 5750 0aba 12       		.uleb128 0x12
 5751 0abb B2000000 		.4byte	0xb2
 5752 0abf 14       		.byte	0x14
 5753 0ac0 00       		.byte	0
 5754 0ac1 1B       		.uleb128 0x1b
 5755 0ac2 6E0A0000 		.4byte	.LASF128
 5756 0ac6 01       		.byte	0x1
 5757 0ac7 5202     		.2byte	0x252
 5758 0ac9 00000000 		.4byte	.LFB49
 5759 0acd 54000000 		.4byte	.LFE49-.LFB49
 5760 0ad1 01       		.uleb128 0x1
 5761 0ad2 9C       		.byte	0x9c
 5762 0ad3 080B0000 		.4byte	0xb08
 5763 0ad7 20       		.uleb128 0x20
 5764 0ad8 DC080000 		.4byte	.LASF123
 5765 0adc 01       		.byte	0x1
 5766 0add 5402     		.2byte	0x254
ARM GAS  C:\Users\kevin\AppData\Local\Temp\ccrA27HJ.s 			page 129


 5767 0adf 080B0000 		.4byte	0xb08
 5768 0ae3 02       		.uleb128 0x2
 5769 0ae4 91       		.byte	0x91
 5770 0ae5 68       		.sleb128 -24
 5771 0ae6 19       		.uleb128 0x19
 5772 0ae7 4C000000 		.4byte	.LVL66
 5773 0aeb 42080000 		.4byte	0x842
 5774 0aef 1A       		.uleb128 0x1a
 5775 0af0 01       		.uleb128 0x1
 5776 0af1 53       		.byte	0x53
 5777 0af2 01       		.uleb128 0x1
 5778 0af3 3F       		.byte	0x3f
 5779 0af4 1A       		.uleb128 0x1a
 5780 0af5 01       		.uleb128 0x1
 5781 0af6 52       		.byte	0x52
 5782 0af7 02       		.uleb128 0x2
 5783 0af8 7D       		.byte	0x7d
 5784 0af9 00       		.sleb128 0
 5785 0afa 1A       		.uleb128 0x1a
 5786 0afb 01       		.uleb128 0x1
 5787 0afc 51       		.byte	0x51
 5788 0afd 02       		.uleb128 0x2
 5789 0afe 08       		.byte	0x8
 5790 0aff B5       		.byte	0xb5
 5791 0b00 1A       		.uleb128 0x1a
 5792 0b01 01       		.uleb128 0x1
 5793 0b02 50       		.byte	0x50
 5794 0b03 02       		.uleb128 0x2
 5795 0b04 09       		.byte	0x9
 5796 0b05 80       		.byte	0x80
 5797 0b06 00       		.byte	0
 5798 0b07 00       		.byte	0
 5799 0b08 11       		.uleb128 0x11
 5800 0b09 6B000000 		.4byte	0x6b
 5801 0b0d 180B0000 		.4byte	0xb18
 5802 0b11 12       		.uleb128 0x12
 5803 0b12 B2000000 		.4byte	0xb2
 5804 0b16 0E       		.byte	0xe
 5805 0b17 00       		.byte	0
 5806 0b18 1B       		.uleb128 0x1b
 5807 0b19 5C030000 		.4byte	.LASF129
 5808 0b1d 01       		.byte	0x1
 5809 0b1e 6602     		.2byte	0x266
 5810 0b20 00000000 		.4byte	.LFB50
 5811 0b24 16000000 		.4byte	.LFE50-.LFB50
 5812 0b28 01       		.uleb128 0x1
 5813 0b29 9C       		.byte	0x9c
 5814 0b2a 5F0B0000 		.4byte	0xb5f
 5815 0b2e 20       		.uleb128 0x20
 5816 0b2f DC080000 		.4byte	.LASF123
 5817 0b33 01       		.byte	0x1
 5818 0b34 6802     		.2byte	0x268
 5819 0b36 5F0B0000 		.4byte	0xb5f
 5820 0b3a 02       		.uleb128 0x2
 5821 0b3b 91       		.byte	0x91
 5822 0b3c 74       		.sleb128 -12
 5823 0b3d 19       		.uleb128 0x19
ARM GAS  C:\Users\kevin\AppData\Local\Temp\ccrA27HJ.s 			page 130


 5824 0b3e 14000000 		.4byte	.LVL67
 5825 0b42 42080000 		.4byte	0x842
 5826 0b46 1A       		.uleb128 0x1a
 5827 0b47 01       		.uleb128 0x1
 5828 0b48 53       		.byte	0x53
 5829 0b49 01       		.uleb128 0x1
 5830 0b4a 32       		.byte	0x32
 5831 0b4b 1A       		.uleb128 0x1a
 5832 0b4c 01       		.uleb128 0x1
 5833 0b4d 52       		.byte	0x52
 5834 0b4e 02       		.uleb128 0x2
 5835 0b4f 7D       		.byte	0x7d
 5836 0b50 04       		.sleb128 4
 5837 0b51 1A       		.uleb128 0x1a
 5838 0b52 01       		.uleb128 0x1
 5839 0b53 51       		.byte	0x51
 5840 0b54 02       		.uleb128 0x2
 5841 0b55 08       		.byte	0x8
 5842 0b56 A3       		.byte	0xa3
 5843 0b57 1A       		.uleb128 0x1a
 5844 0b58 01       		.uleb128 0x1
 5845 0b59 50       		.byte	0x50
 5846 0b5a 02       		.uleb128 0x2
 5847 0b5b 09       		.byte	0x9
 5848 0b5c 80       		.byte	0x80
 5849 0b5d 00       		.byte	0
 5850 0b5e 00       		.byte	0
 5851 0b5f 11       		.uleb128 0x11
 5852 0b60 6B000000 		.4byte	0x6b
 5853 0b64 6F0B0000 		.4byte	0xb6f
 5854 0b68 12       		.uleb128 0x12
 5855 0b69 B2000000 		.4byte	0xb2
 5856 0b6d 01       		.byte	0x1
 5857 0b6e 00       		.byte	0
 5858 0b6f 1B       		.uleb128 0x1b
 5859 0b70 31080000 		.4byte	.LASF130
 5860 0b74 01       		.byte	0x1
 5861 0b75 6D02     		.2byte	0x26d
 5862 0b77 00000000 		.4byte	.LFB51
 5863 0b7b 1C000000 		.4byte	.LFE51-.LFB51
 5864 0b7f 01       		.uleb128 0x1
 5865 0b80 9C       		.byte	0x9c
 5866 0b81 B70B0000 		.4byte	0xbb7
 5867 0b85 20       		.uleb128 0x20
 5868 0b86 DC080000 		.4byte	.LASF123
 5869 0b8a 01       		.byte	0x1
 5870 0b8b 6F02     		.2byte	0x26f
 5871 0b8d 5F0B0000 		.4byte	0xb5f
 5872 0b91 02       		.uleb128 0x2
 5873 0b92 91       		.byte	0x91
 5874 0b93 74       		.sleb128 -12
 5875 0b94 19       		.uleb128 0x19
 5876 0b95 14000000 		.4byte	.LVL68
 5877 0b99 42080000 		.4byte	0x842
 5878 0b9d 1A       		.uleb128 0x1a
 5879 0b9e 01       		.uleb128 0x1
 5880 0b9f 53       		.byte	0x53
ARM GAS  C:\Users\kevin\AppData\Local\Temp\ccrA27HJ.s 			page 131


 5881 0ba0 01       		.uleb128 0x1
 5882 0ba1 32       		.byte	0x32
 5883 0ba2 1A       		.uleb128 0x1a
 5884 0ba3 01       		.uleb128 0x1
 5885 0ba4 52       		.byte	0x52
 5886 0ba5 02       		.uleb128 0x2
 5887 0ba6 7D       		.byte	0x7d
 5888 0ba7 04       		.sleb128 4
 5889 0ba8 1A       		.uleb128 0x1a
 5890 0ba9 01       		.uleb128 0x1
 5891 0baa 51       		.byte	0x51
 5892 0bab 03       		.uleb128 0x3
 5893 0bac 0B       		.byte	0xb
 5894 0bad D0CC     		.2byte	0xccd0
 5895 0baf 1A       		.uleb128 0x1a
 5896 0bb0 01       		.uleb128 0x1
 5897 0bb1 50       		.byte	0x50
 5898 0bb2 02       		.uleb128 0x2
 5899 0bb3 09       		.byte	0x9
 5900 0bb4 80       		.byte	0x80
 5901 0bb5 00       		.byte	0
 5902 0bb6 00       		.byte	0
 5903 0bb7 1B       		.uleb128 0x1b
 5904 0bb8 250B0000 		.4byte	.LASF131
 5905 0bbc 01       		.byte	0x1
 5906 0bbd 7402     		.2byte	0x274
 5907 0bbf 00000000 		.4byte	.LFB52
 5908 0bc3 30000000 		.4byte	.LFE52-.LFB52
 5909 0bc7 01       		.uleb128 0x1
 5910 0bc8 9C       		.byte	0x9c
 5911 0bc9 FF0B0000 		.4byte	0xbff
 5912 0bcd 20       		.uleb128 0x20
 5913 0bce DC080000 		.4byte	.LASF123
 5914 0bd2 01       		.byte	0x1
 5915 0bd3 7602     		.2byte	0x276
 5916 0bd5 FF0B0000 		.4byte	0xbff
 5917 0bd9 02       		.uleb128 0x2
 5918 0bda 91       		.byte	0x91
 5919 0bdb 74       		.sleb128 -12
 5920 0bdc 19       		.uleb128 0x19
 5921 0bdd 26000000 		.4byte	.LVL69
 5922 0be1 42080000 		.4byte	0x842
 5923 0be5 1A       		.uleb128 0x1a
 5924 0be6 01       		.uleb128 0x1
 5925 0be7 53       		.byte	0x53
 5926 0be8 01       		.uleb128 0x1
 5927 0be9 34       		.byte	0x34
 5928 0bea 1A       		.uleb128 0x1a
 5929 0beb 01       		.uleb128 0x1
 5930 0bec 52       		.byte	0x52
 5931 0bed 02       		.uleb128 0x2
 5932 0bee 7D       		.byte	0x7d
 5933 0bef 04       		.sleb128 4
 5934 0bf0 1A       		.uleb128 0x1a
 5935 0bf1 01       		.uleb128 0x1
 5936 0bf2 51       		.byte	0x51
 5937 0bf3 03       		.uleb128 0x3
ARM GAS  C:\Users\kevin\AppData\Local\Temp\ccrA27HJ.s 			page 132


 5938 0bf4 0B       		.byte	0xb
 5939 0bf5 D1CC     		.2byte	0xccd1
 5940 0bf7 1A       		.uleb128 0x1a
 5941 0bf8 01       		.uleb128 0x1
 5942 0bf9 50       		.byte	0x50
 5943 0bfa 02       		.uleb128 0x2
 5944 0bfb 09       		.byte	0x9
 5945 0bfc 80       		.byte	0x80
 5946 0bfd 00       		.byte	0
 5947 0bfe 00       		.byte	0
 5948 0bff 11       		.uleb128 0x11
 5949 0c00 6B000000 		.4byte	0x6b
 5950 0c04 0F0C0000 		.4byte	0xc0f
 5951 0c08 12       		.uleb128 0x12
 5952 0c09 B2000000 		.4byte	0xb2
 5953 0c0d 03       		.byte	0x3
 5954 0c0e 00       		.byte	0
 5955 0c0f 1B       		.uleb128 0x1b
 5956 0c10 65090000 		.4byte	.LASF132
 5957 0c14 01       		.byte	0x1
 5958 0c15 8002     		.2byte	0x280
 5959 0c17 00000000 		.4byte	.LFB53
 5960 0c1b 1C000000 		.4byte	.LFE53-.LFB53
 5961 0c1f 01       		.uleb128 0x1
 5962 0c20 9C       		.byte	0x9c
 5963 0c21 570C0000 		.4byte	0xc57
 5964 0c25 20       		.uleb128 0x20
 5965 0c26 DC080000 		.4byte	.LASF123
 5966 0c2a 01       		.byte	0x1
 5967 0c2b 8202     		.2byte	0x282
 5968 0c2d 5F0B0000 		.4byte	0xb5f
 5969 0c31 02       		.uleb128 0x2
 5970 0c32 91       		.byte	0x91
 5971 0c33 74       		.sleb128 -12
 5972 0c34 19       		.uleb128 0x19
 5973 0c35 14000000 		.4byte	.LVL70
 5974 0c39 42080000 		.4byte	0x842
 5975 0c3d 1A       		.uleb128 0x1a
 5976 0c3e 01       		.uleb128 0x1
 5977 0c3f 53       		.byte	0x53
 5978 0c40 01       		.uleb128 0x1
 5979 0c41 32       		.byte	0x32
 5980 0c42 1A       		.uleb128 0x1a
 5981 0c43 01       		.uleb128 0x1
 5982 0c44 52       		.byte	0x52
 5983 0c45 02       		.uleb128 0x2
 5984 0c46 7D       		.byte	0x7d
 5985 0c47 04       		.sleb128 4
 5986 0c48 1A       		.uleb128 0x1a
 5987 0c49 01       		.uleb128 0x1
 5988 0c4a 51       		.byte	0x51
 5989 0c4b 03       		.uleb128 0x3
 5990 0c4c 0B       		.byte	0xb
 5991 0c4d D6CC     		.2byte	0xccd6
 5992 0c4f 1A       		.uleb128 0x1a
 5993 0c50 01       		.uleb128 0x1
 5994 0c51 50       		.byte	0x50
ARM GAS  C:\Users\kevin\AppData\Local\Temp\ccrA27HJ.s 			page 133


 5995 0c52 02       		.uleb128 0x2
 5996 0c53 09       		.byte	0x9
 5997 0c54 80       		.byte	0x80
 5998 0c55 00       		.byte	0
 5999 0c56 00       		.byte	0
 6000 0c57 1B       		.uleb128 0x1b
 6001 0c58 F0090000 		.4byte	.LASF133
 6002 0c5c 01       		.byte	0x1
 6003 0c5d 8702     		.2byte	0x287
 6004 0c5f 00000000 		.4byte	.LFB54
 6005 0c63 1C000000 		.4byte	.LFE54-.LFB54
 6006 0c67 01       		.uleb128 0x1
 6007 0c68 9C       		.byte	0x9c
 6008 0c69 9F0C0000 		.4byte	0xc9f
 6009 0c6d 20       		.uleb128 0x20
 6010 0c6e DC080000 		.4byte	.LASF123
 6011 0c72 01       		.byte	0x1
 6012 0c73 8902     		.2byte	0x289
 6013 0c75 5F0B0000 		.4byte	0xb5f
 6014 0c79 02       		.uleb128 0x2
 6015 0c7a 91       		.byte	0x91
 6016 0c7b 74       		.sleb128 -12
 6017 0c7c 19       		.uleb128 0x19
 6018 0c7d 14000000 		.4byte	.LVL71
 6019 0c81 42080000 		.4byte	0x842
 6020 0c85 1A       		.uleb128 0x1a
 6021 0c86 01       		.uleb128 0x1
 6022 0c87 53       		.byte	0x53
 6023 0c88 01       		.uleb128 0x1
 6024 0c89 32       		.byte	0x32
 6025 0c8a 1A       		.uleb128 0x1a
 6026 0c8b 01       		.uleb128 0x1
 6027 0c8c 52       		.byte	0x52
 6028 0c8d 02       		.uleb128 0x2
 6029 0c8e 7D       		.byte	0x7d
 6030 0c8f 04       		.sleb128 4
 6031 0c90 1A       		.uleb128 0x1a
 6032 0c91 01       		.uleb128 0x1
 6033 0c92 51       		.byte	0x51
 6034 0c93 03       		.uleb128 0x3
 6035 0c94 0B       		.byte	0xb
 6036 0c95 D2CC     		.2byte	0xccd2
 6037 0c97 1A       		.uleb128 0x1a
 6038 0c98 01       		.uleb128 0x1
 6039 0c99 50       		.byte	0x50
 6040 0c9a 02       		.uleb128 0x2
 6041 0c9b 09       		.byte	0x9
 6042 0c9c 80       		.byte	0x80
 6043 0c9d 00       		.byte	0
 6044 0c9e 00       		.byte	0
 6045 0c9f 1B       		.uleb128 0x1b
 6046 0ca0 6A020000 		.4byte	.LASF134
 6047 0ca4 01       		.byte	0x1
 6048 0ca5 9602     		.2byte	0x296
 6049 0ca7 00000000 		.4byte	.LFB55
 6050 0cab 20000000 		.4byte	.LFE55-.LFB55
 6051 0caf 01       		.uleb128 0x1
ARM GAS  C:\Users\kevin\AppData\Local\Temp\ccrA27HJ.s 			page 134


 6052 0cb0 9C       		.byte	0x9c
 6053 0cb1 E60C0000 		.4byte	0xce6
 6054 0cb5 20       		.uleb128 0x20
 6055 0cb6 DC080000 		.4byte	.LASF123
 6056 0cba 01       		.byte	0x1
 6057 0cbb 9802     		.2byte	0x298
 6058 0cbd E60C0000 		.4byte	0xce6
 6059 0cc1 02       		.uleb128 0x2
 6060 0cc2 91       		.byte	0x91
 6061 0cc3 74       		.sleb128 -12
 6062 0cc4 19       		.uleb128 0x19
 6063 0cc5 1A000000 		.4byte	.LVL72
 6064 0cc9 42080000 		.4byte	0x842
 6065 0ccd 1A       		.uleb128 0x1a
 6066 0cce 01       		.uleb128 0x1
 6067 0ccf 53       		.byte	0x53
 6068 0cd0 01       		.uleb128 0x1
 6069 0cd1 33       		.byte	0x33
 6070 0cd2 1A       		.uleb128 0x1a
 6071 0cd3 01       		.uleb128 0x1
 6072 0cd4 52       		.byte	0x52
 6073 0cd5 02       		.uleb128 0x2
 6074 0cd6 7D       		.byte	0x7d
 6075 0cd7 04       		.sleb128 4
 6076 0cd8 1A       		.uleb128 0x1a
 6077 0cd9 01       		.uleb128 0x1
 6078 0cda 51       		.byte	0x51
 6079 0cdb 02       		.uleb128 0x2
 6080 0cdc 08       		.byte	0x8
 6081 0cdd B1       		.byte	0xb1
 6082 0cde 1A       		.uleb128 0x1a
 6083 0cdf 01       		.uleb128 0x1
 6084 0ce0 50       		.byte	0x50
 6085 0ce1 02       		.uleb128 0x2
 6086 0ce2 09       		.byte	0x9
 6087 0ce3 80       		.byte	0x80
 6088 0ce4 00       		.byte	0
 6089 0ce5 00       		.byte	0
 6090 0ce6 11       		.uleb128 0x11
 6091 0ce7 6B000000 		.4byte	0x6b
 6092 0ceb F60C0000 		.4byte	0xcf6
 6093 0cef 12       		.uleb128 0x12
 6094 0cf0 B2000000 		.4byte	0xb2
 6095 0cf4 02       		.byte	0x2
 6096 0cf5 00       		.byte	0
 6097 0cf6 1B       		.uleb128 0x1b
 6098 0cf7 84070000 		.4byte	.LASF135
 6099 0cfb 01       		.byte	0x1
 6100 0cfc A702     		.2byte	0x2a7
 6101 0cfe 00000000 		.4byte	.LFB56
 6102 0d02 16000000 		.4byte	.LFE56-.LFB56
 6103 0d06 01       		.uleb128 0x1
 6104 0d07 9C       		.byte	0x9c
 6105 0d08 3D0D0000 		.4byte	0xd3d
 6106 0d0c 20       		.uleb128 0x20
 6107 0d0d DC080000 		.4byte	.LASF123
 6108 0d11 01       		.byte	0x1
ARM GAS  C:\Users\kevin\AppData\Local\Temp\ccrA27HJ.s 			page 135


 6109 0d12 A902     		.2byte	0x2a9
 6110 0d14 5F0B0000 		.4byte	0xb5f
 6111 0d18 02       		.uleb128 0x2
 6112 0d19 91       		.byte	0x91
 6113 0d1a 74       		.sleb128 -12
 6114 0d1b 19       		.uleb128 0x19
 6115 0d1c 14000000 		.4byte	.LVL73
 6116 0d20 42080000 		.4byte	0x842
 6117 0d24 1A       		.uleb128 0x1a
 6118 0d25 01       		.uleb128 0x1
 6119 0d26 53       		.byte	0x53
 6120 0d27 01       		.uleb128 0x1
 6121 0d28 32       		.byte	0x32
 6122 0d29 1A       		.uleb128 0x1a
 6123 0d2a 01       		.uleb128 0x1
 6124 0d2b 52       		.byte	0x52
 6125 0d2c 02       		.uleb128 0x2
 6126 0d2d 7D       		.byte	0x7d
 6127 0d2e 04       		.sleb128 4
 6128 0d2f 1A       		.uleb128 0x1a
 6129 0d30 01       		.uleb128 0x1
 6130 0d31 51       		.byte	0x51
 6131 0d32 02       		.uleb128 0x2
 6132 0d33 08       		.byte	0x8
 6133 0d34 A2       		.byte	0xa2
 6134 0d35 1A       		.uleb128 0x1a
 6135 0d36 01       		.uleb128 0x1
 6136 0d37 50       		.byte	0x50
 6137 0d38 02       		.uleb128 0x2
 6138 0d39 09       		.byte	0x9
 6139 0d3a 80       		.byte	0x80
 6140 0d3b 00       		.byte	0
 6141 0d3c 00       		.byte	0
 6142 0d3d 1B       		.uleb128 0x1b
 6143 0d3e 64010000 		.4byte	.LASF136
 6144 0d42 01       		.byte	0x1
 6145 0d43 B602     		.2byte	0x2b6
 6146 0d45 00000000 		.4byte	.LFB57
 6147 0d49 16000000 		.4byte	.LFE57-.LFB57
 6148 0d4d 01       		.uleb128 0x1
 6149 0d4e 9C       		.byte	0x9c
 6150 0d4f 840D0000 		.4byte	0xd84
 6151 0d53 20       		.uleb128 0x20
 6152 0d54 DC080000 		.4byte	.LASF123
 6153 0d58 01       		.byte	0x1
 6154 0d59 B802     		.2byte	0x2b8
 6155 0d5b 5F0B0000 		.4byte	0xb5f
 6156 0d5f 02       		.uleb128 0x2
 6157 0d60 91       		.byte	0x91
 6158 0d61 74       		.sleb128 -12
 6159 0d62 19       		.uleb128 0x19
 6160 0d63 14000000 		.4byte	.LVL74
 6161 0d67 42080000 		.4byte	0x842
 6162 0d6b 1A       		.uleb128 0x1a
 6163 0d6c 01       		.uleb128 0x1
 6164 0d6d 53       		.byte	0x53
 6165 0d6e 01       		.uleb128 0x1
ARM GAS  C:\Users\kevin\AppData\Local\Temp\ccrA27HJ.s 			page 136


 6166 0d6f 32       		.byte	0x32
 6167 0d70 1A       		.uleb128 0x1a
 6168 0d71 01       		.uleb128 0x1
 6169 0d72 52       		.byte	0x52
 6170 0d73 02       		.uleb128 0x2
 6171 0d74 7D       		.byte	0x7d
 6172 0d75 04       		.sleb128 4
 6173 0d76 1A       		.uleb128 0x1a
 6174 0d77 01       		.uleb128 0x1
 6175 0d78 51       		.byte	0x51
 6176 0d79 02       		.uleb128 0x2
 6177 0d7a 08       		.byte	0x8
 6178 0d7b A4       		.byte	0xa4
 6179 0d7c 1A       		.uleb128 0x1a
 6180 0d7d 01       		.uleb128 0x1
 6181 0d7e 50       		.byte	0x50
 6182 0d7f 02       		.uleb128 0x2
 6183 0d80 09       		.byte	0x9
 6184 0d81 80       		.byte	0x80
 6185 0d82 00       		.byte	0
 6186 0d83 00       		.byte	0
 6187 0d84 1B       		.uleb128 0x1b
 6188 0d85 9C0C0000 		.4byte	.LASF137
 6189 0d89 01       		.byte	0x1
 6190 0d8a C502     		.2byte	0x2c5
 6191 0d8c 00000000 		.4byte	.LFB58
 6192 0d90 16000000 		.4byte	.LFE58-.LFB58
 6193 0d94 01       		.uleb128 0x1
 6194 0d95 9C       		.byte	0x9c
 6195 0d96 CB0D0000 		.4byte	0xdcb
 6196 0d9a 20       		.uleb128 0x20
 6197 0d9b DC080000 		.4byte	.LASF123
 6198 0d9f 01       		.byte	0x1
 6199 0da0 C702     		.2byte	0x2c7
 6200 0da2 5F0B0000 		.4byte	0xb5f
 6201 0da6 02       		.uleb128 0x2
 6202 0da7 91       		.byte	0x91
 6203 0da8 74       		.sleb128 -12
 6204 0da9 19       		.uleb128 0x19
 6205 0daa 14000000 		.4byte	.LVL75
 6206 0dae 42080000 		.4byte	0x842
 6207 0db2 1A       		.uleb128 0x1a
 6208 0db3 01       		.uleb128 0x1
 6209 0db4 53       		.byte	0x53
 6210 0db5 01       		.uleb128 0x1
 6211 0db6 32       		.byte	0x32
 6212 0db7 1A       		.uleb128 0x1a
 6213 0db8 01       		.uleb128 0x1
 6214 0db9 52       		.byte	0x52
 6215 0dba 02       		.uleb128 0x2
 6216 0dbb 7D       		.byte	0x7d
 6217 0dbc 04       		.sleb128 4
 6218 0dbd 1A       		.uleb128 0x1a
 6219 0dbe 01       		.uleb128 0x1
 6220 0dbf 51       		.byte	0x51
 6221 0dc0 02       		.uleb128 0x2
 6222 0dc1 08       		.byte	0x8
ARM GAS  C:\Users\kevin\AppData\Local\Temp\ccrA27HJ.s 			page 137


 6223 0dc2 A0       		.byte	0xa0
 6224 0dc3 1A       		.uleb128 0x1a
 6225 0dc4 01       		.uleb128 0x1
 6226 0dc5 50       		.byte	0x50
 6227 0dc6 02       		.uleb128 0x2
 6228 0dc7 09       		.byte	0x9
 6229 0dc8 80       		.byte	0x80
 6230 0dc9 00       		.byte	0
 6231 0dca 00       		.byte	0
 6232 0dcb 1B       		.uleb128 0x1b
 6233 0dcc 2C0A0000 		.4byte	.LASF138
 6234 0dd0 01       		.byte	0x1
 6235 0dd1 D402     		.2byte	0x2d4
 6236 0dd3 00000000 		.4byte	.LFB59
 6237 0dd7 16000000 		.4byte	.LFE59-.LFB59
 6238 0ddb 01       		.uleb128 0x1
 6239 0ddc 9C       		.byte	0x9c
 6240 0ddd 120E0000 		.4byte	0xe12
 6241 0de1 20       		.uleb128 0x20
 6242 0de2 DC080000 		.4byte	.LASF123
 6243 0de6 01       		.byte	0x1
 6244 0de7 D602     		.2byte	0x2d6
 6245 0de9 5F0B0000 		.4byte	0xb5f
 6246 0ded 02       		.uleb128 0x2
 6247 0dee 91       		.byte	0x91
 6248 0def 74       		.sleb128 -12
 6249 0df0 19       		.uleb128 0x19
 6250 0df1 14000000 		.4byte	.LVL76
 6251 0df5 42080000 		.4byte	0x842
 6252 0df9 1A       		.uleb128 0x1a
 6253 0dfa 01       		.uleb128 0x1
 6254 0dfb 53       		.byte	0x53
 6255 0dfc 01       		.uleb128 0x1
 6256 0dfd 32       		.byte	0x32
 6257 0dfe 1A       		.uleb128 0x1a
 6258 0dff 01       		.uleb128 0x1
 6259 0e00 52       		.byte	0x52
 6260 0e01 02       		.uleb128 0x2
 6261 0e02 7D       		.byte	0x7d
 6262 0e03 04       		.sleb128 4
 6263 0e04 1A       		.uleb128 0x1a
 6264 0e05 01       		.uleb128 0x1
 6265 0e06 51       		.byte	0x51
 6266 0e07 02       		.uleb128 0x2
 6267 0e08 08       		.byte	0x8
 6268 0e09 A1       		.byte	0xa1
 6269 0e0a 1A       		.uleb128 0x1a
 6270 0e0b 01       		.uleb128 0x1
 6271 0e0c 50       		.byte	0x50
 6272 0e0d 02       		.uleb128 0x2
 6273 0e0e 09       		.byte	0x9
 6274 0e0f 80       		.byte	0x80
 6275 0e10 00       		.byte	0
 6276 0e11 00       		.byte	0
 6277 0e12 1B       		.uleb128 0x1b
 6278 0e13 EF0A0000 		.4byte	.LASF139
 6279 0e17 01       		.byte	0x1
ARM GAS  C:\Users\kevin\AppData\Local\Temp\ccrA27HJ.s 			page 138


 6280 0e18 E402     		.2byte	0x2e4
 6281 0e1a 00000000 		.4byte	.LFB60
 6282 0e1e 14000000 		.4byte	.LFE60-.LFB60
 6283 0e22 01       		.uleb128 0x1
 6284 0e23 9C       		.byte	0x9c
 6285 0e24 490E0000 		.4byte	0xe49
 6286 0e28 19       		.uleb128 0x19
 6287 0e29 0E000000 		.4byte	.LVL77
 6288 0e2d 42080000 		.4byte	0x842
 6289 0e31 1A       		.uleb128 0x1a
 6290 0e32 01       		.uleb128 0x1
 6291 0e33 53       		.byte	0x53
 6292 0e34 01       		.uleb128 0x1
 6293 0e35 30       		.byte	0x30
 6294 0e36 1A       		.uleb128 0x1a
 6295 0e37 01       		.uleb128 0x1
 6296 0e38 52       		.byte	0x52
 6297 0e39 01       		.uleb128 0x1
 6298 0e3a 30       		.byte	0x30
 6299 0e3b 1A       		.uleb128 0x1a
 6300 0e3c 01       		.uleb128 0x1
 6301 0e3d 51       		.byte	0x51
 6302 0e3e 03       		.uleb128 0x3
 6303 0e3f 0B       		.byte	0xb
 6304 0e40 C2CC     		.2byte	0xccc2
 6305 0e42 1A       		.uleb128 0x1a
 6306 0e43 01       		.uleb128 0x1
 6307 0e44 50       		.byte	0x50
 6308 0e45 01       		.uleb128 0x1
 6309 0e46 30       		.byte	0x30
 6310 0e47 00       		.byte	0
 6311 0e48 00       		.byte	0
 6312 0e49 1B       		.uleb128 0x1b
 6313 0e4a 47090000 		.4byte	.LASF140
 6314 0e4e 01       		.byte	0x1
 6315 0e4f F002     		.2byte	0x2f0
 6316 0e51 00000000 		.4byte	.LFB61
 6317 0e55 14000000 		.4byte	.LFE61-.LFB61
 6318 0e59 01       		.uleb128 0x1
 6319 0e5a 9C       		.byte	0x9c
 6320 0e5b 800E0000 		.4byte	0xe80
 6321 0e5f 19       		.uleb128 0x19
 6322 0e60 0E000000 		.4byte	.LVL78
 6323 0e64 42080000 		.4byte	0x842
 6324 0e68 1A       		.uleb128 0x1a
 6325 0e69 01       		.uleb128 0x1
 6326 0e6a 53       		.byte	0x53
 6327 0e6b 01       		.uleb128 0x1
 6328 0e6c 30       		.byte	0x30
 6329 0e6d 1A       		.uleb128 0x1a
 6330 0e6e 01       		.uleb128 0x1
 6331 0e6f 52       		.byte	0x52
 6332 0e70 01       		.uleb128 0x1
 6333 0e71 30       		.byte	0x30
 6334 0e72 1A       		.uleb128 0x1a
 6335 0e73 01       		.uleb128 0x1
 6336 0e74 51       		.byte	0x51
ARM GAS  C:\Users\kevin\AppData\Local\Temp\ccrA27HJ.s 			page 139


 6337 0e75 03       		.uleb128 0x3
 6338 0e76 0A       		.byte	0xa
 6339 0e77 0160     		.2byte	0x6001
 6340 0e79 1A       		.uleb128 0x1a
 6341 0e7a 01       		.uleb128 0x1
 6342 0e7b 50       		.byte	0x50
 6343 0e7c 01       		.uleb128 0x1
 6344 0e7d 30       		.byte	0x30
 6345 0e7e 00       		.byte	0
 6346 0e7f 00       		.byte	0
 6347 0e80 1B       		.uleb128 0x1b
 6348 0e81 46010000 		.4byte	.LASF141
 6349 0e85 01       		.byte	0x1
 6350 0e86 F402     		.2byte	0x2f4
 6351 0e88 00000000 		.4byte	.LFB62
 6352 0e8c 1C000000 		.4byte	.LFE62-.LFB62
 6353 0e90 01       		.uleb128 0x1
 6354 0e91 9C       		.byte	0x9c
 6355 0e92 C70E0000 		.4byte	0xec7
 6356 0e96 20       		.uleb128 0x20
 6357 0e97 DC080000 		.4byte	.LASF123
 6358 0e9b 01       		.byte	0x1
 6359 0e9c F602     		.2byte	0x2f6
 6360 0e9e 5F0B0000 		.4byte	0xb5f
 6361 0ea2 02       		.uleb128 0x2
 6362 0ea3 91       		.byte	0x91
 6363 0ea4 74       		.sleb128 -12
 6364 0ea5 19       		.uleb128 0x19
 6365 0ea6 14000000 		.4byte	.LVL79
 6366 0eaa 42080000 		.4byte	0x842
 6367 0eae 1A       		.uleb128 0x1a
 6368 0eaf 01       		.uleb128 0x1
 6369 0eb0 53       		.byte	0x53
 6370 0eb1 01       		.uleb128 0x1
 6371 0eb2 32       		.byte	0x32
 6372 0eb3 1A       		.uleb128 0x1a
 6373 0eb4 01       		.uleb128 0x1
 6374 0eb5 52       		.byte	0x52
 6375 0eb6 02       		.uleb128 0x2
 6376 0eb7 7D       		.byte	0x7d
 6377 0eb8 04       		.sleb128 4
 6378 0eb9 1A       		.uleb128 0x1a
 6379 0eba 01       		.uleb128 0x1
 6380 0ebb 51       		.byte	0x51
 6381 0ebc 03       		.uleb128 0x3
 6382 0ebd 0B       		.byte	0xb
 6383 0ebe C5CC     		.2byte	0xccc5
 6384 0ec0 1A       		.uleb128 0x1a
 6385 0ec1 01       		.uleb128 0x1
 6386 0ec2 50       		.byte	0x50
 6387 0ec3 01       		.uleb128 0x1
 6388 0ec4 30       		.byte	0x30
 6389 0ec5 00       		.byte	0
 6390 0ec6 00       		.byte	0
 6391 0ec7 22       		.uleb128 0x22
 6392 0ec8 B4000000 		.4byte	.LASF142
 6393 0ecc 01       		.byte	0x1
ARM GAS  C:\Users\kevin\AppData\Local\Temp\ccrA27HJ.s 			page 140


 6394 0ecd FC02     		.2byte	0x2fc
 6395 0ecf 00000000 		.4byte	.LFB63
 6396 0ed3 90000000 		.4byte	.LFE63-.LFB63
 6397 0ed7 01       		.uleb128 0x1
 6398 0ed8 9C       		.byte	0x9c
 6399 0ed9 0E0F0000 		.4byte	0xf0e
 6400 0edd 20       		.uleb128 0x20
 6401 0ede DC080000 		.4byte	.LASF123
 6402 0ee2 01       		.byte	0x1
 6403 0ee3 FE02     		.2byte	0x2fe
 6404 0ee5 0E0F0000 		.4byte	0xf0e
 6405 0ee9 02       		.uleb128 0x2
 6406 0eea 91       		.byte	0x91
 6407 0eeb 68       		.sleb128 -24
 6408 0eec 19       		.uleb128 0x19
 6409 0eed 68000000 		.4byte	.LVL81
 6410 0ef1 42080000 		.4byte	0x842
 6411 0ef5 1A       		.uleb128 0x1a
 6412 0ef6 01       		.uleb128 0x1
 6413 0ef7 53       		.byte	0x53
 6414 0ef8 01       		.uleb128 0x1
 6415 0ef9 3E       		.byte	0x3e
 6416 0efa 1A       		.uleb128 0x1a
 6417 0efb 01       		.uleb128 0x1
 6418 0efc 52       		.byte	0x52
 6419 0efd 02       		.uleb128 0x2
 6420 0efe 7D       		.byte	0x7d
 6421 0eff 00       		.sleb128 0
 6422 0f00 1A       		.uleb128 0x1a
 6423 0f01 01       		.uleb128 0x1
 6424 0f02 51       		.byte	0x51
 6425 0f03 03       		.uleb128 0x3
 6426 0f04 0B       		.byte	0xb
 6427 0f05 0090     		.2byte	0x9000
 6428 0f07 1A       		.uleb128 0x1a
 6429 0f08 01       		.uleb128 0x1
 6430 0f09 50       		.byte	0x50
 6431 0f0a 01       		.uleb128 0x1
 6432 0f0b 30       		.byte	0x30
 6433 0f0c 00       		.byte	0
 6434 0f0d 00       		.byte	0
 6435 0f0e 11       		.uleb128 0x11
 6436 0f0f 6B000000 		.4byte	0x6b
 6437 0f13 1E0F0000 		.4byte	0xf1e
 6438 0f17 12       		.uleb128 0x12
 6439 0f18 B2000000 		.4byte	0xb2
 6440 0f1c 0D       		.byte	0xd
 6441 0f1d 00       		.byte	0
 6442 0f1e 1B       		.uleb128 0x1b
 6443 0f1f E0000000 		.4byte	.LASF143
 6444 0f23 01       		.byte	0x1
 6445 0f24 1003     		.2byte	0x310
 6446 0f26 00000000 		.4byte	.LFB64
 6447 0f2a 44000000 		.4byte	.LFE64-.LFB64
 6448 0f2e 01       		.uleb128 0x1
 6449 0f2f 9C       		.byte	0x9c
 6450 0f30 650F0000 		.4byte	0xf65
ARM GAS  C:\Users\kevin\AppData\Local\Temp\ccrA27HJ.s 			page 141


 6451 0f34 20       		.uleb128 0x20
 6452 0f35 DC080000 		.4byte	.LASF123
 6453 0f39 01       		.byte	0x1
 6454 0f3a 1203     		.2byte	0x312
 6455 0f3c 650F0000 		.4byte	0xf65
 6456 0f40 02       		.uleb128 0x2
 6457 0f41 91       		.byte	0x91
 6458 0f42 70       		.sleb128 -16
 6459 0f43 19       		.uleb128 0x19
 6460 0f44 34000000 		.4byte	.LVL82
 6461 0f48 42080000 		.4byte	0x842
 6462 0f4c 1A       		.uleb128 0x1a
 6463 0f4d 01       		.uleb128 0x1
 6464 0f4e 53       		.byte	0x53
 6465 0f4f 01       		.uleb128 0x1
 6466 0f50 38       		.byte	0x38
 6467 0f51 1A       		.uleb128 0x1a
 6468 0f52 01       		.uleb128 0x1
 6469 0f53 52       		.byte	0x52
 6470 0f54 02       		.uleb128 0x2
 6471 0f55 7D       		.byte	0x7d
 6472 0f56 00       		.sleb128 0
 6473 0f57 1A       		.uleb128 0x1a
 6474 0f58 01       		.uleb128 0x1
 6475 0f59 51       		.byte	0x51
 6476 0f5a 03       		.uleb128 0x3
 6477 0f5b 0B       		.byte	0xb
 6478 0f5c 0190     		.2byte	0x9001
 6479 0f5e 1A       		.uleb128 0x1a
 6480 0f5f 01       		.uleb128 0x1
 6481 0f60 50       		.byte	0x50
 6482 0f61 01       		.uleb128 0x1
 6483 0f62 30       		.byte	0x30
 6484 0f63 00       		.byte	0
 6485 0f64 00       		.byte	0
 6486 0f65 11       		.uleb128 0x11
 6487 0f66 6B000000 		.4byte	0x6b
 6488 0f6a 750F0000 		.4byte	0xf75
 6489 0f6e 12       		.uleb128 0x12
 6490 0f6f B2000000 		.4byte	0xb2
 6491 0f73 07       		.byte	0x7
 6492 0f74 00       		.byte	0
 6493 0f75 1B       		.uleb128 0x1b
 6494 0f76 CC0A0000 		.4byte	.LASF144
 6495 0f7a 01       		.byte	0x1
 6496 0f7b 1D03     		.2byte	0x31d
 6497 0f7d 00000000 		.4byte	.LFB65
 6498 0f81 54000000 		.4byte	.LFE65-.LFB65
 6499 0f85 01       		.uleb128 0x1
 6500 0f86 9C       		.byte	0x9c
 6501 0f87 BC0F0000 		.4byte	0xfbc
 6502 0f8b 20       		.uleb128 0x20
 6503 0f8c DC080000 		.4byte	.LASF123
 6504 0f90 01       		.byte	0x1
 6505 0f91 1F03     		.2byte	0x31f
 6506 0f93 0E0F0000 		.4byte	0xf0e
 6507 0f97 02       		.uleb128 0x2
ARM GAS  C:\Users\kevin\AppData\Local\Temp\ccrA27HJ.s 			page 142


 6508 0f98 91       		.byte	0x91
 6509 0f99 68       		.sleb128 -24
 6510 0f9a 19       		.uleb128 0x19
 6511 0f9b 46000000 		.4byte	.LVL83
 6512 0f9f 42080000 		.4byte	0x842
 6513 0fa3 1A       		.uleb128 0x1a
 6514 0fa4 01       		.uleb128 0x1
 6515 0fa5 53       		.byte	0x53
 6516 0fa6 01       		.uleb128 0x1
 6517 0fa7 3D       		.byte	0x3d
 6518 0fa8 1A       		.uleb128 0x1a
 6519 0fa9 01       		.uleb128 0x1
 6520 0faa 52       		.byte	0x52
 6521 0fab 02       		.uleb128 0x2
 6522 0fac 7D       		.byte	0x7d
 6523 0fad 00       		.sleb128 0
 6524 0fae 1A       		.uleb128 0x1a
 6525 0faf 01       		.uleb128 0x1
 6526 0fb0 51       		.byte	0x51
 6527 0fb1 03       		.uleb128 0x3
 6528 0fb2 0B       		.byte	0xb
 6529 0fb3 0290     		.2byte	0x9002
 6530 0fb5 1A       		.uleb128 0x1a
 6531 0fb6 01       		.uleb128 0x1
 6532 0fb7 50       		.byte	0x50
 6533 0fb8 01       		.uleb128 0x1
 6534 0fb9 30       		.byte	0x30
 6535 0fba 00       		.byte	0
 6536 0fbb 00       		.byte	0
 6537 0fbc 1B       		.uleb128 0x1b
 6538 0fbd 1F010000 		.4byte	.LASF145
 6539 0fc1 01       		.byte	0x1
 6540 0fc2 3003     		.2byte	0x330
 6541 0fc4 00000000 		.4byte	.LFB66
 6542 0fc8 14000000 		.4byte	.LFE66-.LFB66
 6543 0fcc 01       		.uleb128 0x1
 6544 0fcd 9C       		.byte	0x9c
 6545 0fce F30F0000 		.4byte	0xff3
 6546 0fd2 19       		.uleb128 0x19
 6547 0fd3 0E000000 		.4byte	.LVL84
 6548 0fd7 42080000 		.4byte	0x842
 6549 0fdb 1A       		.uleb128 0x1a
 6550 0fdc 01       		.uleb128 0x1
 6551 0fdd 53       		.byte	0x53
 6552 0fde 01       		.uleb128 0x1
 6553 0fdf 30       		.byte	0x30
 6554 0fe0 1A       		.uleb128 0x1a
 6555 0fe1 01       		.uleb128 0x1
 6556 0fe2 52       		.byte	0x52
 6557 0fe3 01       		.uleb128 0x1
 6558 0fe4 30       		.byte	0x30
 6559 0fe5 1A       		.uleb128 0x1a
 6560 0fe6 01       		.uleb128 0x1
 6561 0fe7 51       		.byte	0x51
 6562 0fe8 03       		.uleb128 0x3
 6563 0fe9 0B       		.byte	0xb
 6564 0fea F090     		.2byte	0x90f0
ARM GAS  C:\Users\kevin\AppData\Local\Temp\ccrA27HJ.s 			page 143


 6565 0fec 1A       		.uleb128 0x1a
 6566 0fed 01       		.uleb128 0x1
 6567 0fee 50       		.byte	0x50
 6568 0fef 01       		.uleb128 0x1
 6569 0ff0 30       		.byte	0x30
 6570 0ff1 00       		.byte	0
 6571 0ff2 00       		.byte	0
 6572 0ff3 1B       		.uleb128 0x1b
 6573 0ff4 AB090000 		.4byte	.LASF146
 6574 0ff8 01       		.byte	0x1
 6575 0ff9 3403     		.2byte	0x334
 6576 0ffb 00000000 		.4byte	.LFB67
 6577 0fff 14000000 		.4byte	.LFE67-.LFB67
 6578 1003 01       		.uleb128 0x1
 6579 1004 9C       		.byte	0x9c
 6580 1005 2A100000 		.4byte	0x102a
 6581 1009 19       		.uleb128 0x19
 6582 100a 0E000000 		.4byte	.LVL85
 6583 100e 42080000 		.4byte	0x842
 6584 1012 1A       		.uleb128 0x1a
 6585 1013 01       		.uleb128 0x1
 6586 1014 53       		.byte	0x53
 6587 1015 01       		.uleb128 0x1
 6588 1016 30       		.byte	0x30
 6589 1017 1A       		.uleb128 0x1a
 6590 1018 01       		.uleb128 0x1
 6591 1019 52       		.byte	0x52
 6592 101a 01       		.uleb128 0x1
 6593 101b 30       		.byte	0x30
 6594 101c 1A       		.uleb128 0x1a
 6595 101d 01       		.uleb128 0x1
 6596 101e 51       		.byte	0x51
 6597 101f 03       		.uleb128 0x3
 6598 1020 0B       		.byte	0xb
 6599 1021 F190     		.2byte	0x90f1
 6600 1023 1A       		.uleb128 0x1a
 6601 1024 01       		.uleb128 0x1
 6602 1025 50       		.byte	0x50
 6603 1026 01       		.uleb128 0x1
 6604 1027 30       		.byte	0x30
 6605 1028 00       		.byte	0
 6606 1029 00       		.byte	0
 6607 102a 1B       		.uleb128 0x1b
 6608 102b 33050000 		.4byte	.LASF147
 6609 102f 01       		.byte	0x1
 6610 1030 3803     		.2byte	0x338
 6611 1032 00000000 		.4byte	.LFB68
 6612 1036 14000000 		.4byte	.LFE68-.LFB68
 6613 103a 01       		.uleb128 0x1
 6614 103b 9C       		.byte	0x9c
 6615 103c 61100000 		.4byte	0x1061
 6616 1040 19       		.uleb128 0x19
 6617 1041 0E000000 		.4byte	.LVL86
 6618 1045 42080000 		.4byte	0x842
 6619 1049 1A       		.uleb128 0x1a
 6620 104a 01       		.uleb128 0x1
 6621 104b 53       		.byte	0x53
ARM GAS  C:\Users\kevin\AppData\Local\Temp\ccrA27HJ.s 			page 144


 6622 104c 01       		.uleb128 0x1
 6623 104d 30       		.byte	0x30
 6624 104e 1A       		.uleb128 0x1a
 6625 104f 01       		.uleb128 0x1
 6626 1050 52       		.byte	0x52
 6627 1051 01       		.uleb128 0x1
 6628 1052 30       		.byte	0x30
 6629 1053 1A       		.uleb128 0x1a
 6630 1054 01       		.uleb128 0x1
 6631 1055 51       		.byte	0x51
 6632 1056 03       		.uleb128 0x3
 6633 1057 0B       		.byte	0xb
 6634 1058 F290     		.2byte	0x90f2
 6635 105a 1A       		.uleb128 0x1a
 6636 105b 01       		.uleb128 0x1
 6637 105c 50       		.byte	0x50
 6638 105d 01       		.uleb128 0x1
 6639 105e 30       		.byte	0x30
 6640 105f 00       		.byte	0
 6641 1060 00       		.byte	0
 6642 1061 1B       		.uleb128 0x1b
 6643 1062 A90B0000 		.4byte	.LASF148
 6644 1066 01       		.byte	0x1
 6645 1067 3C03     		.2byte	0x33c
 6646 1069 00000000 		.4byte	.LFB69
 6647 106d 14000000 		.4byte	.LFE69-.LFB69
 6648 1071 01       		.uleb128 0x1
 6649 1072 9C       		.byte	0x9c
 6650 1073 98100000 		.4byte	0x1098
 6651 1077 19       		.uleb128 0x19
 6652 1078 0E000000 		.4byte	.LVL87
 6653 107c 42080000 		.4byte	0x842
 6654 1080 1A       		.uleb128 0x1a
 6655 1081 01       		.uleb128 0x1
 6656 1082 53       		.byte	0x53
 6657 1083 01       		.uleb128 0x1
 6658 1084 30       		.byte	0x30
 6659 1085 1A       		.uleb128 0x1a
 6660 1086 01       		.uleb128 0x1
 6661 1087 52       		.byte	0x52
 6662 1088 01       		.uleb128 0x1
 6663 1089 30       		.byte	0x30
 6664 108a 1A       		.uleb128 0x1a
 6665 108b 01       		.uleb128 0x1
 6666 108c 51       		.byte	0x51
 6667 108d 03       		.uleb128 0x3
 6668 108e 0B       		.byte	0xb
 6669 108f F390     		.2byte	0x90f3
 6670 1091 1A       		.uleb128 0x1a
 6671 1092 01       		.uleb128 0x1
 6672 1093 50       		.byte	0x50
 6673 1094 01       		.uleb128 0x1
 6674 1095 30       		.byte	0x30
 6675 1096 00       		.byte	0
 6676 1097 00       		.byte	0
 6677 1098 1B       		.uleb128 0x1b
 6678 1099 BB070000 		.4byte	.LASF149
ARM GAS  C:\Users\kevin\AppData\Local\Temp\ccrA27HJ.s 			page 145


 6679 109d 01       		.byte	0x1
 6680 109e 4003     		.2byte	0x340
 6681 10a0 00000000 		.4byte	.LFB70
 6682 10a4 14000000 		.4byte	.LFE70-.LFB70
 6683 10a8 01       		.uleb128 0x1
 6684 10a9 9C       		.byte	0x9c
 6685 10aa CF100000 		.4byte	0x10cf
 6686 10ae 19       		.uleb128 0x19
 6687 10af 0E000000 		.4byte	.LVL88
 6688 10b3 42080000 		.4byte	0x842
 6689 10b7 1A       		.uleb128 0x1a
 6690 10b8 01       		.uleb128 0x1
 6691 10b9 53       		.byte	0x53
 6692 10ba 01       		.uleb128 0x1
 6693 10bb 30       		.byte	0x30
 6694 10bc 1A       		.uleb128 0x1a
 6695 10bd 01       		.uleb128 0x1
 6696 10be 52       		.byte	0x52
 6697 10bf 01       		.uleb128 0x1
 6698 10c0 30       		.byte	0x30
 6699 10c1 1A       		.uleb128 0x1a
 6700 10c2 01       		.uleb128 0x1
 6701 10c3 51       		.byte	0x51
 6702 10c4 03       		.uleb128 0x3
 6703 10c5 0B       		.byte	0xb
 6704 10c6 F490     		.2byte	0x90f4
 6705 10c8 1A       		.uleb128 0x1a
 6706 10c9 01       		.uleb128 0x1
 6707 10ca 50       		.byte	0x50
 6708 10cb 01       		.uleb128 0x1
 6709 10cc 30       		.byte	0x30
 6710 10cd 00       		.byte	0
 6711 10ce 00       		.byte	0
 6712 10cf 1B       		.uleb128 0x1b
 6713 10d0 AF020000 		.4byte	.LASF150
 6714 10d4 01       		.byte	0x1
 6715 10d5 4403     		.2byte	0x344
 6716 10d7 00000000 		.4byte	.LFB71
 6717 10db 14000000 		.4byte	.LFE71-.LFB71
 6718 10df 01       		.uleb128 0x1
 6719 10e0 9C       		.byte	0x9c
 6720 10e1 06110000 		.4byte	0x1106
 6721 10e5 19       		.uleb128 0x19
 6722 10e6 0E000000 		.4byte	.LVL89
 6723 10ea 42080000 		.4byte	0x842
 6724 10ee 1A       		.uleb128 0x1a
 6725 10ef 01       		.uleb128 0x1
 6726 10f0 53       		.byte	0x53
 6727 10f1 01       		.uleb128 0x1
 6728 10f2 30       		.byte	0x30
 6729 10f3 1A       		.uleb128 0x1a
 6730 10f4 01       		.uleb128 0x1
 6731 10f5 52       		.byte	0x52
 6732 10f6 01       		.uleb128 0x1
 6733 10f7 30       		.byte	0x30
 6734 10f8 1A       		.uleb128 0x1a
 6735 10f9 01       		.uleb128 0x1
ARM GAS  C:\Users\kevin\AppData\Local\Temp\ccrA27HJ.s 			page 146


 6736 10fa 51       		.byte	0x51
 6737 10fb 03       		.uleb128 0x3
 6738 10fc 0B       		.byte	0xb
 6739 10fd F590     		.2byte	0x90f5
 6740 10ff 1A       		.uleb128 0x1a
 6741 1100 01       		.uleb128 0x1
 6742 1101 50       		.byte	0x50
 6743 1102 01       		.uleb128 0x1
 6744 1103 30       		.byte	0x30
 6745 1104 00       		.byte	0
 6746 1105 00       		.byte	0
 6747 1106 1B       		.uleb128 0x1b
 6748 1107 83090000 		.4byte	.LASF151
 6749 110b 01       		.byte	0x1
 6750 110c 4803     		.2byte	0x348
 6751 110e 00000000 		.4byte	.LFB72
 6752 1112 14000000 		.4byte	.LFE72-.LFB72
 6753 1116 01       		.uleb128 0x1
 6754 1117 9C       		.byte	0x9c
 6755 1118 3D110000 		.4byte	0x113d
 6756 111c 19       		.uleb128 0x19
 6757 111d 0E000000 		.4byte	.LVL90
 6758 1121 42080000 		.4byte	0x842
 6759 1125 1A       		.uleb128 0x1a
 6760 1126 01       		.uleb128 0x1
 6761 1127 53       		.byte	0x53
 6762 1128 01       		.uleb128 0x1
 6763 1129 30       		.byte	0x30
 6764 112a 1A       		.uleb128 0x1a
 6765 112b 01       		.uleb128 0x1
 6766 112c 52       		.byte	0x52
 6767 112d 01       		.uleb128 0x1
 6768 112e 30       		.byte	0x30
 6769 112f 1A       		.uleb128 0x1a
 6770 1130 01       		.uleb128 0x1
 6771 1131 51       		.byte	0x51
 6772 1132 03       		.uleb128 0x3
 6773 1133 0B       		.byte	0xb
 6774 1134 F690     		.2byte	0x90f6
 6775 1136 1A       		.uleb128 0x1a
 6776 1137 01       		.uleb128 0x1
 6777 1138 50       		.byte	0x50
 6778 1139 01       		.uleb128 0x1
 6779 113a 30       		.byte	0x30
 6780 113b 00       		.byte	0
 6781 113c 00       		.byte	0
 6782 113d 1B       		.uleb128 0x1b
 6783 113e 0F050000 		.4byte	.LASF152
 6784 1142 01       		.byte	0x1
 6785 1143 4C03     		.2byte	0x34c
 6786 1145 00000000 		.4byte	.LFB73
 6787 1149 14000000 		.4byte	.LFE73-.LFB73
 6788 114d 01       		.uleb128 0x1
 6789 114e 9C       		.byte	0x9c
 6790 114f 74110000 		.4byte	0x1174
 6791 1153 19       		.uleb128 0x19
 6792 1154 0E000000 		.4byte	.LVL91
ARM GAS  C:\Users\kevin\AppData\Local\Temp\ccrA27HJ.s 			page 147


 6793 1158 42080000 		.4byte	0x842
 6794 115c 1A       		.uleb128 0x1a
 6795 115d 01       		.uleb128 0x1
 6796 115e 53       		.byte	0x53
 6797 115f 01       		.uleb128 0x1
 6798 1160 30       		.byte	0x30
 6799 1161 1A       		.uleb128 0x1a
 6800 1162 01       		.uleb128 0x1
 6801 1163 52       		.byte	0x52
 6802 1164 01       		.uleb128 0x1
 6803 1165 30       		.byte	0x30
 6804 1166 1A       		.uleb128 0x1a
 6805 1167 01       		.uleb128 0x1
 6806 1168 51       		.byte	0x51
 6807 1169 03       		.uleb128 0x3
 6808 116a 0B       		.byte	0xb
 6809 116b F790     		.2byte	0x90f7
 6810 116d 1A       		.uleb128 0x1a
 6811 116e 01       		.uleb128 0x1
 6812 116f 50       		.byte	0x50
 6813 1170 01       		.uleb128 0x1
 6814 1171 30       		.byte	0x30
 6815 1172 00       		.byte	0
 6816 1173 00       		.byte	0
 6817 1174 1B       		.uleb128 0x1b
 6818 1175 A80C0000 		.4byte	.LASF153
 6819 1179 01       		.byte	0x1
 6820 117a 5003     		.2byte	0x350
 6821 117c 00000000 		.4byte	.LFB74
 6822 1180 14000000 		.4byte	.LFE74-.LFB74
 6823 1184 01       		.uleb128 0x1
 6824 1185 9C       		.byte	0x9c
 6825 1186 AB110000 		.4byte	0x11ab
 6826 118a 19       		.uleb128 0x19
 6827 118b 0E000000 		.4byte	.LVL92
 6828 118f 42080000 		.4byte	0x842
 6829 1193 1A       		.uleb128 0x1a
 6830 1194 01       		.uleb128 0x1
 6831 1195 53       		.byte	0x53
 6832 1196 01       		.uleb128 0x1
 6833 1197 30       		.byte	0x30
 6834 1198 1A       		.uleb128 0x1a
 6835 1199 01       		.uleb128 0x1
 6836 119a 52       		.byte	0x52
 6837 119b 01       		.uleb128 0x1
 6838 119c 30       		.byte	0x30
 6839 119d 1A       		.uleb128 0x1a
 6840 119e 01       		.uleb128 0x1
 6841 119f 51       		.byte	0x51
 6842 11a0 03       		.uleb128 0x3
 6843 11a1 0B       		.byte	0xb
 6844 11a2 F890     		.2byte	0x90f8
 6845 11a4 1A       		.uleb128 0x1a
 6846 11a5 01       		.uleb128 0x1
 6847 11a6 50       		.byte	0x50
 6848 11a7 01       		.uleb128 0x1
 6849 11a8 30       		.byte	0x30
ARM GAS  C:\Users\kevin\AppData\Local\Temp\ccrA27HJ.s 			page 148


 6850 11a9 00       		.byte	0
 6851 11aa 00       		.byte	0
 6852 11ab 1B       		.uleb128 0x1b
 6853 11ac 4D070000 		.4byte	.LASF154
 6854 11b0 01       		.byte	0x1
 6855 11b1 5403     		.2byte	0x354
 6856 11b3 00000000 		.4byte	.LFB75
 6857 11b7 14000000 		.4byte	.LFE75-.LFB75
 6858 11bb 01       		.uleb128 0x1
 6859 11bc 9C       		.byte	0x9c
 6860 11bd E2110000 		.4byte	0x11e2
 6861 11c1 19       		.uleb128 0x19
 6862 11c2 0E000000 		.4byte	.LVL93
 6863 11c6 42080000 		.4byte	0x842
 6864 11ca 1A       		.uleb128 0x1a
 6865 11cb 01       		.uleb128 0x1
 6866 11cc 53       		.byte	0x53
 6867 11cd 01       		.uleb128 0x1
 6868 11ce 30       		.byte	0x30
 6869 11cf 1A       		.uleb128 0x1a
 6870 11d0 01       		.uleb128 0x1
 6871 11d1 52       		.byte	0x52
 6872 11d2 01       		.uleb128 0x1
 6873 11d3 30       		.byte	0x30
 6874 11d4 1A       		.uleb128 0x1a
 6875 11d5 01       		.uleb128 0x1
 6876 11d6 51       		.byte	0x51
 6877 11d7 03       		.uleb128 0x3
 6878 11d8 0B       		.byte	0xb
 6879 11d9 F990     		.2byte	0x90f9
 6880 11db 1A       		.uleb128 0x1a
 6881 11dc 01       		.uleb128 0x1
 6882 11dd 50       		.byte	0x50
 6883 11de 01       		.uleb128 0x1
 6884 11df 30       		.byte	0x30
 6885 11e0 00       		.byte	0
 6886 11e1 00       		.byte	0
 6887 11e2 1B       		.uleb128 0x1b
 6888 11e3 2C010000 		.4byte	.LASF155
 6889 11e7 01       		.byte	0x1
 6890 11e8 5803     		.2byte	0x358
 6891 11ea 00000000 		.4byte	.LFB76
 6892 11ee 20000000 		.4byte	.LFE76-.LFB76
 6893 11f2 01       		.uleb128 0x1
 6894 11f3 9C       		.byte	0x9c
 6895 11f4 07120000 		.4byte	0x1207
 6896 11f8 1D       		.uleb128 0x1d
 6897 11f9 18090000 		.4byte	.LASF156
 6898 11fd 01       		.byte	0x1
 6899 11fe 5803     		.2byte	0x358
 6900 1200 76000000 		.4byte	0x76
 6901 1204 01       		.uleb128 0x1
 6902 1205 50       		.byte	0x50
 6903 1206 00       		.byte	0
 6904 1207 1B       		.uleb128 0x1b
 6905 1208 0F000000 		.4byte	.LASF157
 6906 120c 01       		.byte	0x1
ARM GAS  C:\Users\kevin\AppData\Local\Temp\ccrA27HJ.s 			page 149


 6907 120d 6103     		.2byte	0x361
 6908 120f 00000000 		.4byte	.LFB77
 6909 1213 20000000 		.4byte	.LFE77-.LFB77
 6910 1217 01       		.uleb128 0x1
 6911 1218 9C       		.byte	0x9c
 6912 1219 2C120000 		.4byte	0x122c
 6913 121d 1D       		.uleb128 0x1d
 6914 121e 18090000 		.4byte	.LASF156
 6915 1222 01       		.byte	0x1
 6916 1223 6103     		.2byte	0x361
 6917 1225 76000000 		.4byte	0x76
 6918 1229 01       		.uleb128 0x1
 6919 122a 50       		.byte	0x50
 6920 122b 00       		.byte	0
 6921 122c 1F       		.uleb128 0x1f
 6922 122d 8C030000 		.4byte	.LASF159
 6923 1231 01       		.byte	0x1
 6924 1232 6F03     		.2byte	0x36f
 6925 1234 00000000 		.4byte	.LFB78
 6926 1238 20000000 		.4byte	.LFE78-.LFB78
 6927 123c 01       		.uleb128 0x1
 6928 123d 9C       		.byte	0x9c
 6929 123e 1B       		.uleb128 0x1b
 6930 123f 690C0000 		.4byte	.LASF160
 6931 1243 01       		.byte	0x1
 6932 1244 7F03     		.2byte	0x37f
 6933 1246 00000000 		.4byte	.LFB79
 6934 124a 04010000 		.4byte	.LFE79-.LFB79
 6935 124e 01       		.uleb128 0x1
 6936 124f 9C       		.byte	0x9c
 6937 1250 B4120000 		.4byte	0x12b4
 6938 1254 23       		.uleb128 0x23
 6939 1255 6900     		.ascii	"i\000"
 6940 1257 01       		.byte	0x1
 6941 1258 8103     		.2byte	0x381
 6942 125a 6B000000 		.4byte	0x6b
 6943 125e D9020000 		.4byte	.LLST18
 6944 1262 1E       		.uleb128 0x1e
 6945 1263 76000000 		.4byte	.LVL100
 6946 1267 490E0000 		.4byte	0xe49
 6947 126b 1E       		.uleb128 0x1e
 6948 126c 88000000 		.4byte	.LVL101
 6949 1270 750F0000 		.4byte	0xf75
 6950 1274 1E       		.uleb128 0x1e
 6951 1275 9C000000 		.4byte	.LVL102
 6952 1279 AB110000 		.4byte	0x11ab
 6953 127d 1E       		.uleb128 0x1e
 6954 127e AE000000 		.4byte	.LVL103
 6955 1282 800E0000 		.4byte	0xe80
 6956 1286 1E       		.uleb128 0x1e
 6957 1287 B4000000 		.4byte	.LVL104
 6958 128b 41090000 		.4byte	0x941
 6959 128f 1E       		.uleb128 0x1e
 6960 1290 BA000000 		.4byte	.LVL105
 6961 1294 120E0000 		.4byte	0xe12
 6962 1298 1E       		.uleb128 0x1e
 6963 1299 C0000000 		.4byte	.LVL106
ARM GAS  C:\Users\kevin\AppData\Local\Temp\ccrA27HJ.s 			page 150


 6964 129d C70E0000 		.4byte	0xec7
 6965 12a1 1E       		.uleb128 0x1e
 6966 12a2 C6000000 		.4byte	.LVL107
 6967 12a6 1E0F0000 		.4byte	0xf1e
 6968 12aa 1E       		.uleb128 0x1e
 6969 12ab CC000000 		.4byte	.LVL108
 6970 12af BC0F0000 		.4byte	0xfbc
 6971 12b3 00       		.byte	0
 6972 12b4 1B       		.uleb128 0x1b
 6973 12b5 40050000 		.4byte	.LASF161
 6974 12b9 01       		.byte	0x1
 6975 12ba C603     		.2byte	0x3c6
 6976 12bc 00000000 		.4byte	.LFB80
 6977 12c0 D0010000 		.4byte	.LFE80-.LFB80
 6978 12c4 01       		.uleb128 0x1
 6979 12c5 9C       		.byte	0x9c
 6980 12c6 7E130000 		.4byte	0x137e
 6981 12ca 21       		.uleb128 0x21
 6982 12cb 2A000000 		.4byte	.LVL109
 6983 12cf EF060000 		.4byte	0x6ef
 6984 12d3 E4120000 		.4byte	0x12e4
 6985 12d7 1A       		.uleb128 0x1a
 6986 12d8 01       		.uleb128 0x1
 6987 12d9 51       		.byte	0x51
 6988 12da 02       		.uleb128 0x2
 6989 12db 76       		.byte	0x76
 6990 12dc 0A       		.sleb128 10
 6991 12dd 1A       		.uleb128 0x1a
 6992 12de 01       		.uleb128 0x1
 6993 12df 50       		.byte	0x50
 6994 12e0 02       		.uleb128 0x2
 6995 12e1 74       		.byte	0x74
 6996 12e2 00       		.sleb128 0
 6997 12e3 00       		.byte	0
 6998 12e4 1E       		.uleb128 0x1e
 6999 12e5 60000000 		.4byte	.LVL110
 7000 12e9 CB0D0000 		.4byte	0xdcb
 7001 12ed 1E       		.uleb128 0x1e
 7002 12ee 74000000 		.4byte	.LVL111
 7003 12f2 9F0C0000 		.4byte	0xc9f
 7004 12f6 1E       		.uleb128 0x1e
 7005 12f7 8E000000 		.4byte	.LVL112
 7006 12fb EF090000 		.4byte	0x9ef
 7007 12ff 1E       		.uleb128 0x1e
 7008 1300 A2000000 		.4byte	.LVL113
 7009 1304 0F0C0000 		.4byte	0xc0f
 7010 1308 1E       		.uleb128 0x1e
 7011 1309 C2000000 		.4byte	.LVL114
 7012 130d 6F0B0000 		.4byte	0xb6f
 7013 1311 1E       		.uleb128 0x1e
 7014 1312 C8000000 		.4byte	.LVL115
 7015 1316 570C0000 		.4byte	0xc57
 7016 131a 1E       		.uleb128 0x1e
 7017 131b DC000000 		.4byte	.LVL116
 7018 131f 95190000 		.4byte	0x1995
 7019 1323 1E       		.uleb128 0x1e
 7020 1324 E0000000 		.4byte	.LVL117
ARM GAS  C:\Users\kevin\AppData\Local\Temp\ccrA27HJ.s 			page 151


 7021 1328 9C190000 		.4byte	0x199c
 7022 132c 1E       		.uleb128 0x1e
 7023 132d E6000000 		.4byte	.LVL118
 7024 1331 B70B0000 		.4byte	0xbb7
 7025 1335 1E       		.uleb128 0x1e
 7026 1336 F2000000 		.4byte	.LVL119
 7027 133a 98090000 		.4byte	0x998
 7028 133e 1E       		.uleb128 0x1e
 7029 133f F8000000 		.4byte	.LVL120
 7030 1343 460A0000 		.4byte	0xa46
 7031 1347 1E       		.uleb128 0x1e
 7032 1348 FE000000 		.4byte	.LVL121
 7033 134c C10A0000 		.4byte	0xac1
 7034 1350 1E       		.uleb128 0x1e
 7035 1351 44010000 		.4byte	.LVL122
 7036 1355 95190000 		.4byte	0x1995
 7037 1359 1E       		.uleb128 0x1e
 7038 135a 4A010000 		.4byte	.LVL123
 7039 135e F60C0000 		.4byte	0xcf6
 7040 1362 1E       		.uleb128 0x1e
 7041 1363 60010000 		.4byte	.LVL124
 7042 1367 3D0D0000 		.4byte	0xd3d
 7043 136b 1E       		.uleb128 0x1e
 7044 136c 72010000 		.4byte	.LVL125
 7045 1370 180B0000 		.4byte	0xb18
 7046 1374 1E       		.uleb128 0x1e
 7047 1375 84010000 		.4byte	.LVL126
 7048 1379 840D0000 		.4byte	0xd84
 7049 137d 00       		.byte	0
 7050 137e 1B       		.uleb128 0x1b
 7051 137f D50C0000 		.4byte	.LASF162
 7052 1383 01       		.byte	0x1
 7053 1384 3304     		.2byte	0x433
 7054 1386 00000000 		.4byte	.LFB81
 7055 138a 74000000 		.4byte	.LFE81-.LFB81
 7056 138e 01       		.uleb128 0x1
 7057 138f 9C       		.byte	0x9c
 7058 1390 AB130000 		.4byte	0x13ab
 7059 1394 19       		.uleb128 0x19
 7060 1395 26000000 		.4byte	.LVL127
 7061 1399 EF060000 		.4byte	0x6ef
 7062 139d 1A       		.uleb128 0x1a
 7063 139e 01       		.uleb128 0x1
 7064 139f 51       		.byte	0x51
 7065 13a0 02       		.uleb128 0x2
 7066 13a1 75       		.byte	0x75
 7067 13a2 0A       		.sleb128 10
 7068 13a3 1A       		.uleb128 0x1a
 7069 13a4 01       		.uleb128 0x1
 7070 13a5 50       		.byte	0x50
 7071 13a6 02       		.uleb128 0x2
 7072 13a7 74       		.byte	0x74
 7073 13a8 00       		.sleb128 0
 7074 13a9 00       		.byte	0
 7075 13aa 00       		.byte	0
 7076 13ab 1B       		.uleb128 0x1b
 7077 13ac AE080000 		.4byte	.LASF163
ARM GAS  C:\Users\kevin\AppData\Local\Temp\ccrA27HJ.s 			page 152


 7078 13b0 01       		.byte	0x1
 7079 13b1 5104     		.2byte	0x451
 7080 13b3 00000000 		.4byte	.LFB82
 7081 13b7 CC000000 		.4byte	.LFE82-.LFB82
 7082 13bb 01       		.uleb128 0x1
 7083 13bc 9C       		.byte	0x9c
 7084 13bd D8130000 		.4byte	0x13d8
 7085 13c1 19       		.uleb128 0x19
 7086 13c2 26000000 		.4byte	.LVL128
 7087 13c6 EF060000 		.4byte	0x6ef
 7088 13ca 1A       		.uleb128 0x1a
 7089 13cb 01       		.uleb128 0x1
 7090 13cc 51       		.byte	0x51
 7091 13cd 02       		.uleb128 0x2
 7092 13ce 75       		.byte	0x75
 7093 13cf 0A       		.sleb128 10
 7094 13d0 1A       		.uleb128 0x1a
 7095 13d1 01       		.uleb128 0x1
 7096 13d2 50       		.byte	0x50
 7097 13d3 02       		.uleb128 0x2
 7098 13d4 74       		.byte	0x74
 7099 13d5 00       		.sleb128 0
 7100 13d6 00       		.byte	0
 7101 13d7 00       		.byte	0
 7102 13d8 1B       		.uleb128 0x1b
 7103 13d9 880A0000 		.4byte	.LASF164
 7104 13dd 01       		.byte	0x1
 7105 13de A504     		.2byte	0x4a5
 7106 13e0 00000000 		.4byte	.LFB83
 7107 13e4 F0000000 		.4byte	.LFE83-.LFB83
 7108 13e8 01       		.uleb128 0x1
 7109 13e9 9C       		.byte	0x9c
 7110 13ea 4E140000 		.4byte	0x144e
 7111 13ee 21       		.uleb128 0x21
 7112 13ef 28000000 		.4byte	.LVL129
 7113 13f3 EF060000 		.4byte	0x6ef
 7114 13f7 08140000 		.4byte	0x1408
 7115 13fb 1A       		.uleb128 0x1a
 7116 13fc 01       		.uleb128 0x1
 7117 13fd 51       		.byte	0x51
 7118 13fe 02       		.uleb128 0x2
 7119 13ff 77       		.byte	0x77
 7120 1400 0A       		.sleb128 10
 7121 1401 1A       		.uleb128 0x1a
 7122 1402 01       		.uleb128 0x1
 7123 1403 50       		.byte	0x50
 7124 1404 02       		.uleb128 0x2
 7125 1405 74       		.byte	0x74
 7126 1406 00       		.sleb128 0
 7127 1407 00       		.byte	0
 7128 1408 1E       		.uleb128 0x1e
 7129 1409 7E000000 		.4byte	.LVL130
 7130 140d 29060000 		.4byte	0x629
 7131 1411 21       		.uleb128 0x21
 7132 1412 88000000 		.4byte	.LVL131
 7133 1416 70060000 		.4byte	0x670
 7134 141a 25140000 		.4byte	0x1425
ARM GAS  C:\Users\kevin\AppData\Local\Temp\ccrA27HJ.s 			page 153


 7135 141e 1A       		.uleb128 0x1a
 7136 141f 01       		.uleb128 0x1
 7137 1420 50       		.byte	0x50
 7138 1421 02       		.uleb128 0x2
 7139 1422 74       		.byte	0x74
 7140 1423 00       		.sleb128 0
 7141 1424 00       		.byte	0
 7142 1425 21       		.uleb128 0x21
 7143 1426 A0000000 		.4byte	.LVL132
 7144 142a 54190000 		.4byte	0x1954
 7145 142e 44140000 		.4byte	0x1444
 7146 1432 1A       		.uleb128 0x1a
 7147 1433 01       		.uleb128 0x1
 7148 1434 52       		.byte	0x52
 7149 1435 01       		.uleb128 0x1
 7150 1436 4E       		.byte	0x4e
 7151 1437 1A       		.uleb128 0x1a
 7152 1438 01       		.uleb128 0x1
 7153 1439 51       		.byte	0x51
 7154 143a 02       		.uleb128 0x2
 7155 143b 74       		.byte	0x74
 7156 143c 00       		.sleb128 0
 7157 143d 1A       		.uleb128 0x1a
 7158 143e 01       		.uleb128 0x1
 7159 143f 50       		.byte	0x50
 7160 1440 02       		.uleb128 0x2
 7161 1441 76       		.byte	0x76
 7162 1442 00       		.sleb128 0
 7163 1443 00       		.byte	0
 7164 1444 1E       		.uleb128 0x1e
 7165 1445 BA000000 		.4byte	.LVL133
 7166 1449 A3190000 		.4byte	0x19a3
 7167 144d 00       		.byte	0
 7168 144e 1B       		.uleb128 0x1b
 7169 144f 790B0000 		.4byte	.LASF165
 7170 1453 01       		.byte	0x1
 7171 1454 D204     		.2byte	0x4d2
 7172 1456 00000000 		.4byte	.LFB84
 7173 145a 5C000000 		.4byte	.LFE84-.LFB84
 7174 145e 01       		.uleb128 0x1
 7175 145f 9C       		.byte	0x9c
 7176 1460 B5140000 		.4byte	0x14b5
 7177 1464 21       		.uleb128 0x21
 7178 1465 20000000 		.4byte	.LVL134
 7179 1469 07120000 		.4byte	0x1207
 7180 146d 79140000 		.4byte	0x1479
 7181 1471 1A       		.uleb128 0x1a
 7182 1472 01       		.uleb128 0x1
 7183 1473 50       		.byte	0x50
 7184 1474 03       		.uleb128 0x3
 7185 1475 0B       		.byte	0xb
 7186 1476 F990     		.2byte	0x90f9
 7187 1478 00       		.byte	0
 7188 1479 21       		.uleb128 0x21
 7189 147a 26000000 		.4byte	.LVL135
 7190 147e E2110000 		.4byte	0x11e2
 7191 1482 8E140000 		.4byte	0x148e
ARM GAS  C:\Users\kevin\AppData\Local\Temp\ccrA27HJ.s 			page 154


 7192 1486 1A       		.uleb128 0x1a
 7193 1487 01       		.uleb128 0x1
 7194 1488 50       		.byte	0x50
 7195 1489 03       		.uleb128 0x3
 7196 148a 0B       		.byte	0xb
 7197 148b F990     		.2byte	0x90f9
 7198 148d 00       		.byte	0
 7199 148e 21       		.uleb128 0x21
 7200 148f 44000000 		.4byte	.LVL136
 7201 1493 07120000 		.4byte	0x1207
 7202 1497 A3140000 		.4byte	0x14a3
 7203 149b 1A       		.uleb128 0x1a
 7204 149c 01       		.uleb128 0x1
 7205 149d 50       		.byte	0x50
 7206 149e 03       		.uleb128 0x3
 7207 149f 0B       		.byte	0xb
 7208 14a0 F090     		.2byte	0x90f0
 7209 14a2 00       		.byte	0
 7210 14a3 19       		.uleb128 0x19
 7211 14a4 4A000000 		.4byte	.LVL137
 7212 14a8 E2110000 		.4byte	0x11e2
 7213 14ac 1A       		.uleb128 0x1a
 7214 14ad 01       		.uleb128 0x1
 7215 14ae 50       		.byte	0x50
 7216 14af 03       		.uleb128 0x3
 7217 14b0 0B       		.byte	0xb
 7218 14b1 F090     		.2byte	0x90f0
 7219 14b3 00       		.byte	0
 7220 14b4 00       		.byte	0
 7221 14b5 1B       		.uleb128 0x1b
 7222 14b6 260C0000 		.4byte	.LASF166
 7223 14ba 01       		.byte	0x1
 7224 14bb EA04     		.2byte	0x4ea
 7225 14bd 00000000 		.4byte	.LFB85
 7226 14c1 24000000 		.4byte	.LFE85-.LFB85
 7227 14c5 01       		.uleb128 0x1
 7228 14c6 9C       		.byte	0x9c
 7229 14c7 E7140000 		.4byte	0x14e7
 7230 14cb 1E       		.uleb128 0x1e
 7231 14cc 10000000 		.4byte	.LVL138
 7232 14d0 AB130000 		.4byte	0x13ab
 7233 14d4 1E       		.uleb128 0x1e
 7234 14d5 1A000000 		.4byte	.LVL139
 7235 14d9 7E130000 		.4byte	0x137e
 7236 14dd 1E       		.uleb128 0x1e
 7237 14de 1E000000 		.4byte	.LVL140
 7238 14e2 B4120000 		.4byte	0x12b4
 7239 14e6 00       		.byte	0
 7240 14e7 24       		.uleb128 0x24
 7241 14e8 E6040000 		.4byte	.LASF167
 7242 14ec 03       		.byte	0x3
 7243 14ed 23       		.byte	0x23
 7244 14ee 6B000000 		.4byte	0x6b
 7245 14f2 24       		.uleb128 0x24
 7246 14f3 D6090000 		.4byte	.LASF168
 7247 14f7 03       		.byte	0x3
 7248 14f8 24       		.byte	0x24
ARM GAS  C:\Users\kevin\AppData\Local\Temp\ccrA27HJ.s 			page 155


 7249 14f9 6B000000 		.4byte	0x6b
 7250 14fd 24       		.uleb128 0x24
 7251 14fe D1050000 		.4byte	.LASF169
 7252 1502 03       		.byte	0x3
 7253 1503 77       		.byte	0x77
 7254 1504 6B000000 		.4byte	0x6b
 7255 1508 24       		.uleb128 0x24
 7256 1509 10060000 		.4byte	.LASF170
 7257 150d 03       		.byte	0x3
 7258 150e 7B       		.byte	0x7b
 7259 150f 6B000000 		.4byte	0x6b
 7260 1513 24       		.uleb128 0x24
 7261 1514 63060000 		.4byte	.LASF171
 7262 1518 03       		.byte	0x3
 7263 1519 7B       		.byte	0x7b
 7264 151a 6B000000 		.4byte	0x6b
 7265 151e 24       		.uleb128 0x24
 7266 151f D2040000 		.4byte	.LASF172
 7267 1523 03       		.byte	0x3
 7268 1524 7D       		.byte	0x7d
 7269 1525 6B000000 		.4byte	0x6b
 7270 1529 24       		.uleb128 0x24
 7271 152a 550C0000 		.4byte	.LASF173
 7272 152e 03       		.byte	0x3
 7273 152f 98       		.byte	0x98
 7274 1530 C1000000 		.4byte	0xc1
 7275 1534 24       		.uleb128 0x24
 7276 1535 ED040000 		.4byte	.LASF174
 7277 1539 03       		.byte	0x3
 7278 153a BE       		.byte	0xbe
 7279 153b 60010000 		.4byte	0x160
 7280 153f 24       		.uleb128 0x24
 7281 1540 BA050000 		.4byte	.LASF175
 7282 1544 03       		.byte	0x3
 7283 1545 CB       		.byte	0xcb
 7284 1546 1C030000 		.4byte	0x31c
 7285 154a 24       		.uleb128 0x24
 7286 154b 50080000 		.4byte	.LASF176
 7287 154f 03       		.byte	0x3
 7288 1550 D6       		.byte	0xd6
 7289 1551 E2030000 		.4byte	0x3e2
 7290 1555 24       		.uleb128 0x24
 7291 1556 3D0C0000 		.4byte	.LASF177
 7292 155a 03       		.byte	0x3
 7293 155b E2       		.byte	0xe2
 7294 155c 46040000 		.4byte	0x446
 7295 1560 25       		.uleb128 0x25
 7296 1561 7B050000 		.4byte	.LASF178
 7297 1565 03       		.byte	0x3
 7298 1566 0301     		.2byte	0x103
 7299 1568 E8040000 		.4byte	0x4e8
 7300 156c 25       		.uleb128 0x25
 7301 156d FE030000 		.4byte	.LASF179
 7302 1571 03       		.byte	0x3
 7303 1572 1301     		.2byte	0x113
 7304 1574 76000000 		.4byte	0x76
 7305 1578 25       		.uleb128 0x25
ARM GAS  C:\Users\kevin\AppData\Local\Temp\ccrA27HJ.s 			page 156


 7306 1579 B60B0000 		.4byte	.LASF180
 7307 157d 03       		.byte	0x3
 7308 157e 1401     		.2byte	0x114
 7309 1580 81000000 		.4byte	0x81
 7310 1584 11       		.uleb128 0x11
 7311 1585 76000000 		.4byte	0x76
 7312 1589 94150000 		.4byte	0x1594
 7313 158d 12       		.uleb128 0x12
 7314 158e B2000000 		.4byte	0xb2
 7315 1592 0B       		.byte	0xb
 7316 1593 00       		.byte	0
 7317 1594 25       		.uleb128 0x25
 7318 1595 24030000 		.4byte	.LASF181
 7319 1599 03       		.byte	0x3
 7320 159a 1501     		.2byte	0x115
 7321 159c 84150000 		.4byte	0x1584
 7322 15a0 25       		.uleb128 0x25
 7323 15a1 30090000 		.4byte	.LASF182
 7324 15a5 03       		.byte	0x3
 7325 15a6 1A01     		.2byte	0x11a
 7326 15a8 6B000000 		.4byte	0x6b
 7327 15ac 25       		.uleb128 0x25
 7328 15ad 8D080000 		.4byte	.LASF183
 7329 15b1 03       		.byte	0x3
 7330 15b2 1B01     		.2byte	0x11b
 7331 15b4 84150000 		.4byte	0x1584
 7332 15b8 25       		.uleb128 0x25
 7333 15b9 7A0C0000 		.4byte	.LASF184
 7334 15bd 03       		.byte	0x3
 7335 15be 1C01     		.2byte	0x11c
 7336 15c0 6B000000 		.4byte	0x6b
 7337 15c4 11       		.uleb128 0x11
 7338 15c5 6B000000 		.4byte	0x6b
 7339 15c9 D4150000 		.4byte	0x15d4
 7340 15cd 12       		.uleb128 0x12
 7341 15ce B2000000 		.4byte	0xb2
 7342 15d2 0B       		.byte	0xb
 7343 15d3 00       		.byte	0
 7344 15d4 25       		.uleb128 0x25
 7345 15d5 91050000 		.4byte	.LASF185
 7346 15d9 03       		.byte	0x3
 7347 15da 1D01     		.2byte	0x11d
 7348 15dc C4150000 		.4byte	0x15c4
 7349 15e0 25       		.uleb128 0x25
 7350 15e1 68070000 		.4byte	.LASF186
 7351 15e5 03       		.byte	0x3
 7352 15e6 1E01     		.2byte	0x11e
 7353 15e8 6B000000 		.4byte	0x6b
 7354 15ec 26       		.uleb128 0x26
 7355 15ed F6080000 		.4byte	.LASF187
 7356 15f1 04       		.byte	0x4
 7357 15f2 C3       		.byte	0xc3
 7358 15f3 76000000 		.4byte	0x76
 7359 15f7 05       		.uleb128 0x5
 7360 15f8 03       		.byte	0x3
 7361 15f9 00000000 		.4byte	Value_Tds0
 7362 15fd 26       		.uleb128 0x26
ARM GAS  C:\Users\kevin\AppData\Local\Temp\ccrA27HJ.s 			page 157


 7363 15fe 01090000 		.4byte	.LASF188
 7364 1602 04       		.byte	0x4
 7365 1603 C4       		.byte	0xc4
 7366 1604 76000000 		.4byte	0x76
 7367 1608 05       		.uleb128 0x5
 7368 1609 03       		.byte	0x3
 7369 160a 00000000 		.4byte	Value_Tds1
 7370 160e 25       		.uleb128 0x25
 7371 160f AC070000 		.4byte	.LASF189
 7372 1613 03       		.byte	0x3
 7373 1614 2F01     		.2byte	0x12f
 7374 1616 76000000 		.4byte	0x76
 7375 161a 26       		.uleb128 0x26
 7376 161b 420B0000 		.4byte	.LASF190
 7377 161f 04       		.byte	0x4
 7378 1620 C7       		.byte	0xc7
 7379 1621 76000000 		.4byte	0x76
 7380 1625 05       		.uleb128 0x5
 7381 1626 03       		.byte	0x3
 7382 1627 00000000 		.4byte	Value_Loushui_Ad
 7383 162b 26       		.uleb128 0x26
 7384 162c 89050000 		.4byte	.LASF191
 7385 1630 04       		.byte	0x4
 7386 1631 C8       		.byte	0xc8
 7387 1632 6B000000 		.4byte	0x6b
 7388 1636 05       		.uleb128 0x5
 7389 1637 03       		.byte	0x3
 7390 1638 00000000 		.4byte	Value_T
 7391 163c 26       		.uleb128 0x26
 7392 163d 0E080000 		.4byte	.LASF192
 7393 1641 04       		.byte	0x4
 7394 1642 C9       		.byte	0xc9
 7395 1643 76000000 		.4byte	0x76
 7396 1647 05       		.uleb128 0x5
 7397 1648 03       		.byte	0x3
 7398 1649 00000000 		.4byte	Value_Flow
 7399 164d 25       		.uleb128 0x25
 7400 164e 7E030000 		.4byte	.LASF193
 7401 1652 03       		.byte	0x3
 7402 1653 3401     		.2byte	0x134
 7403 1655 6B000000 		.4byte	0x6b
 7404 1659 25       		.uleb128 0x25
 7405 165a 45020000 		.4byte	.LASF194
 7406 165e 03       		.byte	0x3
 7407 165f 3601     		.2byte	0x136
 7408 1661 6B000000 		.4byte	0x6b
 7409 1665 26       		.uleb128 0x26
 7410 1666 390A0000 		.4byte	.LASF195
 7411 166a 04       		.byte	0x4
 7412 166b B9       		.byte	0xb9
 7413 166c 08050000 		.4byte	0x508
 7414 1670 05       		.uleb128 0x5
 7415 1671 03       		.byte	0x3
 7416 1672 00000000 		.4byte	WifiWorkFlag
 7417 1676 26       		.uleb128 0x26
 7418 1677 09020000 		.4byte	.LASF196
 7419 167b 04       		.byte	0x4
ARM GAS  C:\Users\kevin\AppData\Local\Temp\ccrA27HJ.s 			page 158


 7420 167c BA       		.byte	0xba
 7421 167d 87160000 		.4byte	0x1687
 7422 1681 05       		.uleb128 0x5
 7423 1682 03       		.byte	0x3
 7424 1683 00000000 		.4byte	TDScheck1
 7425 1687 08       		.uleb128 0x8
 7426 1688 04       		.byte	0x4
 7427 1689 76000000 		.4byte	0x76
 7428 168d 26       		.uleb128 0x26
 7429 168e F7050000 		.4byte	.LASF197
 7430 1692 04       		.byte	0x4
 7431 1693 BB       		.byte	0xbb
 7432 1694 87160000 		.4byte	0x1687
 7433 1698 05       		.uleb128 0x5
 7434 1699 03       		.byte	0x3
 7435 169a 00000000 		.4byte	TDScheck2
 7436 169e 26       		.uleb128 0x26
 7437 169f 01060000 		.4byte	.LASF198
 7438 16a3 04       		.byte	0x4
 7439 16a4 BC       		.byte	0xbc
 7440 16a5 87160000 		.4byte	0x1687
 7441 16a9 05       		.uleb128 0x5
 7442 16aa 03       		.byte	0x3
 7443 16ab 00000000 		.4byte	TDScheck3
 7444 16af 26       		.uleb128 0x26
 7445 16b0 13020000 		.4byte	.LASF199
 7446 16b4 04       		.byte	0x4
 7447 16b5 BD       		.byte	0xbd
 7448 16b6 C0160000 		.4byte	0x16c0
 7449 16ba 05       		.uleb128 0x5
 7450 16bb 03       		.byte	0x3
 7451 16bc 00000000 		.4byte	TDScheck4
 7452 16c0 08       		.uleb128 0x8
 7453 16c1 04       		.byte	0x4
 7454 16c2 64000000 		.4byte	0x64
 7455 16c6 26       		.uleb128 0x26
 7456 16c7 A3020000 		.4byte	.LASF200
 7457 16cb 04       		.byte	0x4
 7458 16cc BE       		.byte	0xbe
 7459 16cd 6B000000 		.4byte	0x6b
 7460 16d1 05       		.uleb128 0x5
 7461 16d2 03       		.byte	0x3
 7462 16d3 00000000 		.4byte	u8LinkState
 7463 16d7 26       		.uleb128 0x26
 7464 16d8 530B0000 		.4byte	.LASF201
 7465 16dc 04       		.byte	0x4
 7466 16dd BE       		.byte	0xbe
 7467 16de 6B000000 		.4byte	0x6b
 7468 16e2 05       		.uleb128 0x5
 7469 16e3 03       		.byte	0x3
 7470 16e4 00000000 		.4byte	u8SmartLinkState
 7471 16e8 26       		.uleb128 0x26
 7472 16e9 9F0B0000 		.4byte	.LASF202
 7473 16ed 04       		.byte	0x4
 7474 16ee BF       		.byte	0xbf
 7475 16ef 6B000000 		.4byte	0x6b
 7476 16f3 05       		.uleb128 0x5
ARM GAS  C:\Users\kevin\AppData\Local\Temp\ccrA27HJ.s 			page 159


 7477 16f4 03       		.byte	0x3
 7478 16f5 00000000 		.4byte	Ack_Timer
 7479 16f9 26       		.uleb128 0x26
 7480 16fa D4020000 		.4byte	.LASF203
 7481 16fe 01       		.byte	0x1
 7482 16ff 77       		.byte	0x77
 7483 1700 6B000000 		.4byte	0x6b
 7484 1704 05       		.uleb128 0x5
 7485 1705 03       		.byte	0x3
 7486 1706 00000000 		.4byte	Work_State_Num_H
 7487 170a 26       		.uleb128 0x26
 7488 170b FA020000 		.4byte	.LASF204
 7489 170f 01       		.byte	0x1
 7490 1710 77       		.byte	0x77
 7491 1711 6B000000 		.4byte	0x6b
 7492 1715 05       		.uleb128 0x5
 7493 1716 03       		.byte	0x3
 7494 1717 00000000 		.4byte	Work_State_Num_L
 7495 171b 26       		.uleb128 0x26
 7496 171c 02050000 		.4byte	.LASF205
 7497 1720 01       		.byte	0x1
 7498 1721 88       		.byte	0x88
 7499 1722 BB000000 		.4byte	0xbb
 7500 1726 05       		.uleb128 0x5
 7501 1727 03       		.byte	0x3
 7502 1728 00000000 		.4byte	cpSendBufPtr
 7503 172c 26       		.uleb128 0x26
 7504 172d 36020000 		.4byte	.LASF206
 7505 1731 04       		.byte	0x4
 7506 1732 C5       		.byte	0xc5
 7507 1733 76000000 		.4byte	0x76
 7508 1737 05       		.uleb128 0x5
 7509 1738 03       		.byte	0x3
 7510 1739 00000000 		.4byte	Value_Tds0_Tmp
 7511 173d 26       		.uleb128 0x26
 7512 173e 00000000 		.4byte	.LASF207
 7513 1742 04       		.byte	0x4
 7514 1743 C6       		.byte	0xc6
 7515 1744 76000000 		.4byte	0x76
 7516 1748 05       		.uleb128 0x5
 7517 1749 03       		.byte	0x3
 7518 174a 00000000 		.4byte	Value_Tds1_Tmp
 7519 174e 26       		.uleb128 0x26
 7520 174f 07070000 		.4byte	.LASF208
 7521 1753 01       		.byte	0x1
 7522 1754 89       		.byte	0x89
 7523 1755 6B000000 		.4byte	0x6b
 7524 1759 05       		.uleb128 0x5
 7525 175a 03       		.byte	0x3
 7526 175b 00000000 		.4byte	Send_Interval_Counter
 7527 175f 11       		.uleb128 0x11
 7528 1760 6B000000 		.4byte	0x6b
 7529 1764 6F170000 		.4byte	0x176f
 7530 1768 12       		.uleb128 0x12
 7531 1769 B2000000 		.4byte	0xb2
 7532 176d FF       		.byte	0xff
 7533 176e 00       		.byte	0
ARM GAS  C:\Users\kevin\AppData\Local\Temp\ccrA27HJ.s 			page 160


 7534 176f 26       		.uleb128 0x26
 7535 1770 6E080000 		.4byte	.LASF209
 7536 1774 01       		.byte	0x1
 7537 1775 0F       		.byte	0xf
 7538 1776 80170000 		.4byte	0x1780
 7539 177a 05       		.uleb128 0x5
 7540 177b 03       		.byte	0x3
 7541 177c 00000000 		.4byte	Tab_tds_in_01
 7542 1780 27       		.uleb128 0x27
 7543 1781 5F170000 		.4byte	0x175f
 7544 1785 11       		.uleb128 0x11
 7545 1786 76000000 		.4byte	0x76
 7546 178a 95170000 		.4byte	0x1795
 7547 178e 12       		.uleb128 0x12
 7548 178f B2000000 		.4byte	0xb2
 7549 1793 53       		.byte	0x53
 7550 1794 00       		.byte	0
 7551 1795 26       		.uleb128 0x26
 7552 1796 5A070000 		.4byte	.LASF210
 7553 179a 01       		.byte	0x1
 7554 179b 2C       		.byte	0x2c
 7555 179c A6170000 		.4byte	0x17a6
 7556 17a0 05       		.uleb128 0x5
 7557 17a1 03       		.byte	0x3
 7558 17a2 00000000 		.4byte	Tab_tds_in_02
 7559 17a6 27       		.uleb128 0x27
 7560 17a7 85170000 		.4byte	0x1785
 7561 17ab 11       		.uleb128 0x11
 7562 17ac 6B000000 		.4byte	0x6b
 7563 17b0 BB170000 		.4byte	0x17bb
 7564 17b4 12       		.uleb128 0x12
 7565 17b5 B2000000 		.4byte	0xb2
 7566 17b9 4E       		.byte	0x4e
 7567 17ba 00       		.byte	0
 7568 17bb 26       		.uleb128 0x26
 7569 17bc 0B030000 		.4byte	.LASF211
 7570 17c0 01       		.byte	0x1
 7571 17c1 38       		.byte	0x38
 7572 17c2 CC170000 		.4byte	0x17cc
 7573 17c6 05       		.uleb128 0x5
 7574 17c7 03       		.byte	0x3
 7575 17c8 00000000 		.4byte	Tab_tds_out
 7576 17cc 27       		.uleb128 0x27
 7577 17cd AB170000 		.4byte	0x17ab
 7578 17d1 11       		.uleb128 0x11
 7579 17d2 7A050000 		.4byte	0x57a
 7580 17d6 E1170000 		.4byte	0x17e1
 7581 17da 12       		.uleb128 0x12
 7582 17db B2000000 		.4byte	0xb2
 7583 17df 00       		.byte	0
 7584 17e0 00       		.byte	0
 7585 17e1 26       		.uleb128 0x26
 7586 17e2 65050000 		.4byte	.LASF212
 7587 17e6 01       		.byte	0x1
 7588 17e7 69       		.byte	0x69
 7589 17e8 D1170000 		.4byte	0x17d1
 7590 17ec 05       		.uleb128 0x5
ARM GAS  C:\Users\kevin\AppData\Local\Temp\ccrA27HJ.s 			page 161


 7591 17ed 03       		.byte	0x3
 7592 17ee 00000000 		.4byte	ATReceBuffer
 7593 17f2 11       		.uleb128 0x11
 7594 17f3 AF050000 		.4byte	0x5af
 7595 17f7 02180000 		.4byte	0x1802
 7596 17fb 12       		.uleb128 0x12
 7597 17fc B2000000 		.4byte	0xb2
 7598 1800 00       		.byte	0
 7599 1801 00       		.byte	0
 7600 1802 26       		.uleb128 0x26
 7601 1803 33060000 		.4byte	.LASF213
 7602 1807 01       		.byte	0x1
 7603 1808 6F       		.byte	0x6f
 7604 1809 F2170000 		.4byte	0x17f2
 7605 180d 05       		.uleb128 0x5
 7606 180e 03       		.byte	0x3
 7607 180f 00000000 		.4byte	ATTdsReceBuffer
 7608 1813 26       		.uleb128 0x26
 7609 1814 C1090000 		.4byte	.LASF214
 7610 1818 01       		.byte	0x1
 7611 1819 76       		.byte	0x76
 7612 181a E4050000 		.4byte	0x5e4
 7613 181e 05       		.uleb128 0x5
 7614 181f 03       		.byte	0x3
 7615 1820 00000000 		.4byte	WifidatagramWorkFlag
 7616 1824 26       		.uleb128 0x26
 7617 1825 70040000 		.4byte	.LASF215
 7618 1829 01       		.byte	0x1
 7619 182a 78       		.byte	0x78
 7620 182b 6B000000 		.4byte	0x6b
 7621 182f 05       		.uleb128 0x5
 7622 1830 03       		.byte	0x3
 7623 1831 00000000 		.4byte	Cmd_Function_Num
 7624 1835 26       		.uleb128 0x26
 7625 1836 40070000 		.4byte	.LASF216
 7626 183a 01       		.byte	0x1
 7627 183b 79       		.byte	0x79
 7628 183c 76000000 		.4byte	0x76
 7629 1840 05       		.uleb128 0x5
 7630 1841 03       		.byte	0x3
 7631 1842 00000000 		.4byte	Cmd_Function
 7632 1846 11       		.uleb128 0x11
 7633 1847 76000000 		.4byte	0x76
 7634 184b 56180000 		.4byte	0x1856
 7635 184f 12       		.uleb128 0x12
 7636 1850 B2000000 		.4byte	0xb2
 7637 1854 07       		.byte	0x7
 7638 1855 00       		.byte	0
 7639 1856 26       		.uleb128 0x26
 7640 1857 7C080000 		.4byte	.LASF217
 7641 185b 01       		.byte	0x1
 7642 185c 79       		.byte	0x79
 7643 185d 46180000 		.4byte	0x1846
 7644 1861 05       		.uleb128 0x5
 7645 1862 03       		.byte	0x3
 7646 1863 00000000 		.4byte	Cmd_Function_Buf
 7647 1867 11       		.uleb128 0x11
ARM GAS  C:\Users\kevin\AppData\Local\Temp\ccrA27HJ.s 			page 162


 7648 1868 76000000 		.4byte	0x76
 7649 186c 77180000 		.4byte	0x1877
 7650 1870 12       		.uleb128 0x12
 7651 1871 B2000000 		.4byte	0xb2
 7652 1875 08       		.byte	0x8
 7653 1876 00       		.byte	0
 7654 1877 26       		.uleb128 0x26
 7655 1878 170C0000 		.4byte	.LASF218
 7656 187c 01       		.byte	0x1
 7657 187d 7B       		.byte	0x7b
 7658 187e 67180000 		.4byte	0x1867
 7659 1882 05       		.uleb128 0x5
 7660 1883 03       		.byte	0x3
 7661 1884 00000000 		.4byte	Error_Data_Buf
 7662 1888 26       		.uleb128 0x26
 7663 1889 F60B0000 		.4byte	.LASF219
 7664 188d 01       		.byte	0x1
 7665 188e 7C       		.byte	0x7c
 7666 188f 6B000000 		.4byte	0x6b
 7667 1893 05       		.uleb128 0x5
 7668 1894 03       		.byte	0x3
 7669 1895 00000000 		.4byte	gcWifiCommunState
 7670 1899 26       		.uleb128 0x26
 7671 189a E8030000 		.4byte	.LASF220
 7672 189e 01       		.byte	0x1
 7673 189f 7D       		.byte	0x7d
 7674 18a0 6B000000 		.4byte	0x6b
 7675 18a4 05       		.uleb128 0x5
 7676 18a5 03       		.byte	0x3
 7677 18a6 00000000 		.4byte	gctdsboardCommunState
 7678 18aa 26       		.uleb128 0x26
 7679 18ab 5F0C0000 		.4byte	.LASF221
 7680 18af 01       		.byte	0x1
 7681 18b0 7E       		.byte	0x7e
 7682 18b1 6B000000 		.4byte	0x6b
 7683 18b5 05       		.uleb128 0x5
 7684 18b6 03       		.byte	0x3
 7685 18b7 00000000 		.4byte	Frame_Num
 7686 18bb 26       		.uleb128 0x26
 7687 18bc C3050000 		.4byte	.LASF222
 7688 18c0 01       		.byte	0x1
 7689 18c1 7F       		.byte	0x7f
 7690 18c2 76000000 		.4byte	0x76
 7691 18c6 05       		.uleb128 0x5
 7692 18c7 03       		.byte	0x3
 7693 18c8 00000000 		.4byte	giWIFICommand
 7694 18cc 26       		.uleb128 0x26
 7695 18cd D7030000 		.4byte	.LASF223
 7696 18d1 01       		.byte	0x1
 7697 18d2 80       		.byte	0x80
 7698 18d3 76000000 		.4byte	0x76
 7699 18d7 05       		.uleb128 0x5
 7700 18d8 03       		.byte	0x3
 7701 18d9 00000000 		.4byte	giWIFIDATALength
 7702 18dd 26       		.uleb128 0x26
 7703 18de 52030000 		.4byte	.LASF224
 7704 18e2 01       		.byte	0x1
ARM GAS  C:\Users\kevin\AppData\Local\Temp\ccrA27HJ.s 			page 163


 7705 18e3 81       		.byte	0x81
 7706 18e4 6B000000 		.4byte	0x6b
 7707 18e8 05       		.uleb128 0x5
 7708 18e9 03       		.byte	0x3
 7709 18ea 00000000 		.4byte	gcWIFICTL
 7710 18ee 26       		.uleb128 0x26
 7711 18ef 5C080000 		.4byte	.LASF225
 7712 18f3 01       		.byte	0x1
 7713 18f4 82       		.byte	0x82
 7714 18f5 76000000 		.4byte	0x76
 7715 18f9 05       		.uleb128 0x5
 7716 18fa 03       		.byte	0x3
 7717 18fb 00000000 		.4byte	giTDSBOARDCommand
 7718 18ff 26       		.uleb128 0x26
 7719 1900 640B0000 		.4byte	.LASF226
 7720 1904 01       		.byte	0x1
 7721 1905 83       		.byte	0x83
 7722 1906 76000000 		.4byte	0x76
 7723 190a 05       		.uleb128 0x5
 7724 190b 03       		.byte	0x3
 7725 190c 00000000 		.4byte	giTDSBOARDDATALength
 7726 1910 26       		.uleb128 0x26
 7727 1911 D8040000 		.4byte	.LASF227
 7728 1915 01       		.byte	0x1
 7729 1916 84       		.byte	0x84
 7730 1917 6B000000 		.4byte	0x6b
 7731 191b 05       		.uleb128 0x5
 7732 191c 03       		.byte	0x3
 7733 191d 00000000 		.4byte	gcTDSBOARDCTL
 7734 1921 26       		.uleb128 0x26
 7735 1922 E3090000 		.4byte	.LASF228
 7736 1926 01       		.byte	0x1
 7737 1927 87       		.byte	0x87
 7738 1928 76000000 		.4byte	0x76
 7739 192c 05       		.uleb128 0x5
 7740 192d 03       		.byte	0x3
 7741 192e 00000000 		.4byte	iUartSendLen
 7742 1932 26       		.uleb128 0x26
 7743 1933 73060000 		.4byte	.LASF229
 7744 1937 01       		.byte	0x1
 7745 1938 87       		.byte	0x87
 7746 1939 76000000 		.4byte	0x76
 7747 193d 05       		.uleb128 0x5
 7748 193e 03       		.byte	0x3
 7749 193f 00000000 		.4byte	iSendCounter
 7750 1943 28       		.uleb128 0x28
 7751 1944 D3070000 		.4byte	.LASF230
 7752 1948 06       		.byte	0x6
 7753 1949 1D       		.byte	0x1d
 7754 194a 54190000 		.4byte	0x1954
 7755 194e 29       		.uleb128 0x29
 7756 194f 6B000000 		.4byte	0x6b
 7757 1953 00       		.byte	0
 7758 1954 2A       		.uleb128 0x2a
 7759 1955 E2070000 		.4byte	.LASF231
 7760 1959 B9000000 		.4byte	0xb9
 7761 195d 71190000 		.4byte	0x1971
ARM GAS  C:\Users\kevin\AppData\Local\Temp\ccrA27HJ.s 			page 164


 7762 1961 29       		.uleb128 0x29
 7763 1962 B9000000 		.4byte	0xb9
 7764 1966 29       		.uleb128 0x29
 7765 1967 5D000000 		.4byte	0x5d
 7766 196b 29       		.uleb128 0x29
 7767 196c B2000000 		.4byte	0xb2
 7768 1970 00       		.byte	0
 7769 1971 2A       		.uleb128 0x2a
 7770 1972 100C0000 		.4byte	.LASF232
 7771 1976 B9000000 		.4byte	0xb9
 7772 197a 8E190000 		.4byte	0x198e
 7773 197e 29       		.uleb128 0x29
 7774 197f B9000000 		.4byte	0xb9
 7775 1983 29       		.uleb128 0x29
 7776 1984 8E190000 		.4byte	0x198e
 7777 1988 29       		.uleb128 0x29
 7778 1989 B2000000 		.4byte	0xb2
 7779 198d 00       		.byte	0
 7780 198e 08       		.uleb128 0x8
 7781 198f 04       		.byte	0x4
 7782 1990 94190000 		.4byte	0x1994
 7783 1994 2B       		.uleb128 0x2b
 7784 1995 2C       		.uleb128 0x2c
 7785 1996 5F050000 		.4byte	.LASF233
 7786 199a 05       		.byte	0x5
 7787 199b 7C       		.byte	0x7c
 7788 199c 2C       		.uleb128 0x2c
 7789 199d 2A020000 		.4byte	.LASF234
 7790 19a1 05       		.byte	0x5
 7791 19a2 7D       		.byte	0x7d
 7792 19a3 2D       		.uleb128 0x2d
 7793 19a4 21060000 		.4byte	.LASF235
 7794 19a8 03       		.byte	0x3
 7795 19a9 4601     		.2byte	0x146
 7796 19ab 00       		.byte	0
 7797              		.section	.debug_abbrev,"",%progbits
 7798              	.Ldebug_abbrev0:
 7799 0000 01       		.uleb128 0x1
 7800 0001 11       		.uleb128 0x11
 7801 0002 01       		.byte	0x1
 7802 0003 25       		.uleb128 0x25
 7803 0004 0E       		.uleb128 0xe
 7804 0005 13       		.uleb128 0x13
 7805 0006 0B       		.uleb128 0xb
 7806 0007 03       		.uleb128 0x3
 7807 0008 0E       		.uleb128 0xe
 7808 0009 1B       		.uleb128 0x1b
 7809 000a 0E       		.uleb128 0xe
 7810 000b 55       		.uleb128 0x55
 7811 000c 17       		.uleb128 0x17
 7812 000d 11       		.uleb128 0x11
 7813 000e 01       		.uleb128 0x1
 7814 000f 10       		.uleb128 0x10
 7815 0010 17       		.uleb128 0x17
 7816 0011 00       		.byte	0
 7817 0012 00       		.byte	0
 7818 0013 02       		.uleb128 0x2
ARM GAS  C:\Users\kevin\AppData\Local\Temp\ccrA27HJ.s 			page 165


 7819 0014 24       		.uleb128 0x24
 7820 0015 00       		.byte	0
 7821 0016 0B       		.uleb128 0xb
 7822 0017 0B       		.uleb128 0xb
 7823 0018 3E       		.uleb128 0x3e
 7824 0019 0B       		.uleb128 0xb
 7825 001a 03       		.uleb128 0x3
 7826 001b 0E       		.uleb128 0xe
 7827 001c 00       		.byte	0
 7828 001d 00       		.byte	0
 7829 001e 03       		.uleb128 0x3
 7830 001f 24       		.uleb128 0x24
 7831 0020 00       		.byte	0
 7832 0021 0B       		.uleb128 0xb
 7833 0022 0B       		.uleb128 0xb
 7834 0023 3E       		.uleb128 0x3e
 7835 0024 0B       		.uleb128 0xb
 7836 0025 03       		.uleb128 0x3
 7837 0026 08       		.uleb128 0x8
 7838 0027 00       		.byte	0
 7839 0028 00       		.byte	0
 7840 0029 04       		.uleb128 0x4
 7841 002a 16       		.uleb128 0x16
 7842 002b 00       		.byte	0
 7843 002c 03       		.uleb128 0x3
 7844 002d 0E       		.uleb128 0xe
 7845 002e 3A       		.uleb128 0x3a
 7846 002f 0B       		.uleb128 0xb
 7847 0030 3B       		.uleb128 0x3b
 7848 0031 0B       		.uleb128 0xb
 7849 0032 49       		.uleb128 0x49
 7850 0033 13       		.uleb128 0x13
 7851 0034 00       		.byte	0
 7852 0035 00       		.byte	0
 7853 0036 05       		.uleb128 0x5
 7854 0037 16       		.uleb128 0x16
 7855 0038 00       		.byte	0
 7856 0039 03       		.uleb128 0x3
 7857 003a 0E       		.uleb128 0xe
 7858 003b 3A       		.uleb128 0x3a
 7859 003c 0B       		.uleb128 0xb
 7860 003d 3B       		.uleb128 0x3b
 7861 003e 05       		.uleb128 0x5
 7862 003f 49       		.uleb128 0x49
 7863 0040 13       		.uleb128 0x13
 7864 0041 00       		.byte	0
 7865 0042 00       		.byte	0
 7866 0043 06       		.uleb128 0x6
 7867 0044 35       		.uleb128 0x35
 7868 0045 00       		.byte	0
 7869 0046 49       		.uleb128 0x49
 7870 0047 13       		.uleb128 0x13
 7871 0048 00       		.byte	0
 7872 0049 00       		.byte	0
 7873 004a 07       		.uleb128 0x7
 7874 004b 0F       		.uleb128 0xf
 7875 004c 00       		.byte	0
ARM GAS  C:\Users\kevin\AppData\Local\Temp\ccrA27HJ.s 			page 166


 7876 004d 0B       		.uleb128 0xb
 7877 004e 0B       		.uleb128 0xb
 7878 004f 00       		.byte	0
 7879 0050 00       		.byte	0
 7880 0051 08       		.uleb128 0x8
 7881 0052 0F       		.uleb128 0xf
 7882 0053 00       		.byte	0
 7883 0054 0B       		.uleb128 0xb
 7884 0055 0B       		.uleb128 0xb
 7885 0056 49       		.uleb128 0x49
 7886 0057 13       		.uleb128 0x13
 7887 0058 00       		.byte	0
 7888 0059 00       		.byte	0
 7889 005a 09       		.uleb128 0x9
 7890 005b 13       		.uleb128 0x13
 7891 005c 01       		.byte	0x1
 7892 005d 0B       		.uleb128 0xb
 7893 005e 0B       		.uleb128 0xb
 7894 005f 3A       		.uleb128 0x3a
 7895 0060 0B       		.uleb128 0xb
 7896 0061 3B       		.uleb128 0x3b
 7897 0062 0B       		.uleb128 0xb
 7898 0063 01       		.uleb128 0x1
 7899 0064 13       		.uleb128 0x13
 7900 0065 00       		.byte	0
 7901 0066 00       		.byte	0
 7902 0067 0A       		.uleb128 0xa
 7903 0068 0D       		.uleb128 0xd
 7904 0069 00       		.byte	0
 7905 006a 03       		.uleb128 0x3
 7906 006b 0E       		.uleb128 0xe
 7907 006c 3A       		.uleb128 0x3a
 7908 006d 0B       		.uleb128 0xb
 7909 006e 3B       		.uleb128 0x3b
 7910 006f 0B       		.uleb128 0xb
 7911 0070 49       		.uleb128 0x49
 7912 0071 13       		.uleb128 0x13
 7913 0072 0B       		.uleb128 0xb
 7914 0073 0B       		.uleb128 0xb
 7915 0074 0D       		.uleb128 0xd
 7916 0075 0B       		.uleb128 0xb
 7917 0076 0C       		.uleb128 0xc
 7918 0077 0B       		.uleb128 0xb
 7919 0078 38       		.uleb128 0x38
 7920 0079 0B       		.uleb128 0xb
 7921 007a 00       		.byte	0
 7922 007b 00       		.byte	0
 7923 007c 0B       		.uleb128 0xb
 7924 007d 17       		.uleb128 0x17
 7925 007e 01       		.byte	0x1
 7926 007f 0B       		.uleb128 0xb
 7927 0080 0B       		.uleb128 0xb
 7928 0081 3A       		.uleb128 0x3a
 7929 0082 0B       		.uleb128 0xb
 7930 0083 3B       		.uleb128 0x3b
 7931 0084 0B       		.uleb128 0xb
 7932 0085 01       		.uleb128 0x1
ARM GAS  C:\Users\kevin\AppData\Local\Temp\ccrA27HJ.s 			page 167


 7933 0086 13       		.uleb128 0x13
 7934 0087 00       		.byte	0
 7935 0088 00       		.byte	0
 7936 0089 0C       		.uleb128 0xc
 7937 008a 0D       		.uleb128 0xd
 7938 008b 00       		.byte	0
 7939 008c 03       		.uleb128 0x3
 7940 008d 08       		.uleb128 0x8
 7941 008e 3A       		.uleb128 0x3a
 7942 008f 0B       		.uleb128 0xb
 7943 0090 3B       		.uleb128 0x3b
 7944 0091 0B       		.uleb128 0xb
 7945 0092 49       		.uleb128 0x49
 7946 0093 13       		.uleb128 0x13
 7947 0094 00       		.byte	0
 7948 0095 00       		.byte	0
 7949 0096 0D       		.uleb128 0xd
 7950 0097 0D       		.uleb128 0xd
 7951 0098 00       		.byte	0
 7952 0099 03       		.uleb128 0x3
 7953 009a 0E       		.uleb128 0xe
 7954 009b 3A       		.uleb128 0x3a
 7955 009c 0B       		.uleb128 0xb
 7956 009d 3B       		.uleb128 0x3b
 7957 009e 05       		.uleb128 0x5
 7958 009f 49       		.uleb128 0x49
 7959 00a0 13       		.uleb128 0x13
 7960 00a1 0B       		.uleb128 0xb
 7961 00a2 0B       		.uleb128 0xb
 7962 00a3 0D       		.uleb128 0xd
 7963 00a4 0B       		.uleb128 0xb
 7964 00a5 0C       		.uleb128 0xc
 7965 00a6 0B       		.uleb128 0xb
 7966 00a7 38       		.uleb128 0x38
 7967 00a8 0B       		.uleb128 0xb
 7968 00a9 00       		.byte	0
 7969 00aa 00       		.byte	0
 7970 00ab 0E       		.uleb128 0xe
 7971 00ac 0D       		.uleb128 0xd
 7972 00ad 00       		.byte	0
 7973 00ae 03       		.uleb128 0x3
 7974 00af 08       		.uleb128 0x8
 7975 00b0 3A       		.uleb128 0x3a
 7976 00b1 0B       		.uleb128 0xb
 7977 00b2 3B       		.uleb128 0x3b
 7978 00b3 05       		.uleb128 0x5
 7979 00b4 49       		.uleb128 0x49
 7980 00b5 13       		.uleb128 0x13
 7981 00b6 00       		.byte	0
 7982 00b7 00       		.byte	0
 7983 00b8 0F       		.uleb128 0xf
 7984 00b9 13       		.uleb128 0x13
 7985 00ba 01       		.byte	0x1
 7986 00bb 03       		.uleb128 0x3
 7987 00bc 0E       		.uleb128 0xe
 7988 00bd 0B       		.uleb128 0xb
 7989 00be 0B       		.uleb128 0xb
ARM GAS  C:\Users\kevin\AppData\Local\Temp\ccrA27HJ.s 			page 168


 7990 00bf 3A       		.uleb128 0x3a
 7991 00c0 0B       		.uleb128 0xb
 7992 00c1 3B       		.uleb128 0x3b
 7993 00c2 0B       		.uleb128 0xb
 7994 00c3 01       		.uleb128 0x1
 7995 00c4 13       		.uleb128 0x13
 7996 00c5 00       		.byte	0
 7997 00c6 00       		.byte	0
 7998 00c7 10       		.uleb128 0x10
 7999 00c8 0D       		.uleb128 0xd
 8000 00c9 00       		.byte	0
 8001 00ca 03       		.uleb128 0x3
 8002 00cb 0E       		.uleb128 0xe
 8003 00cc 3A       		.uleb128 0x3a
 8004 00cd 0B       		.uleb128 0xb
 8005 00ce 3B       		.uleb128 0x3b
 8006 00cf 0B       		.uleb128 0xb
 8007 00d0 49       		.uleb128 0x49
 8008 00d1 13       		.uleb128 0x13
 8009 00d2 38       		.uleb128 0x38
 8010 00d3 0B       		.uleb128 0xb
 8011 00d4 00       		.byte	0
 8012 00d5 00       		.byte	0
 8013 00d6 11       		.uleb128 0x11
 8014 00d7 01       		.uleb128 0x1
 8015 00d8 01       		.byte	0x1
 8016 00d9 49       		.uleb128 0x49
 8017 00da 13       		.uleb128 0x13
 8018 00db 01       		.uleb128 0x1
 8019 00dc 13       		.uleb128 0x13
 8020 00dd 00       		.byte	0
 8021 00de 00       		.byte	0
 8022 00df 12       		.uleb128 0x12
 8023 00e0 21       		.uleb128 0x21
 8024 00e1 00       		.byte	0
 8025 00e2 49       		.uleb128 0x49
 8026 00e3 13       		.uleb128 0x13
 8027 00e4 2F       		.uleb128 0x2f
 8028 00e5 0B       		.uleb128 0xb
 8029 00e6 00       		.byte	0
 8030 00e7 00       		.byte	0
 8031 00e8 13       		.uleb128 0x13
 8032 00e9 2E       		.uleb128 0x2e
 8033 00ea 01       		.byte	0x1
 8034 00eb 3F       		.uleb128 0x3f
 8035 00ec 19       		.uleb128 0x19
 8036 00ed 03       		.uleb128 0x3
 8037 00ee 0E       		.uleb128 0xe
 8038 00ef 3A       		.uleb128 0x3a
 8039 00f0 0B       		.uleb128 0xb
 8040 00f1 3B       		.uleb128 0x3b
 8041 00f2 0B       		.uleb128 0xb
 8042 00f3 27       		.uleb128 0x27
 8043 00f4 19       		.uleb128 0x19
 8044 00f5 49       		.uleb128 0x49
 8045 00f6 13       		.uleb128 0x13
 8046 00f7 11       		.uleb128 0x11
ARM GAS  C:\Users\kevin\AppData\Local\Temp\ccrA27HJ.s 			page 169


 8047 00f8 01       		.uleb128 0x1
 8048 00f9 12       		.uleb128 0x12
 8049 00fa 06       		.uleb128 0x6
 8050 00fb 40       		.uleb128 0x40
 8051 00fc 18       		.uleb128 0x18
 8052 00fd 9642     		.uleb128 0x2116
 8053 00ff 19       		.uleb128 0x19
 8054 0100 01       		.uleb128 0x1
 8055 0101 13       		.uleb128 0x13
 8056 0102 00       		.byte	0
 8057 0103 00       		.byte	0
 8058 0104 14       		.uleb128 0x14
 8059 0105 05       		.uleb128 0x5
 8060 0106 00       		.byte	0
 8061 0107 03       		.uleb128 0x3
 8062 0108 0E       		.uleb128 0xe
 8063 0109 3A       		.uleb128 0x3a
 8064 010a 0B       		.uleb128 0xb
 8065 010b 3B       		.uleb128 0x3b
 8066 010c 0B       		.uleb128 0xb
 8067 010d 49       		.uleb128 0x49
 8068 010e 13       		.uleb128 0x13
 8069 010f 02       		.uleb128 0x2
 8070 0110 17       		.uleb128 0x17
 8071 0111 00       		.byte	0
 8072 0112 00       		.byte	0
 8073 0113 15       		.uleb128 0x15
 8074 0114 34       		.uleb128 0x34
 8075 0115 00       		.byte	0
 8076 0116 03       		.uleb128 0x3
 8077 0117 0E       		.uleb128 0xe
 8078 0118 3A       		.uleb128 0x3a
 8079 0119 0B       		.uleb128 0xb
 8080 011a 3B       		.uleb128 0x3b
 8081 011b 0B       		.uleb128 0xb
 8082 011c 49       		.uleb128 0x49
 8083 011d 13       		.uleb128 0x13
 8084 011e 02       		.uleb128 0x2
 8085 011f 17       		.uleb128 0x17
 8086 0120 00       		.byte	0
 8087 0121 00       		.byte	0
 8088 0122 16       		.uleb128 0x16
 8089 0123 2E       		.uleb128 0x2e
 8090 0124 01       		.byte	0x1
 8091 0125 3F       		.uleb128 0x3f
 8092 0126 19       		.uleb128 0x19
 8093 0127 03       		.uleb128 0x3
 8094 0128 0E       		.uleb128 0xe
 8095 0129 3A       		.uleb128 0x3a
 8096 012a 0B       		.uleb128 0xb
 8097 012b 3B       		.uleb128 0x3b
 8098 012c 0B       		.uleb128 0xb
 8099 012d 27       		.uleb128 0x27
 8100 012e 19       		.uleb128 0x19
 8101 012f 49       		.uleb128 0x49
 8102 0130 13       		.uleb128 0x13
 8103 0131 11       		.uleb128 0x11
ARM GAS  C:\Users\kevin\AppData\Local\Temp\ccrA27HJ.s 			page 170


 8104 0132 01       		.uleb128 0x1
 8105 0133 12       		.uleb128 0x12
 8106 0134 06       		.uleb128 0x6
 8107 0135 40       		.uleb128 0x40
 8108 0136 18       		.uleb128 0x18
 8109 0137 9742     		.uleb128 0x2117
 8110 0139 19       		.uleb128 0x19
 8111 013a 01       		.uleb128 0x1
 8112 013b 13       		.uleb128 0x13
 8113 013c 00       		.byte	0
 8114 013d 00       		.byte	0
 8115 013e 17       		.uleb128 0x17
 8116 013f 05       		.uleb128 0x5
 8117 0140 00       		.byte	0
 8118 0141 03       		.uleb128 0x3
 8119 0142 08       		.uleb128 0x8
 8120 0143 3A       		.uleb128 0x3a
 8121 0144 0B       		.uleb128 0xb
 8122 0145 3B       		.uleb128 0x3b
 8123 0146 0B       		.uleb128 0xb
 8124 0147 49       		.uleb128 0x49
 8125 0148 13       		.uleb128 0x13
 8126 0149 02       		.uleb128 0x2
 8127 014a 17       		.uleb128 0x17
 8128 014b 00       		.byte	0
 8129 014c 00       		.byte	0
 8130 014d 18       		.uleb128 0x18
 8131 014e 2E       		.uleb128 0x2e
 8132 014f 01       		.byte	0x1
 8133 0150 3F       		.uleb128 0x3f
 8134 0151 19       		.uleb128 0x19
 8135 0152 03       		.uleb128 0x3
 8136 0153 0E       		.uleb128 0xe
 8137 0154 3A       		.uleb128 0x3a
 8138 0155 0B       		.uleb128 0xb
 8139 0156 3B       		.uleb128 0x3b
 8140 0157 0B       		.uleb128 0xb
 8141 0158 27       		.uleb128 0x27
 8142 0159 19       		.uleb128 0x19
 8143 015a 11       		.uleb128 0x11
 8144 015b 01       		.uleb128 0x1
 8145 015c 12       		.uleb128 0x12
 8146 015d 06       		.uleb128 0x6
 8147 015e 40       		.uleb128 0x40
 8148 015f 18       		.uleb128 0x18
 8149 0160 9742     		.uleb128 0x2117
 8150 0162 19       		.uleb128 0x19
 8151 0163 01       		.uleb128 0x1
 8152 0164 13       		.uleb128 0x13
 8153 0165 00       		.byte	0
 8154 0166 00       		.byte	0
 8155 0167 19       		.uleb128 0x19
 8156 0168 898201   		.uleb128 0x4109
 8157 016b 01       		.byte	0x1
 8158 016c 11       		.uleb128 0x11
 8159 016d 01       		.uleb128 0x1
 8160 016e 31       		.uleb128 0x31
ARM GAS  C:\Users\kevin\AppData\Local\Temp\ccrA27HJ.s 			page 171


 8161 016f 13       		.uleb128 0x13
 8162 0170 00       		.byte	0
 8163 0171 00       		.byte	0
 8164 0172 1A       		.uleb128 0x1a
 8165 0173 8A8201   		.uleb128 0x410a
 8166 0176 00       		.byte	0
 8167 0177 02       		.uleb128 0x2
 8168 0178 18       		.uleb128 0x18
 8169 0179 9142     		.uleb128 0x2111
 8170 017b 18       		.uleb128 0x18
 8171 017c 00       		.byte	0
 8172 017d 00       		.byte	0
 8173 017e 1B       		.uleb128 0x1b
 8174 017f 2E       		.uleb128 0x2e
 8175 0180 01       		.byte	0x1
 8176 0181 3F       		.uleb128 0x3f
 8177 0182 19       		.uleb128 0x19
 8178 0183 03       		.uleb128 0x3
 8179 0184 0E       		.uleb128 0xe
 8180 0185 3A       		.uleb128 0x3a
 8181 0186 0B       		.uleb128 0xb
 8182 0187 3B       		.uleb128 0x3b
 8183 0188 05       		.uleb128 0x5
 8184 0189 27       		.uleb128 0x27
 8185 018a 19       		.uleb128 0x19
 8186 018b 11       		.uleb128 0x11
 8187 018c 01       		.uleb128 0x1
 8188 018d 12       		.uleb128 0x12
 8189 018e 06       		.uleb128 0x6
 8190 018f 40       		.uleb128 0x40
 8191 0190 18       		.uleb128 0x18
 8192 0191 9742     		.uleb128 0x2117
 8193 0193 19       		.uleb128 0x19
 8194 0194 01       		.uleb128 0x1
 8195 0195 13       		.uleb128 0x13
 8196 0196 00       		.byte	0
 8197 0197 00       		.byte	0
 8198 0198 1C       		.uleb128 0x1c
 8199 0199 05       		.uleb128 0x5
 8200 019a 00       		.byte	0
 8201 019b 03       		.uleb128 0x3
 8202 019c 0E       		.uleb128 0xe
 8203 019d 3A       		.uleb128 0x3a
 8204 019e 0B       		.uleb128 0xb
 8205 019f 3B       		.uleb128 0x3b
 8206 01a0 05       		.uleb128 0x5
 8207 01a1 49       		.uleb128 0x49
 8208 01a2 13       		.uleb128 0x13
 8209 01a3 02       		.uleb128 0x2
 8210 01a4 17       		.uleb128 0x17
 8211 01a5 00       		.byte	0
 8212 01a6 00       		.byte	0
 8213 01a7 1D       		.uleb128 0x1d
 8214 01a8 05       		.uleb128 0x5
 8215 01a9 00       		.byte	0
 8216 01aa 03       		.uleb128 0x3
 8217 01ab 0E       		.uleb128 0xe
ARM GAS  C:\Users\kevin\AppData\Local\Temp\ccrA27HJ.s 			page 172


 8218 01ac 3A       		.uleb128 0x3a
 8219 01ad 0B       		.uleb128 0xb
 8220 01ae 3B       		.uleb128 0x3b
 8221 01af 05       		.uleb128 0x5
 8222 01b0 49       		.uleb128 0x49
 8223 01b1 13       		.uleb128 0x13
 8224 01b2 02       		.uleb128 0x2
 8225 01b3 18       		.uleb128 0x18
 8226 01b4 00       		.byte	0
 8227 01b5 00       		.byte	0
 8228 01b6 1E       		.uleb128 0x1e
 8229 01b7 898201   		.uleb128 0x4109
 8230 01ba 00       		.byte	0
 8231 01bb 11       		.uleb128 0x11
 8232 01bc 01       		.uleb128 0x1
 8233 01bd 31       		.uleb128 0x31
 8234 01be 13       		.uleb128 0x13
 8235 01bf 00       		.byte	0
 8236 01c0 00       		.byte	0
 8237 01c1 1F       		.uleb128 0x1f
 8238 01c2 2E       		.uleb128 0x2e
 8239 01c3 00       		.byte	0
 8240 01c4 3F       		.uleb128 0x3f
 8241 01c5 19       		.uleb128 0x19
 8242 01c6 03       		.uleb128 0x3
 8243 01c7 0E       		.uleb128 0xe
 8244 01c8 3A       		.uleb128 0x3a
 8245 01c9 0B       		.uleb128 0xb
 8246 01ca 3B       		.uleb128 0x3b
 8247 01cb 05       		.uleb128 0x5
 8248 01cc 27       		.uleb128 0x27
 8249 01cd 19       		.uleb128 0x19
 8250 01ce 11       		.uleb128 0x11
 8251 01cf 01       		.uleb128 0x1
 8252 01d0 12       		.uleb128 0x12
 8253 01d1 06       		.uleb128 0x6
 8254 01d2 40       		.uleb128 0x40
 8255 01d3 18       		.uleb128 0x18
 8256 01d4 9742     		.uleb128 0x2117
 8257 01d6 19       		.uleb128 0x19
 8258 01d7 00       		.byte	0
 8259 01d8 00       		.byte	0
 8260 01d9 20       		.uleb128 0x20
 8261 01da 34       		.uleb128 0x34
 8262 01db 00       		.byte	0
 8263 01dc 03       		.uleb128 0x3
 8264 01dd 0E       		.uleb128 0xe
 8265 01de 3A       		.uleb128 0x3a
 8266 01df 0B       		.uleb128 0xb
 8267 01e0 3B       		.uleb128 0x3b
 8268 01e1 05       		.uleb128 0x5
 8269 01e2 49       		.uleb128 0x49
 8270 01e3 13       		.uleb128 0x13
 8271 01e4 02       		.uleb128 0x2
 8272 01e5 18       		.uleb128 0x18
 8273 01e6 00       		.byte	0
 8274 01e7 00       		.byte	0
ARM GAS  C:\Users\kevin\AppData\Local\Temp\ccrA27HJ.s 			page 173


 8275 01e8 21       		.uleb128 0x21
 8276 01e9 898201   		.uleb128 0x4109
 8277 01ec 01       		.byte	0x1
 8278 01ed 11       		.uleb128 0x11
 8279 01ee 01       		.uleb128 0x1
 8280 01ef 31       		.uleb128 0x31
 8281 01f0 13       		.uleb128 0x13
 8282 01f1 01       		.uleb128 0x1
 8283 01f2 13       		.uleb128 0x13
 8284 01f3 00       		.byte	0
 8285 01f4 00       		.byte	0
 8286 01f5 22       		.uleb128 0x22
 8287 01f6 2E       		.uleb128 0x2e
 8288 01f7 01       		.byte	0x1
 8289 01f8 3F       		.uleb128 0x3f
 8290 01f9 19       		.uleb128 0x19
 8291 01fa 03       		.uleb128 0x3
 8292 01fb 0E       		.uleb128 0xe
 8293 01fc 3A       		.uleb128 0x3a
 8294 01fd 0B       		.uleb128 0xb
 8295 01fe 3B       		.uleb128 0x3b
 8296 01ff 05       		.uleb128 0x5
 8297 0200 27       		.uleb128 0x27
 8298 0201 19       		.uleb128 0x19
 8299 0202 11       		.uleb128 0x11
 8300 0203 01       		.uleb128 0x1
 8301 0204 12       		.uleb128 0x12
 8302 0205 06       		.uleb128 0x6
 8303 0206 40       		.uleb128 0x40
 8304 0207 18       		.uleb128 0x18
 8305 0208 9642     		.uleb128 0x2116
 8306 020a 19       		.uleb128 0x19
 8307 020b 01       		.uleb128 0x1
 8308 020c 13       		.uleb128 0x13
 8309 020d 00       		.byte	0
 8310 020e 00       		.byte	0
 8311 020f 23       		.uleb128 0x23
 8312 0210 34       		.uleb128 0x34
 8313 0211 00       		.byte	0
 8314 0212 03       		.uleb128 0x3
 8315 0213 08       		.uleb128 0x8
 8316 0214 3A       		.uleb128 0x3a
 8317 0215 0B       		.uleb128 0xb
 8318 0216 3B       		.uleb128 0x3b
 8319 0217 05       		.uleb128 0x5
 8320 0218 49       		.uleb128 0x49
 8321 0219 13       		.uleb128 0x13
 8322 021a 02       		.uleb128 0x2
 8323 021b 17       		.uleb128 0x17
 8324 021c 00       		.byte	0
 8325 021d 00       		.byte	0
 8326 021e 24       		.uleb128 0x24
 8327 021f 34       		.uleb128 0x34
 8328 0220 00       		.byte	0
 8329 0221 03       		.uleb128 0x3
 8330 0222 0E       		.uleb128 0xe
 8331 0223 3A       		.uleb128 0x3a
ARM GAS  C:\Users\kevin\AppData\Local\Temp\ccrA27HJ.s 			page 174


 8332 0224 0B       		.uleb128 0xb
 8333 0225 3B       		.uleb128 0x3b
 8334 0226 0B       		.uleb128 0xb
 8335 0227 49       		.uleb128 0x49
 8336 0228 13       		.uleb128 0x13
 8337 0229 3F       		.uleb128 0x3f
 8338 022a 19       		.uleb128 0x19
 8339 022b 3C       		.uleb128 0x3c
 8340 022c 19       		.uleb128 0x19
 8341 022d 00       		.byte	0
 8342 022e 00       		.byte	0
 8343 022f 25       		.uleb128 0x25
 8344 0230 34       		.uleb128 0x34
 8345 0231 00       		.byte	0
 8346 0232 03       		.uleb128 0x3
 8347 0233 0E       		.uleb128 0xe
 8348 0234 3A       		.uleb128 0x3a
 8349 0235 0B       		.uleb128 0xb
 8350 0236 3B       		.uleb128 0x3b
 8351 0237 05       		.uleb128 0x5
 8352 0238 49       		.uleb128 0x49
 8353 0239 13       		.uleb128 0x13
 8354 023a 3F       		.uleb128 0x3f
 8355 023b 19       		.uleb128 0x19
 8356 023c 3C       		.uleb128 0x3c
 8357 023d 19       		.uleb128 0x19
 8358 023e 00       		.byte	0
 8359 023f 00       		.byte	0
 8360 0240 26       		.uleb128 0x26
 8361 0241 34       		.uleb128 0x34
 8362 0242 00       		.byte	0
 8363 0243 03       		.uleb128 0x3
 8364 0244 0E       		.uleb128 0xe
 8365 0245 3A       		.uleb128 0x3a
 8366 0246 0B       		.uleb128 0xb
 8367 0247 3B       		.uleb128 0x3b
 8368 0248 0B       		.uleb128 0xb
 8369 0249 49       		.uleb128 0x49
 8370 024a 13       		.uleb128 0x13
 8371 024b 3F       		.uleb128 0x3f
 8372 024c 19       		.uleb128 0x19
 8373 024d 02       		.uleb128 0x2
 8374 024e 18       		.uleb128 0x18
 8375 024f 00       		.byte	0
 8376 0250 00       		.byte	0
 8377 0251 27       		.uleb128 0x27
 8378 0252 26       		.uleb128 0x26
 8379 0253 00       		.byte	0
 8380 0254 49       		.uleb128 0x49
 8381 0255 13       		.uleb128 0x13
 8382 0256 00       		.byte	0
 8383 0257 00       		.byte	0
 8384 0258 28       		.uleb128 0x28
 8385 0259 2E       		.uleb128 0x2e
 8386 025a 01       		.byte	0x1
 8387 025b 3F       		.uleb128 0x3f
 8388 025c 19       		.uleb128 0x19
ARM GAS  C:\Users\kevin\AppData\Local\Temp\ccrA27HJ.s 			page 175


 8389 025d 03       		.uleb128 0x3
 8390 025e 0E       		.uleb128 0xe
 8391 025f 3A       		.uleb128 0x3a
 8392 0260 0B       		.uleb128 0xb
 8393 0261 3B       		.uleb128 0x3b
 8394 0262 0B       		.uleb128 0xb
 8395 0263 27       		.uleb128 0x27
 8396 0264 19       		.uleb128 0x19
 8397 0265 3C       		.uleb128 0x3c
 8398 0266 19       		.uleb128 0x19
 8399 0267 01       		.uleb128 0x1
 8400 0268 13       		.uleb128 0x13
 8401 0269 00       		.byte	0
 8402 026a 00       		.byte	0
 8403 026b 29       		.uleb128 0x29
 8404 026c 05       		.uleb128 0x5
 8405 026d 00       		.byte	0
 8406 026e 49       		.uleb128 0x49
 8407 026f 13       		.uleb128 0x13
 8408 0270 00       		.byte	0
 8409 0271 00       		.byte	0
 8410 0272 2A       		.uleb128 0x2a
 8411 0273 2E       		.uleb128 0x2e
 8412 0274 01       		.byte	0x1
 8413 0275 3F       		.uleb128 0x3f
 8414 0276 19       		.uleb128 0x19
 8415 0277 03       		.uleb128 0x3
 8416 0278 0E       		.uleb128 0xe
 8417 0279 27       		.uleb128 0x27
 8418 027a 19       		.uleb128 0x19
 8419 027b 49       		.uleb128 0x49
 8420 027c 13       		.uleb128 0x13
 8421 027d 34       		.uleb128 0x34
 8422 027e 19       		.uleb128 0x19
 8423 027f 3C       		.uleb128 0x3c
 8424 0280 19       		.uleb128 0x19
 8425 0281 01       		.uleb128 0x1
 8426 0282 13       		.uleb128 0x13
 8427 0283 00       		.byte	0
 8428 0284 00       		.byte	0
 8429 0285 2B       		.uleb128 0x2b
 8430 0286 26       		.uleb128 0x26
 8431 0287 00       		.byte	0
 8432 0288 00       		.byte	0
 8433 0289 00       		.byte	0
 8434 028a 2C       		.uleb128 0x2c
 8435 028b 2E       		.uleb128 0x2e
 8436 028c 00       		.byte	0
 8437 028d 3F       		.uleb128 0x3f
 8438 028e 19       		.uleb128 0x19
 8439 028f 03       		.uleb128 0x3
 8440 0290 0E       		.uleb128 0xe
 8441 0291 3A       		.uleb128 0x3a
 8442 0292 0B       		.uleb128 0xb
 8443 0293 3B       		.uleb128 0x3b
 8444 0294 0B       		.uleb128 0xb
 8445 0295 27       		.uleb128 0x27
ARM GAS  C:\Users\kevin\AppData\Local\Temp\ccrA27HJ.s 			page 176


 8446 0296 19       		.uleb128 0x19
 8447 0297 3C       		.uleb128 0x3c
 8448 0298 19       		.uleb128 0x19
 8449 0299 00       		.byte	0
 8450 029a 00       		.byte	0
 8451 029b 2D       		.uleb128 0x2d
 8452 029c 2E       		.uleb128 0x2e
 8453 029d 00       		.byte	0
 8454 029e 3F       		.uleb128 0x3f
 8455 029f 19       		.uleb128 0x19
 8456 02a0 03       		.uleb128 0x3
 8457 02a1 0E       		.uleb128 0xe
 8458 02a2 3A       		.uleb128 0x3a
 8459 02a3 0B       		.uleb128 0xb
 8460 02a4 3B       		.uleb128 0x3b
 8461 02a5 05       		.uleb128 0x5
 8462 02a6 27       		.uleb128 0x27
 8463 02a7 19       		.uleb128 0x19
 8464 02a8 3C       		.uleb128 0x3c
 8465 02a9 19       		.uleb128 0x19
 8466 02aa 00       		.byte	0
 8467 02ab 00       		.byte	0
 8468 02ac 00       		.byte	0
 8469              		.section	.debug_loc,"",%progbits
 8470              	.Ldebug_loc0:
 8471              	.LLST0:
 8472 0000 00000000 		.4byte	.LVL0
 8473 0004 09000000 		.4byte	.LVL1-1
 8474 0008 0100     		.2byte	0x1
 8475 000a 50       		.byte	0x50
 8476 000b 09000000 		.4byte	.LVL1-1
 8477 000f 6C000000 		.4byte	.LFE33
 8478 0013 0400     		.2byte	0x4
 8479 0015 F3       		.byte	0xf3
 8480 0016 01       		.uleb128 0x1
 8481 0017 50       		.byte	0x50
 8482 0018 9F       		.byte	0x9f
 8483 0019 00000000 		.4byte	0
 8484 001d 00000000 		.4byte	0
 8485              	.LLST1:
 8486 0021 00000000 		.4byte	.LVL0
 8487 0025 09000000 		.4byte	.LVL1-1
 8488 0029 0500     		.2byte	0x5
 8489 002b 70       		.byte	0x70
 8490 002c 00       		.sleb128 0
 8491 002d 3A       		.byte	0x3a
 8492 002e 1D       		.byte	0x1d
 8493 002f 9F       		.byte	0x9f
 8494 0030 09000000 		.4byte	.LVL1-1
 8495 0034 5A000000 		.4byte	.LVL12
 8496 0038 0500     		.2byte	0x5
 8497 003a 75       		.byte	0x75
 8498 003b 00       		.sleb128 0
 8499 003c 3A       		.byte	0x3a
 8500 003d 1D       		.byte	0x1d
 8501 003e 9F       		.byte	0x9f
 8502 003f 00000000 		.4byte	0
ARM GAS  C:\Users\kevin\AppData\Local\Temp\ccrA27HJ.s 			page 177


 8503 0043 00000000 		.4byte	0
 8504              	.LLST2:
 8505 0047 0E000000 		.4byte	.LVL2
 8506 004b 1E000000 		.4byte	.LVL3
 8507 004f 0100     		.2byte	0x1
 8508 0051 50       		.byte	0x50
 8509 0052 1E000000 		.4byte	.LVL3
 8510 0056 2C000000 		.4byte	.LVL4
 8511 005a 0100     		.2byte	0x1
 8512 005c 54       		.byte	0x54
 8513 005d 2E000000 		.4byte	.LVL5
 8514 0061 4C000000 		.4byte	.LVL8
 8515 0065 0100     		.2byte	0x1
 8516 0067 54       		.byte	0x54
 8517 0068 52000000 		.4byte	.LVL9
 8518 006c 5A000000 		.4byte	.LVL11
 8519 0070 0100     		.2byte	0x1
 8520 0072 54       		.byte	0x54
 8521 0073 5A000000 		.4byte	.LVL11
 8522 0077 6C000000 		.4byte	.LFE33
 8523 007b 0100     		.2byte	0x1
 8524 007d 50       		.byte	0x50
 8525 007e 00000000 		.4byte	0
 8526 0082 00000000 		.4byte	0
 8527              	.LLST3:
 8528 0086 00000000 		.4byte	.LVL13
 8529 008a 07000000 		.4byte	.LVL14-1
 8530 008e 0100     		.2byte	0x1
 8531 0090 50       		.byte	0x50
 8532 0091 07000000 		.4byte	.LVL14-1
 8533 0095 40000000 		.4byte	.LFE34
 8534 0099 0400     		.2byte	0x4
 8535 009b F3       		.byte	0xf3
 8536 009c 01       		.uleb128 0x1
 8537 009d 50       		.byte	0x50
 8538 009e 9F       		.byte	0x9f
 8539 009f 00000000 		.4byte	0
 8540 00a3 00000000 		.4byte	0
 8541              	.LLST4:
 8542 00a7 0A000000 		.4byte	.LVL15
 8543 00ab 1A000000 		.4byte	.LVL16
 8544 00af 0100     		.2byte	0x1
 8545 00b1 50       		.byte	0x50
 8546 00b2 1C000000 		.4byte	.LVL17
 8547 00b6 2E000000 		.4byte	.LVL19
 8548 00ba 0100     		.2byte	0x1
 8549 00bc 50       		.byte	0x50
 8550 00bd 30000000 		.4byte	.LVL20
 8551 00c1 38000000 		.4byte	.LVL22
 8552 00c5 0100     		.2byte	0x1
 8553 00c7 50       		.byte	0x50
 8554 00c8 00000000 		.4byte	0
 8555 00cc 00000000 		.4byte	0
 8556              	.LLST5:
 8557 00d0 00000000 		.4byte	.LVL23
 8558 00d4 10000000 		.4byte	.LVL27
 8559 00d8 0100     		.2byte	0x1
ARM GAS  C:\Users\kevin\AppData\Local\Temp\ccrA27HJ.s 			page 178


 8560 00da 50       		.byte	0x50
 8561 00db 10000000 		.4byte	.LVL27
 8562 00df 14000000 		.4byte	.LVL29
 8563 00e3 0300     		.2byte	0x3
 8564 00e5 70       		.byte	0x70
 8565 00e6 7F       		.sleb128 -1
 8566 00e7 9F       		.byte	0x9f
 8567 00e8 14000000 		.4byte	.LVL29
 8568 00ec 1A000000 		.4byte	.LVL30
 8569 00f0 0100     		.2byte	0x1
 8570 00f2 50       		.byte	0x50
 8571 00f3 00000000 		.4byte	0
 8572 00f7 00000000 		.4byte	0
 8573              	.LLST6:
 8574 00fb 00000000 		.4byte	.LVL23
 8575 00ff 02000000 		.4byte	.LVL24
 8576 0103 0100     		.2byte	0x1
 8577 0105 51       		.byte	0x51
 8578 0106 02000000 		.4byte	.LVL24
 8579 010a 04000000 		.4byte	.LVL25
 8580 010e 0100     		.2byte	0x1
 8581 0110 51       		.byte	0x51
 8582 0111 04000000 		.4byte	.LVL25
 8583 0115 08000000 		.4byte	.LVL26
 8584 0119 0300     		.2byte	0x3
 8585 011b 71       		.byte	0x71
 8586 011c 01       		.sleb128 1
 8587 011d 9F       		.byte	0x9f
 8588 011e 08000000 		.4byte	.LVL26
 8589 0122 24000000 		.4byte	.LFE35
 8590 0126 0100     		.2byte	0x1
 8591 0128 51       		.byte	0x51
 8592 0129 00000000 		.4byte	0
 8593 012d 00000000 		.4byte	0
 8594              	.LLST7:
 8595 0131 00000000 		.4byte	.LVL23
 8596 0135 02000000 		.4byte	.LVL24
 8597 0139 0200     		.2byte	0x2
 8598 013b 30       		.byte	0x30
 8599 013c 9F       		.byte	0x9f
 8600 013d 02000000 		.4byte	.LVL24
 8601 0141 12000000 		.4byte	.LVL28
 8602 0145 0100     		.2byte	0x1
 8603 0147 53       		.byte	0x53
 8604 0148 14000000 		.4byte	.LVL29
 8605 014c 1A000000 		.4byte	.LVL30
 8606 0150 0100     		.2byte	0x1
 8607 0152 53       		.byte	0x53
 8608 0153 00000000 		.4byte	0
 8609 0157 00000000 		.4byte	0
 8610              	.LLST8:
 8611 015b 00000000 		.4byte	.LVL31
 8612 015f 10000000 		.4byte	.LVL35
 8613 0163 0100     		.2byte	0x1
 8614 0165 50       		.byte	0x50
 8615 0166 10000000 		.4byte	.LVL35
 8616 016a 14000000 		.4byte	.LVL37
ARM GAS  C:\Users\kevin\AppData\Local\Temp\ccrA27HJ.s 			page 179


 8617 016e 0300     		.2byte	0x3
 8618 0170 70       		.byte	0x70
 8619 0171 7F       		.sleb128 -1
 8620 0172 9F       		.byte	0x9f
 8621 0173 14000000 		.4byte	.LVL37
 8622 0177 1A000000 		.4byte	.LVL39
 8623 017b 0100     		.2byte	0x1
 8624 017d 50       		.byte	0x50
 8625 017e 00000000 		.4byte	0
 8626 0182 00000000 		.4byte	0
 8627              	.LLST9:
 8628 0186 00000000 		.4byte	.LVL31
 8629 018a 02000000 		.4byte	.LVL32
 8630 018e 0100     		.2byte	0x1
 8631 0190 51       		.byte	0x51
 8632 0191 02000000 		.4byte	.LVL32
 8633 0195 04000000 		.4byte	.LVL33
 8634 0199 0100     		.2byte	0x1
 8635 019b 51       		.byte	0x51
 8636 019c 04000000 		.4byte	.LVL33
 8637 01a0 08000000 		.4byte	.LVL34
 8638 01a4 0300     		.2byte	0x3
 8639 01a6 71       		.byte	0x71
 8640 01a7 01       		.sleb128 1
 8641 01a8 9F       		.byte	0x9f
 8642 01a9 08000000 		.4byte	.LVL34
 8643 01ad 20000000 		.4byte	.LFE36
 8644 01b1 0100     		.2byte	0x1
 8645 01b3 51       		.byte	0x51
 8646 01b4 00000000 		.4byte	0
 8647 01b8 00000000 		.4byte	0
 8648              	.LLST10:
 8649 01bc 00000000 		.4byte	.LVL31
 8650 01c0 02000000 		.4byte	.LVL32
 8651 01c4 0200     		.2byte	0x2
 8652 01c6 30       		.byte	0x30
 8653 01c7 9F       		.byte	0x9f
 8654 01c8 02000000 		.4byte	.LVL32
 8655 01cc 12000000 		.4byte	.LVL36
 8656 01d0 0100     		.2byte	0x1
 8657 01d2 53       		.byte	0x53
 8658 01d3 14000000 		.4byte	.LVL37
 8659 01d7 18000000 		.4byte	.LVL38
 8660 01db 0100     		.2byte	0x1
 8661 01dd 53       		.byte	0x53
 8662 01de 18000000 		.4byte	.LVL38
 8663 01e2 20000000 		.4byte	.LFE36
 8664 01e6 0400     		.2byte	0x4
 8665 01e8 73       		.byte	0x73
 8666 01e9 00       		.sleb128 0
 8667 01ea 1F       		.byte	0x1f
 8668 01eb 9F       		.byte	0x9f
 8669 01ec 00000000 		.4byte	0
 8670 01f0 00000000 		.4byte	0
 8671              	.LLST11:
 8672 01f4 00000000 		.4byte	.LVL40
 8673 01f8 08000000 		.4byte	.LVL41
ARM GAS  C:\Users\kevin\AppData\Local\Temp\ccrA27HJ.s 			page 180


 8674 01fc 0100     		.2byte	0x1
 8675 01fe 50       		.byte	0x50
 8676 01ff 08000000 		.4byte	.LVL41
 8677 0203 0C010000 		.4byte	.LFE37
 8678 0207 0400     		.2byte	0x4
 8679 0209 F3       		.byte	0xf3
 8680 020a 01       		.uleb128 0x1
 8681 020b 50       		.byte	0x50
 8682 020c 9F       		.byte	0x9f
 8683 020d 00000000 		.4byte	0
 8684 0211 00000000 		.4byte	0
 8685              	.LLST12:
 8686 0215 00000000 		.4byte	.LVL43
 8687 0219 08000000 		.4byte	.LVL44
 8688 021d 0100     		.2byte	0x1
 8689 021f 50       		.byte	0x50
 8690 0220 08000000 		.4byte	.LVL44
 8691 0224 18010000 		.4byte	.LFE38
 8692 0228 0400     		.2byte	0x4
 8693 022a F3       		.byte	0xf3
 8694 022b 01       		.uleb128 0x1
 8695 022c 50       		.byte	0x50
 8696 022d 9F       		.byte	0x9f
 8697 022e 00000000 		.4byte	0
 8698 0232 00000000 		.4byte	0
 8699              	.LLST13:
 8700 0236 00000000 		.4byte	.LVL45
 8701 023a 10000000 		.4byte	.LVL46
 8702 023e 0100     		.2byte	0x1
 8703 0240 51       		.byte	0x51
 8704 0241 10000000 		.4byte	.LVL46
 8705 0245 30000000 		.4byte	.LFE39
 8706 0249 0400     		.2byte	0x4
 8707 024b F3       		.byte	0xf3
 8708 024c 01       		.uleb128 0x1
 8709 024d 51       		.byte	0x51
 8710 024e 9F       		.byte	0x9f
 8711 024f 00000000 		.4byte	0
 8712 0253 00000000 		.4byte	0
 8713              	.LLST14:
 8714 0257 00000000 		.4byte	.LVL50
 8715 025b 0C000000 		.4byte	.LVL51
 8716 025f 0100     		.2byte	0x1
 8717 0261 50       		.byte	0x50
 8718 0262 0C000000 		.4byte	.LVL51
 8719 0266 B8000000 		.4byte	.LFE44
 8720 026a 0400     		.2byte	0x4
 8721 026c F3       		.byte	0xf3
 8722 026d 01       		.uleb128 0x1
 8723 026e 50       		.byte	0x50
 8724 026f 9F       		.byte	0x9f
 8725 0270 00000000 		.4byte	0
 8726 0274 00000000 		.4byte	0
 8727              	.LLST15:
 8728 0278 00000000 		.4byte	.LVL50
 8729 027c 0E000000 		.4byte	.LVL52
 8730 0280 0100     		.2byte	0x1
ARM GAS  C:\Users\kevin\AppData\Local\Temp\ccrA27HJ.s 			page 181


 8731 0282 51       		.byte	0x51
 8732 0283 0E000000 		.4byte	.LVL52
 8733 0287 B8000000 		.4byte	.LFE44
 8734 028b 0400     		.2byte	0x4
 8735 028d F3       		.byte	0xf3
 8736 028e 01       		.uleb128 0x1
 8737 028f 51       		.byte	0x51
 8738 0290 9F       		.byte	0x9f
 8739 0291 00000000 		.4byte	0
 8740 0295 00000000 		.4byte	0
 8741              	.LLST16:
 8742 0299 00000000 		.4byte	.LVL50
 8743 029d 10000000 		.4byte	.LVL53
 8744 02a1 0100     		.2byte	0x1
 8745 02a3 52       		.byte	0x52
 8746 02a4 10000000 		.4byte	.LVL53
 8747 02a8 B8000000 		.4byte	.LFE44
 8748 02ac 0200     		.2byte	0x2
 8749 02ae 7D       		.byte	0x7d
 8750 02af 04       		.sleb128 4
 8751 02b0 00000000 		.4byte	0
 8752 02b4 00000000 		.4byte	0
 8753              	.LLST17:
 8754 02b8 00000000 		.4byte	.LVL50
 8755 02bc 15000000 		.4byte	.LVL54-1
 8756 02c0 0100     		.2byte	0x1
 8757 02c2 53       		.byte	0x53
 8758 02c3 15000000 		.4byte	.LVL54-1
 8759 02c7 B8000000 		.4byte	.LFE44
 8760 02cb 0400     		.2byte	0x4
 8761 02cd F3       		.byte	0xf3
 8762 02ce 01       		.uleb128 0x1
 8763 02cf 53       		.byte	0x53
 8764 02d0 9F       		.byte	0x9f
 8765 02d1 00000000 		.4byte	0
 8766 02d5 00000000 		.4byte	0
 8767              	.LLST18:
 8768 02d9 38000000 		.4byte	.LVL96
 8769 02dd 40000000 		.4byte	.LVL97
 8770 02e1 0100     		.2byte	0x1
 8771 02e3 52       		.byte	0x52
 8772 02e4 40000000 		.4byte	.LVL97
 8773 02e8 44000000 		.4byte	.LVL98
 8774 02ec 0300     		.2byte	0x3
 8775 02ee 70       		.byte	0x70
 8776 02ef 7F       		.sleb128 -1
 8777 02f0 9F       		.byte	0x9f
 8778 02f1 44000000 		.4byte	.LVL98
 8779 02f5 4A000000 		.4byte	.LVL99
 8780 02f9 0100     		.2byte	0x1
 8781 02fb 50       		.byte	0x50
 8782 02fc 00000000 		.4byte	0
 8783 0300 00000000 		.4byte	0
 8784              		.section	.debug_aranges,"",%progbits
 8785 0000 BC010000 		.4byte	0x1bc
 8786 0004 0200     		.2byte	0x2
 8787 0006 00000000 		.4byte	.Ldebug_info0
ARM GAS  C:\Users\kevin\AppData\Local\Temp\ccrA27HJ.s 			page 182


 8788 000a 04       		.byte	0x4
 8789 000b 00       		.byte	0
 8790 000c 0000     		.2byte	0
 8791 000e 0000     		.2byte	0
 8792 0010 00000000 		.4byte	.LFB33
 8793 0014 6C000000 		.4byte	.LFE33-.LFB33
 8794 0018 00000000 		.4byte	.LFB34
 8795 001c 40000000 		.4byte	.LFE34-.LFB34
 8796 0020 00000000 		.4byte	.LFB35
 8797 0024 24000000 		.4byte	.LFE35-.LFB35
 8798 0028 00000000 		.4byte	.LFB36
 8799 002c 20000000 		.4byte	.LFE36-.LFB36
 8800 0030 00000000 		.4byte	.LFB37
 8801 0034 0C010000 		.4byte	.LFE37-.LFB37
 8802 0038 00000000 		.4byte	.LFB38
 8803 003c 18010000 		.4byte	.LFE38-.LFB38
 8804 0040 00000000 		.4byte	.LFB39
 8805 0044 30000000 		.4byte	.LFE39-.LFB39
 8806 0048 00000000 		.4byte	.LFB40
 8807 004c 1C000000 		.4byte	.LFE40-.LFB40
 8808 0050 00000000 		.4byte	.LFB41
 8809 0054 1C000000 		.4byte	.LFE41-.LFB41
 8810 0058 00000000 		.4byte	.LFB42
 8811 005c 48000000 		.4byte	.LFE42-.LFB42
 8812 0060 00000000 		.4byte	.LFB43
 8813 0064 02000000 		.4byte	.LFE43-.LFB43
 8814 0068 00000000 		.4byte	.LFB44
 8815 006c B8000000 		.4byte	.LFE44-.LFB44
 8816 0070 00000000 		.4byte	.LFB45
 8817 0074 28000000 		.4byte	.LFE45-.LFB45
 8818 0078 00000000 		.4byte	.LFB46
 8819 007c 94000000 		.4byte	.LFE46-.LFB46
 8820 0080 00000000 		.4byte	.LFB47
 8821 0084 40000000 		.4byte	.LFE47-.LFB47
 8822 0088 00000000 		.4byte	.LFB48
 8823 008c 38000000 		.4byte	.LFE48-.LFB48
 8824 0090 00000000 		.4byte	.LFB49
 8825 0094 54000000 		.4byte	.LFE49-.LFB49
 8826 0098 00000000 		.4byte	.LFB50
 8827 009c 16000000 		.4byte	.LFE50-.LFB50
 8828 00a0 00000000 		.4byte	.LFB51
 8829 00a4 1C000000 		.4byte	.LFE51-.LFB51
 8830 00a8 00000000 		.4byte	.LFB52
 8831 00ac 30000000 		.4byte	.LFE52-.LFB52
 8832 00b0 00000000 		.4byte	.LFB53
 8833 00b4 1C000000 		.4byte	.LFE53-.LFB53
 8834 00b8 00000000 		.4byte	.LFB54
 8835 00bc 1C000000 		.4byte	.LFE54-.LFB54
 8836 00c0 00000000 		.4byte	.LFB55
 8837 00c4 20000000 		.4byte	.LFE55-.LFB55
 8838 00c8 00000000 		.4byte	.LFB56
 8839 00cc 16000000 		.4byte	.LFE56-.LFB56
 8840 00d0 00000000 		.4byte	.LFB57
 8841 00d4 16000000 		.4byte	.LFE57-.LFB57
 8842 00d8 00000000 		.4byte	.LFB58
 8843 00dc 16000000 		.4byte	.LFE58-.LFB58
 8844 00e0 00000000 		.4byte	.LFB59
ARM GAS  C:\Users\kevin\AppData\Local\Temp\ccrA27HJ.s 			page 183


 8845 00e4 16000000 		.4byte	.LFE59-.LFB59
 8846 00e8 00000000 		.4byte	.LFB60
 8847 00ec 14000000 		.4byte	.LFE60-.LFB60
 8848 00f0 00000000 		.4byte	.LFB61
 8849 00f4 14000000 		.4byte	.LFE61-.LFB61
 8850 00f8 00000000 		.4byte	.LFB62
 8851 00fc 1C000000 		.4byte	.LFE62-.LFB62
 8852 0100 00000000 		.4byte	.LFB63
 8853 0104 90000000 		.4byte	.LFE63-.LFB63
 8854 0108 00000000 		.4byte	.LFB64
 8855 010c 44000000 		.4byte	.LFE64-.LFB64
 8856 0110 00000000 		.4byte	.LFB65
 8857 0114 54000000 		.4byte	.LFE65-.LFB65
 8858 0118 00000000 		.4byte	.LFB66
 8859 011c 14000000 		.4byte	.LFE66-.LFB66
 8860 0120 00000000 		.4byte	.LFB67
 8861 0124 14000000 		.4byte	.LFE67-.LFB67
 8862 0128 00000000 		.4byte	.LFB68
 8863 012c 14000000 		.4byte	.LFE68-.LFB68
 8864 0130 00000000 		.4byte	.LFB69
 8865 0134 14000000 		.4byte	.LFE69-.LFB69
 8866 0138 00000000 		.4byte	.LFB70
 8867 013c 14000000 		.4byte	.LFE70-.LFB70
 8868 0140 00000000 		.4byte	.LFB71
 8869 0144 14000000 		.4byte	.LFE71-.LFB71
 8870 0148 00000000 		.4byte	.LFB72
 8871 014c 14000000 		.4byte	.LFE72-.LFB72
 8872 0150 00000000 		.4byte	.LFB73
 8873 0154 14000000 		.4byte	.LFE73-.LFB73
 8874 0158 00000000 		.4byte	.LFB74
 8875 015c 14000000 		.4byte	.LFE74-.LFB74
 8876 0160 00000000 		.4byte	.LFB75
 8877 0164 14000000 		.4byte	.LFE75-.LFB75
 8878 0168 00000000 		.4byte	.LFB76
 8879 016c 20000000 		.4byte	.LFE76-.LFB76
 8880 0170 00000000 		.4byte	.LFB77
 8881 0174 20000000 		.4byte	.LFE77-.LFB77
 8882 0178 00000000 		.4byte	.LFB78
 8883 017c 20000000 		.4byte	.LFE78-.LFB78
 8884 0180 00000000 		.4byte	.LFB79
 8885 0184 04010000 		.4byte	.LFE79-.LFB79
 8886 0188 00000000 		.4byte	.LFB80
 8887 018c D0010000 		.4byte	.LFE80-.LFB80
 8888 0190 00000000 		.4byte	.LFB81
 8889 0194 74000000 		.4byte	.LFE81-.LFB81
 8890 0198 00000000 		.4byte	.LFB82
 8891 019c CC000000 		.4byte	.LFE82-.LFB82
 8892 01a0 00000000 		.4byte	.LFB83
 8893 01a4 F0000000 		.4byte	.LFE83-.LFB83
 8894 01a8 00000000 		.4byte	.LFB84
 8895 01ac 5C000000 		.4byte	.LFE84-.LFB84
 8896 01b0 00000000 		.4byte	.LFB85
 8897 01b4 24000000 		.4byte	.LFE85-.LFB85
 8898 01b8 00000000 		.4byte	0
 8899 01bc 00000000 		.4byte	0
 8900              		.section	.debug_ranges,"",%progbits
 8901              	.Ldebug_ranges0:
ARM GAS  C:\Users\kevin\AppData\Local\Temp\ccrA27HJ.s 			page 184


 8902 0000 00000000 		.4byte	.LFB33
 8903 0004 6C000000 		.4byte	.LFE33
 8904 0008 00000000 		.4byte	.LFB34
 8905 000c 40000000 		.4byte	.LFE34
 8906 0010 00000000 		.4byte	.LFB35
 8907 0014 24000000 		.4byte	.LFE35
 8908 0018 00000000 		.4byte	.LFB36
 8909 001c 20000000 		.4byte	.LFE36
 8910 0020 00000000 		.4byte	.LFB37
 8911 0024 0C010000 		.4byte	.LFE37
 8912 0028 00000000 		.4byte	.LFB38
 8913 002c 18010000 		.4byte	.LFE38
 8914 0030 00000000 		.4byte	.LFB39
 8915 0034 30000000 		.4byte	.LFE39
 8916 0038 00000000 		.4byte	.LFB40
 8917 003c 1C000000 		.4byte	.LFE40
 8918 0040 00000000 		.4byte	.LFB41
 8919 0044 1C000000 		.4byte	.LFE41
 8920 0048 00000000 		.4byte	.LFB42
 8921 004c 48000000 		.4byte	.LFE42
 8922 0050 00000000 		.4byte	.LFB43
 8923 0054 02000000 		.4byte	.LFE43
 8924 0058 00000000 		.4byte	.LFB44
 8925 005c B8000000 		.4byte	.LFE44
 8926 0060 00000000 		.4byte	.LFB45
 8927 0064 28000000 		.4byte	.LFE45
 8928 0068 00000000 		.4byte	.LFB46
 8929 006c 94000000 		.4byte	.LFE46
 8930 0070 00000000 		.4byte	.LFB47
 8931 0074 40000000 		.4byte	.LFE47
 8932 0078 00000000 		.4byte	.LFB48
 8933 007c 38000000 		.4byte	.LFE48
 8934 0080 00000000 		.4byte	.LFB49
 8935 0084 54000000 		.4byte	.LFE49
 8936 0088 00000000 		.4byte	.LFB50
 8937 008c 16000000 		.4byte	.LFE50
 8938 0090 00000000 		.4byte	.LFB51
 8939 0094 1C000000 		.4byte	.LFE51
 8940 0098 00000000 		.4byte	.LFB52
 8941 009c 30000000 		.4byte	.LFE52
 8942 00a0 00000000 		.4byte	.LFB53
 8943 00a4 1C000000 		.4byte	.LFE53
 8944 00a8 00000000 		.4byte	.LFB54
 8945 00ac 1C000000 		.4byte	.LFE54
 8946 00b0 00000000 		.4byte	.LFB55
 8947 00b4 20000000 		.4byte	.LFE55
 8948 00b8 00000000 		.4byte	.LFB56
 8949 00bc 16000000 		.4byte	.LFE56
 8950 00c0 00000000 		.4byte	.LFB57
 8951 00c4 16000000 		.4byte	.LFE57
 8952 00c8 00000000 		.4byte	.LFB58
 8953 00cc 16000000 		.4byte	.LFE58
 8954 00d0 00000000 		.4byte	.LFB59
 8955 00d4 16000000 		.4byte	.LFE59
 8956 00d8 00000000 		.4byte	.LFB60
 8957 00dc 14000000 		.4byte	.LFE60
 8958 00e0 00000000 		.4byte	.LFB61
ARM GAS  C:\Users\kevin\AppData\Local\Temp\ccrA27HJ.s 			page 185


 8959 00e4 14000000 		.4byte	.LFE61
 8960 00e8 00000000 		.4byte	.LFB62
 8961 00ec 1C000000 		.4byte	.LFE62
 8962 00f0 00000000 		.4byte	.LFB63
 8963 00f4 90000000 		.4byte	.LFE63
 8964 00f8 00000000 		.4byte	.LFB64
 8965 00fc 44000000 		.4byte	.LFE64
 8966 0100 00000000 		.4byte	.LFB65
 8967 0104 54000000 		.4byte	.LFE65
 8968 0108 00000000 		.4byte	.LFB66
 8969 010c 14000000 		.4byte	.LFE66
 8970 0110 00000000 		.4byte	.LFB67
 8971 0114 14000000 		.4byte	.LFE67
 8972 0118 00000000 		.4byte	.LFB68
 8973 011c 14000000 		.4byte	.LFE68
 8974 0120 00000000 		.4byte	.LFB69
 8975 0124 14000000 		.4byte	.LFE69
 8976 0128 00000000 		.4byte	.LFB70
 8977 012c 14000000 		.4byte	.LFE70
 8978 0130 00000000 		.4byte	.LFB71
 8979 0134 14000000 		.4byte	.LFE71
 8980 0138 00000000 		.4byte	.LFB72
 8981 013c 14000000 		.4byte	.LFE72
 8982 0140 00000000 		.4byte	.LFB73
 8983 0144 14000000 		.4byte	.LFE73
 8984 0148 00000000 		.4byte	.LFB74
 8985 014c 14000000 		.4byte	.LFE74
 8986 0150 00000000 		.4byte	.LFB75
 8987 0154 14000000 		.4byte	.LFE75
 8988 0158 00000000 		.4byte	.LFB76
 8989 015c 20000000 		.4byte	.LFE76
 8990 0160 00000000 		.4byte	.LFB77
 8991 0164 20000000 		.4byte	.LFE77
 8992 0168 00000000 		.4byte	.LFB78
 8993 016c 20000000 		.4byte	.LFE78
 8994 0170 00000000 		.4byte	.LFB79
 8995 0174 04010000 		.4byte	.LFE79
 8996 0178 00000000 		.4byte	.LFB80
 8997 017c D0010000 		.4byte	.LFE80
 8998 0180 00000000 		.4byte	.LFB81
 8999 0184 74000000 		.4byte	.LFE81
 9000 0188 00000000 		.4byte	.LFB82
 9001 018c CC000000 		.4byte	.LFE82
 9002 0190 00000000 		.4byte	.LFB83
 9003 0194 F0000000 		.4byte	.LFE83
 9004 0198 00000000 		.4byte	.LFB84
 9005 019c 5C000000 		.4byte	.LFE84
 9006 01a0 00000000 		.4byte	.LFB85
 9007 01a4 24000000 		.4byte	.LFE85
 9008 01a8 00000000 		.4byte	0
 9009 01ac 00000000 		.4byte	0
 9010              		.section	.debug_line,"",%progbits
 9011              	.Ldebug_line0:
 9012 0000 17070000 		.section	.debug_str,"MS",%progbits,1
 9012      02008200 
 9012      00000201 
 9012      FB0E0D00 
ARM GAS  C:\Users\kevin\AppData\Local\Temp\ccrA27HJ.s 			page 186


 9012      01010101 
 9013              	.LASF207:
 9014 0000 56616C75 		.ascii	"Value_Tds1_Tmp\000"
 9014      655F5464 
 9014      73315F54 
 9014      6D7000
 9015              	.LASF157:
 9016 000f 4C6F6164 		.ascii	"Load_Error\000"
 9016      5F457272 
 9016      6F7200
 9017              	.LASF118:
 9018 001a 53656E64 		.ascii	"SendDataToWifi\000"
 9018      44617461 
 9018      546F5769 
 9018      666900
 9019              	.LASF82:
 9020 0029 67635265 		.ascii	"gcReceComm1OK\000"
 9020      6365436F 
 9020      6D6D314F 
 9020      4B00
 9021              	.LASF42:
 9022 0037 73646279 		.ascii	"sdby\000"
 9022      00
 9023              	.LASF69:
 9024 003c 776F726B 		.ascii	"working\000"
 9024      696E6700 
 9025              	.LASF237:
 9026 0044 2E5C7561 		.ascii	".\\uart_wifi.c\000"
 9026      72745F77 
 9026      6966692E 
 9026      6300
 9027              	.LASF17:
 9028 0052 4572726F 		.ascii	"Error_00\000"
 9028      725F3030 
 9028      00
 9029              	.LASF18:
 9030 005b 4572726F 		.ascii	"Error_01\000"
 9030      725F3031 
 9030      00
 9031              	.LASF19:
 9032 0064 4572726F 		.ascii	"Error_02\000"
 9032      725F3032 
 9032      00
 9033              	.LASF20:
 9034 006d 4572726F 		.ascii	"Error_03\000"
 9034      725F3033 
 9034      00
 9035              	.LASF21:
 9036 0076 4572726F 		.ascii	"Error_04\000"
 9036      725F3034 
 9036      00
 9037              	.LASF22:
 9038 007f 4572726F 		.ascii	"Error_05\000"
 9038      725F3035 
 9038      00
 9039              	.LASF23:
 9040 0088 4572726F 		.ascii	"Error_06\000"
ARM GAS  C:\Users\kevin\AppData\Local\Temp\ccrA27HJ.s 			page 187


 9040      725F3036 
 9040      00
 9041              	.LASF24:
 9042 0091 4572726F 		.ascii	"Error_07\000"
 9042      725F3037 
 9042      00
 9043              	.LASF25:
 9044 009a 4572726F 		.ascii	"Error_08\000"
 9044      725F3038 
 9044      00
 9045              	.LASF26:
 9046 00a3 4572726F 		.ascii	"Error_09\000"
 9046      725F3039 
 9046      00
 9047              	.LASF121:
 9048 00ac 44617461 		.ascii	"DataBuf\000"
 9048      42756600 
 9049              	.LASF142:
 9050 00b4 486F7374 		.ascii	"Host_State_Data\000"
 9050      5F537461 
 9050      74655F44 
 9050      61746100 
 9051              	.LASF127:
 9052 00c4 4170705F 		.ascii	"App_Error_Data\000"
 9052      4572726F 
 9052      725F4461 
 9052      746100
 9053              	.LASF94:
 9054 00d3 666C6167 		.ascii	"flag_rev_end\000"
 9054      5F726576 
 9054      5F656E64 
 9054      00
 9055              	.LASF143:
 9056 00e0 486F7374 		.ascii	"Host_Filter_Changed_Data\000"
 9056      5F46696C 
 9056      7465725F 
 9056      4368616E 
 9056      6765645F 
 9057              	.LASF103:
 9058 00f9 72616D5F 		.ascii	"ram_tds_out_disp\000"
 9058      7464735F 
 9058      6F75745F 
 9058      64697370 
 9058      00
 9059              	.LASF85:
 9060 010a 75384532 		.ascii	"u8E2Set\000"
 9060      53657400 
 9061              	.LASF8:
 9062 0112 756E7369 		.ascii	"unsigned int\000"
 9062      676E6564 
 9062      20696E74 
 9062      00
 9063              	.LASF145:
 9064 011f 486F7374 		.ascii	"Host_E0_Data\000"
 9064      5F45305F 
 9064      44617461 
 9064      00
ARM GAS  C:\Users\kevin\AppData\Local\Temp\ccrA27HJ.s 			page 188


 9065              	.LASF155:
 9066 012c 4C6F6164 		.ascii	"Load_Command\000"
 9066      5F436F6D 
 9066      6D616E64 
 9066      00
 9067              	.LASF65:
 9068 0139 686F7374 		.ascii	"host_e9_data\000"
 9068      5F65395F 
 9068      64617461 
 9068      00
 9069              	.LASF141:
 9070 0146 4D63755F 		.ascii	"Mcu_Firmware_Update\000"
 9070      4669726D 
 9070      77617265 
 9070      5F557064 
 9070      61746500 
 9071              	.LASF31:
 9072 015a 71757975 		.ascii	"quyuxzsta\000"
 9072      787A7374 
 9072      6100
 9073              	.LASF136:
 9074 0164 4170705F 		.ascii	"App_Download_Filter_Reset_Data\000"
 9074      446F776E 
 9074      6C6F6164 
 9074      5F46696C 
 9074      7465725F 
 9075              	.LASF236:
 9076 0183 474E5520 		.ascii	"GNU C 4.8.4 20140526 (release) [ARM/embedded-4_8-br"
 9076      4320342E 
 9076      382E3420 
 9076      32303134 
 9076      30353236 
 9077 01b6 616E6368 		.ascii	"anch revision 211358] -mcpu=cortex-m0 -mthumb -g -O"
 9077      20726576 
 9077      6973696F 
 9077      6E203231 
 9077      31333538 
 9078 01e9 73202D66 		.ascii	"s -ffunction-sections\000"
 9078      66756E63 
 9078      74696F6E 
 9078      2D736563 
 9078      74696F6E 
 9079              	.LASF67:
 9080 01ff 64697961 		.ascii	"diya_flag\000"
 9080      5F666C61 
 9080      6700
 9081              	.LASF196:
 9082 0209 54445363 		.ascii	"TDScheck1\000"
 9082      6865636B 
 9082      3100
 9083              	.LASF199:
 9084 0213 54445363 		.ascii	"TDScheck4\000"
 9084      6865636B 
 9084      3400
 9085              	.LASF60:
 9086 021d 686F7374 		.ascii	"host_e4_data\000"
 9086      5F65345F 
ARM GAS  C:\Users\kevin\AppData\Local\Temp\ccrA27HJ.s 			page 189


 9086      64617461 
 9086      00
 9087              	.LASF234:
 9088 022a 77726974 		.ascii	"write1\000"
 9088      653100
 9089              	.LASF54:
 9090 0231 74657374 		.ascii	"test\000"
 9090      00
 9091              	.LASF206:
 9092 0236 56616C75 		.ascii	"Value_Tds0_Tmp\000"
 9092      655F5464 
 9092      73305F54 
 9092      6D7000
 9093              	.LASF194:
 9094 0245 536D6172 		.ascii	"SmarkLink_State\000"
 9094      6B4C696E 
 9094      6B5F5374 
 9094      61746500 
 9095              	.LASF55:
 9096 0255 616C6172 		.ascii	"alarmsta\000"
 9096      6D737461 
 9096      00
 9097              	.LASF30:
 9098 025e 6A697368 		.ascii	"jishi\000"
 9098      6900
 9099              	.LASF27:
 9100 0264 6572726F 		.ascii	"error\000"
 9100      7200
 9101              	.LASF134:
 9102 026a 4170705F 		.ascii	"App_Search_Filter_Manage_Num\000"
 9102      53656172 
 9102      63685F46 
 9102      696C7465 
 9102      725F4D61 
 9103              	.LASF51:
 9104 0287 75617274 		.ascii	"uart_1_tx\000"
 9104      5F315F74 
 9104      7800
 9105              	.LASF104:
 9106 0291 53756D5F 		.ascii	"Sum_Verify\000"
 9106      56657269 
 9106      667900
 9107              	.LASF49:
 9108 029c 67796675 		.ascii	"gyfull\000"
 9108      6C6C00
 9109              	.LASF200:
 9110 02a3 75384C69 		.ascii	"u8LinkState\000"
 9110      6E6B5374 
 9110      61746500 
 9111              	.LASF150:
 9112 02af 486F7374 		.ascii	"Host_E5_Data\000"
 9112      5F45355F 
 9112      44617461 
 9112      00
 9113              	.LASF93:
 9114 02bc 73656E64 		.ascii	"send_data_load\000"
 9114      5F646174 
ARM GAS  C:\Users\kevin\AppData\Local\Temp\ccrA27HJ.s 			page 190


 9114      615F6C6F 
 9114      616400
 9115              	.LASF108:
 9116 02cb 55617274 		.ascii	"UartData\000"
 9116      44617461 
 9116      00
 9117              	.LASF203:
 9118 02d4 576F726B 		.ascii	"Work_State_Num_H\000"
 9118      5F537461 
 9118      74655F4E 
 9118      756D5F48 
 9118      00
 9119              	.LASF97:
 9120 02e5 72616D5F 		.ascii	"ram_tds_in_remainder\000"
 9120      7464735F 
 9120      696E5F72 
 9120      656D6169 
 9120      6E646572 
 9121              	.LASF204:
 9122 02fa 576F726B 		.ascii	"Work_State_Num_L\000"
 9122      5F537461 
 9122      74655F4E 
 9122      756D5F4C 
 9122      00
 9123              	.LASF211:
 9124 030b 5461625F 		.ascii	"Tab_tds_out\000"
 9124      7464735F 
 9124      6F757400 
 9125              	.LASF80:
 9126 0317 68616E64 		.ascii	"handshake_ok\000"
 9126      7368616B 
 9126      655F6F6B 
 9126      00
 9127              	.LASF181:
 9128 0324 4C767869 		.ascii	"LvxinJishi\000"
 9128      6E4A6973 
 9128      686900
 9129              	.LASF109:
 9130 032f 4C6F6164 		.ascii	"LoadUARTData\000"
 9130      55415254 
 9130      44617461 
 9130      00
 9131              	.LASF114:
 9132 033c 436F6D6D 		.ascii	"Comm_Uart_0_PrintHex8\000"
 9132      5F556172 
 9132      745F305F 
 9132      5072696E 
 9132      74486578 
 9133              	.LASF224:
 9134 0352 67635749 		.ascii	"gcWIFICTL\000"
 9134      46494354 
 9134      4C00
 9135              	.LASF129:
 9136 035c 4170705F 		.ascii	"App_Download_Nb_Sta\000"
 9136      446F776E 
 9136      6C6F6164 
 9136      5F4E625F 
ARM GAS  C:\Users\kevin\AppData\Local\Temp\ccrA27HJ.s 			page 191


 9136      53746100 
 9137              	.LASF12:
 9138 0370 666C6F61 		.ascii	"float\000"
 9138      7400
 9139              	.LASF28:
 9140 0376 6E6F7761 		.ascii	"nowater\000"
 9140      74657200 
 9141              	.LASF193:
 9142 037e 4572726F 		.ascii	"Error_Counter\000"
 9142      725F436F 
 9142      756E7465 
 9142      7200
 9143              	.LASF159:
 9144 038c 55617274 		.ascii	"Uart_Exception_Handl\000"
 9144      5F457863 
 9144      65707469 
 9144      6F6E5F48 
 9144      616E646C 
 9145              	.LASF32:
 9146 03a1 6C767869 		.ascii	"lvxingxzsta\000"
 9146      6E67787A 
 9146      73746100 
 9147              	.LASF7:
 9148 03ad 6C6F6E67 		.ascii	"long long unsigned int\000"
 9148      206C6F6E 
 9148      6720756E 
 9148      7369676E 
 9148      65642069 
 9149              	.LASF124:
 9150 03c4 4D63755F 		.ascii	"Mcu_Handshake_Data\000"
 9150      48616E64 
 9150      7368616B 
 9150      655F4461 
 9150      746100
 9151              	.LASF223:
 9152 03d7 67695749 		.ascii	"giWIFIDATALength\000"
 9152      46494441 
 9152      54414C65 
 9152      6E677468 
 9152      00
 9153              	.LASF220:
 9154 03e8 67637464 		.ascii	"gctdsboardCommunState\000"
 9154      73626F61 
 9154      7264436F 
 9154      6D6D756E 
 9154      53746174 
 9155              	.LASF179:
 9156 03fe 6A696E67 		.ascii	"jingshuiliang\000"
 9156      73687569 
 9156      6C69616E 
 9156      6700
 9157              	.LASF72:
 9158 040c 666C6167 		.ascii	"flag_00\000"
 9158      5F303000 
 9159              	.LASF73:
 9160 0414 666C6167 		.ascii	"flag_01\000"
 9160      5F303100 
ARM GAS  C:\Users\kevin\AppData\Local\Temp\ccrA27HJ.s 			page 192


 9161              	.LASF74:
 9162 041c 666C6167 		.ascii	"flag_02\000"
 9162      5F303200 
 9163              	.LASF75:
 9164 0424 666C6167 		.ascii	"flag_03\000"
 9164      5F303300 
 9165              	.LASF76:
 9166 042c 666C6167 		.ascii	"flag_04\000"
 9166      5F303400 
 9167              	.LASF77:
 9168 0434 666C6167 		.ascii	"flag_05\000"
 9168      5F303500 
 9169              	.LASF78:
 9170 043c 666C6167 		.ascii	"flag_06\000"
 9170      5F303600 
 9171              	.LASF79:
 9172 0444 666C6167 		.ascii	"flag_07\000"
 9172      5F303700 
 9173              	.LASF62:
 9174 044c 686F7374 		.ascii	"host_e6_data\000"
 9174      5F65365F 
 9174      64617461 
 9174      00
 9175              	.LASF107:
 9176 0459 53756D5F 		.ascii	"Sum_Make_Verify\000"
 9176      4D616B65 
 9176      5F566572 
 9176      69667900 
 9177              	.LASF29:
 9178 0469 73746F70 		.ascii	"stopzs\000"
 9178      7A7300
 9179              	.LASF215:
 9180 0470 436D645F 		.ascii	"Cmd_Function_Num\000"
 9180      46756E63 
 9180      74696F6E 
 9180      5F4E756D 
 9180      00
 9181              	.LASF48:
 9182 0481 7A686973 		.ascii	"zhishui\000"
 9182      68756900 
 9183              	.LASF117:
 9184 0489 55617274 		.ascii	"Uart_0_Putchar\000"
 9184      5F305F50 
 9184      75746368 
 9184      617200
 9185              	.LASF101:
 9186 0498 72616D5F 		.ascii	"ram_tds_in\000"
 9186      7464735F 
 9186      696E00
 9187              	.LASF47:
 9188 04a3 7A69646F 		.ascii	"zidongbysta\000"
 9188      6E676279 
 9188      73746100 
 9189              	.LASF41:
 9190 04af 6C786677 		.ascii	"lxfw\000"
 9190      00
 9191              	.LASF57:
ARM GAS  C:\Users\kevin\AppData\Local\Temp\ccrA27HJ.s 			page 193


 9192 04b4 686F7374 		.ascii	"host_e1_data\000"
 9192      5F65315F 
 9192      64617461 
 9192      00
 9193              	.LASF33:
 9194 04c1 73657474 		.ascii	"settingsta\000"
 9194      696E6773 
 9194      746100
 9195              	.LASF115:
 9196 04cc 76616C75 		.ascii	"value\000"
 9196      6500
 9197              	.LASF172:
 9198 04d2 4E426669 		.ascii	"NBfig\000"
 9198      6700
 9199              	.LASF227:
 9200 04d8 67635444 		.ascii	"gcTDSBOARDCTL\000"
 9200      53424F41 
 9200      52444354 
 9200      4C00
 9201              	.LASF167:
 9202 04e6 42555A66 		.ascii	"BUZfkg\000"
 9202      6B6700
 9203              	.LASF174:
 9204 04ed 576F726B 		.ascii	"WorkFlag\000"
 9204      466C6167 
 9204      00
 9205              	.LASF102:
 9206 04f6 72616D5F 		.ascii	"ram_tds_out\000"
 9206      7464735F 
 9206      6F757400 
 9207              	.LASF205:
 9208 0502 63705365 		.ascii	"cpSendBufPtr\000"
 9208      6E644275 
 9208      66507472 
 9208      00
 9209              	.LASF152:
 9210 050f 486F7374 		.ascii	"Host_E7_Data\000"
 9210      5F45375F 
 9210      44617461 
 9210      00
 9211              	.LASF125:
 9212 051c 4170705F 		.ascii	"App_Host_State\000"
 9212      486F7374 
 9212      5F537461 
 9212      746500
 9213              	.LASF39:
 9214 052b 66617374 		.ascii	"fastfig\000"
 9214      66696700 
 9215              	.LASF147:
 9216 0533 486F7374 		.ascii	"Host_E2_Data\000"
 9216      5F45325F 
 9216      44617461 
 9216      00
 9217              	.LASF161:
 9218 0540 50726F63 		.ascii	"Process_From_Wifi_Ctl_Ack_Data\000"
 9218      6573735F 
 9218      46726F6D 
ARM GAS  C:\Users\kevin\AppData\Local\Temp\ccrA27HJ.s 			page 194


 9218      5F576966 
 9218      695F4374 
 9219              	.LASF233:
 9220 055f 77726974 		.ascii	"write\000"
 9220      6500
 9221              	.LASF212:
 9222 0565 41545265 		.ascii	"ATReceBuffer\000"
 9222      63654275 
 9222      66666572 
 9222      00
 9223              	.LASF71:
 9224 0572 636C6561 		.ascii	"cleaning\000"
 9224      6E696E67 
 9224      00
 9225              	.LASF178:
 9226 057b 4368616E 		.ascii	"Change_Filter\000"
 9226      67655F46 
 9226      696C7465 
 9226      7200
 9227              	.LASF191:
 9228 0589 56616C75 		.ascii	"Value_T\000"
 9228      655F5400 
 9229              	.LASF185:
 9230 0591 46696C74 		.ascii	"Filter_Changed_Num\000"
 9230      65725F43 
 9230      68616E67 
 9230      65645F4E 
 9230      756D00
 9231              	.LASF92:
 9232 05a4 67634154 		.ascii	"gcATReceTdsboardCount\000"
 9232      52656365 
 9232      54647362 
 9232      6F617264 
 9232      436F756E 
 9233              	.LASF175:
 9234 05ba 53656E64 		.ascii	"SendFlag\000"
 9234      466C6167 
 9234      00
 9235              	.LASF222:
 9236 05c3 67695749 		.ascii	"giWIFICommand\000"
 9236      4649436F 
 9236      6D6D616E 
 9236      6400
 9237              	.LASF169:
 9238 05d1 465F4669 		.ascii	"F_Filter_Reset_Data_Buf\000"
 9238      6C746572 
 9238      5F526573 
 9238      65745F44 
 9238      6174615F 
 9239              	.LASF81:
 9240 05e9 67635265 		.ascii	"gcReceComm2OK\000"
 9240      6365436F 
 9240      6D6D324F 
 9240      4B00
 9241              	.LASF197:
 9242 05f7 54445363 		.ascii	"TDScheck2\000"
 9242      6865636B 
ARM GAS  C:\Users\kevin\AppData\Local\Temp\ccrA27HJ.s 			page 195


 9242      3200
 9243              	.LASF198:
 9244 0601 54445363 		.ascii	"TDScheck3\000"
 9244      6865636B 
 9244      3300
 9245              	.LASF14:
 9246 060b 63686172 		.ascii	"char\000"
 9246      00
 9247              	.LASF170:
 9248 0610 4669726D 		.ascii	"Firmware_Version\000"
 9248      77617265 
 9248      5F566572 
 9248      73696F6E 
 9248      00
 9249              	.LASF235:
 9250 0621 4F70656E 		.ascii	"Open_UART_TDS_ISR\000"
 9250      5F554152 
 9250      545F5444 
 9250      535F4953 
 9250      5200
 9251              	.LASF213:
 9252 0633 41545464 		.ascii	"ATTdsReceBuffer\000"
 9252      73526563 
 9252      65427566 
 9252      66657200 
 9253              	.LASF10:
 9254 0643 75696E74 		.ascii	"uint16\000"
 9254      313600
 9255              	.LASF64:
 9256 064a 686F7374 		.ascii	"host_e8_data\000"
 9256      5F65385F 
 9256      64617461 
 9256      00
 9257              	.LASF52:
 9258 0657 6D61696E 		.ascii	"mainmenusta\000"
 9258      6D656E75 
 9258      73746100 
 9259              	.LASF171:
 9260 0663 4669726D 		.ascii	"Firmware_Update\000"
 9260      77617265 
 9260      5F557064 
 9260      61746500 
 9261              	.LASF229:
 9262 0673 6953656E 		.ascii	"iSendCounter\000"
 9262      64436F75 
 9262      6E746572 
 9262      00
 9263              	.LASF37:
 9264 0680 706F7765 		.ascii	"poweroff\000"
 9264      726F6666 
 9264      00
 9265              	.LASF59:
 9266 0689 686F7374 		.ascii	"host_e3_data\000"
 9266      5F65335F 
 9266      64617461 
 9266      00
 9267              	.LASF53:
ARM GAS  C:\Users\kevin\AppData\Local\Temp\ccrA27HJ.s 			page 196


 9268 0696 74657374 		.ascii	"teststa\000"
 9268      73746100 
 9269              	.LASF40:
 9270 069e 6C78787A 		.ascii	"lxxz\000"
 9270      00
 9271              	.LASF238:
 9272 06a3 443A5C77 		.ascii	"D:\\wifi_work\\450B_code\\new_board\\newboard_0601_"
 9272      6966695F 
 9272      776F726B 
 9272      5C343530 
 9272      425F636F 
 9273 06d2 626F6F74 		.ascii	"boot\\UART_Bootloadable.cydsn\000"
 9273      5C554152 
 9273      545F426F 
 9273      6F746C6F 
 9273      61646162 
 9274              	.LASF113:
 9275 06ef 69436F75 		.ascii	"iCount\000"
 9275      6E7400
 9276              	.LASF110:
 9277 06f6 4C6F6164 		.ascii	"LoadTDSBoardData\000"
 9277      54445342 
 9277      6F617264 
 9277      44617461 
 9277      00
 9278              	.LASF208:
 9279 0707 53656E64 		.ascii	"Send_Interval_Counter\000"
 9279      5F496E74 
 9279      65727661 
 9279      6C5F436F 
 9279      756E7465 
 9280              	.LASF6:
 9281 071d 6C6F6E67 		.ascii	"long long int\000"
 9281      206C6F6E 
 9281      6720696E 
 9281      7400
 9282              	.LASF100:
 9283 072b 5464735F 		.ascii	"Tds_Scan_Out\000"
 9283      5363616E 
 9283      5F4F7574 
 9283      00
 9284              	.LASF84:
 9285 0738 75384531 		.ascii	"u8E1Set\000"
 9285      53657400 
 9286              	.LASF216:
 9287 0740 436D645F 		.ascii	"Cmd_Function\000"
 9287      46756E63 
 9287      74696F6E 
 9287      00
 9288              	.LASF154:
 9289 074d 486F7374 		.ascii	"Host_E9_Data\000"
 9289      5F45395F 
 9289      44617461 
 9289      00
 9290              	.LASF210:
 9291 075a 5461625F 		.ascii	"Tab_tds_in_02\000"
 9291      7464735F 
ARM GAS  C:\Users\kevin\AppData\Local\Temp\ccrA27HJ.s 			page 197


 9291      696E5F30 
 9291      3200
 9292              	.LASF186:
 9293 0768 6669726D 		.ascii	"firmwave_update_fig\000"
 9293      77617665 
 9293      5F757064 
 9293      6174655F 
 9293      66696700 
 9294              	.LASF36:
 9295 077c 706F7765 		.ascii	"poweron\000"
 9295      726F6E00 
 9296              	.LASF135:
 9297 0784 4170705F 		.ascii	"App_Download_Filter_Manage_Num\000"
 9297      446F776E 
 9297      6C6F6164 
 9297      5F46696C 
 9297      7465725F 
 9298              	.LASF95:
 9299 07a3 75617274 		.ascii	"uart_ack\000"
 9299      5F61636B 
 9299      00
 9300              	.LASF189:
 9301 07ac 56616C75 		.ascii	"Value_Tds1_bak\000"
 9301      655F5464 
 9301      73315F62 
 9301      616B00
 9302              	.LASF149:
 9303 07bb 486F7374 		.ascii	"Host_E4_Data\000"
 9303      5F45345F 
 9303      44617461 
 9303      00
 9304              	.LASF34:
 9305 07c8 61637469 		.ascii	"activation\000"
 9305      76617469 
 9305      6F6E00
 9306              	.LASF230:
 9307 07d3 54657374 		.ascii	"TestPort_Write\000"
 9307      506F7274 
 9307      5F577269 
 9307      746500
 9308              	.LASF231:
 9309 07e2 6D656D73 		.ascii	"memset\000"
 9309      657400
 9310              	.LASF116:
 9311 07e9 436F6D6D 		.ascii	"Comm_Uart_1_PrintHex8\000"
 9311      5F556172 
 9311      745F315F 
 9311      5072696E 
 9311      74486578 
 9312              	.LASF158:
 9313 07ff 55617274 		.ascii	"Uart_1_Putchar\000"
 9313      5F315F50 
 9313      75746368 
 9313      617200
 9314              	.LASF192:
 9315 080e 56616C75 		.ascii	"Value_Flow\000"
 9315      655F466C 
ARM GAS  C:\Users\kevin\AppData\Local\Temp\ccrA27HJ.s 			page 198


 9315      6F7700
 9316              	.LASF11:
 9317 0819 75696E74 		.ascii	"uint32\000"
 9317      333200
 9318              	.LASF43:
 9319 0820 6C78787A 		.ascii	"lxxzwf\000"
 9319      776600
 9320              	.LASF50:
 9321 0827 75617274 		.ascii	"uart_0_tx\000"
 9321      5F305F74 
 9321      7800
 9322              	.LASF130:
 9323 0831 57696669 		.ascii	"Wifi_Senddingstate_Data\000"
 9323      5F53656E 
 9323      6464696E 
 9323      67737461 
 9323      74655F44 
 9324              	.LASF106:
 9325 0849 56657269 		.ascii	"Verify\000"
 9325      667900
 9326              	.LASF176:
 9327 0850 53776974 		.ascii	"Switch_Data\000"
 9327      63685F44 
 9327      61746100 
 9328              	.LASF225:
 9329 085c 67695444 		.ascii	"giTDSBOARDCommand\000"
 9329      53424F41 
 9329      5244436F 
 9329      6D6D616E 
 9329      6400
 9330              	.LASF209:
 9331 086e 5461625F 		.ascii	"Tab_tds_in_01\000"
 9331      7464735F 
 9331      696E5F30 
 9331      3100
 9332              	.LASF217:
 9333 087c 436D645F 		.ascii	"Cmd_Function_Buf\000"
 9333      46756E63 
 9333      74696F6E 
 9333      5F427566 
 9333      00
 9334              	.LASF183:
 9335 088d 46696C74 		.ascii	"Filter_Full_Data_Buf\000"
 9335      65725F46 
 9335      756C6C5F 
 9335      44617461 
 9335      5F427566 
 9336              	.LASF46:
 9337 08a2 73686F75 		.ascii	"shoucibysta\000"
 9337      63696279 
 9337      73746100 
 9338              	.LASF163:
 9339 08ae 50726F63 		.ascii	"Process_From_Wifi_Ack_Data\000"
 9339      6573735F 
 9339      46726F6D 
 9339      5F576966 
 9339      695F4163 
ARM GAS  C:\Users\kevin\AppData\Local\Temp\ccrA27HJ.s 			page 199


 9340              	.LASF61:
 9341 08c9 686F7374 		.ascii	"host_e5_data\000"
 9341      5F65355F 
 9341      64617461 
 9341      00
 9342              	.LASF15:
 9343 08d6 72656733 		.ascii	"reg32\000"
 9343      3200
 9344              	.LASF123:
 9345 08dc 63427566 		.ascii	"cBuf\000"
 9345      00
 9346              	.LASF56:
 9347 08e1 686F7374 		.ascii	"host_e0_data\000"
 9347      5F65305F 
 9347      64617461 
 9347      00
 9348              	.LASF86:
 9349 08ee 75384533 		.ascii	"u8E3Set\000"
 9349      53657400 
 9350              	.LASF187:
 9351 08f6 56616C75 		.ascii	"Value_Tds0\000"
 9351      655F5464 
 9351      733000
 9352              	.LASF188:
 9353 0901 56616C75 		.ascii	"Value_Tds1\000"
 9353      655F5464 
 9353      733100
 9354              	.LASF35:
 9355 090c 6B756169 		.ascii	"kuaijiansta\000"
 9355      6A69616E 
 9355      73746100 
 9356              	.LASF156:
 9357 0918 69636F6D 		.ascii	"icommand\000"
 9357      6D616E64 
 9357      00
 9358              	.LASF2:
 9359 0921 73686F72 		.ascii	"short int\000"
 9359      7420696E 
 9359      7400
 9360              	.LASF105:
 9361 092b 50427566 		.ascii	"PBuf\000"
 9361      00
 9362              	.LASF182:
 9363 0930 5464735F 		.ascii	"Tds_Ack_Timer\000"
 9363      41636B5F 
 9363      54696D65 
 9363      7200
 9364              	.LASF4:
 9365 093e 6C6F6E67 		.ascii	"long int\000"
 9365      20696E74 
 9365      00
 9366              	.LASF140:
 9367 0947 436C6561 		.ascii	"Clean_All_User_Bound\000"
 9367      6E5F416C 
 9367      6C5F5573 
 9367      65725F42 
 9367      6F756E64 
ARM GAS  C:\Users\kevin\AppData\Local\Temp\ccrA27HJ.s 			page 200


 9368              	.LASF120:
 9369 095c 63436F6D 		.ascii	"cCommand\000"
 9369      6D616E64 
 9369      00
 9370              	.LASF132:
 9371 0965 57696669 		.ascii	"Wifi_Dect_Data\000"
 9371      5F446563 
 9371      745F4461 
 9371      746100
 9372              	.LASF96:
 9373 0974 666C6167 		.ascii	"flag_Uart_Work\000"
 9373      5F556172 
 9373      745F576F 
 9373      726B00
 9374              	.LASF151:
 9375 0983 486F7374 		.ascii	"Host_E6_Data\000"
 9375      5F45365F 
 9375      44617461 
 9375      00
 9376              	.LASF88:
 9377 0990 67634154 		.ascii	"gcATReceCount\000"
 9377      52656365 
 9377      436F756E 
 9377      7400
 9378              	.LASF68:
 9379 099e 7374616E 		.ascii	"standby_mode\000"
 9379      6462795F 
 9379      6D6F6465 
 9379      00
 9380              	.LASF146:
 9381 09ab 486F7374 		.ascii	"Host_E1_Data\000"
 9381      5F45315F 
 9381      44617461 
 9381      00
 9382              	.LASF112:
 9383 09b8 64617461 		.ascii	"data_buf\000"
 9383      5F627566 
 9383      00
 9384              	.LASF214:
 9385 09c1 57696669 		.ascii	"WifidatagramWorkFlag\000"
 9385      64617461 
 9385      6772616D 
 9385      576F726B 
 9385      466C6167 
 9386              	.LASF168:
 9387 09d6 506F7765 		.ascii	"Power_Buzfkg\000"
 9387      725F4275 
 9387      7A666B67 
 9387      00
 9388              	.LASF228:
 9389 09e3 69556172 		.ascii	"iUartSendLen\000"
 9389      7453656E 
 9389      644C656E 
 9389      00
 9390              	.LASF133:
 9391 09f0 57696669 		.ascii	"Wifi_Firmware_Update_Data\000"
 9391      5F466972 
ARM GAS  C:\Users\kevin\AppData\Local\Temp\ccrA27HJ.s 			page 201


 9391      6D776172 
 9391      655F5570 
 9391      64617465 
 9392              	.LASF126:
 9393 0a0a 4170705F 		.ascii	"App_Filter_Changed_Data\000"
 9393      46696C74 
 9393      65725F43 
 9393      68616E67 
 9393      65645F44 
 9394              	.LASF45:
 9395 0a22 7A696A69 		.ascii	"zijiansta\000"
 9395      616E7374 
 9395      6100
 9396              	.LASF138:
 9397 0a2c 4170705F 		.ascii	"App_Poweroff\000"
 9397      506F7765 
 9397      726F6666 
 9397      00
 9398              	.LASF195:
 9399 0a39 57696669 		.ascii	"WifiWorkFlag\000"
 9399      576F726B 
 9399      466C6167 
 9399      00
 9400              	.LASF16:
 9401 0a46 73697A65 		.ascii	"sizetype\000"
 9401      74797065 
 9401      00
 9402              	.LASF87:
 9403 0a4f 67634154 		.ascii	"gcATReceData\000"
 9403      52656365 
 9403      44617461 
 9403      00
 9404              	.LASF5:
 9405 0a5c 6C6F6E67 		.ascii	"long unsigned int\000"
 9405      20756E73 
 9405      69676E65 
 9405      6420696E 
 9405      7400
 9406              	.LASF128:
 9407 0a6e 4170705F 		.ascii	"App_Filter_Used_Time_Data\000"
 9407      46696C74 
 9407      65725F55 
 9407      7365645F 
 9407      54696D65 
 9408              	.LASF164:
 9409 0a88 50726F63 		.ascii	"Process_From_Tdsboard_Data\000"
 9409      6573735F 
 9409      46726F6D 
 9409      5F546473 
 9409      626F6172 
 9410              	.LASF91:
 9411 0aa3 67634154 		.ascii	"gcATReceTdsboardData\000"
 9411      52656365 
 9411      54647362 
 9411      6F617264 
 9411      44617461 
 9412              	.LASF70:
ARM GAS  C:\Users\kevin\AppData\Local\Temp\ccrA27HJ.s 			page 202


 9413 0ab8 776F726B 		.ascii	"worked\000"
 9413      656400
 9414              	.LASF58:
 9415 0abf 686F7374 		.ascii	"host_e2_data\000"
 9415      5F65325F 
 9415      64617461 
 9415      00
 9416              	.LASF144:
 9417 0acc 486F7374 		.ascii	"Host_Filter_Used_Time_Data\000"
 9417      5F46696C 
 9417      7465725F 
 9417      55736564 
 9417      5F54696D 
 9418              	.LASF44:
 9419 0ae7 77696669 		.ascii	"wifiset\000"
 9419      73657400 
 9420              	.LASF139:
 9421 0aef 4D63755F 		.ascii	"Mcu_Poweronsmartlink_Data\000"
 9421      506F7765 
 9421      726F6E73 
 9421      6D617274 
 9421      6C696E6B 
 9422              	.LASF111:
 9423 0b09 55415254 		.ascii	"UART_SendData\000"
 9423      5F53656E 
 9423      64446174 
 9423      6100
 9424              	.LASF1:
 9425 0b17 756E7369 		.ascii	"unsigned char\000"
 9425      676E6564 
 9425      20636861 
 9425      7200
 9426              	.LASF131:
 9427 0b25 57696669 		.ascii	"Wifi_Firmware_Handshake_Data\000"
 9427      5F466972 
 9427      6D776172 
 9427      655F4861 
 9427      6E647368 
 9428              	.LASF190:
 9429 0b42 56616C75 		.ascii	"Value_Loushui_Ad\000"
 9429      655F4C6F 
 9429      75736875 
 9429      695F4164 
 9429      00
 9430              	.LASF201:
 9431 0b53 7538536D 		.ascii	"u8SmartLinkState\000"
 9431      6172744C 
 9431      696E6B53 
 9431      74617465 
 9431      00
 9432              	.LASF226:
 9433 0b64 67695444 		.ascii	"giTDSBOARDDATALength\000"
 9433      53424F41 
 9433      52444441 
 9433      54414C65 
 9433      6E677468 
 9434              	.LASF165:
ARM GAS  C:\Users\kevin\AppData\Local\Temp\ccrA27HJ.s 			page 203


 9435 0b79 4572726F 		.ascii	"Error_Send\000"
 9435      725F5365 
 9435      6E6400
 9436              	.LASF98:
 9437 0b84 72616D5F 		.ascii	"ram_tds_in_disp\000"
 9437      7464735F 
 9437      696E5F64 
 9437      69737000 
 9438              	.LASF38:
 9439 0b94 7374616E 		.ascii	"standbysta\000"
 9439      64627973 
 9439      746100
 9440              	.LASF202:
 9441 0b9f 41636B5F 		.ascii	"Ack_Timer\000"
 9441      54696D65 
 9441      7200
 9442              	.LASF148:
 9443 0ba9 486F7374 		.ascii	"Host_E3_Data\000"
 9443      5F45335F 
 9443      44617461 
 9443      00
 9444              	.LASF180:
 9445 0bb6 4C69616E 		.ascii	"LianXuJiShi\000"
 9445      58754A69 
 9445      53686900 
 9446              	.LASF63:
 9447 0bc2 686F7374 		.ascii	"host_e7_data\000"
 9447      5F65375F 
 9447      64617461 
 9447      00
 9448              	.LASF122:
 9449 0bcf 694C656E 		.ascii	"iLength\000"
 9449      67746800 
 9450              	.LASF0:
 9451 0bd7 7369676E 		.ascii	"signed char\000"
 9451      65642063 
 9451      68617200 
 9452              	.LASF3:
 9453 0be3 73686F72 		.ascii	"short unsigned int\000"
 9453      7420756E 
 9453      7369676E 
 9453      65642069 
 9453      6E7400
 9454              	.LASF219:
 9455 0bf6 67635769 		.ascii	"gcWifiCommunState\000"
 9455      6669436F 
 9455      6D6D756E 
 9455      53746174 
 9455      6500
 9456              	.LASF83:
 9457 0c08 75384530 		.ascii	"u8E0Set\000"
 9457      53657400 
 9458              	.LASF232:
 9459 0c10 6D656D63 		.ascii	"memcpy\000"
 9459      707900
 9460              	.LASF218:
 9461 0c17 4572726F 		.ascii	"Error_Data_Buf\000"
ARM GAS  C:\Users\kevin\AppData\Local\Temp\ccrA27HJ.s 			page 204


 9461      725F4461 
 9461      74615F42 
 9461      756600
 9462              	.LASF166:
 9463 0c26 50726F63 		.ascii	"Process_From_Wifi_Data\000"
 9463      6573735F 
 9463      46726F6D 
 9463      5F576966 
 9463      695F4461 
 9464              	.LASF177:
 9465 0c3d 576F726B 		.ascii	"Work_State\000"
 9465      5F537461 
 9465      746500
 9466              	.LASF9:
 9467 0c48 75696E74 		.ascii	"uint8\000"
 9467      3800
 9468              	.LASF13:
 9469 0c4e 646F7562 		.ascii	"double\000"
 9469      6C6500
 9470              	.LASF173:
 9471 0c55 4572726F 		.ascii	"ErrorFlag\000"
 9471      72466C61 
 9471      6700
 9472              	.LASF221:
 9473 0c5f 4672616D 		.ascii	"Frame_Num\000"
 9473      655F4E75 
 9473      6D00
 9474              	.LASF160:
 9475 0c69 53656E64 		.ascii	"Send_To_WifiUart\000"
 9475      5F546F5F 
 9475      57696669 
 9475      55617274 
 9475      00
 9476              	.LASF184:
 9477 0c7a 46696C74 		.ascii	"Filter_Reset_Data_Buf\000"
 9477      65725F52 
 9477      65736574 
 9477      5F446174 
 9477      615F4275 
 9478              	.LASF99:
 9479 0c90 5464735F 		.ascii	"Tds_Scan_In\000"
 9479      5363616E 
 9479      5F496E00 
 9480              	.LASF137:
 9481 0c9c 4170705F 		.ascii	"App_Poweron\000"
 9481      506F7765 
 9481      726F6E00 
 9482              	.LASF153:
 9483 0ca8 486F7374 		.ascii	"Host_E8_Data\000"
 9483      5F45385F 
 9483      44617461 
 9483      00
 9484              	.LASF119:
 9485 0cb5 6343746C 		.ascii	"cCtl\000"
 9485      00
 9486              	.LASF89:
 9487 0cba 42756666 		.ascii	"Buffer0\000"
ARM GAS  C:\Users\kevin\AppData\Local\Temp\ccrA27HJ.s 			page 205


 9487      65723000 
 9488              	.LASF90:
 9489 0cc2 42756666 		.ascii	"Buffer1\000"
 9489      65723100 
 9490              	.LASF66:
 9491 0cca 67616F79 		.ascii	"gaoya_flag\000"
 9491      615F666C 
 9491      616700
 9492              	.LASF162:
 9493 0cd5 50726F63 		.ascii	"Process_From_Wifi_Noa_Data\000"
 9493      6573735F 
 9493      46726F6D 
 9493      5F576966 
 9493      695F4E6F 
 9494              		.ident	"GCC: (GNU Tools for ARM Embedded Processors) 4.8.4 20140526 (release) [ARM/embedded-4_8-br
