ARM GAS  C:\Users\kevin\AppData\Local\Temp\ccOGcmZK.s 			page 1


   1              		.cpu cortex-m0
   2              		.fpu softvfp
   3              		.eabi_attribute 20, 1
   4              		.eabi_attribute 21, 1
   5              		.eabi_attribute 23, 3
   6              		.eabi_attribute 24, 1
   7              		.eabi_attribute 25, 1
   8              		.eabi_attribute 26, 1
   9              		.eabi_attribute 30, 4
  10              		.eabi_attribute 34, 0
  11              		.eabi_attribute 18, 4
  12              		.code	16
  13              		.file	"V24_IN_ISR.c"
  14              		.text
  15              	.Ltext0:
  16              		.cfi_sections	.debug_frame
  17              		.section	.text.V24_IN_ISR_Interrupt,"ax",%progbits
  18              		.align	1
  19              		.global	V24_IN_ISR_Interrupt
  20              		.code	16
  21              		.thumb_func
  22              		.type	V24_IN_ISR_Interrupt, %function
  23              	V24_IN_ISR_Interrupt:
  24              	.LFB3:
  25              		.file 1 ".\\Generated_Source\\PSoC4\\V24_IN_ISR.c"
   1:.\Generated_Source\PSoC4/V24_IN_ISR.c **** /*******************************************************************************
   2:.\Generated_Source\PSoC4/V24_IN_ISR.c **** * File Name: V24_IN_ISR.c  
   3:.\Generated_Source\PSoC4/V24_IN_ISR.c **** * Version 1.70
   4:.\Generated_Source\PSoC4/V24_IN_ISR.c **** *
   5:.\Generated_Source\PSoC4/V24_IN_ISR.c **** *  Description:
   6:.\Generated_Source\PSoC4/V24_IN_ISR.c **** *   API for controlling the state of an interrupt.
   7:.\Generated_Source\PSoC4/V24_IN_ISR.c **** *
   8:.\Generated_Source\PSoC4/V24_IN_ISR.c **** *
   9:.\Generated_Source\PSoC4/V24_IN_ISR.c **** *  Note:
  10:.\Generated_Source\PSoC4/V24_IN_ISR.c **** *
  11:.\Generated_Source\PSoC4/V24_IN_ISR.c **** ********************************************************************************
  12:.\Generated_Source\PSoC4/V24_IN_ISR.c **** * Copyright 2008-2012, Cypress Semiconductor Corporation.  All rights reserved.
  13:.\Generated_Source\PSoC4/V24_IN_ISR.c **** * You may use this file only in accordance with the license, terms, conditions, 
  14:.\Generated_Source\PSoC4/V24_IN_ISR.c **** * disclaimers, and limitations in the end user license agreement accompanying 
  15:.\Generated_Source\PSoC4/V24_IN_ISR.c **** * the software package with which this file was provided.
  16:.\Generated_Source\PSoC4/V24_IN_ISR.c **** *******************************************************************************/
  17:.\Generated_Source\PSoC4/V24_IN_ISR.c **** 
  18:.\Generated_Source\PSoC4/V24_IN_ISR.c **** 
  19:.\Generated_Source\PSoC4/V24_IN_ISR.c **** #include <cydevice_trm.h>
  20:.\Generated_Source\PSoC4/V24_IN_ISR.c **** #include <CyLib.h>
  21:.\Generated_Source\PSoC4/V24_IN_ISR.c **** #include <V24_IN_ISR.h>
  22:.\Generated_Source\PSoC4/V24_IN_ISR.c **** 
  23:.\Generated_Source\PSoC4/V24_IN_ISR.c **** #if !defined(V24_IN_ISR__REMOVED) /* Check for removal by optimization */
  24:.\Generated_Source\PSoC4/V24_IN_ISR.c **** 
  25:.\Generated_Source\PSoC4/V24_IN_ISR.c **** /*******************************************************************************
  26:.\Generated_Source\PSoC4/V24_IN_ISR.c **** *  Place your includes, defines and code here 
  27:.\Generated_Source\PSoC4/V24_IN_ISR.c **** ********************************************************************************/
  28:.\Generated_Source\PSoC4/V24_IN_ISR.c **** /* `#START V24_IN_ISR_intc` */
  29:.\Generated_Source\PSoC4/V24_IN_ISR.c **** 
  30:.\Generated_Source\PSoC4/V24_IN_ISR.c **** /* `#END` */
  31:.\Generated_Source\PSoC4/V24_IN_ISR.c **** 
  32:.\Generated_Source\PSoC4/V24_IN_ISR.c **** extern cyisraddress CyRamVectors[CYINT_IRQ_BASE + CY_NUM_INTERRUPTS];
ARM GAS  C:\Users\kevin\AppData\Local\Temp\ccOGcmZK.s 			page 2


  33:.\Generated_Source\PSoC4/V24_IN_ISR.c **** 
  34:.\Generated_Source\PSoC4/V24_IN_ISR.c **** /* Declared in startup, used to set unused interrupts to. */
  35:.\Generated_Source\PSoC4/V24_IN_ISR.c **** CY_ISR_PROTO(IntDefaultHandler);
  36:.\Generated_Source\PSoC4/V24_IN_ISR.c **** 
  37:.\Generated_Source\PSoC4/V24_IN_ISR.c **** 
  38:.\Generated_Source\PSoC4/V24_IN_ISR.c **** /*******************************************************************************
  39:.\Generated_Source\PSoC4/V24_IN_ISR.c **** * Function Name: V24_IN_ISR_Start
  40:.\Generated_Source\PSoC4/V24_IN_ISR.c **** ********************************************************************************
  41:.\Generated_Source\PSoC4/V24_IN_ISR.c **** *
  42:.\Generated_Source\PSoC4/V24_IN_ISR.c **** * Summary:
  43:.\Generated_Source\PSoC4/V24_IN_ISR.c **** *  Set up the interrupt and enable it.
  44:.\Generated_Source\PSoC4/V24_IN_ISR.c **** *
  45:.\Generated_Source\PSoC4/V24_IN_ISR.c **** * Parameters:  
  46:.\Generated_Source\PSoC4/V24_IN_ISR.c **** *   None
  47:.\Generated_Source\PSoC4/V24_IN_ISR.c **** *
  48:.\Generated_Source\PSoC4/V24_IN_ISR.c **** * Return:
  49:.\Generated_Source\PSoC4/V24_IN_ISR.c **** *   None
  50:.\Generated_Source\PSoC4/V24_IN_ISR.c **** *
  51:.\Generated_Source\PSoC4/V24_IN_ISR.c **** *******************************************************************************/
  52:.\Generated_Source\PSoC4/V24_IN_ISR.c **** void V24_IN_ISR_Start(void)
  53:.\Generated_Source\PSoC4/V24_IN_ISR.c **** {
  54:.\Generated_Source\PSoC4/V24_IN_ISR.c ****     /* For all we know the interrupt is active. */
  55:.\Generated_Source\PSoC4/V24_IN_ISR.c ****     V24_IN_ISR_Disable();
  56:.\Generated_Source\PSoC4/V24_IN_ISR.c **** 
  57:.\Generated_Source\PSoC4/V24_IN_ISR.c ****     /* Set the ISR to point to the V24_IN_ISR Interrupt. */
  58:.\Generated_Source\PSoC4/V24_IN_ISR.c ****     V24_IN_ISR_SetVector(&V24_IN_ISR_Interrupt);
  59:.\Generated_Source\PSoC4/V24_IN_ISR.c **** 
  60:.\Generated_Source\PSoC4/V24_IN_ISR.c ****     /* Set the priority. */
  61:.\Generated_Source\PSoC4/V24_IN_ISR.c ****     V24_IN_ISR_SetPriority((uint8)V24_IN_ISR_INTC_PRIOR_NUMBER);
  62:.\Generated_Source\PSoC4/V24_IN_ISR.c **** 
  63:.\Generated_Source\PSoC4/V24_IN_ISR.c ****     /* Enable it. */
  64:.\Generated_Source\PSoC4/V24_IN_ISR.c ****     V24_IN_ISR_Enable();
  65:.\Generated_Source\PSoC4/V24_IN_ISR.c **** }
  66:.\Generated_Source\PSoC4/V24_IN_ISR.c **** 
  67:.\Generated_Source\PSoC4/V24_IN_ISR.c **** 
  68:.\Generated_Source\PSoC4/V24_IN_ISR.c **** /*******************************************************************************
  69:.\Generated_Source\PSoC4/V24_IN_ISR.c **** * Function Name: V24_IN_ISR_StartEx
  70:.\Generated_Source\PSoC4/V24_IN_ISR.c **** ********************************************************************************
  71:.\Generated_Source\PSoC4/V24_IN_ISR.c **** *
  72:.\Generated_Source\PSoC4/V24_IN_ISR.c **** * Summary:
  73:.\Generated_Source\PSoC4/V24_IN_ISR.c **** *  Set up the interrupt and enable it.
  74:.\Generated_Source\PSoC4/V24_IN_ISR.c **** *
  75:.\Generated_Source\PSoC4/V24_IN_ISR.c **** * Parameters:  
  76:.\Generated_Source\PSoC4/V24_IN_ISR.c **** *   address: Address of the ISR to set in the interrupt vector table.
  77:.\Generated_Source\PSoC4/V24_IN_ISR.c **** *
  78:.\Generated_Source\PSoC4/V24_IN_ISR.c **** * Return:
  79:.\Generated_Source\PSoC4/V24_IN_ISR.c **** *   None
  80:.\Generated_Source\PSoC4/V24_IN_ISR.c **** *
  81:.\Generated_Source\PSoC4/V24_IN_ISR.c **** *******************************************************************************/
  82:.\Generated_Source\PSoC4/V24_IN_ISR.c **** void V24_IN_ISR_StartEx(cyisraddress address)
  83:.\Generated_Source\PSoC4/V24_IN_ISR.c **** {
  84:.\Generated_Source\PSoC4/V24_IN_ISR.c ****     /* For all we know the interrupt is active. */
  85:.\Generated_Source\PSoC4/V24_IN_ISR.c ****     V24_IN_ISR_Disable();
  86:.\Generated_Source\PSoC4/V24_IN_ISR.c **** 
  87:.\Generated_Source\PSoC4/V24_IN_ISR.c ****     /* Set the ISR to point to the V24_IN_ISR Interrupt. */
  88:.\Generated_Source\PSoC4/V24_IN_ISR.c ****     V24_IN_ISR_SetVector(address);
  89:.\Generated_Source\PSoC4/V24_IN_ISR.c **** 
ARM GAS  C:\Users\kevin\AppData\Local\Temp\ccOGcmZK.s 			page 3


  90:.\Generated_Source\PSoC4/V24_IN_ISR.c ****     /* Set the priority. */
  91:.\Generated_Source\PSoC4/V24_IN_ISR.c ****     V24_IN_ISR_SetPriority((uint8)V24_IN_ISR_INTC_PRIOR_NUMBER);
  92:.\Generated_Source\PSoC4/V24_IN_ISR.c **** 
  93:.\Generated_Source\PSoC4/V24_IN_ISR.c ****     /* Enable it. */
  94:.\Generated_Source\PSoC4/V24_IN_ISR.c ****     V24_IN_ISR_Enable();
  95:.\Generated_Source\PSoC4/V24_IN_ISR.c **** }
  96:.\Generated_Source\PSoC4/V24_IN_ISR.c **** 
  97:.\Generated_Source\PSoC4/V24_IN_ISR.c **** 
  98:.\Generated_Source\PSoC4/V24_IN_ISR.c **** /*******************************************************************************
  99:.\Generated_Source\PSoC4/V24_IN_ISR.c **** * Function Name: V24_IN_ISR_Stop
 100:.\Generated_Source\PSoC4/V24_IN_ISR.c **** ********************************************************************************
 101:.\Generated_Source\PSoC4/V24_IN_ISR.c **** *
 102:.\Generated_Source\PSoC4/V24_IN_ISR.c **** * Summary:
 103:.\Generated_Source\PSoC4/V24_IN_ISR.c **** *   Disables and removes the interrupt.
 104:.\Generated_Source\PSoC4/V24_IN_ISR.c **** *
 105:.\Generated_Source\PSoC4/V24_IN_ISR.c **** * Parameters:  
 106:.\Generated_Source\PSoC4/V24_IN_ISR.c **** *
 107:.\Generated_Source\PSoC4/V24_IN_ISR.c **** * Return:
 108:.\Generated_Source\PSoC4/V24_IN_ISR.c **** *   None
 109:.\Generated_Source\PSoC4/V24_IN_ISR.c **** *
 110:.\Generated_Source\PSoC4/V24_IN_ISR.c **** *******************************************************************************/
 111:.\Generated_Source\PSoC4/V24_IN_ISR.c **** void V24_IN_ISR_Stop(void)
 112:.\Generated_Source\PSoC4/V24_IN_ISR.c **** {
 113:.\Generated_Source\PSoC4/V24_IN_ISR.c ****     /* Disable this interrupt. */
 114:.\Generated_Source\PSoC4/V24_IN_ISR.c ****     V24_IN_ISR_Disable();
 115:.\Generated_Source\PSoC4/V24_IN_ISR.c **** 
 116:.\Generated_Source\PSoC4/V24_IN_ISR.c ****     /* Set the ISR to point to the passive one. */
 117:.\Generated_Source\PSoC4/V24_IN_ISR.c ****     V24_IN_ISR_SetVector(&IntDefaultHandler);
 118:.\Generated_Source\PSoC4/V24_IN_ISR.c **** }
 119:.\Generated_Source\PSoC4/V24_IN_ISR.c **** 
 120:.\Generated_Source\PSoC4/V24_IN_ISR.c **** 
 121:.\Generated_Source\PSoC4/V24_IN_ISR.c **** /*******************************************************************************
 122:.\Generated_Source\PSoC4/V24_IN_ISR.c **** * Function Name: V24_IN_ISR_Interrupt
 123:.\Generated_Source\PSoC4/V24_IN_ISR.c **** ********************************************************************************
 124:.\Generated_Source\PSoC4/V24_IN_ISR.c **** *
 125:.\Generated_Source\PSoC4/V24_IN_ISR.c **** * Summary:
 126:.\Generated_Source\PSoC4/V24_IN_ISR.c **** *   The default Interrupt Service Routine for V24_IN_ISR.
 127:.\Generated_Source\PSoC4/V24_IN_ISR.c **** *
 128:.\Generated_Source\PSoC4/V24_IN_ISR.c **** *   Add custom code between the coments to keep the next version of this file
 129:.\Generated_Source\PSoC4/V24_IN_ISR.c **** *   from over writting your code.
 130:.\Generated_Source\PSoC4/V24_IN_ISR.c **** *
 131:.\Generated_Source\PSoC4/V24_IN_ISR.c **** * Parameters:  
 132:.\Generated_Source\PSoC4/V24_IN_ISR.c **** *   None
 133:.\Generated_Source\PSoC4/V24_IN_ISR.c **** *
 134:.\Generated_Source\PSoC4/V24_IN_ISR.c **** * Return:
 135:.\Generated_Source\PSoC4/V24_IN_ISR.c **** *   None
 136:.\Generated_Source\PSoC4/V24_IN_ISR.c **** *
 137:.\Generated_Source\PSoC4/V24_IN_ISR.c **** *******************************************************************************/
 138:.\Generated_Source\PSoC4/V24_IN_ISR.c **** CY_ISR(V24_IN_ISR_Interrupt)
 139:.\Generated_Source\PSoC4/V24_IN_ISR.c **** {
  26              		.loc 1 139 0
  27              		.cfi_startproc
 140:.\Generated_Source\PSoC4/V24_IN_ISR.c ****     /*  Place your Interrupt code here. */
 141:.\Generated_Source\PSoC4/V24_IN_ISR.c ****     /* `#START V24_IN_ISR_Interrupt` */
 142:.\Generated_Source\PSoC4/V24_IN_ISR.c **** 
 143:.\Generated_Source\PSoC4/V24_IN_ISR.c ****     /* `#END` */
 144:.\Generated_Source\PSoC4/V24_IN_ISR.c **** }
ARM GAS  C:\Users\kevin\AppData\Local\Temp\ccOGcmZK.s 			page 4


  28              		.loc 1 144 0
  29              		@ sp needed
  30 0000 7047     		bx	lr
  31              		.cfi_endproc
  32              	.LFE3:
  33              		.size	V24_IN_ISR_Interrupt, .-V24_IN_ISR_Interrupt
  34              		.section	.text.V24_IN_ISR_Stop,"ax",%progbits
  35              		.align	1
  36              		.global	V24_IN_ISR_Stop
  37              		.code	16
  38              		.thumb_func
  39              		.type	V24_IN_ISR_Stop, %function
  40              	V24_IN_ISR_Stop:
  41              	.LFB2:
 112:.\Generated_Source\PSoC4/V24_IN_ISR.c **** {
  42              		.loc 1 112 0
  43              		.cfi_startproc
  44              	.LBB18:
  45              	.LBB19:
 145:.\Generated_Source\PSoC4/V24_IN_ISR.c **** 
 146:.\Generated_Source\PSoC4/V24_IN_ISR.c **** 
 147:.\Generated_Source\PSoC4/V24_IN_ISR.c **** /*******************************************************************************
 148:.\Generated_Source\PSoC4/V24_IN_ISR.c **** * Function Name: V24_IN_ISR_SetVector
 149:.\Generated_Source\PSoC4/V24_IN_ISR.c **** ********************************************************************************
 150:.\Generated_Source\PSoC4/V24_IN_ISR.c **** *
 151:.\Generated_Source\PSoC4/V24_IN_ISR.c **** * Summary:
 152:.\Generated_Source\PSoC4/V24_IN_ISR.c **** *   Change the ISR vector for the Interrupt. Note calling V24_IN_ISR_Start
 153:.\Generated_Source\PSoC4/V24_IN_ISR.c **** *   will override any effect this method would have had. To set the vector 
 154:.\Generated_Source\PSoC4/V24_IN_ISR.c **** *   before the component has been started use V24_IN_ISR_StartEx instead.
 155:.\Generated_Source\PSoC4/V24_IN_ISR.c **** *
 156:.\Generated_Source\PSoC4/V24_IN_ISR.c **** * Parameters:
 157:.\Generated_Source\PSoC4/V24_IN_ISR.c **** *   address: Address of the ISR to set in the interrupt vector table.
 158:.\Generated_Source\PSoC4/V24_IN_ISR.c **** *
 159:.\Generated_Source\PSoC4/V24_IN_ISR.c **** * Return:
 160:.\Generated_Source\PSoC4/V24_IN_ISR.c **** *   None
 161:.\Generated_Source\PSoC4/V24_IN_ISR.c **** *
 162:.\Generated_Source\PSoC4/V24_IN_ISR.c **** *******************************************************************************/
 163:.\Generated_Source\PSoC4/V24_IN_ISR.c **** void V24_IN_ISR_SetVector(cyisraddress address)
 164:.\Generated_Source\PSoC4/V24_IN_ISR.c **** {
 165:.\Generated_Source\PSoC4/V24_IN_ISR.c ****     CyRamVectors[CYINT_IRQ_BASE + V24_IN_ISR__INTC_NUMBER] = address;
 166:.\Generated_Source\PSoC4/V24_IN_ISR.c **** }
 167:.\Generated_Source\PSoC4/V24_IN_ISR.c **** 
 168:.\Generated_Source\PSoC4/V24_IN_ISR.c **** 
 169:.\Generated_Source\PSoC4/V24_IN_ISR.c **** /*******************************************************************************
 170:.\Generated_Source\PSoC4/V24_IN_ISR.c **** * Function Name: V24_IN_ISR_GetVector
 171:.\Generated_Source\PSoC4/V24_IN_ISR.c **** ********************************************************************************
 172:.\Generated_Source\PSoC4/V24_IN_ISR.c **** *
 173:.\Generated_Source\PSoC4/V24_IN_ISR.c **** * Summary:
 174:.\Generated_Source\PSoC4/V24_IN_ISR.c **** *   Gets the "address" of the current ISR vector for the Interrupt.
 175:.\Generated_Source\PSoC4/V24_IN_ISR.c **** *
 176:.\Generated_Source\PSoC4/V24_IN_ISR.c **** * Parameters:
 177:.\Generated_Source\PSoC4/V24_IN_ISR.c **** *   None
 178:.\Generated_Source\PSoC4/V24_IN_ISR.c **** *
 179:.\Generated_Source\PSoC4/V24_IN_ISR.c **** * Return:
 180:.\Generated_Source\PSoC4/V24_IN_ISR.c **** *   Address of the ISR in the interrupt vector table.
 181:.\Generated_Source\PSoC4/V24_IN_ISR.c **** *
 182:.\Generated_Source\PSoC4/V24_IN_ISR.c **** *******************************************************************************/
ARM GAS  C:\Users\kevin\AppData\Local\Temp\ccOGcmZK.s 			page 5


 183:.\Generated_Source\PSoC4/V24_IN_ISR.c **** cyisraddress V24_IN_ISR_GetVector(void)
 184:.\Generated_Source\PSoC4/V24_IN_ISR.c **** {
 185:.\Generated_Source\PSoC4/V24_IN_ISR.c ****     return CyRamVectors[CYINT_IRQ_BASE + V24_IN_ISR__INTC_NUMBER];
 186:.\Generated_Source\PSoC4/V24_IN_ISR.c **** }
 187:.\Generated_Source\PSoC4/V24_IN_ISR.c **** 
 188:.\Generated_Source\PSoC4/V24_IN_ISR.c **** 
 189:.\Generated_Source\PSoC4/V24_IN_ISR.c **** /*******************************************************************************
 190:.\Generated_Source\PSoC4/V24_IN_ISR.c **** * Function Name: V24_IN_ISR_SetPriority
 191:.\Generated_Source\PSoC4/V24_IN_ISR.c **** ********************************************************************************
 192:.\Generated_Source\PSoC4/V24_IN_ISR.c **** *
 193:.\Generated_Source\PSoC4/V24_IN_ISR.c **** * Summary:
 194:.\Generated_Source\PSoC4/V24_IN_ISR.c **** *   Sets the Priority of the Interrupt. Note calling V24_IN_ISR_Start
 195:.\Generated_Source\PSoC4/V24_IN_ISR.c **** *   or V24_IN_ISR_StartEx will override any effect this method would 
 196:.\Generated_Source\PSoC4/V24_IN_ISR.c **** *   have had. This method should only be called after V24_IN_ISR_Start or 
 197:.\Generated_Source\PSoC4/V24_IN_ISR.c **** *   V24_IN_ISR_StartEx has been called. To set the initial
 198:.\Generated_Source\PSoC4/V24_IN_ISR.c **** *   priority for the component use the cydwr file in the tool.
 199:.\Generated_Source\PSoC4/V24_IN_ISR.c **** *
 200:.\Generated_Source\PSoC4/V24_IN_ISR.c **** * Parameters:
 201:.\Generated_Source\PSoC4/V24_IN_ISR.c **** *   priority: Priority of the interrupt. 0 - 3, 0 being the highest.
 202:.\Generated_Source\PSoC4/V24_IN_ISR.c **** *
 203:.\Generated_Source\PSoC4/V24_IN_ISR.c **** * Return:
 204:.\Generated_Source\PSoC4/V24_IN_ISR.c **** *   None
 205:.\Generated_Source\PSoC4/V24_IN_ISR.c **** *
 206:.\Generated_Source\PSoC4/V24_IN_ISR.c **** *******************************************************************************/
 207:.\Generated_Source\PSoC4/V24_IN_ISR.c **** void V24_IN_ISR_SetPriority(uint8 priority)
 208:.\Generated_Source\PSoC4/V24_IN_ISR.c **** {
 209:.\Generated_Source\PSoC4/V24_IN_ISR.c **** 	uint8 interruptState;
 210:.\Generated_Source\PSoC4/V24_IN_ISR.c ****     uint32 priorityOffset = ((V24_IN_ISR__INTC_NUMBER % 4u) * 8u) + 6u;
 211:.\Generated_Source\PSoC4/V24_IN_ISR.c ****     
 212:.\Generated_Source\PSoC4/V24_IN_ISR.c **** 	interruptState = CyEnterCriticalSection();
 213:.\Generated_Source\PSoC4/V24_IN_ISR.c ****     *V24_IN_ISR_INTC_PRIOR = (*V24_IN_ISR_INTC_PRIOR & (uint32)(~V24_IN_ISR__INTC_PRIOR_MASK)) |
 214:.\Generated_Source\PSoC4/V24_IN_ISR.c ****                                     ((uint32)priority << priorityOffset);
 215:.\Generated_Source\PSoC4/V24_IN_ISR.c **** 	CyExitCriticalSection(interruptState);
 216:.\Generated_Source\PSoC4/V24_IN_ISR.c **** }
 217:.\Generated_Source\PSoC4/V24_IN_ISR.c **** 
 218:.\Generated_Source\PSoC4/V24_IN_ISR.c **** 
 219:.\Generated_Source\PSoC4/V24_IN_ISR.c **** /*******************************************************************************
 220:.\Generated_Source\PSoC4/V24_IN_ISR.c **** * Function Name: V24_IN_ISR_GetPriority
 221:.\Generated_Source\PSoC4/V24_IN_ISR.c **** ********************************************************************************
 222:.\Generated_Source\PSoC4/V24_IN_ISR.c **** *
 223:.\Generated_Source\PSoC4/V24_IN_ISR.c **** * Summary:
 224:.\Generated_Source\PSoC4/V24_IN_ISR.c **** *   Gets the Priority of the Interrupt.
 225:.\Generated_Source\PSoC4/V24_IN_ISR.c **** *
 226:.\Generated_Source\PSoC4/V24_IN_ISR.c **** * Parameters:
 227:.\Generated_Source\PSoC4/V24_IN_ISR.c **** *   None
 228:.\Generated_Source\PSoC4/V24_IN_ISR.c **** *
 229:.\Generated_Source\PSoC4/V24_IN_ISR.c **** * Return:
 230:.\Generated_Source\PSoC4/V24_IN_ISR.c **** *   Priority of the interrupt. 0 - 3, 0 being the highest.
 231:.\Generated_Source\PSoC4/V24_IN_ISR.c **** *
 232:.\Generated_Source\PSoC4/V24_IN_ISR.c **** *******************************************************************************/
 233:.\Generated_Source\PSoC4/V24_IN_ISR.c **** uint8 V24_IN_ISR_GetPriority(void)
 234:.\Generated_Source\PSoC4/V24_IN_ISR.c **** {
 235:.\Generated_Source\PSoC4/V24_IN_ISR.c ****     uint32 priority;
 236:.\Generated_Source\PSoC4/V24_IN_ISR.c **** 	uint32 priorityOffset = ((V24_IN_ISR__INTC_NUMBER % 4u) * 8u) + 6u;
 237:.\Generated_Source\PSoC4/V24_IN_ISR.c **** 
 238:.\Generated_Source\PSoC4/V24_IN_ISR.c ****     priority = (*V24_IN_ISR_INTC_PRIOR & V24_IN_ISR__INTC_PRIOR_MASK) >> priorityOffset;
 239:.\Generated_Source\PSoC4/V24_IN_ISR.c **** 
ARM GAS  C:\Users\kevin\AppData\Local\Temp\ccOGcmZK.s 			page 6


 240:.\Generated_Source\PSoC4/V24_IN_ISR.c ****     return (uint8)priority;
 241:.\Generated_Source\PSoC4/V24_IN_ISR.c **** }
 242:.\Generated_Source\PSoC4/V24_IN_ISR.c **** 
 243:.\Generated_Source\PSoC4/V24_IN_ISR.c **** 
 244:.\Generated_Source\PSoC4/V24_IN_ISR.c **** /*******************************************************************************
 245:.\Generated_Source\PSoC4/V24_IN_ISR.c **** * Function Name: V24_IN_ISR_Enable
 246:.\Generated_Source\PSoC4/V24_IN_ISR.c **** ********************************************************************************
 247:.\Generated_Source\PSoC4/V24_IN_ISR.c **** *
 248:.\Generated_Source\PSoC4/V24_IN_ISR.c **** * Summary:
 249:.\Generated_Source\PSoC4/V24_IN_ISR.c **** *   Enables the interrupt.
 250:.\Generated_Source\PSoC4/V24_IN_ISR.c **** *
 251:.\Generated_Source\PSoC4/V24_IN_ISR.c **** * Parameters:
 252:.\Generated_Source\PSoC4/V24_IN_ISR.c **** *   None
 253:.\Generated_Source\PSoC4/V24_IN_ISR.c **** *
 254:.\Generated_Source\PSoC4/V24_IN_ISR.c **** * Return:
 255:.\Generated_Source\PSoC4/V24_IN_ISR.c **** *   None
 256:.\Generated_Source\PSoC4/V24_IN_ISR.c **** *
 257:.\Generated_Source\PSoC4/V24_IN_ISR.c **** *******************************************************************************/
 258:.\Generated_Source\PSoC4/V24_IN_ISR.c **** void V24_IN_ISR_Enable(void)
 259:.\Generated_Source\PSoC4/V24_IN_ISR.c **** {
 260:.\Generated_Source\PSoC4/V24_IN_ISR.c ****     /* Enable the general interrupt. */
 261:.\Generated_Source\PSoC4/V24_IN_ISR.c ****     *V24_IN_ISR_INTC_SET_EN = V24_IN_ISR__INTC_MASK;
 262:.\Generated_Source\PSoC4/V24_IN_ISR.c **** }
 263:.\Generated_Source\PSoC4/V24_IN_ISR.c **** 
 264:.\Generated_Source\PSoC4/V24_IN_ISR.c **** 
 265:.\Generated_Source\PSoC4/V24_IN_ISR.c **** /*******************************************************************************
 266:.\Generated_Source\PSoC4/V24_IN_ISR.c **** * Function Name: V24_IN_ISR_GetState
 267:.\Generated_Source\PSoC4/V24_IN_ISR.c **** ********************************************************************************
 268:.\Generated_Source\PSoC4/V24_IN_ISR.c **** *
 269:.\Generated_Source\PSoC4/V24_IN_ISR.c **** * Summary:
 270:.\Generated_Source\PSoC4/V24_IN_ISR.c **** *   Gets the state (enabled, disabled) of the Interrupt.
 271:.\Generated_Source\PSoC4/V24_IN_ISR.c **** *
 272:.\Generated_Source\PSoC4/V24_IN_ISR.c **** * Parameters:
 273:.\Generated_Source\PSoC4/V24_IN_ISR.c **** *   None
 274:.\Generated_Source\PSoC4/V24_IN_ISR.c **** *
 275:.\Generated_Source\PSoC4/V24_IN_ISR.c **** * Return:
 276:.\Generated_Source\PSoC4/V24_IN_ISR.c **** *   1 if enabled, 0 if disabled.
 277:.\Generated_Source\PSoC4/V24_IN_ISR.c **** *
 278:.\Generated_Source\PSoC4/V24_IN_ISR.c **** *******************************************************************************/
 279:.\Generated_Source\PSoC4/V24_IN_ISR.c **** uint8 V24_IN_ISR_GetState(void)
 280:.\Generated_Source\PSoC4/V24_IN_ISR.c **** {
 281:.\Generated_Source\PSoC4/V24_IN_ISR.c ****     /* Get the state of the general interrupt. */
 282:.\Generated_Source\PSoC4/V24_IN_ISR.c ****     return ((*V24_IN_ISR_INTC_SET_EN & (uint32)V24_IN_ISR__INTC_MASK) != 0u) ? 1u:0u;
 283:.\Generated_Source\PSoC4/V24_IN_ISR.c **** }
 284:.\Generated_Source\PSoC4/V24_IN_ISR.c **** 
 285:.\Generated_Source\PSoC4/V24_IN_ISR.c **** 
 286:.\Generated_Source\PSoC4/V24_IN_ISR.c **** /*******************************************************************************
 287:.\Generated_Source\PSoC4/V24_IN_ISR.c **** * Function Name: V24_IN_ISR_Disable
 288:.\Generated_Source\PSoC4/V24_IN_ISR.c **** ********************************************************************************
 289:.\Generated_Source\PSoC4/V24_IN_ISR.c **** *
 290:.\Generated_Source\PSoC4/V24_IN_ISR.c **** * Summary:
 291:.\Generated_Source\PSoC4/V24_IN_ISR.c **** *   Disables the Interrupt.
 292:.\Generated_Source\PSoC4/V24_IN_ISR.c **** *
 293:.\Generated_Source\PSoC4/V24_IN_ISR.c **** * Parameters:
 294:.\Generated_Source\PSoC4/V24_IN_ISR.c **** *   None
 295:.\Generated_Source\PSoC4/V24_IN_ISR.c **** *
 296:.\Generated_Source\PSoC4/V24_IN_ISR.c **** * Return:
ARM GAS  C:\Users\kevin\AppData\Local\Temp\ccOGcmZK.s 			page 7


 297:.\Generated_Source\PSoC4/V24_IN_ISR.c **** *   None
 298:.\Generated_Source\PSoC4/V24_IN_ISR.c **** *
 299:.\Generated_Source\PSoC4/V24_IN_ISR.c **** *******************************************************************************/
 300:.\Generated_Source\PSoC4/V24_IN_ISR.c **** void V24_IN_ISR_Disable(void)
 301:.\Generated_Source\PSoC4/V24_IN_ISR.c **** {
 302:.\Generated_Source\PSoC4/V24_IN_ISR.c ****     /* Disable the general interrupt. */
 303:.\Generated_Source\PSoC4/V24_IN_ISR.c ****     *V24_IN_ISR_INTC_CLR_EN = V24_IN_ISR__INTC_MASK;
  46              		.loc 1 303 0
  47 0000 034B     		ldr	r3, .L3
  48 0002 0122     		mov	r2, #1
  49 0004 1A60     		str	r2, [r3]
  50              	.LVL0:
  51              	.LBE19:
  52              	.LBE18:
  53              	.LBB20:
  54              	.LBB21:
 165:.\Generated_Source\PSoC4/V24_IN_ISR.c ****     CyRamVectors[CYINT_IRQ_BASE + V24_IN_ISR__INTC_NUMBER] = address;
  55              		.loc 1 165 0
  56 0006 034A     		ldr	r2, .L3+4
  57 0008 034B     		ldr	r3, .L3+8
  58              	.LBE21:
  59              	.LBE20:
 118:.\Generated_Source\PSoC4/V24_IN_ISR.c **** }
  60              		.loc 1 118 0
  61              		@ sp needed
  62              	.LBB23:
  63              	.LBB22:
 165:.\Generated_Source\PSoC4/V24_IN_ISR.c ****     CyRamVectors[CYINT_IRQ_BASE + V24_IN_ISR__INTC_NUMBER] = address;
  64              		.loc 1 165 0
  65 000a 1A64     		str	r2, [r3, #64]
  66              	.LBE22:
  67              	.LBE23:
 118:.\Generated_Source\PSoC4/V24_IN_ISR.c **** }
  68              		.loc 1 118 0
  69 000c 7047     		bx	lr
  70              	.L4:
  71 000e C046     		.align	2
  72              	.L3:
  73 0010 80E100E0 		.word	-536813184
  74 0014 00000000 		.word	IntDefaultHandler
  75 0018 00000000 		.word	CyRamVectors
  76              		.cfi_endproc
  77              	.LFE2:
  78              		.size	V24_IN_ISR_Stop, .-V24_IN_ISR_Stop
  79              		.section	.text.V24_IN_ISR_SetVector,"ax",%progbits
  80              		.align	1
  81              		.global	V24_IN_ISR_SetVector
  82              		.code	16
  83              		.thumb_func
  84              		.type	V24_IN_ISR_SetVector, %function
  85              	V24_IN_ISR_SetVector:
  86              	.LFB4:
 164:.\Generated_Source\PSoC4/V24_IN_ISR.c **** {
  87              		.loc 1 164 0
  88              		.cfi_startproc
  89              	.LVL1:
 165:.\Generated_Source\PSoC4/V24_IN_ISR.c ****     CyRamVectors[CYINT_IRQ_BASE + V24_IN_ISR__INTC_NUMBER] = address;
ARM GAS  C:\Users\kevin\AppData\Local\Temp\ccOGcmZK.s 			page 8


  90              		.loc 1 165 0
  91 0000 014B     		ldr	r3, .L6
 166:.\Generated_Source\PSoC4/V24_IN_ISR.c **** }
  92              		.loc 1 166 0
  93              		@ sp needed
 165:.\Generated_Source\PSoC4/V24_IN_ISR.c ****     CyRamVectors[CYINT_IRQ_BASE + V24_IN_ISR__INTC_NUMBER] = address;
  94              		.loc 1 165 0
  95 0002 1864     		str	r0, [r3, #64]
 166:.\Generated_Source\PSoC4/V24_IN_ISR.c **** }
  96              		.loc 1 166 0
  97 0004 7047     		bx	lr
  98              	.L7:
  99 0006 C046     		.align	2
 100              	.L6:
 101 0008 00000000 		.word	CyRamVectors
 102              		.cfi_endproc
 103              	.LFE4:
 104              		.size	V24_IN_ISR_SetVector, .-V24_IN_ISR_SetVector
 105              		.section	.text.V24_IN_ISR_GetVector,"ax",%progbits
 106              		.align	1
 107              		.global	V24_IN_ISR_GetVector
 108              		.code	16
 109              		.thumb_func
 110              		.type	V24_IN_ISR_GetVector, %function
 111              	V24_IN_ISR_GetVector:
 112              	.LFB5:
 184:.\Generated_Source\PSoC4/V24_IN_ISR.c **** {
 113              		.loc 1 184 0
 114              		.cfi_startproc
 185:.\Generated_Source\PSoC4/V24_IN_ISR.c ****     return CyRamVectors[CYINT_IRQ_BASE + V24_IN_ISR__INTC_NUMBER];
 115              		.loc 1 185 0
 116 0000 014B     		ldr	r3, .L9
 186:.\Generated_Source\PSoC4/V24_IN_ISR.c **** }
 117              		.loc 1 186 0
 118              		@ sp needed
 185:.\Generated_Source\PSoC4/V24_IN_ISR.c ****     return CyRamVectors[CYINT_IRQ_BASE + V24_IN_ISR__INTC_NUMBER];
 119              		.loc 1 185 0
 120 0002 186C     		ldr	r0, [r3, #64]
 186:.\Generated_Source\PSoC4/V24_IN_ISR.c **** }
 121              		.loc 1 186 0
 122 0004 7047     		bx	lr
 123              	.L10:
 124 0006 C046     		.align	2
 125              	.L9:
 126 0008 00000000 		.word	CyRamVectors
 127              		.cfi_endproc
 128              	.LFE5:
 129              		.size	V24_IN_ISR_GetVector, .-V24_IN_ISR_GetVector
 130              		.section	.text.V24_IN_ISR_SetPriority,"ax",%progbits
 131              		.align	1
 132              		.global	V24_IN_ISR_SetPriority
 133              		.code	16
 134              		.thumb_func
 135              		.type	V24_IN_ISR_SetPriority, %function
 136              	V24_IN_ISR_SetPriority:
 137              	.LFB6:
 208:.\Generated_Source\PSoC4/V24_IN_ISR.c **** {
ARM GAS  C:\Users\kevin\AppData\Local\Temp\ccOGcmZK.s 			page 9


 138              		.loc 1 208 0
 139              		.cfi_startproc
 140              	.LVL2:
 141 0000 10B5     		push	{r4, lr}
 142              		.cfi_def_cfa_offset 8
 143              		.cfi_offset 4, -8
 144              		.cfi_offset 14, -4
 208:.\Generated_Source\PSoC4/V24_IN_ISR.c **** {
 145              		.loc 1 208 0
 146 0002 041C     		mov	r4, r0
 212:.\Generated_Source\PSoC4/V24_IN_ISR.c **** 	interruptState = CyEnterCriticalSection();
 147              		.loc 1 212 0
 148 0004 FFF7FEFF 		bl	CyEnterCriticalSection
 149              	.LVL3:
 213:.\Generated_Source\PSoC4/V24_IN_ISR.c ****     *V24_IN_ISR_INTC_PRIOR = (*V24_IN_ISR_INTC_PRIOR & (uint32)(~V24_IN_ISR__INTC_PRIOR_MASK)) |
 150              		.loc 1 213 0
 151 0008 054B     		ldr	r3, .L12
 214:.\Generated_Source\PSoC4/V24_IN_ISR.c ****                                     ((uint32)priority << priorityOffset);
 152              		.loc 1 214 0
 153 000a A201     		lsl	r2, r4, #6
 213:.\Generated_Source\PSoC4/V24_IN_ISR.c ****     *V24_IN_ISR_INTC_PRIOR = (*V24_IN_ISR_INTC_PRIOR & (uint32)(~V24_IN_ISR__INTC_PRIOR_MASK)) |
 154              		.loc 1 213 0
 155 000c 1968     		ldr	r1, [r3]
 156 000e C024     		mov	r4, #192
 157 0010 A143     		bic	r1, r4
 158 0012 0C1C     		mov	r4, r1
 159 0014 1443     		orr	r4, r2
 160 0016 1C60     		str	r4, [r3]
 215:.\Generated_Source\PSoC4/V24_IN_ISR.c **** 	CyExitCriticalSection(interruptState);
 161              		.loc 1 215 0
 162 0018 FFF7FEFF 		bl	CyExitCriticalSection
 163              	.LVL4:
 216:.\Generated_Source\PSoC4/V24_IN_ISR.c **** }
 164              		.loc 1 216 0
 165              		@ sp needed
 166 001c 10BD     		pop	{r4, pc}
 167              	.L13:
 168 001e C046     		.align	2
 169              	.L12:
 170 0020 00E400E0 		.word	-536812544
 171              		.cfi_endproc
 172              	.LFE6:
 173              		.size	V24_IN_ISR_SetPriority, .-V24_IN_ISR_SetPriority
 174              		.section	.text.V24_IN_ISR_Start,"ax",%progbits
 175              		.align	1
 176              		.global	V24_IN_ISR_Start
 177              		.code	16
 178              		.thumb_func
 179              		.type	V24_IN_ISR_Start, %function
 180              	V24_IN_ISR_Start:
 181              	.LFB0:
  53:.\Generated_Source\PSoC4/V24_IN_ISR.c **** {
 182              		.loc 1 53 0
 183              		.cfi_startproc
 184              	.LBB24:
 185              	.LBB25:
 186              		.loc 1 303 0
ARM GAS  C:\Users\kevin\AppData\Local\Temp\ccOGcmZK.s 			page 10


 187 0000 064B     		ldr	r3, .L15
 188              	.LBE25:
 189              	.LBE24:
  53:.\Generated_Source\PSoC4/V24_IN_ISR.c **** {
 190              		.loc 1 53 0
 191 0002 10B5     		push	{r4, lr}
 192              		.cfi_def_cfa_offset 8
 193              		.cfi_offset 4, -8
 194              		.cfi_offset 14, -4
 195              	.LBB27:
 196              	.LBB26:
 197              		.loc 1 303 0
 198 0004 0124     		mov	r4, #1
 199 0006 1C60     		str	r4, [r3]
 200              	.LVL5:
 201              	.LBE26:
 202              	.LBE27:
 203              	.LBB28:
 204              	.LBB29:
 165:.\Generated_Source\PSoC4/V24_IN_ISR.c ****     CyRamVectors[CYINT_IRQ_BASE + V24_IN_ISR__INTC_NUMBER] = address;
 205              		.loc 1 165 0
 206 0008 054A     		ldr	r2, .L15+4
 207 000a 064B     		ldr	r3, .L15+8
 208              	.LBE29:
 209              	.LBE28:
  61:.\Generated_Source\PSoC4/V24_IN_ISR.c ****     V24_IN_ISR_SetPriority((uint8)V24_IN_ISR_INTC_PRIOR_NUMBER);
 210              		.loc 1 61 0
 211 000c 0320     		mov	r0, #3
 212              	.LBB31:
 213              	.LBB30:
 165:.\Generated_Source\PSoC4/V24_IN_ISR.c ****     CyRamVectors[CYINT_IRQ_BASE + V24_IN_ISR__INTC_NUMBER] = address;
 214              		.loc 1 165 0
 215 000e 1A64     		str	r2, [r3, #64]
 216              	.LBE30:
 217              	.LBE31:
  61:.\Generated_Source\PSoC4/V24_IN_ISR.c ****     V24_IN_ISR_SetPriority((uint8)V24_IN_ISR_INTC_PRIOR_NUMBER);
 218              		.loc 1 61 0
 219 0010 FFF7FEFF 		bl	V24_IN_ISR_SetPriority
 220              	.LVL6:
 221              	.LBB32:
 222              	.LBB33:
 261:.\Generated_Source\PSoC4/V24_IN_ISR.c ****     *V24_IN_ISR_INTC_SET_EN = V24_IN_ISR__INTC_MASK;
 223              		.loc 1 261 0
 224 0014 044B     		ldr	r3, .L15+12
 225              	.LBE33:
 226              	.LBE32:
  65:.\Generated_Source\PSoC4/V24_IN_ISR.c **** }
 227              		.loc 1 65 0
 228              		@ sp needed
 229              	.LBB35:
 230              	.LBB34:
 261:.\Generated_Source\PSoC4/V24_IN_ISR.c ****     *V24_IN_ISR_INTC_SET_EN = V24_IN_ISR__INTC_MASK;
 231              		.loc 1 261 0
 232 0016 1C60     		str	r4, [r3]
 233              	.LBE34:
 234              	.LBE35:
  65:.\Generated_Source\PSoC4/V24_IN_ISR.c **** }
ARM GAS  C:\Users\kevin\AppData\Local\Temp\ccOGcmZK.s 			page 11


 235              		.loc 1 65 0
 236 0018 10BD     		pop	{r4, pc}
 237              	.L16:
 238 001a C046     		.align	2
 239              	.L15:
 240 001c 80E100E0 		.word	-536813184
 241 0020 00000000 		.word	V24_IN_ISR_Interrupt
 242 0024 00000000 		.word	CyRamVectors
 243 0028 00E100E0 		.word	-536813312
 244              		.cfi_endproc
 245              	.LFE0:
 246              		.size	V24_IN_ISR_Start, .-V24_IN_ISR_Start
 247              		.section	.text.V24_IN_ISR_StartEx,"ax",%progbits
 248              		.align	1
 249              		.global	V24_IN_ISR_StartEx
 250              		.code	16
 251              		.thumb_func
 252              		.type	V24_IN_ISR_StartEx, %function
 253              	V24_IN_ISR_StartEx:
 254              	.LFB1:
  83:.\Generated_Source\PSoC4/V24_IN_ISR.c **** {
 255              		.loc 1 83 0
 256              		.cfi_startproc
 257              	.LVL7:
 258              	.LBB36:
 259              	.LBB37:
 260              		.loc 1 303 0
 261 0000 054B     		ldr	r3, .L18
 262              	.LBE37:
 263              	.LBE36:
  83:.\Generated_Source\PSoC4/V24_IN_ISR.c **** {
 264              		.loc 1 83 0
 265 0002 10B5     		push	{r4, lr}
 266              		.cfi_def_cfa_offset 8
 267              		.cfi_offset 4, -8
 268              		.cfi_offset 14, -4
 269              	.LBB39:
 270              	.LBB38:
 271              		.loc 1 303 0
 272 0004 0124     		mov	r4, #1
 273 0006 1C60     		str	r4, [r3]
 274              	.LVL8:
 275              	.LBE38:
 276              	.LBE39:
 277              	.LBB40:
 278              	.LBB41:
 165:.\Generated_Source\PSoC4/V24_IN_ISR.c ****     CyRamVectors[CYINT_IRQ_BASE + V24_IN_ISR__INTC_NUMBER] = address;
 279              		.loc 1 165 0
 280 0008 044B     		ldr	r3, .L18+4
 281              	.LBE41:
 282              	.LBE40:
  95:.\Generated_Source\PSoC4/V24_IN_ISR.c **** }
 283              		.loc 1 95 0
 284              		@ sp needed
 285              	.LBB43:
 286              	.LBB42:
 165:.\Generated_Source\PSoC4/V24_IN_ISR.c ****     CyRamVectors[CYINT_IRQ_BASE + V24_IN_ISR__INTC_NUMBER] = address;
ARM GAS  C:\Users\kevin\AppData\Local\Temp\ccOGcmZK.s 			page 12


 287              		.loc 1 165 0
 288 000a 1864     		str	r0, [r3, #64]
 289              	.LBE42:
 290              	.LBE43:
  91:.\Generated_Source\PSoC4/V24_IN_ISR.c ****     V24_IN_ISR_SetPriority((uint8)V24_IN_ISR_INTC_PRIOR_NUMBER);
 291              		.loc 1 91 0
 292 000c 0320     		mov	r0, #3
 293              	.LVL9:
 294 000e FFF7FEFF 		bl	V24_IN_ISR_SetPriority
 295              	.LVL10:
 296              	.LBB44:
 297              	.LBB45:
 261:.\Generated_Source\PSoC4/V24_IN_ISR.c ****     *V24_IN_ISR_INTC_SET_EN = V24_IN_ISR__INTC_MASK;
 298              		.loc 1 261 0
 299 0012 034B     		ldr	r3, .L18+8
 300 0014 1C60     		str	r4, [r3]
 301              	.LBE45:
 302              	.LBE44:
  95:.\Generated_Source\PSoC4/V24_IN_ISR.c **** }
 303              		.loc 1 95 0
 304 0016 10BD     		pop	{r4, pc}
 305              	.L19:
 306              		.align	2
 307              	.L18:
 308 0018 80E100E0 		.word	-536813184
 309 001c 00000000 		.word	CyRamVectors
 310 0020 00E100E0 		.word	-536813312
 311              		.cfi_endproc
 312              	.LFE1:
 313              		.size	V24_IN_ISR_StartEx, .-V24_IN_ISR_StartEx
 314              		.section	.text.V24_IN_ISR_GetPriority,"ax",%progbits
 315              		.align	1
 316              		.global	V24_IN_ISR_GetPriority
 317              		.code	16
 318              		.thumb_func
 319              		.type	V24_IN_ISR_GetPriority, %function
 320              	V24_IN_ISR_GetPriority:
 321              	.LFB7:
 234:.\Generated_Source\PSoC4/V24_IN_ISR.c **** {
 322              		.loc 1 234 0
 323              		.cfi_startproc
 324              	.LVL11:
 238:.\Generated_Source\PSoC4/V24_IN_ISR.c ****     priority = (*V24_IN_ISR_INTC_PRIOR & V24_IN_ISR__INTC_PRIOR_MASK) >> priorityOffset;
 325              		.loc 1 238 0
 326 0000 024B     		ldr	r3, .L21
 241:.\Generated_Source\PSoC4/V24_IN_ISR.c **** }
 327              		.loc 1 241 0
 328              		@ sp needed
 238:.\Generated_Source\PSoC4/V24_IN_ISR.c ****     priority = (*V24_IN_ISR_INTC_PRIOR & V24_IN_ISR__INTC_PRIOR_MASK) >> priorityOffset;
 329              		.loc 1 238 0
 330 0002 1868     		ldr	r0, [r3]
 331              	.LVL12:
 332 0004 0006     		lsl	r0, r0, #24
 333              	.LVL13:
 240:.\Generated_Source\PSoC4/V24_IN_ISR.c ****     return (uint8)priority;
 334              		.loc 1 240 0
 335 0006 800F     		lsr	r0, r0, #30
ARM GAS  C:\Users\kevin\AppData\Local\Temp\ccOGcmZK.s 			page 13


 241:.\Generated_Source\PSoC4/V24_IN_ISR.c **** }
 336              		.loc 1 241 0
 337 0008 7047     		bx	lr
 338              	.L22:
 339 000a C046     		.align	2
 340              	.L21:
 341 000c 00E400E0 		.word	-536812544
 342              		.cfi_endproc
 343              	.LFE7:
 344              		.size	V24_IN_ISR_GetPriority, .-V24_IN_ISR_GetPriority
 345              		.section	.text.V24_IN_ISR_Enable,"ax",%progbits
 346              		.align	1
 347              		.global	V24_IN_ISR_Enable
 348              		.code	16
 349              		.thumb_func
 350              		.type	V24_IN_ISR_Enable, %function
 351              	V24_IN_ISR_Enable:
 352              	.LFB8:
 259:.\Generated_Source\PSoC4/V24_IN_ISR.c **** {
 353              		.loc 1 259 0
 354              		.cfi_startproc
 261:.\Generated_Source\PSoC4/V24_IN_ISR.c ****     *V24_IN_ISR_INTC_SET_EN = V24_IN_ISR__INTC_MASK;
 355              		.loc 1 261 0
 356 0000 014B     		ldr	r3, .L24
 357 0002 0122     		mov	r2, #1
 358 0004 1A60     		str	r2, [r3]
 262:.\Generated_Source\PSoC4/V24_IN_ISR.c **** }
 359              		.loc 1 262 0
 360              		@ sp needed
 361 0006 7047     		bx	lr
 362              	.L25:
 363              		.align	2
 364              	.L24:
 365 0008 00E100E0 		.word	-536813312
 366              		.cfi_endproc
 367              	.LFE8:
 368              		.size	V24_IN_ISR_Enable, .-V24_IN_ISR_Enable
 369              		.section	.text.V24_IN_ISR_GetState,"ax",%progbits
 370              		.align	1
 371              		.global	V24_IN_ISR_GetState
 372              		.code	16
 373              		.thumb_func
 374              		.type	V24_IN_ISR_GetState, %function
 375              	V24_IN_ISR_GetState:
 376              	.LFB9:
 280:.\Generated_Source\PSoC4/V24_IN_ISR.c **** {
 377              		.loc 1 280 0
 378              		.cfi_startproc
 282:.\Generated_Source\PSoC4/V24_IN_ISR.c ****     return ((*V24_IN_ISR_INTC_SET_EN & (uint32)V24_IN_ISR__INTC_MASK) != 0u) ? 1u:0u;
 379              		.loc 1 282 0
 380 0000 024B     		ldr	r3, .L27
 283:.\Generated_Source\PSoC4/V24_IN_ISR.c **** }
 381              		.loc 1 283 0
 382              		@ sp needed
 282:.\Generated_Source\PSoC4/V24_IN_ISR.c ****     return ((*V24_IN_ISR_INTC_SET_EN & (uint32)V24_IN_ISR__INTC_MASK) != 0u) ? 1u:0u;
 383              		.loc 1 282 0
 384 0002 1868     		ldr	r0, [r3]
ARM GAS  C:\Users\kevin\AppData\Local\Temp\ccOGcmZK.s 			page 14


 385 0004 0123     		mov	r3, #1
 386 0006 1840     		and	r0, r3
 283:.\Generated_Source\PSoC4/V24_IN_ISR.c **** }
 387              		.loc 1 283 0
 388 0008 7047     		bx	lr
 389              	.L28:
 390 000a C046     		.align	2
 391              	.L27:
 392 000c 00E100E0 		.word	-536813312
 393              		.cfi_endproc
 394              	.LFE9:
 395              		.size	V24_IN_ISR_GetState, .-V24_IN_ISR_GetState
 396              		.section	.text.V24_IN_ISR_Disable,"ax",%progbits
 397              		.align	1
 398              		.global	V24_IN_ISR_Disable
 399              		.code	16
 400              		.thumb_func
 401              		.type	V24_IN_ISR_Disable, %function
 402              	V24_IN_ISR_Disable:
 403              	.LFB10:
 301:.\Generated_Source\PSoC4/V24_IN_ISR.c **** {
 404              		.loc 1 301 0
 405              		.cfi_startproc
 406              		.loc 1 303 0
 407 0000 014B     		ldr	r3, .L30
 408 0002 0122     		mov	r2, #1
 409 0004 1A60     		str	r2, [r3]
 304:.\Generated_Source\PSoC4/V24_IN_ISR.c **** }
 410              		.loc 1 304 0
 411              		@ sp needed
 412 0006 7047     		bx	lr
 413              	.L31:
 414              		.align	2
 415              	.L30:
 416 0008 80E100E0 		.word	-536813184
 417              		.cfi_endproc
 418              	.LFE10:
 419              		.size	V24_IN_ISR_Disable, .-V24_IN_ISR_Disable
 420              		.section	.text.V24_IN_ISR_SetPending,"ax",%progbits
 421              		.align	1
 422              		.global	V24_IN_ISR_SetPending
 423              		.code	16
 424              		.thumb_func
 425              		.type	V24_IN_ISR_SetPending, %function
 426              	V24_IN_ISR_SetPending:
 427              	.LFB11:
 305:.\Generated_Source\PSoC4/V24_IN_ISR.c **** 
 306:.\Generated_Source\PSoC4/V24_IN_ISR.c **** 
 307:.\Generated_Source\PSoC4/V24_IN_ISR.c **** /*******************************************************************************
 308:.\Generated_Source\PSoC4/V24_IN_ISR.c **** * Function Name: V24_IN_ISR_SetPending
 309:.\Generated_Source\PSoC4/V24_IN_ISR.c **** ********************************************************************************
 310:.\Generated_Source\PSoC4/V24_IN_ISR.c **** *
 311:.\Generated_Source\PSoC4/V24_IN_ISR.c **** * Summary:
 312:.\Generated_Source\PSoC4/V24_IN_ISR.c **** *   Causes the Interrupt to enter the pending state, a software method of
 313:.\Generated_Source\PSoC4/V24_IN_ISR.c **** *   generating the interrupt.
 314:.\Generated_Source\PSoC4/V24_IN_ISR.c **** *
 315:.\Generated_Source\PSoC4/V24_IN_ISR.c **** * Parameters:
ARM GAS  C:\Users\kevin\AppData\Local\Temp\ccOGcmZK.s 			page 15


 316:.\Generated_Source\PSoC4/V24_IN_ISR.c **** *   None
 317:.\Generated_Source\PSoC4/V24_IN_ISR.c **** *
 318:.\Generated_Source\PSoC4/V24_IN_ISR.c **** * Return:
 319:.\Generated_Source\PSoC4/V24_IN_ISR.c **** *   None
 320:.\Generated_Source\PSoC4/V24_IN_ISR.c **** *
 321:.\Generated_Source\PSoC4/V24_IN_ISR.c **** *******************************************************************************/
 322:.\Generated_Source\PSoC4/V24_IN_ISR.c **** void V24_IN_ISR_SetPending(void)
 323:.\Generated_Source\PSoC4/V24_IN_ISR.c **** {
 428              		.loc 1 323 0
 429              		.cfi_startproc
 324:.\Generated_Source\PSoC4/V24_IN_ISR.c ****     *V24_IN_ISR_INTC_SET_PD = V24_IN_ISR__INTC_MASK;
 430              		.loc 1 324 0
 431 0000 014B     		ldr	r3, .L33
 432 0002 0122     		mov	r2, #1
 433 0004 1A60     		str	r2, [r3]
 325:.\Generated_Source\PSoC4/V24_IN_ISR.c **** }
 434              		.loc 1 325 0
 435              		@ sp needed
 436 0006 7047     		bx	lr
 437              	.L34:
 438              		.align	2
 439              	.L33:
 440 0008 00E200E0 		.word	-536813056
 441              		.cfi_endproc
 442              	.LFE11:
 443              		.size	V24_IN_ISR_SetPending, .-V24_IN_ISR_SetPending
 444              		.section	.text.V24_IN_ISR_ClearPending,"ax",%progbits
 445              		.align	1
 446              		.global	V24_IN_ISR_ClearPending
 447              		.code	16
 448              		.thumb_func
 449              		.type	V24_IN_ISR_ClearPending, %function
 450              	V24_IN_ISR_ClearPending:
 451              	.LFB12:
 326:.\Generated_Source\PSoC4/V24_IN_ISR.c **** 
 327:.\Generated_Source\PSoC4/V24_IN_ISR.c **** 
 328:.\Generated_Source\PSoC4/V24_IN_ISR.c **** /*******************************************************************************
 329:.\Generated_Source\PSoC4/V24_IN_ISR.c **** * Function Name: V24_IN_ISR_ClearPending
 330:.\Generated_Source\PSoC4/V24_IN_ISR.c **** ********************************************************************************
 331:.\Generated_Source\PSoC4/V24_IN_ISR.c **** *
 332:.\Generated_Source\PSoC4/V24_IN_ISR.c **** * Summary:
 333:.\Generated_Source\PSoC4/V24_IN_ISR.c **** *   Clears a pending interrupt.
 334:.\Generated_Source\PSoC4/V24_IN_ISR.c **** *
 335:.\Generated_Source\PSoC4/V24_IN_ISR.c **** * Parameters:
 336:.\Generated_Source\PSoC4/V24_IN_ISR.c **** *   None
 337:.\Generated_Source\PSoC4/V24_IN_ISR.c **** *
 338:.\Generated_Source\PSoC4/V24_IN_ISR.c **** * Return:
 339:.\Generated_Source\PSoC4/V24_IN_ISR.c **** *   None
 340:.\Generated_Source\PSoC4/V24_IN_ISR.c **** *
 341:.\Generated_Source\PSoC4/V24_IN_ISR.c **** *******************************************************************************/
 342:.\Generated_Source\PSoC4/V24_IN_ISR.c **** void V24_IN_ISR_ClearPending(void)
 343:.\Generated_Source\PSoC4/V24_IN_ISR.c **** {
 452              		.loc 1 343 0
 453              		.cfi_startproc
 344:.\Generated_Source\PSoC4/V24_IN_ISR.c ****     *V24_IN_ISR_INTC_CLR_PD = V24_IN_ISR__INTC_MASK;
 454              		.loc 1 344 0
 455 0000 014B     		ldr	r3, .L36
ARM GAS  C:\Users\kevin\AppData\Local\Temp\ccOGcmZK.s 			page 16


 456 0002 0122     		mov	r2, #1
 457 0004 1A60     		str	r2, [r3]
 345:.\Generated_Source\PSoC4/V24_IN_ISR.c **** }
 458              		.loc 1 345 0
 459              		@ sp needed
 460 0006 7047     		bx	lr
 461              	.L37:
 462              		.align	2
 463              	.L36:
 464 0008 80E200E0 		.word	-536812928
 465              		.cfi_endproc
 466              	.LFE12:
 467              		.size	V24_IN_ISR_ClearPending, .-V24_IN_ISR_ClearPending
 468              		.text
 469              	.Letext0:
 470              		.file 2 ".\\Generated_Source\\PSoC4/cytypes.h"
 471              		.file 3 ".\\Generated_Source\\PSoC4/CyLib.h"