ARM GAS  C:\Users\ZHANGM~1\AppData\Local\Temp\ccse5bds.s 			page 1


   1              		.cpu cortex-m0
   2              		.fpu softvfp
   3              		.eabi_attribute 20, 1
   4              		.eabi_attribute 21, 1
   5              		.eabi_attribute 23, 3
   6              		.eabi_attribute 24, 1
   7              		.eabi_attribute 25, 1
   8              		.eabi_attribute 26, 1
   9              		.eabi_attribute 30, 4
  10              		.eabi_attribute 34, 0
  11              		.eabi_attribute 18, 4
  12              		.code	16
  13              		.file	"Bootloader.c"
  14              		.text
  15              	.Ltext0:
  16              		.cfi_sections	.debug_frame
  17              		.section	.text.Bootloader_LaunchBootloadable,"ax",%progbits
  18              		.align	1
  19              		.code	16
  20              		.thumb_func
  21              		.type	Bootloader_LaunchBootloadable, %function
  22              	Bootloader_LaunchBootloadable:
  23              	.LFB46:
  24              		.file 1 ".\\Generated_Source\\PSoC4\\Bootloader.c"
   1:.\Generated_Source\PSoC4/Bootloader.c **** /*******************************************************************************
   2:.\Generated_Source\PSoC4/Bootloader.c **** * File Name: Bootloader.c
   3:.\Generated_Source\PSoC4/Bootloader.c **** * Version 1.30
   4:.\Generated_Source\PSoC4/Bootloader.c **** *
   5:.\Generated_Source\PSoC4/Bootloader.c **** *  Description:
   6:.\Generated_Source\PSoC4/Bootloader.c **** *   Provides an API for the Bootloader component. The API includes functions
   7:.\Generated_Source\PSoC4/Bootloader.c **** *   for starting boot loading operations, validating the application and
   8:.\Generated_Source\PSoC4/Bootloader.c **** *   jumping to the application.
   9:.\Generated_Source\PSoC4/Bootloader.c **** *
  10:.\Generated_Source\PSoC4/Bootloader.c **** ********************************************************************************
  11:.\Generated_Source\PSoC4/Bootloader.c **** * Copyright 2008-2014, Cypress Semiconductor Corporation.  All rights reserved.
  12:.\Generated_Source\PSoC4/Bootloader.c **** * You may use this file only in accordance with the license, terms, conditions,
  13:.\Generated_Source\PSoC4/Bootloader.c **** * disclaimers, and limitations in the end user license agreement accompanying
  14:.\Generated_Source\PSoC4/Bootloader.c **** * the software package with which this file was provided.
  15:.\Generated_Source\PSoC4/Bootloader.c **** *******************************************************************************/
  16:.\Generated_Source\PSoC4/Bootloader.c **** 
  17:.\Generated_Source\PSoC4/Bootloader.c **** #include "Bootloader_PVT.h"
  18:.\Generated_Source\PSoC4/Bootloader.c **** #include "project.h"
  19:.\Generated_Source\PSoC4/Bootloader.c **** #include <string.h> 
  20:.\Generated_Source\PSoC4/Bootloader.c **** 
  21:.\Generated_Source\PSoC4/Bootloader.c **** 
  22:.\Generated_Source\PSoC4/Bootloader.c **** /*******************************************************************************
  23:.\Generated_Source\PSoC4/Bootloader.c **** * The Checksum and SizeBytes are forcefully set in code. We then post process
  24:.\Generated_Source\PSoC4/Bootloader.c **** * the hex file from the linker and inject their values then. When the hex file
  25:.\Generated_Source\PSoC4/Bootloader.c **** * is loaded onto the device these two variables should have valid values.
  26:.\Generated_Source\PSoC4/Bootloader.c **** * Because the compiler can do optimizations to remove the constant
  27:.\Generated_Source\PSoC4/Bootloader.c **** * accesses, these should not be accessed directly. Instead, the variables
  28:.\Generated_Source\PSoC4/Bootloader.c **** * CyBtldr_ChecksumAccess & CyBtldr_SizeBytesAccess should be used to get the
  29:.\Generated_Source\PSoC4/Bootloader.c **** * proper values at runtime.
  30:.\Generated_Source\PSoC4/Bootloader.c **** *******************************************************************************/
  31:.\Generated_Source\PSoC4/Bootloader.c **** #if defined(__ARMCC_VERSION) || defined (__GNUC__)
  32:.\Generated_Source\PSoC4/Bootloader.c ****     __attribute__((section (".bootloader"), used))
  33:.\Generated_Source\PSoC4/Bootloader.c **** #elif defined (__ICCARM__)
ARM GAS  C:\Users\ZHANGM~1\AppData\Local\Temp\ccse5bds.s 			page 2


  34:.\Generated_Source\PSoC4/Bootloader.c ****     #pragma location=".bootloader"
  35:.\Generated_Source\PSoC4/Bootloader.c **** #endif  /* defined(__ARMCC_VERSION) || defined (__GNUC__) */
  36:.\Generated_Source\PSoC4/Bootloader.c **** 
  37:.\Generated_Source\PSoC4/Bootloader.c **** #if defined(__ARMCC_VERSION) || defined (__GNUC__) || defined (__C51__)
  38:.\Generated_Source\PSoC4/Bootloader.c ****            const uint8  CYCODE Bootloader_Checksum = 0u;
  39:.\Generated_Source\PSoC4/Bootloader.c **** #elif defined (__ICCARM__)
  40:.\Generated_Source\PSoC4/Bootloader.c ****     __root const uint8  CYCODE Bootloader_Checksum = 0u;
  41:.\Generated_Source\PSoC4/Bootloader.c **** #endif  /* defined(__ARMCC_VERSION) || defined (__GNUC__) || defined (__C51__) */
  42:.\Generated_Source\PSoC4/Bootloader.c **** const uint8  CYCODE *Bootloader_ChecksumAccess  = (const uint8  CYCODE *)(&Bootloader_Checksum);
  43:.\Generated_Source\PSoC4/Bootloader.c **** 
  44:.\Generated_Source\PSoC4/Bootloader.c **** #if defined(__ARMCC_VERSION) || defined (__GNUC__)
  45:.\Generated_Source\PSoC4/Bootloader.c ****     __attribute__((section (".bootloader"), used))
  46:.\Generated_Source\PSoC4/Bootloader.c **** #elif defined (__ICCARM__)
  47:.\Generated_Source\PSoC4/Bootloader.c ****     #pragma location=".bootloader"
  48:.\Generated_Source\PSoC4/Bootloader.c **** #endif  /* defined(__ARMCC_VERSION) || defined (__GNUC__) */
  49:.\Generated_Source\PSoC4/Bootloader.c **** 
  50:.\Generated_Source\PSoC4/Bootloader.c **** const uint32 CYCODE Bootloader_SizeBytes = 0xFFFFFFFFu;
  51:.\Generated_Source\PSoC4/Bootloader.c **** const uint32 CYCODE *Bootloader_SizeBytesAccess = (const uint32 CYCODE *)(&Bootloader_SizeBytes);
  52:.\Generated_Source\PSoC4/Bootloader.c ****  #define Bootloader_activeApp      (Bootloader_MD_BTLDB_ACTIVE_0)
  53:.\Generated_Source\PSoC4/Bootloader.c **** 
  54:.\Generated_Source\PSoC4/Bootloader.c **** CYBIT f_ack_1,f_delay;
  55:.\Generated_Source\PSoC4/Bootloader.c **** 
  56:.\Generated_Source\PSoC4/Bootloader.c **** /***************************************
  57:.\Generated_Source\PSoC4/Bootloader.c **** *     Function Prototypes
  58:.\Generated_Source\PSoC4/Bootloader.c **** ***************************************/
  59:.\Generated_Source\PSoC4/Bootloader.c ****                                   ;
  60:.\Generated_Source\PSoC4/Bootloader.c **** uint8 dataBuffer_0[300],packetBuffer[300];
  61:.\Generated_Source\PSoC4/Bootloader.c **** uint8 z_iicount, z_itotalcount;
  62:.\Generated_Source\PSoC4/Bootloader.c ****                                     ;
  63:.\Generated_Source\PSoC4/Bootloader.c **** extern void Open_UART_WIFI_ISR(void);
  64:.\Generated_Source\PSoC4/Bootloader.c **** extern CY_ISR(UART_ISR_0_FUN);
  65:.\Generated_Source\PSoC4/Bootloader.c **** static void     Bootloader_HostLink(void); 
  66:.\Generated_Source\PSoC4/Bootloader.c ****                                
  67:.\Generated_Source\PSoC4/Bootloader.c **** 
  68:.\Generated_Source\PSoC4/Bootloader.c **** static void     Bootloader_LaunchApplication(void) CYSMALL \
  69:.\Generated_Source\PSoC4/Bootloader.c ****                                     ;
  70:.\Generated_Source\PSoC4/Bootloader.c **** 
  71:.\Generated_Source\PSoC4/Bootloader.c **** #if(!CY_PSOC3)
  72:.\Generated_Source\PSoC4/Bootloader.c ****     /* Implementation for the PSoC 3 resides in a Bootloader_psoc3.a51 file.  */
  73:.\Generated_Source\PSoC4/Bootloader.c ****     static void     Bootloader_LaunchBootloadable(uint32 appAddr);
  74:.\Generated_Source\PSoC4/Bootloader.c **** #endif  /* (!CY_PSOC3) */
  75:.\Generated_Source\PSoC4/Bootloader.c **** 
  76:.\Generated_Source\PSoC4/Bootloader.c **** CYBIT BUZfkg;
  77:.\Generated_Source\PSoC4/Bootloader.c **** uint32  BuzzerDly;
  78:.\Generated_Source\PSoC4/Bootloader.c **** uint8 gcWifiCommunState;
  79:.\Generated_Source\PSoC4/Bootloader.c **** struct{
  80:.\Generated_Source\PSoC4/Bootloader.c **** 		unsigned handshake_ok:1;           //握手成功标志
  81:.\Generated_Source\PSoC4/Bootloader.c **** 		unsigned bootloadable_load_ok:1;
  82:.\Generated_Source\PSoC4/Bootloader.c **** 		unsigned gcReceComm2OK:1;
  83:.\Generated_Source\PSoC4/Bootloader.c **** 		unsigned gcReceComm1OK:1;
  84:.\Generated_Source\PSoC4/Bootloader.c **** 		unsigned u8E0Set:1;
  85:.\Generated_Source\PSoC4/Bootloader.c **** 		unsigned u8E1Set:1;
  86:.\Generated_Source\PSoC4/Bootloader.c **** 		unsigned u8E2Set:1;
  87:.\Generated_Source\PSoC4/Bootloader.c **** 		unsigned u8E3Set:1;
  88:.\Generated_Source\PSoC4/Bootloader.c **** }WifiWorkFlag;
  89:.\Generated_Source\PSoC4/Bootloader.c **** 
  90:.\Generated_Source\PSoC4/Bootloader.c **** 
ARM GAS  C:\Users\ZHANGM~1\AppData\Local\Temp\ccse5bds.s 			page 3


  91:.\Generated_Source\PSoC4/Bootloader.c **** struct{
  92:.\Generated_Source\PSoC4/Bootloader.c ****     unsigned send_data_load:1;            //启动发送标志
  93:.\Generated_Source\PSoC4/Bootloader.c ****     unsigned flag_rev_end:1;              //接收完毕标志
  94:.\Generated_Source\PSoC4/Bootloader.c ****     unsigned uart_ack:1;              //应答标志位
  95:.\Generated_Source\PSoC4/Bootloader.c ****     unsigned flag_Uart_Work:1;         //Uart_Work标志位
  96:.\Generated_Source\PSoC4/Bootloader.c **** }WifidatagramWorkFlag;
  97:.\Generated_Source\PSoC4/Bootloader.c **** uint8 gcWIFICTL,giWIFICommand,giWIFIDATALength;
  98:.\Generated_Source\PSoC4/Bootloader.c ****  typedef struct Buffer0
  99:.\Generated_Source\PSoC4/Bootloader.c **** {
 100:.\Generated_Source\PSoC4/Bootloader.c **** 	uint8  	gcATReceData[WIFIBUFLEN];  // wifi 模块一次传输1440字节，这里有51芯片只有1280个xdata
 101:.\Generated_Source\PSoC4/Bootloader.c **** 	uint16 	gcATReceCount;
 102:.\Generated_Source\PSoC4/Bootloader.c **** } Buffer2;
 103:.\Generated_Source\PSoC4/Bootloader.c **** struct Buffer0    ATReceBuffer[1];
 104:.\Generated_Source\PSoC4/Bootloader.c **** uint16		iUartSendLen;
 105:.\Generated_Source\PSoC4/Bootloader.c **** uint16		iSendCounter;
 106:.\Generated_Source\PSoC4/Bootloader.c **** uint16 iSendCounter,iUartSendLen;
 107:.\Generated_Source\PSoC4/Bootloader.c **** uint8 *cpSendBufPtr;
 108:.\Generated_Source\PSoC4/Bootloader.c **** CYBIT F_uart_0_tx;
 109:.\Generated_Source\PSoC4/Bootloader.c **** 
 110:.\Generated_Source\PSoC4/Bootloader.c **** /* CRC 高位字节值表 */ 
 111:.\Generated_Source\PSoC4/Bootloader.c **** const uint8 auchCRCHi[] = { 
 112:.\Generated_Source\PSoC4/Bootloader.c **** 0x00, 0xC1, 0x81, 0x40, 0x01, 0xC0, 0x80, 0x41, 0x01, 0xC0, 
 113:.\Generated_Source\PSoC4/Bootloader.c **** 0x80, 0x41, 0x00, 0xC1, 0x81, 0x40, 0x01, 0xC0, 0x80, 0x41, 
 114:.\Generated_Source\PSoC4/Bootloader.c **** 0x00, 0xC1, 0x81, 0x40, 0x00, 0xC1, 0x81, 0x40, 0x01, 0xC0, 
 115:.\Generated_Source\PSoC4/Bootloader.c **** 0x80, 0x41, 0x01, 0xC0, 0x80, 0x41, 0x00, 0xC1, 0x81, 0x40, 
 116:.\Generated_Source\PSoC4/Bootloader.c **** 0x00, 0xC1, 0x81, 0x40, 0x01, 0xC0, 0x80, 0x41, 0x00, 0xC1, 
 117:.\Generated_Source\PSoC4/Bootloader.c **** 0x81, 0x40, 0x01, 0xC0, 0x80, 0x41, 0x01, 0xC0, 0x80, 0x41, 
 118:.\Generated_Source\PSoC4/Bootloader.c **** 0x00, 0xC1, 0x81, 0x40, 0x01, 0xC0, 0x80, 0x41, 0x00, 0xC1, 
 119:.\Generated_Source\PSoC4/Bootloader.c **** 0x81, 0x40, 0x00, 0xC1, 0x81, 0x40, 0x01, 0xC0, 0x80, 0x41, 
 120:.\Generated_Source\PSoC4/Bootloader.c **** 0x00, 0xC1, 0x81, 0x40, 0x01, 0xC0, 0x80, 0x41, 0x01, 0xC0, 
 121:.\Generated_Source\PSoC4/Bootloader.c **** 0x80, 0x41, 0x00, 0xC1, 0x81, 0x40, 0x00, 0xC1, 0x81, 0x40, 
 122:.\Generated_Source\PSoC4/Bootloader.c **** 0x01, 0xC0, 0x80, 0x41, 0x01, 0xC0, 0x80, 0x41, 0x00, 0xC1, 
 123:.\Generated_Source\PSoC4/Bootloader.c **** 0x81, 0x40, 0x01, 0xC0, 0x80, 0x41, 0x00, 0xC1, 0x81, 0x40, 
 124:.\Generated_Source\PSoC4/Bootloader.c **** 0x00, 0xC1, 0x81, 0x40, 0x01, 0xC0, 0x80, 0x41, 0x01, 0xC0, 
 125:.\Generated_Source\PSoC4/Bootloader.c **** 0x80, 0x41, 0x00, 0xC1, 0x81, 0x40, 0x00, 0xC1, 0x81, 0x40, 
 126:.\Generated_Source\PSoC4/Bootloader.c **** 0x01, 0xC0, 0x80, 0x41, 0x00, 0xC1, 0x81, 0x40, 0x01, 0xC0, 
 127:.\Generated_Source\PSoC4/Bootloader.c **** 0x80, 0x41, 0x01, 0xC0, 0x80, 0x41, 0x00, 0xC1, 0x81, 0x40, 
 128:.\Generated_Source\PSoC4/Bootloader.c **** 0x00, 0xC1, 0x81, 0x40, 0x01, 0xC0, 0x80, 0x41, 0x01, 0xC0, 
 129:.\Generated_Source\PSoC4/Bootloader.c **** 0x80, 0x41, 0x00, 0xC1, 0x81, 0x40, 0x01, 0xC0, 0x80, 0x41, 
 130:.\Generated_Source\PSoC4/Bootloader.c **** 0x00, 0xC1, 0x81, 0x40, 0x00, 0xC1, 0x81, 0x40, 0x01, 0xC0, 
 131:.\Generated_Source\PSoC4/Bootloader.c **** 0x80, 0x41, 0x00, 0xC1, 0x81, 0x40, 0x01, 0xC0, 0x80, 0x41, 
 132:.\Generated_Source\PSoC4/Bootloader.c **** 0x01, 0xC0, 0x80, 0x41, 0x00, 0xC1, 0x81, 0x40, 0x01, 0xC0, 
 133:.\Generated_Source\PSoC4/Bootloader.c **** 0x80, 0x41, 0x00, 0xC1, 0x81, 0x40, 0x00, 0xC1, 0x81, 0x40, 
 134:.\Generated_Source\PSoC4/Bootloader.c **** 0x01, 0xC0, 0x80, 0x41, 0x01, 0xC0, 0x80, 0x41, 0x00, 0xC1, 
 135:.\Generated_Source\PSoC4/Bootloader.c **** 0x81, 0x40, 0x00, 0xC1, 0x81, 0x40, 0x01, 0xC0, 0x80, 0x41, 
 136:.\Generated_Source\PSoC4/Bootloader.c **** 0x00, 0xC1, 0x81, 0x40, 0x01, 0xC0, 0x80, 0x41, 0x01, 0xC0, 
 137:.\Generated_Source\PSoC4/Bootloader.c **** 0x80, 0x41, 0x00, 0xC1, 0x81, 0x40 
 138:.\Generated_Source\PSoC4/Bootloader.c **** } ; 
 139:.\Generated_Source\PSoC4/Bootloader.c **** /* CRC低位字节值表*/ 
 140:.\Generated_Source\PSoC4/Bootloader.c **** const uint8 auchCRCLo[] = { 		
 141:.\Generated_Source\PSoC4/Bootloader.c **** 0x00, 0xC0, 0xC1, 0x01, 0xC3, 0x03, 0x02, 0xC2, 0xC6, 0x06, 
 142:.\Generated_Source\PSoC4/Bootloader.c **** 0x07, 0xC7, 0x05, 0xC5, 0xC4, 0x04, 0xCC, 0x0C, 0x0D, 0xCD, 
 143:.\Generated_Source\PSoC4/Bootloader.c **** 0x0F, 0xCF, 0xCE, 0x0E, 0x0A, 0xCA, 0xCB, 0x0B, 0xC9, 0x09, 
 144:.\Generated_Source\PSoC4/Bootloader.c **** 0x08, 0xC8, 0xD8, 0x18, 0x19, 0xD9, 0x1B, 0xDB, 0xDA, 0x1A, 
 145:.\Generated_Source\PSoC4/Bootloader.c **** 0x1E, 0xDE, 0xDF, 0x1F, 0xDD, 0x1D, 0x1C, 0xDC, 0x14, 0xD4, 
 146:.\Generated_Source\PSoC4/Bootloader.c **** 0xD5, 0x15, 0xD7, 0x17, 0x16, 0xD6, 0xD2, 0x12, 0x13, 0xD3, 
 147:.\Generated_Source\PSoC4/Bootloader.c **** 0x11, 0xD1, 0xD0, 0x10, 0xF0, 0x30, 0x31, 0xF1, 0x33, 0xF3, 
ARM GAS  C:\Users\ZHANGM~1\AppData\Local\Temp\ccse5bds.s 			page 4


 148:.\Generated_Source\PSoC4/Bootloader.c **** 0xF2, 0x32, 0x36, 0xF6, 0xF7, 0x37, 0xF5, 0x35, 0x34, 0xF4, 
 149:.\Generated_Source\PSoC4/Bootloader.c **** 0x3C, 0xFC, 0xFD, 0x3D, 0xFF, 0x3F, 0x3E, 0xFE, 0xFA, 0x3A, 
 150:.\Generated_Source\PSoC4/Bootloader.c **** 0x3B, 0xFB, 0x39, 0xF9, 0xF8, 0x38, 0x28, 0xE8, 0xE9, 0x29, 
 151:.\Generated_Source\PSoC4/Bootloader.c **** 0xEB, 0x2B, 0x2A, 0xEA, 0xEE, 0x2E, 0x2F, 0xEF, 0x2D, 0xED, 
 152:.\Generated_Source\PSoC4/Bootloader.c **** 0xEC, 0x2C, 0xE4, 0x24, 0x25, 0xE5, 0x27, 0xE7, 0xE6, 0x26, 
 153:.\Generated_Source\PSoC4/Bootloader.c **** 0x22, 0xE2, 0xE3, 0x23, 0xE1, 0x21, 0x20, 0xE0, 0xA0, 0x60, 
 154:.\Generated_Source\PSoC4/Bootloader.c **** 0x61, 0xA1, 0x63, 0xA3, 0xA2, 0x62, 0x66, 0xA6, 0xA7, 0x67, 
 155:.\Generated_Source\PSoC4/Bootloader.c **** 0xA5, 0x65, 0x64, 0xA4, 0x6C, 0xAC, 0xAD, 0x6D, 0xAF, 0x6F, 
 156:.\Generated_Source\PSoC4/Bootloader.c **** 0x6E, 0xAE, 0xAA, 0x6A, 0x6B, 0xAB, 0x69, 0xA9, 0xA8, 0x68, 
 157:.\Generated_Source\PSoC4/Bootloader.c **** 0x78, 0xB8, 0xB9, 0x79, 0xBB, 0x7B, 0x7A, 0xBA, 0xBE, 0x7E, 
 158:.\Generated_Source\PSoC4/Bootloader.c **** 0x7F, 0xBF, 0x7D, 0xBD, 0xBC, 0x7C, 0xB4, 0x74, 0x75, 0xB5, 
 159:.\Generated_Source\PSoC4/Bootloader.c **** 0x77, 0xB7, 0xB6, 0x76, 0x72, 0xB2, 0xB3, 0x73, 0xB1, 0x71, 
 160:.\Generated_Source\PSoC4/Bootloader.c **** 0x70, 0xB0, 0x50, 0x90, 0x91, 0x51, 0x93, 0x53, 0x52, 0x92, 
 161:.\Generated_Source\PSoC4/Bootloader.c **** 0x96, 0x56, 0x57, 0x97, 0x55, 0x95, 0x94, 0x54, 0x9C, 0x5C, 
 162:.\Generated_Source\PSoC4/Bootloader.c **** 0x5D, 0x9D, 0x5F, 0x9F, 0x9E, 0x5E, 0x5A, 0x9A, 0x9B, 0x5B, 
 163:.\Generated_Source\PSoC4/Bootloader.c **** 0x99, 0x59, 0x58, 0x98, 0x88, 0x48, 0x49, 0x89, 0x4B, 0x8B, 
 164:.\Generated_Source\PSoC4/Bootloader.c **** 0x8A, 0x4A, 0x4E, 0x8E, 0x8F, 0x4F, 0x8D, 0x4D, 0x4C, 0x8C, 
 165:.\Generated_Source\PSoC4/Bootloader.c **** 0x44, 0x84, 0x85, 0x45, 0x87, 0x47, 0x46, 0x86, 0x82, 0x42, 
 166:.\Generated_Source\PSoC4/Bootloader.c **** 0x43, 0x83, 0x41, 0x81, 0x80, 0x40 		   
 167:.\Generated_Source\PSoC4/Bootloader.c **** } ;
 168:.\Generated_Source\PSoC4/Bootloader.c **** /**
 169:.\Generated_Source\PSoC4/Bootloader.c ****  * @brief      计算CRC16数据
 170:.\Generated_Source\PSoC4/Bootloader.c ****  * @param     puchMsg:需要计算的数据指针
 171:.\Generated_Source\PSoC4/Bootloader.c **** 　*            usDataLen：数据长度
 172:.\Generated_Source\PSoC4/Bootloader.c ****  * @return     返回CRC16结果
 173:.\Generated_Source\PSoC4/Bootloader.c **** 　* @details     
 174:.\Generated_Source\PSoC4/Bootloader.c **** */
 175:.\Generated_Source\PSoC4/Bootloader.c **** uint16 crc16(uint8 *puchMsg, uint16 usDataLen) 
 176:.\Generated_Source\PSoC4/Bootloader.c **** { 
 177:.\Generated_Source\PSoC4/Bootloader.c **** 	uint8 uchCRCHi = 0xFF ; /* 高CRC字节初始化 */ 
 178:.\Generated_Source\PSoC4/Bootloader.c **** 	uint8 uchCRCLo = 0xFF ; /* 低CRC 字节初始化 */ 
 179:.\Generated_Source\PSoC4/Bootloader.c **** 	uint32 uIndex ; /* CRC循环中的索引 */ 
 180:.\Generated_Source\PSoC4/Bootloader.c **** 	while (usDataLen--) /* 传输消息缓冲区 */ 
 181:.\Generated_Source\PSoC4/Bootloader.c **** 	{ 
 182:.\Generated_Source\PSoC4/Bootloader.c **** 		uIndex = uchCRCHi ^ *puchMsg++ ; /* 计算CRC */ 
 183:.\Generated_Source\PSoC4/Bootloader.c **** 		uchCRCHi = uchCRCLo ^ auchCRCHi[uIndex] ; 
 184:.\Generated_Source\PSoC4/Bootloader.c **** 		uchCRCLo = auchCRCLo[uIndex] ; 
 185:.\Generated_Source\PSoC4/Bootloader.c **** 	} 
 186:.\Generated_Source\PSoC4/Bootloader.c **** 	return (uchCRCHi << 8 | uchCRCLo);	
 187:.\Generated_Source\PSoC4/Bootloader.c **** }
 188:.\Generated_Source\PSoC4/Bootloader.c **** /**************************************************************************************************
 189:.\Generated_Source\PSoC4/Bootloader.c **** ** 函数名称: void Comm_Uart_0_PrintHex8(uint8 value)
 190:.\Generated_Source\PSoC4/Bootloader.c **** ** 功能描述: 从串口发送数据
 191:.\Generated_Source\PSoC4/Bootloader.c **** ** 入口参数:	无
 192:.\Generated_Source\PSoC4/Bootloader.c **** ** 出口参数:	无
 193:.\Generated_Source\PSoC4/Bootloader.c **** ***************************************************************************************************
 194:.\Generated_Source\PSoC4/Bootloader.c **** void Comm_Uart_0_PrintHex8(uint8 value)
 195:.\Generated_Source\PSoC4/Bootloader.c **** {
 196:.\Generated_Source\PSoC4/Bootloader.c ****     while(UART_0_FIFO_SIZE == UART_0_GET_TX_FIFO_ENTRIES);
 197:.\Generated_Source\PSoC4/Bootloader.c ****     UART_0_TX_FIFO_WR_REG = (uint8)(value);
 198:.\Generated_Source\PSoC4/Bootloader.c **** }
 199:.\Generated_Source\PSoC4/Bootloader.c **** /**************************************************************************************************
 200:.\Generated_Source\PSoC4/Bootloader.c **** ** 函数名称: void UART_putchar(void)
 201:.\Generated_Source\PSoC4/Bootloader.c **** ** 功能描述: 从串口发送数据
 202:.\Generated_Source\PSoC4/Bootloader.c **** ** 入口参数:	无
 203:.\Generated_Source\PSoC4/Bootloader.c **** ** 出口参数:	无
 204:.\Generated_Source\PSoC4/Bootloader.c **** ***************************************************************************************************
ARM GAS  C:\Users\ZHANGM~1\AppData\Local\Temp\ccse5bds.s 			page 5


 205:.\Generated_Source\PSoC4/Bootloader.c **** void Uart_0_Putchar(void)
 206:.\Generated_Source\PSoC4/Bootloader.c **** {
 207:.\Generated_Source\PSoC4/Bootloader.c ****     	if(F_uart_0_tx!=0)
 208:.\Generated_Source\PSoC4/Bootloader.c **** 		{
 209:.\Generated_Source\PSoC4/Bootloader.c ****     if(iSendCounter!=(iUartSendLen+1))
 210:.\Generated_Source\PSoC4/Bootloader.c **** 		{
 211:.\Generated_Source\PSoC4/Bootloader.c ****           Comm_Uart_0_PrintHex8(cpSendBufPtr[iSendCounter++]);
 212:.\Generated_Source\PSoC4/Bootloader.c **** 	    }
 213:.\Generated_Source\PSoC4/Bootloader.c ****         }
 214:.\Generated_Source\PSoC4/Bootloader.c **** 
 215:.\Generated_Source\PSoC4/Bootloader.c **** }
 216:.\Generated_Source\PSoC4/Bootloader.c **** 
 217:.\Generated_Source\PSoC4/Bootloader.c **** /**************************************************************************************************
 218:.\Generated_Source\PSoC4/Bootloader.c **** ** 函数名称: void UART_SendData(unsigned char	 *data_buf,unsigned char	 count)
 219:.\Generated_Source\PSoC4/Bootloader.c **** ** 功能描述: 从串口发送数据
 220:.\Generated_Source\PSoC4/Bootloader.c **** ** 入口参数: data_buf:发送数据缓冲区首地址
 221:.\Generated_Source\PSoC4/Bootloader.c **** **			 count	:发送字节数
 222:.\Generated_Source\PSoC4/Bootloader.c **** ** 出口参数:	无
 223:.\Generated_Source\PSoC4/Bootloader.c **** ***************************************************************************************************
 224:.\Generated_Source\PSoC4/Bootloader.c **** void UART_SendData(uint8	 *data_buf,uint16 iCount)
 225:.\Generated_Source\PSoC4/Bootloader.c **** {
 226:.\Generated_Source\PSoC4/Bootloader.c **** 	iUartSendLen = iCount-1;
 227:.\Generated_Source\PSoC4/Bootloader.c **** 	iSendCounter = 0;
 228:.\Generated_Source\PSoC4/Bootloader.c **** 	cpSendBufPtr = &data_buf[0];
 229:.\Generated_Source\PSoC4/Bootloader.c **** }
 230:.\Generated_Source\PSoC4/Bootloader.c **** 
 231:.\Generated_Source\PSoC4/Bootloader.c **** /******************************************************************************
 232:.\Generated_Source\PSoC4/Bootloader.c **** * 函 数 名: Sum_Make_Verify (uint8 *pBuf, uint len)
 233:.\Generated_Source\PSoC4/Bootloader.c **** * 函数功能: 串口接收程序
 234:.\Generated_Source\PSoC4/Bootloader.c **** * 入口参数: 无
 235:.\Generated_Source\PSoC4/Bootloader.c **** * 返    回: 
 236:.\Generated_Source\PSoC4/Bootloader.c **** *******************************************************************************/
 237:.\Generated_Source\PSoC4/Bootloader.c **** uint8 Sum_Make_Verify (uint8 *PBuf, uint16 Len)
 238:.\Generated_Source\PSoC4/Bootloader.c **** {
 239:.\Generated_Source\PSoC4/Bootloader.c ****     uint8 Verify = 0;
 240:.\Generated_Source\PSoC4/Bootloader.c ****     while (Len--)
 241:.\Generated_Source\PSoC4/Bootloader.c ****     {
 242:.\Generated_Source\PSoC4/Bootloader.c ****         Verify = Verify + (*PBuf);
 243:.\Generated_Source\PSoC4/Bootloader.c ****         ++ PBuf;
 244:.\Generated_Source\PSoC4/Bootloader.c ****     }
 245:.\Generated_Source\PSoC4/Bootloader.c ****     return (~Verify + 1);
 246:.\Generated_Source\PSoC4/Bootloader.c **** }
 247:.\Generated_Source\PSoC4/Bootloader.c **** /*
 248:.\Generated_Source\PSoC4/Bootloader.c **** ***************************************************************************************************
 249:.\Generated_Source\PSoC4/Bootloader.c **** ** 函数名称 ：SendDataToWifi()
 250:.\Generated_Source\PSoC4/Bootloader.c **** ** 函数功能 ：发送数据到WIFI模块                          
 251:.\Generated_Source\PSoC4/Bootloader.c **** ** 入口参数 ：cCtl：控制字类型 
 252:.\Generated_Source\PSoC4/Bootloader.c ****   							0x00(主动发送指令要求对方回复) 
 253:.\Generated_Source\PSoC4/Bootloader.c ****   							0x80(返回指令) 
 254:.\Generated_Source\PSoC4/Bootloader.c ****   							0x40(主动发送无需对方回复)
 255:.\Generated_Source\PSoC4/Bootloader.c ****               unsigned char  *DataBuf  数据缓存区            
 256:.\Generated_Source\PSoC4/Bootloader.c ****               unsigned int   iLength   数据长度          
 257:.\Generated_Source\PSoC4/Bootloader.c **** ** 出口参数 ：无
 258:.\Generated_Source\PSoC4/Bootloader.c **** ***************************************************************************************************
 259:.\Generated_Source\PSoC4/Bootloader.c **** */
 260:.\Generated_Source\PSoC4/Bootloader.c **** void  SendDataToWifi(uint8 cCtl,
 261:.\Generated_Source\PSoC4/Bootloader.c ****                       uint16 cCommand,
ARM GAS  C:\Users\ZHANGM~1\AppData\Local\Temp\ccse5bds.s 			page 6


 262:.\Generated_Source\PSoC4/Bootloader.c ****                      uint8 *DataBuf,
 263:.\Generated_Source\PSoC4/Bootloader.c **** 		     							uint16 iLength)
 264:.\Generated_Source\PSoC4/Bootloader.c **** {
 265:.\Generated_Source\PSoC4/Bootloader.c ****  
 266:.\Generated_Source\PSoC4/Bootloader.c ****     uint16 xxxxx;
 267:.\Generated_Source\PSoC4/Bootloader.c ****     static uint8 cBuf[255]; ////51 has only 256 data in soc
 268:.\Generated_Source\PSoC4/Bootloader.c ****     memset(cBuf,0x00,WIFIBUFLEN);
 269:.\Generated_Source\PSoC4/Bootloader.c ****     cBuf[0] = WIFI_SYN_0;        	     // SYNC0
 270:.\Generated_Source\PSoC4/Bootloader.c ****     cBuf[1] = WIFI_SYN_1;        	     // SYNC1
 271:.\Generated_Source\PSoC4/Bootloader.c ****     cBuf[2] = 0x01;   //MCU_PROTOCOL_VERSION 
 272:.\Generated_Source\PSoC4/Bootloader.c ****     if(cCommand==0xccc5)
 273:.\Generated_Source\PSoC4/Bootloader.c ****     {
 274:.\Generated_Source\PSoC4/Bootloader.c ****         cBuf[3]=0;
 275:.\Generated_Source\PSoC4/Bootloader.c ****         cBuf[4]=0x00;
 276:.\Generated_Source\PSoC4/Bootloader.c ****     }
 277:.\Generated_Source\PSoC4/Bootloader.c ****     else
 278:.\Generated_Source\PSoC4/Bootloader.c ****     {
 279:.\Generated_Source\PSoC4/Bootloader.c ****         cBuf[3]=z_itotalcount;
 280:.\Generated_Source\PSoC4/Bootloader.c ****         cBuf[4]=z_iicount;
 281:.\Generated_Source\PSoC4/Bootloader.c ****     }
 282:.\Generated_Source\PSoC4/Bootloader.c ****     cBuf[5] = cCtl;   	 // Wctrl
 283:.\Generated_Source\PSoC4/Bootloader.c ****     cBuf[6] =  (cCommand)>>8;//长度0
 284:.\Generated_Source\PSoC4/Bootloader.c ****     cBuf[7] =(cCommand)&0x00ff;//长度1	  cBuf[8]=(iLength)>>8;//长度0
 285:.\Generated_Source\PSoC4/Bootloader.c ****     cBuf[8] =(iLength)>>8;//长度0
 286:.\Generated_Source\PSoC4/Bootloader.c ****     cBuf[9] =(iLength)&0x00ff;//长度1
 287:.\Generated_Source\PSoC4/Bootloader.c ****     //cBuf[iLength+10]=0x44;
 288:.\Generated_Source\PSoC4/Bootloader.c ****     
 289:.\Generated_Source\PSoC4/Bootloader.c ****     if(iLength!=0)
 290:.\Generated_Source\PSoC4/Bootloader.c ****     {
 291:.\Generated_Source\PSoC4/Bootloader.c ****         memcpy(&cBuf[10],DataBuf,iLength);
 292:.\Generated_Source\PSoC4/Bootloader.c ****            // xxxxx=crc16(cBuf,10+iLength);
 293:.\Generated_Source\PSoC4/Bootloader.c ****         xxxxx=crc16(&cBuf[0],10+iLength);
 294:.\Generated_Source\PSoC4/Bootloader.c ****         cBuf[iLength+10] =xxxxx>>8;
 295:.\Generated_Source\PSoC4/Bootloader.c ****         cBuf[iLength+11] =xxxxx;
 296:.\Generated_Source\PSoC4/Bootloader.c ****         //cBuf[iLength+10]=0x88;
 297:.\Generated_Source\PSoC4/Bootloader.c ****     }
 298:.\Generated_Source\PSoC4/Bootloader.c ****     else
 299:.\Generated_Source\PSoC4/Bootloader.c ****     {
 300:.\Generated_Source\PSoC4/Bootloader.c ****         xxxxx=crc16(&cBuf[0],10);
 301:.\Generated_Source\PSoC4/Bootloader.c ****         cBuf[iLength+10] = xxxxx>>8;
 302:.\Generated_Source\PSoC4/Bootloader.c ****         cBuf[iLength+11] = xxxxx;
 303:.\Generated_Source\PSoC4/Bootloader.c ****         
 304:.\Generated_Source\PSoC4/Bootloader.c ****     }
 305:.\Generated_Source\PSoC4/Bootloader.c **** 		WifidatagramWorkFlag.flag_Uart_Work=1; 
 306:.\Generated_Source\PSoC4/Bootloader.c ****     CyGlobalIntDisable;                  //应答时间设置
 307:.\Generated_Source\PSoC4/Bootloader.c ****     UART_SendData(cBuf,iLength+12);   ///The Last six 0x00 is PADDING
 308:.\Generated_Source\PSoC4/Bootloader.c ****     CyGlobalIntEnable; 
 309:.\Generated_Source\PSoC4/Bootloader.c **** }
 310:.\Generated_Source\PSoC4/Bootloader.c **** 
 311:.\Generated_Source\PSoC4/Bootloader.c **** 
 312:.\Generated_Source\PSoC4/Bootloader.c **** 
 313:.\Generated_Source\PSoC4/Bootloader.c **** /*
 314:.\Generated_Source\PSoC4/Bootloader.c **** 	========================================================================
 315:.\Generated_Source\PSoC4/Bootloader.c **** * 函 数 名: LodaUARTData(   IN unsigned char  UartData)
 316:.\Generated_Source\PSoC4/Bootloader.c **** * 函数功能: 串口发送程序
 317:.\Generated_Source\PSoC4/Bootloader.c **** * 入口参数: UartData
 318:.\Generated_Source\PSoC4/Bootloader.c **** * 返    回: 
ARM GAS  C:\Users\ZHANGM~1\AppData\Local\Temp\ccse5bds.s 			page 7


 319:.\Generated_Source\PSoC4/Bootloader.c **** 	========================================================================
 320:.\Generated_Source\PSoC4/Bootloader.c **** */
 321:.\Generated_Source\PSoC4/Bootloader.c **** void LoadUARTData(uint8  UartData)
 322:.\Generated_Source\PSoC4/Bootloader.c **** {
 323:.\Generated_Source\PSoC4/Bootloader.c **** 	switch (gcWifiCommunState)
 324:.\Generated_Source\PSoC4/Bootloader.c **** 		{
 325:.\Generated_Source\PSoC4/Bootloader.c **** 			 case WIFI_WAIT_SYN_0:		                 // 1数据包头FA
 326:.\Generated_Source\PSoC4/Bootloader.c **** 			   		if(UartData==WIFI_SYN_0)
 327:.\Generated_Source\PSoC4/Bootloader.c ****   			   		gcWifiCommunState = WIFI_WAIT_SYN_1;
 328:.\Generated_Source\PSoC4/Bootloader.c ****   			  	    ATReceBuffer[0].gcATReceData[0]= UartData;
 329:.\Generated_Source\PSoC4/Bootloader.c **** 			  		break;
 330:.\Generated_Source\PSoC4/Bootloader.c **** 			 case WIFI_WAIT_SYN_1:		                // 2数据包头FB
 331:.\Generated_Source\PSoC4/Bootloader.c **** 			   		if(UartData==WIFI_SYN_1)
 332:.\Generated_Source\PSoC4/Bootloader.c ****   			   		gcWifiCommunState = WIFI_PROTOCOL_JUDGE;
 333:.\Generated_Source\PSoC4/Bootloader.c ****   			  	    ATReceBuffer[0].gcATReceData[1]= UartData;
 334:.\Generated_Source\PSoC4/Bootloader.c **** 			  		break;
 335:.\Generated_Source\PSoC4/Bootloader.c **** 			 case WIFI_PROTOCOL_JUDGE:                //3协议版本
 336:.\Generated_Source\PSoC4/Bootloader.c **** 			 			if(UartData==0x01)
 337:.\Generated_Source\PSoC4/Bootloader.c ****   			   		gcWifiCommunState = WIFI_TOTAL_FRAME_NUM;
 338:.\Generated_Source\PSoC4/Bootloader.c ****   			  	ATReceBuffer[0].gcATReceData[2]= UartData;
 339:.\Generated_Source\PSoC4/Bootloader.c **** 			  		break;
 340:.\Generated_Source\PSoC4/Bootloader.c **** 			 case WIFI_TOTAL_FRAME_NUM:               //4总帧数量
 341:.\Generated_Source\PSoC4/Bootloader.c **** 			 			gcWifiCommunState = WIFI_FRAME_NUM;
 342:.\Generated_Source\PSoC4/Bootloader.c **** 
 343:.\Generated_Source\PSoC4/Bootloader.c ****   			  	ATReceBuffer[0].gcATReceData[3]= UartData;
 344:.\Generated_Source\PSoC4/Bootloader.c **** 			  		break;		
 345:.\Generated_Source\PSoC4/Bootloader.c **** 			 case WIFI_FRAME_NUM:                    //5帧序号
 346:.\Generated_Source\PSoC4/Bootloader.c **** 			 			gcWifiCommunState = WIFI_WAIT_CTL;
 347:.\Generated_Source\PSoC4/Bootloader.c **** 
 348:.\Generated_Source\PSoC4/Bootloader.c ****   			  	ATReceBuffer[0].gcATReceData[4]= UartData;
 349:.\Generated_Source\PSoC4/Bootloader.c **** 			  		break;		
 350:.\Generated_Source\PSoC4/Bootloader.c **** 			 case WIFI_WAIT_CTL:	               // 6控制字
 351:.\Generated_Source\PSoC4/Bootloader.c **** 			    	gcWIFICTL = UartData;
 352:.\Generated_Source\PSoC4/Bootloader.c **** 						gcWifiCommunState = WIFI_COMMAND_1;
 353:.\Generated_Source\PSoC4/Bootloader.c ****   			  	ATReceBuffer[0].gcATReceData[5]= UartData;
 354:.\Generated_Source\PSoC4/Bootloader.c **** 			 			break;		 
 355:.\Generated_Source\PSoC4/Bootloader.c **** 			 case WIFI_COMMAND_1:	           // 7指令1
 356:.\Generated_Source\PSoC4/Bootloader.c **** 			    	giWIFICommand = UartData;
 357:.\Generated_Source\PSoC4/Bootloader.c **** 						gcWifiCommunState = WIFI_COMMAND_2;
 358:.\Generated_Source\PSoC4/Bootloader.c ****   			  	ATReceBuffer[0].gcATReceData[6]= UartData;
 359:.\Generated_Source\PSoC4/Bootloader.c **** 			 			break;
 360:.\Generated_Source\PSoC4/Bootloader.c **** 			 case WIFI_COMMAND_2:			  // 8指令2
 361:.\Generated_Source\PSoC4/Bootloader.c **** 			    	giWIFICommand = (giWIFICommand<<8)+UartData;
 362:.\Generated_Source\PSoC4/Bootloader.c ****       				  gcWifiCommunState = WIFI_LENGTH1;     
 363:.\Generated_Source\PSoC4/Bootloader.c ****   			  	ATReceBuffer[0].gcATReceData[7]= UartData;
 364:.\Generated_Source\PSoC4/Bootloader.c **** 			 			break;			 					  		
 365:.\Generated_Source\PSoC4/Bootloader.c **** 			 case WIFI_LENGTH1:	           // 9数据长度1
 366:.\Generated_Source\PSoC4/Bootloader.c **** 			    	giWIFIDATALength = UartData;
 367:.\Generated_Source\PSoC4/Bootloader.c **** 						gcWifiCommunState = WIFI_LENGTH2;
 368:.\Generated_Source\PSoC4/Bootloader.c ****   			  	ATReceBuffer[0].gcATReceData[8]= UartData;
 369:.\Generated_Source\PSoC4/Bootloader.c **** 			 			break;
 370:.\Generated_Source\PSoC4/Bootloader.c **** 			 case WIFI_LENGTH2:			  // 10数据长度2
 371:.\Generated_Source\PSoC4/Bootloader.c **** 			    	giWIFIDATALength = (giWIFIDATALength<<8)+UartData;
 372:.\Generated_Source\PSoC4/Bootloader.c ****     				if(giWIFIDATALength>0)   // 
 373:.\Generated_Source\PSoC4/Bootloader.c ****       				{
 374:.\Generated_Source\PSoC4/Bootloader.c ****       				  gcWifiCommunState = WIFI_RECEDATA;
 375:.\Generated_Source\PSoC4/Bootloader.c ****       				} 
ARM GAS  C:\Users\ZHANGM~1\AppData\Local\Temp\ccse5bds.s 			page 8


 376:.\Generated_Source\PSoC4/Bootloader.c ****     				else
 377:.\Generated_Source\PSoC4/Bootloader.c ****       				{
 378:.\Generated_Source\PSoC4/Bootloader.c ****       				   gcWifiCommunState = WIFI_CHCK00; 
 379:.\Generated_Source\PSoC4/Bootloader.c ****       				}
 380:.\Generated_Source\PSoC4/Bootloader.c ****   			  	ATReceBuffer[0].gcATReceData[9]= UartData;
 381:.\Generated_Source\PSoC4/Bootloader.c **** 			 			break;
 382:.\Generated_Source\PSoC4/Bootloader.c ****     	case WIFI_CHCK00:	  // 11校验 
 383:.\Generated_Source\PSoC4/Bootloader.c ****     				if (ATReceBuffer[0].gcATReceCount<=(WIFIBUFLEN-10-1)) 
 384:.\Generated_Source\PSoC4/Bootloader.c ****     					{
 385:.\Generated_Source\PSoC4/Bootloader.c ****   			    		ATReceBuffer[0].gcATReceData[10+ATReceBuffer[0].gcATReceCount]= UartData; 
 386:.\Generated_Source\PSoC4/Bootloader.c **** 	      				gcWifiCommunState = WIFI_CHCK01;
 387:.\Generated_Source\PSoC4/Bootloader.c ****     					}  
 388:.\Generated_Source\PSoC4/Bootloader.c ****                         
 389:.\Generated_Source\PSoC4/Bootloader.c **** 			 			break;
 390:.\Generated_Source\PSoC4/Bootloader.c ****         case WIFI_CHCK01:	  // 11校验 
 391:.\Generated_Source\PSoC4/Bootloader.c ****     				if (ATReceBuffer[0].gcATReceCount<=(WIFIBUFLEN-10-1)) 
 392:.\Generated_Source\PSoC4/Bootloader.c ****     					{
 393:.\Generated_Source\PSoC4/Bootloader.c ****   			    		ATReceBuffer[0].gcATReceData[11+ATReceBuffer[0].gcATReceCount]= UartData; 
 394:.\Generated_Source\PSoC4/Bootloader.c ****   			    		ATReceBuffer[0].gcATReceCount = 0;
 395:.\Generated_Source\PSoC4/Bootloader.c **** 	      				gcWifiCommunState = WIFI_WAIT_SYN_0;
 396:.\Generated_Source\PSoC4/Bootloader.c **** 	      				WifiWorkFlag.gcReceComm1OK = 1;  // 数据成功接收完毕 
 397:.\Generated_Source\PSoC4/Bootloader.c ****     					}         						
 398:.\Generated_Source\PSoC4/Bootloader.c **** 			 			break;                
 399:.\Generated_Source\PSoC4/Bootloader.c **** 		case WIFI_RECEDATA:  // 12数据内容
 400:.\Generated_Source\PSoC4/Bootloader.c ****     				if (ATReceBuffer[0].gcATReceCount<(WIFIBUFLEN-10-1)) 
 401:.\Generated_Source\PSoC4/Bootloader.c ****     					{
 402:.\Generated_Source\PSoC4/Bootloader.c ****   			    		ATReceBuffer[0].gcATReceData[10+ATReceBuffer[0].gcATReceCount]= UartData;
 403:.\Generated_Source\PSoC4/Bootloader.c ****   			    		ATReceBuffer[0].gcATReceCount++;    						
 404:.\Generated_Source\PSoC4/Bootloader.c ****     					}
 405:.\Generated_Source\PSoC4/Bootloader.c **** 
 406:.\Generated_Source\PSoC4/Bootloader.c ****     				if(ATReceBuffer[0].gcATReceCount == giWIFIDATALength)
 407:.\Generated_Source\PSoC4/Bootloader.c ****     				{
 408:.\Generated_Source\PSoC4/Bootloader.c ****     				  	gcWifiCommunState = WIFI_CHCK00;
 409:.\Generated_Source\PSoC4/Bootloader.c ****     				}
 410:.\Generated_Source\PSoC4/Bootloader.c ****     			 	break;
 411:.\Generated_Source\PSoC4/Bootloader.c **** 		default:
 412:.\Generated_Source\PSoC4/Bootloader.c **** 			 	gcWifiCommunState = WIFI_WAIT_SYN_0;	
 413:.\Generated_Source\PSoC4/Bootloader.c **** 		}
 414:.\Generated_Source\PSoC4/Bootloader.c **** }
 415:.\Generated_Source\PSoC4/Bootloader.c **** /*******************************************************************************
 416:.\Generated_Source\PSoC4/Bootloader.c **** *                       Buzzer
 417:.\Generated_Source\PSoC4/Bootloader.c **** ********************************************************************************/
 418:.\Generated_Source\PSoC4/Bootloader.c **** void Buzzer_Fun(void)
 419:.\Generated_Source\PSoC4/Bootloader.c **** {
 420:.\Generated_Source\PSoC4/Bootloader.c ****     
 421:.\Generated_Source\PSoC4/Bootloader.c **** 	if(BUZfkg==1)//按键提示音
 422:.\Generated_Source\PSoC4/Bootloader.c **** 		{       
 423:.\Generated_Source\PSoC4/Bootloader.c **** 		    if(BuzzerDly>1000000)
 424:.\Generated_Source\PSoC4/Bootloader.c ****             {
 425:.\Generated_Source\PSoC4/Bootloader.c **** 		        PWM_Start();
 426:.\Generated_Source\PSoC4/Bootloader.c **** 
 427:.\Generated_Source\PSoC4/Bootloader.c ****             }
 428:.\Generated_Source\PSoC4/Bootloader.c **** 		    if(BuzzerDly>1005000)
 429:.\Generated_Source\PSoC4/Bootloader.c **** 		    {
 430:.\Generated_Source\PSoC4/Bootloader.c ****                 BuzzerDly=0;
 431:.\Generated_Source\PSoC4/Bootloader.c **** 		        PWM_Stop();
 432:.\Generated_Source\PSoC4/Bootloader.c **** 		        BuzzerDly=0; 
ARM GAS  C:\Users\ZHANGM~1\AppData\Local\Temp\ccse5bds.s 			page 9


 433:.\Generated_Source\PSoC4/Bootloader.c **** 		       // BUZfkg=0;     
 434:.\Generated_Source\PSoC4/Bootloader.c **** 		    }
 435:.\Generated_Source\PSoC4/Bootloader.c ****             BuzzerDly++;
 436:.\Generated_Source\PSoC4/Bootloader.c **** 		}
 437:.\Generated_Source\PSoC4/Bootloader.c **** 
 438:.\Generated_Source\PSoC4/Bootloader.c ****     
 439:.\Generated_Source\PSoC4/Bootloader.c **** }
 440:.\Generated_Source\PSoC4/Bootloader.c **** 
 441:.\Generated_Source\PSoC4/Bootloader.c **** 
 442:.\Generated_Source\PSoC4/Bootloader.c **** 
 443:.\Generated_Source\PSoC4/Bootloader.c **** 
 444:.\Generated_Source\PSoC4/Bootloader.c **** /*******************************************************************************
 445:.\Generated_Source\PSoC4/Bootloader.c **** * Function Name: Bootloader_Calc8BitSum
 446:.\Generated_Source\PSoC4/Bootloader.c **** ********************************************************************************
 447:.\Generated_Source\PSoC4/Bootloader.c **** *
 448:.\Generated_Source\PSoC4/Bootloader.c **** * Summary:
 449:.\Generated_Source\PSoC4/Bootloader.c **** *  This computes the 8 bit sum for the provided number of bytes contained in
 450:.\Generated_Source\PSoC4/Bootloader.c **** *  FLASH (if baseAddr equals CY_FLASH_BASE) or EEPROM (if baseAddr equals
 451:.\Generated_Source\PSoC4/Bootloader.c **** *  CY_EEPROM_BASE).
 452:.\Generated_Source\PSoC4/Bootloader.c **** *
 453:.\Generated_Source\PSoC4/Bootloader.c **** * Parameters:
 454:.\Generated_Source\PSoC4/Bootloader.c **** * baseAddr:
 455:.\Generated_Source\PSoC4/Bootloader.c **** *   CY_FLASH_BASE
 456:.\Generated_Source\PSoC4/Bootloader.c **** *   CY_EEPROM_BASE - applicable only for PSoC 3 / PSoC 5LP devices.
 457:.\Generated_Source\PSoC4/Bootloader.c **** *
 458:.\Generated_Source\PSoC4/Bootloader.c **** *  start:
 459:.\Generated_Source\PSoC4/Bootloader.c **** *     The starting address to start summing data for
 460:.\Generated_Source\PSoC4/Bootloader.c **** *  size:
 461:.\Generated_Source\PSoC4/Bootloader.c **** *     The number of bytes to read and compute the sum for
 462:.\Generated_Source\PSoC4/Bootloader.c **** *
 463:.\Generated_Source\PSoC4/Bootloader.c **** * Returns:
 464:.\Generated_Source\PSoC4/Bootloader.c **** *   8 bit sum for the provided data
 465:.\Generated_Source\PSoC4/Bootloader.c **** *
 466:.\Generated_Source\PSoC4/Bootloader.c **** *******************************************************************************/
 467:.\Generated_Source\PSoC4/Bootloader.c **** uint8 Bootloader_Calc8BitSum(uint32 baseAddr, uint32 start, uint32 size) \
 468:.\Generated_Source\PSoC4/Bootloader.c ****                 CYSMALL 
 469:.\Generated_Source\PSoC4/Bootloader.c **** {
 470:.\Generated_Source\PSoC4/Bootloader.c ****     uint8 CYDATA sum = 0u;
 471:.\Generated_Source\PSoC4/Bootloader.c ****     CYASSERT(baseAddr == CY_FLASH_BASE);
 472:.\Generated_Source\PSoC4/Bootloader.c **** 
 473:.\Generated_Source\PSoC4/Bootloader.c **** 
 474:.\Generated_Source\PSoC4/Bootloader.c ****     while (size > 0u)
 475:.\Generated_Source\PSoC4/Bootloader.c ****     {
 476:.\Generated_Source\PSoC4/Bootloader.c ****         size--;
 477:.\Generated_Source\PSoC4/Bootloader.c ****         sum += (*((uint8  *)(baseAddr + start + size)));
 478:.\Generated_Source\PSoC4/Bootloader.c ****     }
 479:.\Generated_Source\PSoC4/Bootloader.c **** 
 480:.\Generated_Source\PSoC4/Bootloader.c ****     return(sum);
 481:.\Generated_Source\PSoC4/Bootloader.c **** }
 482:.\Generated_Source\PSoC4/Bootloader.c **** 
 483:.\Generated_Source\PSoC4/Bootloader.c **** 
 484:.\Generated_Source\PSoC4/Bootloader.c **** /*******************************************************************************
 485:.\Generated_Source\PSoC4/Bootloader.c **** * Function Name: Bootloader_Start
 486:.\Generated_Source\PSoC4/Bootloader.c **** ********************************************************************************
 487:.\Generated_Source\PSoC4/Bootloader.c **** * Summary:
 488:.\Generated_Source\PSoC4/Bootloader.c **** *  This function is called in order to execute the following algorithm:
 489:.\Generated_Source\PSoC4/Bootloader.c **** *
ARM GAS  C:\Users\ZHANGM~1\AppData\Local\Temp\ccse5bds.s 			page 10


 490:.\Generated_Source\PSoC4/Bootloader.c **** *  - Identify the active bootloadable application (applicable only to
 491:.\Generated_Source\PSoC4/Bootloader.c **** *    the Multi-application bootloader)
 492:.\Generated_Source\PSoC4/Bootloader.c **** *
 493:.\Generated_Source\PSoC4/Bootloader.c **** *  - Validate the bootloader application (design-time configurable, Bootloader
 494:.\Generated_Source\PSoC4/Bootloader.c **** *    application validation option of the component customizer)
 495:.\Generated_Source\PSoC4/Bootloader.c **** *
 496:.\Generated_Source\PSoC4/Bootloader.c **** *  - Validate the active bootloadable application. If active bootloadable
 497:.\Generated_Source\PSoC4/Bootloader.c **** *    application is not valid, and the other bootloadable application (inactive)
 498:.\Generated_Source\PSoC4/Bootloader.c **** *    is valid, the last one is started.
 499:.\Generated_Source\PSoC4/Bootloader.c **** *
 500:.\Generated_Source\PSoC4/Bootloader.c **** *  - Run a communication subroutine (design-time configurable, Wait for command
 501:.\Generated_Source\PSoC4/Bootloader.c **** *    option of the component customizer)
 502:.\Generated_Source\PSoC4/Bootloader.c **** *
 503:.\Generated_Source\PSoC4/Bootloader.c **** *  - Schedule the bootloadable and reset the device
 504:.\Generated_Source\PSoC4/Bootloader.c **** *
 505:.\Generated_Source\PSoC4/Bootloader.c **** * Parameters:
 506:.\Generated_Source\PSoC4/Bootloader.c **** *  None
 507:.\Generated_Source\PSoC4/Bootloader.c **** *
 508:.\Generated_Source\PSoC4/Bootloader.c **** * Return:
 509:.\Generated_Source\PSoC4/Bootloader.c **** *  This method will never return. It will either load a new application and
 510:.\Generated_Source\PSoC4/Bootloader.c **** *  reset the device or jump directly to the existing application. The CPU is
 511:.\Generated_Source\PSoC4/Bootloader.c **** *  halted, if validation failed when "Bootloader application validation" option
 512:.\Generated_Source\PSoC4/Bootloader.c **** *  is enabled.
 513:.\Generated_Source\PSoC4/Bootloader.c **** *  PSoC 3/PSoC 5: The CPU is halted if Flash initialization fails.
 514:.\Generated_Source\PSoC4/Bootloader.c **** *
 515:.\Generated_Source\PSoC4/Bootloader.c **** * Side Effects:
 516:.\Generated_Source\PSoC4/Bootloader.c **** *  If Bootloader application validation option is enabled and this method
 517:.\Generated_Source\PSoC4/Bootloader.c **** *  determines that the bootloader application itself is corrupt, this method
 518:.\Generated_Source\PSoC4/Bootloader.c **** *  will not return, instead it will simply hang the application.
 519:.\Generated_Source\PSoC4/Bootloader.c **** *
 520:.\Generated_Source\PSoC4/Bootloader.c **** *******************************************************************************/
 521:.\Generated_Source\PSoC4/Bootloader.c **** void Bootloader_Start(void) CYSMALL 
 522:.\Generated_Source\PSoC4/Bootloader.c **** {
 523:.\Generated_Source\PSoC4/Bootloader.c ****     cystatus validApp  = CYRET_BAD_DATA;
 524:.\Generated_Source\PSoC4/Bootloader.c ****     if (CYRET_SUCCESS == Bootloader_ValidateBootloadable(Bootloader_MD_BTLDB_ACTIVE_0))
 525:.\Generated_Source\PSoC4/Bootloader.c ****     {
 526:.\Generated_Source\PSoC4/Bootloader.c ****         validApp = CYRET_SUCCESS;
 527:.\Generated_Source\PSoC4/Bootloader.c ****     }
 528:.\Generated_Source\PSoC4/Bootloader.c **** 
 529:.\Generated_Source\PSoC4/Bootloader.c ****     /***********************************************************************
 530:.\Generated_Source\PSoC4/Bootloader.c ****     * If the active bootloadable application is invalid or a bootloader
 531:.\Generated_Source\PSoC4/Bootloader.c ****     * application is scheduled - do the following:
 532:.\Generated_Source\PSoC4/Bootloader.c ****     *  - schedule the bootloader application to be run after software reset
 533:.\Generated_Source\PSoC4/Bootloader.c ****     *  - Go to the communication subroutine. The HostLink() will wait for
 534:.\Generated_Source\PSoC4/Bootloader.c ****     *    the commands forever.
 535:.\Generated_Source\PSoC4/Bootloader.c ****     ***********************************************************************/
 536:.\Generated_Source\PSoC4/Bootloader.c ****     if ((Bootloader_GET_RUN_TYPE == Bootloader_START_BTLDR) ||
 537:.\Generated_Source\PSoC4/Bootloader.c ****         (CYRET_SUCCESS != validApp))
 538:.\Generated_Source\PSoC4/Bootloader.c ****         {
 539:.\Generated_Source\PSoC4/Bootloader.c ****                 //BUZfkg=1;
 540:.\Generated_Source\PSoC4/Bootloader.c ****             Bootloader_SET_RUN_TYPE(0u);
 541:.\Generated_Source\PSoC4/Bootloader.c **** 
 542:.\Generated_Source\PSoC4/Bootloader.c ****             Bootloader_HostLink();
 543:.\Generated_Source\PSoC4/Bootloader.c ****         }
 544:.\Generated_Source\PSoC4/Bootloader.c ****     /* Schedule bootloadable application and perform software reset */
 545:.\Generated_Source\PSoC4/Bootloader.c **** 
 546:.\Generated_Source\PSoC4/Bootloader.c ****     Bootloader_LaunchApplication();
ARM GAS  C:\Users\ZHANGM~1\AppData\Local\Temp\ccse5bds.s 			page 11


 547:.\Generated_Source\PSoC4/Bootloader.c **** }
 548:.\Generated_Source\PSoC4/Bootloader.c **** 
 549:.\Generated_Source\PSoC4/Bootloader.c **** 
 550:.\Generated_Source\PSoC4/Bootloader.c **** /*******************************************************************************
 551:.\Generated_Source\PSoC4/Bootloader.c **** * Function Name: Bootloader_LaunchApplication
 552:.\Generated_Source\PSoC4/Bootloader.c **** ********************************************************************************
 553:.\Generated_Source\PSoC4/Bootloader.c **** *
 554:.\Generated_Source\PSoC4/Bootloader.c **** * Summary:
 555:.\Generated_Source\PSoC4/Bootloader.c **** *  Schedules bootloadable application and resets device
 556:.\Generated_Source\PSoC4/Bootloader.c **** *
 557:.\Generated_Source\PSoC4/Bootloader.c **** * Parameters:
 558:.\Generated_Source\PSoC4/Bootloader.c **** *  None
 559:.\Generated_Source\PSoC4/Bootloader.c **** *
 560:.\Generated_Source\PSoC4/Bootloader.c **** * Returns:
 561:.\Generated_Source\PSoC4/Bootloader.c **** *  This method will never return.
 562:.\Generated_Source\PSoC4/Bootloader.c **** *
 563:.\Generated_Source\PSoC4/Bootloader.c **** *******************************************************************************/
 564:.\Generated_Source\PSoC4/Bootloader.c **** static void Bootloader_LaunchApplication(void) CYSMALL 
 565:.\Generated_Source\PSoC4/Bootloader.c **** {
 566:.\Generated_Source\PSoC4/Bootloader.c ****     /* Schedule Bootloadable to start after reset */
 567:.\Generated_Source\PSoC4/Bootloader.c ****     Bootloader_SET_RUN_TYPE(Bootloader_START_APP);
 568:.\Generated_Source\PSoC4/Bootloader.c **** 
 569:.\Generated_Source\PSoC4/Bootloader.c ****     CySoftwareReset();
 570:.\Generated_Source\PSoC4/Bootloader.c **** }
 571:.\Generated_Source\PSoC4/Bootloader.c **** 
 572:.\Generated_Source\PSoC4/Bootloader.c **** 
 573:.\Generated_Source\PSoC4/Bootloader.c **** /*******************************************************************************
 574:.\Generated_Source\PSoC4/Bootloader.c **** * Function Name: Bootloader_Exit
 575:.\Generated_Source\PSoC4/Bootloader.c **** ********************************************************************************
 576:.\Generated_Source\PSoC4/Bootloader.c **** *
 577:.\Generated_Source\PSoC4/Bootloader.c **** * Summary:
 578:.\Generated_Source\PSoC4/Bootloader.c **** *  Schedules the specified application and performs software reset to launch
 579:.\Generated_Source\PSoC4/Bootloader.c **** *  a specified application.
 580:.\Generated_Source\PSoC4/Bootloader.c **** *
 581:.\Generated_Source\PSoC4/Bootloader.c **** *  If the specified application is not valid, the Bootloader (the result of the
 582:.\Generated_Source\PSoC4/Bootloader.c **** *  ValidateBootloadable() function execution returns other than CYRET_SUCCESS,
 583:.\Generated_Source\PSoC4/Bootloader.c **** *  the bootloader application is launched.
 584:.\Generated_Source\PSoC4/Bootloader.c **** *
 585:.\Generated_Source\PSoC4/Bootloader.c **** * Parameters:
 586:.\Generated_Source\PSoC4/Bootloader.c **** *  appId: application to be started:
 587:.\Generated_Source\PSoC4/Bootloader.c **** *  Bootloader_EXIT_TO_BTLDR   - Bootloader application will be started on
 588:.\Generated_Source\PSoC4/Bootloader.c **** *                                     software reset.
 589:.\Generated_Source\PSoC4/Bootloader.c **** *  Bootloader_EXIT_TO_BTLDB,
 590:.\Generated_Source\PSoC4/Bootloader.c **** *  Bootloader_EXIT_TO_BTLDB_1 - Bootloadable application # 1 will be
 591:.\Generated_Source\PSoC4/Bootloader.c **** *                                     started on software reset.
 592:.\Generated_Source\PSoC4/Bootloader.c **** *  Bootloader_EXIT_TO_BTLDB_2 - Bootloadable application # 2 will be
 593:.\Generated_Source\PSoC4/Bootloader.c **** *                                     started on software reset. Available only
 594:.\Generated_Source\PSoC4/Bootloader.c **** *                                     if Multi-Application option is enabled in
 595:.\Generated_Source\PSoC4/Bootloader.c **** *                                     the component customizer.
 596:.\Generated_Source\PSoC4/Bootloader.c **** * Returns:
 597:.\Generated_Source\PSoC4/Bootloader.c **** *  This function never returns.
 598:.\Generated_Source\PSoC4/Bootloader.c **** *
 599:.\Generated_Source\PSoC4/Bootloader.c **** *******************************************************************************/
 600:.\Generated_Source\PSoC4/Bootloader.c **** void Bootloader_Exit(uint8 appId) CYSMALL 
 601:.\Generated_Source\PSoC4/Bootloader.c **** {
 602:.\Generated_Source\PSoC4/Bootloader.c ****     if(Bootloader_EXIT_TO_BTLDR == appId)
 603:.\Generated_Source\PSoC4/Bootloader.c ****     {
ARM GAS  C:\Users\ZHANGM~1\AppData\Local\Temp\ccse5bds.s 			page 12


 604:.\Generated_Source\PSoC4/Bootloader.c ****         Bootloader_SET_RUN_TYPE(0x0u);
 605:.\Generated_Source\PSoC4/Bootloader.c ****     }
 606:.\Generated_Source\PSoC4/Bootloader.c ****     else
 607:.\Generated_Source\PSoC4/Bootloader.c ****     {
 608:.\Generated_Source\PSoC4/Bootloader.c ****         if(CYRET_SUCCESS == Bootloader_ValidateBootloadable(appId))
 609:.\Generated_Source\PSoC4/Bootloader.c ****         {
 610:.\Generated_Source\PSoC4/Bootloader.c ****             /* Set active application in metadata */
 611:.\Generated_Source\PSoC4/Bootloader.c ****             uint8 CYDATA idx;
 612:.\Generated_Source\PSoC4/Bootloader.c ****             for(idx = 0u; idx < Bootloader_MAX_NUM_OF_BTLDB; idx++)
 613:.\Generated_Source\PSoC4/Bootloader.c ****             {
 614:.\Generated_Source\PSoC4/Bootloader.c ****                 Bootloader_SetFlashByte((uint32) Bootloader_MD_BTLDB_ACTIVE_OFFSET(idx),
 615:.\Generated_Source\PSoC4/Bootloader.c ****                                               (uint8 )(idx == appId));
 616:.\Generated_Source\PSoC4/Bootloader.c ****             }
 617:.\Generated_Source\PSoC4/Bootloader.c **** 
 618:.\Generated_Source\PSoC4/Bootloader.c **** 
 619:.\Generated_Source\PSoC4/Bootloader.c ****             Bootloader_SET_RUN_TYPE(Bootloader_SCHEDULE_BTLDB);
 620:.\Generated_Source\PSoC4/Bootloader.c ****         }
 621:.\Generated_Source\PSoC4/Bootloader.c ****         else
 622:.\Generated_Source\PSoC4/Bootloader.c ****         {
 623:.\Generated_Source\PSoC4/Bootloader.c ****             Bootloader_SET_RUN_TYPE(0u);
 624:.\Generated_Source\PSoC4/Bootloader.c ****         }
 625:.\Generated_Source\PSoC4/Bootloader.c ****     }
 626:.\Generated_Source\PSoC4/Bootloader.c **** 
 627:.\Generated_Source\PSoC4/Bootloader.c ****     CySoftwareReset();
 628:.\Generated_Source\PSoC4/Bootloader.c **** }
 629:.\Generated_Source\PSoC4/Bootloader.c **** 
 630:.\Generated_Source\PSoC4/Bootloader.c **** 
 631:.\Generated_Source\PSoC4/Bootloader.c **** /*******************************************************************************
 632:.\Generated_Source\PSoC4/Bootloader.c **** * Function Name: CyBtldr_CheckLaunch
 633:.\Generated_Source\PSoC4/Bootloader.c **** ********************************************************************************
 634:.\Generated_Source\PSoC4/Bootloader.c **** *
 635:.\Generated_Source\PSoC4/Bootloader.c **** * Summary:
 636:.\Generated_Source\PSoC4/Bootloader.c **** *  This routine checks if the bootloader or the bootloadable application has to
 637:.\Generated_Source\PSoC4/Bootloader.c **** *  be run.  If the application has to be run, it will start executing.
 638:.\Generated_Source\PSoC4/Bootloader.c **** *  If the bootloader is to be run, it will return, so the bootloader can
 639:.\Generated_Source\PSoC4/Bootloader.c **** *  continue starting up.
 640:.\Generated_Source\PSoC4/Bootloader.c **** *
 641:.\Generated_Source\PSoC4/Bootloader.c **** * Parameters:
 642:.\Generated_Source\PSoC4/Bootloader.c **** *  None
 643:.\Generated_Source\PSoC4/Bootloader.c **** *
 644:.\Generated_Source\PSoC4/Bootloader.c **** * Returns:
 645:.\Generated_Source\PSoC4/Bootloader.c **** *  It will not return if it determines that the bootloadable application should
 646:.\Generated_Source\PSoC4/Bootloader.c **** *  be run.
 647:.\Generated_Source\PSoC4/Bootloader.c **** *
 648:.\Generated_Source\PSoC4/Bootloader.c **** *******************************************************************************/
 649:.\Generated_Source\PSoC4/Bootloader.c **** void CyBtldr_CheckLaunch(void) CYSMALL 
 650:.\Generated_Source\PSoC4/Bootloader.c **** {
 651:.\Generated_Source\PSoC4/Bootloader.c **** 
 652:.\Generated_Source\PSoC4/Bootloader.c **** #if(CY_PSOC4)
 653:.\Generated_Source\PSoC4/Bootloader.c **** 
 654:.\Generated_Source\PSoC4/Bootloader.c ****     /*******************************************************************************
 655:.\Generated_Source\PSoC4/Bootloader.c ****     * Set cyBtldrRunType to zero in case of non-software reset occurred. This means
 656:.\Generated_Source\PSoC4/Bootloader.c ****     * that bootloader application is scheduled - that is initial clean state. The
 657:.\Generated_Source\PSoC4/Bootloader.c ****     * value of cyBtldrRunType is valid only in case of software reset.
 658:.\Generated_Source\PSoC4/Bootloader.c ****     *******************************************************************************/
 659:.\Generated_Source\PSoC4/Bootloader.c ****     if (0u == (Bootloader_RES_CAUSE_REG & Bootloader_RES_CAUSE_RESET_SOFT))
 660:.\Generated_Source\PSoC4/Bootloader.c ****     {
ARM GAS  C:\Users\ZHANGM~1\AppData\Local\Temp\ccse5bds.s 			page 13


 661:.\Generated_Source\PSoC4/Bootloader.c ****         cyBtldrRunType = 0u;
 662:.\Generated_Source\PSoC4/Bootloader.c ****     }
 663:.\Generated_Source\PSoC4/Bootloader.c **** 
 664:.\Generated_Source\PSoC4/Bootloader.c **** #endif /* (CY_PSOC4) */
 665:.\Generated_Source\PSoC4/Bootloader.c **** 
 666:.\Generated_Source\PSoC4/Bootloader.c **** 
 667:.\Generated_Source\PSoC4/Bootloader.c ****     if (Bootloader_GET_RUN_TYPE == Bootloader_START_APP)
 668:.\Generated_Source\PSoC4/Bootloader.c ****     {
 669:.\Generated_Source\PSoC4/Bootloader.c ****         Bootloader_SET_RUN_TYPE(0u);
 670:.\Generated_Source\PSoC4/Bootloader.c **** 
 671:.\Generated_Source\PSoC4/Bootloader.c ****         /*******************************************************************************
 672:.\Generated_Source\PSoC4/Bootloader.c ****         * Indicates that we have told ourselves to jump to the application since we have
 673:.\Generated_Source\PSoC4/Bootloader.c ****         * already told ourselves to jump, we do not do any expensive verification of the
 674:.\Generated_Source\PSoC4/Bootloader.c ****         * application. We just check to make sure that the value at CY_APP_ADDR_ADDRESS
 675:.\Generated_Source\PSoC4/Bootloader.c ****         * is something other than 0.
 676:.\Generated_Source\PSoC4/Bootloader.c ****         *******************************************************************************/
 677:.\Generated_Source\PSoC4/Bootloader.c ****         if(0u != Bootloader_GetMetadata(Bootloader_GET_BTLDB_ADDR, Bootloader_activeApp))
 678:.\Generated_Source\PSoC4/Bootloader.c ****         {
 679:.\Generated_Source\PSoC4/Bootloader.c ****             /* Never return from this method */
 680:.\Generated_Source\PSoC4/Bootloader.c ****             Bootloader_LaunchBootloadable(Bootloader_GetMetadata(Bootloader_GET_BTLDB_ADDR,
 681:.\Generated_Source\PSoC4/Bootloader.c ****                                                                              Bootloader_activeApp))
 682:.\Generated_Source\PSoC4/Bootloader.c ****         }
 683:.\Generated_Source\PSoC4/Bootloader.c ****     }
 684:.\Generated_Source\PSoC4/Bootloader.c **** }
 685:.\Generated_Source\PSoC4/Bootloader.c **** 
 686:.\Generated_Source\PSoC4/Bootloader.c **** 
 687:.\Generated_Source\PSoC4/Bootloader.c **** /* Moves argument appAddr (RO) into PC, moving execution to appAddr */
 688:.\Generated_Source\PSoC4/Bootloader.c **** #if defined (__ARMCC_VERSION)
 689:.\Generated_Source\PSoC4/Bootloader.c **** 
 690:.\Generated_Source\PSoC4/Bootloader.c ****     __asm static void Bootloader_LaunchBootloadable(uint32 appAddr)
 691:.\Generated_Source\PSoC4/Bootloader.c ****     {
 692:.\Generated_Source\PSoC4/Bootloader.c ****         BX  R0
 693:.\Generated_Source\PSoC4/Bootloader.c ****         ALIGN
 694:.\Generated_Source\PSoC4/Bootloader.c ****     }
 695:.\Generated_Source\PSoC4/Bootloader.c **** 
 696:.\Generated_Source\PSoC4/Bootloader.c **** #elif defined(__GNUC__)
 697:.\Generated_Source\PSoC4/Bootloader.c **** 
 698:.\Generated_Source\PSoC4/Bootloader.c ****     __attribute__((noinline)) /* Workaround for GCC toolchain bug with inlining */
 699:.\Generated_Source\PSoC4/Bootloader.c ****     __attribute__((naked))
 700:.\Generated_Source\PSoC4/Bootloader.c ****     static void Bootloader_LaunchBootloadable(uint32 appAddr)
 701:.\Generated_Source\PSoC4/Bootloader.c ****     {
  25              		.loc 1 701 0
  26              		.cfi_startproc
  27              	.LVL0:
 702:.\Generated_Source\PSoC4/Bootloader.c ****         __asm volatile("    BX  R0\n");
  28              		.loc 1 702 0
  29              	@ 702 ".\Generated_Source\PSoC4\Bootloader.c" 1
  30 0000 0047     		    BX  R0
  31              	
  32              	@ 0 "" 2
 703:.\Generated_Source\PSoC4/Bootloader.c ****     }
  33              		.loc 1 703 0
  34              		.code	16
  35              		.cfi_endproc
  36              	.LFE46:
  37              		.size	Bootloader_LaunchBootloadable, .-Bootloader_LaunchBootloadable
  38              		.section	.text.crc16,"ax",%progbits
ARM GAS  C:\Users\ZHANGM~1\AppData\Local\Temp\ccse5bds.s 			page 14


  39              		.align	1
  40              		.global	crc16
  41              		.code	16
  42              		.thumb_func
  43              		.type	crc16, %function
  44              	crc16:
  45              	.LFB33:
 176:.\Generated_Source\PSoC4/Bootloader.c **** { 
  46              		.loc 1 176 0
  47              		.cfi_startproc
  48              	.LVL1:
  49 0000 10B5     		push	{r4, lr}
  50              		.cfi_def_cfa_offset 8
  51              		.cfi_offset 4, -8
  52              		.cfi_offset 14, -4
 178:.\Generated_Source\PSoC4/Bootloader.c **** 	uint8 uchCRCLo = 0xFF ; /* 低CRC 字节初始化 */ 
  53              		.loc 1 178 0
  54 0002 FF23     		mov	r3, #255
 177:.\Generated_Source\PSoC4/Bootloader.c **** 	uint8 uchCRCHi = 0xFF ; /* 高CRC字节初始化 */ 
  55              		.loc 1 177 0
  56 0004 1A1C     		mov	r2, r3
  57              	.LVL2:
  58              	.L3:
 180:.\Generated_Source\PSoC4/Bootloader.c **** 	while (usDataLen--) /* 传输消息缓冲区 */ 
  59              		.loc 1 180 0 discriminator 1
  60 0006 0139     		sub	r1, r1, #1
  61              	.LVL3:
  62 0008 074C     		ldr	r4, .L7
  63 000a 89B2     		uxth	r1, r1
  64              	.LVL4:
  65 000c A142     		cmp	r1, r4
  66 000e 08D0     		beq	.L6
  67              	.LVL5:
 182:.\Generated_Source\PSoC4/Bootloader.c **** 		uIndex = uchCRCHi ^ *puchMsg++ ; /* 计算CRC */ 
  68              		.loc 1 182 0
  69 0010 0478     		ldrb	r4, [r0]
  70 0012 0130     		add	r0, r0, #1
  71              	.LVL6:
  72 0014 5440     		eor	r4, r2
  73              	.LVL7:
 183:.\Generated_Source\PSoC4/Bootloader.c **** 		uchCRCHi = uchCRCLo ^ auchCRCHi[uIndex] ; 
  74              		.loc 1 183 0
  75 0016 054A     		ldr	r2, .L7+4
  76              	.LVL8:
  77 0018 125D     		ldrb	r2, [r2, r4]
  78 001a 5A40     		eor	r2, r3
  79              	.LVL9:
 184:.\Generated_Source\PSoC4/Bootloader.c **** 		uchCRCLo = auchCRCLo[uIndex] ; 
  80              		.loc 1 184 0
  81 001c 044B     		ldr	r3, .L7+8
  82              	.LVL10:
  83 001e 1B5D     		ldrb	r3, [r3, r4]
  84              	.LVL11:
  85 0020 F1E7     		b	.L3
  86              	.LVL12:
  87              	.L6:
 186:.\Generated_Source\PSoC4/Bootloader.c **** 	return (uchCRCHi << 8 | uchCRCLo);	
ARM GAS  C:\Users\ZHANGM~1\AppData\Local\Temp\ccse5bds.s 			page 15


  88              		.loc 1 186 0
  89 0022 1002     		lsl	r0, r2, #8
  90              	.LVL13:
  91 0024 1843     		orr	r0, r3
 187:.\Generated_Source\PSoC4/Bootloader.c **** }
  92              		.loc 1 187 0
  93              		@ sp needed
  94 0026 10BD     		pop	{r4, pc}
  95              	.L8:
  96              		.align	2
  97              	.L7:
  98 0028 FFFF0000 		.word	65535
  99 002c 00000000 		.word	.LANCHOR0
 100 0030 00010000 		.word	.LANCHOR1
 101              		.cfi_endproc
 102              	.LFE33:
 103              		.size	crc16, .-crc16
 104              		.section	.text.Comm_Uart_0_PrintHex8,"ax",%progbits
 105              		.align	1
 106              		.global	Comm_Uart_0_PrintHex8
 107              		.code	16
 108              		.thumb_func
 109              		.type	Comm_Uart_0_PrintHex8, %function
 110              	Comm_Uart_0_PrintHex8:
 111              	.LFB34:
 195:.\Generated_Source\PSoC4/Bootloader.c **** {
 112              		.loc 1 195 0
 113              		.cfi_startproc
 114              	.LVL14:
 115              	.L11:
 196:.\Generated_Source\PSoC4/Bootloader.c ****     while(UART_0_FIFO_SIZE == UART_0_GET_TX_FIFO_ENTRIES);
 116              		.loc 1 196 0 discriminator 1
 117 0000 044B     		ldr	r3, .L12
 118 0002 1A68     		ldr	r2, [r3]
 119 0004 0F23     		mov	r3, #15
 120 0006 1340     		and	r3, r2
 121 0008 082B     		cmp	r3, #8
 122 000a F9D0     		beq	.L11
 197:.\Generated_Source\PSoC4/Bootloader.c ****     UART_0_TX_FIFO_WR_REG = (uint8)(value);
 123              		.loc 1 197 0
 124 000c 024B     		ldr	r3, .L12+4
 198:.\Generated_Source\PSoC4/Bootloader.c **** }
 125              		.loc 1 198 0
 126              		@ sp needed
 197:.\Generated_Source\PSoC4/Bootloader.c ****     UART_0_TX_FIFO_WR_REG = (uint8)(value);
 127              		.loc 1 197 0
 128 000e 1860     		str	r0, [r3]
 198:.\Generated_Source\PSoC4/Bootloader.c **** }
 129              		.loc 1 198 0
 130 0010 7047     		bx	lr
 131              	.L13:
 132 0012 C046     		.align	2
 133              	.L12:
 134 0014 08020640 		.word	1074135560
 135 0018 40020640 		.word	1074135616
 136              		.cfi_endproc
 137              	.LFE34:
ARM GAS  C:\Users\ZHANGM~1\AppData\Local\Temp\ccse5bds.s 			page 16


 138              		.size	Comm_Uart_0_PrintHex8, .-Comm_Uart_0_PrintHex8
 139              		.section	.text.Uart_0_Putchar,"ax",%progbits
 140              		.align	1
 141              		.global	Uart_0_Putchar
 142              		.code	16
 143              		.thumb_func
 144              		.type	Uart_0_Putchar, %function
 145              	Uart_0_Putchar:
 146              	.LFB35:
 206:.\Generated_Source\PSoC4/Bootloader.c **** {
 147              		.loc 1 206 0
 148              		.cfi_startproc
 149 0000 08B5     		push	{r3, lr}
 150              		.cfi_def_cfa_offset 8
 151              		.cfi_offset 3, -8
 152              		.cfi_offset 14, -4
 207:.\Generated_Source\PSoC4/Bootloader.c ****     	if(F_uart_0_tx!=0)
 153              		.loc 1 207 0
 154 0002 094B     		ldr	r3, .L19
 155 0004 1B78     		ldrb	r3, [r3]
 156 0006 002B     		cmp	r3, #0
 157 0008 0DD0     		beq	.L14
 209:.\Generated_Source\PSoC4/Bootloader.c ****     if(iSendCounter!=(iUartSendLen+1))
 158              		.loc 1 209 0
 159 000a 0849     		ldr	r1, .L19+4
 160 000c 084A     		ldr	r2, .L19+8
 161 000e 0988     		ldrh	r1, [r1]
 162 0010 1388     		ldrh	r3, [r2]
 163 0012 0131     		add	r1, r1, #1
 164 0014 8B42     		cmp	r3, r1
 165 0016 06D0     		beq	.L14
 211:.\Generated_Source\PSoC4/Bootloader.c ****           Comm_Uart_0_PrintHex8(cpSendBufPtr[iSendCounter++]);
 166              		.loc 1 211 0
 167 0018 0649     		ldr	r1, .L19+12
 168 001a 581C     		add	r0, r3, #1
 169 001c 0968     		ldr	r1, [r1]
 170 001e 1080     		strh	r0, [r2]
 171 0020 C85C     		ldrb	r0, [r1, r3]
 172 0022 FFF7FEFF 		bl	Comm_Uart_0_PrintHex8
 173              	.LVL15:
 174              	.L14:
 215:.\Generated_Source\PSoC4/Bootloader.c **** }
 175              		.loc 1 215 0
 176              		@ sp needed
 177 0026 08BD     		pop	{r3, pc}
 178              	.L20:
 179              		.align	2
 180              	.L19:
 181 0028 00000000 		.word	F_uart_0_tx
 182 002c 00000000 		.word	iUartSendLen
 183 0030 00000000 		.word	iSendCounter
 184 0034 00000000 		.word	cpSendBufPtr
 185              		.cfi_endproc
 186              	.LFE35:
 187              		.size	Uart_0_Putchar, .-Uart_0_Putchar
 188              		.section	.text.UART_SendData,"ax",%progbits
 189              		.align	1
ARM GAS  C:\Users\ZHANGM~1\AppData\Local\Temp\ccse5bds.s 			page 17


 190              		.global	UART_SendData
 191              		.code	16
 192              		.thumb_func
 193              		.type	UART_SendData, %function
 194              	UART_SendData:
 195              	.LFB36:
 225:.\Generated_Source\PSoC4/Bootloader.c **** {
 196              		.loc 1 225 0
 197              		.cfi_startproc
 198              	.LVL16:
 226:.\Generated_Source\PSoC4/Bootloader.c **** 	iUartSendLen = iCount-1;
 199              		.loc 1 226 0
 200 0000 044B     		ldr	r3, .L22
 201 0002 0139     		sub	r1, r1, #1
 202              	.LVL17:
 203 0004 1980     		strh	r1, [r3]
 227:.\Generated_Source\PSoC4/Bootloader.c **** 	iSendCounter = 0;
 204              		.loc 1 227 0
 205 0006 044B     		ldr	r3, .L22+4
 206 0008 0022     		mov	r2, #0
 207 000a 1A80     		strh	r2, [r3]
 228:.\Generated_Source\PSoC4/Bootloader.c **** 	cpSendBufPtr = &data_buf[0];
 208              		.loc 1 228 0
 209 000c 034B     		ldr	r3, .L22+8
 229:.\Generated_Source\PSoC4/Bootloader.c **** }
 210              		.loc 1 229 0
 211              		@ sp needed
 228:.\Generated_Source\PSoC4/Bootloader.c **** 	cpSendBufPtr = &data_buf[0];
 212              		.loc 1 228 0
 213 000e 1860     		str	r0, [r3]
 229:.\Generated_Source\PSoC4/Bootloader.c **** }
 214              		.loc 1 229 0
 215 0010 7047     		bx	lr
 216              	.L23:
 217 0012 C046     		.align	2
 218              	.L22:
 219 0014 00000000 		.word	iUartSendLen
 220 0018 00000000 		.word	iSendCounter
 221 001c 00000000 		.word	cpSendBufPtr
 222              		.cfi_endproc
 223              	.LFE36:
 224              		.size	UART_SendData, .-UART_SendData
 225              		.section	.text.Sum_Make_Verify,"ax",%progbits
 226              		.align	1
 227              		.global	Sum_Make_Verify
 228              		.code	16
 229              		.thumb_func
 230              		.type	Sum_Make_Verify, %function
 231              	Sum_Make_Verify:
 232              	.LFB37:
 238:.\Generated_Source\PSoC4/Bootloader.c **** {
 233              		.loc 1 238 0
 234              		.cfi_startproc
 235              	.LVL18:
 239:.\Generated_Source\PSoC4/Bootloader.c ****     uint8 Verify = 0;
 236              		.loc 1 239 0
 237 0000 0023     		mov	r3, #0
ARM GAS  C:\Users\ZHANGM~1\AppData\Local\Temp\ccse5bds.s 			page 18


 238              	.LVL19:
 239              	.L25:
 240:.\Generated_Source\PSoC4/Bootloader.c ****     while (Len--)
 240              		.loc 1 240 0 discriminator 1
 241 0002 0139     		sub	r1, r1, #1
 242              	.LVL20:
 243 0004 054A     		ldr	r2, .L28
 244 0006 89B2     		uxth	r1, r1
 245              	.LVL21:
 246 0008 9142     		cmp	r1, r2
 247 000a 04D0     		beq	.L27
 242:.\Generated_Source\PSoC4/Bootloader.c ****         Verify = Verify + (*PBuf);
 248              		.loc 1 242 0
 249 000c 0278     		ldrb	r2, [r0]
 243:.\Generated_Source\PSoC4/Bootloader.c ****         ++ PBuf;
 250              		.loc 1 243 0
 251 000e 0130     		add	r0, r0, #1
 252              	.LVL22:
 242:.\Generated_Source\PSoC4/Bootloader.c ****         Verify = Verify + (*PBuf);
 253              		.loc 1 242 0
 254 0010 9B18     		add	r3, r3, r2
 255              	.LVL23:
 256 0012 DBB2     		uxtb	r3, r3
 257              	.LVL24:
 258 0014 F5E7     		b	.L25
 259              	.L27:
 245:.\Generated_Source\PSoC4/Bootloader.c ****     return (~Verify + 1);
 260              		.loc 1 245 0
 261 0016 5B42     		neg	r3, r3
 262              	.LVL25:
 263 0018 D8B2     		uxtb	r0, r3
 264              	.LVL26:
 246:.\Generated_Source\PSoC4/Bootloader.c **** }
 265              		.loc 1 246 0
 266              		@ sp needed
 267 001a 7047     		bx	lr
 268              	.L29:
 269              		.align	2
 270              	.L28:
 271 001c FFFF0000 		.word	65535
 272              		.cfi_endproc
 273              	.LFE37:
 274              		.size	Sum_Make_Verify, .-Sum_Make_Verify
 275              		.section	.text.SendDataToWifi,"ax",%progbits
 276              		.align	1
 277              		.global	SendDataToWifi
 278              		.code	16
 279              		.thumb_func
 280              		.type	SendDataToWifi, %function
 281              	SendDataToWifi:
 282              	.LFB38:
 264:.\Generated_Source\PSoC4/Bootloader.c **** {
 283              		.loc 1 264 0
 284              		.cfi_startproc
 285              	.LVL27:
 286 0000 F7B5     		push	{r0, r1, r2, r4, r5, r6, r7, lr}
 287              		.cfi_def_cfa_offset 32
ARM GAS  C:\Users\ZHANGM~1\AppData\Local\Temp\ccse5bds.s 			page 19


 288              		.cfi_offset 0, -32
 289              		.cfi_offset 1, -28
 290              		.cfi_offset 2, -24
 291              		.cfi_offset 4, -20
 292              		.cfi_offset 5, -16
 293              		.cfi_offset 6, -12
 294              		.cfi_offset 7, -8
 295              		.cfi_offset 14, -4
 268:.\Generated_Source\PSoC4/Bootloader.c ****     memset(cBuf,0x00,WIFIBUFLEN);
 296              		.loc 1 268 0
 297 0002 234C     		ldr	r4, .L34
 264:.\Generated_Source\PSoC4/Bootloader.c **** {
 298              		.loc 1 264 0
 299 0004 0192     		str	r2, [sp, #4]
 300 0006 071C     		mov	r7, r0
 301 0008 0E1C     		mov	r6, r1
 268:.\Generated_Source\PSoC4/Bootloader.c ****     memset(cBuf,0x00,WIFIBUFLEN);
 302              		.loc 1 268 0
 303 000a 201C     		mov	r0, r4
 304              	.LVL28:
 305 000c 0021     		mov	r1, #0
 306              	.LVL29:
 307 000e FF22     		mov	r2, #255
 308              	.LVL30:
 264:.\Generated_Source\PSoC4/Bootloader.c **** {
 309              		.loc 1 264 0
 310 0010 1D1C     		mov	r5, r3
 268:.\Generated_Source\PSoC4/Bootloader.c ****     memset(cBuf,0x00,WIFIBUFLEN);
 311              		.loc 1 268 0
 312 0012 FFF7FEFF 		bl	memset
 313              	.LVL31:
 269:.\Generated_Source\PSoC4/Bootloader.c ****     cBuf[0] = WIFI_SYN_0;        	     // SYNC0
 314              		.loc 1 269 0
 315 0016 FA23     		mov	r3, #250
 316 0018 2370     		strb	r3, [r4]
 270:.\Generated_Source\PSoC4/Bootloader.c ****     cBuf[1] = WIFI_SYN_1;        	     // SYNC1
 317              		.loc 1 270 0
 318 001a FB23     		mov	r3, #251
 319 001c 6370     		strb	r3, [r4, #1]
 271:.\Generated_Source\PSoC4/Bootloader.c ****     cBuf[2] = 0x01;   //MCU_PROTOCOL_VERSION 
 320              		.loc 1 271 0
 321 001e 0123     		mov	r3, #1
 322 0020 A370     		strb	r3, [r4, #2]
 272:.\Generated_Source\PSoC4/Bootloader.c ****     if(cCommand==0xccc5)
 323              		.loc 1 272 0
 324 0022 1C4B     		ldr	r3, .L34+4
 325 0024 9E42     		cmp	r6, r3
 326 0026 05D0     		beq	.L31
 279:.\Generated_Source\PSoC4/Bootloader.c ****         cBuf[3]=z_itotalcount;
 327              		.loc 1 279 0
 328 0028 1B4B     		ldr	r3, .L34+8
 329 002a 1B78     		ldrb	r3, [r3]
 330 002c E370     		strb	r3, [r4, #3]
 280:.\Generated_Source\PSoC4/Bootloader.c ****         cBuf[4]=z_iicount;
 331              		.loc 1 280 0
 332 002e 1B4B     		ldr	r3, .L34+12
 333 0030 1B78     		ldrb	r3, [r3]
ARM GAS  C:\Users\ZHANGM~1\AppData\Local\Temp\ccse5bds.s 			page 20


 334 0032 2371     		strb	r3, [r4, #4]
 335              	.L31:
 283:.\Generated_Source\PSoC4/Bootloader.c ****     cBuf[6] =  (cCommand)>>8;//长度0
 336              		.loc 1 283 0
 337 0034 330A     		lsr	r3, r6, #8
 338 0036 A371     		strb	r3, [r4, #6]
 285:.\Generated_Source\PSoC4/Bootloader.c ****     cBuf[8] =(iLength)>>8;//长度0
 339              		.loc 1 285 0
 340 0038 2B0A     		lsr	r3, r5, #8
 282:.\Generated_Source\PSoC4/Bootloader.c ****     cBuf[5] = cCtl;   	 // Wctrl
 341              		.loc 1 282 0
 342 003a 6771     		strb	r7, [r4, #5]
 284:.\Generated_Source\PSoC4/Bootloader.c ****     cBuf[7] =(cCommand)&0x00ff;//长度1	  cBuf[8]=(iLength)>>8;//长度0
 343              		.loc 1 284 0
 344 003c E671     		strb	r6, [r4, #7]
 285:.\Generated_Source\PSoC4/Bootloader.c ****     cBuf[8] =(iLength)>>8;//长度0
 345              		.loc 1 285 0
 346 003e 2372     		strb	r3, [r4, #8]
 286:.\Generated_Source\PSoC4/Bootloader.c ****     cBuf[9] =(iLength)&0x00ff;//长度1
 347              		.loc 1 286 0
 348 0040 6572     		strb	r5, [r4, #9]
 291:.\Generated_Source\PSoC4/Bootloader.c ****         memcpy(&cBuf[10],DataBuf,iLength);
 349              		.loc 1 291 0
 350 0042 201C     		mov	r0, r4
 289:.\Generated_Source\PSoC4/Bootloader.c ****     if(iLength!=0)
 351              		.loc 1 289 0
 352 0044 002D     		cmp	r5, #0
 353 0046 0FD0     		beq	.L32
 291:.\Generated_Source\PSoC4/Bootloader.c ****         memcpy(&cBuf[10],DataBuf,iLength);
 354              		.loc 1 291 0
 355 0048 2A1C     		mov	r2, r5
 356 004a 0199     		ldr	r1, [sp, #4]
 357 004c 0A30     		add	r0, r0, #10
 358 004e FFF7FEFF 		bl	memcpy
 359              	.LVL32:
 293:.\Generated_Source\PSoC4/Bootloader.c ****         xxxxx=crc16(&cBuf[0],10+iLength);
 360              		.loc 1 293 0
 361 0052 291C     		mov	r1, r5
 362 0054 0A31     		add	r1, r1, #10
 363 0056 89B2     		uxth	r1, r1
 364 0058 201C     		mov	r0, r4
 365 005a FFF7FEFF 		bl	crc16
 366              	.LVL33:
 294:.\Generated_Source\PSoC4/Bootloader.c ****         cBuf[iLength+10] =xxxxx>>8;
 367              		.loc 1 294 0
 368 005e 6319     		add	r3, r4, r5
 369 0060 020A     		lsr	r2, r0, #8
 370 0062 9A72     		strb	r2, [r3, #10]
 295:.\Generated_Source\PSoC4/Bootloader.c ****         cBuf[iLength+11] =xxxxx;
 371              		.loc 1 295 0
 372 0064 D872     		strb	r0, [r3, #11]
 373 0066 05E0     		b	.L33
 374              	.LVL34:
 375              	.L32:
 300:.\Generated_Source\PSoC4/Bootloader.c ****         xxxxx=crc16(&cBuf[0],10);
 376              		.loc 1 300 0
 377 0068 0A21     		mov	r1, #10
ARM GAS  C:\Users\ZHANGM~1\AppData\Local\Temp\ccse5bds.s 			page 21


 378 006a FFF7FEFF 		bl	crc16
 379              	.LVL35:
 301:.\Generated_Source\PSoC4/Bootloader.c ****         cBuf[iLength+10] = xxxxx>>8;
 380              		.loc 1 301 0
 381 006e 030A     		lsr	r3, r0, #8
 382 0070 A372     		strb	r3, [r4, #10]
 302:.\Generated_Source\PSoC4/Bootloader.c ****         cBuf[iLength+11] = xxxxx;
 383              		.loc 1 302 0
 384 0072 E072     		strb	r0, [r4, #11]
 385              	.LVL36:
 386              	.L33:
 305:.\Generated_Source\PSoC4/Bootloader.c **** 		WifidatagramWorkFlag.flag_Uart_Work=1; 
 387              		.loc 1 305 0
 388 0074 0A4B     		ldr	r3, .L34+16
 389 0076 0821     		mov	r1, #8
 390 0078 1A78     		ldrb	r2, [r3]
 391 007a 0A43     		orr	r2, r1
 392 007c 1A70     		strb	r2, [r3]
 306:.\Generated_Source\PSoC4/Bootloader.c ****     CyGlobalIntDisable;                  //应答时间设置
 393              		.loc 1 306 0
 394              	@ 306 ".\Generated_Source\PSoC4\Bootloader.c" 1
 395 007e 72B6     		CPSID   i
 396              	@ 0 "" 2
 307:.\Generated_Source\PSoC4/Bootloader.c ****     UART_SendData(cBuf,iLength+12);   ///The Last six 0x00 is PADDING
 397              		.loc 1 307 0
 398              		.code	16
 399 0080 0C35     		add	r5, r5, #12
 400 0082 A9B2     		uxth	r1, r5
 401 0084 201C     		mov	r0, r4
 402 0086 FFF7FEFF 		bl	UART_SendData
 403              	.LVL37:
 308:.\Generated_Source\PSoC4/Bootloader.c ****     CyGlobalIntEnable; 
 404              		.loc 1 308 0
 405              	@ 308 ".\Generated_Source\PSoC4\Bootloader.c" 1
 406 008a 62B6     		CPSIE   i
 407              	@ 0 "" 2
 309:.\Generated_Source\PSoC4/Bootloader.c **** }
 408              		.loc 1 309 0
 409              		.code	16
 410              		@ sp needed
 411 008c F7BD     		pop	{r0, r1, r2, r4, r5, r6, r7, pc}
 412              	.L35:
 413 008e C046     		.align	2
 414              	.L34:
 415 0090 00000000 		.word	.LANCHOR2
 416 0094 C5CC0000 		.word	52421
 417 0098 00000000 		.word	z_itotalcount
 418 009c 00000000 		.word	z_iicount
 419 00a0 00000000 		.word	WifidatagramWorkFlag
 420              		.cfi_endproc
 421              	.LFE38:
 422              		.size	SendDataToWifi, .-SendDataToWifi
 423              		.section	.text.LoadUARTData,"ax",%progbits
 424              		.align	1
 425              		.global	LoadUARTData
 426              		.code	16
 427              		.thumb_func
ARM GAS  C:\Users\ZHANGM~1\AppData\Local\Temp\ccse5bds.s 			page 22


 428              		.type	LoadUARTData, %function
 429              	LoadUARTData:
 430              	.LFB39:
 322:.\Generated_Source\PSoC4/Bootloader.c **** {
 431              		.loc 1 322 0
 432              		.cfi_startproc
 433              	.LVL38:
 434 0000 30B5     		push	{r4, r5, lr}
 435              		.cfi_def_cfa_offset 12
 436              		.cfi_offset 4, -12
 437              		.cfi_offset 5, -8
 438              		.cfi_offset 14, -4
 323:.\Generated_Source\PSoC4/Bootloader.c **** 	switch (gcWifiCommunState)
 439              		.loc 1 323 0
 440 0002 414A     		ldr	r2, .L63
 322:.\Generated_Source\PSoC4/Bootloader.c **** {
 441              		.loc 1 322 0
 442 0004 031C     		mov	r3, r0
 323:.\Generated_Source\PSoC4/Bootloader.c **** 	switch (gcWifiCommunState)
 443              		.loc 1 323 0
 444 0006 1078     		ldrb	r0, [r2]
 445              	.LVL39:
 446 0008 0D28     		cmp	r0, #13
 447 000a 79D8     		bhi	.L37
 448 000c FFF7FEFF 		bl	__gnu_thumb1_case_uqi
 449              	.L39:
 450 0010 07       		.byte	(.L38-.L39)/2
 451 0011 0D       		.byte	(.L40-.L39)/2
 452 0012 14       		.byte	(.L41-.L39)/2
 453 0013 1B       		.byte	(.L42-.L39)/2
 454 0014 20       		.byte	(.L43-.L39)/2
 455 0015 25       		.byte	(.L44-.L39)/2
 456 0016 2C       		.byte	(.L45-.L39)/2
 457 0017 33       		.byte	(.L46-.L39)/2
 458 0018 3A       		.byte	(.L47-.L39)/2
 459 0019 41       		.byte	(.L48-.L39)/2
 460 001a 4B       		.byte	(.L49-.L39)/2
 461 001b 66       		.byte	(.L50-.L39)/2
 462 001c 78       		.byte	(.L37-.L39)/2
 463 001d 55       		.byte	(.L51-.L39)/2
 464              		.p2align 1
 465              	.L38:
 326:.\Generated_Source\PSoC4/Bootloader.c **** 			   		if(UartData==WIFI_SYN_0)
 466              		.loc 1 326 0
 467 001e FA2B     		cmp	r3, #250
 468 0020 01D1     		bne	.L52
 327:.\Generated_Source\PSoC4/Bootloader.c ****   			   		gcWifiCommunState = WIFI_WAIT_SYN_1;
 469              		.loc 1 327 0
 470 0022 0121     		mov	r1, #1
 471 0024 1170     		strb	r1, [r2]
 472              	.L52:
 328:.\Generated_Source\PSoC4/Bootloader.c ****   			  	    ATReceBuffer[0].gcATReceData[0]= UartData;
 473              		.loc 1 328 0
 474 0026 394A     		ldr	r2, .L63+4
 475 0028 6BE0     		b	.L62
 476              	.L40:
 331:.\Generated_Source\PSoC4/Bootloader.c **** 			   		if(UartData==WIFI_SYN_1)
ARM GAS  C:\Users\ZHANGM~1\AppData\Local\Temp\ccse5bds.s 			page 23


 477              		.loc 1 331 0
 478 002a FB2B     		cmp	r3, #251
 479 002c 01D1     		bne	.L54
 332:.\Generated_Source\PSoC4/Bootloader.c ****   			   		gcWifiCommunState = WIFI_PROTOCOL_JUDGE;
 480              		.loc 1 332 0
 481 002e 0221     		mov	r1, #2
 482 0030 1170     		strb	r1, [r2]
 483              	.L54:
 333:.\Generated_Source\PSoC4/Bootloader.c ****   			  	    ATReceBuffer[0].gcATReceData[1]= UartData;
 484              		.loc 1 333 0
 485 0032 364A     		ldr	r2, .L63+4
 486 0034 5370     		strb	r3, [r2, #1]
 334:.\Generated_Source\PSoC4/Bootloader.c **** 			  		break;
 487              		.loc 1 334 0
 488 0036 65E0     		b	.L36
 489              	.L41:
 336:.\Generated_Source\PSoC4/Bootloader.c **** 			 			if(UartData==0x01)
 490              		.loc 1 336 0
 491 0038 012B     		cmp	r3, #1
 492 003a 01D1     		bne	.L55
 337:.\Generated_Source\PSoC4/Bootloader.c ****   			   		gcWifiCommunState = WIFI_TOTAL_FRAME_NUM;
 493              		.loc 1 337 0
 494 003c 0321     		mov	r1, #3
 495 003e 1170     		strb	r1, [r2]
 496              	.L55:
 338:.\Generated_Source\PSoC4/Bootloader.c ****   			  	ATReceBuffer[0].gcATReceData[2]= UartData;
 497              		.loc 1 338 0
 498 0040 324A     		ldr	r2, .L63+4
 499 0042 9370     		strb	r3, [r2, #2]
 339:.\Generated_Source\PSoC4/Bootloader.c **** 			  		break;
 500              		.loc 1 339 0
 501 0044 5EE0     		b	.L36
 502              	.L42:
 341:.\Generated_Source\PSoC4/Bootloader.c **** 			 			gcWifiCommunState = WIFI_FRAME_NUM;
 503              		.loc 1 341 0
 504 0046 0421     		mov	r1, #4
 505 0048 1170     		strb	r1, [r2]
 343:.\Generated_Source\PSoC4/Bootloader.c ****   			  	ATReceBuffer[0].gcATReceData[3]= UartData;
 506              		.loc 1 343 0
 507 004a 304A     		ldr	r2, .L63+4
 508 004c D370     		strb	r3, [r2, #3]
 344:.\Generated_Source\PSoC4/Bootloader.c **** 			  		break;		
 509              		.loc 1 344 0
 510 004e 59E0     		b	.L36
 511              	.L43:
 346:.\Generated_Source\PSoC4/Bootloader.c **** 			 			gcWifiCommunState = WIFI_WAIT_CTL;
 512              		.loc 1 346 0
 513 0050 0521     		mov	r1, #5
 514 0052 1170     		strb	r1, [r2]
 348:.\Generated_Source\PSoC4/Bootloader.c ****   			  	ATReceBuffer[0].gcATReceData[4]= UartData;
 515              		.loc 1 348 0
 516 0054 2D4A     		ldr	r2, .L63+4
 517 0056 1371     		strb	r3, [r2, #4]
 349:.\Generated_Source\PSoC4/Bootloader.c **** 			  		break;		
 518              		.loc 1 349 0
 519 0058 54E0     		b	.L36
 520              	.L44:
ARM GAS  C:\Users\ZHANGM~1\AppData\Local\Temp\ccse5bds.s 			page 24


 351:.\Generated_Source\PSoC4/Bootloader.c **** 			    	gcWIFICTL = UartData;
 521              		.loc 1 351 0
 522 005a 2D49     		ldr	r1, .L63+8
 523 005c 0B70     		strb	r3, [r1]
 352:.\Generated_Source\PSoC4/Bootloader.c **** 						gcWifiCommunState = WIFI_COMMAND_1;
 524              		.loc 1 352 0
 525 005e 0621     		mov	r1, #6
 526 0060 1170     		strb	r1, [r2]
 353:.\Generated_Source\PSoC4/Bootloader.c ****   			  	ATReceBuffer[0].gcATReceData[5]= UartData;
 527              		.loc 1 353 0
 528 0062 2A4A     		ldr	r2, .L63+4
 529 0064 5371     		strb	r3, [r2, #5]
 354:.\Generated_Source\PSoC4/Bootloader.c **** 			 			break;		 
 530              		.loc 1 354 0
 531 0066 4DE0     		b	.L36
 532              	.L45:
 356:.\Generated_Source\PSoC4/Bootloader.c **** 			    	giWIFICommand = UartData;
 533              		.loc 1 356 0
 534 0068 2A49     		ldr	r1, .L63+12
 535 006a 0B70     		strb	r3, [r1]
 357:.\Generated_Source\PSoC4/Bootloader.c **** 						gcWifiCommunState = WIFI_COMMAND_2;
 536              		.loc 1 357 0
 537 006c 0721     		mov	r1, #7
 538 006e 1170     		strb	r1, [r2]
 358:.\Generated_Source\PSoC4/Bootloader.c ****   			  	ATReceBuffer[0].gcATReceData[6]= UartData;
 539              		.loc 1 358 0
 540 0070 264A     		ldr	r2, .L63+4
 541 0072 9371     		strb	r3, [r2, #6]
 359:.\Generated_Source\PSoC4/Bootloader.c **** 			 			break;
 542              		.loc 1 359 0
 543 0074 46E0     		b	.L36
 544              	.L46:
 361:.\Generated_Source\PSoC4/Bootloader.c **** 			    	giWIFICommand = (giWIFICommand<<8)+UartData;
 545              		.loc 1 361 0
 546 0076 2749     		ldr	r1, .L63+12
 547 0078 0B70     		strb	r3, [r1]
 362:.\Generated_Source\PSoC4/Bootloader.c ****       				  gcWifiCommunState = WIFI_LENGTH1;     
 548              		.loc 1 362 0
 549 007a 0821     		mov	r1, #8
 550 007c 1170     		strb	r1, [r2]
 363:.\Generated_Source\PSoC4/Bootloader.c ****   			  	ATReceBuffer[0].gcATReceData[7]= UartData;
 551              		.loc 1 363 0
 552 007e 234A     		ldr	r2, .L63+4
 553 0080 D371     		strb	r3, [r2, #7]
 364:.\Generated_Source\PSoC4/Bootloader.c **** 			 			break;			 					  		
 554              		.loc 1 364 0
 555 0082 3FE0     		b	.L36
 556              	.L47:
 366:.\Generated_Source\PSoC4/Bootloader.c **** 			    	giWIFIDATALength = UartData;
 557              		.loc 1 366 0
 558 0084 2449     		ldr	r1, .L63+16
 559 0086 0B70     		strb	r3, [r1]
 367:.\Generated_Source\PSoC4/Bootloader.c **** 						gcWifiCommunState = WIFI_LENGTH2;
 560              		.loc 1 367 0
 561 0088 0921     		mov	r1, #9
 562 008a 1170     		strb	r1, [r2]
 368:.\Generated_Source\PSoC4/Bootloader.c ****   			  	ATReceBuffer[0].gcATReceData[8]= UartData;
ARM GAS  C:\Users\ZHANGM~1\AppData\Local\Temp\ccse5bds.s 			page 25


 563              		.loc 1 368 0
 564 008c 1F4A     		ldr	r2, .L63+4
 565 008e 1372     		strb	r3, [r2, #8]
 369:.\Generated_Source\PSoC4/Bootloader.c **** 			 			break;
 566              		.loc 1 369 0
 567 0090 38E0     		b	.L36
 568              	.L48:
 371:.\Generated_Source\PSoC4/Bootloader.c **** 			    	giWIFIDATALength = (giWIFIDATALength<<8)+UartData;
 569              		.loc 1 371 0
 570 0092 2149     		ldr	r1, .L63+16
 571 0094 0B70     		strb	r3, [r1]
 374:.\Generated_Source\PSoC4/Bootloader.c ****       				  gcWifiCommunState = WIFI_RECEDATA;
 572              		.loc 1 374 0
 573 0096 0B21     		mov	r1, #11
 372:.\Generated_Source\PSoC4/Bootloader.c ****     				if(giWIFIDATALength>0)   // 
 574              		.loc 1 372 0
 575 0098 002B     		cmp	r3, #0
 576 009a 00D1     		bne	.L61
 378:.\Generated_Source\PSoC4/Bootloader.c ****       				   gcWifiCommunState = WIFI_CHCK00; 
 577              		.loc 1 378 0
 578 009c 0A21     		mov	r1, #10
 579              	.L61:
 580 009e 1170     		strb	r1, [r2]
 380:.\Generated_Source\PSoC4/Bootloader.c ****   			  	ATReceBuffer[0].gcATReceData[9]= UartData;
 581              		.loc 1 380 0
 582 00a0 1A4A     		ldr	r2, .L63+4
 583 00a2 5372     		strb	r3, [r2, #9]
 381:.\Generated_Source\PSoC4/Bootloader.c **** 			 			break;
 584              		.loc 1 381 0
 585 00a4 2EE0     		b	.L36
 586              	.L49:
 383:.\Generated_Source\PSoC4/Bootloader.c ****     				if (ATReceBuffer[0].gcATReceCount<=(WIFIBUFLEN-10-1)) 
 587              		.loc 1 383 0
 588 00a6 1948     		ldr	r0, .L63+4
 589 00a8 011C     		mov	r1, r0
 590 00aa FE31     		add	r1, r1, #254
 591 00ac 4988     		ldrh	r1, [r1, #2]
 592 00ae F429     		cmp	r1, #244
 593 00b0 28D8     		bhi	.L36
 385:.\Generated_Source\PSoC4/Bootloader.c ****   			    		ATReceBuffer[0].gcATReceData[10+ATReceBuffer[0].gcATReceCount]= UartData; 
 594              		.loc 1 385 0
 595 00b2 4118     		add	r1, r0, r1
 596 00b4 8B72     		strb	r3, [r1, #10]
 386:.\Generated_Source\PSoC4/Bootloader.c **** 	      				gcWifiCommunState = WIFI_CHCK01;
 597              		.loc 1 386 0
 598 00b6 0D23     		mov	r3, #13
 599 00b8 23E0     		b	.L62
 600              	.L51:
 391:.\Generated_Source\PSoC4/Bootloader.c ****     				if (ATReceBuffer[0].gcATReceCount<=(WIFIBUFLEN-10-1)) 
 601              		.loc 1 391 0
 602 00ba 144C     		ldr	r4, .L63+4
 603 00bc 211C     		mov	r1, r4
 604 00be FE31     		add	r1, r1, #254
 605 00c0 4888     		ldrh	r0, [r1, #2]
 606 00c2 F428     		cmp	r0, #244
 607 00c4 1ED8     		bhi	.L36
 393:.\Generated_Source\PSoC4/Bootloader.c ****   			    		ATReceBuffer[0].gcATReceData[11+ATReceBuffer[0].gcATReceCount]= UartData; 
ARM GAS  C:\Users\ZHANGM~1\AppData\Local\Temp\ccse5bds.s 			page 26


 608              		.loc 1 393 0
 609 00c6 2018     		add	r0, r4, r0
 610 00c8 C372     		strb	r3, [r0, #11]
 394:.\Generated_Source\PSoC4/Bootloader.c ****   			    		ATReceBuffer[0].gcATReceCount = 0;
 611              		.loc 1 394 0
 612 00ca 0023     		mov	r3, #0
 613 00cc 4B80     		strh	r3, [r1, #2]
 395:.\Generated_Source\PSoC4/Bootloader.c **** 	      				gcWifiCommunState = WIFI_WAIT_SYN_0;
 614              		.loc 1 395 0
 615 00ce 1370     		strb	r3, [r2]
 396:.\Generated_Source\PSoC4/Bootloader.c **** 	      				WifiWorkFlag.gcReceComm1OK = 1;  // 数据成功接收完毕 
 616              		.loc 1 396 0
 617 00d0 124B     		ldr	r3, .L63+20
 618 00d2 0821     		mov	r1, #8
 619 00d4 1A78     		ldrb	r2, [r3]
 620 00d6 0A43     		orr	r2, r1
 621 00d8 1A70     		strb	r2, [r3]
 622 00da 13E0     		b	.L36
 623              	.L50:
 400:.\Generated_Source\PSoC4/Bootloader.c ****     				if (ATReceBuffer[0].gcATReceCount<(WIFIBUFLEN-10-1)) 
 624              		.loc 1 400 0
 625 00dc 0B48     		ldr	r0, .L63+4
 626 00de 041C     		mov	r4, r0
 627 00e0 FE34     		add	r4, r4, #254
 628 00e2 6188     		ldrh	r1, [r4, #2]
 629 00e4 F329     		cmp	r1, #243
 630 00e6 03D8     		bhi	.L60
 402:.\Generated_Source\PSoC4/Bootloader.c ****   			    		ATReceBuffer[0].gcATReceData[10+ATReceBuffer[0].gcATReceCount]= UartData;
 631              		.loc 1 402 0
 632 00e8 4518     		add	r5, r0, r1
 403:.\Generated_Source\PSoC4/Bootloader.c ****   			    		ATReceBuffer[0].gcATReceCount++;    						
 633              		.loc 1 403 0
 634 00ea 0131     		add	r1, r1, #1
 402:.\Generated_Source\PSoC4/Bootloader.c ****   			    		ATReceBuffer[0].gcATReceData[10+ATReceBuffer[0].gcATReceCount]= UartData;
 635              		.loc 1 402 0
 636 00ec AB72     		strb	r3, [r5, #10]
 403:.\Generated_Source\PSoC4/Bootloader.c ****   			    		ATReceBuffer[0].gcATReceCount++;    						
 637              		.loc 1 403 0
 638 00ee 6180     		strh	r1, [r4, #2]
 639              	.L60:
 406:.\Generated_Source\PSoC4/Bootloader.c ****     				if(ATReceBuffer[0].gcATReceCount == giWIFIDATALength)
 640              		.loc 1 406 0
 641 00f0 094B     		ldr	r3, .L63+16
 642 00f2 FE30     		add	r0, r0, #254
 643 00f4 4188     		ldrh	r1, [r0, #2]
 644 00f6 1B78     		ldrb	r3, [r3]
 645 00f8 9942     		cmp	r1, r3
 646 00fa 03D1     		bne	.L36
 408:.\Generated_Source\PSoC4/Bootloader.c ****     				  	gcWifiCommunState = WIFI_CHCK00;
 647              		.loc 1 408 0
 648 00fc 0A23     		mov	r3, #10
 649 00fe 00E0     		b	.L62
 650              	.L37:
 412:.\Generated_Source\PSoC4/Bootloader.c **** 			 	gcWifiCommunState = WIFI_WAIT_SYN_0;	
 651              		.loc 1 412 0
 652 0100 0023     		mov	r3, #0
 653              	.L62:
ARM GAS  C:\Users\ZHANGM~1\AppData\Local\Temp\ccse5bds.s 			page 27


 654 0102 1370     		strb	r3, [r2]
 655              	.L36:
 414:.\Generated_Source\PSoC4/Bootloader.c **** }
 656              		.loc 1 414 0
 657              		@ sp needed
 658 0104 30BD     		pop	{r4, r5, pc}
 659              	.L64:
 660 0106 C046     		.align	2
 661              	.L63:
 662 0108 00000000 		.word	gcWifiCommunState
 663 010c 00000000 		.word	ATReceBuffer
 664 0110 00000000 		.word	gcWIFICTL
 665 0114 00000000 		.word	giWIFICommand
 666 0118 00000000 		.word	giWIFIDATALength
 667 011c 00000000 		.word	WifiWorkFlag
 668              		.cfi_endproc
 669              	.LFE39:
 670              		.size	LoadUARTData, .-LoadUARTData
 671              		.section	.text.UART_ISR_0_FUN,"ax",%progbits
 672              		.align	1
 673              		.global	UART_ISR_0_FUN
 674              		.code	16
 675              		.thumb_func
 676              		.type	UART_ISR_0_FUN, %function
 677              	UART_ISR_0_FUN:
 678              	.LFB48:
 704:.\Generated_Source\PSoC4/Bootloader.c **** 
 705:.\Generated_Source\PSoC4/Bootloader.c **** #elif defined (__ICCARM__)
 706:.\Generated_Source\PSoC4/Bootloader.c **** 
 707:.\Generated_Source\PSoC4/Bootloader.c ****     static void Bootloader_LaunchBootloadable(uint32 appAddr)
 708:.\Generated_Source\PSoC4/Bootloader.c ****     {
 709:.\Generated_Source\PSoC4/Bootloader.c ****         __asm volatile("    BX  R0\n");
 710:.\Generated_Source\PSoC4/Bootloader.c ****     }
 711:.\Generated_Source\PSoC4/Bootloader.c **** 
 712:.\Generated_Source\PSoC4/Bootloader.c **** #endif  /* (__ARMCC_VERSION) */
 713:.\Generated_Source\PSoC4/Bootloader.c **** 
 714:.\Generated_Source\PSoC4/Bootloader.c **** 
 715:.\Generated_Source\PSoC4/Bootloader.c **** /*******************************************************************************
 716:.\Generated_Source\PSoC4/Bootloader.c **** * Function Name: Bootloader_ValidateBootloadable
 717:.\Generated_Source\PSoC4/Bootloader.c **** ********************************************************************************
 718:.\Generated_Source\PSoC4/Bootloader.c **** * Summary:
 719:.\Generated_Source\PSoC4/Bootloader.c **** *  Performs the bootloadable application validation by calculating the
 720:.\Generated_Source\PSoC4/Bootloader.c **** *  application image checksum and comparing it with the checksum value stored
 721:.\Generated_Source\PSoC4/Bootloader.c **** *  in the Bootloadable Application Checksum field of the metadata section.
 722:.\Generated_Source\PSoC4/Bootloader.c **** *
 723:.\Generated_Source\PSoC4/Bootloader.c **** *  If the Fast bootloadable application validation option is enabled in the
 724:.\Generated_Source\PSoC4/Bootloader.c **** *  component customizer and bootloadable application successfully passes
 725:.\Generated_Source\PSoC4/Bootloader.c **** *  validation, the Bootloadable Application Verification Status field of the
 726:.\Generated_Source\PSoC4/Bootloader.c **** *  metadata section is updated. Refer to the Metadata Layout section for the
 727:.\Generated_Source\PSoC4/Bootloader.c **** *  details.
 728:.\Generated_Source\PSoC4/Bootloader.c **** *
 729:.\Generated_Source\PSoC4/Bootloader.c **** *  If the Fast bootloadable application validation option is enabled and
 730:.\Generated_Source\PSoC4/Bootloader.c **** *  Bootloadable Application Verification Status field of the metadata section
 731:.\Generated_Source\PSoC4/Bootloader.c **** *  claims that bootloadable application is valid, the function returns
 732:.\Generated_Source\PSoC4/Bootloader.c **** *  CYRET_SUCCESS without further checksum calculation.
 733:.\Generated_Source\PSoC4/Bootloader.c **** *
 734:.\Generated_Source\PSoC4/Bootloader.c **** * Parameters:
ARM GAS  C:\Users\ZHANGM~1\AppData\Local\Temp\ccse5bds.s 			page 28


 735:.\Generated_Source\PSoC4/Bootloader.c **** *  appId:
 736:.\Generated_Source\PSoC4/Bootloader.c **** *  The number of the bootloadable application should be 0 for the normal
 737:.\Generated_Source\PSoC4/Bootloader.c **** *  bootloader and 0 or 1 for the Multi-Application bootloader.
 738:.\Generated_Source\PSoC4/Bootloader.c **** *
 739:.\Generated_Source\PSoC4/Bootloader.c **** * Returns:
 740:.\Generated_Source\PSoC4/Bootloader.c **** *  Returns CYRET_SUCCESS if the specified bootloadable application is valid.
 741:.\Generated_Source\PSoC4/Bootloader.c **** *
 742:.\Generated_Source\PSoC4/Bootloader.c **** *******************************************************************************/
 743:.\Generated_Source\PSoC4/Bootloader.c **** cystatus Bootloader_ValidateBootloadable(uint8 appId) CYSMALL \
 744:.\Generated_Source\PSoC4/Bootloader.c **** 
 745:.\Generated_Source\PSoC4/Bootloader.c ****     {
 746:.\Generated_Source\PSoC4/Bootloader.c ****         uint32 CYDATA idx;
 747:.\Generated_Source\PSoC4/Bootloader.c **** 
 748:.\Generated_Source\PSoC4/Bootloader.c ****         uint32 CYDATA end   = Bootloader_FIRST_APP_BYTE(appId) +
 749:.\Generated_Source\PSoC4/Bootloader.c ****                                 Bootloader_GetMetadata(Bootloader_GET_BTLDB_LENGTH,
 750:.\Generated_Source\PSoC4/Bootloader.c ****                                                        appId);
 751:.\Generated_Source\PSoC4/Bootloader.c **** 
 752:.\Generated_Source\PSoC4/Bootloader.c ****         CYBIT         valid = 0u; /* Assume bad flash image */
 753:.\Generated_Source\PSoC4/Bootloader.c ****         uint8  CYDATA calcedChecksum = 0u;
 754:.\Generated_Source\PSoC4/Bootloader.c ****         /* Calculate checksum of bootloadable image */
 755:.\Generated_Source\PSoC4/Bootloader.c ****         for(idx = Bootloader_FIRST_APP_BYTE(appId); idx < end; ++idx)
 756:.\Generated_Source\PSoC4/Bootloader.c ****         {
 757:.\Generated_Source\PSoC4/Bootloader.c ****             uint8 CYDATA curByte = Bootloader_GET_CODE_BYTE(idx);
 758:.\Generated_Source\PSoC4/Bootloader.c **** 
 759:.\Generated_Source\PSoC4/Bootloader.c ****             if((curByte != 0u) && (curByte != 0xFFu))
 760:.\Generated_Source\PSoC4/Bootloader.c ****             {
 761:.\Generated_Source\PSoC4/Bootloader.c ****                 valid = 1u;
 762:.\Generated_Source\PSoC4/Bootloader.c ****             }
 763:.\Generated_Source\PSoC4/Bootloader.c **** 
 764:.\Generated_Source\PSoC4/Bootloader.c ****             calcedChecksum += curByte;
 765:.\Generated_Source\PSoC4/Bootloader.c ****         }
 766:.\Generated_Source\PSoC4/Bootloader.c ****         calcedChecksum = ( uint8 )1u + ( uint8 )(~calcedChecksum);
 767:.\Generated_Source\PSoC4/Bootloader.c ****         if((calcedChecksum != Bootloader_GetMetadata(Bootloader_GET_BTLDB_CHECKSUM, appId)) ||
 768:.\Generated_Source\PSoC4/Bootloader.c ****            (0u == valid))
 769:.\Generated_Source\PSoC4/Bootloader.c ****         {
 770:.\Generated_Source\PSoC4/Bootloader.c ****             return(CYRET_BAD_DATA);
 771:.\Generated_Source\PSoC4/Bootloader.c ****         }
 772:.\Generated_Source\PSoC4/Bootloader.c ****         return(CYRET_SUCCESS);
 773:.\Generated_Source\PSoC4/Bootloader.c **** }
 774:.\Generated_Source\PSoC4/Bootloader.c **** CY_ISR(UART_ISR_0_FUN)
 775:.\Generated_Source\PSoC4/Bootloader.c **** {
 679              		.loc 1 775 0
 680              		.cfi_startproc
 681 0000 70B5     		push	{r4, r5, r6, lr}
 682              		.cfi_def_cfa_offset 16
 683              		.cfi_offset 4, -16
 684              		.cfi_offset 5, -12
 685              		.cfi_offset 6, -8
 686              		.cfi_offset 14, -4
 776:.\Generated_Source\PSoC4/Bootloader.c ****     uint32 resource = UART_0_GetRxInterruptSource();
 687              		.loc 1 776 0
 688 0002 084C     		ldr	r4, .L70
 777:.\Generated_Source\PSoC4/Bootloader.c ****      if(resource & UART_0_INTR_RX_NOT_EMPTY)
 689              		.loc 1 777 0
 690 0004 0425     		mov	r5, #4
 776:.\Generated_Source\PSoC4/Bootloader.c ****     uint32 resource = UART_0_GetRxInterruptSource();
 691              		.loc 1 776 0
ARM GAS  C:\Users\ZHANGM~1\AppData\Local\Temp\ccse5bds.s 			page 29


 692 0006 2368     		ldr	r3, [r4]
 693              	.LVL40:
 694              		.loc 1 777 0
 695 0008 2B42     		tst	r3, r5
 696 000a 0AD0     		beq	.L65
 697              	.LBB4:
 698              	.LBB5:
 778:.\Generated_Source\PSoC4/Bootloader.c ****     {  
 779:.\Generated_Source\PSoC4/Bootloader.c ****                 F_uart_0_tx=0;   
 699              		.loc 1 779 0
 700 000c 064E     		ldr	r6, .L70+4
 701 000e 0023     		mov	r3, #0
 702              	.LVL41:
 703 0010 3370     		strb	r3, [r6]
 780:.\Generated_Source\PSoC4/Bootloader.c **** 	    LoadUARTData((uint8)(UART_0_UartGetByte()& 0xFF));
 704              		.loc 1 780 0
 705 0012 FFF7FEFF 		bl	UART_0_UartGetByte
 706              	.LVL42:
 707 0016 C0B2     		uxtb	r0, r0
 708 0018 FFF7FEFF 		bl	LoadUARTData
 709              	.LVL43:
 781:.\Generated_Source\PSoC4/Bootloader.c ****                 F_uart_0_tx=1;   
 710              		.loc 1 781 0
 711 001c 0123     		mov	r3, #1
 712 001e 3370     		strb	r3, [r6]
 782:.\Generated_Source\PSoC4/Bootloader.c ****       	UART_0_ClearRxInterruptSource(UART_0_INTR_RX_NOT_EMPTY);//清中断源 
 713              		.loc 1 782 0
 714 0020 2560     		str	r5, [r4]
 715              	.L65:
 716              	.LBE5:
 717              	.LBE4:
 783:.\Generated_Source\PSoC4/Bootloader.c ****     }
 784:.\Generated_Source\PSoC4/Bootloader.c ****     
 785:.\Generated_Source\PSoC4/Bootloader.c **** }
 718              		.loc 1 785 0
 719              		@ sp needed
 720 0022 70BD     		pop	{r4, r5, r6, pc}
 721              	.L71:
 722              		.align	2
 723              	.L70:
 724 0024 C00F0640 		.word	1074139072
 725 0028 00000000 		.word	F_uart_0_tx
 726              		.cfi_endproc
 727              	.LFE48:
 728              		.size	UART_ISR_0_FUN, .-UART_ISR_0_FUN
 729              		.section	.text.Buzzer_Fun,"ax",%progbits
 730              		.align	1
 731              		.global	Buzzer_Fun
 732              		.code	16
 733              		.thumb_func
 734              		.type	Buzzer_Fun, %function
 735              	Buzzer_Fun:
 736              	.LFB40:
 419:.\Generated_Source\PSoC4/Bootloader.c **** {
 737              		.loc 1 419 0
 738              		.cfi_startproc
 739 0000 38B5     		push	{r3, r4, r5, lr}
ARM GAS  C:\Users\ZHANGM~1\AppData\Local\Temp\ccse5bds.s 			page 30


 740              		.cfi_def_cfa_offset 16
 741              		.cfi_offset 3, -16
 742              		.cfi_offset 4, -12
 743              		.cfi_offset 5, -8
 744              		.cfi_offset 14, -4
 421:.\Generated_Source\PSoC4/Bootloader.c **** 	if(BUZfkg==1)//按键提示音
 745              		.loc 1 421 0
 746 0002 0C4B     		ldr	r3, .L76
 747 0004 1B78     		ldrb	r3, [r3]
 748 0006 012B     		cmp	r3, #1
 749 0008 12D1     		bne	.L72
 423:.\Generated_Source\PSoC4/Bootloader.c **** 		    if(BuzzerDly>1000000)
 750              		.loc 1 423 0
 751 000a 0B4C     		ldr	r4, .L76+4
 752 000c 0B4B     		ldr	r3, .L76+8
 753 000e 2268     		ldr	r2, [r4]
 754 0010 9A42     		cmp	r2, r3
 755 0012 01D9     		bls	.L74
 425:.\Generated_Source\PSoC4/Bootloader.c **** 		        PWM_Start();
 756              		.loc 1 425 0
 757 0014 FFF7FEFF 		bl	PWM_Start
 758              	.LVL44:
 759              	.L74:
 428:.\Generated_Source\PSoC4/Bootloader.c **** 		    if(BuzzerDly>1005000)
 760              		.loc 1 428 0
 761 0018 094B     		ldr	r3, .L76+12
 762 001a 2268     		ldr	r2, [r4]
 763 001c 9A42     		cmp	r2, r3
 764 001e 04D9     		bls	.L75
 430:.\Generated_Source\PSoC4/Bootloader.c ****                 BuzzerDly=0;
 765              		.loc 1 430 0
 766 0020 0025     		mov	r5, #0
 767 0022 2560     		str	r5, [r4]
 431:.\Generated_Source\PSoC4/Bootloader.c **** 		        PWM_Stop();
 768              		.loc 1 431 0
 769 0024 FFF7FEFF 		bl	PWM_Stop
 770              	.LVL45:
 432:.\Generated_Source\PSoC4/Bootloader.c **** 		        BuzzerDly=0; 
 771              		.loc 1 432 0
 772 0028 2560     		str	r5, [r4]
 773              	.L75:
 435:.\Generated_Source\PSoC4/Bootloader.c ****             BuzzerDly++;
 774              		.loc 1 435 0
 775 002a 2368     		ldr	r3, [r4]
 776 002c 0133     		add	r3, r3, #1
 777 002e 2360     		str	r3, [r4]
 778              	.L72:
 439:.\Generated_Source\PSoC4/Bootloader.c **** }
 779              		.loc 1 439 0
 780              		@ sp needed
 781 0030 38BD     		pop	{r3, r4, r5, pc}
 782              	.L77:
 783 0032 C046     		.align	2
 784              	.L76:
 785 0034 00000000 		.word	BUZfkg
 786 0038 00000000 		.word	BuzzerDly
 787 003c 40420F00 		.word	1000000
ARM GAS  C:\Users\ZHANGM~1\AppData\Local\Temp\ccse5bds.s 			page 31


 788 0040 C8550F00 		.word	1005000
 789              		.cfi_endproc
 790              	.LFE40:
 791              		.size	Buzzer_Fun, .-Buzzer_Fun
 792              		.section	.text.Bootloader_Calc8BitSum,"ax",%progbits
 793              		.align	1
 794              		.global	Bootloader_Calc8BitSum
 795              		.code	16
 796              		.thumb_func
 797              		.type	Bootloader_Calc8BitSum, %function
 798              	Bootloader_Calc8BitSum:
 799              	.LFB41:
 469:.\Generated_Source\PSoC4/Bootloader.c **** {
 800              		.loc 1 469 0
 801              		.cfi_startproc
 802              	.LVL46:
 803 0000 70B5     		push	{r4, r5, r6, lr}
 804              		.cfi_def_cfa_offset 16
 805              		.cfi_offset 4, -16
 806              		.cfi_offset 5, -12
 807              		.cfi_offset 6, -8
 808              		.cfi_offset 14, -4
 469:.\Generated_Source\PSoC4/Bootloader.c **** {
 809              		.loc 1 469 0
 810 0002 051C     		mov	r5, r0
 811 0004 0E1C     		mov	r6, r1
 812 0006 141C     		mov	r4, r2
 471:.\Generated_Source\PSoC4/Bootloader.c ****     CYASSERT(baseAddr == CY_FLASH_BASE);
 813              		.loc 1 471 0
 814 0008 0028     		cmp	r0, #0
 815 000a 02D0     		beq	.L79
 471:.\Generated_Source\PSoC4/Bootloader.c ****     CYASSERT(baseAddr == CY_FLASH_BASE);
 816              		.loc 1 471 0 is_stmt 0 discriminator 1
 817 000c 0020     		mov	r0, #0
 818              	.LVL47:
 819 000e FFF7FEFF 		bl	CyHalt
 820              	.LVL48:
 821              	.L79:
 469:.\Generated_Source\PSoC4/Bootloader.c **** {
 822              		.loc 1 469 0 is_stmt 1 discriminator 1
 823 0012 0020     		mov	r0, #0
 824              	.LVL49:
 825              	.L80:
 474:.\Generated_Source\PSoC4/Bootloader.c ****     while (size > 0u)
 826              		.loc 1 474 0 discriminator 1
 827 0014 002C     		cmp	r4, #0
 828 0016 05D0     		beq	.L85
 476:.\Generated_Source\PSoC4/Bootloader.c ****         size--;
 829              		.loc 1 476 0
 830 0018 013C     		sub	r4, r4, #1
 831              	.LVL50:
 477:.\Generated_Source\PSoC4/Bootloader.c ****         sum += (*((uint8  *)(baseAddr + start + size)));
 832              		.loc 1 477 0
 833 001a AA19     		add	r2, r5, r6
 834 001c 125D     		ldrb	r2, [r2, r4]
 835 001e 8318     		add	r3, r0, r2
 836 0020 D8B2     		uxtb	r0, r3
ARM GAS  C:\Users\ZHANGM~1\AppData\Local\Temp\ccse5bds.s 			page 32


 837              	.LVL51:
 838 0022 F7E7     		b	.L80
 839              	.LVL52:
 840              	.L85:
 481:.\Generated_Source\PSoC4/Bootloader.c **** }
 841              		.loc 1 481 0
 842              		@ sp needed
 843              	.LVL53:
 844              	.LVL54:
 845              	.LVL55:
 846 0024 70BD     		pop	{r4, r5, r6, pc}
 847              		.cfi_endproc
 848              	.LFE41:
 849              		.size	Bootloader_Calc8BitSum, .-Bootloader_Calc8BitSum
 850              		.section	.text.Bootloader_SetFlashByte,"ax",%progbits
 851              		.align	1
 852              		.global	Bootloader_SetFlashByte
 853              		.code	16
 854              		.thumb_func
 855              		.type	Bootloader_SetFlashByte, %function
 856              	Bootloader_SetFlashByte:
 857              	.LFB50:
 786:.\Generated_Source\PSoC4/Bootloader.c **** 
 787:.\Generated_Source\PSoC4/Bootloader.c **** /*******************************************************************************
 788:.\Generated_Source\PSoC4/Bootloader.c **** * Function Name: Bootloader_HostLink
 789:.\Generated_Source\PSoC4/Bootloader.c **** ********************************************************************************
 790:.\Generated_Source\PSoC4/Bootloader.c **** *
 791:.\Generated_Source\PSoC4/Bootloader.c **** * Summary:
 792:.\Generated_Source\PSoC4/Bootloader.c **** *  Causes the bootloader to attempt to read data being transmitted by the
 793:.\Generated_Source\PSoC4/Bootloader.c **** *  host application.  If data is sent from the host, this establishes the
 794:.\Generated_Source\PSoC4/Bootloader.c **** *  communication interface to process all requests.
 795:.\Generated_Source\PSoC4/Bootloader.c **** *
 796:.\Generated_Source\PSoC4/Bootloader.c **** * Parameters:
 797:.\Generated_Source\PSoC4/Bootloader.c **** *  timeOut:
 798:.\Generated_Source\PSoC4/Bootloader.c **** *   The amount of time to listen for data before giving up. Timeout is
 799:.\Generated_Source\PSoC4/Bootloader.c **** *   measured in 10s of ms.  Use 0 for an infinite wait.
 800:.\Generated_Source\PSoC4/Bootloader.c **** *
 801:.\Generated_Source\PSoC4/Bootloader.c **** * Return:
 802:.\Generated_Source\PSoC4/Bootloader.c **** *   None
 803:.\Generated_Source\PSoC4/Bootloader.c **** *
 804:.\Generated_Source\PSoC4/Bootloader.c **** *******************************************************************************/
 805:.\Generated_Source\PSoC4/Bootloader.c **** static void Bootloader_HostLink(void) 
 806:.\Generated_Source\PSoC4/Bootloader.c **** {
 807:.\Generated_Source\PSoC4/Bootloader.c **** 
 808:.\Generated_Source\PSoC4/Bootloader.c **** 
 809:.\Generated_Source\PSoC4/Bootloader.c ****     uint8     CYDATA ackCode;
 810:.\Generated_Source\PSoC4/Bootloader.c ****     uint16   CYDATA pktChecksum;
 811:.\Generated_Source\PSoC4/Bootloader.c ****     uint8     dataBuffer  [Bootloader_SIZEOF_COMMAND_BUFFER];
 812:.\Generated_Source\PSoC4/Bootloader.c ****    // uint8 dataBuffer_0[300],packetBuffer[300];
 813:.\Generated_Source\PSoC4/Bootloader.c ****     uint16 iCommand;
 814:.\Generated_Source\PSoC4/Bootloader.c ****     uint16 row,numberRead;
 815:.\Generated_Source\PSoC4/Bootloader.c ****     uint8     timeOut=20,iicount,itotalcount;
 816:.\Generated_Source\PSoC4/Bootloader.c ****     uint16 tmp;
 817:.\Generated_Source\PSoC4/Bootloader.c ****     uint32 count=0,count00;
 818:.\Generated_Source\PSoC4/Bootloader.c ****     CYBIT F_send,readStat;  ;
 819:.\Generated_Source\PSoC4/Bootloader.c **** 
 820:.\Generated_Source\PSoC4/Bootloader.c ****     /* Initialize communications channel. */
ARM GAS  C:\Users\ZHANGM~1\AppData\Local\Temp\ccse5bds.s 			page 33


 821:.\Generated_Source\PSoC4/Bootloader.c ****     UART_0_Init();
 822:.\Generated_Source\PSoC4/Bootloader.c ****     UART_0_Enable();
 823:.\Generated_Source\PSoC4/Bootloader.c ****     UART_0_Start();
 824:.\Generated_Source\PSoC4/Bootloader.c ****     UART_0_SetCustomInterruptHandler(UART_ISR_0_FUN);  
 825:.\Generated_Source\PSoC4/Bootloader.c ****     UART_0_SpiUartClearRxBuffer();
 826:.\Generated_Source\PSoC4/Bootloader.c ****     UART_0_SpiUartClearTxBuffer();
 827:.\Generated_Source\PSoC4/Bootloader.c ****     //Open_UART_WIFI_ISR();
 828:.\Generated_Source\PSoC4/Bootloader.c ****     /* Enable global interrupts */
 829:.\Generated_Source\PSoC4/Bootloader.c ****     CyGlobalIntEnable;
 830:.\Generated_Source\PSoC4/Bootloader.c ****     F_uart_0_tx=1;
 831:.\Generated_Source\PSoC4/Bootloader.c **** 
 832:.\Generated_Source\PSoC4/Bootloader.c ****     F_send=0;
 833:.\Generated_Source\PSoC4/Bootloader.c ****     CyDelay(100);
 834:.\Generated_Source\PSoC4/Bootloader.c ****     while(1)
 835:.\Generated_Source\PSoC4/Bootloader.c ****     {
 836:.\Generated_Source\PSoC4/Bootloader.c ****         Buzzer_Fun();
 837:.\Generated_Source\PSoC4/Bootloader.c ****         Uart_0_Putchar();
 838:.\Generated_Source\PSoC4/Bootloader.c ****         BUZfkg=1;
 839:.\Generated_Source\PSoC4/Bootloader.c ****         /* The command may be sent along with the last block of data, to program the row. */
 840:.\Generated_Source\PSoC4/Bootloader.c **** 
 841:.\Generated_Source\PSoC4/Bootloader.c ****         if(count>0)
 842:.\Generated_Source\PSoC4/Bootloader.c ****         {
 843:.\Generated_Source\PSoC4/Bootloader.c ****            count--;
 844:.\Generated_Source\PSoC4/Bootloader.c ****         }
 845:.\Generated_Source\PSoC4/Bootloader.c ****         else
 846:.\Generated_Source\PSoC4/Bootloader.c ****         {
 847:.\Generated_Source\PSoC4/Bootloader.c ****             F_send=0;
 848:.\Generated_Source\PSoC4/Bootloader.c ****         }
 849:.\Generated_Source\PSoC4/Bootloader.c ****         if(f_delay==1)
 850:.\Generated_Source\PSoC4/Bootloader.c ****         {
 851:.\Generated_Source\PSoC4/Bootloader.c ****            count00++;
 852:.\Generated_Source\PSoC4/Bootloader.c ****         }
 853:.\Generated_Source\PSoC4/Bootloader.c ****         else
 854:.\Generated_Source\PSoC4/Bootloader.c ****         {
 855:.\Generated_Source\PSoC4/Bootloader.c ****             count00=0;
 856:.\Generated_Source\PSoC4/Bootloader.c ****         }
 857:.\Generated_Source\PSoC4/Bootloader.c ****         if(count00>50000)
 858:.\Generated_Source\PSoC4/Bootloader.c ****         {
 859:.\Generated_Source\PSoC4/Bootloader.c ****                Bootloader_LaunchApplication();
 860:.\Generated_Source\PSoC4/Bootloader.c ****              if(CYRET_SUCCESS == Bootloader_ValidateBootloadable(Bootloader_activeApp))
 861:.\Generated_Source\PSoC4/Bootloader.c ****         {
 862:.\Generated_Source\PSoC4/Bootloader.c **** 
 863:.\Generated_Source\PSoC4/Bootloader.c ****                                                                          Bootloader_SET_RUN_TYPE(Bo
 864:.\Generated_Source\PSoC4/Bootloader.c ****             CySoftwareReset();
 865:.\Generated_Source\PSoC4/Bootloader.c ****         }
 866:.\Generated_Source\PSoC4/Bootloader.c ****         }
 867:.\Generated_Source\PSoC4/Bootloader.c ****         if((F_send==0)&&(f_ack_1==0))
 868:.\Generated_Source\PSoC4/Bootloader.c ****         {
 869:.\Generated_Source\PSoC4/Bootloader.c ****             F_send=1;
 870:.\Generated_Source\PSoC4/Bootloader.c ****             dataBuffer_0[0x00] 	= 0x00u;
 871:.\Generated_Source\PSoC4/Bootloader.c **** 			dataBuffer_0[0x01] 	= 0x80u;
 872:.\Generated_Source\PSoC4/Bootloader.c **** 			SendDataToWifi(	0x00,0xCCC5,&dataBuffer_0[0],0x02);
 873:.\Generated_Source\PSoC4/Bootloader.c ****             count=100000;
 874:.\Generated_Source\PSoC4/Bootloader.c ****         }
 875:.\Generated_Source\PSoC4/Bootloader.c ****         else if((WifiWorkFlag.gcReceComm1OK==1)&&(giWIFIDATALength<=(WIFIBUFLEN-10-1))) 
 876:.\Generated_Source\PSoC4/Bootloader.c ****         {
 877:.\Generated_Source\PSoC4/Bootloader.c ****             BUZfkg=1;
ARM GAS  C:\Users\ZHANGM~1\AppData\Local\Temp\ccse5bds.s 			page 34


 878:.\Generated_Source\PSoC4/Bootloader.c ****             WifiWorkFlag.gcReceComm1OK=0;
 879:.\Generated_Source\PSoC4/Bootloader.c ****             pktChecksum = ATReceBuffer[0].gcATReceData[giWIFIDATALength+10];
 880:.\Generated_Source\PSoC4/Bootloader.c ****             pktChecksum = (pktChecksum<<8)+ATReceBuffer[0].gcATReceData[giWIFIDATALength+11];
 881:.\Generated_Source\PSoC4/Bootloader.c ****             tmp= crc16(&ATReceBuffer[0].gcATReceData[0], giWIFIDATALength+10);
 882:.\Generated_Source\PSoC4/Bootloader.c ****            if(pktChecksum == tmp)
 883:.\Generated_Source\PSoC4/Bootloader.c ****             {
 884:.\Generated_Source\PSoC4/Bootloader.c ****                 itotalcount=ATReceBuffer[0].gcATReceData[3];
 885:.\Generated_Source\PSoC4/Bootloader.c ****                 iicount=ATReceBuffer[0].gcATReceData[4];
 886:.\Generated_Source\PSoC4/Bootloader.c ****                 z_iicount=iicount; 
 887:.\Generated_Source\PSoC4/Bootloader.c ****                 z_itotalcount=itotalcount;
 888:.\Generated_Source\PSoC4/Bootloader.c ****                 iCommand=ATReceBuffer[0].gcATReceData[Bootloader_CMD_ADDR];
 889:.\Generated_Source\PSoC4/Bootloader.c ****                 iCommand=(iCommand<<8u)+ATReceBuffer[0].gcATReceData[Bootloader_CMD_ADDR+1];
 890:.\Generated_Source\PSoC4/Bootloader.c ****                 switch(iCommand)
 891:.\Generated_Source\PSoC4/Bootloader.c ****                 {
 892:.\Generated_Source\PSoC4/Bootloader.c ****                 case 0xccc5:
 893:.\Generated_Source\PSoC4/Bootloader.c ****                 {
 894:.\Generated_Source\PSoC4/Bootloader.c ****                    //BUZfkg=1;
 895:.\Generated_Source\PSoC4/Bootloader.c ****                     f_ack_1=0xff;
 896:.\Generated_Source\PSoC4/Bootloader.c ****                     break;
 897:.\Generated_Source\PSoC4/Bootloader.c ****                 }
 898:.\Generated_Source\PSoC4/Bootloader.c ****                 case Bootloader_COMMAND_PROGRAM:
 899:.\Generated_Source\PSoC4/Bootloader.c ****                 {
 900:.\Generated_Source\PSoC4/Bootloader.c ****                     (void) memcpy(&dataBuffer[0],&ATReceBuffer[0].gcATReceData[10],128);
 901:.\Generated_Source\PSoC4/Bootloader.c ****                     if((iicount==itotalcount)&&(iicount>5))
 902:.\Generated_Source\PSoC4/Bootloader.c ****                         {
 903:.\Generated_Source\PSoC4/Bootloader.c ****                              /* Get FLASH/EEPROM row number inside of the array */
 904:.\Generated_Source\PSoC4/Bootloader.c ****                             row = 255;
 905:.\Generated_Source\PSoC4/Bootloader.c ****                             ackCode = (CYRET_SUCCESS != CySysFlashWriteRow((uint32) row, dataBuffer
 906:.\Generated_Source\PSoC4/Bootloader.c ****                             ? Bootloader_ERR_ROW : CYRET_SUCCESS;   
 907:.\Generated_Source\PSoC4/Bootloader.c **** 
 908:.\Generated_Source\PSoC4/Bootloader.c **** 
 909:.\Generated_Source\PSoC4/Bootloader.c ****                             dataBuffer_0[0x00] 	= 0x00u;
 910:.\Generated_Source\PSoC4/Bootloader.c ****                             dataBuffer_0[0x01] 	= 0x00u;
 911:.\Generated_Source\PSoC4/Bootloader.c ****                             SendDataToWifi(	0x00,Bootloader_COMMAND_PROGRAM,&dataBuffer_0[0],0x02);
 912:.\Generated_Source\PSoC4/Bootloader.c **** 
 913:.\Generated_Source\PSoC4/Bootloader.c **** f_delay=1;
 914:.\Generated_Source\PSoC4/Bootloader.c ****                         }
 915:.\Generated_Source\PSoC4/Bootloader.c ****                     else
 916:.\Generated_Source\PSoC4/Bootloader.c ****                         {
 917:.\Generated_Source\PSoC4/Bootloader.c ****                              /* Get FLASH/EEPROM row number inside of the array */
 918:.\Generated_Source\PSoC4/Bootloader.c ****                             row = iicount+Bootloader_DATAOFFSET;
 919:.\Generated_Source\PSoC4/Bootloader.c ****                             ackCode = (CYRET_SUCCESS != CySysFlashWriteRow((uint32) row, dataBuffer
 920:.\Generated_Source\PSoC4/Bootloader.c ****                             ? Bootloader_ERR_ROW : CYRET_SUCCESS;   
 921:.\Generated_Source\PSoC4/Bootloader.c ****                             dataBuffer_0[0x03] 	= ATReceBuffer[0].gcATReceData[3];
 922:.\Generated_Source\PSoC4/Bootloader.c ****                             dataBuffer_0[0x04] 	= iicount;
 923:.\Generated_Source\PSoC4/Bootloader.c ****                             dataBuffer_0[0x00] 	= 0x00u;
 924:.\Generated_Source\PSoC4/Bootloader.c ****                             dataBuffer_0[0x01] 	= 0x00u;
 925:.\Generated_Source\PSoC4/Bootloader.c ****                             SendDataToWifi(	0x00,Bootloader_COMMAND_PROGRAM,&dataBuffer_0[0],0x02);
 926:.\Generated_Source\PSoC4/Bootloader.c ****                             
 927:.\Generated_Source\PSoC4/Bootloader.c ****                         }    
 928:.\Generated_Source\PSoC4/Bootloader.c ****                  }
 929:.\Generated_Source\PSoC4/Bootloader.c ****                 default:
 930:.\Generated_Source\PSoC4/Bootloader.c ****                 break;
 931:.\Generated_Source\PSoC4/Bootloader.c ****                 }
 932:.\Generated_Source\PSoC4/Bootloader.c **** 
 933:.\Generated_Source\PSoC4/Bootloader.c ****             }
 934:.\Generated_Source\PSoC4/Bootloader.c **** 		}
ARM GAS  C:\Users\ZHANGM~1\AppData\Local\Temp\ccse5bds.s 			page 35


 935:.\Generated_Source\PSoC4/Bootloader.c **** //        if((count00>5000)&&(f_delay==1))
 936:.\Generated_Source\PSoC4/Bootloader.c **** //        {
 937:.\Generated_Source\PSoC4/Bootloader.c **** //
 938:.\Generated_Source\PSoC4/Bootloader.c **** //        }
 939:.\Generated_Source\PSoC4/Bootloader.c ****     }
 940:.\Generated_Source\PSoC4/Bootloader.c **** }
 941:.\Generated_Source\PSoC4/Bootloader.c **** //static void Bootloader_HostLink(void) 
 942:.\Generated_Source\PSoC4/Bootloader.c **** //{
 943:.\Generated_Source\PSoC4/Bootloader.c **** //
 944:.\Generated_Source\PSoC4/Bootloader.c **** //
 945:.\Generated_Source\PSoC4/Bootloader.c **** //    uint8     CYDATA ackCode;
 946:.\Generated_Source\PSoC4/Bootloader.c **** //    uint16   CYDATA pktChecksum;
 947:.\Generated_Source\PSoC4/Bootloader.c **** //    uint8     dataBuffer  [Bootloader_SIZEOF_COMMAND_BUFFER];
 948:.\Generated_Source\PSoC4/Bootloader.c **** //    uint16 iCommand;
 949:.\Generated_Source\PSoC4/Bootloader.c **** //    /* Initialize communications channel. */
 950:.\Generated_Source\PSoC4/Bootloader.c **** //    CyBtldrCommStart();
 951:.\Generated_Source\PSoC4/Bootloader.c **** //    /* Enable global interrupts */
 952:.\Generated_Source\PSoC4/Bootloader.c **** //    CyGlobalIntEnable;
 953:.\Generated_Source\PSoC4/Bootloader.c **** //    while(1)
 954:.\Generated_Source\PSoC4/Bootloader.c **** //    {
 955:.\Generated_Source\PSoC4/Bootloader.c **** //        Buzzer_Fun();
 956:.\Generated_Source\PSoC4/Bootloader.c **** //        Uart_0_Putchar();
 957:.\Generated_Source\PSoC4/Bootloader.c **** //    	 if((WifiWorkFlag.gcReceComm1OK)&&(giWIFIDATALength<=(WIFIBUFLEN-10-1))) 
 958:.\Generated_Source\PSoC4/Bootloader.c **** //    	 {
 959:.\Generated_Source\PSoC4/Bootloader.c **** //                WifiWorkFlag.gcReceComm1OK=0;
 960:.\Generated_Source\PSoC4/Bootloader.c **** //                pktChecksum = ATReceBuffer[0].gcATReceData[Bootloader_CHK_ADDR(giWIFIDATALength+B
 961:.\Generated_Source\PSoC4/Bootloader.c **** //                +ATReceBuffer[0].gcATReceData[Bootloader_CHK_ADDR(giWIFIDATALength+Bootloader_DAT
 962:.\Generated_Source\PSoC4/Bootloader.c **** //                if(pktChecksum != crc16(&ATReceBuffer[0].gcATReceData[0], giWIFIDATALength+10))
 963:.\Generated_Source\PSoC4/Bootloader.c **** //                {
 964:.\Generated_Source\PSoC4/Bootloader.c **** //                    ATReceBuffer[0].gcATReceData[Bootloader_DATA_ADDR] 		= 0x00u;
 965:.\Generated_Source\PSoC4/Bootloader.c **** //                    ATReceBuffer[0].gcATReceData[Bootloader_DATA_ADDR+1] 	= 0x01u;
 966:.\Generated_Source\PSoC4/Bootloader.c **** //                    SendDataToWifi(	0x80,
 967:.\Generated_Source\PSoC4/Bootloader.c **** //                    								Bootloader_COMMAND_PROGRAM,
 968:.\Generated_Source\PSoC4/Bootloader.c **** //                    									&ATReceBuffer[0].gcATReceData[0],
 969:.\Generated_Source\PSoC4/Bootloader.c **** //                    													0x02);
 970:.\Generated_Source\PSoC4/Bootloader.c **** //                }
 971:.\Generated_Source\PSoC4/Bootloader.c **** //                else
 972:.\Generated_Source\PSoC4/Bootloader.c **** //                {
 973:.\Generated_Source\PSoC4/Bootloader.c **** //                    BUZfkg=1;
 974:.\Generated_Source\PSoC4/Bootloader.c **** //                    iCommand=ATReceBuffer[0].gcATReceData[Bootloader_CMD_ADDR+1]<<8u;
 975:.\Generated_Source\PSoC4/Bootloader.c **** //                    iCommand=ATReceBuffer[0].gcATReceData[Bootloader_CMD_ADDR];
 976:.\Generated_Source\PSoC4/Bootloader.c **** //                    switch(iCommand)
 977:.\Generated_Source\PSoC4/Bootloader.c **** //                    {
 978:.\Generated_Source\PSoC4/Bootloader.c **** //                    /***************************************************************************
 979:.\Generated_Source\PSoC4/Bootloader.c **** //                    *   Program / Erase row
 980:.\Generated_Source\PSoC4/Bootloader.c **** //                    ***************************************************************************/
 981:.\Generated_Source\PSoC4/Bootloader.c **** //                    case Bootloader_COMMAND_PROGRAM:
 982:.\Generated_Source\PSoC4/Bootloader.c **** //
 983:.\Generated_Source\PSoC4/Bootloader.c **** //
 984:.\Generated_Source\PSoC4/Bootloader.c **** //                            /* The command may be sent along with the last block of data, to prog
 985:.\Generated_Source\PSoC4/Bootloader.c **** //                        (void) memcpy(&dataBuffer[0],
 986:.\Generated_Source\PSoC4/Bootloader.c **** //                                      &ATReceBuffer[0].gcATReceData[Bootloader_DATA_ADDR],
 987:.\Generated_Source\PSoC4/Bootloader.c **** //                                      (uint16) giWIFIDATALength);
 988:.\Generated_Source\PSoC4/Bootloader.c **** //            	        uint16 row;
 989:.\Generated_Source\PSoC4/Bootloader.c **** //
 990:.\Generated_Source\PSoC4/Bootloader.c **** //                        /* Get FLASH/EEPROM row number inside of the array */
 991:.\Generated_Source\PSoC4/Bootloader.c **** //                        row = ATReceBuffer[0].gcATReceData[4]+Bootloader_DATAOFFSET;
ARM GAS  C:\Users\ZHANGM~1\AppData\Local\Temp\ccse5bds.s 			page 36


 992:.\Generated_Source\PSoC4/Bootloader.c **** //                        ackCode = (CYRET_SUCCESS != CySysFlashWriteRow((uint32) row, dataBuffer))
 993:.\Generated_Source\PSoC4/Bootloader.c **** //                            ? Bootloader_ERR_ROW : CYRET_SUCCESS;
 994:.\Generated_Source\PSoC4/Bootloader.c **** //                        ATReceBuffer[0].gcATReceData[Bootloader_DATA_ADDR] 		= 0x00u;
 995:.\Generated_Source\PSoC4/Bootloader.c **** //                    		ATReceBuffer[0].gcATReceData[Bootloader_DATA_ADDR+1] 	= 0x00u;
 996:.\Generated_Source\PSoC4/Bootloader.c **** //                        SendDataToWifi(	0x80,
 997:.\Generated_Source\PSoC4/Bootloader.c **** //                  						Bootloader_COMMAND_PROGRAM,
 998:.\Generated_Source\PSoC4/Bootloader.c **** //                 						&ATReceBuffer[0].gcATReceData[0],
 999:.\Generated_Source\PSoC4/Bootloader.c **** //	     								0x02);
1000:.\Generated_Source\PSoC4/Bootloader.c **** //                        if((ATReceBuffer[0].gcATReceData[3]==ATReceBuffer[0].gcATReceData[4])&&(A
1001:.\Generated_Source\PSoC4/Bootloader.c **** //                    	{
1002:.\Generated_Source\PSoC4/Bootloader.c **** //                    		 if(CYRET_SUCCESS == Bootloader_ValidateBootloadable(Bootloader_activeApp))
1003:.\Generated_Source\PSoC4/Bootloader.c **** //                            {
1004:.\Generated_Source\PSoC4/Bootloader.c **** //                                Bootloader_SET_RUN_TYPE(Bootloader_SCHEDULE_BTLDB);
1005:.\Generated_Source\PSoC4/Bootloader.c **** //                                CySoftwareReset();
1006:.\Generated_Source\PSoC4/Bootloader.c **** //                            }
1007:.\Generated_Source\PSoC4/Bootloader.c **** //                    	}
1008:.\Generated_Source\PSoC4/Bootloader.c **** //            	                    
1009:.\Generated_Source\PSoC4/Bootloader.c **** //
1010:.\Generated_Source\PSoC4/Bootloader.c **** //                        
1011:.\Generated_Source\PSoC4/Bootloader.c **** //
1012:.\Generated_Source\PSoC4/Bootloader.c **** //                        break;
1013:.\Generated_Source\PSoC4/Bootloader.c **** //                    /***************************************************************************
1014:.\Generated_Source\PSoC4/Bootloader.c **** //                    *   Unsupported command
1015:.\Generated_Source\PSoC4/Bootloader.c **** //                    ***************************************************************************/
1016:.\Generated_Source\PSoC4/Bootloader.c **** //                    default:
1017:.\Generated_Source\PSoC4/Bootloader.c **** //                        break;
1018:.\Generated_Source\PSoC4/Bootloader.c **** //                    }
1019:.\Generated_Source\PSoC4/Bootloader.c **** //                } 
1020:.\Generated_Source\PSoC4/Bootloader.c **** //          }  
1021:.\Generated_Source\PSoC4/Bootloader.c **** //       
1022:.\Generated_Source\PSoC4/Bootloader.c **** //
1023:.\Generated_Source\PSoC4/Bootloader.c **** //
1024:.\Generated_Source\PSoC4/Bootloader.c **** //    }
1025:.\Generated_Source\PSoC4/Bootloader.c **** //}
1026:.\Generated_Source\PSoC4/Bootloader.c **** 
1027:.\Generated_Source\PSoC4/Bootloader.c **** 
1028:.\Generated_Source\PSoC4/Bootloader.c **** 
1029:.\Generated_Source\PSoC4/Bootloader.c **** 
1030:.\Generated_Source\PSoC4/Bootloader.c **** 
1031:.\Generated_Source\PSoC4/Bootloader.c **** /*******************************************************************************
1032:.\Generated_Source\PSoC4/Bootloader.c **** * Function Name: Bootloader_SetFlashByte
1033:.\Generated_Source\PSoC4/Bootloader.c **** ********************************************************************************
1034:.\Generated_Source\PSoC4/Bootloader.c **** *
1035:.\Generated_Source\PSoC4/Bootloader.c **** * Summary:
1036:.\Generated_Source\PSoC4/Bootloader.c **** *  Writes a byte to the specified Flash memory location.
1037:.\Generated_Source\PSoC4/Bootloader.c **** *
1038:.\Generated_Source\PSoC4/Bootloader.c **** * Parameters:
1039:.\Generated_Source\PSoC4/Bootloader.c **** *  address:
1040:.\Generated_Source\PSoC4/Bootloader.c **** *      The address in Flash memory where data will be written
1041:.\Generated_Source\PSoC4/Bootloader.c **** *
1042:.\Generated_Source\PSoC4/Bootloader.c **** *  runType:
1043:.\Generated_Source\PSoC4/Bootloader.c **** *      Byte to be written
1044:.\Generated_Source\PSoC4/Bootloader.c **** *
1045:.\Generated_Source\PSoC4/Bootloader.c **** * Return:
1046:.\Generated_Source\PSoC4/Bootloader.c **** *  None
1047:.\Generated_Source\PSoC4/Bootloader.c **** *
1048:.\Generated_Source\PSoC4/Bootloader.c **** *******************************************************************************/
ARM GAS  C:\Users\ZHANGM~1\AppData\Local\Temp\ccse5bds.s 			page 37


1049:.\Generated_Source\PSoC4/Bootloader.c **** void Bootloader_SetFlashByte(uint32 address, uint8 runType) 
1050:.\Generated_Source\PSoC4/Bootloader.c **** {
 858              		.loc 1 1050 0
 859              		.cfi_startproc
 860              	.LVL56:
 861 0000 70B5     		push	{r4, r5, r6, lr}
 862              		.cfi_def_cfa_offset 16
 863              		.cfi_offset 4, -16
 864              		.cfi_offset 5, -12
 865              		.cfi_offset 6, -8
 866              		.cfi_offset 14, -4
1051:.\Generated_Source\PSoC4/Bootloader.c ****     uint32 flsAddr = address - CYDEV_FLASH_BASE;
1052:.\Generated_Source\PSoC4/Bootloader.c ****     uint8  rowData[CYDEV_FLS_ROW_SIZE];
1053:.\Generated_Source\PSoC4/Bootloader.c ****     uint16 rowNum = ( uint16 )(flsAddr / CYDEV_FLS_ROW_SIZE);
1054:.\Generated_Source\PSoC4/Bootloader.c ****     uint32 baseAddr = address - (address % CYDEV_FLS_ROW_SIZE);
 867              		.loc 1 1054 0
 868 0002 7F23     		mov	r3, #127
 869 0004 051C     		mov	r5, r0
 870 0006 9D43     		bic	r5, r3
1050:.\Generated_Source\PSoC4/Bootloader.c **** {
 871              		.loc 1 1050 0
 872 0008 A0B0     		sub	sp, sp, #128
 873              		.cfi_def_cfa_offset 144
1053:.\Generated_Source\PSoC4/Bootloader.c ****     uint16 rowNum = ( uint16 )(flsAddr / CYDEV_FLS_ROW_SIZE);
 874              		.loc 1 1053 0
 875 000a C209     		lsr	r2, r0, #7
 876              	.LVL57:
 877              		.loc 1 1054 0
 878 000c 0023     		mov	r3, #0
 879              	.LVL58:
 880              	.L88:
1055:.\Generated_Source\PSoC4/Bootloader.c ****     uint16 idx;
1056:.\Generated_Source\PSoC4/Bootloader.c **** 
1057:.\Generated_Source\PSoC4/Bootloader.c ****     for(idx = 0u; idx < CYDEV_FLS_ROW_SIZE; idx++)
1058:.\Generated_Source\PSoC4/Bootloader.c ****     {
1059:.\Generated_Source\PSoC4/Bootloader.c ****         rowData[idx] = Bootloader_GET_CODE_BYTE(baseAddr + idx);
 881              		.loc 1 1059 0 discriminator 2
 882 000e 5C5D     		ldrb	r4, [r3, r5]
 883 0010 6E46     		mov	r6, sp
 884 0012 9C55     		strb	r4, [r3, r6]
 885              	.LVL59:
 886 0014 0133     		add	r3, r3, #1
 887              	.LVL60:
1057:.\Generated_Source\PSoC4/Bootloader.c ****     for(idx = 0u; idx < CYDEV_FLS_ROW_SIZE; idx++)
 888              		.loc 1 1057 0 discriminator 2
 889 0016 802B     		cmp	r3, #128
 890 0018 F9D1     		bne	.L88
1060:.\Generated_Source\PSoC4/Bootloader.c ****     }
1061:.\Generated_Source\PSoC4/Bootloader.c **** 
1062:.\Generated_Source\PSoC4/Bootloader.c ****     rowData[address % CYDEV_FLS_ROW_SIZE] = runType;
 891              		.loc 1 1062 0
 892 001a 7F23     		mov	r3, #127
 893              	.LVL61:
 894 001c 1840     		and	r0, r3
 895              	.LVL62:
 896 001e 3154     		strb	r1, [r6, r0]
1063:.\Generated_Source\PSoC4/Bootloader.c ****     (void) CySysFlashWriteRow((uint32) rowNum, rowData);
ARM GAS  C:\Users\ZHANGM~1\AppData\Local\Temp\ccse5bds.s 			page 38


 897              		.loc 1 1063 0
 898 0020 90B2     		uxth	r0, r2
 899 0022 6946     		mov	r1, sp
 900              	.LVL63:
 901 0024 FFF7FEFF 		bl	CySysFlashWriteRow
 902              	.LVL64:
1064:.\Generated_Source\PSoC4/Bootloader.c **** 
1065:.\Generated_Source\PSoC4/Bootloader.c **** 
1066:.\Generated_Source\PSoC4/Bootloader.c **** 
1067:.\Generated_Source\PSoC4/Bootloader.c **** }
 903              		.loc 1 1067 0
 904 0028 20B0     		add	sp, sp, #128
 905              		@ sp needed
 906              	.LVL65:
 907 002a 70BD     		pop	{r4, r5, r6, pc}
 908              		.cfi_endproc
 909              	.LFE50:
 910              		.size	Bootloader_SetFlashByte, .-Bootloader_SetFlashByte
 911              		.section	.text.Bootloader_GetMetadata,"ax",%progbits
 912              		.align	1
 913              		.global	Bootloader_GetMetadata
 914              		.code	16
 915              		.thumb_func
 916              		.type	Bootloader_GetMetadata, %function
 917              	Bootloader_GetMetadata:
 918              	.LFB51:
1068:.\Generated_Source\PSoC4/Bootloader.c **** 
1069:.\Generated_Source\PSoC4/Bootloader.c **** 
1070:.\Generated_Source\PSoC4/Bootloader.c **** /*******************************************************************************
1071:.\Generated_Source\PSoC4/Bootloader.c **** * Function Name: Bootloader_GetMetadata
1072:.\Generated_Source\PSoC4/Bootloader.c **** ********************************************************************************
1073:.\Generated_Source\PSoC4/Bootloader.c **** *
1074:.\Generated_Source\PSoC4/Bootloader.c **** * Summary:
1075:.\Generated_Source\PSoC4/Bootloader.c **** *  Returns the value of the specified field of the metadata section.
1076:.\Generated_Source\PSoC4/Bootloader.c **** *
1077:.\Generated_Source\PSoC4/Bootloader.c **** * Parameters:
1078:.\Generated_Source\PSoC4/Bootloader.c **** *  field:
1079:.\Generated_Source\PSoC4/Bootloader.c **** *   The field to get data from:
1080:.\Generated_Source\PSoC4/Bootloader.c **** *   Bootloader_GET_BTLDB_CHECKSUM    - Bootloadable Application Checksum
1081:.\Generated_Source\PSoC4/Bootloader.c **** *   Bootloader_GET_BTLDB_ADDR        - Bootloadable Application Start
1082:.\Generated_Source\PSoC4/Bootloader.c **** *                                            Routine Address
1083:.\Generated_Source\PSoC4/Bootloader.c **** *   Bootloader_GET_BTLDR_LAST_ROW    - Bootloader Last Flash Row
1084:.\Generated_Source\PSoC4/Bootloader.c **** *   Bootloader_GET_BTLDB_LENGTH      - Bootloadable Application Length
1085:.\Generated_Source\PSoC4/Bootloader.c **** *   Bootloader_GET_BTLDB_ACTIVE      - Active Bootloadable Application
1086:.\Generated_Source\PSoC4/Bootloader.c **** *   Bootloader_GET_BTLDB_STATUS      - Bootloadable Application
1087:.\Generated_Source\PSoC4/Bootloader.c **** *                                            Verification Status
1088:.\Generated_Source\PSoC4/Bootloader.c **** *   Bootloader_GET_BTLDR_APP_VERSION - Bootloader Application Version
1089:.\Generated_Source\PSoC4/Bootloader.c **** *   Bootloader_GET_BTLDB_APP_VERSION - Bootloadable Application Version
1090:.\Generated_Source\PSoC4/Bootloader.c **** *   Bootloader_GET_BTLDB_APP_ID      - Bootloadable Application ID
1091:.\Generated_Source\PSoC4/Bootloader.c **** *   Bootloader_GET_BTLDB_APP_CUST_ID - Bootloadable Application Custom ID
1092:.\Generated_Source\PSoC4/Bootloader.c **** *
1093:.\Generated_Source\PSoC4/Bootloader.c **** *  appId:
1094:.\Generated_Source\PSoC4/Bootloader.c **** *   Number of the bootlodable application. Should be 0 for the normal
1095:.\Generated_Source\PSoC4/Bootloader.c **** *   bootloader and 0 or 1 for the Multi-Application bootloader.
1096:.\Generated_Source\PSoC4/Bootloader.c **** *
1097:.\Generated_Source\PSoC4/Bootloader.c **** * Return:
1098:.\Generated_Source\PSoC4/Bootloader.c **** *  The value of the specified field of the specified application.
ARM GAS  C:\Users\ZHANGM~1\AppData\Local\Temp\ccse5bds.s 			page 39


1099:.\Generated_Source\PSoC4/Bootloader.c **** *
1100:.\Generated_Source\PSoC4/Bootloader.c **** *******************************************************************************/
1101:.\Generated_Source\PSoC4/Bootloader.c **** uint32 Bootloader_GetMetadata(uint8 field, uint8 appId)
1102:.\Generated_Source\PSoC4/Bootloader.c **** {
 919              		.loc 1 1102 0
 920              		.cfi_startproc
 921              	.LVL66:
1103:.\Generated_Source\PSoC4/Bootloader.c ****     uint32 fieldPtr;
1104:.\Generated_Source\PSoC4/Bootloader.c ****     uint8  fieldSize = 2u;
1105:.\Generated_Source\PSoC4/Bootloader.c ****     uint32 result = 0u;
1106:.\Generated_Source\PSoC4/Bootloader.c **** 
1107:.\Generated_Source\PSoC4/Bootloader.c ****     switch (field)
 922              		.loc 1 1107 0
 923 0000 0138     		sub	r0, r0, #1
 924              	.LVL67:
1102:.\Generated_Source\PSoC4/Bootloader.c **** {
 925              		.loc 1 1102 0
 926 0002 08B5     		push	{r3, lr}
 927              		.cfi_def_cfa_offset 8
 928              		.cfi_offset 3, -8
 929              		.cfi_offset 14, -4
 930              		.loc 1 1107 0
 931 0004 0928     		cmp	r0, #9
 932 0006 2AD8     		bhi	.L90
 933 0008 C901     		lsl	r1, r1, #7
 934              	.LVL68:
1108:.\Generated_Source\PSoC4/Bootloader.c ****     {
1109:.\Generated_Source\PSoC4/Bootloader.c ****     case Bootloader_GET_BTLDB_CHECKSUM:
1110:.\Generated_Source\PSoC4/Bootloader.c ****         fieldPtr  = Bootloader_MD_BTLDB_CHECKSUM_OFFSET(appId);
1111:.\Generated_Source\PSoC4/Bootloader.c ****         fieldSize = 1u;
1112:.\Generated_Source\PSoC4/Bootloader.c ****         break;
1113:.\Generated_Source\PSoC4/Bootloader.c **** 
1114:.\Generated_Source\PSoC4/Bootloader.c ****     case Bootloader_GET_BTLDB_ADDR:
1115:.\Generated_Source\PSoC4/Bootloader.c ****         fieldPtr  = Bootloader_MD_BTLDB_ADDR_OFFSET(appId);
1116:.\Generated_Source\PSoC4/Bootloader.c ****     #if(!CY_PSOC3)
1117:.\Generated_Source\PSoC4/Bootloader.c ****         fieldSize = 4u;
1118:.\Generated_Source\PSoC4/Bootloader.c ****     #endif  /* (!CY_PSOC3) */
1119:.\Generated_Source\PSoC4/Bootloader.c ****         break;
1120:.\Generated_Source\PSoC4/Bootloader.c **** 
1121:.\Generated_Source\PSoC4/Bootloader.c ****     case Bootloader_GET_BTLDR_LAST_ROW:
1122:.\Generated_Source\PSoC4/Bootloader.c ****         fieldPtr  = Bootloader_MD_BTLDR_LAST_ROW_OFFSET(appId);
1123:.\Generated_Source\PSoC4/Bootloader.c ****         break;
1124:.\Generated_Source\PSoC4/Bootloader.c **** 
1125:.\Generated_Source\PSoC4/Bootloader.c ****     case Bootloader_GET_BTLDB_LENGTH:
1126:.\Generated_Source\PSoC4/Bootloader.c ****         fieldPtr  = Bootloader_MD_BTLDB_LENGTH_OFFSET(appId);
1127:.\Generated_Source\PSoC4/Bootloader.c ****     #if(!CY_PSOC3)
1128:.\Generated_Source\PSoC4/Bootloader.c ****         fieldSize = 4u;
1129:.\Generated_Source\PSoC4/Bootloader.c ****     #endif  /* (!CY_PSOC3) */
1130:.\Generated_Source\PSoC4/Bootloader.c ****         break;
1131:.\Generated_Source\PSoC4/Bootloader.c **** 
1132:.\Generated_Source\PSoC4/Bootloader.c ****     case Bootloader_GET_BTLDB_ACTIVE:
1133:.\Generated_Source\PSoC4/Bootloader.c ****         fieldPtr  = Bootloader_MD_BTLDB_ACTIVE_OFFSET(appId);
1134:.\Generated_Source\PSoC4/Bootloader.c ****         fieldSize = 1u;
1135:.\Generated_Source\PSoC4/Bootloader.c ****         break;
1136:.\Generated_Source\PSoC4/Bootloader.c **** 
1137:.\Generated_Source\PSoC4/Bootloader.c ****     case Bootloader_GET_BTLDB_STATUS:
1138:.\Generated_Source\PSoC4/Bootloader.c ****         fieldPtr  = Bootloader_MD_BTLDB_VERIFIED_OFFSET(appId);
ARM GAS  C:\Users\ZHANGM~1\AppData\Local\Temp\ccse5bds.s 			page 40


1139:.\Generated_Source\PSoC4/Bootloader.c ****         fieldSize = 1u;
1140:.\Generated_Source\PSoC4/Bootloader.c ****         break;
1141:.\Generated_Source\PSoC4/Bootloader.c **** 
1142:.\Generated_Source\PSoC4/Bootloader.c ****     case Bootloader_GET_BTLDB_APP_VERSION:
1143:.\Generated_Source\PSoC4/Bootloader.c ****         fieldPtr  = Bootloader_MD_BTLDB_APP_VERSION_OFFSET(appId);
1144:.\Generated_Source\PSoC4/Bootloader.c ****         break;
1145:.\Generated_Source\PSoC4/Bootloader.c **** 
1146:.\Generated_Source\PSoC4/Bootloader.c ****     case Bootloader_GET_BTLDR_APP_VERSION:
1147:.\Generated_Source\PSoC4/Bootloader.c ****         fieldPtr  = Bootloader_MD_BTLDR_APP_VERSION_OFFSET(appId);
1148:.\Generated_Source\PSoC4/Bootloader.c ****         break;
1149:.\Generated_Source\PSoC4/Bootloader.c **** 
1150:.\Generated_Source\PSoC4/Bootloader.c ****     case Bootloader_GET_BTLDB_APP_ID:
1151:.\Generated_Source\PSoC4/Bootloader.c ****         fieldPtr  = Bootloader_MD_BTLDB_APP_ID_OFFSET(appId);
1152:.\Generated_Source\PSoC4/Bootloader.c ****         break;
1153:.\Generated_Source\PSoC4/Bootloader.c **** 
1154:.\Generated_Source\PSoC4/Bootloader.c ****     case Bootloader_GET_BTLDB_APP_CUST_ID:
1155:.\Generated_Source\PSoC4/Bootloader.c ****         fieldPtr  = Bootloader_MD_BTLDB_APP_CUST_ID_OFFSET(appId);
 935              		.loc 1 1155 0
 936 000a 4942     		neg	r1, r1
1107:.\Generated_Source\PSoC4/Bootloader.c ****     switch (field)
 937              		.loc 1 1107 0
 938 000c FFF7FEFF 		bl	__gnu_thumb1_case_uqi
 939              	.L92:
 940 0010 05       		.byte	(.L91-.L92)/2
 941 0011 07       		.byte	(.L93-.L92)/2
 942 0012 09       		.byte	(.L94-.L92)/2
 943 0013 0B       		.byte	(.L95-.L92)/2
 944 0014 0D       		.byte	(.L96-.L92)/2
 945 0015 0F       		.byte	(.L97-.L92)/2
 946 0016 16       		.byte	(.L98-.L92)/2
 947 0017 14       		.byte	(.L99-.L92)/2
 948 0018 18       		.byte	(.L100-.L92)/2
 949 0019 1B       		.byte	(.L101-.L92)/2
 950              		.p2align 1
 951              	.L91:
1110:.\Generated_Source\PSoC4/Bootloader.c ****         fieldPtr  = Bootloader_MD_BTLDB_CHECKSUM_OFFSET(appId);
 952              		.loc 1 1110 0
 953 001a 154B     		ldr	r3, .L111
 954 001c 08E0     		b	.L107
 955              	.L93:
1115:.\Generated_Source\PSoC4/Bootloader.c ****         fieldPtr  = Bootloader_MD_BTLDB_ADDR_OFFSET(appId);
 956              		.loc 1 1115 0
 957 001e 154B     		ldr	r3, .L111+4
 958 0020 12E0     		b	.L109
 959              	.L94:
1122:.\Generated_Source\PSoC4/Bootloader.c ****         fieldPtr  = Bootloader_MD_BTLDR_LAST_ROW_OFFSET(appId);
 960              		.loc 1 1122 0
 961 0022 154B     		ldr	r3, .L111+8
 962 0024 0DE0     		b	.L108
 963              	.L95:
1126:.\Generated_Source\PSoC4/Bootloader.c ****         fieldPtr  = Bootloader_MD_BTLDB_LENGTH_OFFSET(appId);
 964              		.loc 1 1126 0
 965 0026 154B     		ldr	r3, .L111+12
 966 0028 0EE0     		b	.L109
 967              	.L96:
1133:.\Generated_Source\PSoC4/Bootloader.c ****         fieldPtr  = Bootloader_MD_BTLDB_ACTIVE_OFFSET(appId);
 968              		.loc 1 1133 0
ARM GAS  C:\Users\ZHANGM~1\AppData\Local\Temp\ccse5bds.s 			page 41


 969 002a 154B     		ldr	r3, .L111+16
 970 002c 00E0     		b	.L107
 971              	.L97:
1138:.\Generated_Source\PSoC4/Bootloader.c ****         fieldPtr  = Bootloader_MD_BTLDB_VERIFIED_OFFSET(appId);
 972              		.loc 1 1138 0
 973 002e 154B     		ldr	r3, .L111+20
 974              	.L107:
 975 0030 C918     		add	r1, r1, r3
 976              	.LVL69:
1156:.\Generated_Source\PSoC4/Bootloader.c ****         fieldSize = 4u;
1157:.\Generated_Source\PSoC4/Bootloader.c ****         break;
1158:.\Generated_Source\PSoC4/Bootloader.c **** 
1159:.\Generated_Source\PSoC4/Bootloader.c ****     default:
1160:.\Generated_Source\PSoC4/Bootloader.c ****         /* Should never be here */
1161:.\Generated_Source\PSoC4/Bootloader.c ****         CYASSERT(0u != 0u);
1162:.\Generated_Source\PSoC4/Bootloader.c ****         fieldPtr  = 0u;
1163:.\Generated_Source\PSoC4/Bootloader.c ****         break;
1164:.\Generated_Source\PSoC4/Bootloader.c ****     }
1165:.\Generated_Source\PSoC4/Bootloader.c **** 
1166:.\Generated_Source\PSoC4/Bootloader.c **** 
1167:.\Generated_Source\PSoC4/Bootloader.c ****     if (1u == fieldSize)
1168:.\Generated_Source\PSoC4/Bootloader.c ****     {
1169:.\Generated_Source\PSoC4/Bootloader.c ****         result =  (uint32) CY_GET_XTND_REG8((volatile uint8 *)fieldPtr);
 977              		.loc 1 1169 0
 978 0032 0878     		ldrb	r0, [r1]
 979 0034 C0B2     		uxtb	r0, r0
 980              	.LVL70:
 981 0036 1AE0     		b	.L106
 982              	.LVL71:
 983              	.L99:
1143:.\Generated_Source\PSoC4/Bootloader.c ****         fieldPtr  = Bootloader_MD_BTLDB_APP_VERSION_OFFSET(appId);
 984              		.loc 1 1143 0
 985 0038 134B     		ldr	r3, .L111+24
 986 003a 02E0     		b	.L108
 987              	.L98:
1147:.\Generated_Source\PSoC4/Bootloader.c ****         fieldPtr  = Bootloader_MD_BTLDR_APP_VERSION_OFFSET(appId);
 988              		.loc 1 1147 0
 989 003c 134B     		ldr	r3, .L111+28
 990 003e 00E0     		b	.L108
 991              	.L100:
1151:.\Generated_Source\PSoC4/Bootloader.c ****         fieldPtr  = Bootloader_MD_BTLDB_APP_ID_OFFSET(appId);
 992              		.loc 1 1151 0
 993 0040 134B     		ldr	r3, .L111+32
 994              	.L108:
 995 0042 C918     		add	r1, r1, r3
 996              	.LVL72:
1152:.\Generated_Source\PSoC4/Bootloader.c ****         break;
 997              		.loc 1 1152 0
 998 0044 0FE0     		b	.L104
 999              	.LVL73:
 1000              	.L101:
1155:.\Generated_Source\PSoC4/Bootloader.c ****         fieldPtr  = Bootloader_MD_BTLDB_APP_CUST_ID_OFFSET(appId);
 1001              		.loc 1 1155 0
 1002 0046 134B     		ldr	r3, .L111+36
 1003              	.L109:
 1004 0048 C918     		add	r1, r1, r3
 1005              	.LVL74:
ARM GAS  C:\Users\ZHANGM~1\AppData\Local\Temp\ccse5bds.s 			page 42


1170:.\Generated_Source\PSoC4/Bootloader.c ****     }
1171:.\Generated_Source\PSoC4/Bootloader.c **** 
1172:.\Generated_Source\PSoC4/Bootloader.c ****     /* PSoC 4 and PSoC 5: Little-endian */
1173:.\Generated_Source\PSoC4/Bootloader.c **** 
1174:.\Generated_Source\PSoC4/Bootloader.c ****         if (2u == fieldSize)
1175:.\Generated_Source\PSoC4/Bootloader.c ****         {
1176:.\Generated_Source\PSoC4/Bootloader.c ****             result =  (uint32) CY_GET_XTND_REG8((volatile uint8 *) (fieldPtr     ));
1177:.\Generated_Source\PSoC4/Bootloader.c ****             result |= (uint32) CY_GET_XTND_REG8((volatile uint8 *) (fieldPtr + 1u)) <<  8u;
1178:.\Generated_Source\PSoC4/Bootloader.c ****         }
1179:.\Generated_Source\PSoC4/Bootloader.c **** 
1180:.\Generated_Source\PSoC4/Bootloader.c ****         if (4u == fieldSize)
1181:.\Generated_Source\PSoC4/Bootloader.c ****         {
1182:.\Generated_Source\PSoC4/Bootloader.c ****             result =  (uint32) CY_GET_XTND_REG8((volatile uint8 *)(fieldPtr     ));
 1006              		.loc 1 1182 0
 1007 004a 0B78     		ldrb	r3, [r1]
 1008              	.LVL75:
1183:.\Generated_Source\PSoC4/Bootloader.c ****             result |= (uint32) CY_GET_XTND_REG8((volatile uint8 *)(fieldPtr + 1u)) <<  8u;
 1009              		.loc 1 1183 0
 1010 004c 4878     		ldrb	r0, [r1, #1]
 1011              	.LVL76:
1184:.\Generated_Source\PSoC4/Bootloader.c ****             result |= (uint32) CY_GET_XTND_REG8((volatile uint8 *)(fieldPtr + 2u)) << 16u;
 1012              		.loc 1 1184 0
 1013 004e 8A78     		ldrb	r2, [r1, #2]
1183:.\Generated_Source\PSoC4/Bootloader.c ****             result |= (uint32) CY_GET_XTND_REG8((volatile uint8 *)(fieldPtr + 1u)) <<  8u;
 1014              		.loc 1 1183 0
 1015 0050 0002     		lsl	r0, r0, #8
 1016              	.LVL77:
 1017              		.loc 1 1184 0
 1018 0052 1204     		lsl	r2, r2, #16
1183:.\Generated_Source\PSoC4/Bootloader.c ****             result |= (uint32) CY_GET_XTND_REG8((volatile uint8 *)(fieldPtr + 1u)) <<  8u;
 1019              		.loc 1 1183 0
 1020 0054 1043     		orr	r0, r2
 1021              		.loc 1 1184 0
 1022 0056 1843     		orr	r0, r3
 1023              	.LVL78:
1185:.\Generated_Source\PSoC4/Bootloader.c ****             result |= (uint32) CY_GET_XTND_REG8((volatile uint8 *)(fieldPtr + 3u)) << 24u;
 1024              		.loc 1 1185 0
 1025 0058 CB78     		ldrb	r3, [r1, #3]
 1026 005a 1B06     		lsl	r3, r3, #24
 1027 005c 06E0     		b	.L110
 1028              	.LVL79:
 1029              	.L90:
1161:.\Generated_Source\PSoC4/Bootloader.c ****         CYASSERT(0u != 0u);
 1030              		.loc 1 1161 0 discriminator 1
 1031 005e 0020     		mov	r0, #0
 1032 0060 FFF7FEFF 		bl	CyHalt
 1033              	.LVL80:
1162:.\Generated_Source\PSoC4/Bootloader.c ****         fieldPtr  = 0u;
 1034              		.loc 1 1162 0 discriminator 1
 1035 0064 0021     		mov	r1, #0
 1036              	.LVL81:
 1037              	.L104:
1176:.\Generated_Source\PSoC4/Bootloader.c ****             result =  (uint32) CY_GET_XTND_REG8((volatile uint8 *) (fieldPtr     ));
 1038              		.loc 1 1176 0
 1039 0066 0B78     		ldrb	r3, [r1]
 1040              	.LVL82:
1177:.\Generated_Source\PSoC4/Bootloader.c ****             result |= (uint32) CY_GET_XTND_REG8((volatile uint8 *) (fieldPtr + 1u)) <<  8u;
ARM GAS  C:\Users\ZHANGM~1\AppData\Local\Temp\ccse5bds.s 			page 43


 1041              		.loc 1 1177 0
 1042 0068 4878     		ldrb	r0, [r1, #1]
 1043 006a 0002     		lsl	r0, r0, #8
 1044              	.LVL83:
 1045              	.L110:
 1046              		.loc 1 1185 0
 1047 006c 1843     		orr	r0, r3
 1048              	.LVL84:
 1049              	.L106:
1186:.\Generated_Source\PSoC4/Bootloader.c ****         }
1187:.\Generated_Source\PSoC4/Bootloader.c **** 
1188:.\Generated_Source\PSoC4/Bootloader.c ****     
1189:.\Generated_Source\PSoC4/Bootloader.c **** 
1190:.\Generated_Source\PSoC4/Bootloader.c ****     return (result);
1191:.\Generated_Source\PSoC4/Bootloader.c **** }
 1050              		.loc 1 1191 0
 1051              		@ sp needed
 1052 006e 08BD     		pop	{r3, pc}
 1053              	.L112:
 1054              		.align	2
 1055              	.L111:
 1056 0070 C07F0000 		.word	32704
 1057 0074 C17F0000 		.word	32705
 1058 0078 C57F0000 		.word	32709
 1059 007c C97F0000 		.word	32713
 1060 0080 D07F0000 		.word	32720
 1061 0084 D17F0000 		.word	32721
 1062 0088 D67F0000 		.word	32726
 1063 008c D27F0000 		.word	32722
 1064 0090 D47F0000 		.word	32724
 1065 0094 D87F0000 		.word	32728
 1066              		.cfi_endproc
 1067              	.LFE51:
 1068              		.size	Bootloader_GetMetadata, .-Bootloader_GetMetadata
 1069              		.section	.text.CyBtldr_CheckLaunch,"ax",%progbits
 1070              		.align	1
 1071              		.global	CyBtldr_CheckLaunch
 1072              		.code	16
 1073              		.thumb_func
 1074              		.type	CyBtldr_CheckLaunch, %function
 1075              	CyBtldr_CheckLaunch:
 1076              	.LFB45:
 650:.\Generated_Source\PSoC4/Bootloader.c **** {
 1077              		.loc 1 650 0
 1078              		.cfi_startproc
 659:.\Generated_Source\PSoC4/Bootloader.c ****     if (0u == (Bootloader_RES_CAUSE_REG & Bootloader_RES_CAUSE_RESET_SOFT))
 1079              		.loc 1 659 0
 1080 0000 0C4B     		ldr	r3, .L121
 650:.\Generated_Source\PSoC4/Bootloader.c **** {
 1081              		.loc 1 650 0
 1082 0002 10B5     		push	{r4, lr}
 1083              		.cfi_def_cfa_offset 8
 1084              		.cfi_offset 4, -8
 1085              		.cfi_offset 14, -4
 659:.\Generated_Source\PSoC4/Bootloader.c ****     if (0u == (Bootloader_RES_CAUSE_REG & Bootloader_RES_CAUSE_RESET_SOFT))
 1086              		.loc 1 659 0
 1087 0004 1A68     		ldr	r2, [r3]
ARM GAS  C:\Users\ZHANGM~1\AppData\Local\Temp\ccse5bds.s 			page 44


 1088 0006 1023     		mov	r3, #16
 1089 0008 1A40     		and	r2, r3
 1090 000a 0B4B     		ldr	r3, .L121+4
 1091 000c 00D1     		bne	.L114
 661:.\Generated_Source\PSoC4/Bootloader.c ****         cyBtldrRunType = 0u;
 1092              		.loc 1 661 0
 1093 000e 1A60     		str	r2, [r3]
 1094              	.L114:
 667:.\Generated_Source\PSoC4/Bootloader.c ****     if (Bootloader_GET_RUN_TYPE == Bootloader_START_APP)
 1095              		.loc 1 667 0
 1096 0010 1A68     		ldr	r2, [r3]
 1097 0012 802A     		cmp	r2, #128
 1098 0014 0DD1     		bne	.L113
 669:.\Generated_Source\PSoC4/Bootloader.c ****         Bootloader_SET_RUN_TYPE(0u);
 1099              		.loc 1 669 0
 1100 0016 0024     		mov	r4, #0
 677:.\Generated_Source\PSoC4/Bootloader.c ****         if(0u != Bootloader_GetMetadata(Bootloader_GET_BTLDB_ADDR, Bootloader_activeApp))
 1101              		.loc 1 677 0
 1102 0018 0220     		mov	r0, #2
 1103 001a 211C     		mov	r1, r4
 669:.\Generated_Source\PSoC4/Bootloader.c ****         Bootloader_SET_RUN_TYPE(0u);
 1104              		.loc 1 669 0
 1105 001c 1C60     		str	r4, [r3]
 677:.\Generated_Source\PSoC4/Bootloader.c ****         if(0u != Bootloader_GetMetadata(Bootloader_GET_BTLDB_ADDR, Bootloader_activeApp))
 1106              		.loc 1 677 0
 1107 001e FFF7FEFF 		bl	Bootloader_GetMetadata
 1108              	.LVL85:
 1109 0022 A042     		cmp	r0, r4
 1110 0024 05D0     		beq	.L113
 680:.\Generated_Source\PSoC4/Bootloader.c ****             Bootloader_LaunchBootloadable(Bootloader_GetMetadata(Bootloader_GET_BTLDB_ADDR,
 1111              		.loc 1 680 0
 1112 0026 211C     		mov	r1, r4
 1113 0028 0220     		mov	r0, #2
 1114 002a FFF7FEFF 		bl	Bootloader_GetMetadata
 1115              	.LVL86:
 1116 002e FFF7FEFF 		bl	Bootloader_LaunchBootloadable
 1117              	.LVL87:
 1118              	.L113:
 684:.\Generated_Source\PSoC4/Bootloader.c **** }
 1119              		.loc 1 684 0
 1120              		@ sp needed
 1121 0032 10BD     		pop	{r4, pc}
 1122              	.L122:
 1123              		.align	2
 1124              	.L121:
 1125 0034 00030B40 		.word	1074463488
 1126 0038 00000000 		.word	cyBtldrRunType
 1127              		.cfi_endproc
 1128              	.LFE45:
 1129              		.size	CyBtldr_CheckLaunch, .-CyBtldr_CheckLaunch
 1130              		.section	.text.Bootloader_ValidateBootloadable,"ax",%progbits
 1131              		.align	1
 1132              		.global	Bootloader_ValidateBootloadable
 1133              		.code	16
 1134              		.thumb_func
 1135              		.type	Bootloader_ValidateBootloadable, %function
 1136              	Bootloader_ValidateBootloadable:
ARM GAS  C:\Users\ZHANGM~1\AppData\Local\Temp\ccse5bds.s 			page 45


 1137              	.LFB47:
 745:.\Generated_Source\PSoC4/Bootloader.c ****     {
 1138              		.loc 1 745 0
 1139              		.cfi_startproc
 1140              	.LVL88:
 1141 0000 F8B5     		push	{r3, r4, r5, r6, r7, lr}
 1142              		.cfi_def_cfa_offset 24
 1143              		.cfi_offset 3, -24
 1144              		.cfi_offset 4, -20
 1145              		.cfi_offset 5, -16
 1146              		.cfi_offset 6, -12
 1147              		.cfi_offset 7, -8
 1148              		.cfi_offset 14, -4
 745:.\Generated_Source\PSoC4/Bootloader.c ****     {
 1149              		.loc 1 745 0
 1150 0002 051C     		mov	r5, r0
 748:.\Generated_Source\PSoC4/Bootloader.c ****         uint32 CYDATA end   = Bootloader_FIRST_APP_BYTE(appId) +
 1151              		.loc 1 748 0
 1152 0004 291C     		mov	r1, r5
 1153 0006 0320     		mov	r0, #3
 1154              	.LVL89:
 1155 0008 FFF7FEFF 		bl	Bootloader_GetMetadata
 1156              	.LVL90:
 749:.\Generated_Source\PSoC4/Bootloader.c ****                                 Bootloader_GetMetadata(Bootloader_GET_BTLDB_LENGTH,
 1157              		.loc 1 749 0
 1158 000c 291C     		mov	r1, r5
 748:.\Generated_Source\PSoC4/Bootloader.c ****         uint32 CYDATA end   = Bootloader_FIRST_APP_BYTE(appId) +
 1159              		.loc 1 748 0
 1160 000e 041C     		mov	r4, r0
 749:.\Generated_Source\PSoC4/Bootloader.c ****                                 Bootloader_GetMetadata(Bootloader_GET_BTLDB_LENGTH,
 1161              		.loc 1 749 0
 1162 0010 0420     		mov	r0, #4
 1163 0012 FFF7FEFF 		bl	Bootloader_GetMetadata
 1164              	.LVL91:
 748:.\Generated_Source\PSoC4/Bootloader.c ****         uint32 CYDATA end   = Bootloader_FIRST_APP_BYTE(appId) +
 1165              		.loc 1 748 0
 1166 0016 671C     		add	r7, r4, #1
 1167 0018 FF01     		lsl	r7, r7, #7
 1168 001a 3F18     		add	r7, r7, r0
 1169              	.LVL92:
 755:.\Generated_Source\PSoC4/Bootloader.c ****         for(idx = Bootloader_FIRST_APP_BYTE(appId); idx < end; ++idx)
 1170              		.loc 1 755 0
 1171 001c 291C     		mov	r1, r5
 1172 001e 0320     		mov	r0, #3
 1173 0020 FFF7FEFF 		bl	Bootloader_GetMetadata
 1174              	.LVL93:
 753:.\Generated_Source\PSoC4/Bootloader.c ****         uint8  CYDATA calcedChecksum = 0u;
 1175              		.loc 1 753 0
 1176 0024 0024     		mov	r4, #0
 755:.\Generated_Source\PSoC4/Bootloader.c ****         for(idx = Bootloader_FIRST_APP_BYTE(appId); idx < end; ++idx)
 1177              		.loc 1 755 0
 1178 0026 0130     		add	r0, r0, #1
 1179 0028 C001     		lsl	r0, r0, #7
 1180              	.LVL94:
 752:.\Generated_Source\PSoC4/Bootloader.c ****         CYBIT         valid = 0u; /* Assume bad flash image */
 1181              		.loc 1 752 0
 1182 002a 261C     		mov	r6, r4
ARM GAS  C:\Users\ZHANGM~1\AppData\Local\Temp\ccse5bds.s 			page 46


 1183              	.LVL95:
 1184              	.L124:
 755:.\Generated_Source\PSoC4/Bootloader.c ****         for(idx = Bootloader_FIRST_APP_BYTE(appId); idx < end; ++idx)
 1185              		.loc 1 755 0 discriminator 1
 1186 002c B842     		cmp	r0, r7
 1187 002e 09D2     		bcs	.L131
 1188              	.LBB6:
 757:.\Generated_Source\PSoC4/Bootloader.c ****             uint8 CYDATA curByte = Bootloader_GET_CODE_BYTE(idx);
 1189              		.loc 1 757 0
 1190 0030 0378     		ldrb	r3, [r0]
 1191              	.LVL96:
 759:.\Generated_Source\PSoC4/Bootloader.c ****             if((curByte != 0u) && (curByte != 0xFFu))
 1192              		.loc 1 759 0
 1193 0032 5A1E     		sub	r2, r3, #1
 1194 0034 D2B2     		uxtb	r2, r2
 1195 0036 FD2A     		cmp	r2, #253
 1196 0038 00D8     		bhi	.L125
 761:.\Generated_Source\PSoC4/Bootloader.c ****                 valid = 1u;
 1197              		.loc 1 761 0
 1198 003a 0126     		mov	r6, #1
 1199              	.LVL97:
 1200              	.L125:
 764:.\Generated_Source\PSoC4/Bootloader.c ****             calcedChecksum += curByte;
 1201              		.loc 1 764 0
 1202 003c 1C19     		add	r4, r3, r4
 1203              	.LVL98:
 1204 003e E4B2     		uxtb	r4, r4
 1205              	.LVL99:
 1206              	.LBE6:
 755:.\Generated_Source\PSoC4/Bootloader.c ****         for(idx = Bootloader_FIRST_APP_BYTE(appId); idx < end; ++idx)
 1207              		.loc 1 755 0
 1208 0040 0130     		add	r0, r0, #1
 1209              	.LVL100:
 1210 0042 F3E7     		b	.L124
 1211              	.LVL101:
 1212              	.L131:
 767:.\Generated_Source\PSoC4/Bootloader.c ****         if((calcedChecksum != Bootloader_GetMetadata(Bootloader_GET_BTLDB_CHECKSUM, appId)) ||
 1213              		.loc 1 767 0
 1214 0044 0120     		mov	r0, #1
 1215              	.LVL102:
 1216 0046 291C     		mov	r1, r5
 1217 0048 FFF7FEFF 		bl	Bootloader_GetMetadata
 1218              	.LVL103:
 766:.\Generated_Source\PSoC4/Bootloader.c ****         calcedChecksum = ( uint8 )1u + ( uint8 )(~calcedChecksum);
 1219              		.loc 1 766 0
 1220 004c 6442     		neg	r4, r4
 1221              	.LVL104:
 767:.\Generated_Source\PSoC4/Bootloader.c ****         if((calcedChecksum != Bootloader_GetMetadata(Bootloader_GET_BTLDB_CHECKSUM, appId)) ||
 1222              		.loc 1 767 0
 1223 004e E4B2     		uxtb	r4, r4
 1224              	.LVL105:
 770:.\Generated_Source\PSoC4/Bootloader.c ****             return(CYRET_BAD_DATA);
 1225              		.loc 1 770 0
 1226 0050 0623     		mov	r3, #6
 767:.\Generated_Source\PSoC4/Bootloader.c ****         if((calcedChecksum != Bootloader_GetMetadata(Bootloader_GET_BTLDB_CHECKSUM, appId)) ||
 1227              		.loc 1 767 0
 1228 0052 8442     		cmp	r4, r0
ARM GAS  C:\Users\ZHANGM~1\AppData\Local\Temp\ccse5bds.s 			page 47


 1229 0054 03D1     		bne	.L127
 772:.\Generated_Source\PSoC4/Bootloader.c ****         return(CYRET_SUCCESS);
 1230              		.loc 1 772 0 discriminator 1
 1231 0056 7242     		neg	r2, r6
 1232 0058 5641     		adc	r6, r6, r2
 1233              	.LVL106:
 1234 005a 7642     		neg	r6, r6
 1235 005c 3340     		and	r3, r6
 1236              	.L127:
 773:.\Generated_Source\PSoC4/Bootloader.c **** }
 1237              		.loc 1 773 0
 1238 005e 181C     		mov	r0, r3
 1239              		@ sp needed
 1240              	.LVL107:
 1241 0060 F8BD     		pop	{r3, r4, r5, r6, r7, pc}
 1242              		.cfi_endproc
 1243              	.LFE47:
 1244              		.size	Bootloader_ValidateBootloadable, .-Bootloader_ValidateBootloadable
 1245              		.section	.text.Bootloader_HostLink,"ax",%progbits
 1246              		.align	1
 1247              		.code	16
 1248              		.thumb_func
 1249              		.type	Bootloader_HostLink, %function
 1250              	Bootloader_HostLink:
 1251              	.LFB49:
 806:.\Generated_Source\PSoC4/Bootloader.c **** {
 1252              		.loc 1 806 0
 1253              		.cfi_startproc
 1254              	.LVL108:
 1255 0000 F0B5     		push	{r4, r5, r6, r7, lr}
 1256              		.cfi_def_cfa_offset 20
 1257              		.cfi_offset 4, -20
 1258              		.cfi_offset 5, -16
 1259              		.cfi_offset 6, -12
 1260              		.cfi_offset 7, -8
 1261              		.cfi_offset 14, -4
 1262 0002 D3B0     		sub	sp, sp, #332
 1263              		.cfi_def_cfa_offset 352
 821:.\Generated_Source\PSoC4/Bootloader.c ****     UART_0_Init();
 1264              		.loc 1 821 0
 1265 0004 FFF7FEFF 		bl	UART_0_Init
 1266              	.LVL109:
 822:.\Generated_Source\PSoC4/Bootloader.c ****     UART_0_Enable();
 1267              		.loc 1 822 0
 1268 0008 FFF7FEFF 		bl	UART_0_Enable
 1269              	.LVL110:
 823:.\Generated_Source\PSoC4/Bootloader.c ****     UART_0_Start();
 1270              		.loc 1 823 0
 1271 000c FFF7FEFF 		bl	UART_0_Start
 1272              	.LVL111:
 824:.\Generated_Source\PSoC4/Bootloader.c ****     UART_0_SetCustomInterruptHandler(UART_ISR_0_FUN);  
 1273              		.loc 1 824 0
 1274 0010 5748     		ldr	r0, .L143
 1275 0012 FFF7FEFF 		bl	UART_0_SetCustomInterruptHandler
 1276              	.LVL112:
 825:.\Generated_Source\PSoC4/Bootloader.c ****     UART_0_SpiUartClearRxBuffer();
 1277              		.loc 1 825 0
ARM GAS  C:\Users\ZHANGM~1\AppData\Local\Temp\ccse5bds.s 			page 48


 1278 0016 FFF7FEFF 		bl	UART_0_SpiUartClearRxBuffer
 1279              	.LVL113:
 826:.\Generated_Source\PSoC4/Bootloader.c ****     UART_0_SpiUartClearTxBuffer();
 1280              		.loc 1 826 0
 1281 001a FFF7FEFF 		bl	UART_0_SpiUartClearTxBuffer
 1282              	.LVL114:
 829:.\Generated_Source\PSoC4/Bootloader.c ****     CyGlobalIntEnable;
 1283              		.loc 1 829 0
 1284              	@ 829 ".\Generated_Source\PSoC4\Bootloader.c" 1
 1285 001e 62B6     		CPSIE   i
 1286              	@ 0 "" 2
 830:.\Generated_Source\PSoC4/Bootloader.c ****     F_uart_0_tx=1;
 1287              		.loc 1 830 0
 1288              		.code	16
 1289 0020 544B     		ldr	r3, .L143+4
 1290 0022 0122     		mov	r2, #1
 833:.\Generated_Source\PSoC4/Bootloader.c ****     CyDelay(100);
 1291              		.loc 1 833 0
 1292 0024 6420     		mov	r0, #100
 832:.\Generated_Source\PSoC4/Bootloader.c ****     F_send=0;
 1293              		.loc 1 832 0
 1294 0026 0024     		mov	r4, #0
 830:.\Generated_Source\PSoC4/Bootloader.c ****     F_uart_0_tx=1;
 1295              		.loc 1 830 0
 1296 0028 1A70     		strb	r2, [r3]
 1297              	.LVL115:
 833:.\Generated_Source\PSoC4/Bootloader.c ****     CyDelay(100);
 1298              		.loc 1 833 0
 1299 002a FFF7FEFF 		bl	CyDelay
 1300              	.LVL116:
 817:.\Generated_Source\PSoC4/Bootloader.c ****     uint32 count=0,count00;
 1301              		.loc 1 817 0
 1302 002e 0194     		str	r4, [sp, #4]
 1303              	.LVL117:
 1304              	.L133:
 836:.\Generated_Source\PSoC4/Bootloader.c ****         Buzzer_Fun();
 1305              		.loc 1 836 0
 1306 0030 FFF7FEFF 		bl	Buzzer_Fun
 1307              	.LVL118:
 837:.\Generated_Source\PSoC4/Bootloader.c ****         Uart_0_Putchar();
 1308              		.loc 1 837 0
 1309 0034 FFF7FEFF 		bl	Uart_0_Putchar
 1310              	.LVL119:
 838:.\Generated_Source\PSoC4/Bootloader.c ****         BUZfkg=1;
 1311              		.loc 1 838 0
 1312 0038 4F4D     		ldr	r5, .L143+8
 841:.\Generated_Source\PSoC4/Bootloader.c ****         if(count>0)
 1313              		.loc 1 841 0
 1314 003a 019E     		ldr	r6, [sp, #4]
 838:.\Generated_Source\PSoC4/Bootloader.c ****         BUZfkg=1;
 1315              		.loc 1 838 0
 1316 003c 0123     		mov	r3, #1
 1317 003e 2B70     		strb	r3, [r5]
 841:.\Generated_Source\PSoC4/Bootloader.c ****         if(count>0)
 1318              		.loc 1 841 0
 1319 0040 002E     		cmp	r6, #0
 1320 0042 02D0     		beq	.L141
ARM GAS  C:\Users\ZHANGM~1\AppData\Local\Temp\ccse5bds.s 			page 49


 843:.\Generated_Source\PSoC4/Bootloader.c ****            count--;
 1321              		.loc 1 843 0
 1322 0044 013E     		sub	r6, r6, #1
 1323 0046 0196     		str	r6, [sp, #4]
 1324              	.LVL120:
 1325 0048 00E0     		b	.L135
 1326              	.LVL121:
 1327              	.L141:
 847:.\Generated_Source\PSoC4/Bootloader.c ****             F_send=0;
 1328              		.loc 1 847 0
 1329 004a 019C     		ldr	r4, [sp, #4]
 1330              	.LVL122:
 1331              	.L135:
 849:.\Generated_Source\PSoC4/Bootloader.c ****         if(f_delay==1)
 1332              		.loc 1 849 0
 1333 004c 4B4B     		ldr	r3, .L143+12
 1334 004e 1B78     		ldrb	r3, [r3]
 1335 0050 012B     		cmp	r3, #1
 1336 0052 13D1     		bne	.L142
 851:.\Generated_Source\PSoC4/Bootloader.c ****            count00++;
 1337              		.loc 1 851 0
 1338 0054 029E     		ldr	r6, [sp, #8]
 857:.\Generated_Source\PSoC4/Bootloader.c ****         if(count00>50000)
 1339              		.loc 1 857 0
 1340 0056 4A4B     		ldr	r3, .L143+16
 851:.\Generated_Source\PSoC4/Bootloader.c ****            count00++;
 1341              		.loc 1 851 0
 1342 0058 0136     		add	r6, r6, #1
 1343 005a 0296     		str	r6, [sp, #8]
 1344              	.LVL123:
 857:.\Generated_Source\PSoC4/Bootloader.c ****         if(count00>50000)
 1345              		.loc 1 857 0
 1346 005c 9E42     		cmp	r6, r3
 1347 005e 0FD9     		bls	.L136
 1348              	.LBB9:
 1349              	.LBB10:
 567:.\Generated_Source\PSoC4/Bootloader.c ****     Bootloader_SET_RUN_TYPE(Bootloader_START_APP);
 1350              		.loc 1 567 0
 1351 0060 484E     		ldr	r6, .L143+20
 1352              	.LVL124:
 1353 0062 8027     		mov	r7, #128
 1354 0064 3760     		str	r7, [r6]
 569:.\Generated_Source\PSoC4/Bootloader.c ****     CySoftwareReset();
 1355              		.loc 1 569 0
 1356 0066 FFF7FEFF 		bl	CySoftwareReset
 1357              	.LVL125:
 1358              	.LBE10:
 1359              	.LBE9:
 860:.\Generated_Source\PSoC4/Bootloader.c ****              if(CYRET_SUCCESS == Bootloader_ValidateBootloadable(Bootloader_activeApp))
 1360              		.loc 1 860 0
 1361 006a 0020     		mov	r0, #0
 1362 006c FFF7FEFF 		bl	Bootloader_ValidateBootloadable
 1363              	.LVL126:
 1364 0070 0028     		cmp	r0, #0
 1365 0072 05D1     		bne	.L136
 863:.\Generated_Source\PSoC4/Bootloader.c ****                                                                          Bootloader_SET_RUN_TYPE(Bo
 1366              		.loc 1 863 0
ARM GAS  C:\Users\ZHANGM~1\AppData\Local\Temp\ccse5bds.s 			page 50


 1367 0074 3760     		str	r7, [r6]
 864:.\Generated_Source\PSoC4/Bootloader.c ****             CySoftwareReset();
 1368              		.loc 1 864 0
 1369 0076 FFF7FEFF 		bl	CySoftwareReset
 1370              	.LVL127:
 1371 007a 01E0     		b	.L136
 1372              	.L142:
 855:.\Generated_Source\PSoC4/Bootloader.c ****             count00=0;
 1373              		.loc 1 855 0
 1374 007c 0026     		mov	r6, #0
 1375 007e 0296     		str	r6, [sp, #8]
 1376              	.LVL128:
 1377              	.L136:
 867:.\Generated_Source\PSoC4/Bootloader.c ****         if((F_send==0)&&(f_ack_1==0))
 1378              		.loc 1 867 0
 1379 0080 002C     		cmp	r4, #0
 1380 0082 10D1     		bne	.L137
 867:.\Generated_Source\PSoC4/Bootloader.c ****         if((F_send==0)&&(f_ack_1==0))
 1381              		.loc 1 867 0 is_stmt 0 discriminator 1
 1382 0084 404B     		ldr	r3, .L143+24
 1383 0086 1B78     		ldrb	r3, [r3]
 1384 0088 002B     		cmp	r3, #0
 1385 008a 0CD1     		bne	.L137
 1386              	.LVL129:
 870:.\Generated_Source\PSoC4/Bootloader.c ****             dataBuffer_0[0x00] 	= 0x00u;
 1387              		.loc 1 870 0 is_stmt 1
 1388 008c 3F4A     		ldr	r2, .L143+28
 871:.\Generated_Source\PSoC4/Bootloader.c **** 			dataBuffer_0[0x01] 	= 0x80u;
 1389              		.loc 1 871 0
 1390 008e 8023     		mov	r3, #128
 873:.\Generated_Source\PSoC4/Bootloader.c ****             count=100000;
 1391              		.loc 1 873 0
 1392 0090 3F4E     		ldr	r6, .L143+32
 871:.\Generated_Source\PSoC4/Bootloader.c **** 			dataBuffer_0[0x01] 	= 0x80u;
 1393              		.loc 1 871 0
 1394 0092 5370     		strb	r3, [r2, #1]
 872:.\Generated_Source\PSoC4/Bootloader.c **** 			SendDataToWifi(	0x00,0xCCC5,&dataBuffer_0[0],0x02);
 1395              		.loc 1 872 0
 1396 0094 201C     		mov	r0, r4
 1397 0096 3F49     		ldr	r1, .L143+36
 1398 0098 0223     		mov	r3, #2
 870:.\Generated_Source\PSoC4/Bootloader.c ****             dataBuffer_0[0x00] 	= 0x00u;
 1399              		.loc 1 870 0
 1400 009a 1470     		strb	r4, [r2]
 872:.\Generated_Source\PSoC4/Bootloader.c **** 			SendDataToWifi(	0x00,0xCCC5,&dataBuffer_0[0],0x02);
 1401              		.loc 1 872 0
 1402 009c FFF7FEFF 		bl	SendDataToWifi
 1403              	.LVL130:
 869:.\Generated_Source\PSoC4/Bootloader.c ****             F_send=1;
 1404              		.loc 1 869 0
 1405 00a0 0124     		mov	r4, #1
 873:.\Generated_Source\PSoC4/Bootloader.c ****             count=100000;
 1406              		.loc 1 873 0
 1407 00a2 0196     		str	r6, [sp, #4]
 1408 00a4 C4E7     		b	.L133
 1409              	.LVL131:
 1410              	.L137:
ARM GAS  C:\Users\ZHANGM~1\AppData\Local\Temp\ccse5bds.s 			page 51


 875:.\Generated_Source\PSoC4/Bootloader.c ****         else if((WifiWorkFlag.gcReceComm1OK==1)&&(giWIFIDATALength<=(WIFIBUFLEN-10-1))) 
 1411              		.loc 1 875 0
 1412 00a6 3C4B     		ldr	r3, .L143+40
 1413 00a8 6846     		mov	r0, sp
 1414 00aa 1A78     		ldrb	r2, [r3]
 1415 00ac 1107     		lsl	r1, r2, #28
 1416 00ae CE0F     		lsr	r6, r1, #31
 1417 00b0 0674     		strb	r6, [r0, #16]
 1418 00b2 0029     		cmp	r1, #0
 1419 00b4 BCDA     		bge	.L133
 875:.\Generated_Source\PSoC4/Bootloader.c ****         else if((WifiWorkFlag.gcReceComm1OK==1)&&(giWIFIDATALength<=(WIFIBUFLEN-10-1))) 
 1420              		.loc 1 875 0 is_stmt 0 discriminator 1
 1421 00b6 3949     		ldr	r1, .L143+44
 1422 00b8 0978     		ldrb	r1, [r1]
 1423 00ba F429     		cmp	r1, #244
 1424 00bc B8D8     		bhi	.L133
 877:.\Generated_Source\PSoC4/Bootloader.c ****             BUZfkg=1;
 1425              		.loc 1 877 0 is_stmt 1
 1426 00be F0B2     		uxtb	r0, r6
 1427 00c0 2870     		strb	r0, [r5]
 878:.\Generated_Source\PSoC4/Bootloader.c ****             WifiWorkFlag.gcReceComm1OK=0;
 1428              		.loc 1 878 0
 1429 00c2 0820     		mov	r0, #8
 879:.\Generated_Source\PSoC4/Bootloader.c ****             pktChecksum = ATReceBuffer[0].gcATReceData[giWIFIDATALength+10];
 1430              		.loc 1 879 0
 1431 00c4 364D     		ldr	r5, .L143+48
 878:.\Generated_Source\PSoC4/Bootloader.c ****             WifiWorkFlag.gcReceComm1OK=0;
 1432              		.loc 1 878 0
 1433 00c6 8243     		bic	r2, r0
 1434 00c8 1A70     		strb	r2, [r3]
 1435              	.LVL132:
 879:.\Generated_Source\PSoC4/Bootloader.c ****             pktChecksum = ATReceBuffer[0].gcATReceData[giWIFIDATALength+10];
 1436              		.loc 1 879 0
 1437 00ca 6B18     		add	r3, r5, r1
 1438 00cc 9E7A     		ldrb	r6, [r3, #10]
 880:.\Generated_Source\PSoC4/Bootloader.c ****             pktChecksum = (pktChecksum<<8)+ATReceBuffer[0].gcATReceData[giWIFIDATALength+11];
 1439              		.loc 1 880 0
 1440 00ce DB7A     		ldrb	r3, [r3, #11]
 1441 00d0 8640     		lsl	r6, r6, r0
 1442 00d2 F618     		add	r6, r6, r3
 881:.\Generated_Source\PSoC4/Bootloader.c ****             tmp= crc16(&ATReceBuffer[0].gcATReceData[0], giWIFIDATALength+10);
 1443              		.loc 1 881 0
 1444 00d4 0A31     		add	r1, r1, #10
 1445              	.LVL133:
 1446 00d6 281C     		mov	r0, r5
 880:.\Generated_Source\PSoC4/Bootloader.c ****             pktChecksum = (pktChecksum<<8)+ATReceBuffer[0].gcATReceData[giWIFIDATALength+11];
 1447              		.loc 1 880 0
 1448 00d8 B6B2     		uxth	r6, r6
 1449              	.LVL134:
 881:.\Generated_Source\PSoC4/Bootloader.c ****             tmp= crc16(&ATReceBuffer[0].gcATReceData[0], giWIFIDATALength+10);
 1450              		.loc 1 881 0
 1451 00da FFF7FEFF 		bl	crc16
 1452              	.LVL135:
 882:.\Generated_Source\PSoC4/Bootloader.c ****            if(pktChecksum == tmp)
 1453              		.loc 1 882 0
 1454 00de 8642     		cmp	r6, r0
 1455 00e0 A6D1     		bne	.L133
ARM GAS  C:\Users\ZHANGM~1\AppData\Local\Temp\ccse5bds.s 			page 52


 884:.\Generated_Source\PSoC4/Bootloader.c ****                 itotalcount=ATReceBuffer[0].gcATReceData[3];
 1456              		.loc 1 884 0
 1457 00e2 EE78     		ldrb	r6, [r5, #3]
 1458              	.LVL136:
 886:.\Generated_Source\PSoC4/Bootloader.c ****                 z_iicount=iicount; 
 1459              		.loc 1 886 0
 1460 00e4 2F4B     		ldr	r3, .L143+52
 884:.\Generated_Source\PSoC4/Bootloader.c ****                 itotalcount=ATReceBuffer[0].gcATReceData[3];
 1461              		.loc 1 884 0
 1462 00e6 0396     		str	r6, [sp, #12]
 1463              	.LVL137:
 885:.\Generated_Source\PSoC4/Bootloader.c ****                 iicount=ATReceBuffer[0].gcATReceData[4];
 1464              		.loc 1 885 0
 1465 00e8 2E79     		ldrb	r6, [r5, #4]
 1466              	.LVL138:
 887:.\Generated_Source\PSoC4/Bootloader.c ****                 z_itotalcount=itotalcount;
 1467              		.loc 1 887 0
 1468 00ea 0398     		ldr	r0, [sp, #12]
 1469              	.LVL139:
 886:.\Generated_Source\PSoC4/Bootloader.c ****                 z_iicount=iicount; 
 1470              		.loc 1 886 0
 1471 00ec 1E70     		strb	r6, [r3]
 887:.\Generated_Source\PSoC4/Bootloader.c ****                 z_itotalcount=itotalcount;
 1472              		.loc 1 887 0
 1473 00ee 2E4B     		ldr	r3, .L143+56
 1474 00f0 1870     		strb	r0, [r3]
 1475              	.LVL140:
 888:.\Generated_Source\PSoC4/Bootloader.c ****                 iCommand=ATReceBuffer[0].gcATReceData[Bootloader_CMD_ADDR];
 1476              		.loc 1 888 0
 1477 00f2 AF79     		ldrb	r7, [r5, #6]
 889:.\Generated_Source\PSoC4/Bootloader.c ****                 iCommand=(iCommand<<8u)+ATReceBuffer[0].gcATReceData[Bootloader_CMD_ADDR+1];
 1478              		.loc 1 889 0
 1479 00f4 EB79     		ldrb	r3, [r5, #7]
 1480 00f6 3F02     		lsl	r7, r7, #8
 1481              	.LVL141:
 1482 00f8 FF18     		add	r7, r7, r3
 1483              	.LVL142:
 890:.\Generated_Source\PSoC4/Bootloader.c ****                 switch(iCommand)
 1484              		.loc 1 890 0
 1485 00fa 264B     		ldr	r3, .L143+36
 1486 00fc BFB2     		uxth	r7, r7
 1487 00fe 9F42     		cmp	r7, r3
 1488 0100 03D0     		beq	.L138
 1489 0102 2A4B     		ldr	r3, .L143+60
 1490 0104 9F42     		cmp	r7, r3
 1491 0106 04D0     		beq	.L139
 1492 0108 92E7     		b	.L133
 1493              	.L138:
 895:.\Generated_Source\PSoC4/Bootloader.c ****                     f_ack_1=0xff;
 1494              		.loc 1 895 0
 1495 010a 1F4B     		ldr	r3, .L143+24
 1496 010c FF22     		mov	r2, #255
 1497 010e 1A70     		strb	r2, [r3]
 896:.\Generated_Source\PSoC4/Bootloader.c ****                     break;
 1498              		.loc 1 896 0
 1499 0110 8EE7     		b	.L133
 1500              	.L139:
ARM GAS  C:\Users\ZHANGM~1\AppData\Local\Temp\ccse5bds.s 			page 53


 900:.\Generated_Source\PSoC4/Bootloader.c ****                     (void) memcpy(&dataBuffer[0],&ATReceBuffer[0].gcATReceData[10],128);
 1501              		.loc 1 900 0
 1502 0112 291C     		mov	r1, r5
 1503 0114 8022     		mov	r2, #128
 1504 0116 0A31     		add	r1, r1, #10
 1505 0118 07A8     		add	r0, sp, #28
 1506 011a FFF7FEFF 		bl	memcpy
 1507              	.LVL143:
 901:.\Generated_Source\PSoC4/Bootloader.c ****                     if((iicount==itotalcount)&&(iicount>5))
 1508              		.loc 1 901 0
 1509 011e 039A     		ldr	r2, [sp, #12]
 1510 0120 1A4D     		ldr	r5, .L143+28
 1511 0122 9642     		cmp	r6, r2
 1512 0124 12D1     		bne	.L140
 901:.\Generated_Source\PSoC4/Bootloader.c ****                     if((iicount==itotalcount)&&(iicount>5))
 1513              		.loc 1 901 0 is_stmt 0 discriminator 1
 1514 0126 052E     		cmp	r6, #5
 1515 0128 10D9     		bls	.L140
 1516              	.LVL144:
 905:.\Generated_Source\PSoC4/Bootloader.c ****                             ackCode = (CYRET_SUCCESS != CySysFlashWriteRow((uint32) row, dataBuffer
 1517              		.loc 1 905 0 is_stmt 1
 1518 012a 07A9     		add	r1, sp, #28
 1519 012c FF20     		mov	r0, #255
 1520 012e FFF7FEFF 		bl	CySysFlashWriteRow
 1521              	.LVL145:
 913:.\Generated_Source\PSoC4/Bootloader.c **** f_delay=1;
 1522              		.loc 1 913 0
 1523 0132 6E46     		mov	r6, sp
 1524              	.LVL146:
 909:.\Generated_Source\PSoC4/Bootloader.c ****                             dataBuffer_0[0x00] 	= 0x00u;
 1525              		.loc 1 909 0
 1526 0134 0020     		mov	r0, #0
 911:.\Generated_Source\PSoC4/Bootloader.c ****                             SendDataToWifi(	0x00,Bootloader_COMMAND_PROGRAM,&dataBuffer_0[0],0x02);
 1527              		.loc 1 911 0
 1528 0136 0223     		mov	r3, #2
 1529 0138 391C     		mov	r1, r7
 1530 013a 2A1C     		mov	r2, r5
 909:.\Generated_Source\PSoC4/Bootloader.c ****                             dataBuffer_0[0x00] 	= 0x00u;
 1531              		.loc 1 909 0
 1532 013c 2870     		strb	r0, [r5]
 910:.\Generated_Source\PSoC4/Bootloader.c ****                             dataBuffer_0[0x01] 	= 0x00u;
 1533              		.loc 1 910 0
 1534 013e 6870     		strb	r0, [r5, #1]
 911:.\Generated_Source\PSoC4/Bootloader.c ****                             SendDataToWifi(	0x00,Bootloader_COMMAND_PROGRAM,&dataBuffer_0[0],0x02);
 1535              		.loc 1 911 0
 1536 0140 FFF7FEFF 		bl	SendDataToWifi
 1537              	.LVL147:
 913:.\Generated_Source\PSoC4/Bootloader.c **** f_delay=1;
 1538              		.loc 1 913 0
 1539 0144 0D4B     		ldr	r3, .L143+12
 1540 0146 367C     		ldrb	r6, [r6, #16]
 1541 0148 1E70     		strb	r6, [r3]
 1542 014a 71E7     		b	.L133
 1543              	.LVL148:
 1544              	.L140:
 919:.\Generated_Source\PSoC4/Bootloader.c ****                             ackCode = (CYRET_SUCCESS != CySysFlashWriteRow((uint32) row, dataBuffer
 1545              		.loc 1 919 0
ARM GAS  C:\Users\ZHANGM~1\AppData\Local\Temp\ccse5bds.s 			page 54


 1546 014c 301C     		mov	r0, r6
 1547 014e 07A9     		add	r1, sp, #28
 1548 0150 2130     		add	r0, r0, #33
 1549 0152 FFF7FEFF 		bl	CySysFlashWriteRow
 1550              	.LVL149:
 921:.\Generated_Source\PSoC4/Bootloader.c ****                             dataBuffer_0[0x03] 	= ATReceBuffer[0].gcATReceData[3];
 1551              		.loc 1 921 0
 1552 0156 124B     		ldr	r3, .L143+48
 923:.\Generated_Source\PSoC4/Bootloader.c ****                             dataBuffer_0[0x00] 	= 0x00u;
 1553              		.loc 1 923 0
 1554 0158 0020     		mov	r0, #0
 921:.\Generated_Source\PSoC4/Bootloader.c ****                             dataBuffer_0[0x03] 	= ATReceBuffer[0].gcATReceData[3];
 1555              		.loc 1 921 0
 1556 015a DB78     		ldrb	r3, [r3, #3]
 925:.\Generated_Source\PSoC4/Bootloader.c ****                             SendDataToWifi(	0x00,Bootloader_COMMAND_PROGRAM,&dataBuffer_0[0],0x02);
 1557              		.loc 1 925 0
 1558 015c 1349     		ldr	r1, .L143+60
 921:.\Generated_Source\PSoC4/Bootloader.c ****                             dataBuffer_0[0x03] 	= ATReceBuffer[0].gcATReceData[3];
 1559              		.loc 1 921 0
 1560 015e EB70     		strb	r3, [r5, #3]
 925:.\Generated_Source\PSoC4/Bootloader.c ****                             SendDataToWifi(	0x00,Bootloader_COMMAND_PROGRAM,&dataBuffer_0[0],0x02);
 1561              		.loc 1 925 0
 1562 0160 2A1C     		mov	r2, r5
 1563 0162 0223     		mov	r3, #2
 922:.\Generated_Source\PSoC4/Bootloader.c ****                             dataBuffer_0[0x04] 	= iicount;
 1564              		.loc 1 922 0
 1565 0164 2E71     		strb	r6, [r5, #4]
 923:.\Generated_Source\PSoC4/Bootloader.c ****                             dataBuffer_0[0x00] 	= 0x00u;
 1566              		.loc 1 923 0
 1567 0166 2870     		strb	r0, [r5]
 924:.\Generated_Source\PSoC4/Bootloader.c ****                             dataBuffer_0[0x01] 	= 0x00u;
 1568              		.loc 1 924 0
 1569 0168 6870     		strb	r0, [r5, #1]
 925:.\Generated_Source\PSoC4/Bootloader.c ****                             SendDataToWifi(	0x00,Bootloader_COMMAND_PROGRAM,&dataBuffer_0[0],0x02);
 1570              		.loc 1 925 0
 1571 016a FFF7FEFF 		bl	SendDataToWifi
 1572              	.LVL150:
 1573 016e 5FE7     		b	.L133
 1574              	.L144:
 1575              		.align	2
 1576              	.L143:
 1577 0170 00000000 		.word	UART_ISR_0_FUN
 1578 0174 00000000 		.word	F_uart_0_tx
 1579 0178 00000000 		.word	BUZfkg
 1580 017c 00000000 		.word	f_delay
 1581 0180 50C30000 		.word	50000
 1582 0184 00000000 		.word	cyBtldrRunType
 1583 0188 00000000 		.word	f_ack_1
 1584 018c 00000000 		.word	dataBuffer_0
 1585 0190 A0860100 		.word	100000
 1586 0194 C5CC0000 		.word	52421
 1587 0198 00000000 		.word	WifiWorkFlag
 1588 019c 00000000 		.word	giWIFIDATALength
 1589 01a0 00000000 		.word	ATReceBuffer
 1590 01a4 00000000 		.word	z_iicount
 1591 01a8 00000000 		.word	z_itotalcount
 1592 01ac D2CC0000 		.word	52434
ARM GAS  C:\Users\ZHANGM~1\AppData\Local\Temp\ccse5bds.s 			page 55


 1593              		.cfi_endproc
 1594              	.LFE49:
 1595              		.size	Bootloader_HostLink, .-Bootloader_HostLink
 1596              		.section	.text.Bootloader_Start,"ax",%progbits
 1597              		.align	1
 1598              		.global	Bootloader_Start
 1599              		.code	16
 1600              		.thumb_func
 1601              		.type	Bootloader_Start, %function
 1602              	Bootloader_Start:
 1603              	.LFB42:
 522:.\Generated_Source\PSoC4/Bootloader.c **** {
 1604              		.loc 1 522 0
 1605              		.cfi_startproc
 1606              	.LVL151:
 1607 0000 08B5     		push	{r3, lr}
 1608              		.cfi_def_cfa_offset 8
 1609              		.cfi_offset 3, -8
 1610              		.cfi_offset 14, -4
 524:.\Generated_Source\PSoC4/Bootloader.c ****     if (CYRET_SUCCESS == Bootloader_ValidateBootloadable(Bootloader_MD_BTLDB_ACTIVE_0))
 1611              		.loc 1 524 0
 1612 0002 0020     		mov	r0, #0
 1613 0004 FFF7FEFF 		bl	Bootloader_ValidateBootloadable
 1614              	.LVL152:
 526:.\Generated_Source\PSoC4/Bootloader.c ****         validApp = CYRET_SUCCESS;
 1615              		.loc 1 526 0
 1616 0008 0022     		mov	r2, #0
 524:.\Generated_Source\PSoC4/Bootloader.c ****     if (CYRET_SUCCESS == Bootloader_ValidateBootloadable(Bootloader_MD_BTLDB_ACTIVE_0))
 1617              		.loc 1 524 0
 1618 000a 9042     		cmp	r0, r2
 1619 000c 00D0     		beq	.L146
 523:.\Generated_Source\PSoC4/Bootloader.c ****     cystatus validApp  = CYRET_BAD_DATA;
 1620              		.loc 1 523 0
 1621 000e 0622     		mov	r2, #6
 1622              	.L146:
 1623              	.LVL153:
 536:.\Generated_Source\PSoC4/Bootloader.c ****     if ((Bootloader_GET_RUN_TYPE == Bootloader_START_BTLDR) ||
 1624              		.loc 1 536 0
 1625 0010 074B     		ldr	r3, .L154
 1626 0012 1868     		ldr	r0, [r3]
 1627 0014 191C     		mov	r1, r3
 1628 0016 4028     		cmp	r0, #64
 1629 0018 01D0     		beq	.L147
 536:.\Generated_Source\PSoC4/Bootloader.c ****     if ((Bootloader_GET_RUN_TYPE == Bootloader_START_BTLDR) ||
 1630              		.loc 1 536 0 is_stmt 0 discriminator 1
 1631 001a 002A     		cmp	r2, #0
 1632 001c 03D0     		beq	.L148
 1633              	.L147:
 540:.\Generated_Source\PSoC4/Bootloader.c ****             Bootloader_SET_RUN_TYPE(0u);
 1634              		.loc 1 540 0 is_stmt 1
 1635 001e 0023     		mov	r3, #0
 1636 0020 0B60     		str	r3, [r1]
 542:.\Generated_Source\PSoC4/Bootloader.c ****             Bootloader_HostLink();
 1637              		.loc 1 542 0
 1638 0022 FFF7FEFF 		bl	Bootloader_HostLink
 1639              	.LVL154:
 1640              	.L148:
ARM GAS  C:\Users\ZHANGM~1\AppData\Local\Temp\ccse5bds.s 			page 56


 1641              	.LBB13:
 1642              	.LBB14:
 567:.\Generated_Source\PSoC4/Bootloader.c ****     Bootloader_SET_RUN_TYPE(Bootloader_START_APP);
 1643              		.loc 1 567 0
 1644 0026 8022     		mov	r2, #128
 1645              	.LVL155:
 1646 0028 1A60     		str	r2, [r3]
 1647              	.LBE14:
 1648              	.LBE13:
 547:.\Generated_Source\PSoC4/Bootloader.c **** }
 1649              		.loc 1 547 0
 1650              		@ sp needed
 1651              	.LBB16:
 1652              	.LBB15:
 569:.\Generated_Source\PSoC4/Bootloader.c ****     CySoftwareReset();
 1653              		.loc 1 569 0
 1654 002a FFF7FEFF 		bl	CySoftwareReset
 1655              	.LVL156:
 1656              	.LBE15:
 1657              	.LBE16:
 547:.\Generated_Source\PSoC4/Bootloader.c **** }
 1658              		.loc 1 547 0
 1659 002e 08BD     		pop	{r3, pc}
 1660              	.L155:
 1661              		.align	2
 1662              	.L154:
 1663 0030 00000000 		.word	cyBtldrRunType
 1664              		.cfi_endproc
 1665              	.LFE42:
 1666              		.size	Bootloader_Start, .-Bootloader_Start
 1667              		.section	.text.Bootloader_Exit,"ax",%progbits
 1668              		.align	1
 1669              		.global	Bootloader_Exit
 1670              		.code	16
 1671              		.thumb_func
 1672              		.type	Bootloader_Exit, %function
 1673              	Bootloader_Exit:
 1674              	.LFB44:
 601:.\Generated_Source\PSoC4/Bootloader.c **** {
 1675              		.loc 1 601 0
 1676              		.cfi_startproc
 1677              	.LVL157:
 1678 0000 38B5     		push	{r3, r4, r5, lr}
 1679              		.cfi_def_cfa_offset 16
 1680              		.cfi_offset 3, -16
 1681              		.cfi_offset 4, -12
 1682              		.cfi_offset 5, -8
 1683              		.cfi_offset 14, -4
 601:.\Generated_Source\PSoC4/Bootloader.c **** {
 1684              		.loc 1 601 0
 1685 0002 051C     		mov	r5, r0
 1686 0004 094C     		ldr	r4, .L161
 602:.\Generated_Source\PSoC4/Bootloader.c ****     if(Bootloader_EXIT_TO_BTLDR == appId)
 1687              		.loc 1 602 0
 1688 0006 0228     		cmp	r0, #2
 1689 0008 0BD0     		beq	.L159
 608:.\Generated_Source\PSoC4/Bootloader.c ****         if(CYRET_SUCCESS == Bootloader_ValidateBootloadable(appId))
ARM GAS  C:\Users\ZHANGM~1\AppData\Local\Temp\ccse5bds.s 			page 57


 1690              		.loc 1 608 0
 1691 000a FFF7FEFF 		bl	Bootloader_ValidateBootloadable
 1692              	.LVL158:
 1693 000e 0028     		cmp	r0, #0
 1694 0010 07D1     		bne	.L159
 1695              	.LVL159:
 1696              	.LBB17:
 614:.\Generated_Source\PSoC4/Bootloader.c ****                 Bootloader_SetFlashByte((uint32) Bootloader_MD_BTLDB_ACTIVE_OFFSET(idx),
 1697              		.loc 1 614 0 discriminator 2
 1698 0012 6942     		neg	r1, r5
 1699 0014 6941     		adc	r1, r1, r5
 1700 0016 C9B2     		uxtb	r1, r1
 1701 0018 0548     		ldr	r0, .L161+4
 1702 001a FFF7FEFF 		bl	Bootloader_SetFlashByte
 1703              	.LVL160:
 619:.\Generated_Source\PSoC4/Bootloader.c ****             Bootloader_SET_RUN_TYPE(Bootloader_SCHEDULE_BTLDB);
 1704              		.loc 1 619 0 discriminator 2
 1705 001e 8023     		mov	r3, #128
 1706 0020 00E0     		b	.L160
 1707              	.LVL161:
 1708              	.L159:
 1709              	.LBE17:
 623:.\Generated_Source\PSoC4/Bootloader.c ****             Bootloader_SET_RUN_TYPE(0u);
 1710              		.loc 1 623 0
 1711 0022 0023     		mov	r3, #0
 1712              	.L160:
 1713 0024 2360     		str	r3, [r4]
 628:.\Generated_Source\PSoC4/Bootloader.c **** }
 1714              		.loc 1 628 0
 1715              		@ sp needed
 627:.\Generated_Source\PSoC4/Bootloader.c ****     CySoftwareReset();
 1716              		.loc 1 627 0
 1717 0026 FFF7FEFF 		bl	CySoftwareReset
 1718              	.LVL162:
 628:.\Generated_Source\PSoC4/Bootloader.c **** }
 1719              		.loc 1 628 0
 1720 002a 38BD     		pop	{r3, r4, r5, pc}
 1721              	.L162:
 1722              		.align	2
 1723              	.L161:
 1724 002c 00000000 		.word	cyBtldrRunType
 1725 0030 D07F0000 		.word	32720
 1726              		.cfi_endproc
 1727              	.LFE44:
 1728              		.size	Bootloader_Exit, .-Bootloader_Exit
 1729              		.global	auchCRCLo
 1730              		.global	auchCRCHi
 1731              		.comm	F_uart_0_tx,1,1
 1732              		.comm	cpSendBufPtr,4,4
 1733              		.comm	iSendCounter,2,2
 1734              		.comm	iUartSendLen,2,2
 1735              		.comm	ATReceBuffer,258,2
 1736              		.comm	giWIFIDATALength,1,1
 1737              		.comm	giWIFICommand,1,1
 1738              		.comm	gcWIFICTL,1,1
 1739              		.comm	WifidatagramWorkFlag,4,4
 1740              		.comm	WifiWorkFlag,4,4
ARM GAS  C:\Users\ZHANGM~1\AppData\Local\Temp\ccse5bds.s 			page 58


 1741              		.comm	gcWifiCommunState,1,1
 1742              		.comm	BuzzerDly,4,4
 1743              		.comm	BUZfkg,1,1
 1744              		.comm	z_itotalcount,1,1
 1745              		.comm	z_iicount,1,1
 1746              		.comm	packetBuffer,300,1
 1747              		.comm	dataBuffer_0,300,1
 1748              		.comm	f_delay,1,1
 1749              		.comm	f_ack_1,1,1
 1750              		.global	Bootloader_SizeBytesAccess
 1751              		.global	Bootloader_SizeBytes
 1752              		.global	Bootloader_ChecksumAccess
 1753              		.global	Bootloader_Checksum
 1754              		.section	.rodata
 1755              		.set	.LANCHOR0,. + 0
 1756              		.set	.LANCHOR1,. + 256
 1757              		.type	auchCRCHi, %object
 1758              		.size	auchCRCHi, 256
 1759              	auchCRCHi:
 1760 0000 00       		.byte	0
 1761 0001 C1       		.byte	-63
 1762 0002 81       		.byte	-127
 1763 0003 40       		.byte	64
 1764 0004 01       		.byte	1
 1765 0005 C0       		.byte	-64
 1766 0006 80       		.byte	-128
 1767 0007 41       		.byte	65
 1768 0008 01       		.byte	1
 1769 0009 C0       		.byte	-64
 1770 000a 80       		.byte	-128
 1771 000b 41       		.byte	65
 1772 000c 00       		.byte	0
 1773 000d C1       		.byte	-63
 1774 000e 81       		.byte	-127
 1775 000f 40       		.byte	64
 1776 0010 01       		.byte	1
 1777 0011 C0       		.byte	-64
 1778 0012 80       		.byte	-128
 1779 0013 41       		.byte	65
 1780 0014 00       		.byte	0
 1781 0015 C1       		.byte	-63
 1782 0016 81       		.byte	-127
 1783 0017 40       		.byte	64
 1784 0018 00       		.byte	0
 1785 0019 C1       		.byte	-63
 1786 001a 81       		.byte	-127
 1787 001b 40       		.byte	64
 1788 001c 01       		.byte	1
 1789 001d C0       		.byte	-64
 1790 001e 80       		.byte	-128
 1791 001f 41       		.byte	65
 1792 0020 01       		.byte	1
 1793 0021 C0       		.byte	-64
 1794 0022 80       		.byte	-128
 1795 0023 41       		.byte	65
 1796 0024 00       		.byte	0
 1797 0025 C1       		.byte	-63
ARM GAS  C:\Users\ZHANGM~1\AppData\Local\Temp\ccse5bds.s 			page 59


 1798 0026 81       		.byte	-127
 1799 0027 40       		.byte	64
 1800 0028 00       		.byte	0
 1801 0029 C1       		.byte	-63
 1802 002a 81       		.byte	-127
 1803 002b 40       		.byte	64
 1804 002c 01       		.byte	1
 1805 002d C0       		.byte	-64
 1806 002e 80       		.byte	-128
 1807 002f 41       		.byte	65
 1808 0030 00       		.byte	0
 1809 0031 C1       		.byte	-63
 1810 0032 81       		.byte	-127
 1811 0033 40       		.byte	64
 1812 0034 01       		.byte	1
 1813 0035 C0       		.byte	-64
 1814 0036 80       		.byte	-128
 1815 0037 41       		.byte	65
 1816 0038 01       		.byte	1
 1817 0039 C0       		.byte	-64
 1818 003a 80       		.byte	-128
 1819 003b 41       		.byte	65
 1820 003c 00       		.byte	0
 1821 003d C1       		.byte	-63
 1822 003e 81       		.byte	-127
 1823 003f 40       		.byte	64
 1824 0040 01       		.byte	1
 1825 0041 C0       		.byte	-64
 1826 0042 80       		.byte	-128
 1827 0043 41       		.byte	65
 1828 0044 00       		.byte	0
 1829 0045 C1       		.byte	-63
 1830 0046 81       		.byte	-127
 1831 0047 40       		.byte	64
 1832 0048 00       		.byte	0
 1833 0049 C1       		.byte	-63
 1834 004a 81       		.byte	-127
 1835 004b 40       		.byte	64
 1836 004c 01       		.byte	1
 1837 004d C0       		.byte	-64
 1838 004e 80       		.byte	-128
 1839 004f 41       		.byte	65
 1840 0050 00       		.byte	0
 1841 0051 C1       		.byte	-63
 1842 0052 81       		.byte	-127
 1843 0053 40       		.byte	64
 1844 0054 01       		.byte	1
 1845 0055 C0       		.byte	-64
 1846 0056 80       		.byte	-128
 1847 0057 41       		.byte	65
 1848 0058 01       		.byte	1
 1849 0059 C0       		.byte	-64
 1850 005a 80       		.byte	-128
 1851 005b 41       		.byte	65
 1852 005c 00       		.byte	0
 1853 005d C1       		.byte	-63
 1854 005e 81       		.byte	-127
ARM GAS  C:\Users\ZHANGM~1\AppData\Local\Temp\ccse5bds.s 			page 60


 1855 005f 40       		.byte	64
 1856 0060 00       		.byte	0
 1857 0061 C1       		.byte	-63
 1858 0062 81       		.byte	-127
 1859 0063 40       		.byte	64
 1860 0064 01       		.byte	1
 1861 0065 C0       		.byte	-64
 1862 0066 80       		.byte	-128
 1863 0067 41       		.byte	65
 1864 0068 01       		.byte	1
 1865 0069 C0       		.byte	-64
 1866 006a 80       		.byte	-128
 1867 006b 41       		.byte	65
 1868 006c 00       		.byte	0
 1869 006d C1       		.byte	-63
 1870 006e 81       		.byte	-127
 1871 006f 40       		.byte	64
 1872 0070 01       		.byte	1
 1873 0071 C0       		.byte	-64
 1874 0072 80       		.byte	-128
 1875 0073 41       		.byte	65
 1876 0074 00       		.byte	0
 1877 0075 C1       		.byte	-63
 1878 0076 81       		.byte	-127
 1879 0077 40       		.byte	64
 1880 0078 00       		.byte	0
 1881 0079 C1       		.byte	-63
 1882 007a 81       		.byte	-127
 1883 007b 40       		.byte	64
 1884 007c 01       		.byte	1
 1885 007d C0       		.byte	-64
 1886 007e 80       		.byte	-128
 1887 007f 41       		.byte	65
 1888 0080 01       		.byte	1
 1889 0081 C0       		.byte	-64
 1890 0082 80       		.byte	-128
 1891 0083 41       		.byte	65
 1892 0084 00       		.byte	0
 1893 0085 C1       		.byte	-63
 1894 0086 81       		.byte	-127
 1895 0087 40       		.byte	64
 1896 0088 00       		.byte	0
 1897 0089 C1       		.byte	-63
 1898 008a 81       		.byte	-127
 1899 008b 40       		.byte	64
 1900 008c 01       		.byte	1
 1901 008d C0       		.byte	-64
 1902 008e 80       		.byte	-128
 1903 008f 41       		.byte	65
 1904 0090 00       		.byte	0
 1905 0091 C1       		.byte	-63
 1906 0092 81       		.byte	-127
 1907 0093 40       		.byte	64
 1908 0094 01       		.byte	1
 1909 0095 C0       		.byte	-64
 1910 0096 80       		.byte	-128
 1911 0097 41       		.byte	65
ARM GAS  C:\Users\ZHANGM~1\AppData\Local\Temp\ccse5bds.s 			page 61


 1912 0098 01       		.byte	1
 1913 0099 C0       		.byte	-64
 1914 009a 80       		.byte	-128
 1915 009b 41       		.byte	65
 1916 009c 00       		.byte	0
 1917 009d C1       		.byte	-63
 1918 009e 81       		.byte	-127
 1919 009f 40       		.byte	64
 1920 00a0 00       		.byte	0
 1921 00a1 C1       		.byte	-63
 1922 00a2 81       		.byte	-127
 1923 00a3 40       		.byte	64
 1924 00a4 01       		.byte	1
 1925 00a5 C0       		.byte	-64
 1926 00a6 80       		.byte	-128
 1927 00a7 41       		.byte	65
 1928 00a8 01       		.byte	1
 1929 00a9 C0       		.byte	-64
 1930 00aa 80       		.byte	-128
 1931 00ab 41       		.byte	65
 1932 00ac 00       		.byte	0
 1933 00ad C1       		.byte	-63
 1934 00ae 81       		.byte	-127
 1935 00af 40       		.byte	64
 1936 00b0 01       		.byte	1
 1937 00b1 C0       		.byte	-64
 1938 00b2 80       		.byte	-128
 1939 00b3 41       		.byte	65
 1940 00b4 00       		.byte	0
 1941 00b5 C1       		.byte	-63
 1942 00b6 81       		.byte	-127
 1943 00b7 40       		.byte	64
 1944 00b8 00       		.byte	0
 1945 00b9 C1       		.byte	-63
 1946 00ba 81       		.byte	-127
 1947 00bb 40       		.byte	64
 1948 00bc 01       		.byte	1
 1949 00bd C0       		.byte	-64
 1950 00be 80       		.byte	-128
 1951 00bf 41       		.byte	65
 1952 00c0 00       		.byte	0
 1953 00c1 C1       		.byte	-63
 1954 00c2 81       		.byte	-127
 1955 00c3 40       		.byte	64
 1956 00c4 01       		.byte	1
 1957 00c5 C0       		.byte	-64
 1958 00c6 80       		.byte	-128
 1959 00c7 41       		.byte	65
 1960 00c8 01       		.byte	1
 1961 00c9 C0       		.byte	-64
 1962 00ca 80       		.byte	-128
 1963 00cb 41       		.byte	65
 1964 00cc 00       		.byte	0
 1965 00cd C1       		.byte	-63
 1966 00ce 81       		.byte	-127
 1967 00cf 40       		.byte	64
 1968 00d0 01       		.byte	1
ARM GAS  C:\Users\ZHANGM~1\AppData\Local\Temp\ccse5bds.s 			page 62


 1969 00d1 C0       		.byte	-64
 1970 00d2 80       		.byte	-128
 1971 00d3 41       		.byte	65
 1972 00d4 00       		.byte	0
 1973 00d5 C1       		.byte	-63
 1974 00d6 81       		.byte	-127
 1975 00d7 40       		.byte	64
 1976 00d8 00       		.byte	0
 1977 00d9 C1       		.byte	-63
 1978 00da 81       		.byte	-127
 1979 00db 40       		.byte	64
 1980 00dc 01       		.byte	1
 1981 00dd C0       		.byte	-64
 1982 00de 80       		.byte	-128
 1983 00df 41       		.byte	65
 1984 00e0 01       		.byte	1
 1985 00e1 C0       		.byte	-64
 1986 00e2 80       		.byte	-128
 1987 00e3 41       		.byte	65
 1988 00e4 00       		.byte	0
 1989 00e5 C1       		.byte	-63
 1990 00e6 81       		.byte	-127
 1991 00e7 40       		.byte	64
 1992 00e8 00       		.byte	0
 1993 00e9 C1       		.byte	-63
 1994 00ea 81       		.byte	-127
 1995 00eb 40       		.byte	64
 1996 00ec 01       		.byte	1
 1997 00ed C0       		.byte	-64
 1998 00ee 80       		.byte	-128
 1999 00ef 41       		.byte	65
 2000 00f0 00       		.byte	0
 2001 00f1 C1       		.byte	-63
 2002 00f2 81       		.byte	-127
 2003 00f3 40       		.byte	64
 2004 00f4 01       		.byte	1
 2005 00f5 C0       		.byte	-64
 2006 00f6 80       		.byte	-128
 2007 00f7 41       		.byte	65
 2008 00f8 01       		.byte	1
 2009 00f9 C0       		.byte	-64
 2010 00fa 80       		.byte	-128
 2011 00fb 41       		.byte	65
 2012 00fc 00       		.byte	0
 2013 00fd C1       		.byte	-63
 2014 00fe 81       		.byte	-127
 2015 00ff 40       		.byte	64
 2016              		.type	auchCRCLo, %object
 2017              		.size	auchCRCLo, 256
 2018              	auchCRCLo:
 2019 0100 00       		.byte	0
 2020 0101 C0       		.byte	-64
 2021 0102 C1       		.byte	-63
 2022 0103 01       		.byte	1
 2023 0104 C3       		.byte	-61
 2024 0105 03       		.byte	3
 2025 0106 02       		.byte	2
ARM GAS  C:\Users\ZHANGM~1\AppData\Local\Temp\ccse5bds.s 			page 63


 2026 0107 C2       		.byte	-62
 2027 0108 C6       		.byte	-58
 2028 0109 06       		.byte	6
 2029 010a 07       		.byte	7
 2030 010b C7       		.byte	-57
 2031 010c 05       		.byte	5
 2032 010d C5       		.byte	-59
 2033 010e C4       		.byte	-60
 2034 010f 04       		.byte	4
 2035 0110 CC       		.byte	-52
 2036 0111 0C       		.byte	12
 2037 0112 0D       		.byte	13
 2038 0113 CD       		.byte	-51
 2039 0114 0F       		.byte	15
 2040 0115 CF       		.byte	-49
 2041 0116 CE       		.byte	-50
 2042 0117 0E       		.byte	14
 2043 0118 0A       		.byte	10
 2044 0119 CA       		.byte	-54
 2045 011a CB       		.byte	-53
 2046 011b 0B       		.byte	11
 2047 011c C9       		.byte	-55
 2048 011d 09       		.byte	9
 2049 011e 08       		.byte	8
 2050 011f C8       		.byte	-56
 2051 0120 D8       		.byte	-40
 2052 0121 18       		.byte	24
 2053 0122 19       		.byte	25
 2054 0123 D9       		.byte	-39
 2055 0124 1B       		.byte	27
 2056 0125 DB       		.byte	-37
 2057 0126 DA       		.byte	-38
 2058 0127 1A       		.byte	26
 2059 0128 1E       		.byte	30
 2060 0129 DE       		.byte	-34
 2061 012a DF       		.byte	-33
 2062 012b 1F       		.byte	31
 2063 012c DD       		.byte	-35
 2064 012d 1D       		.byte	29
 2065 012e 1C       		.byte	28
 2066 012f DC       		.byte	-36
 2067 0130 14       		.byte	20
 2068 0131 D4       		.byte	-44
 2069 0132 D5       		.byte	-43
 2070 0133 15       		.byte	21
 2071 0134 D7       		.byte	-41
 2072 0135 17       		.byte	23
 2073 0136 16       		.byte	22
 2074 0137 D6       		.byte	-42
 2075 0138 D2       		.byte	-46
 2076 0139 12       		.byte	18
 2077 013a 13       		.byte	19
 2078 013b D3       		.byte	-45
 2079 013c 11       		.byte	17
 2080 013d D1       		.byte	-47
 2081 013e D0       		.byte	-48
 2082 013f 10       		.byte	16
ARM GAS  C:\Users\ZHANGM~1\AppData\Local\Temp\ccse5bds.s 			page 64


 2083 0140 F0       		.byte	-16
 2084 0141 30       		.byte	48
 2085 0142 31       		.byte	49
 2086 0143 F1       		.byte	-15
 2087 0144 33       		.byte	51
 2088 0145 F3       		.byte	-13
 2089 0146 F2       		.byte	-14
 2090 0147 32       		.byte	50
 2091 0148 36       		.byte	54
 2092 0149 F6       		.byte	-10
 2093 014a F7       		.byte	-9
 2094 014b 37       		.byte	55
 2095 014c F5       		.byte	-11
 2096 014d 35       		.byte	53
 2097 014e 34       		.byte	52
 2098 014f F4       		.byte	-12
 2099 0150 3C       		.byte	60
 2100 0151 FC       		.byte	-4
 2101 0152 FD       		.byte	-3
 2102 0153 3D       		.byte	61
 2103 0154 FF       		.byte	-1
 2104 0155 3F       		.byte	63
 2105 0156 3E       		.byte	62
 2106 0157 FE       		.byte	-2
 2107 0158 FA       		.byte	-6
 2108 0159 3A       		.byte	58
 2109 015a 3B       		.byte	59
 2110 015b FB       		.byte	-5
 2111 015c 39       		.byte	57
 2112 015d F9       		.byte	-7
 2113 015e F8       		.byte	-8
 2114 015f 38       		.byte	56
 2115 0160 28       		.byte	40
 2116 0161 E8       		.byte	-24
 2117 0162 E9       		.byte	-23
 2118 0163 29       		.byte	41
 2119 0164 EB       		.byte	-21
 2120 0165 2B       		.byte	43
 2121 0166 2A       		.byte	42
 2122 0167 EA       		.byte	-22
 2123 0168 EE       		.byte	-18
 2124 0169 2E       		.byte	46
 2125 016a 2F       		.byte	47
 2126 016b EF       		.byte	-17
 2127 016c 2D       		.byte	45
 2128 016d ED       		.byte	-19
 2129 016e EC       		.byte	-20
 2130 016f 2C       		.byte	44
 2131 0170 E4       		.byte	-28
 2132 0171 24       		.byte	36
 2133 0172 25       		.byte	37
 2134 0173 E5       		.byte	-27
 2135 0174 27       		.byte	39
 2136 0175 E7       		.byte	-25
 2137 0176 E6       		.byte	-26
 2138 0177 26       		.byte	38
 2139 0178 22       		.byte	34
ARM GAS  C:\Users\ZHANGM~1\AppData\Local\Temp\ccse5bds.s 			page 65


 2140 0179 E2       		.byte	-30
 2141 017a E3       		.byte	-29
 2142 017b 23       		.byte	35
 2143 017c E1       		.byte	-31
 2144 017d 21       		.byte	33
 2145 017e 20       		.byte	32
 2146 017f E0       		.byte	-32
 2147 0180 A0       		.byte	-96
 2148 0181 60       		.byte	96
 2149 0182 61       		.byte	97
 2150 0183 A1       		.byte	-95
 2151 0184 63       		.byte	99
 2152 0185 A3       		.byte	-93
 2153 0186 A2       		.byte	-94
 2154 0187 62       		.byte	98
 2155 0188 66       		.byte	102
 2156 0189 A6       		.byte	-90
 2157 018a A7       		.byte	-89
 2158 018b 67       		.byte	103
 2159 018c A5       		.byte	-91
 2160 018d 65       		.byte	101
 2161 018e 64       		.byte	100
 2162 018f A4       		.byte	-92
 2163 0190 6C       		.byte	108
 2164 0191 AC       		.byte	-84
 2165 0192 AD       		.byte	-83
 2166 0193 6D       		.byte	109
 2167 0194 AF       		.byte	-81
 2168 0195 6F       		.byte	111
 2169 0196 6E       		.byte	110
 2170 0197 AE       		.byte	-82
 2171 0198 AA       		.byte	-86
 2172 0199 6A       		.byte	106
 2173 019a 6B       		.byte	107
 2174 019b AB       		.byte	-85
 2175 019c 69       		.byte	105
 2176 019d A9       		.byte	-87
 2177 019e A8       		.byte	-88
 2178 019f 68       		.byte	104
 2179 01a0 78       		.byte	120
 2180 01a1 B8       		.byte	-72
 2181 01a2 B9       		.byte	-71
 2182 01a3 79       		.byte	121
 2183 01a4 BB       		.byte	-69
 2184 01a5 7B       		.byte	123
 2185 01a6 7A       		.byte	122
 2186 01a7 BA       		.byte	-70
 2187 01a8 BE       		.byte	-66
 2188 01a9 7E       		.byte	126
 2189 01aa 7F       		.byte	127
 2190 01ab BF       		.byte	-65
 2191 01ac 7D       		.byte	125
 2192 01ad BD       		.byte	-67
 2193 01ae BC       		.byte	-68
 2194 01af 7C       		.byte	124
 2195 01b0 B4       		.byte	-76
 2196 01b1 74       		.byte	116
ARM GAS  C:\Users\ZHANGM~1\AppData\Local\Temp\ccse5bds.s 			page 66


 2197 01b2 75       		.byte	117
 2198 01b3 B5       		.byte	-75
 2199 01b4 77       		.byte	119
 2200 01b5 B7       		.byte	-73
 2201 01b6 B6       		.byte	-74
 2202 01b7 76       		.byte	118
 2203 01b8 72       		.byte	114
 2204 01b9 B2       		.byte	-78
 2205 01ba B3       		.byte	-77
 2206 01bb 73       		.byte	115
 2207 01bc B1       		.byte	-79
 2208 01bd 71       		.byte	113
 2209 01be 70       		.byte	112
 2210 01bf B0       		.byte	-80
 2211 01c0 50       		.byte	80
 2212 01c1 90       		.byte	-112
 2213 01c2 91       		.byte	-111
 2214 01c3 51       		.byte	81
 2215 01c4 93       		.byte	-109
 2216 01c5 53       		.byte	83
 2217 01c6 52       		.byte	82
 2218 01c7 92       		.byte	-110
 2219 01c8 96       		.byte	-106
 2220 01c9 56       		.byte	86
 2221 01ca 57       		.byte	87
 2222 01cb 97       		.byte	-105
 2223 01cc 55       		.byte	85
 2224 01cd 95       		.byte	-107
 2225 01ce 94       		.byte	-108
 2226 01cf 54       		.byte	84
 2227 01d0 9C       		.byte	-100
 2228 01d1 5C       		.byte	92
 2229 01d2 5D       		.byte	93
 2230 01d3 9D       		.byte	-99
 2231 01d4 5F       		.byte	95
 2232 01d5 9F       		.byte	-97
 2233 01d6 9E       		.byte	-98
 2234 01d7 5E       		.byte	94
 2235 01d8 5A       		.byte	90
 2236 01d9 9A       		.byte	-102
 2237 01da 9B       		.byte	-101
 2238 01db 5B       		.byte	91
 2239 01dc 99       		.byte	-103
 2240 01dd 59       		.byte	89
 2241 01de 58       		.byte	88
 2242 01df 98       		.byte	-104
 2243 01e0 88       		.byte	-120
 2244 01e1 48       		.byte	72
 2245 01e2 49       		.byte	73
 2246 01e3 89       		.byte	-119
 2247 01e4 4B       		.byte	75
 2248 01e5 8B       		.byte	-117
 2249 01e6 8A       		.byte	-118
 2250 01e7 4A       		.byte	74
 2251 01e8 4E       		.byte	78
 2252 01e9 8E       		.byte	-114
 2253 01ea 8F       		.byte	-113
ARM GAS  C:\Users\ZHANGM~1\AppData\Local\Temp\ccse5bds.s 			page 67


 2254 01eb 4F       		.byte	79
 2255 01ec 8D       		.byte	-115
 2256 01ed 4D       		.byte	77
 2257 01ee 4C       		.byte	76
 2258 01ef 8C       		.byte	-116
 2259 01f0 44       		.byte	68
 2260 01f1 84       		.byte	-124
 2261 01f2 85       		.byte	-123
 2262 01f3 45       		.byte	69
 2263 01f4 87       		.byte	-121
 2264 01f5 47       		.byte	71
 2265 01f6 46       		.byte	70
 2266 01f7 86       		.byte	-122
 2267 01f8 82       		.byte	-126
 2268 01f9 42       		.byte	66
 2269 01fa 43       		.byte	67
 2270 01fb 83       		.byte	-125
 2271 01fc 41       		.byte	65
 2272 01fd 81       		.byte	-127
 2273 01fe 80       		.byte	-128
 2274 01ff 40       		.byte	64
 2275              		.section	.bootloader,"a",%progbits
 2276              		.align	2
 2277              		.type	Bootloader_SizeBytes, %object
 2278              		.size	Bootloader_SizeBytes, 4
 2279              	Bootloader_SizeBytes:
 2280 0000 FFFFFFFF 		.word	-1
 2281              		.type	Bootloader_Checksum, %object
 2282              		.size	Bootloader_Checksum, 1
 2283              	Bootloader_Checksum:
 2284 0004 00       		.space	1
 2285 0005 000000   		.data
 2286              		.align	2
 2287              		.type	Bootloader_SizeBytesAccess, %object
 2288              		.size	Bootloader_SizeBytesAccess, 4
 2289              	Bootloader_SizeBytesAccess:
 2290 0000 00000000 		.word	Bootloader_SizeBytes
 2291              		.type	Bootloader_ChecksumAccess, %object
 2292              		.size	Bootloader_ChecksumAccess, 4
 2293              	Bootloader_ChecksumAccess:
 2294 0004 00000000 		.word	Bootloader_Checksum
 2295              		.bss
 2296              		.set	.LANCHOR2,. + 0
 2297              		.type	cBuf.5292, %object
 2298              		.size	cBuf.5292, 255
 2299              	cBuf.5292:
 2300 0000 00000000 		.space	255
 2300      00000000 
 2300      00000000 
 2300      00000000 
 2300      00000000 
 2301              		.text
 2302              	.Letext0:
 2303              		.file 2 ".\\Generated_Source\\PSoC4\\cytypes.h"
 2304              		.file 3 ".\\Generated_Source\\PSoC4\\Bootloader.h"
 2305              		.file 4 ".\\Generated_Source\\PSoC4/PWM.h"
 2306              		.file 5 ".\\Generated_Source\\PSoC4\\CyLib.h"
ARM GAS  C:\Users\ZHANGM~1\AppData\Local\Temp\ccse5bds.s 			page 68


 2307              		.file 6 ".\\Generated_Source\\PSoC4/UART_0.h"
 2308              		.file 7 ".\\Generated_Source\\PSoC4/UART_0_SPI_UART.h"
 2309              		.file 8 ".\\Generated_Source\\PSoC4\\CyFlash.h"