ARM GAS  C:\Users\ZHANGM~1\AppData\Local\Temp\ccse5bds.s 			page 1


   1              		.cpu cortex-m0
   2              		.fpu softvfp
   3              		.eabi_attribute 20, 1
   4              		.eabi_attribute 21, 1
   5              		.eabi_attribute 23, 3
   6              		.eabi_attribute 24, 1
   7              		.eabi_attribute 25, 1
   8              		.eabi_attribute 26, 1
   9              		.eabi_attribute 30, 4
  10              		.eabi_attribute 34, 0
  11              		.eabi_attribute 18, 4
  12              		.code	16
  13              		.file	"Bootloader.c"
  14              		.text
  15              	.Ltext0:
  16              		.cfi_sections	.debug_frame
  17              		.section	.text.Bootloader_LaunchBootloadable,"ax",%progbits
  18              		.align	1
  19              		.code	16
  20              		.thumb_func
  21              		.type	Bootloader_LaunchBootloadable, %function
  22              	Bootloader_LaunchBootloadable:
  23              	.LFB46:
  24              		.file 1 ".\\Generated_Source\\PSoC4\\Bootloader.c"
   1:.\Generated_Source\PSoC4/Bootloader.c **** /*******************************************************************************
   2:.\Generated_Source\PSoC4/Bootloader.c **** * File Name: Bootloader.c
   3:.\Generated_Source\PSoC4/Bootloader.c **** * Version 1.30
   4:.\Generated_Source\PSoC4/Bootloader.c **** *
   5:.\Generated_Source\PSoC4/Bootloader.c **** *  Description:
   6:.\Generated_Source\PSoC4/Bootloader.c **** *   Provides an API for the Bootloader component. The API includes functions
   7:.\Generated_Source\PSoC4/Bootloader.c **** *   for starting boot loading operations, validating the application and
   8:.\Generated_Source\PSoC4/Bootloader.c **** *   jumping to the application.
   9:.\Generated_Source\PSoC4/Bootloader.c **** *
  10:.\Generated_Source\PSoC4/Bootloader.c **** ********************************************************************************
  11:.\Generated_Source\PSoC4/Bootloader.c **** * Copyright 2008-2014, Cypress Semiconductor Corporation.  All rights reserved.
  12:.\Generated_Source\PSoC4/Bootloader.c **** * You may use this file only in accordance with the license, terms, conditions,
  13:.\Generated_Source\PSoC4/Bootloader.c **** * disclaimers, and limitations in the end user license agreement accompanying
  14:.\Generated_Source\PSoC4/Bootloader.c **** * the software package with which this file was provided.
  15:.\Generated_Source\PSoC4/Bootloader.c **** *******************************************************************************/
  16:.\Generated_Source\PSoC4/Bootloader.c **** 
  17:.\Generated_Source\PSoC4/Bootloader.c **** #include "Bootloader_PVT.h"
  18:.\Generated_Source\PSoC4/Bootloader.c **** #include "project.h"
  19:.\Generated_Source\PSoC4/Bootloader.c **** #include <string.h> 
  20:.\Generated_Source\PSoC4/Bootloader.c **** 
  21:.\Generated_Source\PSoC4/Bootloader.c **** 
  22:.\Generated_Source\PSoC4/Bootloader.c **** /*******************************************************************************
  23:.\Generated_Source\PSoC4/Bootloader.c **** * The Checksum and SizeBytes are forcefully set in code. We then post process
  24:.\Generated_Source\PSoC4/Bootloader.c **** * the hex file from the linker and inject their values then. When the hex file
  25:.\Generated_Source\PSoC4/Bootloader.c **** * is loaded onto the device these two variables should have valid values.
  26:.\Generated_Source\PSoC4/Bootloader.c **** * Because the compiler can do optimizations to remove the constant
  27:.\Generated_Source\PSoC4/Bootloader.c **** * accesses, these should not be accessed directly. Instead, the variables
  28:.\Generated_Source\PSoC4/Bootloader.c **** * CyBtldr_ChecksumAccess & CyBtldr_SizeBytesAccess should be used to get the
  29:.\Generated_Source\PSoC4/Bootloader.c **** * proper values at runtime.
  30:.\Generated_Source\PSoC4/Bootloader.c **** *******************************************************************************/
  31:.\Generated_Source\PSoC4/Bootloader.c **** #if defined(__ARMCC_VERSION) || defined (__GNUC__)
  32:.\Generated_Source\PSoC4/Bootloader.c ****     __attribute__((section (".bootloader"), used))
  33:.\Generated_Source\PSoC4/Bootloader.c **** #elif defined (__ICCARM__)
ARM GAS  C:\Users\ZHANGM~1\AppData\Local\Temp\ccse5bds.s 			page 2


  34:.\Generated_Source\PSoC4/Bootloader.c ****     #pragma location=".bootloader"
  35:.\Generated_Source\PSoC4/Bootloader.c **** #endif  /* defined(__ARMCC_VERSION) || defined (__GNUC__) */
  36:.\Generated_Source\PSoC4/Bootloader.c **** 
  37:.\Generated_Source\PSoC4/Bootloader.c **** #if defined(__ARMCC_VERSION) || defined (__GNUC__) || defined (__C51__)
  38:.\Generated_Source\PSoC4/Bootloader.c ****            const uint8  CYCODE Bootloader_Checksum = 0u;
  39:.\Generated_Source\PSoC4/Bootloader.c **** #elif defined (__ICCARM__)
  40:.\Generated_Source\PSoC4/Bootloader.c ****     __root const uint8  CYCODE Bootloader_Checksum = 0u;
  41:.\Generated_Source\PSoC4/Bootloader.c **** #endif  /* defined(__ARMCC_VERSION) || defined (__GNUC__) || defined (__C51__) */
  42:.\Generated_Source\PSoC4/Bootloader.c **** const uint8  CYCODE *Bootloader_ChecksumAccess  = (const uint8  CYCODE *)(&Bootloader_Checksum);
  43:.\Generated_Source\PSoC4/Bootloader.c **** 
  44:.\Generated_Source\PSoC4/Bootloader.c **** #if defined(__ARMCC_VERSION) || defined (__GNUC__)
  45:.\Generated_Source\PSoC4/Bootloader.c ****     __attribute__((section (".bootloader"), used))
  46:.\Generated_Source\PSoC4/Bootloader.c **** #elif defined (__ICCARM__)
  47:.\Generated_Source\PSoC4/Bootloader.c ****     #pragma location=".bootloader"
  48:.\Generated_Source\PSoC4/Bootloader.c **** #endif  /* defined(__ARMCC_VERSION) || defined (__GNUC__) */
  49:.\Generated_Source\PSoC4/Bootloader.c **** 
  50:.\Generated_Source\PSoC4/Bootloader.c **** const uint32 CYCODE Bootloader_SizeBytes = 0xFFFFFFFFu;
  51:.\Generated_Source\PSoC4/Bootloader.c **** const uint32 CYCODE *Bootloader_SizeBytesAccess = (const uint32 CYCODE *)(&Bootloader_SizeBytes);
  52:.\Generated_Source\PSoC4/Bootloader.c ****  #define Bootloader_activeApp      (Bootloader_MD_BTLDB_ACTIVE_0)
  53:.\Generated_Source\PSoC4/Bootloader.c **** 
  54:.\Generated_Source\PSoC4/Bootloader.c **** CYBIT f_ack_1,f_delay;
  55:.\Generated_Source\PSoC4/Bootloader.c **** 
  56:.\Generated_Source\PSoC4/Bootloader.c **** /***************************************
  57:.\Generated_Source\PSoC4/Bootloader.c **** *     Function Prototypes
  58:.\Generated_Source\PSoC4/Bootloader.c **** ***************************************/
  59:.\Generated_Source\PSoC4/Bootloader.c ****                                   ;
  60:.\Generated_Source\PSoC4/Bootloader.c **** uint8 dataBuffer_0[300],packetBuffer[300];
  61:.\Generated_Source\PSoC4/Bootloader.c **** uint8 z_iicount, z_itotalcount;
  62:.\Generated_Source\PSoC4/Bootloader.c ****                                     ;
  63:.\Generated_Source\PSoC4/Bootloader.c **** extern void Open_UART_WIFI_ISR(void);
  64:.\Generated_Source\PSoC4/Bootloader.c **** extern CY_ISR(UART_ISR_0_FUN);
  65:.\Generated_Source\PSoC4/Bootloader.c **** static void     Bootloader_HostLink(void); 
  66:.\Generated_Source\PSoC4/Bootloader.c ****                                
  67:.\Generated_Source\PSoC4/Bootloader.c **** 
  68:.\Generated_Source\PSoC4/Bootloader.c **** static void     Bootloader_LaunchApplication(void) CYSMALL \
  69:.\Generated_Source\PSoC4/Bootloader.c ****                                     ;
  70:.\Generated_Source\PSoC4/Bootloader.c **** 
  71:.\Generated_Source\PSoC4/Bootloader.c **** #if(!CY_PSOC3)
  72:.\Generated_Source\PSoC4/Bootloader.c ****     /* Implementation for the PSoC 3 resides in a Bootloader_psoc3.a51 file.  */
  73:.\Generated_Source\PSoC4/Bootloader.c ****     static void     Bootloader_LaunchBootloadable(uint32 appAddr);
  74:.\Generated_Source\PSoC4/Bootloader.c **** #endif  /* (!CY_PSOC3) */
  75:.\Generated_Source\PSoC4/Bootloader.c **** 
  76:.\Generated_Source\PSoC4/Bootloader.c **** CYBIT BUZfkg;
  77:.\Generated_Source\PSoC4/Bootloader.c **** uint32  BuzzerDly;
  78:.\Generated_Source\PSoC4/Bootloader.c **** uint8 gcWifiCommunState;
  79:.\Generated_Source\PSoC4/Bootloader.c **** struct{
  80:.\Generated_Source\PSoC4/Bootloader.c **** 		unsigned handshake_ok:1;           //握手成功标志
  81:.\Generated_Source\PSoC4/Bootloader.c **** 		unsigned bootloadable_load_ok:1;
  82:.\Generated_Source\PSoC4/Bootloader.c **** 		unsigned gcReceComm2OK:1;
  83:.\Generated_Source\PSoC4/Bootloader.c **** 		unsigned gcReceComm1OK:1;
  84:.\Generated_Source\PSoC4/Bootloader.c **** 		unsigned u8E0Set:1;
  85:.\Generated_Source\PSoC4/Bootloader.c **** 		unsigned u8E1Set:1;
  86:.\Generated_Source\PSoC4/Bootloader.c **** 		unsigned u8E2Set:1;
  87:.\Generated_Source\PSoC4/Bootloader.c **** 		unsigned u8E3Set:1;
  88:.\Generated_Source\PSoC4/Bootloader.c **** }WifiWorkFlag;
  89:.\Generated_Source\PSoC4/Bootloader.c **** 
  90:.\Generated_Source\PSoC4/Bootloader.c **** 
ARM GAS  C:\Users\ZHANGM~1\AppData\Local\Temp\ccse5bds.s 			page 3


  91:.\Generated_Source\PSoC4/Bootloader.c **** struct{
  92:.\Generated_Source\PSoC4/Bootloader.c ****     unsigned send_data_load:1;            //启动发送标志
  93:.\Generated_Source\PSoC4/Bootloader.c ****     unsigned flag_rev_end:1;              //接收完毕标志
  94:.\Generated_Source\PSoC4/Bootloader.c ****     unsigned uart_ack:1;              //应答标志位
  95:.\Generated_Source\PSoC4/Bootloader.c ****     unsigned flag_Uart_Work:1;         //Uart_Work标志位
  96:.\Generated_Source\PSoC4/Bootloader.c **** }WifidatagramWorkFlag;
  97:.\Generated_Source\PSoC4/Bootloader.c **** uint8 gcWIFICTL,giWIFICommand,giWIFIDATALength;
  98:.\Generated_Source\PSoC4/Bootloader.c ****  typedef struct Buffer0
  99:.\Generated_Source\PSoC4/Bootloader.c **** {
 100:.\Generated_Source\PSoC4/Bootloader.c **** 	uint8  	gcATReceData[WIFIBUFLEN];  // wifi 模块一次传输1440字节，这里有51芯片只有1280个xdata
 101:.\Generated_Source\PSoC4/Bootloader.c **** 	uint16 	gcATReceCount;
 102:.\Generated_Source\PSoC4/Bootloader.c **** } Buffer2;
 103:.\Generated_Source\PSoC4/Bootloader.c **** struct Buffer0    ATReceBuffer[1];
 104:.\Generated_Source\PSoC4/Bootloader.c **** uint16		iUartSendLen;
 105:.\Generated_Source\PSoC4/Bootloader.c **** uint16		iSendCounter;
 106:.\Generated_Source\PSoC4/Bootloader.c **** uint16 iSendCounter,iUartSendLen;
 107:.\Generated_Source\PSoC4/Bootloader.c **** uint8 *cpSendBufPtr;
 108:.\Generated_Source\PSoC4/Bootloader.c **** CYBIT F_uart_0_tx;
 109:.\Generated_Source\PSoC4/Bootloader.c **** 
 110:.\Generated_Source\PSoC4/Bootloader.c **** /* CRC 高位字节值表 */ 
 111:.\Generated_Source\PSoC4/Bootloader.c **** const uint8 auchCRCHi[] = { 
 112:.\Generated_Source\PSoC4/Bootloader.c **** 0x00, 0xC1, 0x81, 0x40, 0x01, 0xC0, 0x80, 0x41, 0x01, 0xC0, 
 113:.\Generated_Source\PSoC4/Bootloader.c **** 0x80, 0x41, 0x00, 0xC1, 0x81, 0x40, 0x01, 0xC0, 0x80, 0x41, 
 114:.\Generated_Source\PSoC4/Bootloader.c **** 0x00, 0xC1, 0x81, 0x40, 0x00, 0xC1, 0x81, 0x40, 0x01, 0xC0, 
 115:.\Generated_Source\PSoC4/Bootloader.c **** 0x80, 0x41, 0x01, 0xC0, 0x80, 0x41, 0x00, 0xC1, 0x81, 0x40, 
 116:.\Generated_Source\PSoC4/Bootloader.c **** 0x00, 0xC1, 0x81, 0x40, 0x01, 0xC0, 0x80, 0x41, 0x00, 0xC1, 
 117:.\Generated_Source\PSoC4/Bootloader.c **** 0x81, 0x40, 0x01, 0xC0, 0x80, 0x41, 0x01, 0xC0, 0x80, 0x41, 
 118:.\Generated_Source\PSoC4/Bootloader.c **** 0x00, 0xC1, 0x81, 0x40, 0x01, 0xC0, 0x80, 0x41, 0x00, 0xC1, 
 119:.\Generated_Source\PSoC4/Bootloader.c **** 0x81, 0x40, 0x00, 0xC1, 0x81, 0x40, 0x01, 0xC0, 0x80, 0x41, 
 120:.\Generated_Source\PSoC4/Bootloader.c **** 0x00, 0xC1, 0x81, 0x40, 0x01, 0xC0, 0x80, 0x41, 0x01, 0xC0, 
 121:.\Generated_Source\PSoC4/Bootloader.c **** 0x80, 0x41, 0x00, 0xC1, 0x81, 0x40, 0x00, 0xC1, 0x81, 0x40, 
 122:.\Generated_Source\PSoC4/Bootloader.c **** 0x01, 0xC0, 0x80, 0x41, 0x01, 0xC0, 0x80, 0x41, 0x00, 0xC1, 
 123:.\Generated_Source\PSoC4/Bootloader.c **** 0x81, 0x40, 0x01, 0xC0, 0x80, 0x41, 0x00, 0xC1, 0x81, 0x40, 
 124:.\Generated_Source\PSoC4/Bootloader.c **** 0x00, 0xC1, 0x81, 0x40, 0x01, 0xC0, 0x80, 0x41, 0x01, 0xC0, 
 125:.\Generated_Source\PSoC4/Bootloader.c **** 0x80, 0x41, 0x00, 0xC1, 0x81, 0x40, 0x00, 0xC1, 0x81, 0x40, 
 126:.\Generated_Source\PSoC4/Bootloader.c **** 0x01, 0xC0, 0x80, 0x41, 0x00, 0xC1, 0x81, 0x40, 0x01, 0xC0, 
 127:.\Generated_Source\PSoC4/Bootloader.c **** 0x80, 0x41, 0x01, 0xC0, 0x80, 0x41, 0x00, 0xC1, 0x81, 0x40, 
 128:.\Generated_Source\PSoC4/Bootloader.c **** 0x00, 0xC1, 0x81, 0x40, 0x01, 0xC0, 0x80, 0x41, 0x01, 0xC0, 
 129:.\Generated_Source\PSoC4/Bootloader.c **** 0x80, 0x41, 0x00, 0xC1, 0x81, 0x40, 0x01, 0xC0, 0x80, 0x41, 
 130:.\Generated_Source\PSoC4/Bootloader.c **** 0x00, 0xC1, 0x81, 0x40, 0x00, 0xC1, 0x81, 0x40, 0x01, 0xC0, 
 131:.\Generated_Source\PSoC4/Bootloader.c **** 0x80, 0x41, 0x00, 0xC1, 0x81, 0x40, 0x01, 0xC0, 0x80, 0x41, 
 132:.\Generated_Source\PSoC4/Bootloader.c **** 0x01, 0xC0, 0x80, 0x41, 0x00, 0xC1, 0x81, 0x40, 0x01, 0xC0, 
 133:.\Generated_Source\PSoC4/Bootloader.c **** 0x80, 0x41, 0x00, 0xC1, 0x81, 0x40, 0x00, 0xC1, 0x81, 0x40, 
 134:.\Generated_Source\PSoC4/Bootloader.c **** 0x01, 0xC0, 0x80, 0x41, 0x01, 0xC0, 0x80, 0x41, 0x00, 0xC1, 
 135:.\Generated_Source\PSoC4/Bootloader.c **** 0x81, 0x40, 0x00, 0xC1, 0x81, 0x40, 0x01, 0xC0, 0x80, 0x41, 
 136:.\Generated_Source\PSoC4/Bootloader.c **** 0x00, 0xC1, 0x81, 0x40, 0x01, 0xC0, 0x80, 0x41, 0x01, 0xC0, 
 137:.\Generated_Source\PSoC4/Bootloader.c **** 0x80, 0x41, 0x00, 0xC1, 0x81, 0x40 
 138:.\Generated_Source\PSoC4/Bootloader.c **** } ; 
 139:.\Generated_Source\PSoC4/Bootloader.c **** /* CRC低位字节值表*/ 
 140:.\Generated_Source\PSoC4/Bootloader.c **** const uint8 auchCRCLo[] = { 		
 141:.\Generated_Source\PSoC4/Bootloader.c **** 0x00, 0xC0, 0xC1, 0x01, 0xC3, 0x03, 0x02, 0xC2, 0xC6, 0x06, 
 142:.\Generated_Source\PSoC4/Bootloader.c **** 0x07, 0xC7, 0x05, 0xC5, 0xC4, 0x04, 0xCC, 0x0C, 0x0D, 0xCD, 
 143:.\Generated_Source\PSoC4/Bootloader.c **** 0x0F, 0xCF, 0xCE, 0x0E, 0x0A, 0xCA, 0xCB, 0x0B, 0xC9, 0x09, 
 144:.\Generated_Source\PSoC4/Bootloader.c **** 0x08, 0xC8, 0xD8, 0x18, 0x19, 0xD9, 0x1B, 0xDB, 0xDA, 0x1A, 
 145:.\Generated_Source\PSoC4/Bootloader.c **** 0x1E, 0xDE, 0xDF, 0x1F, 0xDD, 0x1D, 0x1C, 0xDC, 0x14, 0xD4, 
 146:.\Generated_Source\PSoC4/Bootloader.c **** 0xD5, 0x15, 0xD7, 0x17, 0x16, 0xD6, 0xD2, 0x12, 0x13, 0xD3, 
 147:.\Generated_Source\PSoC4/Bootloader.c **** 0x11, 0xD1, 0xD0, 0x10, 0xF0, 0x30, 0x31, 0xF1, 0x33, 0xF3, 
ARM GAS  C:\Users\ZHANGM~1\AppData\Local\Temp\ccse5bds.s 			page 4


 148:.\Generated_Source\PSoC4/Bootloader.c **** 0xF2, 0x32, 0x36, 0xF6, 0xF7, 0x37, 0xF5, 0x35, 0x34, 0xF4, 
 149:.\Generated_Source\PSoC4/Bootloader.c **** 0x3C, 0xFC, 0xFD, 0x3D, 0xFF, 0x3F, 0x3E, 0xFE, 0xFA, 0x3A, 
 150:.\Generated_Source\PSoC4/Bootloader.c **** 0x3B, 0xFB, 0x39, 0xF9, 0xF8, 0x38, 0x28, 0xE8, 0xE9, 0x29, 
 151:.\Generated_Source\PSoC4/Bootloader.c **** 0xEB, 0x2B, 0x2A, 0xEA, 0xEE, 0x2E, 0x2F, 0xEF, 0x2D, 0xED, 
 152:.\Generated_Source\PSoC4/Bootloader.c **** 0xEC, 0x2C, 0xE4, 0x24, 0x25, 0xE5, 0x27, 0xE7, 0xE6, 0x26, 
 153:.\Generated_Source\PSoC4/Bootloader.c **** 0x22, 0xE2, 0xE3, 0x23, 0xE1, 0x21, 0x20, 0xE0, 0xA0, 0x60, 
 154:.\Generated_Source\PSoC4/Bootloader.c **** 0x61, 0xA1, 0x63, 0xA3, 0xA2, 0x62, 0x66, 0xA6, 0xA7, 0x67, 
 155:.\Generated_Source\PSoC4/Bootloader.c **** 0xA5, 0x65, 0x64, 0xA4, 0x6C, 0xAC, 0xAD, 0x6D, 0xAF, 0x6F, 
 156:.\Generated_Source\PSoC4/Bootloader.c **** 0x6E, 0xAE, 0xAA, 0x6A, 0x6B, 0xAB, 0x69, 0xA9, 0xA8, 0x68, 
 157:.\Generated_Source\PSoC4/Bootloader.c **** 0x78, 0xB8, 0xB9, 0x79, 0xBB, 0x7B, 0x7A, 0xBA, 0xBE, 0x7E, 
 158:.\Generated_Source\PSoC4/Bootloader.c **** 0x7F, 0xBF, 0x7D, 0xBD, 0xBC, 0x7C, 0xB4, 0x74, 0x75, 0xB5, 
 159:.\Generated_Source\PSoC4/Bootloader.c **** 0x77, 0xB7, 0xB6, 0x76, 0x72, 0xB2, 0xB3, 0x73, 0xB1, 0x71, 
 160:.\Generated_Source\PSoC4/Bootloader.c **** 0x70, 0xB0, 0x50, 0x90, 0x91, 0x51, 0x93, 0x53, 0x52, 0x92, 
 161:.\Generated_Source\PSoC4/Bootloader.c **** 0x96, 0x56, 0x57, 0x97, 0x55, 0x95, 0x94, 0x54, 0x9C, 0x5C, 
 162:.\Generated_Source\PSoC4/Bootloader.c **** 0x5D, 0x9D, 0x5F, 0x9F, 0x9E, 0x5E, 0x5A, 0x9A, 0x9B, 0x5B, 
 163:.\Generated_Source\PSoC4/Bootloader.c **** 0x99, 0x59, 0x58, 0x98, 0x88, 0x48, 0x49, 0x89, 0x4B, 0x8B, 
 164:.\Generated_Source\PSoC4/Bootloader.c **** 0x8A, 0x4A, 0x4E, 0x8E, 0x8F, 0x4F, 0x8D, 0x4D, 0x4C, 0x8C, 
 165:.\Generated_Source\PSoC4/Bootloader.c **** 0x44, 0x84, 0x85, 0x45, 0x87, 0x47, 0x46, 0x86, 0x82, 0x42, 
 166:.\Generated_Source\PSoC4/Bootloader.c **** 0x43, 0x83, 0x41, 0x81, 0x80, 0x40 		   
 167:.\Generated_Source\PSoC4/Bootloader.c **** } ;
 168:.\Generated_Source\PSoC4/Bootloader.c **** /**
 169:.\Generated_Source\PSoC4/Bootloader.c ****  * @brief      计算CRC16数据
 170:.\Generated_Source\PSoC4/Bootloader.c ****  * @param     puchMsg:需要计算的数据指针
 171:.\Generated_Source\PSoC4/Bootloader.c **** 　*            usDataLen：数据长度
 172:.\Generated_Source\PSoC4/Bootloader.c ****  * @return     返回CRC16结果
 173:.\Generated_Source\PSoC4/Bootloader.c **** 　* @details     
 174:.\Generated_Source\PSoC4/Bootloader.c **** */
 175:.\Generated_Source\PSoC4/Bootloader.c **** uint16 crc16(uint8 *puchMsg, uint16 usDataLen) 
 176:.\Generated_Source\PSoC4/Bootloader.c **** { 
 177:.\Generated_Source\PSoC4/Bootloader.c **** 	uint8 uchCRCHi = 0xFF ; /* 高CRC字节初始化 */ 
 178:.\Generated_Source\PSoC4/Bootloader.c **** 	uint8 uchCRCLo = 0xFF ; /* 低CRC 字节初始化 */ 
 179:.\Generated_Source\PSoC4/Bootloader.c **** 	uint32 uIndex ; /* CRC循环中的索引 */ 
 180:.\Generated_Source\PSoC4/Bootloader.c **** 	while (usDataLen--) /* 传输消息缓冲区 */ 
 181:.\Generated_Source\PSoC4/Bootloader.c **** 	{ 
 182:.\Generated_Source\PSoC4/Bootloader.c **** 		uIndex = uchCRCHi ^ *puchMsg++ ; /* 计算CRC */ 
 183:.\Generated_Source\PSoC4/Bootloader.c **** 		uchCRCHi = uchCRCLo ^ auchCRCHi[uIndex] ; 
 184:.\Generated_Source\PSoC4/Bootloader.c **** 		uchCRCLo = auchCRCLo[uIndex] ; 
 185:.\Generated_Source\PSoC4/Bootloader.c **** 	} 
 186:.\Generated_Source\PSoC4/Bootloader.c **** 	return (uchCRCHi << 8 | uchCRCLo);	
 187:.\Generated_Source\PSoC4/Bootloader.c **** }
 188:.\Generated_Source\PSoC4/Bootloader.c **** /**************************************************************************************************
 189:.\Generated_Source\PSoC4/Bootloader.c **** ** 函数名称: void Comm_Uart_0_PrintHex8(uint8 value)
 190:.\Generated_Source\PSoC4/Bootloader.c **** ** 功能描述: 从串口发送数据
 191:.\Generated_Source\PSoC4/Bootloader.c **** ** 入口参数:	无
 192:.\Generated_Source\PSoC4/Bootloader.c **** ** 出口参数:	无
 193:.\Generated_Source\PSoC4/Bootloader.c **** ***************************************************************************************************
 194:.\Generated_Source\PSoC4/Bootloader.c **** void Comm_Uart_0_PrintHex8(uint8 value)
 195:.\Generated_Source\PSoC4/Bootloader.c **** {
 196:.\Generated_Source\PSoC4/Bootloader.c ****     while(UART_0_FIFO_SIZE == UART_0_GET_TX_FIFO_ENTRIES);
 197:.\Generated_Source\PSoC4/Bootloader.c ****     UART_0_TX_FIFO_WR_REG = (uint8)(value);
 198:.\Generated_Source\PSoC4/Bootloader.c **** }
 199:.\Generated_Source\PSoC4/Bootloader.c **** /**************************************************************************************************
 200:.\Generated_Source\PSoC4/Bootloader.c **** ** 函数名称: void UART_putchar(void)
 201:.\Generated_Source\PSoC4/Bootloader.c **** ** 功能描述: 从串口发送数据
 202:.\Generated_Source\PSoC4/Bootloader.c **** ** 入口参数:	无
 203:.\Generated_Source\PSoC4/Bootloader.c **** ** 出口参数:	无
 204:.\Generated_Source\PSoC4/Bootloader.c **** ***************************************************************************************************
ARM GAS  C:\Users\ZHANGM~1\AppData\Local\Temp\ccse5bds.s 			page 5


 205:.\Generated_Source\PSoC4/Bootloader.c **** void Uart_0_Putchar(void)
 206:.\Generated_Source\PSoC4/Bootloader.c **** {
 207:.\Generated_Source\PSoC4/Bootloader.c ****     	if(F_uart_0_tx!=0)
 208:.\Generated_Source\PSoC4/Bootloader.c **** 		{
 209:.\Generated_Source\PSoC4/Bootloader.c ****     if(iSendCounter!=(iUartSendLen+1))
 210:.\Generated_Source\PSoC4/Bootloader.c **** 		{
 211:.\Generated_Source\PSoC4/Bootloader.c ****           Comm_Uart_0_PrintHex8(cpSendBufPtr[iSendCounter++]);
 212:.\Generated_Source\PSoC4/Bootloader.c **** 	    }
 213:.\Generated_Source\PSoC4/Bootloader.c ****         }
 214:.\Generated_Source\PSoC4/Bootloader.c **** 
 215:.\Generated_Source\PSoC4/Bootloader.c **** }
 216:.\Generated_Source\PSoC4/Bootloader.c **** 
 217:.\Generated_Source\PSoC4/Bootloader.c **** /**************************************************************************************************
 218:.\Generated_Source\PSoC4/Bootloader.c **** ** 函数名称: void UART_SendData(unsigned char	 *data_buf,unsigned char	 count)
 219:.\Generated_Source\PSoC4/Bootloader.c **** ** 功能描述: 从串口发送数据
 220:.\Generated_Source\PSoC4/Bootloader.c **** ** 入口参数: data_buf:发送数据缓冲区首地址
 221:.\Generated_Source\PSoC4/Bootloader.c **** **			 count	:发送字节数
 222:.\Generated_Source\PSoC4/Bootloader.c **** ** 出口参数:	无
 223:.\Generated_Source\PSoC4/Bootloader.c **** ***************************************************************************************************
 224:.\Generated_Source\PSoC4/Bootloader.c **** void UART_SendData(uint8	 *data_buf,uint16 iCount)
 225:.\Generated_Source\PSoC4/Bootloader.c **** {
 226:.\Generated_Source\PSoC4/Bootloader.c **** 	iUartSendLen = iCount-1;
 227:.\Generated_Source\PSoC4/Bootloader.c **** 	iSendCounter = 0;
 228:.\Generated_Source\PSoC4/Bootloader.c **** 	cpSendBufPtr = &data_buf[0];
 229:.\Generated_Source\PSoC4/Bootloader.c **** }
 230:.\Generated_Source\PSoC4/Bootloader.c **** 
 231:.\Generated_Source\PSoC4/Bootloader.c **** /******************************************************************************
 232:.\Generated_Source\PSoC4/Bootloader.c **** * 函 数 名: Sum_Make_Verify (uint8 *pBuf, uint len)
 233:.\Generated_Source\PSoC4/Bootloader.c **** * 函数功能: 串口接收程序
 234:.\Generated_Source\PSoC4/Bootloader.c **** * 入口参数: 无
 235:.\Generated_Source\PSoC4/Bootloader.c **** * 返    回: 
 236:.\Generated_Source\PSoC4/Bootloader.c **** *******************************************************************************/
 237:.\Generated_Source\PSoC4/Bootloader.c **** uint8 Sum_Make_Verify (uint8 *PBuf, uint16 Len)
 238:.\Generated_Source\PSoC4/Bootloader.c **** {
 239:.\Generated_Source\PSoC4/Bootloader.c ****     uint8 Verify = 0;
 240:.\Generated_Source\PSoC4/Bootloader.c ****     while (Len--)
 241:.\Generated_Source\PSoC4/Bootloader.c ****     {
 242:.\Generated_Source\PSoC4/Bootloader.c ****         Verify = Verify + (*PBuf);
 243:.\Generated_Source\PSoC4/Bootloader.c ****         ++ PBuf;
 244:.\Generated_Source\PSoC4/Bootloader.c ****     }
 245:.\Generated_Source\PSoC4/Bootloader.c ****     return (~Verify + 1);
 246:.\Generated_Source\PSoC4/Bootloader.c **** }
 247:.\Generated_Source\PSoC4/Bootloader.c **** /*
 248:.\Generated_Source\PSoC4/Bootloader.c **** ***************************************************************************************************
 249:.\Generated_Source\PSoC4/Bootloader.c **** ** 函数名称 ：SendDataToWifi()
 250:.\Generated_Source\PSoC4/Bootloader.c **** ** 函数功能 ：发送数据到WIFI模块                          
 251:.\Generated_Source\PSoC4/Bootloader.c **** ** 入口参数 ：cCtl：控制字类型 
 252:.\Generated_Source\PSoC4/Bootloader.c ****   							0x00(主动发送指令要求对方回复) 
 253:.\Generated_Source\PSoC4/Bootloader.c ****   							0x80(返回指令) 
 254:.\Generated_Source\PSoC4/Bootloader.c ****   							0x40(主动发送无需对方回复)
 255:.\Generated_Source\PSoC4/Bootloader.c ****               unsigned char  *DataBuf  数据缓存区            
 256:.\Generated_Source\PSoC4/Bootloader.c ****               unsigned int   iLength   数据长度          
 257:.\Generated_Source\PSoC4/Bootloader.c **** ** 出口参数 ：无
 258:.\Generated_Source\PSoC4/Bootloader.c **** ***************************************************************************************************
 259:.\Generated_Source\PSoC4/Bootloader.c **** */
 260:.\Generated_Source\PSoC4/Bootloader.c **** void  SendDataToWifi(uint8 cCtl,
 261:.\Generated_Source\PSoC4/Bootloader.c ****                       uint16 cCommand,
ARM GAS  C:\Users\ZHANGM~1\AppData\Local\Temp\ccse5bds.s 			page 6


 262:.\Generated_Source\PSoC4/Bootloader.c ****                      uint8 *DataBuf,
 263:.\Generated_Source\PSoC4/Bootloader.c **** 		     							uint16 iLength)
 264:.\Generated_Source\PSoC4/Bootloader.c **** {
 265:.\Generated_Source\PSoC4/Bootloader.c ****  
 266:.\Generated_Source\PSoC4/Bootloader.c ****     uint16 xxxxx;
 267:.\Generated_Source\PSoC4/Bootloader.c ****     static uint8 cBuf[255]; ////51 has only 256 data in soc
 268:.\Generated_Source\PSoC4/Bootloader.c ****     memset(cBuf,0x00,WIFIBUFLEN);
 269:.\Generated_Source\PSoC4/Bootloader.c ****     cBuf[0] = WIFI_SYN_0;        	     // SYNC0
 270:.\Generated_Source\PSoC4/Bootloader.c ****     cBuf[1] = WIFI_SYN_1;        	     // SYNC1
 271:.\Generated_Source\PSoC4/Bootloader.c ****     cBuf[2] = 0x01;   //MCU_PROTOCOL_VERSION 
 272:.\Generated_Source\PSoC4/Bootloader.c ****     if(cCommand==0xccc5)
 273:.\Generated_Source\PSoC4/Bootloader.c ****     {
 274:.\Generated_Source\PSoC4/Bootloader.c ****         cBuf[3]=0;
 275:.\Generated_Source\PSoC4/Bootloader.c ****         cBuf[4]=0x00;
 276:.\Generated_Source\PSoC4/Bootloader.c ****     }
 277:.\Generated_Source\PSoC4/Bootloader.c ****     else
 278:.\Generated_Source\PSoC4/Bootloader.c ****     {
 279:.\Generated_Source\PSoC4/Bootloader.c ****         cBuf[3]=z_itotalcount;
 280:.\Generated_Source\PSoC4/Bootloader.c ****         cBuf[4]=z_iicount;
 281:.\Generated_Source\PSoC4/Bootloader.c ****     }
 282:.\Generated_Source\PSoC4/Bootloader.c ****     cBuf[5] = cCtl;   	 // Wctrl
 283:.\Generated_Source\PSoC4/Bootloader.c ****     cBuf[6] =  (cCommand)>>8;//长度0
 284:.\Generated_Source\PSoC4/Bootloader.c ****     cBuf[7] =(cCommand)&0x00ff;//长度1	  cBuf[8]=(iLength)>>8;//长度0
 285:.\Generated_Source\PSoC4/Bootloader.c ****     cBuf[8] =(iLength)>>8;//长度0
 286:.\Generated_Source\PSoC4/Bootloader.c ****     cBuf[9] =(iLength)&0x00ff;//长度1
 287:.\Generated_Source\PSoC4/Bootloader.c ****     //cBuf[iLength+10]=0x44;
 288:.\Generated_Source\PSoC4/Bootloader.c ****     
 289:.\Generated_Source\PSoC4/Bootloader.c ****     if(iLength!=0)
 290:.\Generated_Source\PSoC4/Bootloader.c ****     {
 291:.\Generated_Source\PSoC4/Bootloader.c ****         memcpy(&cBuf[10],DataBuf,iLength);
 292:.\Generated_Source\PSoC4/Bootloader.c ****            // xxxxx=crc16(cBuf,10+iLength);
 293:.\Generated_Source\PSoC4/Bootloader.c ****         xxxxx=crc16(&cBuf[0],10+iLength);
 294:.\Generated_Source\PSoC4/Bootloader.c ****         cBuf[iLength+10] =xxxxx>>8;
 295:.\Generated_Source\PSoC4/Bootloader.c ****         cBuf[iLength+11] =xxxxx;
 296:.\Generated_Source\PSoC4/Bootloader.c ****         //cBuf[iLength+10]=0x88;
 297:.\Generated_Source\PSoC4/Bootloader.c ****     }
 298:.\Generated_Source\PSoC4/Bootloader.c ****     else
 299:.\Generated_Source\PSoC4/Bootloader.c ****     {
 300:.\Generated_Source\PSoC4/Bootloader.c ****         xxxxx=crc16(&cBuf[0],10);
 301:.\Generated_Source\PSoC4/Bootloader.c ****         cBuf[iLength+10] = xxxxx>>8;
 302:.\Generated_Source\PSoC4/Bootloader.c ****         cBuf[iLength+11] = xxxxx;
 303:.\Generated_Source\PSoC4/Bootloader.c ****         
 304:.\Generated_Source\PSoC4/Bootloader.c ****     }
 305:.\Generated_Source\PSoC4/Bootloader.c **** 		WifidatagramWorkFlag.flag_Uart_Work=1; 
 306:.\Generated_Source\PSoC4/Bootloader.c ****     CyGlobalIntDisable;                  //应答时间设置
 307:.\Generated_Source\PSoC4/Bootloader.c ****     UART_SendData(cBuf,iLength+12);   ///The Last six 0x00 is PADDING
 308:.\Generated_Source\PSoC4/Bootloader.c ****     CyGlobalIntEnable; 
 309:.\Generated_Source\PSoC4/Bootloader.c **** }
 310:.\Generated_Source\PSoC4/Bootloader.c **** 
 311:.\Generated_Source\PSoC4/Bootloader.c **** 
 312:.\Generated_Source\PSoC4/Bootloader.c **** 
 313:.\Generated_Source\PSoC4/Bootloader.c **** /*
 314:.\Generated_Source\PSoC4/Bootloader.c **** 	========================================================================
 315:.\Generated_Source\PSoC4/Bootloader.c **** * 函 数 名: LodaUARTData(   IN unsigned char  UartData)
 316:.\Generated_Source\PSoC4/Bootloader.c **** * 函数功能: 串口发送程序
 317:.\Generated_Source\PSoC4/Bootloader.c **** * 入口参数: UartData
 318:.\Generated_Source\PSoC4/Bootloader.c **** * 返    回: 
ARM GAS  C:\Users\ZHANGM~1\AppData\Local\Temp\ccse5bds.s 			page 7


 319:.\Generated_Source\PSoC4/Bootloader.c **** 	========================================================================
 320:.\Generated_Source\PSoC4/Bootloader.c **** */
 321:.\Generated_Source\PSoC4/Bootloader.c **** void LoadUARTData(uint8  UartData)
 322:.\Generated_Source\PSoC4/Bootloader.c **** {
 323:.\Generated_Source\PSoC4/Bootloader.c **** 	switch (gcWifiCommunState)
 324:.\Generated_Source\PSoC4/Bootloader.c **** 		{
 325:.\Generated_Source\PSoC4/Bootloader.c **** 			 case WIFI_WAIT_SYN_0:		                 // 1数据包头FA
 326:.\Generated_Source\PSoC4/Bootloader.c **** 			   		if(UartData==WIFI_SYN_0)
 327:.\Generated_Source\PSoC4/Bootloader.c ****   			   		gcWifiCommunState = WIFI_WAIT_SYN_1;
 328:.\Generated_Source\PSoC4/Bootloader.c ****   			  	    ATReceBuffer[0].gcATReceData[0]= UartData;
 329:.\Generated_Source\PSoC4/Bootloader.c **** 			  		break;
 330:.\Generated_Source\PSoC4/Bootloader.c **** 			 case WIFI_WAIT_SYN_1:		                // 2数据包头FB
 331:.\Generated_Source\PSoC4/Bootloader.c **** 			   		if(UartData==WIFI_SYN_1)
 332:.\Generated_Source\PSoC4/Bootloader.c ****   			   		gcWifiCommunState = WIFI_PROTOCOL_JUDGE;
 333:.\Generated_Source\PSoC4/Bootloader.c ****   			  	    ATReceBuffer[0].gcATReceData[1]= UartData;
 334:.\Generated_Source\PSoC4/Bootloader.c **** 			  		break;
 335:.\Generated_Source\PSoC4/Bootloader.c **** 			 case WIFI_PROTOCOL_JUDGE:                //3协议版本
 336:.\Generated_Source\PSoC4/Bootloader.c **** 			 			if(UartData==0x01)
 337:.\Generated_Source\PSoC4/Bootloader.c ****   			   		gcWifiCommunState = WIFI_TOTAL_FRAME_NUM;
 338:.\Generated_Source\PSoC4/Bootloader.c ****   			  	ATReceBuffer[0].gcATReceData[2]= UartData;
 339:.\Generated_Source\PSoC4/Bootloader.c **** 			  		break;
 340:.\Generated_Source\PSoC4/Bootloader.c **** 			 case WIFI_TOTAL_FRAME_NUM:               //4总帧数量
 341:.\Generated_Source\PSoC4/Bootloader.c **** 			 			gcWifiCommunState = WIFI_FRAME_NUM;
 342:.\Generated_Source\PSoC4/Bootloader.c **** 
 343:.\Generated_Source\PSoC4/Bootloader.c ****   			  	ATReceBuffer[0].gcATReceData[3]= UartData;
 344:.\Generated_Source\PSoC4/Bootloader.c **** 			  		break;		
 345:.\Generated_Source\PSoC4/Bootloader.c **** 			 case WIFI_FRAME_NUM:                    //5帧序号
 346:.\Generated_Source\PSoC4/Bootloader.c **** 			 			gcWifiCommunState = WIFI_WAIT_CTL;
 347:.\Generated_Source\PSoC4/Bootloader.c **** 
 348:.\Generated_Source\PSoC4/Bootloader.c ****   			  	ATReceBuffer[0].gcATReceData[4]= UartData;
 349:.\Generated_Source\PSoC4/Bootloader.c **** 			  		break;		
 350:.\Generated_Source\PSoC4/Bootloader.c **** 			 case WIFI_WAIT_CTL:	               // 6控制字
 351:.\Generated_Source\PSoC4/Bootloader.c **** 			    	gcWIFICTL = UartData;
 352:.\Generated_Source\PSoC4/Bootloader.c **** 						gcWifiCommunState = WIFI_COMMAND_1;
 353:.\Generated_Source\PSoC4/Bootloader.c ****   			  	ATReceBuffer[0].gcATReceData[5]= UartData;
 354:.\Generated_Source\PSoC4/Bootloader.c **** 			 			break;		 
 355:.\Generated_Source\PSoC4/Bootloader.c **** 			 case WIFI_COMMAND_1:	           // 7指令1
 356:.\Generated_Source\PSoC4/Bootloader.c **** 			    	giWIFICommand = UartData;
 357:.\Generated_Source\PSoC4/Bootloader.c **** 						gcWifiCommunState = WIFI_COMMAND_2;
 358:.\Generated_Source\PSoC4/Bootloader.c ****   			  	ATReceBuffer[0].gcATReceData[6]= UartData;
 359:.\Generated_Source\PSoC4/Bootloader.c **** 			 			break;
 360:.\Generated_Source\PSoC4/Bootloader.c **** 			 case WIFI_COMMAND_2:			  // 8指令2
 361:.\Generated_Source\PSoC4/Bootloader.c **** 			    	giWIFICommand = (giWIFICommand<<8)+UartData;
 362:.\Generated_Source\PSoC4/Bootloader.c ****       				  gcWifiCommunState = WIFI_LENGTH1;     
 363:.\Generated_Source\PSoC4/Bootloader.c ****   			  	ATReceBuffer[0].gcATReceData[7]= UartData;
 364:.\Generated_Source\PSoC4/Bootloader.c **** 			 			break;			 					  		
 365:.\Generated_Source\PSoC4/Bootloader.c **** 			 case WIFI_LENGTH1:	           // 9数据长度1
 366:.\Generated_Source\PSoC4/Bootloader.c **** 			    	giWIFIDATALength = UartData;
 367:.\Generated_Source\PSoC4/Bootloader.c **** 						gcWifiCommunState = WIFI_LENGTH2;
 368:.\Generated_Source\PSoC4/Bootloader.c ****   			  	ATReceBuffer[0].gcATReceData[8]= UartData;
 369:.\Generated_Source\PSoC4/Bootloader.c **** 			 			break;
 370:.\Generated_Source\PSoC4/Bootloader.c **** 			 case WIFI_LENGTH2:			  // 10数据长度2
 371:.\Generated_Source\PSoC4/Bootloader.c **** 			    	giWIFIDATALength = (giWIFIDATALength<<8)+UartData;
 372:.\Generated_Source\PSoC4/Bootloader.c ****     				if(giWIFIDATALength>0)   // 
 373:.\Generated_Source\PSoC4/Bootloader.c ****       				{
 374:.\Generated_Source\PSoC4/Bootloader.c ****       				  gcWifiCommunState = WIFI_RECEDATA;
 375:.\Generated_Source\PSoC4/Bootloader.c ****       				} 
ARM GAS  C:\Users\ZHANGM~1\AppData\Local\Temp\ccse5bds.s 			page 8


 376:.\Generated_Source\PSoC4/Bootloader.c ****     				else
 377:.\Generated_Source\PSoC4/Bootloader.c ****       				{
 378:.\Generated_Source\PSoC4/Bootloader.c ****       				   gcWifiCommunState = WIFI_CHCK00; 
 379:.\Generated_Source\PSoC4/Bootloader.c ****       				}
 380:.\Generated_Source\PSoC4/Bootloader.c ****   			  	ATReceBuffer[0].gcATReceData[9]= UartData;
 381:.\Generated_Source\PSoC4/Bootloader.c **** 			 			break;
 382:.\Generated_Source\PSoC4/Bootloader.c ****     	case WIFI_CHCK00:	  // 11校验 
 383:.\Generated_Source\PSoC4/Bootloader.c ****     				if (ATReceBuffer[0].gcATReceCount<=(WIFIBUFLEN-10-1)) 
 384:.\Generated_Source\PSoC4/Bootloader.c ****     					{
 385:.\Generated_Source\PSoC4/Bootloader.c ****   			    		ATReceBuffer[0].gcATReceData[10+ATReceBuffer[0].gcATReceCount]= UartData; 
 386:.\Generated_Source\PSoC4/Bootloader.c **** 	      				gcWifiCommunState = WIFI_CHCK01;
 387:.\Generated_Source\PSoC4/Bootloader.c ****     					}  
 388:.\Generated_Source\PSoC4/Bootloader.c ****                         
 389:.\Generated_Source\PSoC4/Bootloader.c **** 			 			break;
 390:.\Generated_Source\PSoC4/Bootloader.c ****         case WIFI_CHCK01:	  // 11校验 
 391:.\Generated_Source\PSoC4/Bootloader.c ****     				if (ATReceBuffer[0].gcATReceCount<=(WIFIBUFLEN-10-1)) 
 392:.\Generated_Source\PSoC4/Bootloader.c ****     					{
 393:.\Generated_Source\PSoC4/Bootloader.c ****   			    		ATReceBuffer[0].gcATReceData[11+ATReceBuffer[0].gcATReceCount]= UartData; 
 394:.\Generated_Source\PSoC4/Bootloader.c ****   			    		ATReceBuffer[0].gcATReceCount = 0;
 395:.\Generated_Source\PSoC4/Bootloader.c **** 	      				gcWifiCommunState = WIFI_WAIT_SYN_0;
 396:.\Generated_Source\PSoC4/Bootloader.c **** 	      				WifiWorkFlag.gcReceComm1OK = 1;  // 数据成功接收完毕 
 397:.\Generated_Source\PSoC4/Bootloader.c ****     					}         						
 398:.\Generated_Source\PSoC4/Bootloader.c **** 			 			break;                
 399:.\Generated_Source\PSoC4/Bootloader.c **** 		case WIFI_RECEDATA:  // 12数据内容
 400:.\Generated_Source\PSoC4/Bootloader.c ****     				if (ATReceBuffer[0].gcATReceCount<(WIFIBUFLEN-10-1)) 
 401:.\Generated_Source\PSoC4/Bootloader.c ****     					{
 402:.\Generated_Source\PSoC4/Bootloader.c ****   			    		ATReceBuffer[0].gcATReceData[10+ATReceBuffer[0].gcATReceCount]= UartData;
 403:.\Generated_Source\PSoC4/Bootloader.c ****   			    		ATReceBuffer[0].gcATReceCount++;    						
 404:.\Generated_Source\PSoC4/Bootloader.c ****     					}
 405:.\Generated_Source\PSoC4/Bootloader.c **** 
 406:.\Generated_Source\PSoC4/Bootloader.c ****     				if(ATReceBuffer[0].gcATReceCount == giWIFIDATALength)
 407:.\Generated_Source\PSoC4/Bootloader.c ****     				{
 408:.\Generated_Source\PSoC4/Bootloader.c ****     				  	gcWifiCommunState = WIFI_CHCK00;
 409:.\Generated_Source\PSoC4/Bootloader.c ****     				}
 410:.\Generated_Source\PSoC4/Bootloader.c ****     			 	break;
 411:.\Generated_Source\PSoC4/Bootloader.c **** 		default:
 412:.\Generated_Source\PSoC4/Bootloader.c **** 			 	gcWifiCommunState = WIFI_WAIT_SYN_0;	
 413:.\Generated_Source\PSoC4/Bootloader.c **** 		}
 414:.\Generated_Source\PSoC4/Bootloader.c **** }
 415:.\Generated_Source\PSoC4/Bootloader.c **** /*******************************************************************************
 416:.\Generated_Source\PSoC4/Bootloader.c **** *                       Buzzer
 417:.\Generated_Source\PSoC4/Bootloader.c **** ********************************************************************************/
 418:.\Generated_Source\PSoC4/Bootloader.c **** void Buzzer_Fun(void)
 419:.\Generated_Source\PSoC4/Bootloader.c **** {
 420:.\Generated_Source\PSoC4/Bootloader.c ****     
 421:.\Generated_Source\PSoC4/Bootloader.c **** 	if(BUZfkg==1)//按键提示音
 422:.\Generated_Source\PSoC4/Bootloader.c **** 		{       
 423:.\Generated_Source\PSoC4/Bootloader.c **** 		    if(BuzzerDly>1000000)
 424:.\Generated_Source\PSoC4/Bootloader.c ****             {
 425:.\Generated_Source\PSoC4/Bootloader.c **** 		        PWM_Start();
 426:.\Generated_Source\PSoC4/Bootloader.c **** 
 427:.\Generated_Source\PSoC4/Bootloader.c ****             }
 428:.\Generated_Source\PSoC4/Bootloader.c **** 		    if(BuzzerDly>1005000)
 429:.\Generated_Source\PSoC4/Bootloader.c **** 		    {
 430:.\Generated_Source\PSoC4/Bootloader.c ****                 BuzzerDly=0;
 431:.\Generated_Source\PSoC4/Bootloader.c **** 		        PWM_Stop();
 432:.\Generated_Source\PSoC4/Bootloader.c **** 		        BuzzerDly=0; 
ARM GAS  C:\Users\ZHANGM~1\AppData\Local\Temp\ccse5bds.s 			page 9


 433:.\Generated_Source\PSoC4/Bootloader.c **** 		       // BUZfkg=0;     
 434:.\Generated_Source\PSoC4/Bootloader.c **** 		    }
 435:.\Generated_Source\PSoC4/Bootloader.c ****             BuzzerDly++;
 436:.\Generated_Source\PSoC4/Bootloader.c **** 		}
 437:.\Generated_Source\PSoC4/Bootloader.c **** 
 438:.\Generated_Source\PSoC4/Bootloader.c ****     
 439:.\Generated_Source\PSoC4/Bootloader.c **** }
 440:.\Generated_Source\PSoC4/Bootloader.c **** 
 441:.\Generated_Source\PSoC4/Bootloader.c **** 
 442:.\Generated_Source\PSoC4/Bootloader.c **** 
 443:.\Generated_Source\PSoC4/Bootloader.c **** 
 444:.\Generated_Source\PSoC4/Bootloader.c **** /*******************************************************************************
 445:.\Generated_Source\PSoC4/Bootloader.c **** * Function Name: Bootloader_Calc8BitSum
 446:.\Generated_Source\PSoC4/Bootloader.c **** ********************************************************************************
 447:.\Generated_Source\PSoC4/Bootloader.c **** *
 448:.\Generated_Source\PSoC4/Bootloader.c **** * Summary:
 449:.\Generated_Source\PSoC4/Bootloader.c **** *  This computes the 8 bit sum for the provided number of bytes contained in
 450:.\Generated_Source\PSoC4/Bootloader.c **** *  FLASH (if baseAddr equals CY_FLASH_BASE) or EEPROM (if baseAddr equals
 451:.\Generated_Source\PSoC4/Bootloader.c **** *  CY_EEPROM_BASE).
 452:.\Generated_Source\PSoC4/Bootloader.c **** *
 453:.\Generated_Source\PSoC4/Bootloader.c **** * Parameters:
 454:.\Generated_Source\PSoC4/Bootloader.c **** * baseAddr:
 455:.\Generated_Source\PSoC4/Bootloader.c **** *   CY_FLASH_BASE
 456:.\Generated_Source\PSoC4/Bootloader.c **** *   CY_EEPROM_BASE - applicable only for PSoC 3 / PSoC 5LP devices.
 457:.\Generated_Source\PSoC4/Bootloader.c **** *
 458:.\Generated_Source\PSoC4/Bootloader.c **** *  start:
 459:.\Generated_Source\PSoC4/Bootloader.c **** *     The starting address to start summing data for
 460:.\Generated_Source\PSoC4/Bootloader.c **** *  size:
 461:.\Generated_Source\PSoC4/Bootloader.c **** *     The number of bytes to read and compute the sum for
 462:.\Generated_Source\PSoC4/Bootloader.c **** *
 463:.\Generated_Source\PSoC4/Bootloader.c **** * Returns:
 464:.\Generated_Source\PSoC4/Bootloader.c **** *   8 bit sum for the provided data
 465:.\Generated_Source\PSoC4/Bootloader.c **** *
 466:.\Generated_Source\PSoC4/Bootloader.c **** *******************************************************************************/
 467:.\Generated_Source\PSoC4/Bootloader.c **** uint8 Bootloader_Calc8BitSum(uint32 baseAddr, uint32 start, uint32 size) \
 468:.\Generated_Source\PSoC4/Bootloader.c ****                 CYSMALL 
 469:.\Generated_Source\PSoC4/Bootloader.c **** {
 470:.\Generated_Source\PSoC4/Bootloader.c ****     uint8 CYDATA sum = 0u;
 471:.\Generated_Source\PSoC4/Bootloader.c ****     CYASSERT(baseAddr == CY_FLASH_BASE);
 472:.\Generated_Source\PSoC4/Bootloader.c **** 
 473:.\Generated_Source\PSoC4/Bootloader.c **** 
 474:.\Generated_Source\PSoC4/Bootloader.c ****     while (size > 0u)
 475:.\Generated_Source\PSoC4/Bootloader.c ****     {
 476:.\Generated_Source\PSoC4/Bootloader.c ****         size--;
 477:.\Generated_Source\PSoC4/Bootloader.c ****         sum += (*((uint8  *)(baseAddr + start + size)));
 478:.\Generated_Source\PSoC4/Bootloader.c ****     }
 479:.\Generated_Source\PSoC4/Bootloader.c **** 
 480:.\Generated_Source\PSoC4/Bootloader.c ****     return(sum);
 481:.\Generated_Source\PSoC4/Bootloader.c **** }
 482:.\Generated_Source\PSoC4/Bootloader.c **** 
 483:.\Generated_Source\PSoC4/Bootloader.c **** 
 484:.\Generated_Source\PSoC4/Bootloader.c **** /*******************************************************************************
 485:.\Generated_Source\PSoC4/Bootloader.c **** * Function Name: Bootloader_Start
 486:.\Generated_Source\PSoC4/Bootloader.c **** ********************************************************************************
 487:.\Generated_Source\PSoC4/Bootloader.c **** * Summary:
 488:.\Generated_Source\PSoC4/Bootloader.c **** *  This function is called in order to execute the following algorithm:
 489:.\Generated_Source\PSoC4/Bootloader.c **** *
ARM GAS  C:\Users\ZHANGM~1\AppData\Local\Temp\ccse5bds.s 			page 10


 490:.\Generated_Source\PSoC4/Bootloader.c **** *  - Identify the active bootloadable application (applicable only to
 491:.\Generated_Source\PSoC4/Bootloader.c **** *    the Multi-application bootloader)
 492:.\Generated_Source\PSoC4/Bootloader.c **** *
 493:.\Generated_Source\PSoC4/Bootloader.c **** *  - Validate the bootloader application (design-time configurable, Bootloader
 494:.\Generated_Source\PSoC4/Bootloader.c **** *    application validation option of the component customizer)
 495:.\Generated_Source\PSoC4/Bootloader.c **** *
 496:.\Generated_Source\PSoC4/Bootloader.c **** *  - Validate the active bootloadable application. If active bootloadable
 497:.\Generated_Source\PSoC4/Bootloader.c **** *    application is not valid, and the other bootloadable application (inactive)
 498:.\Generated_Source\PSoC4/Bootloader.c **** *    is valid, the last one is started.
 499:.\Generated_Source\PSoC4/Bootloader.c **** *
 500:.\Generated_Source\PSoC4/Bootloader.c **** *  - Run a communication subroutine (design-time configurable, Wait for command
 501:.\Generated_Source\PSoC4/Bootloader.c **** *    option of the component customizer)
 502:.\Generated_Source\PSoC4/Bootloader.c **** *
 503:.\Generated_Source\PSoC4/Bootloader.c **** *  - Schedule the bootloadable and reset the device
 504:.\Generated_Source\PSoC4/Bootloader.c **** *
 505:.\Generated_Source\PSoC4/Bootloader.c **** * Parameters:
 506:.\Generated_Source\PSoC4/Bootloader.c **** *  None
 507:.\Generated_Source\PSoC4/Bootloader.c **** *
 508:.\Generated_Source\PSoC4/Bootloader.c **** * Return:
 509:.\Generated_Source\PSoC4/Bootloader.c **** *  This method will never return. It will either load a new application and
 510:.\Generated_Source\PSoC4/Bootloader.c **** *  reset the device or jump directly to the existing application. The CPU is
 511:.\Generated_Source\PSoC4/Bootloader.c **** *  halted, if validation failed when "Bootloader application validation" option
 512:.\Generated_Source\PSoC4/Bootloader.c **** *  is enabled.
 513:.\Generated_Source\PSoC4/Bootloader.c **** *  PSoC 3/PSoC 5: The CPU is halted if Flash initialization fails.
 514:.\Generated_Source\PSoC4/Bootloader.c **** *
 515:.\Generated_Source\PSoC4/Bootloader.c **** * Side Effects:
 516:.\Generated_Source\PSoC4/Bootloader.c **** *  If Bootloader application validation option is enabled and this method
 517:.\Generated_Source\PSoC4/Bootloader.c **** *  determines that the bootloader application itself is corrupt, this method
 518:.\Generated_Source\PSoC4/Bootloader.c **** *  will not return, instead it will simply hang the application.
 519:.\Generated_Source\PSoC4/Bootloader.c **** *
 520:.\Generated_Source\PSoC4/Bootloader.c **** *******************************************************************************/
 521:.\Generated_Source\PSoC4/Bootloader.c **** void Bootloader_Start(void) CYSMALL 
 522:.\Generated_Source\PSoC4/Bootloader.c **** {
 523:.\Generated_Source\PSoC4/Bootloader.c ****     cystatus validApp  = CYRET_BAD_DATA;
 524:.\Generated_Source\PSoC4/Bootloader.c ****     if (CYRET_SUCCESS == Bootloader_ValidateBootloadable(Bootloader_MD_BTLDB_ACTIVE_0))
 525:.\Generated_Source\PSoC4/Bootloader.c ****     {
 526:.\Generated_Source\PSoC4/Bootloader.c ****         validApp = CYRET_SUCCESS;
 527:.\Generated_Source\PSoC4/Bootloader.c ****     }
 528:.\Generated_Source\PSoC4/Bootloader.c **** 
 529:.\Generated_Source\PSoC4/Bootloader.c ****     /***********************************************************************
 530:.\Generated_Source\PSoC4/Bootloader.c ****     * If the active bootloadable application is invalid or a bootloader
 531:.\Generated_Source\PSoC4/Bootloader.c ****     * application is scheduled - do the following:
 532:.\Generated_Source\PSoC4/Bootloader.c ****     *  - schedule the bootloader application to be run after software reset
 533:.\Generated_Source\PSoC4/Bootloader.c ****     *  - Go to the communication subroutine. The HostLink() will wait for
 534:.\Generated_Source\PSoC4/Bootloader.c ****     *    the commands forever.
 535:.\Generated_Source\PSoC4/Bootloader.c ****     ***********************************************************************/
 536:.\Generated_Source\PSoC4/Bootloader.c ****     if ((Bootloader_GET_RUN_TYPE == Bootloader_START_BTLDR) ||
 537:.\Generated_Source\PSoC4/Bootloader.c ****         (CYRET_SUCCESS != validApp))
 538:.\Generated_Source\PSoC4/Bootloader.c ****         {
 539:.\Generated_Source\PSoC4/Bootloader.c ****                 //BUZfkg=1;
 540:.\Generated_Source\PSoC4/Bootloader.c ****             Bootloader_SET_RUN_TYPE(0u);
 541:.\Generated_Source\PSoC4/Bootloader.c **** 
 542:.\Generated_Source\PSoC4/Bootloader.c ****             Bootloader_HostLink();
 543:.\Generated_Source\PSoC4/Bootloader.c ****         }
 544:.\Generated_Source\PSoC4/Bootloader.c ****     /* Schedule bootloadable application and perform software reset */
 545:.\Generated_Source\PSoC4/Bootloader.c **** 
 546:.\Generated_Source\PSoC4/Bootloader.c ****     Bootloader_LaunchApplication();
ARM GAS  C:\Users\ZHANGM~1\AppData\Local\Temp\ccse5bds.s 			page 11


 547:.\Generated_Source\PSoC4/Bootloader.c **** }
 548:.\Generated_Source\PSoC4/Bootloader.c **** 
 549:.\Generated_Source\PSoC4/Bootloader.c **** 
 550:.\Generated_Source\PSoC4/Bootloader.c **** /*******************************************************************************
 551:.\Generated_Source\PSoC4/Bootloader.c **** * Function Name: Bootloader_LaunchApplication
 552:.\Generated_Source\PSoC4/Bootloader.c **** ********************************************************************************
 553:.\Generated_Source\PSoC4/Bootloader.c **** *
 554:.\Generated_Source\PSoC4/Bootloader.c **** * Summary:
 555:.\Generated_Source\PSoC4/Bootloader.c **** *  Schedules bootloadable application and resets device
 556:.\Generated_Source\PSoC4/Bootloader.c **** *
 557:.\Generated_Source\PSoC4/Bootloader.c **** * Parameters:
 558:.\Generated_Source\PSoC4/Bootloader.c **** *  None
 559:.\Generated_Source\PSoC4/Bootloader.c **** *
 560:.\Generated_Source\PSoC4/Bootloader.c **** * Returns:
 561:.\Generated_Source\PSoC4/Bootloader.c **** *  This method will never return.
 562:.\Generated_Source\PSoC4/Bootloader.c **** *
 563:.\Generated_Source\PSoC4/Bootloader.c **** *******************************************************************************/
 564:.\Generated_Source\PSoC4/Bootloader.c **** static void Bootloader_LaunchApplication(void) CYSMALL 
 565:.\Generated_Source\PSoC4/Bootloader.c **** {
 566:.\Generated_Source\PSoC4/Bootloader.c ****     /* Schedule Bootloadable to start after reset */
 567:.\Generated_Source\PSoC4/Bootloader.c ****     Bootloader_SET_RUN_TYPE(Bootloader_START_APP);
 568:.\Generated_Source\PSoC4/Bootloader.c **** 
 569:.\Generated_Source\PSoC4/Bootloader.c ****     CySoftwareReset();
 570:.\Generated_Source\PSoC4/Bootloader.c **** }
 571:.\Generated_Source\PSoC4/Bootloader.c **** 
 572:.\Generated_Source\PSoC4/Bootloader.c **** 
 573:.\Generated_Source\PSoC4/Bootloader.c **** /*******************************************************************************
 574:.\Generated_Source\PSoC4/Bootloader.c **** * Function Name: Bootloader_Exit
 575:.\Generated_Source\PSoC4/Bootloader.c **** ********************************************************************************
 576:.\Generated_Source\PSoC4/Bootloader.c **** *
 577:.\Generated_Source\PSoC4/Bootloader.c **** * Summary:
 578:.\Generated_Source\PSoC4/Bootloader.c **** *  Schedules the specified application and performs software reset to launch
 579:.\Generated_Source\PSoC4/Bootloader.c **** *  a specified application.
 580:.\Generated_Source\PSoC4/Bootloader.c **** *
 581:.\Generated_Source\PSoC4/Bootloader.c **** *  If the specified application is not valid, the Bootloader (the result of the
 582:.\Generated_Source\PSoC4/Bootloader.c **** *  ValidateBootloadable() function execution returns other than CYRET_SUCCESS,
 583:.\Generated_Source\PSoC4/Bootloader.c **** *  the bootloader application is launched.
 584:.\Generated_Source\PSoC4/Bootloader.c **** *
 585:.\Generated_Source\PSoC4/Bootloader.c **** * Parameters:
 586:.\Generated_Source\PSoC4/Bootloader.c **** *  appId: application to be started:
 587:.\Generated_Source\PSoC4/Bootloader.c **** *  Bootloader_EXIT_TO_BTLDR   - Bootloader application will be started on
 588:.\Generated_Source\PSoC4/Bootloader.c **** *                                     software reset.
 589:.\Generated_Source\PSoC4/Bootloader.c **** *  Bootloader_EXIT_TO_BTLDB,
 590:.\Generated_Source\PSoC4/Bootloader.c **** *  Bootloader_EXIT_TO_BTLDB_1 - Bootloadable application # 1 will be
 591:.\Generated_Source\PSoC4/Bootloader.c **** *                                     started on software reset.
 592:.\Generated_Source\PSoC4/Bootloader.c **** *  Bootloader_EXIT_TO_BTLDB_2 - Bootloadable application # 2 will be
 593:.\Generated_Source\PSoC4/Bootloader.c **** *                                     started on software reset. Available only
 594:.\Generated_Source\PSoC4/Bootloader.c **** *                                     if Multi-Application option is enabled in
 595:.\Generated_Source\PSoC4/Bootloader.c **** *                                     the component customizer.
 596:.\Generated_Source\PSoC4/Bootloader.c **** * Returns:
 597:.\Generated_Source\PSoC4/Bootloader.c **** *  This function never returns.
 598:.\Generated_Source\PSoC4/Bootloader.c **** *
 599:.\Generated_Source\PSoC4/Bootloader.c **** *******************************************************************************/
 600:.\Generated_Source\PSoC4/Bootloader.c **** void Bootloader_Exit(uint8 appId) CYSMALL 
 601:.\Generated_Source\PSoC4/Bootloader.c **** {
 602:.\Generated_Source\PSoC4/Bootloader.c ****     if(Bootloader_EXIT_TO_BTLDR == appId)
 603:.\Generated_Source\PSoC4/Bootloader.c ****     {
ARM GAS  C:\Users\ZHANGM~1\AppData\Local\Temp\ccse5bds.s 			page 12


 604:.\Generated_Source\PSoC4/Bootloader.c ****         Bootloader_SET_RUN_TYPE(0x0u);
 605:.\Generated_Source\PSoC4/Bootloader.c ****     }
 606:.\Generated_Source\PSoC4/Bootloader.c ****     else
 607:.\Generated_Source\PSoC4/Bootloader.c ****     {
 608:.\Generated_Source\PSoC4/Bootloader.c ****         if(CYRET_SUCCESS == Bootloader_ValidateBootloadable(appId))
 609:.\Generated_Source\PSoC4/Bootloader.c ****         {
 610:.\Generated_Source\PSoC4/Bootloader.c ****             /* Set active application in metadata */
 611:.\Generated_Source\PSoC4/Bootloader.c ****             uint8 CYDATA idx;
 612:.\Generated_Source\PSoC4/Bootloader.c ****             for(idx = 0u; idx < Bootloader_MAX_NUM_OF_BTLDB; idx++)
 613:.\Generated_Source\PSoC4/Bootloader.c ****             {
 614:.\Generated_Source\PSoC4/Bootloader.c ****                 Bootloader_SetFlashByte((uint32) Bootloader_MD_BTLDB_ACTIVE_OFFSET(idx),
 615:.\Generated_Source\PSoC4/Bootloader.c ****                                               (uint8 )(idx == appId));
 616:.\Generated_Source\PSoC4/Bootloader.c ****             }
 617:.\Generated_Source\PSoC4/Bootloader.c **** 
 618:.\Generated_Source\PSoC4/Bootloader.c **** 
 619:.\Generated_Source\PSoC4/Bootloader.c ****             Bootloader_SET_RUN_TYPE(Bootloader_SCHEDULE_BTLDB);
 620:.\Generated_Source\PSoC4/Bootloader.c ****         }
 621:.\Generated_Source\PSoC4/Bootloader.c ****         else
 622:.\Generated_Source\PSoC4/Bootloader.c ****         {
 623:.\Generated_Source\PSoC4/Bootloader.c ****             Bootloader_SET_RUN_TYPE(0u);
 624:.\Generated_Source\PSoC4/Bootloader.c ****         }
 625:.\Generated_Source\PSoC4/Bootloader.c ****     }
 626:.\Generated_Source\PSoC4/Bootloader.c **** 
 627:.\Generated_Source\PSoC4/Bootloader.c ****     CySoftwareReset();
 628:.\Generated_Source\PSoC4/Bootloader.c **** }
 629:.\Generated_Source\PSoC4/Bootloader.c **** 
 630:.\Generated_Source\PSoC4/Bootloader.c **** 
 631:.\Generated_Source\PSoC4/Bootloader.c **** /*******************************************************************************
 632:.\Generated_Source\PSoC4/Bootloader.c **** * Function Name: CyBtldr_CheckLaunch
 633:.\Generated_Source\PSoC4/Bootloader.c **** ********************************************************************************
 634:.\Generated_Source\PSoC4/Bootloader.c **** *
 635:.\Generated_Source\PSoC4/Bootloader.c **** * Summary:
 636:.\Generated_Source\PSoC4/Bootloader.c **** *  This routine checks if the bootloader or the bootloadable application has to
 637:.\Generated_Source\PSoC4/Bootloader.c **** *  be run.  If the application has to be run, it will start executing.
 638:.\Generated_Source\PSoC4/Bootloader.c **** *  If the bootloader is to be run, it will return, so the bootloader can
 639:.\Generated_Source\PSoC4/Bootloader.c **** *  continue starting up.
 640:.\Generated_Source\PSoC4/Bootloader.c **** *
 641:.\Generated_Source\PSoC4/Bootloader.c **** * Parameters:
 642:.\Generated_Source\PSoC4/Bootloader.c **** *  None
 643:.\Generated_Source\PSoC4/Bootloader.c **** *
 644:.\Generated_Source\PSoC4/Bootloader.c **** * Returns:
 645:.\Generated_Source\PSoC4/Bootloader.c **** *  It will not return if it determines that the bootloadable application should
 646:.\Generated_Source\PSoC4/Bootloader.c **** *  be run.
 647:.\Generated_Source\PSoC4/Bootloader.c **** *
 648:.\Generated_Source\PSoC4/Bootloader.c **** *******************************************************************************/
 649:.\Generated_Source\PSoC4/Bootloader.c **** void CyBtldr_CheckLaunch(void) CYSMALL 
 650:.\Generated_Source\PSoC4/Bootloader.c **** {
 651:.\Generated_Source\PSoC4/Bootloader.c **** 
 652:.\Generated_Source\PSoC4/Bootloader.c **** #if(CY_PSOC4)
 653:.\Generated_Source\PSoC4/Bootloader.c **** 
 654:.\Generated_Source\PSoC4/Bootloader.c ****     /*******************************************************************************
 655:.\Generated_Source\PSoC4/Bootloader.c ****     * Set cyBtldrRunType to zero in case of non-software reset occurred. This means
 656:.\Generated_Source\PSoC4/Bootloader.c ****     * that bootloader application is scheduled - that is initial clean state. The
 657:.\Generated_Source\PSoC4/Bootloader.c ****     * value of cyBtldrRunType is valid only in case of software reset.
 658:.\Generated_Source\PSoC4/Bootloader.c ****     *******************************************************************************/
 659:.\Generated_Source\PSoC4/Bootloader.c ****     if (0u == (Bootloader_RES_CAUSE_REG & Bootloader_RES_CAUSE_RESET_SOFT))
 660:.\Generated_Source\PSoC4/Bootloader.c ****     {
ARM GAS  C:\Users\ZHANGM~1\AppData\Local\Temp\ccse5bds.s 			page 13


 661:.\Generated_Source\PSoC4/Bootloader.c ****         cyBtldrRunType = 0u;
 662:.\Generated_Source\PSoC4/Bootloader.c ****     }
 663:.\Generated_Source\PSoC4/Bootloader.c **** 
 664:.\Generated_Source\PSoC4/Bootloader.c **** #endif /* (CY_PSOC4) */
 665:.\Generated_Source\PSoC4/Bootloader.c **** 
 666:.\Generated_Source\PSoC4/Bootloader.c **** 
 667:.\Generated_Source\PSoC4/Bootloader.c ****     if (Bootloader_GET_RUN_TYPE == Bootloader_START_APP)
 668:.\Generated_Source\PSoC4/Bootloader.c ****     {
 669:.\Generated_Source\PSoC4/Bootloader.c ****         Bootloader_SET_RUN_TYPE(0u);
 670:.\Generated_Source\PSoC4/Bootloader.c **** 
 671:.\Generated_Source\PSoC4/Bootloader.c ****         /*******************************************************************************
 672:.\Generated_Source\PSoC4/Bootloader.c ****         * Indicates that we have told ourselves to jump to the application since we have
 673:.\Generated_Source\PSoC4/Bootloader.c ****         * already told ourselves to jump, we do not do any expensive verification of the
 674:.\Generated_Source\PSoC4/Bootloader.c ****         * application. We just check to make sure that the value at CY_APP_ADDR_ADDRESS
 675:.\Generated_Source\PSoC4/Bootloader.c ****         * is something other than 0.
 676:.\Generated_Source\PSoC4/Bootloader.c ****         *******************************************************************************/
 677:.\Generated_Source\PSoC4/Bootloader.c ****         if(0u != Bootloader_GetMetadata(Bootloader_GET_BTLDB_ADDR, Bootloader_activeApp))
 678:.\Generated_Source\PSoC4/Bootloader.c ****         {
 679:.\Generated_Source\PSoC4/Bootloader.c ****             /* Never return from this method */
 680:.\Generated_Source\PSoC4/Bootloader.c ****             Bootloader_LaunchBootloadable(Bootloader_GetMetadata(Bootloader_GET_BTLDB_ADDR,
 681:.\Generated_Source\PSoC4/Bootloader.c ****                                                                              Bootloader_activeApp))
 682:.\Generated_Source\PSoC4/Bootloader.c ****         }
 683:.\Generated_Source\PSoC4/Bootloader.c ****     }
 684:.\Generated_Source\PSoC4/Bootloader.c **** }
 685:.\Generated_Source\PSoC4/Bootloader.c **** 
 686:.\Generated_Source\PSoC4/Bootloader.c **** 
 687:.\Generated_Source\PSoC4/Bootloader.c **** /* Moves argument appAddr (RO) into PC, moving execution to appAddr */
 688:.\Generated_Source\PSoC4/Bootloader.c **** #if defined (__ARMCC_VERSION)
 689:.\Generated_Source\PSoC4/Bootloader.c **** 
 690:.\Generated_Source\PSoC4/Bootloader.c ****     __asm static void Bootloader_LaunchBootloadable(uint32 appAddr)
 691:.\Generated_Source\PSoC4/Bootloader.c ****     {
 692:.\Generated_Source\PSoC4/Bootloader.c ****         BX  R0
 693:.\Generated_Source\PSoC4/Bootloader.c ****         ALIGN
 694:.\Generated_Source\PSoC4/Bootloader.c ****     }
 695:.\Generated_Source\PSoC4/Bootloader.c **** 
 696:.\Generated_Source\PSoC4/Bootloader.c **** #elif defined(__GNUC__)
 697:.\Generated_Source\PSoC4/Bootloader.c **** 
 698:.\Generated_Source\PSoC4/Bootloader.c ****     __attribute__((noinline)) /* Workaround for GCC toolchain bug with inlining */
 699:.\Generated_Source\PSoC4/Bootloader.c ****     __attribute__((naked))
 700:.\Generated_Source\PSoC4/Bootloader.c ****     static void Bootloader_LaunchBootloadable(uint32 appAddr)
 701:.\Generated_Source\PSoC4/Bootloader.c ****     {
  25              		.loc 1 701 0
  26              		.cfi_startproc
  27              	.LVL0:
 702:.\Generated_Source\PSoC4/Bootloader.c ****         __asm volatile("    BX  R0\n");
  28              		.loc 1 702 0
  29              	@ 702 ".\Generated_Source\PSoC4\Bootloader.c" 1
  30 0000 0047     		    BX  R0
  31              	
  32              	@ 0 "" 2
 703:.\Generated_Source\PSoC4/Bootloader.c ****     }
  33              		.loc 1 703 0
  34              		.code	16
  35              		.cfi_endproc
  36              	.LFE46:
  37              		.size	Bootloader_LaunchBootloadable, .-Bootloader_LaunchBootloadable
  38              		.section	.text.crc16,"ax",%progbits
ARM GAS  C:\Users\ZHANGM~1\AppData\Local\Temp\ccse5bds.s 			page 14


  39              		.align	1
  40              		.global	crc16
  41              		.code	16
  42              		.thumb_func
  43              		.type	crc16, %function
  44              	crc16:
  45              	.LFB33:
 176:.\Generated_Source\PSoC4/Bootloader.c **** { 
  46              		.loc 1 176 0
  47              		.cfi_startproc
  48              	.LVL1:
  49 0000 10B5     		push	{r4, lr}
  50              		.cfi_def_cfa_offset 8
  51              		.cfi_offset 4, -8
  52              		.cfi_offset 14, -4
 178:.\Generated_Source\PSoC4/Bootloader.c **** 	uint8 uchCRCLo = 0xFF ; /* 低CRC 字节初始化 */ 
  53              		.loc 1 178 0
  54 0002 FF23     		mov	r3, #255
 177:.\Generated_Source\PSoC4/Bootloader.c **** 	uint8 uchCRCHi = 0xFF ; /* 高CRC字节初始化 */ 
  55              		.loc 1 177 0
  56 0004 1A1C     		mov	r2, r3
  57              	.LVL2:
  58              	.L3:
 180:.\Generated_Source\PSoC4/Bootloader.c **** 	while (usDataLen--) /* 传输消息缓冲区 */ 
  59              		.loc 1 180 0 discriminator 1
  60 0006 0139     		sub	r1, r1, #1
  61              	.LVL3:
  62 0008 074C     		ldr	r4, .L7
  63 000a 89B2     		uxth	r1, r1
  64              	.LVL4:
  65 000c A142     		cmp	r1, r4
  66 000e 08D0     		beq	.L6
  67              	.LVL5:
 182:.\Generated_Source\PSoC4/Bootloader.c **** 		uIndex = uchCRCHi ^ *puchMsg++ ; /* 计算CRC */ 
  68              		.loc 1 182 0
  69 0010 0478     		ldrb	r4, [r0]
  70 0012 0130     		add	r0, r0, #1
  71              	.LVL6:
  72 0014 5440     		eor	r4, r2
  73              	.LVL7:
 183:.\Generated_Source\PSoC4/Bootloader.c **** 		uchCRCHi = uchCRCLo ^ auchCRCHi[uIndex] ; 
  74              		.loc 1 183 0
  75 0016 054A     		ldr	r2, .L7+4
  76              	.LVL8:
  77 0018 125D     		ldrb	r2, [r2, r4]
  78 001a 5A40     		eor	r2, r3
  79              	.LVL9:
 184:.\Generated_Source\PSoC4/Bootloader.c **** 		uchCRCLo = auchCRCLo[uIndex] ; 
  80              		.loc 1 184 0
  81 001c 044B     		ldr	r3, .L7+8
  82              	.LVL10:
  83 001e 1B5D     		ldrb	r3, [r3, r4]
  84              	.LVL11:
  85 0020 F1E7     		b	.L3
  86              	.LVL12:
  87              	.L6:
 186:.\Generated_Source\PSoC4/Bootloader.c **** 	return (uchCRCHi << 8 | uchCRCLo);	
ARM GAS  C:\Users\ZHANGM~1\AppData\Local\Temp\ccse5bds.s 			page 15


  88              		.loc 1 186 0
  89 0022 1002     		lsl	r0, r2, #8
  90              	.LVL13:
  91 0024 1843     		orr	r0, r3
 187:.\Generated_Source\PSoC4/Bootloader.c **** }
  92              		.loc 1 187 0
  93              		@ sp needed
  94 0026 10BD     		pop	{r4, pc}
  95              	.L8:
  96              		.align	2
  97              	.L7:
  98 0028 FFFF0000 		.word	65535
  99 002c 00000000 		.word	.LANCHOR0
 100 0030 00010000 		.word	.LANCHOR1
 101              		.cfi_endproc
 102              	.LFE33:
 103              		.size	crc16, .-crc16
 104              		.section	.text.Comm_Uart_0_PrintHex8,"ax",%progbits
 105              		.align	1
 106              		.global	Comm_Uart_0_PrintHex8
 107              		.code	16
 108              		.thumb_func
 109              		.type	Comm_Uart_0_PrintHex8, %function
 110              	Comm_Uart_0_PrintHex8:
 111              	.LFB34:
 195:.\Generated_Source\PSoC4/Bootloader.c **** {
 112              		.loc 1 195 0
 113              		.cfi_startproc
 114              	.LVL14:
 115              	.L11:
 196:.\Generated_Source\PSoC4/Bootloader.c ****     while(UART_0_FIFO_SIZE == UART_0_GET_TX_FIFO_ENTRIES);
 116              		.loc 1 196 0 discriminator 1
 117 0000 044B     		ldr	r3, .L12
 118 0002 1A68     		ldr	r2, [r3]
 119 0004 0F23     		mov	r3, #15
 120 0006 1340     		and	r3, r2
 121 0008 082B     		cmp	r3, #8
 122 000a F9D0     		beq	.L11
 197:.\Generated_Source\PSoC4/Bootloader.c ****     UART_0_TX_FIFO_WR_REG = (uint8)(value);
 123              		.loc 1 197 0
 124 000c 024B     		ldr	r3, .L12+4
 198:.\Generated_Source\PSoC4/Bootloader.c **** }
 125              		.loc 1 198 0
 126              		@ sp needed
 197:.\Generated_Source\PSoC4/Bootloader.c ****     UART_0_TX_FIFO_WR_REG = (uint8)(value);
 127              		.loc 1 197 0
 128 000e 1860     		str	r0, [r3]
 198:.\Generated_Source\PSoC4/Bootloader.c **** }
 129              		.loc 1 198 0
 130 0010 7047     		bx	lr
 131              	.L13:
 132 0012 C046     		.align	2
 133              	.L12:
 134 0014 08020640 		.word	1074135560
 135 0018 40020640 		.word	1074135616
 136              		.cfi_endproc
 137              	.LFE34:
ARM GAS  C:\Users\ZHANGM~1\AppData\Local\Temp\ccse5bds.s 			page 16


 138              		.size	Comm_Uart_0_PrintHex8, .-Comm_Uart_0_PrintHex8
 139              		.section	.text.Uart_0_Putchar,"ax",%progbits
 140              		.align	1
 141              		.global	Uart_0_Putchar
 142              		.code	16
 143              		.thumb_func
 144              		.type	Uart_0_Putchar, %function
 145              	Uart_0_Putchar:
 146              	.LFB35:
 206:.\Generated_Source\PSoC4/Bootloader.c **** {
 147              		.loc 1 206 0
 148              		.cfi_startproc
 149 0000 08B5     		push	{r3, lr}
 150              		.cfi_def_cfa_offset 8
 151              		.cfi_offset 3, -8
 152              		.cfi_offset 14, -4
 207:.\Generated_Source\PSoC4/Bootloader.c ****     	if(F_uart_0_tx!=0)
 153              		.loc 1 207 0
 154 0002 094B     		ldr	r3, .L19
 155 0004 1B78     		ldrb	r3, [r3]
 156 0006 002B     		cmp	r3, #0
 157 0008 0DD0     		beq	.L14
 209:.\Generated_Source\PSoC4/Bootloader.c ****     if(iSendCounter!=(iUartSendLen+1))
 158              		.loc 1 209 0
 159 000a 0849     		ldr	r1, .L19+4
 160 000c 084A     		ldr	r2, .L19+8
 161 000e 0988     		ldrh	r1, [r1]
 162 0010 1388     		ldrh	r3, [r2]
 163 0012 0131     		add	r1, r1, #1
 164 0014 8B42     		cmp	r3, r1
 165 0016 06D0     		beq	.L14
 211:.\Generated_Source\PSoC4/Bootloader.c ****           Comm_Uart_0_PrintHex8(cpSendBufPtr[iSendCounter++]);
 166              		.loc 1 211 0
 167 0018 0649     		ldr	r1, .L19+12
 168 001a 581C     		add	r0, r3, #1
 169 001c 0968     		ldr	r1, [r1]
 170 001e 1080     		strh	r0, [r2]
 171 0020 C85C     		ldrb	r0, [r1, r3]
 172 0022 FFF7FEFF 		bl	Comm_Uart_0_PrintHex8
 173              	.LVL15:
 174              	.L14:
 215:.\Generated_Source\PSoC4/Bootloader.c **** }
 175              		.loc 1 215 0
 176              		@ sp needed
 177 0026 08BD     		pop	{r3, pc}
 178              	.L20:
 179              		.align	2
 180              	.L19:
 181 0028 00000000 		.word	F_uart_0_tx
 182 002c 00000000 		.word	iUartSendLen
 183 0030 00000000 		.word	iSendCounter
 184 0034 00000000 		.word	cpSendBufPtr
 185              		.cfi_endproc
 186              	.LFE35:
 187              		.size	Uart_0_Putchar, .-Uart_0_Putchar
 188              		.section	.text.UART_SendData,"ax",%progbits
 189              		.align	1
ARM GAS  C:\Users\ZHANGM~1\AppData\Local\Temp\ccse5bds.s 			page 17


 190              		.global	UART_SendData
 191              		.code	16
 192              		.thumb_func
 193              		.type	UART_SendData, %function
 194              	UART_SendData:
 195              	.LFB36:
 225:.\Generated_Source\PSoC4/Bootloader.c **** {
 196              		.loc 1 225 0
 197              		.cfi_startproc
 198              	.LVL16:
 226:.\Generated_Source\PSoC4/Bootloader.c **** 	iUartSendLen = iCount-1;
 199              		.loc 1 226 0
 200 0000 044B     		ldr	r3, .L22
 201 0002 0139     		sub	r1, r1, #1
 202              	.LVL17:
 203 0004 1980     		strh	r1, [r3]
 227:.\Generated_Source\PSoC4/Bootloader.c **** 	iSendCounter = 0;
 204              		.loc 1 227 0
 205 0006 044B     		ldr	r3, .L22+4
 206 0008 0022     		mov	r2, #0
 207 000a 1A80     		strh	r2, [r3]
 228:.\Generated_Source\PSoC4/Bootloader.c **** 	cpSendBufPtr = &data_buf[0];
 208              		.loc 1 228 0
 209 000c 034B     		ldr	r3, .L22+8
 229:.\Generated_Source\PSoC4/Bootloader.c **** }
 210              		.loc 1 229 0
 211              		@ sp needed
 228:.\Generated_Source\PSoC4/Bootloader.c **** 	cpSendBufPtr = &data_buf[0];
 212              		.loc 1 228 0
 213 000e 1860     		str	r0, [r3]
 229:.\Generated_Source\PSoC4/Bootloader.c **** }
 214              		.loc 1 229 0
 215 0010 7047     		bx	lr
 216              	.L23:
 217 0012 C046     		.align	2
 218              	.L22:
 219 0014 00000000 		.word	iUartSendLen
 220 0018 00000000 		.word	iSendCounter
 221 001c 00000000 		.word	cpSendBufPtr
 222              		.cfi_endproc
 223              	.LFE36:
 224              		.size	UART_SendData, .-UART_SendData
 225              		.section	.text.Sum_Make_Verify,"ax",%progbits
 226              		.align	1
 227              		.global	Sum_Make_Verify
 228              		.code	16
 229              		.thumb_func
 230              		.type	Sum_Make_Verify, %function
 231              	Sum_Make_Verify:
 232              	.LFB37:
 238:.\Generated_Source\PSoC4/Bootloader.c **** {
 233              		.loc 1 238 0
 234              		.cfi_startproc
 235              	.LVL18:
 239:.\Generated_Source\PSoC4/Bootloader.c ****     uint8 Verify = 0;
 236              		.loc 1 239 0
 237 0000 0023     		mov	r3, #0
ARM GAS  C:\Users\ZHANGM~1\AppData\Local\Temp\ccse5bds.s 			page 18


 238              	.LVL19:
 239              	.L25:
 240:.\Generated_Source\PSoC4/Bootloader.c ****     while (Len--)
 240              		.loc 1 240 0 discriminator 1
 241 0002 0139     		sub	r1, r1, #1
 242              	.LVL20:
 243 0004 054A     		ldr	r2, .L28
 244 0006 89B2     		uxth	r1, r1
 245              	.LVL21:
 246 0008 9142     		cmp	r1, r2
 247 000a 04D0     		beq	.L27
 242:.\Generated_Source\PSoC4/Bootloader.c ****         Verify = Verify + (*PBuf);
 248              		.loc 1 242 0
 249 000c 0278     		ldrb	r2, [r0]
 243:.\Generated_Source\PSoC4/Bootloader.c ****         ++ PBuf;
 250              		.loc 1 243 0
 251 000e 0130     		add	r0, r0, #1
 252              	.LVL22:
 242:.\Generated_Source\PSoC4/Bootloader.c ****         Verify = Verify + (*PBuf);
 253              		.loc 1 242 0
 254 0010 9B18     		add	r3, r3, r2
 255              	.LVL23:
 256 0012 DBB2     		uxtb	r3, r3
 257              	.LVL24:
 258 0014 F5E7     		b	.L25
 259              	.L27:
 245:.\Generated_Source\PSoC4/Bootloader.c ****     return (~Verify + 1);
 260              		.loc 1 245 0
 261 0016 5B42     		neg	r3, r3
 262              	.LVL25:
 263 0018 D8B2     		uxtb	r0, r3
 264              	.LVL26:
 246:.\Generated_Source\PSoC4/Bootloader.c **** }
 265              		.loc 1 246 0
 266              		@ sp needed
 267 001a 7047     		bx	lr
 268              	.L29:
 269              		.align	2
 270              	.L28:
 271 001c FFFF0000 		.word	65535
 272              		.cfi_endproc
 273              	.LFE37:
 274              		.size	Sum_Make_Verify, .-Sum_Make_Verify
 275              		.section	.text.SendDataToWifi,"ax",%progbits
 276              		.align	1
 277              		.global	SendDataToWifi
 278              		.code	16
 279              		.thumb_func
 280              		.type	SendDataToWifi, %function
 281              	SendDataToWifi:
 282              	.LFB38:
 264:.\Generated_Source\PSoC4/Bootloader.c **** {
 283              		.loc 1 264 0
 284              		.cfi_startproc
 285              	.LVL27:
 286 0000 F7B5     		push	{r0, r1, r2, r4, r5, r6, r7, lr}
 287              		.cfi_def_cfa_offset 32
ARM GAS  C:\Users\ZHANGM~1\AppData\Local\Temp\ccse5bds.s 			page 19


 288              		.cfi_offset 0, -32
 289              		.cfi_offset 1, -28
 290              		.cfi_offset 2, -24
 291              		.cfi_offset 4, -20
 292              		.cfi_offset 5, -16
 293              		.cfi_offset 6, -12
 294              		.cfi_offset 7, -8
 295              		.cfi_offset 14, -4
 268:.\Generated_Source\PSoC4/Bootloader.c ****     memset(cBuf,0x00,WIFIBUFLEN);
 296              		.loc 1 268 0
 297 0002 234C     		ldr	r4, .L34
 264:.\Generated_Source\PSoC4/Bootloader.c **** {
 298              		.loc 1 264 0
 299 0004 0192     		str	r2, [sp, #4]
 300 0006 071C     		mov	r7, r0
 301 0008 0E1C     		mov	r6, r1
 268:.\Generated_Source\PSoC4/Bootloader.c ****     memset(cBuf,0x00,WIFIBUFLEN);
 302              		.loc 1 268 0
 303 000a 201C     		mov	r0, r4
 304              	.LVL28:
 305 000c 0021     		mov	r1, #0
 306              	.LVL29:
 307 000e FF22     		mov	r2, #255
 308              	.LVL30:
 264:.\Generated_Source\PSoC4/Bootloader.c **** {
 309              		.loc 1 264 0
 310 0010 1D1C     		mov	r5, r3
 268:.\Generated_Source\PSoC4/Bootloader.c ****     memset(cBuf,0x00,WIFIBUFLEN);
 311              		.loc 1 268 0
 312 0012 FFF7FEFF 		bl	memset
 313              	.LVL31:
 269:.\Generated_Source\PSoC4/Bootloader.c ****     cBuf[0] = WIFI_SYN_0;        	     // SYNC0
 314              		.loc 1 269 0
 315 0016 FA23     		mov	r3, #250
 316 0018 2370     		strb	r3, [r4]
 270:.\Generated_Source\PSoC4/Bootloader.c ****     cBuf[1] = WIFI_SYN_1;        	     // SYNC1
 317              		.loc 1 270 0
 318 001a FB23     		mov	r3, #251
 319 001c 6370     		strb	r3, [r4, #1]
 271:.\Generated_Source\PSoC4/Bootloader.c ****     cBuf[2] = 0x01;   //MCU_PROTOCOL_VERSION 
 320              		.loc 1 271 0
 321 001e 0123     		mov	r3, #1
 322 0020 A370     		strb	r3, [r4, #2]
 272:.\Generated_Source\PSoC4/Bootloader.c ****     if(cCommand==0xccc5)
 323              		.loc 1 272 0
 324 0022 1C4B     		ldr	r3, .L34+4
 325 0024 9E42     		cmp	r6, r3
 326 0026 05D0     		beq	.L31
 279:.\Generated_Source\PSoC4/Bootloader.c ****         cBuf[3]=z_itotalcount;
 327              		.loc 1 279 0
 328 0028 1B4B     		ldr	r3, .L34+8
 329 002a 1B78     		ldrb	r3, [r3]
 330 002c E370     		strb	r3, [r4, #3]
 280:.\Generated_Source\PSoC4/Bootloader.c ****         cBuf[4]=z_iicount;
 331              		.loc 1 280 0
 332 002e 1B4B     		ldr	r3, .L34+12
 333 0030 1B78     		ldrb	r3, [r3]
ARM GAS  C:\Users\ZHANGM~1\AppData\Local\Temp\ccse5bds.s 			page 20


 334 0032 2371     		strb	r3, [r4, #4]
 335              	.L31:
 283:.\Generated_Source\PSoC4/Bootloader.c ****     cBuf[6] =  (cCommand)>>8;//长度0
 336              		.loc 1 283 0
 337 0034 330A     		lsr	r3, r6, #8
 338 0036 A371     		strb	r3, [r4, #6]
 285:.\Generated_Source\PSoC4/Bootloader.c ****     cBuf[8] =(iLength)>>8;//长度0
 339              		.loc 1 285 0
 340 0038 2B0A     		lsr	r3, r5, #8
 282:.\Generated_Source\PSoC4/Bootloader.c ****     cBuf[5] = cCtl;   	 // Wctrl
 341              		.loc 1 282 0
 342 003a 6771     		strb	r7, [r4, #5]
 284:.\Generated_Source\PSoC4/Bootloader.c ****     cBuf[7] =(cCommand)&0x00ff;//长度1	  cBuf[8]=(iLength)>>8;//长度0
 343              		.loc 1 284 0
 344 003c E671     		strb	r6, [r4, #7]
 285:.\Generated_Source\PSoC4/Bootloader.c ****     cBuf[8] =(iLength)>>8;//长度0
 345              		.loc 1 285 0
 346 003e 2372     		strb	r3, [r4, #8]
 286:.\Generated_Source\PSoC4/Bootloader.c ****     cBuf[9] =(iLength)&0x00ff;//长度1
 347              		.loc 1 286 0
 348 0040 6572     		strb	r5, [r4, #9]
 291:.\Generated_Source\PSoC4/Bootloader.c ****         memcpy(&cBuf[10],DataBuf,iLength);
 349              		.loc 1 291 0
 350 0042 201C     		mov	r0, r4
 289:.\Generated_Source\PSoC4/Bootloader.c ****     if(iLength!=0)
 351              		.loc 1 289 0
 352 0044 002D     		cmp	r5, #0
 353 0046 0FD0     		beq	.L32
 291:.\Generated_Source\PSoC4/Bootloader.c ****         memcpy(&cBuf[10],DataBuf,iLength);
 354              		.loc 1 291 0
 355 0048 2A1C     		mov	r2, r5
 356 004a 0199     		ldr	r1, [sp, #4]
 357 004c 0A30     		add	r0, r0, #10
 358 004e FFF7FEFF 		bl	memcpy
 359              	.LVL32:
 293:.\Generated_Source\PSoC4/Bootloader.c ****         xxxxx=crc16(&cBuf[0],10+iLength);
 360              		.loc 1 293 0
 361 0052 291C     		mov	r1, r5
 362 0054 0A31     		add	r1, r1, #10
 363 0056 89B2     		uxth	r1, r1
 364 0058 201C     		mov	r0, r4
 365 005a FFF7FEFF 		bl	crc16
 366              	.LVL33:
 294:.\Generated_Source\PSoC4/Bootloader.c ****         cBuf[iLength+10] =xxxxx>>8;
 367              		.loc 1 294 0
 368 005e 6319     		add	r3, r4, r5
 369 0060 020A     		lsr	r2, r0, #8
 370 0062 9A72     		strb	r2, [r3, #10]
 295:.\Generated_Source\PSoC4/Bootloader.c ****         cBuf[iLength+11] =xxxxx;
 371              		.loc 1 295 0
 372 0064 D872     		strb	r0, [r3, #11]
 373 0066 05E0     		b	.L33
 374              	.LVL34:
 375              	.L32:
 300:.\Generated_Source\PSoC4/Bootloader.c ****         xxxxx=crc16(&cBuf[0],10);
 376              		.loc 1 300 0
 377 0068 0A21     		mov	r1, #10
ARM GAS  C:\Users\ZHANGM~1\AppData\Local\Temp\ccse5bds.s 			page 21


 378 006a FFF7FEFF 		bl	crc16
 379              	.LVL35:
 301:.\Generated_Source\PSoC4/Bootloader.c ****         cBuf[iLength+10] = xxxxx>>8;
 380              		.loc 1 301 0
 381 006e 030A     		lsr	r3, r0, #8
 382 0070 A372     		strb	r3, [r4, #10]
 302:.\Generated_Source\PSoC4/Bootloader.c ****         cBuf[iLength+11] = xxxxx;
 383              		.loc 1 302 0
 384 0072 E072     		strb	r0, [r4, #11]
 385              	.LVL36:
 386              	.L33:
 305:.\Generated_Source\PSoC4/Bootloader.c **** 		WifidatagramWorkFlag.flag_Uart_Work=1; 
 387              		.loc 1 305 0
 388 0074 0A4B     		ldr	r3, .L34+16
 389 0076 0821     		mov	r1, #8
 390 0078 1A78     		ldrb	r2, [r3]
 391 007a 0A43     		orr	r2, r1
 392 007c 1A70     		strb	r2, [r3]
 306:.\Generated_Source\PSoC4/Bootloader.c ****     CyGlobalIntDisable;                  //应答时间设置
 393              		.loc 1 306 0
 394              	@ 306 ".\Generated_Source\PSoC4\Bootloader.c" 1
 395 007e 72B6     		CPSID   i
 396              	@ 0 "" 2
 307:.\Generated_Source\PSoC4/Bootloader.c ****     UART_SendData(cBuf,iLength+12);   ///The Last six 0x00 is PADDING
 397              		.loc 1 307 0
 398              		.code	16
 399 0080 0C35     		add	r5, r5, #12
 400 0082 A9B2     		uxth	r1, r5
 401 0084 201C     		mov	r0, r4
 402 0086 FFF7FEFF 		bl	UART_SendData
 403              	.LVL37:
 308:.\Generated_Source\PSoC4/Bootloader.c ****     CyGlobalIntEnable; 
 404              		.loc 1 308 0
 405              	@ 308 ".\Generated_Source\PSoC4\Bootloader.c" 1
 406 008a 62B6     		CPSIE   i
 407              	@ 0 "" 2
 309:.\Generated_Source\PSoC4/Bootloader.c **** }
 408              		.loc 1 309 0
 409              		.code	16
 410              		@ sp needed
 411 008c F7BD     		pop	{r0, r1, r2, r4, r5, r6, r7, pc}
 412              	.L35:
 413 008e C046     		.align	2
 414              	.L34:
 415 0090 00000000 		.word	.LANCHOR2
 416 0094 C5CC0000 		.word	52421
 417 0098 00000000 		.word	z_itotalcount
 418 009c 00000000 		.word	z_iicount
 419 00a0 00000000 		.word	WifidatagramWorkFlag
 420              		.cfi_endproc
 421              	.LFE38:
 422              		.size	SendDataToWifi, .-SendDataToWifi
 423              		.section	.text.LoadUARTData,"ax",%progbits
 424              		.align	1
 425              		.global	LoadUARTData
 426              		.code	16
 427              		.thumb_func
ARM GAS  C:\Users\ZHANGM~1\AppData\Local\Temp\ccse5bds.s 			page 22


 428              		.type	LoadUARTData, %function
 429              	LoadUARTData:
 430              	.LFB39:
 322:.\Generated_Source\PSoC4/Bootloader.c **** {
 431              		.loc 1 322 0
 432              		.cfi_startproc
 433              	.LVL38:
 434 0000 30B5     		push	{r4, r5, lr}
 435              		.cfi_def_cfa_offset 12
 436              		.cfi_offset 4, -12
 437              		.cfi_offset 5, -8
 438              		.cfi_offset 14, -4
 323:.\Generated_Source\PSoC4/Bootloader.c **** 	switch (gcWifiCommunState)
 439              		.loc 1 323 0
 440 0002 414A     		ldr	r2, .L63
 322:.\Generated_Source\PSoC4/Bootloader.c **** {
 441              		.loc 1 322 0
 442 0004 031C     		mov	r3, r0
 323:.\Generated_Source\PSoC4/Bootloader.c **** 	switch (gcWifiCommunState)
 443              		.loc 1 323 0
 444 0006 1078     		ldrb	r0, [r2]
 445              	.LVL39:
 446 0008 0D28     		cmp	r0, #13
 447 000a 79D8     		bhi	.L37
 448 000c FFF7FEFF 		bl	__gnu_thumb1_case_uqi
 449              	.L39:
 450 0010 07       		.byte	(.L38-.L39)/2
 451 0011 0D       		.byte	(.L40-.L39)/2
 452 0012 14       		.byte	(.L41-.L39)/2
 453 0013 1B       		.byte	(.L42-.L39)/2
 454 0014 20       		.byte	(.L43-.L39)/2
 455 0015 25       		.byte	(.L44-.L39)/2
 456 0016 2C       		.byte	(.L45-.L39)/2
 457 0017 33       		.byte	(.L46-.L39)/2
 458 0018 3A       		.byte	(.L47-.L39)/2
 459 0019 41       		.byte	(.L48-.L39)/2
 460 001a 4B       		.byte	(.L49-.L39)/2
 461 001b 66       		.byte	(.L50-.L39)/2
 462 001c 78       		.byte	(.L37-.L39)/2
 463 001d 55       		.byte	(.L51-.L39)/2
 464              		.p2align 1
 465              	.L38:
 326:.\Generated_Source\PSoC4/Bootloader.c **** 			   		if(UartData==WIFI_SYN_0)
 466              		.loc 1 326 0
 467 001e FA2B     		cmp	r3, #250
 468 0020 01D1     		bne	.L52
 327:.\Generated_Source\PSoC4/Bootloader.c ****   			   		gcWifiCommunState = WIFI_WAIT_SYN_1;
 469              		.loc 1 327 0
 470 0022 0121     		mov	r1, #1
 471 0024 1170     		strb	r1, [r2]
 472              	.L52:
 328:.\Generated_Source\PSoC4/Bootloader.c ****   			  	    ATReceBuffer[0].gcATReceData[0]= UartData;
 473              		.loc 1 328 0
 474 0026 394A     		ldr	r2, .L63+4
 475 0028 6BE0     		b	.L62
 476              	.L40:
 331:.\Generated_Source\PSoC4/Bootloader.c **** 			   		if(UartData==WIFI_SYN_1)
ARM GAS  C:\Users\ZHANGM~1\AppData\Local\Temp\ccse5bds.s 			page 23


 477              		.loc 1 331 0
 478 002a FB2B     		cmp	r3, #251
 479 002c 01D1     		bne	.L54
 332:.\Generated_Source\PSoC4/Bootloader.c ****   			   		gcWifiCommunState = WIFI_PROTOCOL_JUDGE;
 480              		.loc 1 332 0
 481 002e 0221     		mov	r1, #2
 482 0030 1170     		strb	r1, [r2]
 483              	.L54:
 333:.\Generated_Source\PSoC4/Bootloader.c ****   			  	    ATReceBuffer[0].gcATReceData[1]= UartData;
 484              		.loc 1 333 0
 485 0032 364A     		ldr	r2, .L63+4
 486 0034 5370     		strb	r3, [r2, #1]
 334:.\Generated_Source\PSoC4/Bootloader.c **** 			  		break;
 487              		.loc 1 334 0
 488 0036 65E0     		b	.L36
 489              	.L41:
 336:.\Generated_Source\PSoC4/Bootloader.c **** 			 			if(UartData==0x01)
 490              		.loc 1 336 0
 491 0038 012B     		cmp	r3, #1
 492 003a 01D1     		bne	.L55
 337:.\Generated_Source\PSoC4/Bootloader.c ****   			   		gcWifiCommunState = WIFI_TOTAL_FRAME_NUM;
 493              		.loc 1 337 0
 494 003c 0321     		mov	r1, #3
 495 003e 1170     		strb	r1, [r2]
 496              	.L55:
 338:.\Generated_Source\PSoC4/Bootloader.c ****   			  	ATReceBuffer[0].gcATReceData[2]= UartData;
 497              		.loc 1 338 0
 498 0040 324A     		ldr	r2, .L63+4
 499 0042 9370     		strb	r3, [r2, #2]
 339:.\Generated_Source\PSoC4/Bootloader.c **** 			  		break;
 500              		.loc 1 339 0
 501 0044 5EE0     		b	.L36
 502              	.L42:
 341:.\Generated_Source\PSoC4/Bootloader.c **** 			 			gcWifiCommunState = WIFI_FRAME_NUM;
 503              		.loc 1 341 0
 504 0046 0421     		mov	r1, #4
 505 0048 1170     		strb	r1, [r2]
 343:.\Generated_Source\PSoC4/Bootloader.c ****   			  	ATReceBuffer[0].gcATReceData[3]= UartData;
 506              		.loc 1 343 0
 507 004a 304A     		ldr	r2, .L63+4
 508 004c D370     		strb	r3, [r2, #3]
 344:.\Generated_Source\PSoC4/Bootloader.c **** 			  		break;		
 509              		.loc 1 344 0
 510 004e 59E0     		b	.L36
 511              	.L43:
 346:.\Generated_Source\PSoC4/Bootloader.c **** 			 			gcWifiCommunState = WIFI_WAIT_CTL;
 512              		.loc 1 346 0
 513 0050 0521     		mov	r1, #5
 514 0052 1170     		strb	r1, [r2]
 348:.\Generated_Source\PSoC4/Bootloader.c ****   			  	ATReceBuffer[0].gcATReceData[4]= UartData;
 515              		.loc 1 348 0
 516 0054 2D4A     		ldr	r2, .L63+4
 517 0056 1371     		strb	r3, [r2, #4]
 349:.\Generated_Source\PSoC4/Bootloader.c **** 			  		break;		
 518              		.loc 1 349 0
 519 0058 54E0     		b	.L36
 520              	.L44:
ARM GAS  C:\Users\ZHANGM~1\AppData\Local\Temp\ccse5bds.s 			page 24


 351:.\Generated_Source\PSoC4/Bootloader.c **** 			    	gcWIFICTL = UartData;
 521              		.loc 1 351 0
 522 005a 2D49     		ldr	r1, .L63+8
 523 005c 0B70     		strb	r3, [r1]
 352:.\Generated_Source\PSoC4/Bootloader.c **** 						gcWifiCommunState = WIFI_COMMAND_1;
 524              		.loc 1 352 0
 525 005e 0621     		mov	r1, #6
 526 0060 1170     		strb	r1, [r2]
 353:.\Generated_Source\PSoC4/Bootloader.c ****   			  	ATReceBuffer[0].gcATReceData[5]= UartData;
 527              		.loc 1 353 0
 528 0062 2A4A     		ldr	r2, .L63+4
 529 0064 5371     		strb	r3, [r2, #5]
 354:.\Generated_Source\PSoC4/Bootloader.c **** 			 			break;		 
 530              		.loc 1 354 0
 531 0066 4DE0     		b	.L36
 532              	.L45:
 356:.\Generated_Source\PSoC4/Bootloader.c **** 			    	giWIFICommand = UartData;
 533              		.loc 1 356 0
 534 0068 2A49     		ldr	r1, .L63+12
 535 006a 0B70     		strb	r3, [r1]
 357:.\Generated_Source\PSoC4/Bootloader.c **** 						gcWifiCommunState = WIFI_COMMAND_2;
 536              		.loc 1 357 0
 537 006c 0721     		mov	r1, #7
 538 006e 1170     		strb	r1, [r2]
 358:.\Generated_Source\PSoC4/Bootloader.c ****   			  	ATReceBuffer[0].gcATReceData[6]= UartData;
 539              		.loc 1 358 0
 540 0070 264A     		ldr	r2, .L63+4
 541 0072 9371     		strb	r3, [r2, #6]
 359:.\Generated_Source\PSoC4/Bootloader.c **** 			 			break;
 542              		.loc 1 359 0
 543 0074 46E0     		b	.L36
 544              	.L46:
 361:.\Generated_Source\PSoC4/Bootloader.c **** 			    	giWIFICommand = (giWIFICommand<<8)+UartData;
 545              		.loc 1 361 0
 546 0076 2749     		ldr	r1, .L63+12
 547 0078 0B70     		strb	r3, [r1]
 362:.\Generated_Source\PSoC4/Bootloader.c ****       				  gcWifiCommunState = WIFI_LENGTH1;     
 548              		.loc 1 362 0
 549 007a 0821     		mov	r1, #8
 550 007c 1170     		strb	r1, [r2]
 363:.\Generated_Source\PSoC4/Bootloader.c ****   			  	ATReceBuffer[0].gcATReceData[7]= UartData;
 551              		.loc 1 363 0
 552 007e 234A     		ldr	r2, .L63+4
 553 0080 D371     		strb	r3, [r2, #7]
 364:.\Generated_Source\PSoC4/Bootloader.c **** 			 			break;			 					  		
 554              		.loc 1 364 0
 555 0082 3FE0     		b	.L36
 556              	.L47:
 366:.\Generated_Source\PSoC4/Bootloader.c **** 			    	giWIFIDATALength = UartData;
 557              		.loc 1 366 0
 558 0084 2449     		ldr	r1, .L63+16
 559 0086 0B70     		strb	r3, [r1]
 367:.\Generated_Source\PSoC4/Bootloader.c **** 						gcWifiCommunState = WIFI_LENGTH2;
 560              		.loc 1 367 0
 561 0088 0921     		mov	r1, #9
 562 008a 1170     		strb	r1, [r2]
 368:.\Generated_Source\PSoC4/Bootloader.c ****   			  	ATReceBuffer[0].gcATReceData[8]= UartData;
ARM GAS  C:\Users\ZHANGM~1\AppData\Local\Temp\ccse5bds.s 			page 25


 563              		.loc 1 368 0
 564 008c 1F4A     		ldr	r2, .L63+4
 565 008e 1372     		strb	r3, [r2, #8]
 369:.\Generated_Source\PSoC4/Bootloader.c **** 			 			break;
 566              		.loc 1 369 0
 567 0090 38E0     		b	.L36
 568              	.L48:
 371:.\Generated_Source\PSoC4/Bootloader.c **** 			    	giWIFIDATALength = (giWIFIDATALength<<8)+UartData;
 569              		.loc 1 371 0
 570 0092 2149     		ldr	r1, .L63+16
 571 0094 0B70     		strb	r3, [r1]
 374:.\Generated_Source\PSoC4/Bootloader.c ****       				  gcWifiCommunState = WIFI_RECEDATA;
 572              		.loc 1 374 0
 573 0096 0B21     		mov	r1, #11
 372:.\Generated_Source\PSoC4/Bootloader.c ****     				if(giWIFIDATALength>0)   // 
 574              		.loc 1 372 0
 575 0098 002B     		cmp	r3, #0
 576 009a 00D1     		bne	.L61
 378:.\Generated_Source\PSoC4/Bootloader.c ****       				   gcWifiCommunState = WIFI_CHCK00; 
 577              		.loc 1 378 0
 578 009c 0A21     		mov	r1, #10
 579              	.L61:
 580 009e 1170     		strb	r1, [r2]
 380:.\Generated_Source\PSoC4/Bootloader.c ****   			  	ATReceBuffer[0].gcATReceData[9]= UartData;
 581              		.loc 1 380 0
 582 00a0 1A4A     		ldr	r2, .L63+4
 583 00a2 5372     		strb	r3, [r2, #9]
 381:.\Generated_Source\PSoC4/Bootloader.c **** 			 			break;
 584              		.loc 1 381 0
 585 00a4 2EE0     		b	.L36
 586              	.L49:
 383:.\Generated_Source\PSoC4/Bootloader.c ****     				if (ATReceBuffer[0].gcATReceCount<=(WIFIBUFLEN-10-1)) 
 587              		.loc 1 383 0
 588 00a6 1948     		ldr	r0, .L63+4
 589 00a8 011C     		mov	r1, r0
 590 00aa FE31     		add	r1, r1, #254
 591 00ac 4988     		ldrh	r1, [r1, #2]
 592 00ae F429     		cmp	r1, #244
 593 00b0 28D8     		bhi	.L36
 385:.\Generated_Source\PSoC4/Bootloader.c ****   			    		ATReceBuffer[0].gcATReceData[10+ATReceBuffer[0].gcATReceCount]= UartData; 
 594              		.loc 1 385 0
 595 00b2 4118     		add	r1, r0, r1
 596 00b4 8B72     		strb	r3, [r1, #10]
 386:.\Generated_Source\PSoC4/Bootloader.c **** 	      				gcWifiCommunState = WIFI_CHCK01;
 597              		.loc 1 386 0
 598 00b6 0D23     		mov	r3, #13
 599 00b8 23E0     		b	.L62
 600              	.L51:
 391:.\Generated_Source\PSoC4/Bootloader.c ****     				if (ATReceBuffer[0].gcATReceCount<=(WIFIBUFLEN-10-1)) 
 601              		.loc 1 391 0
 602 00ba 144C     		ldr	r4, .L63+4
 603 00bc 211C     		mov	r1, r4
 604 00be FE31     		add	r1, r1, #254
 605 00c0 4888     		ldrh	r0, [r1, #2]
 606 00c2 F428     		cmp	r0, #244
 607 00c4 1ED8     		bhi	.L36
 393:.\Generated_Source\PSoC4/Bootloader.c ****   			    		ATReceBuffer[0].gcATReceData[11+ATReceBuffer[0].gcATReceCount]= UartData; 
ARM GAS  C:\Users\ZHANGM~1\AppData\Local\Temp\ccse5bds.s 			page 26


 608              		.loc 1 393 0
 609 00c6 2018     		add	r0, r4, r0
 610 00c8 C372     		strb	r3, [r0, #11]
 394:.\Generated_Source\PSoC4/Bootloader.c ****   			    		ATReceBuffer[0].gcATReceCount = 0;
 611              		.loc 1 394 0
 612 00ca 0023     		mov	r3, #0
 613 00cc 4B80     		strh	r3, [r1, #2]
 395:.\Generated_Source\PSoC4/Bootloader.c **** 	      				gcWifiCommunState = WIFI_WAIT_SYN_0;
 614              		.loc 1 395 0
 615 00ce 1370     		strb	r3, [r2]
 396:.\Generated_Source\PSoC4/Bootloader.c **** 	      				WifiWorkFlag.gcReceComm1OK = 1;  // 数据成功接收完毕 
 616              		.loc 1 396 0
 617 00d0 124B     		ldr	r3, .L63+20
 618 00d2 0821     		mov	r1, #8
 619 00d4 1A78     		ldrb	r2, [r3]
 620 00d6 0A43     		orr	r2, r1
 621 00d8 1A70     		strb	r2, [r3]
 622 00da 13E0     		b	.L36
 623              	.L50:
 400:.\Generated_Source\PSoC4/Bootloader.c ****     				if (ATReceBuffer[0].gcATReceCount<(WIFIBUFLEN-10-1)) 
 624              		.loc 1 400 0
 625 00dc 0B48     		ldr	r0, .L63+4
 626 00de 041C     		mov	r4, r0
 627 00e0 FE34     		add	r4, r4, #254
 628 00e2 6188     		ldrh	r1, [r4, #2]
 629 00e4 F329     		cmp	r1, #243
 630 00e6 03D8     		bhi	.L60
 402:.\Generated_Source\PSoC4/Bootloader.c ****   			    		ATReceBuffer[0].gcATReceData[10+ATReceBuffer[0].gcATReceCount]= UartData;
 631              		.loc 1 402 0
 632 00e8 4518     		add	r5, r0, r1
 403:.\Generated_Source\PSoC4/Bootloader.c ****   			    		ATReceBuffer[0].gcATReceCount++;    						
 633              		.loc 1 403 0
 634 00ea 0131     		add	r1, r1, #1
 402:.\Generated_Source\PSoC4/Bootloader.c ****   			    		ATReceBuffer[0].gcATReceData[10+ATReceBuffer[0].gcATReceCount]= UartData;
 635              		.loc 1 402 0
 636 00ec AB72     		strb	r3, [r5, #10]
 403:.\Generated_Source\PSoC4/Bootloader.c ****   			    		ATReceBuffer[0].gcATReceCount++;    						
 637              		.loc 1 403 0
 638 00ee 6180     		strh	r1, [r4, #2]
 639              	.L60:
 406:.\Generated_Source\PSoC4/Bootloader.c ****     				if(ATReceBuffer[0].gcATReceCount == giWIFIDATALength)
 640              		.loc 1 406 0
 641 00f0 094B     		ldr	r3, .L63+16
 642 00f2 FE30     		add	r0, r0, #254
 643 00f4 4188     		ldrh	r1, [r0, #2]
 644 00f6 1B78     		ldrb	r3, [r3]
 645 00f8 9942     		cmp	r1, r3
 646 00fa 03D1     		bne	.L36
 408:.\Generated_Source\PSoC4/Bootloader.c ****     				  	gcWifiCommunState = WIFI_CHCK00;
 647              		.loc 1 408 0
 648 00fc 0A23     		mov	r3, #10
 649 00fe 00E0     		b	.L62
 650              	.L37:
 412:.\Generated_Source\PSoC4/Bootloader.c **** 			 	gcWifiCommunState = WIFI_WAIT_SYN_0;	
 651              		.loc 1 412 0
 652 0100 0023     		mov	r3, #0
 653              	.L62:
ARM GAS  C:\Users\ZHANGM~1\AppData\Local\Temp\ccse5bds.s 			page 27


 654 0102 1370     		strb	r3, [r2]
 655              	.L36:
 414:.\Generated_Source\PSoC4/Bootloader.c **** }
 656              		.loc 1 414 0
 657              		@ sp needed
 658 0104 30BD     		pop	{r4, r5, pc}
 659              	.L64:
 660 0106 C046     		.align	2
 661              	.L63:
 662 0108 00000000 		.word	gcWifiCommunState
 663 010c 00000000 		.word	ATReceBuffer
 664 0110 00000000 		.word	gcWIFICTL
 665 0114 00000000 		.word	giWIFICommand
 666 0118 00000000 		.word	giWIFIDATALength
 667 011c 00000000 		.word	WifiWorkFlag
 668              		.cfi_endproc
 669              	.LFE39:
 670              		.size	LoadUARTData, .-LoadUARTData
 671              		.section	.text.UART_ISR_0_FUN,"ax",%progbits
 672              		.align	1
 673              		.global	UART_ISR_0_FUN
 674              		.code	16
 675              		.thumb_func
 676              		.type	UART_ISR_0_FUN, %function
 677              	UART_ISR_0_FUN:
 678              	.LFB48:
 704:.\Generated_Source\PSoC4/Bootloader.c **** 
 705:.\Generated_Source\PSoC4/Bootloader.c **** #elif defined (__ICCARM__)
 706:.\Generated_Source\PSoC4/Bootloader.c **** 
 707:.\Generated_Source\PSoC4/Bootloader.c ****     static void Bootloader_LaunchBootloadable(uint32 appAddr)
 708:.\Generated_Source\PSoC4/Bootloader.c ****     {
 709:.\Generated_Source\PSoC4/Bootloader.c ****         __asm volatile("    BX  R0\n");
 710:.\Generated_Source\PSoC4/Bootloader.c ****     }
 711:.\Generated_Source\PSoC4/Bootloader.c **** 
 712:.\Generated_Source\PSoC4/Bootloader.c **** #endif  /* (__ARMCC_VERSION) */
 713:.\Generated_Source\PSoC4/Bootloader.c **** 
 714:.\Generated_Source\PSoC4/Bootloader.c **** 
 715:.\Generated_Source\PSoC4/Bootloader.c **** /*******************************************************************************
 716:.\Generated_Source\PSoC4/Bootloader.c **** * Function Name: Bootloader_ValidateBootloadable
 717:.\Generated_Source\PSoC4/Bootloader.c **** ********************************************************************************
 718:.\Generated_Source\PSoC4/Bootloader.c **** * Summary:
 719:.\Generated_Source\PSoC4/Bootloader.c **** *  Performs the bootloadable application validation by calculating the
 720:.\Generated_Source\PSoC4/Bootloader.c **** *  application image checksum and comparing it with the checksum value stored
 721:.\Generated_Source\PSoC4/Bootloader.c **** *  in the Bootloadable Application Checksum field of the metadata section.
 722:.\Generated_Source\PSoC4/Bootloader.c **** *
 723:.\Generated_Source\PSoC4/Bootloader.c **** *  If the Fast bootloadable application validation option is enabled in the
 724:.\Generated_Source\PSoC4/Bootloader.c **** *  component customizer and bootloadable application successfully passes
 725:.\Generated_Source\PSoC4/Bootloader.c **** *  validation, the Bootloadable Application Verification Status field of the
 726:.\Generated_Source\PSoC4/Bootloader.c **** *  metadata section is updated. Refer to the Metadata Layout section for the
 727:.\Generated_Source\PSoC4/Bootloader.c **** *  details.
 728:.\Generated_Source\PSoC4/Bootloader.c **** *
 729:.\Generated_Source\PSoC4/Bootloader.c **** *  If the Fast bootloadable application validation option is enabled and
 730:.\Generated_Source\PSoC4/Bootloader.c **** *  Bootloadable Application Verification Status field of the metadata section
 731:.\Generated_Source\PSoC4/Bootloader.c **** *  claims that bootloadable application is valid, the function returns
 732:.\Generated_Source\PSoC4/Bootloader.c **** *  CYRET_SUCCESS without further checksum calculation.
 733:.\Generated_Source\PSoC4/Bootloader.c **** *
 734:.\Generated_Source\PSoC4/Bootloader.c **** * Parameters:
ARM GAS  C:\Users\ZHANGM~1\AppData\Local\Temp\ccse5bds.s 			page 28


 735:.\Generated_Source\PSoC4/Bootloader.c **** *  appId:
 736:.\Generated_Source\PSoC4/Bootloader.c **** *  The number of the bootloadable application should be 0 for the normal
 737:.\Generated_Source\PSoC4/Bootloader.c **** *  bootloader and 0 or 1 for the Multi-Application bootloader.
 738:.\Generated_Source\PSoC4/Bootloader.c **** *
 739:.\Generated_Source\PSoC4/Bootloader.c **** * Returns:
 740:.\Generated_Source\PSoC4/Bootloader.c **** *  Returns CYRET_SUCCESS if the specified bootloadable application is valid.
 741:.\Generated_Source\PSoC4/Bootloader.c **** *
 742:.\Generated_Source\PSoC4/Bootloader.c **** *******************************************************************************/
 743:.\Generated_Source\PSoC4/Bootloader.c **** cystatus Bootloader_ValidateBootloadable(uint8 appId) CYSMALL \
 744:.\Generated_Source\PSoC4/Bootloader.c **** 
 745:.\Generated_Source\PSoC4/Bootloader.c ****     {
 746:.\Generated_Source\PSoC4/Bootloader.c ****         uint32 CYDATA idx;
 747:.\Generated_Source\PSoC4/Bootloader.c **** 
 748:.\Generated_Source\PSoC4/Bootloader.c ****         uint32 CYDATA end   = Bootloader_FIRST_APP_BYTE(appId) +
 749:.\Generated_Source\PSoC4/Bootloader.c ****                                 Bootloader_GetMetadata(Bootloader_GET_BTLDB_LENGTH,
 750:.\Generated_Source\PSoC4/Bootloader.c ****                                                        appId);
 751:.\Generated_Source\PSoC4/Bootloader.c **** 
 752:.\Generated_Source\PSoC4/Bootloader.c ****         CYBIT         valid = 0u; /* Assume bad flash image */
 753:.\Generated_Source\PSoC4/Bootloader.c ****         uint8  CYDATA calcedChecksum = 0u;
 754:.\Generated_Source\PSoC4/Bootloader.c ****         /* Calculate checksum of bootloadable image */
 755:.\Generated_Source\PSoC4/Bootloader.c ****         for(idx = Bootloader_FIRST_APP_BYTE(appId); idx < end; ++idx)
 756:.\Generated_Source\PSoC4/Bootloader.c ****         {
 757:.\Generated_Source\PSoC4/Bootloader.c ****             uint8 CYDATA curByte = Bootloader_GET_CODE_BYTE(idx);
 758:.\Generated_Source\PSoC4/Bootloader.c **** 
 759:.\Generated_Source\PSoC4/Bootloader.c ****             if((curByte != 0u) && (curByte != 0xFFu))
 760:.\Generated_Source\PSoC4/Bootloader.c ****             {
 761:.\Generated_Source\PSoC4/Bootloader.c ****                 valid = 1u;
 762:.\Generated_Source\PSoC4/Bootloader.c ****             }
 763:.\Generated_Source\PSoC4/Bootloader.c **** 
 764:.\Generated_Source\PSoC4/Bootloader.c ****             calcedChecksum += curByte;
 765:.\Generated_Source\PSoC4/Bootloader.c ****         }
 766:.\Generated_Source\PSoC4/Bootloader.c ****         calcedChecksum = ( uint8 )1u + ( uint8 )(~calcedChecksum);
 767:.\Generated_Source\PSoC4/Bootloader.c ****         if((calcedChecksum != Bootloader_GetMetadata(Bootloader_GET_BTLDB_CHECKSUM, appId)) ||
 768:.\Generated_Source\PSoC4/Bootloader.c ****            (0u == valid))
 769:.\Generated_Source\PSoC4/Bootloader.c ****         {
 770:.\Generated_Source\PSoC4/Bootloader.c ****             return(CYRET_BAD_DATA);
 771:.\Generated_Source\PSoC4/Bootloader.c ****         }
 772:.\Generated_Source\PSoC4/Bootloader.c ****         return(CYRET_SUCCESS);
 773:.\Generated_Source\PSoC4/Bootloader.c **** }
 774:.\Generated_Source\PSoC4/Bootloader.c **** CY_ISR(UART_ISR_0_FUN)
 775:.\Generated_Source\PSoC4/Bootloader.c **** {
 679              		.loc 1 775 0
 680              		.cfi_startproc
 681 0000 70B5     		push	{r4, r5, r6, lr}
 682              		.cfi_def_cfa_offset 16
 683              		.cfi_offset 4, -16
 684              		.cfi_offset 5, -12
 685              		.cfi_offset 6, -8
 686              		.cfi_offset 14, -4
 776:.\Generated_Source\PSoC4/Bootloader.c ****     uint32 resource = UART_0_GetRxInterruptSource();
 687              		.loc 1 776 0
 688 0002 084C     		ldr	r4, .L70
 777:.\Generated_Source\PSoC4/Bootloader.c ****      if(resource & UART_0_INTR_RX_NOT_EMPTY)
 689              		.loc 1 777 0
 690 0004 0425     		mov	r5, #4
 776:.\Generated_Source\PSoC4/Bootloader.c ****     uint32 resource = UART_0_GetRxInterruptSource();
 691              		.loc 1 776 0
ARM GAS  C:\Users\ZHANGM~1\AppData\Local\Temp\ccse5bds.s 			page 29


 692 0006 2368     		ldr	r3, [r4]
 693              	.LVL40:
 694              		.loc 1 777 0
 695 0008 2B42     		tst	r3, r5
 696 000a 0AD0     		beq	.L65
 697              	.LBB4:
 698              	.LBB5:
 778:.\Generated_Source\PSoC4/Bootloader.c ****     {  
 779:.\Generated_Source\PSoC4/Bootloader.c ****                 F_uart_0_tx=0;   
 699              		.loc 1 779 0
 700 000c 064E     		ldr	r6, .L70+4
 701 000e 0023     		mov	r3, #0
 702              	.LVL41:
 703 0010 3370     		strb	r3, [r6]
 780:.\Generated_Source\PSoC4/Bootloader.c **** 	    LoadUARTData((uint8)(UART_0_UartGetByte()& 0xFF));
 704              		.loc 1 780 0
 705 0012 FFF7FEFF 		bl	UART_0_UartGetByte
 706              	.LVL42:
 707 0016 C0B2     		uxtb	r0, r0
 708 0018 FFF7FEFF 		bl	LoadUARTData
 709              	.LVL43:
 781:.\Generated_Source\PSoC4/Bootloader.c ****                 F_uart_0_tx=1;   
 710              		.loc 1 781 0
 711 001c 0123     		mov	r3, #1
 712 001e 3370     		strb	r3, [r6]
 782:.\Generated_Source\PSoC4/Bootloader.c ****       	UART_0_ClearRxInterruptSource(UART_0_INTR_RX_NOT_EMPTY);//清中断源 
 713              		.loc 1 782 0
 714 0020 2560     		str	r5, [r4]
 715              	.L65:
 716              	.LBE5:
 717              	.LBE4:
 783:.\Generated_Source\PSoC4/Bootloader.c ****     }
 784:.\Generated_Source\PSoC4/Bootloader.c ****     
 785:.\Generated_Source\PSoC4/Bootloader.c **** }
 718              		.loc 1 785 0
 719              		@ sp needed
 720 0022 70BD     		pop	{r4, r5, r6, pc}
 721              	.L71:
 722              		.align	2
 723              	.L70:
 724 0024 C00F0640 		.word	1074139072
 725 0028 00000000 		.word	F_uart_0_tx
 726              		.cfi_endproc
 727              	.LFE48:
 728              		.size	UART_ISR_0_FUN, .-UART_ISR_0_FUN
 729              		.section	.text.Buzzer_Fun,"ax",%progbits
 730              		.align	1
 731              		.global	Buzzer_Fun
 732              		.code	16
 733              		.thumb_func
 734              		.type	Buzzer_Fun, %function
 735              	Buzzer_Fun:
 736              	.LFB40:
 419:.\Generated_Source\PSoC4/Bootloader.c **** {
 737              		.loc 1 419 0
 738              		.cfi_startproc
 739 0000 38B5     		push	{r3, r4, r5, lr}
ARM GAS  C:\Users\ZHANGM~1\AppData\Local\Temp\ccse5bds.s 			page 30


 740              		.cfi_def_cfa_offset 16
 741              		.cfi_offset 3, -16
 742              		.cfi_offset 4, -12
 743              		.cfi_offset 5, -8
 744              		.cfi_offset 14, -4
 421:.\Generated_Source\PSoC4/Bootloader.c **** 	if(BUZfkg==1)//按键提示音
 745              		.loc 1 421 0
 746 0002 0C4B     		ldr	r3, .L76
 747 0004 1B78     		ldrb	r3, [r3]
 748 0006 012B     		cmp	r3, #1
 749 0008 12D1     		bne	.L72
 423:.\Generated_Source\PSoC4/Bootloader.c **** 		    if(BuzzerDly>1000000)
 750              		.loc 1 423 0
 751 000a 0B4C     		ldr	r4, .L76+4
 752 000c 0B4B     		ldr	r3, .L76+8
 753 000e 2268     		ldr	r2, [r4]
 754 0010 9A42     		cmp	r2, r3
 755 0012 01D9     		bls	.L74
 425:.\Generated_Source\PSoC4/Bootloader.c **** 		        PWM_Start();
 756              		.loc 1 425 0
 757 0014 FFF7FEFF 		bl	PWM_Start
 758              	.LVL44:
 759              	.L74:
 428:.\Generated_Source\PSoC4/Bootloader.c **** 		    if(BuzzerDly>1005000)
 760              		.loc 1 428 0
 761 0018 094B     		ldr	r3, .L76+12
 762 001a 2268     		ldr	r2, [r4]
 763 001c 9A42     		cmp	r2, r3
 764 001e 04D9     		bls	.L75
 430:.\Generated_Source\PSoC4/Bootloader.c ****                 BuzzerDly=0;
 765              		.loc 1 430 0
 766 0020 0025     		mov	r5, #0
 767 0022 2560     		str	r5, [r4]
 431:.\Generated_Source\PSoC4/Bootloader.c **** 		        PWM_Stop();
 768              		.loc 1 431 0
 769 0024 FFF7FEFF 		bl	PWM_Stop
 770              	.LVL45:
 432:.\Generated_Source\PSoC4/Bootloader.c **** 		        BuzzerDly=0; 
 771              		.loc 1 432 0
 772 0028 2560     		str	r5, [r4]
 773              	.L75:
 435:.\Generated_Source\PSoC4/Bootloader.c ****             BuzzerDly++;
 774              		.loc 1 435 0
 775 002a 2368     		ldr	r3, [r4]
 776 002c 0133     		add	r3, r3, #1
 777 002e 2360     		str	r3, [r4]
 778              	.L72:
 439:.\Generated_Source\PSoC4/Bootloader.c **** }
 779              		.loc 1 439 0
 780              		@ sp needed
 781 0030 38BD     		pop	{r3, r4, r5, pc}
 782              	.L77:
 783 0032 C046     		.align	2
 784              	.L76:
 785 0034 00000000 		.word	BUZfkg
 786 0038 00000000 		.word	BuzzerDly
 787 003c 40420F00 		.word	1000000
ARM GAS  C:\Users\ZHANGM~1\AppData\Local\Temp\ccse5bds.s 			page 31


 788 0040 C8550F00 		.word	1005000
 789              		.cfi_endproc
 790              	.LFE40:
 791              		.size	Buzzer_Fun, .-Buzzer_Fun
 792              		.section	.text.Bootloader_Calc8BitSum,"ax",%progbits
 793              		.align	1
 794              		.global	Bootloader_Calc8BitSum
 795              		.code	16
 796              		.thumb_func
 797              		.type	Bootloader_Calc8BitSum, %function
 798              	Bootloader_Calc8BitSum:
 799              	.LFB41:
 469:.\Generated_Source\PSoC4/Bootloader.c **** {
 800              		.loc 1 469 0
 801              		.cfi_startproc
 802              	.LVL46:
 803 0000 70B5     		push	{r4, r5, r6, lr}
 804              		.cfi_def_cfa_offset 16
 805              		.cfi_offset 4, -16
 806              		.cfi_offset 5, -12
 807              		.cfi_offset 6, -8
 808              		.cfi_offset 14, -4
 469:.\Generated_Source\PSoC4/Bootloader.c **** {
 809              		.loc 1 469 0
 810 0002 051C     		mov	r5, r0
 811 0004 0E1C     		mov	r6, r1
 812 0006 141C     		mov	r4, r2
 471:.\Generated_Source\PSoC4/Bootloader.c ****     CYASSERT(baseAddr == CY_FLASH_BASE);
 813              		.loc 1 471 0
 814 0008 0028     		cmp	r0, #0
 815 000a 02D0     		beq	.L79
 471:.\Generated_Source\PSoC4/Bootloader.c ****     CYASSERT(baseAddr == CY_FLASH_BASE);
 816              		.loc 1 471 0 is_stmt 0 discriminator 1
 817 000c 0020     		mov	r0, #0
 818              	.LVL47:
 819 000e FFF7FEFF 		bl	CyHalt
 820              	.LVL48:
 821              	.L79:
 469:.\Generated_Source\PSoC4/Bootloader.c **** {
 822              		.loc 1 469 0 is_stmt 1 discriminator 1
 823 0012 0020     		mov	r0, #0
 824              	.LVL49:
 825              	.L80:
 474:.\Generated_Source\PSoC4/Bootloader.c ****     while (size > 0u)
 826              		.loc 1 474 0 discriminator 1
 827 0014 002C     		cmp	r4, #0
 828 0016 05D0     		beq	.L85
 476:.\Generated_Source\PSoC4/Bootloader.c ****         size--;
 829              		.loc 1 476 0
 830 0018 013C     		sub	r4, r4, #1
 831              	.LVL50:
 477:.\Generated_Source\PSoC4/Bootloader.c ****         sum += (*((uint8  *)(baseAddr + start + size)));
 832              		.loc 1 477 0
 833 001a AA19     		add	r2, r5, r6
 834 001c 125D     		ldrb	r2, [r2, r4]
 835 001e 8318     		add	r3, r0, r2
 836 0020 D8B2     		uxtb	r0, r3
ARM GAS  C:\Users\ZHANGM~1\AppData\Local\Temp\ccse5bds.s 			page 32


 837              	.LVL51:
 838 0022 F7E7     		b	.L80
 839              	.LVL52:
 840              	.L85:
 481:.\Generated_Source\PSoC4/Bootloader.c **** }
 841              		.loc 1 481 0
 842              		@ sp needed
 843              	.LVL53:
 844              	.LVL54:
 845              	.LVL55:
 846 0024 70BD     		pop	{r4, r5, r6, pc}
 847              		.cfi_endproc
 848              	.LFE41:
 849              		.size	Bootloader_Calc8BitSum, .-Bootloader_Calc8BitSum
 850              		.section	.text.Bootloader_SetFlashByte,"ax",%progbits
 851              		.align	1
 852              		.global	Bootloader_SetFlashByte
 853              		.code	16
 854              		.thumb_func
 855              		.type	Bootloader_SetFlashByte, %function
 856              	Bootloader_SetFlashByte:
 857              	.LFB50:
 786:.\Generated_Source\PSoC4/Bootloader.c **** 
 787:.\Generated_Source\PSoC4/Bootloader.c **** /*******************************************************************************
 788:.\Generated_Source\PSoC4/Bootloader.c **** * Function Name: Bootloader_HostLink
 789:.\Generated_Source\PSoC4/Bootloader.c **** ********************************************************************************
 790:.\Generated_Source\PSoC4/Bootloader.c **** *
 791:.\Generated_Source\PSoC4/Bootloader.c **** * Summary:
 792:.\Generated_Source\PSoC4/Bootloader.c **** *  Causes the bootloader to attempt to read data being transmitted by the
 793:.\Generated_Source\PSoC4/Bootloader.c **** *  host application.  If data is sent from the host, this establishes the
 794:.\Generated_Source\PSoC4/Bootloader.c **** *  communication interface to process all requests.
 795:.\Generated_Source\PSoC4/Bootloader.c **** *
 796:.\Generated_Source\PSoC4/Bootloader.c **** * Parameters:
 797:.\Generated_Source\PSoC4/Bootloader.c **** *  timeOut:
 798:.\Generated_Source\PSoC4/Bootloader.c **** *   The amount of time to listen for data before giving up. Timeout is
 799:.\Generated_Source\PSoC4/Bootloader.c **** *   measured in 10s of ms.  Use 0 for an infinite wait.
 800:.\Generated_Source\PSoC4/Bootloader.c **** *
 801:.\Generated_Source\PSoC4/Bootloader.c **** * Return:
 802:.\Generated_Source\PSoC4/Bootloader.c **** *   None
 803:.\Generated_Source\PSoC4/Bootloader.c **** *
 804:.\Generated_Source\PSoC4/Bootloader.c **** *******************************************************************************/
 805:.\Generated_Source\PSoC4/Bootloader.c **** static void Bootloader_HostLink(void) 
 806:.\Generated_Source\PSoC4/Bootloader.c **** {
 807:.\Generated_Source\PSoC4/Bootloader.c **** 
 808:.\Generated_Source\PSoC4/Bootloader.c **** 
 809:.\Generated_Source\PSoC4/Bootloader.c ****     uint8     CYDATA ackCode;
 810:.\Generated_Source\PSoC4/Bootloader.c ****     uint16   CYDATA pktChecksum;
 811:.\Generated_Source\PSoC4/Bootloader.c ****     uint8     dataBuffer  [Bootloader_SIZEOF_COMMAND_BUFFER];
 812:.\Generated_Source\PSoC4/Bootloader.c ****    // uint8 dataBuffer_0[300],packetBuffer[300];
 813:.\Generated_Source\PSoC4/Bootloader.c ****     uint16 iCommand;
 814:.\Generated_Source\PSoC4/Bootloader.c ****     uint16 row,numberRead;
 815:.\Generated_Source\PSoC4/Bootloader.c ****     uint8     timeOut=20,iicount,itotalcount;
 816:.\Generated_Source\PSoC4/Bootloader.c ****     uint16 tmp;
 817:.\Generated_Source\PSoC4/Bootloader.c ****     uint32 count=0,count00;
 818:.\Generated_Source\PSoC4/Bootloader.c ****     CYBIT F_send,readStat;  ;
 819:.\Generated_Source\PSoC4/Bootloader.c **** 
 820:.\Generated_Source\PSoC4/Bootloader.c ****     /* Initialize communications channel. */
ARM GAS  C:\Users\ZHANGM~1\AppData\Local\Temp\ccse5bds.s 			page 33


 821:.\Generated_Source\PSoC4/Bootloader.c ****     UART_0_Init();
 822:.\Generated_Source\PSoC4/Bootloader.c ****     UART_0_Enable();
 823:.\Generated_Source\PSoC4/Bootloader.c ****     UART_0_Start();
 824:.\Generated_Source\PSoC4/Bootloader.c ****     UART_0_SetCustomInterruptHandler(UART_ISR_0_FUN);  
 825:.\Generated_Source\PSoC4/Bootloader.c ****     UART_0_SpiUartClearRxBuffer();
 826:.\Generated_Source\PSoC4/Bootloader.c ****     UART_0_SpiUartClearTxBuffer();
 827:.\Generated_Source\PSoC4/Bootloader.c ****     //Open_UART_WIFI_ISR();
 828:.\Generated_Source\PSoC4/Bootloader.c ****     /* Enable global interrupts */
 829:.\Generated_Source\PSoC4/Bootloader.c ****     CyGlobalIntEnable;
 830:.\Generated_Source\PSoC4/Bootloader.c ****     F_uart_0_tx=1;
 831:.\Generated_Source\PSoC4/Bootloader.c **** 
 832:.\Generated_Source\PSoC4/Bootloader.c ****     F_send=0;
 833:.\Generated_Source\PSoC4/Bootloader.c ****     CyDelay(100);
 834:.\Generated_Source\PSoC4/Bootloader.c ****     while(1)
 835:.\Generated_Source\PSoC4/Bootloader.c ****     {
 836:.\Generated_Source\PSoC4/Bootloader.c ****         Buzzer_Fun();
 837:.\Generated_Source\PSoC4/Bootloader.c ****         Uart_0_Putchar();
 838:.\Generated_Source\PSoC4/Bootloader.c ****         BUZfkg=1;
 839:.\Generated_Source\PSoC4/Bootloader.c ****         /* The command may be sent along with the last block of data, to program the row. */
 840:.\Generated_Source\PSoC4/Bootloader.c **** 
 841:.\Generated_Source\PSoC4/Bootloader.c ****         if(count>0)
 842:.\Generated_Source\PSoC4/Bootloader.c ****         {
 843:.\Generated_Source\PSoC4/Bootloader.c ****            count--;
 844:.\Generated_Source\PSoC4/Bootloader.c ****         }
 845:.\Generated_Source\PSoC4/Bootloader.c ****         else
 846:.\Generated_Source\PSoC4/Bootloader.c ****         {
 847:.\Generated_Source\PSoC4/Bootloader.c ****             F_send=0;
 848:.\Generated_Source\PSoC4/Bootloader.c ****         }
 849:.\Generated_Source\PSoC4/Bootloader.c ****         if(f_delay==1)
 850:.\Generated_Source\PSoC4/Bootloader.c ****         {
 851:.\Generated_Source\PSoC4/Bootloader.c ****            count00++;
 852:.\Generated_Source\PSoC4/Bootloader.c ****         }
 853:.\Generated_Source\PSoC4/Bootloader.c ****         else
 854:.\Generated_Source\PSoC4/Bootloader.c ****         {
 855:.\Generated_Source\PSoC4/Bootloader.c ****             count00=0;
 856:.\Generated_Source\PSoC4/Bootloader.c ****         }
 857:.\Generated_Source\PSoC4/Bootloader.c ****         if(count00>50000)
 858:.\Generated_Source\PSoC4/Bootloader.c ****         {
 859:.\Generated_Source\PSoC4/Bootloader.c ****                Bootloader_LaunchApplication();
 860:.\Generated_Source\PSoC4/Bootloader.c ****              if(CYRET_SUCCESS == Bootloader_ValidateBootloadable(Bootloader_activeApp))
 861:.\Generated_Source\PSoC4/Bootloader.c ****         {
 862:.\Generated_Source\PSoC4/Bootloader.c **** 
 863:.\Generated_Source\PSoC4/Bootloader.c ****                                                                          Bootloader_SET_RUN_TYPE(Bo
 864:.\Generated_Source\PSoC4/Bootloader.c ****             CySoftwareReset();
 865:.\Generated_Source\PSoC4/Bootloader.c ****         }
 866:.\Generated_Source\PSoC4/Bootloader.c ****         }
 867:.\Generated_Source\PSoC4/Bootloader.c ****         if((F_send==0)&&(f_ack_1==0))
 868:.\Generated_Source\PSoC4/Bootloader.c ****         {
 869:.\Generated_Source\PSoC4/Bootloader.c ****             F_send=1;
 870:.\Generated_Source\PSoC4/Bootloader.c ****             dataBuffer_0[0x00] 	= 0x00u;
 871:.\Generated_Source\PSoC4/Bootloader.c **** 			dataBuffer_0[0x01] 	= 0x80u;
 872:.\Generated_Source\PSoC4/Bootloader.c **** 			SendDataToWifi(	0x00,0xCCC5,&dataBuffer_0[0],0x02);
 873:.\Generated_Source\PSoC4/Bootloader.c ****             count=100000;
 874:.\Generated_Source\PSoC4/Bootloader.c ****         }
 875:.\Generated_Source\PSoC4/Bootloader.c ****         else if((WifiWorkFlag.gcReceComm1OK==1)&&(giWIFIDATALength<=(WIFIBUFLEN-10-1))) 
 876:.\Generated_Source\PSoC4/Bootloader.c ****         {
 877:.\Generated_Source\PSoC4/Bootloader.c ****             BUZfkg=1;
ARM GAS  C:\Users\ZHANGM~1\AppData\Local\Temp\ccse5bds.s 			page 34


 878:.\Generated_Source\PSoC4/Bootloader.c ****             WifiWorkFlag.gcReceComm1OK=0;
 879:.\Generated_Source\PSoC4/Bootloader.c ****             pktChecksum = ATReceBuffer[0].gcATReceData[giWIFIDATALength+10];
 880:.\Generated_Source\PSoC4/Bootloader.c ****             pktChecksum = (pktChecksum<<8)+ATReceBuffer[0].gcATReceData[giWIFIDATALength+11];
 881:.\Generated_Source\PSoC4/Bootloader.c ****             tmp= crc16(&ATReceBuffer[0].gcATReceData[0], giWIFIDATALength+10);
 882:.\Generated_Source\PSoC4/Bootloader.c ****            if(pktChecksum == tmp)
 883:.\Generated_Source\PSoC4/Bootloader.c ****             {
 884:.\Generated_Source\PSoC4/Bootloader.c ****                 itotalcount=ATReceBuffer[0].gcATReceData[3];
 885:.\Generated_Source\PSoC4/Bootloader.c ****                 iicount=ATReceBuffer[0].gcATReceData[4];
 886:.\Generated_Source\PSoC4/Bootloader.c ****                 z_iicount=iicount; 
 887:.\Generated_Source\PSoC4/Bootloader.c ****                 z_itotalcount=itotalcount;
 888:.\Generated_Source\PSoC4/Bootloader.c ****                 iCommand=ATReceBuffer[0].gcATReceData[Bootloader_CMD_ADDR];
 889:.\Generated_Source\PSoC4/Bootloader.c ****                 iCommand=(iCommand<<8u)+ATReceBuffer[0].gcATReceData[Bootloader_CMD_ADDR+1];
 890:.\Generated_Source\PSoC4/Bootloader.c ****                 switch(iCommand)
 891:.\Generated_Source\PSoC4/Bootloader.c ****                 {
 892:.\Generated_Source\PSoC4/Bootloader.c ****                 case 0xccc5:
 893:.\Generated_Source\PSoC4/Bootloader.c ****                 {
 894:.\Generated_Source\PSoC4/Bootloader.c ****                    //BUZfkg=1;
 895:.\Generated_Source\PSoC4/Bootloader.c ****                     f_ack_1=0xff;
 896:.\Generated_Source\PSoC4/Bootloader.c ****                     break;
 897:.\Generated_Source\PSoC4/Bootloader.c ****                 }
 898:.\Generated_Source\PSoC4/Bootloader.c ****                 case Bootloader_COMMAND_PROGRAM:
 899:.\Generated_Source\PSoC4/Bootloader.c ****                 {
 900:.\Generated_Source\PSoC4/Bootloader.c ****                     (void) memcpy(&dataBuffer[0],&ATReceBuffer[0].gcATReceData[10],128);
 901:.\Generated_Source\PSoC4/Bootloader.c ****                     if((iicount==itotalcount)&&(iicount>5))
 902:.\Generated_Source\PSoC4/Bootloader.c ****                         {
 903:.\Generated_Source\PSoC4/Bootloader.c ****                              /* Get FLASH/EEPROM row number inside of the array */
 904:.\Generated_Source\PSoC4/Bootloader.c ****                             row = 255;
 905:.\Generated_Source\PSoC4/Bootloader.c ****                             ackCode = (CYRET_SUCCESS != CySysFlashWriteRow((uint32) row, dataBuffer
 906:.\Generated_Source\PSoC4/Bootloader.c ****                             ? Bootloader_ERR_ROW : CYRET_SUCCESS;   
 907:.\Generated_Source\PSoC4/Bootloader.c **** 
 908:.\Generated_Source\PSoC4/Bootloader.c **** 
 909:.\Generated_Source\PSoC4/Bootloader.c ****                             dataBuffer_0[0x00] 	= 0x00u;
 910:.\Generated_Source\PSoC4/Bootloader.c ****                             dataBuffer_0[0x01] 	= 0x00u;
 911:.\Generated_Source\PSoC4/Bootloader.c ****                             SendDataToWifi(	0x00,Bootloader_COMMAND_PROGRAM,&dataBuffer_0[0],0x02);
 912:.\Generated_Source\PSoC4/Bootloader.c **** 
 913:.\Generated_Source\PSoC4/Bootloader.c **** f_delay=1;
 914:.\Generated_Source\PSoC4/Bootloader.c ****                         }
 915:.\Generated_Source\PSoC4/Bootloader.c ****                     else
 916:.\Generated_Source\PSoC4/Bootloader.c ****                         {
 917:.\Generated_Source\PSoC4/Bootloader.c ****                              /* Get FLASH/EEPROM row number inside of the array */
 918:.\Generated_Source\PSoC4/Bootloader.c ****                             row = iicount+Bootloader_DATAOFFSET;
 919:.\Generated_Source\PSoC4/Bootloader.c ****                             ackCode = (CYRET_SUCCESS != CySysFlashWriteRow((uint32) row, dataBuffer
 920:.\Generated_Source\PSoC4/Bootloader.c ****                             ? Bootloader_ERR_ROW : CYRET_SUCCESS;   
 921:.\Generated_Source\PSoC4/Bootloader.c ****                             dataBuffer_0[0x03] 	= ATReceBuffer[0].gcATReceData[3];
 922:.\Generated_Source\PSoC4/Bootloader.c ****                             dataBuffer_0[0x04] 	= iicount;
 923:.\Generated_Source\PSoC4/Bootloader.c ****                             dataBuffer_0[0x00] 	= 0x00u;
 924:.\Generated_Source\PSoC4/Bootloader.c ****                             dataBuffer_0[0x01] 	= 0x00u;
 925:.\Generated_Source\PSoC4/Bootloader.c ****                             SendDataToWifi(	0x00,Bootloader_COMMAND_PROGRAM,&dataBuffer_0[0],0x02);
 926:.\Generated_Source\PSoC4/Bootloader.c ****                             
 927:.\Generated_Source\PSoC4/Bootloader.c ****                         }    
 928:.\Generated_Source\PSoC4/Bootloader.c ****                  }
 929:.\Generated_Source\PSoC4/Bootloader.c ****                 default:
 930:.\Generated_Source\PSoC4/Bootloader.c ****                 break;
 931:.\Generated_Source\PSoC4/Bootloader.c ****                 }
 932:.\Generated_Source\PSoC4/Bootloader.c **** 
 933:.\Generated_Source\PSoC4/Bootloader.c ****             }
 934:.\Generated_Source\PSoC4/Bootloader.c **** 		}
ARM GAS  C:\Users\ZHANGM~1\AppData\Local\Temp\ccse5bds.s 			page 35


 935:.\Generated_Source\PSoC4/Bootloader.c **** //        if((count00>5000)&&(f_delay==1))
 936:.\Generated_Source\PSoC4/Bootloader.c **** //        {
 937:.\Generated_Source\PSoC4/Bootloader.c **** //
 938:.\Generated_Source\PSoC4/Bootloader.c **** //        }
 939:.\Generated_Source\PSoC4/Bootloader.c ****     }
 940:.\Generated_Source\PSoC4/Bootloader.c **** }
 941:.\Generated_Source\PSoC4/Bootloader.c **** //static void Bootloader_HostLink(void) 
 942:.\Generated_Source\PSoC4/Bootloader.c **** //{
 943:.\Generated_Source\PSoC4/Bootloader.c **** //
 944:.\Generated_Source\PSoC4/Bootloader.c **** //
 945:.\Generated_Source\PSoC4/Bootloader.c **** //    uint8     CYDATA ackCode;
 946:.\Generated_Source\PSoC4/Bootloader.c **** //    uint16   CYDATA pktChecksum;
 947:.\Generated_Source\PSoC4/Bootloader.c **** //    uint8     dataBuffer  [Bootloader_SIZEOF_COMMAND_BUFFER];
 948:.\Generated_Source\PSoC4/Bootloader.c **** //    uint16 iCommand;
 949:.\Generated_Source\PSoC4/Bootloader.c **** //    /* Initialize communications channel. */
 950:.\Generated_Source\PSoC4/Bootloader.c **** //    CyBtldrCommStart();
 951:.\Generated_Source\PSoC4/Bootloader.c **** //    /* Enable global interrupts */
 952:.\Generated_Source\PSoC4/Bootloader.c **** //    CyGlobalIntEnable;
 953:.\Generated_Source\PSoC4/Bootloader.c **** //    while(1)
 954:.\Generated_Source\PSoC4/Bootloader.c **** //    {
 955:.\Generated_Source\PSoC4/Bootloader.c **** //        Buzzer_Fun();
 956:.\Generated_Source\PSoC4/Bootloader.c **** //        Uart_0_Putchar();
 957:.\Generated_Source\PSoC4/Bootloader.c **** //    	 if((WifiWorkFlag.gcReceComm1OK)&&(giWIFIDATALength<=(WIFIBUFLEN-10-1))) 
 958:.\Generated_Source\PSoC4/Bootloader.c **** //    	 {
 959:.\Generated_Source\PSoC4/Bootloader.c **** //                WifiWorkFlag.gcReceComm1OK=0;
 960:.\Generated_Source\PSoC4/Bootloader.c **** //                pktChecksum = ATReceBuffer[0].gcATReceData[Bootloader_CHK_ADDR(giWIFIDATALength+B
 961:.\Generated_Source\PSoC4/Bootloader.c **** //                +ATReceBuffer[0].gcATReceData[Bootloader_CHK_ADDR(giWIFIDATALength+Bootloader_DAT
 962:.\Generated_Source\PSoC4/Bootloader.c **** //                if(pktChecksum != crc16(&ATReceBuffer[0].gcATReceData[0], giWIFIDATALength+10))
 963:.\Generated_Source\PSoC4/Bootloader.c **** //                {
 964:.\Generated_Source\PSoC4/Bootloader.c **** //                    ATReceBuffer[0].gcATReceData[Bootloader_DATA_ADDR] 		= 0x00u;
 965:.\Generated_Source\PSoC4/Bootloader.c **** //                    ATReceBuffer[0].gcATReceData[Bootloader_DATA_ADDR+1] 	= 0x01u;
 966:.\Generated_Source\PSoC4/Bootloader.c **** //                    SendDataToWifi(	0x80,
 967:.\Generated_Source\PSoC4/Bootloader.c **** //                    								Bootloader_COMMAND_PROGRAM,
 968:.\Generated_Source\PSoC4/Bootloader.c **** //                    									&ATReceBuffer[0].gcATReceData[0],
 969:.\Generated_Source\PSoC4/Bootloader.c **** //                    													0x02);
 970:.\Generated_Source\PSoC4/Bootloader.c **** //                }
 971:.\Generated_Source\PSoC4/Bootloader.c **** //                else
 972:.\Generated_Source\PSoC4/Bootloader.c **** //                {
 973:.\Generated_Source\PSoC4/Bootloader.c **** //                    BUZfkg=1;
 974:.\Generated_Source\PSoC4/Bootloader.c **** //                    iCommand=ATReceBuffer[0].gcATReceData[Bootloader_CMD_ADDR+1]<<8u;
 975:.\Generated_Source\PSoC4/Bootloader.c **** //                    iCommand=ATReceBuffer[0].gcATReceData[Bootloader_CMD_ADDR];
 976:.\Generated_Source\PSoC4/Bootloader.c **** //                    switch(iCommand)
 977:.\Generated_Source\PSoC4/Bootloader.c **** //                    {
 978:.\Generated_Source\PSoC4/Bootloader.c **** //                    /***************************************************************************
 979:.\Generated_Source\PSoC4/Bootloader.c **** //                    *   Program / Erase row
 980:.\Generated_Source\PSoC4/Bootloader.c **** //                    ***************************************************************************/
 981:.\Generated_Source\PSoC4/Bootloader.c **** //                    case Bootloader_COMMAND_PROGRAM:
 982:.\Generated_Source\PSoC4/Bootloader.c **** //
 983:.\Generated_Source\PSoC4/Bootloader.c **** //
 984:.\Generated_Source\PSoC4/Bootloader.c **** //                            /* The command may be sent along with the last block of data, to prog
 985:.\Generated_Source\PSoC4/Bootloader.c **** //                        (void) memcpy(&dataBuffer[0],
 986:.\Generated_Source\PSoC4/Bootloader.c **** //                                      &ATReceBuffer[0].gcATReceData[Bootloader_DATA_ADDR],
 987:.\Generated_Source\PSoC4/Bootloader.c **** //                                      (uint16) giWIFIDATALength);
 988:.\Generated_Source\PSoC4/Bootloader.c **** //            	        uint16 row;
 989:.\Generated_Source\PSoC4/Bootloader.c **** //
 990:.\Generated_Source\PSoC4/Bootloader.c **** //                        /* Get FLASH/EEPROM row number inside of the array */
 991:.\Generated_Source\PSoC4/Bootloader.c **** //                        row = ATReceBuffer[0].gcATReceData[4]+Bootloader_DATAOFFSET;
ARM GAS  C:\Users\ZHANGM~1\AppData\Local\Temp\ccse5bds.s 			page 36


 992:.\Generated_Source\PSoC4/Bootloader.c **** //                        ackCode = (CYRET_SUCCESS != CySysFlashWriteRow((uint32) row, dataBuffer))
 993:.\Generated_Source\PSoC4/Bootloader.c **** //                            ? Bootloader_ERR_ROW : CYRET_SUCCESS;
 994:.\Generated_Source\PSoC4/Bootloader.c **** //                        ATReceBuffer[0].gcATReceData[Bootloader_DATA_ADDR] 		= 0x00u;
 995:.\Generated_Source\PSoC4/Bootloader.c **** //                    		ATReceBuffer[0].gcATReceData[Bootloader_DATA_ADDR+1] 	= 0x00u;
 996:.\Generated_Source\PSoC4/Bootloader.c **** //                        SendDataToWifi(	0x80,
 997:.\Generated_Source\PSoC4/Bootloader.c **** //                  						Bootloader_COMMAND_PROGRAM,
 998:.\Generated_Source\PSoC4/Bootloader.c **** //                 						&ATReceBuffer[0].gcATReceData[0],
 999:.\Generated_Source\PSoC4/Bootloader.c **** //	     								0x02);
1000:.\Generated_Source\PSoC4/Bootloader.c **** //                        if((ATReceBuffer[0].gcATReceData[3]==ATReceBuffer[0].gcATReceData[4])&&(A
1001:.\Generated_Source\PSoC4/Bootloader.c **** //                    	{
1002:.\Generated_Source\PSoC4/Bootloader.c **** //                    		 if(CYRET_SUCCESS == Bootloader_ValidateBootloadable(Bootloader_activeApp))
1003:.\Generated_Source\PSoC4/Bootloader.c **** //                            {
1004:.\Generated_Source\PSoC4/Bootloader.c **** //                                Bootloader_SET_RUN_TYPE(Bootloader_SCHEDULE_BTLDB);
1005:.\Generated_Source\PSoC4/Bootloader.c **** //                                CySoftwareReset();
1006:.\Generated_Source\PSoC4/Bootloader.c **** //                            }
1007:.\Generated_Source\PSoC4/Bootloader.c **** //                    	}
1008:.\Generated_Source\PSoC4/Bootloader.c **** //            	                    
1009:.\Generated_Source\PSoC4/Bootloader.c **** //
1010:.\Generated_Source\PSoC4/Bootloader.c **** //                        
1011:.\Generated_Source\PSoC4/Bootloader.c **** //
1012:.\Generated_Source\PSoC4/Bootloader.c **** //                        break;
1013:.\Generated_Source\PSoC4/Bootloader.c **** //                    /***************************************************************************
1014:.\Generated_Source\PSoC4/Bootloader.c **** //                    *   Unsupported command
1015:.\Generated_Source\PSoC4/Bootloader.c **** //                    ***************************************************************************/
1016:.\Generated_Source\PSoC4/Bootloader.c **** //                    default:
1017:.\Generated_Source\PSoC4/Bootloader.c **** //                        break;
1018:.\Generated_Source\PSoC4/Bootloader.c **** //                    }
1019:.\Generated_Source\PSoC4/Bootloader.c **** //                } 
1020:.\Generated_Source\PSoC4/Bootloader.c **** //          }  
1021:.\Generated_Source\PSoC4/Bootloader.c **** //       
1022:.\Generated_Source\PSoC4/Bootloader.c **** //
1023:.\Generated_Source\PSoC4/Bootloader.c **** //
1024:.\Generated_Source\PSoC4/Bootloader.c **** //    }
1025:.\Generated_Source\PSoC4/Bootloader.c **** //}
1026:.\Generated_Source\PSoC4/Bootloader.c **** 
1027:.\Generated_Source\PSoC4/Bootloader.c **** 
1028:.\Generated_Source\PSoC4/Bootloader.c **** 
1029:.\Generated_Source\PSoC4/Bootloader.c **** 
1030:.\Generated_Source\PSoC4/Bootloader.c **** 
1031:.\Generated_Source\PSoC4/Bootloader.c **** /*******************************************************************************
1032:.\Generated_Source\PSoC4/Bootloader.c **** * Function Name: Bootloader_SetFlashByte
1033:.\Generated_Source\PSoC4/Bootloader.c **** ********************************************************************************
1034:.\Generated_Source\PSoC4/Bootloader.c **** *
1035:.\Generated_Source\PSoC4/Bootloader.c **** * Summary:
1036:.\Generated_Source\PSoC4/Bootloader.c **** *  Writes a byte to the specified Flash memory location.
1037:.\Generated_Source\PSoC4/Bootloader.c **** *
1038:.\Generated_Source\PSoC4/Bootloader.c **** * Parameters:
1039:.\Generated_Source\PSoC4/Bootloader.c **** *  address:
1040:.\Generated_Source\PSoC4/Bootloader.c **** *      The address in Flash memory where data will be written
1041:.\Generated_Source\PSoC4/Bootloader.c **** *
1042:.\Generated_Source\PSoC4/Bootloader.c **** *  runType:
1043:.\Generated_Source\PSoC4/Bootloader.c **** *      Byte to be written
1044:.\Generated_Source\PSoC4/Bootloader.c **** *
1045:.\Generated_Source\PSoC4/Bootloader.c **** * Return:
1046:.\Generated_Source\PSoC4/Bootloader.c **** *  None
1047:.\Generated_Source\PSoC4/Bootloader.c **** *
1048:.\Generated_Source\PSoC4/Bootloader.c **** *******************************************************************************/
ARM GAS  C:\Users\ZHANGM~1\AppData\Local\Temp\ccse5bds.s 			page 37


1049:.\Generated_Source\PSoC4/Bootloader.c **** void Bootloader_SetFlashByte(uint32 address, uint8 runType) 
1050:.\Generated_Source\PSoC4/Bootloader.c **** {
 858              		.loc 1 1050 0
 859              		.cfi_startproc
 860              	.LVL56:
 861 0000 70B5     		push	{r4, r5, r6, lr}
 862              		.cfi_def_cfa_offset 16
 863              		.cfi_offset 4, -16
 864              		.cfi_offset 5, -12
 865              		.cfi_offset 6, -8
 866              		.cfi_offset 14, -4
1051:.\Generated_Source\PSoC4/Bootloader.c ****     uint32 flsAddr = address - CYDEV_FLASH_BASE;
1052:.\Generated_Source\PSoC4/Bootloader.c ****     uint8  rowData[CYDEV_FLS_ROW_SIZE];
1053:.\Generated_Source\PSoC4/Bootloader.c ****     uint16 rowNum = ( uint16 )(flsAddr / CYDEV_FLS_ROW_SIZE);
1054:.\Generated_Source\PSoC4/Bootloader.c ****     uint32 baseAddr = address - (address % CYDEV_FLS_ROW_SIZE);
 867              		.loc 1 1054 0
 868 0002 7F23     		mov	r3, #127
 869 0004 051C     		mov	r5, r0
 870 0006 9D43     		bic	r5, r3
1050:.\Generated_Source\PSoC4/Bootloader.c **** {
 871              		.loc 1 1050 0
 872 0008 A0B0     		sub	sp, sp, #128
 873              		.cfi_def_cfa_offset 144
1053:.\Generated_Source\PSoC4/Bootloader.c ****     uint16 rowNum = ( uint16 )(flsAddr / CYDEV_FLS_ROW_SIZE);
 874              		.loc 1 1053 0
 875 000a C209     		lsr	r2, r0, #7
 876              	.LVL57:
 877              		.loc 1 1054 0
 878 000c 0023     		mov	r3, #0
 879              	.LVL58:
 880              	.L88:
1055:.\Generated_Source\PSoC4/Bootloader.c ****     uint16 idx;
1056:.\Generated_Source\PSoC4/Bootloader.c **** 
1057:.\Generated_Source\PSoC4/Bootloader.c ****     for(idx = 0u; idx < CYDEV_FLS_ROW_SIZE; idx++)
1058:.\Generated_Source\PSoC4/Bootloader.c ****     {
1059:.\Generated_Source\PSoC4/Bootloader.c ****         rowData[idx] = Bootloader_GET_CODE_BYTE(baseAddr + idx);
 881              		.loc 1 1059 0 discriminator 2
 882 000e 5C5D     		ldrb	r4, [r3, r5]
 883 0010 6E46     		mov	r6, sp
 884 0012 9C55     		strb	r4, [r3, r6]
 885              	.LVL59:
 886 0014 0133     		add	r3, r3, #1
 887              	.LVL60:
1057:.\Generated_Source\PSoC4/Bootloader.c ****     for(idx = 0u; idx < CYDEV_FLS_ROW_SIZE; idx++)
 888              		.loc 1 1057 0 discriminator 2
 889 0016 802B     		cmp	r3, #128
 890 0018 F9D1     		bne	.L88
1060:.\Generated_Source\PSoC4/Bootloader.c ****     }
1061:.\Generated_Source\PSoC4/Bootloader.c **** 
1062:.\Generated_Source\PSoC4/Bootloader.c ****     rowData[address % CYDEV_FLS_ROW_SIZE] = runType;
 891              		.loc 1 1062 0
 892 001a 7F23     		mov	r3, #127
 893              	.LVL61:
 894 001c 1840     		and	r0, r3
 895              	.LVL62:
 896 001e 3154     		strb	r1, [r6, r0]
1063:.\Generated_Source\PSoC4/Bootloader.c ****     (void) CySysFlashWriteRow((uint32) rowNum, rowData);
ARM GAS  C:\Users\ZHANGM~1\AppData\Local\Temp\ccse5bds.s 			page 38


 897              		.loc 1 1063 0
 898 0020 90B2     		uxth	r0, r2
 899 0022 6946     		mov	r1, sp
 900              	.LVL63:
 901 0024 FFF7FEFF 		bl	CySysFlashWriteRow
 902              	.LVL64:
1064:.\Generated_Source\PSoC4/Bootloader.c **** 
1065:.\Generated_Source\PSoC4/Bootloader.c **** 
1066:.\Generated_Source\PSoC4/Bootloader.c **** 
1067:.\Generated_Source\PSoC4/Bootloader.c **** }
 903              		.loc 1 1067 0
 904 0028 20B0     		add	sp, sp, #128
 905              		@ sp needed
 906              	.LVL65:
 907 002a 70BD     		pop	{r4, r5, r6, pc}
 908              		.cfi_endproc
 909              	.LFE50:
 910              		.size	Bootloader_SetFlashByte, .-Bootloader_SetFlashByte
 911              		.section	.text.Bootloader_GetMetadata,"ax",%progbits
 912              		.align	1
 913              		.global	Bootloader_GetMetadata
 914              		.code	16
 915              		.thumb_func
 916              		.type	Bootloader_GetMetadata, %function
 917              	Bootloader_GetMetadata:
 918              	.LFB51:
1068:.\Generated_Source\PSoC4/Bootloader.c **** 
1069:.\Generated_Source\PSoC4/Bootloader.c **** 
1070:.\Generated_Source\PSoC4/Bootloader.c **** /*******************************************************************************
1071:.\Generated_Source\PSoC4/Bootloader.c **** * Function Name: Bootloader_GetMetadata
1072:.\Generated_Source\PSoC4/Bootloader.c **** ********************************************************************************
1073:.\Generated_Source\PSoC4/Bootloader.c **** *
1074:.\Generated_Source\PSoC4/Bootloader.c **** * Summary:
1075:.\Generated_Source\PSoC4/Bootloader.c **** *  Returns the value of the specified field of the metadata section.
1076:.\Generated_Source\PSoC4/Bootloader.c **** *
1077:.\Generated_Source\PSoC4/Bootloader.c **** * Parameters:
1078:.\Generated_Source\PSoC4/Bootloader.c **** *  field:
1079:.\Generated_Source\PSoC4/Bootloader.c **** *   The field to get data from:
1080:.\Generated_Source\PSoC4/Bootloader.c **** *   Bootloader_GET_BTLDB_CHECKSUM    - Bootloadable Application Checksum
1081:.\Generated_Source\PSoC4/Bootloader.c **** *   Bootloader_GET_BTLDB_ADDR        - Bootloadable Application Start
1082:.\Generated_Source\PSoC4/Bootloader.c **** *                                            Routine Address
1083:.\Generated_Source\PSoC4/Bootloader.c **** *   Bootloader_GET_BTLDR_LAST_ROW    - Bootloader Last Flash Row
1084:.\Generated_Source\PSoC4/Bootloader.c **** *   Bootloader_GET_BTLDB_LENGTH      - Bootloadable Application Length
1085:.\Generated_Source\PSoC4/Bootloader.c **** *   Bootloader_GET_BTLDB_ACTIVE      - Active Bootloadable Application
1086:.\Generated_Source\PSoC4/Bootloader.c **** *   Bootloader_GET_BTLDB_STATUS      - Bootloadable Application
1087:.\Generated_Source\PSoC4/Bootloader.c **** *                                            Verification Status
1088:.\Generated_Source\PSoC4/Bootloader.c **** *   Bootloader_GET_BTLDR_APP_VERSION - Bootloader Application Version
1089:.\Generated_Source\PSoC4/Bootloader.c **** *   Bootloader_GET_BTLDB_APP_VERSION - Bootloadable Application Version
1090:.\Generated_Source\PSoC4/Bootloader.c **** *   Bootloader_GET_BTLDB_APP_ID      - Bootloadable Application ID
1091:.\Generated_Source\PSoC4/Bootloader.c **** *   Bootloader_GET_BTLDB_APP_CUST_ID - Bootloadable Application Custom ID
1092:.\Generated_Source\PSoC4/Bootloader.c **** *
1093:.\Generated_Source\PSoC4/Bootloader.c **** *  appId:
1094:.\Generated_Source\PSoC4/Bootloader.c **** *   Number of the bootlodable application. Should be 0 for the normal
1095:.\Generated_Source\PSoC4/Bootloader.c **** *   bootloader and 0 or 1 for the Multi-Application bootloader.
1096:.\Generated_Source\PSoC4/Bootloader.c **** *
1097:.\Generated_Source\PSoC4/Bootloader.c **** * Return:
1098:.\Generated_Source\PSoC4/Bootloader.c **** *  The value of the specified field of the specified application.
ARM GAS  C:\Users\ZHANGM~1\AppData\Local\Temp\ccse5bds.s 			page 39


1099:.\Generated_Source\PSoC4/Bootloader.c **** *
1100:.\Generated_Source\PSoC4/Bootloader.c **** *******************************************************************************/
1101:.\Generated_Source\PSoC4/Bootloader.c **** uint32 Bootloader_GetMetadata(uint8 field, uint8 appId)
1102:.\Generated_Source\PSoC4/Bootloader.c **** {
 919              		.loc 1 1102 0
 920              		.cfi_startproc
 921              	.LVL66:
1103:.\Generated_Source\PSoC4/Bootloader.c ****     uint32 fieldPtr;
1104:.\Generated_Source\PSoC4/Bootloader.c ****     uint8  fieldSize = 2u;
1105:.\Generated_Source\PSoC4/Bootloader.c ****     uint32 result = 0u;
1106:.\Generated_Source\PSoC4/Bootloader.c **** 
1107:.\Generated_Source\PSoC4/Bootloader.c ****     switch (field)
 922              		.loc 1 1107 0
 923 0000 0138     		sub	r0, r0, #1
 924              	.LVL67:
1102:.\Generated_Source\PSoC4/Bootloader.c **** {
 925              		.loc 1 1102 0
 926 0002 08B5     		push	{r3, lr}
 927              		.cfi_def_cfa_offset 8
 928              		.cfi_offset 3, -8
 929              		.cfi_offset 14, -4
 930              		.loc 1 1107 0
 931 0004 0928     		cmp	r0, #9
 932 0006 2AD8     		bhi	.L90
 933 0008 C901     		lsl	r1, r1, #7
 934              	.LVL68:
1108:.\Generated_Source\PSoC4/Bootloader.c ****     {
1109:.\Generated_Source\PSoC4/Bootloader.c ****     case Bootloader_GET_BTLDB_CHECKSUM:
1110:.\Generated_Source\PSoC4/Bootloader.c ****         fieldPtr  = Bootloader_MD_BTLDB_CHECKSUM_OFFSET(appId);
1111:.\Generated_Source\PSoC4/Bootloader.c ****         fieldSize = 1u;
1112:.\Generated_Source\PSoC4/Bootloader.c ****         break;
1113:.\Generated_Source\PSoC4/Bootloader.c **** 
1114:.\Generated_Source\PSoC4/Bootloader.c ****     case Bootloader_GET_BTLDB_ADDR:
1115:.\Generated_Source\PSoC4/Bootloader.c ****         fieldPtr  = Bootloader_MD_BTLDB_ADDR_OFFSET(appId);
1116:.\Generated_Source\PSoC4/Bootloader.c ****     #if(!CY_PSOC3)
1117:.\Generated_Source\PSoC4/Bootloader.c ****         fieldSize = 4u;
1118:.\Generated_Source\PSoC4/Bootloader.c ****     #endif  /* (!CY_PSOC3) */
1119:.\Generated_Source\PSoC4/Bootloader.c ****         break;
1120:.\Generated_Source\PSoC4/Bootloader.c **** 
1121:.\Generated_Source\PSoC4/Bootloader.c ****     case Bootloader_GET_BTLDR_LAST_ROW:
1122:.\Generated_Source\PSoC4/Bootloader.c ****         fieldPtr  = Bootloader_MD_BTLDR_LAST_ROW_OFFSET(appId);
1123:.\Generated_Source\PSoC4/Bootloader.c ****         break;
1124:.\Generated_Source\PSoC4/Bootloader.c **** 
1125:.\Generated_Source\PSoC4/Bootloader.c ****     case Bootloader_GET_BTLDB_LENGTH:
1126:.\Generated_Source\PSoC4/Bootloader.c ****         fieldPtr  = Bootloader_MD_BTLDB_LENGTH_OFFSET(appId);
1127:.\Generated_Source\PSoC4/Bootloader.c ****     #if(!CY_PSOC3)
1128:.\Generated_Source\PSoC4/Bootloader.c ****         fieldSize = 4u;
1129:.\Generated_Source\PSoC4/Bootloader.c ****     #endif  /* (!CY_PSOC3) */
1130:.\Generated_Source\PSoC4/Bootloader.c ****         break;
1131:.\Generated_Source\PSoC4/Bootloader.c **** 
1132:.\Generated_Source\PSoC4/Bootloader.c ****     case Bootloader_GET_BTLDB_ACTIVE:
1133:.\Generated_Source\PSoC4/Bootloader.c ****         fieldPtr  = Bootloader_MD_BTLDB_ACTIVE_OFFSET(appId);
1134:.\Generated_Source\PSoC4/Bootloader.c ****         fieldSize = 1u;
1135:.\Generated_Source\PSoC4/Bootloader.c ****         break;
1136:.\Generated_Source\PSoC4/Bootloader.c **** 
1137:.\Generated_Source\PSoC4/Bootloader.c ****     case Bootloader_GET_BTLDB_STATUS:
1138:.\Generated_Source\PSoC4/Bootloader.c ****         fieldPtr  = Bootloader_MD_BTLDB_VERIFIED_OFFSET(appId);
ARM GAS  C:\Users\ZHANGM~1\AppData\Local\Temp\ccse5bds.s 			page 40


1139:.\Generated_Source\PSoC4/Bootloader.c ****         fieldSize = 1u;
1140:.\Generated_Source\PSoC4/Bootloader.c ****         break;
1141:.\Generated_Source\PSoC4/Bootloader.c **** 
1142:.\Generated_Source\PSoC4/Bootloader.c ****     case Bootloader_GET_BTLDB_APP_VERSION:
1143:.\Generated_Source\PSoC4/Bootloader.c ****         fieldPtr  = Bootloader_MD_BTLDB_APP_VERSION_OFFSET(appId);
1144:.\Generated_Source\PSoC4/Bootloader.c ****         break;
1145:.\Generated_Source\PSoC4/Bootloader.c **** 
1146:.\Generated_Source\PSoC4/Bootloader.c ****     case Bootloader_GET_BTLDR_APP_VERSION:
1147:.\Generated_Source\PSoC4/Bootloader.c ****         fieldPtr  = Bootloader_MD_BTLDR_APP_VERSION_OFFSET(appId);
1148:.\Generated_Source\PSoC4/Bootloader.c ****         break;
1149:.\Generated_Source\PSoC4/Bootloader.c **** 
1150:.\Generated_Source\PSoC4/Bootloader.c ****     case Bootloader_GET_BTLDB_APP_ID:
1151:.\Generated_Source\PSoC4/Bootloader.c ****         fieldPtr  = Bootloader_MD_BTLDB_APP_ID_OFFSET(appId);
1152:.\Generated_Source\PSoC4/Bootloader.c ****         break;
1153:.\Generated_Source\PSoC4/Bootloader.c **** 
1154:.\Generated_Source\PSoC4/Bootloader.c ****     case Bootloader_GET_BTLDB_APP_CUST_ID:
1155:.\Generated_Source\PSoC4/Bootloader.c ****         fieldPtr  = Bootloader_MD_BTLDB_APP_CUST_ID_OFFSET(appId);
 935              		.loc 1 1155 0
 936 000a 4942     		neg	r1, r1
1107:.\Generated_Source\PSoC4/Bootloader.c ****     switch (field)
 937              		.loc 1 1107 0
 938 000c FFF7FEFF 		bl	__gnu_thumb1_case_uqi
 939              	.L92:
 940 0010 05       		.byte	(.L91-.L92)/2
 941 0011 07       		.byte	(.L93-.L92)/2
 942 0012 09       		.byte	(.L94-.L92)/2
 943 0013 0B       		.byte	(.L95-.L92)/2
 944 0014 0D       		.byte	(.L96-.L92)/2
 945 0015 0F       		.byte	(.L97-.L92)/2
 946 0016 16       		.byte	(.L98-.L92)/2
 947 0017 14       		.byte	(.L99-.L92)/2
 948 0018 18       		.byte	(.L100-.L92)/2
 949 0019 1B       		.byte	(.L101-.L92)/2
 950              		.p2align 1
 951              	.L91:
1110:.\Generated_Source\PSoC4/Bootloader.c ****         fieldPtr  = Bootloader_MD_BTLDB_CHECKSUM_OFFSET(appId);
 952              		.loc 1 1110 0
 953 001a 154B     		ldr	r3, .L111
 954 001c 08E0     		b	.L107
 955              	.L93:
1115:.\Generated_Source\PSoC4/Bootloader.c ****         fieldPtr  = Bootloader_MD_BTLDB_ADDR_OFFSET(appId);
 956              		.loc 1 1115 0
 957 001e 154B     		ldr	r3, .L111+4
 958 0020 12E0     		b	.L109
 959              	.L94:
1122:.\Generated_Source\PSoC4/Bootloader.c ****         fieldPtr  = Bootloader_MD_BTLDR_LAST_ROW_OFFSET(appId);
 960              		.loc 1 1122 0
 961 0022 154B     		ldr	r3, .L111+8
 962 0024 0DE0     		b	.L108
 963              	.L95:
1126:.\Generated_Source\PSoC4/Bootloader.c ****         fieldPtr  = Bootloader_MD_BTLDB_LENGTH_OFFSET(appId);
 964              		.loc 1 1126 0
 965 0026 154B     		ldr	r3, .L111+12
 966 0028 0EE0     		b	.L109
 967              	.L96:
1133:.\Generated_Source\PSoC4/Bootloader.c ****         fieldPtr  = Bootloader_MD_BTLDB_ACTIVE_OFFSET(appId);
 968              		.loc 1 1133 0
ARM GAS  C:\Users\ZHANGM~1\AppData\Local\Temp\ccse5bds.s 			page 41


 969 002a 154B     		ldr	r3, .L111+16
 970 002c 00E0     		b	.L107
 971              	.L97:
1138:.\Generated_Source\PSoC4/Bootloader.c ****         fieldPtr  = Bootloader_MD_BTLDB_VERIFIED_OFFSET(appId);
 972              		.loc 1 1138 0
 973 002e 154B     		ldr	r3, .L111+20
 974              	.L107:
 975 0030 C918     		add	r1, r1, r3
 976              	.LVL69:
1156:.\Generated_Source\PSoC4/Bootloader.c ****         fieldSize = 4u;
1157:.\Generated_Source\PSoC4/Bootloader.c ****         break;
1158:.\Generated_Source\PSoC4/Bootloader.c **** 
1159:.\Generated_Source\PSoC4/Bootloader.c ****     default:
1160:.\Generated_Source\PSoC4/Bootloader.c ****         /* Should never be here */
1161:.\Generated_Source\PSoC4/Bootloader.c ****         CYASSERT(0u != 0u);
1162:.\Generated_Source\PSoC4/Bootloader.c ****         fieldPtr  = 0u;
1163:.\Generated_Source\PSoC4/Bootloader.c ****         break;
1164:.\Generated_Source\PSoC4/Bootloader.c ****     }
1165:.\Generated_Source\PSoC4/Bootloader.c **** 
1166:.\Generated_Source\PSoC4/Bootloader.c **** 
1167:.\Generated_Source\PSoC4/Bootloader.c ****     if (1u == fieldSize)
1168:.\Generated_Source\PSoC4/Bootloader.c ****     {
1169:.\Generated_Source\PSoC4/Bootloader.c ****         result =  (uint32) CY_GET_XTND_REG8((volatile uint8 *)fieldPtr);
 977              		.loc 1 1169 0
 978 0032 0878     		ldrb	r0, [r1]
 979 0034 C0B2     		uxtb	r0, r0
 980              	.LVL70:
 981 0036 1AE0     		b	.L106
 982              	.LVL71:
 983              	.L99:
1143:.\Generated_Source\PSoC4/Bootloader.c ****         fieldPtr  = Bootloader_MD_BTLDB_APP_VERSION_OFFSET(appId);
 984              		.loc 1 1143 0
 985 0038 134B     		ldr	r3, .L111+24
 986 003a 02E0     		b	.L108
 987              	.L98:
1147:.\Generated_Source\PSoC4/Bootloader.c ****         fieldPtr  = Bootloader_MD_BTLDR_APP_VERSION_OFFSET(appId);
 988              		.loc 1 1147 0
 989 003c 134B     		ldr	r3, .L111+28
 990 003e 00E0     		b	.L108
 991              	.L100:
1151:.\Generated_Source\PSoC4/Bootloader.c ****         fieldPtr  = Bootloader_MD_BTLDB_APP_ID_OFFSET(appId);
 992              		.loc 1 1151 0
 993 0040 134B     		ldr	r3, .L111+32
 994              	.L108:
 995 0042 C918     		add	r1, r1, r3
 996              	.LVL72:
1152:.\Generated_Source\PSoC4/Bootloader.c ****         break;
 997              		.loc 1 1152 0
 998 0044 0FE0     		b	.L104
 999              	.LVL73:
 1000              	.L101:
1155:.\Generated_Source\PSoC4/Bootloader.c ****         fieldPtr  = Bootloader_MD_BTLDB_APP_CUST_ID_OFFSET(appId);
 1001              		.loc 1 1155 0
 1002 0046 134B     		ldr	r3, .L111+36
 1003              	.L109:
 1004 0048 C918     		add	r1, r1, r3
 1005              	.LVL74:
ARM GAS  C:\Users\ZHANGM~1\AppData\Local\Temp\ccse5bds.s 			page 42


1170:.\Generated_Source\PSoC4/Bootloader.c ****     }
1171:.\Generated_Source\PSoC4/Bootloader.c **** 
1172:.\Generated_Source\PSoC4/Bootloader.c ****     /* PSoC 4 and PSoC 5: Little-endian */
1173:.\Generated_Source\PSoC4/Bootloader.c **** 
1174:.\Generated_Source\PSoC4/Bootloader.c ****         if (2u == fieldSize)
1175:.\Generated_Source\PSoC4/Bootloader.c ****         {
1176:.\Generated_Source\PSoC4/Bootloader.c ****             result =  (uint32) CY_GET_XTND_REG8((volatile uint8 *) (fieldPtr     ));
1177:.\Generated_Source\PSoC4/Bootloader.c ****             result |= (uint32) CY_GET_XTND_REG8((volatile uint8 *) (fieldPtr + 1u)) <<  8u;
1178:.\Generated_Source\PSoC4/Bootloader.c ****         }
1179:.\Generated_Source\PSoC4/Bootloader.c **** 
1180:.\Generated_Source\PSoC4/Bootloader.c ****         if (4u == fieldSize)
1181:.\Generated_Source\PSoC4/Bootloader.c ****         {
1182:.\Generated_Source\PSoC4/Bootloader.c ****             result =  (uint32) CY_GET_XTND_REG8((volatile uint8 *)(fieldPtr     ));
 1006              		.loc 1 1182 0
 1007 004a 0B78     		ldrb	r3, [r1]
 1008              	.LVL75:
1183:.\Generated_Source\PSoC4/Bootloader.c ****             result |= (uint32) CY_GET_XTND_REG8((volatile uint8 *)(fieldPtr + 1u)) <<  8u;
 1009              		.loc 1 1183 0
 1010 004c 4878     		ldrb	r0, [r1, #1]
 1011              	.LVL76:
1184:.\Generated_Source\PSoC4/Bootloader.c ****             result |= (uint32) CY_GET_XTND_REG8((volatile uint8 *)(fieldPtr + 2u)) << 16u;
 1012              		.loc 1 1184 0
 1013 004e 8A78     		ldrb	r2, [r1, #2]
1183:.\Generated_Source\PSoC4/Bootloader.c ****             result |= (uint32) CY_GET_XTND_REG8((volatile uint8 *)(fieldPtr + 1u)) <<  8u;
 1014              		.loc 1 1183 0
 1015 0050 0002     		lsl	r0, r0, #8
 1016              	.LVL77:
 1017              		.loc 1 1184 0
 1018 0052 1204     		lsl	r2, r2, #16
1183:.\Generated_Source\PSoC4/Bootloader.c ****             result |= (uint32) CY_GET_XTND_REG8((volatile uint8 *)(fieldPtr + 1u)) <<  8u;
 1019              		.loc 1 1183 0
 1020 0054 1043     		orr	r0, r2
 1021              		.loc 1 1184 0
 1022 0056 1843     		orr	r0, r3
 1023              	.LVL78:
1185:.\Generated_Source\PSoC4/Bootloader.c ****             result |= (uint32) CY_GET_XTND_REG8((volatile uint8 *)(fieldPtr + 3u)) << 24u;
 1024              		.loc 1 1185 0
 1025 0058 CB78     		ldrb	r3, [r1, #3]
 1026 005a 1B06     		lsl	r3, r3, #24
 1027 005c 06E0     		b	.L110
 1028              	.LVL79:
 1029              	.L90:
1161:.\Generated_Source\PSoC4/Bootloader.c ****         CYASSERT(0u != 0u);
 1030              		.loc 1 1161 0 discriminator 1
 1031 005e 0020     		mov	r0, #0
 1032 0060 FFF7FEFF 		bl	CyHalt
 1033              	.LVL80:
1162:.\Generated_Source\PSoC4/Bootloader.c ****         fieldPtr  = 0u;
 1034              		.loc 1 1162 0 discriminator 1
 1035 0064 0021     		mov	r1, #0
 1036              	.LVL81:
 1037              	.L104:
1176:.\Generated_Source\PSoC4/Bootloader.c ****             result =  (uint32) CY_GET_XTND_REG8((volatile uint8 *) (fieldPtr     ));
 1038              		.loc 1 1176 0
 1039 0066 0B78     		ldrb	r3, [r1]
 1040              	.LVL82:
1177:.\Generated_Source\PSoC4/Bootloader.c ****             result |= (uint32) CY_GET_XTND_REG8((volatile uint8 *) (fieldPtr + 1u)) <<  8u;
ARM GAS  C:\Users\ZHANGM~1\AppData\Local\Temp\ccse5bds.s 			page 43


 1041              		.loc 1 1177 0
 1042 0068 4878     		ldrb	r0, [r1, #1]
 1043 006a 0002     		lsl	r0, r0, #8
 1044              	.LVL83:
 1045              	.L110:
 1046              		.loc 1 1185 0
 1047 006c 1843     		orr	r0, r3
 1048              	.LVL84:
 1049              	.L106:
1186:.\Generated_Source\PSoC4/Bootloader.c ****         }
1187:.\Generated_Source\PSoC4/Bootloader.c **** 
1188:.\Generated_Source\PSoC4/Bootloader.c ****     
1189:.\Generated_Source\PSoC4/Bootloader.c **** 
1190:.\Generated_Source\PSoC4/Bootloader.c ****     return (result);
1191:.\Generated_Source\PSoC4/Bootloader.c **** }
 1050              		.loc 1 1191 0
 1051              		@ sp needed
 1052 006e 08BD     		pop	{r3, pc}
 1053              	.L112:
 1054              		.align	2
 1055              	.L111:
 1056 0070 C07F0000 		.word	32704
 1057 0074 C17F0000 		.word	32705
 1058 0078 C57F0000 		.word	32709
 1059 007c C97F0000 		.word	32713
 1060 0080 D07F0000 		.word	32720
 1061 0084 D17F0000 		.word	32721
 1062 0088 D67F0000 		.word	32726
 1063 008c D27F0000 		.word	32722
 1064 0090 D47F0000 		.word	32724
 1065 0094 D87F0000 		.word	32728
 1066              		.cfi_endproc
 1067              	.LFE51:
 1068              		.size	Bootloader_GetMetadata, .-Bootloader_GetMetadata
 1069              		.section	.text.CyBtldr_CheckLaunch,"ax",%progbits
 1070              		.align	1
 1071              		.global	CyBtldr_CheckLaunch
 1072              		.code	16
 1073              		.thumb_func
 1074              		.type	CyBtldr_CheckLaunch, %function
 1075              	CyBtldr_CheckLaunch:
 1076              	.LFB45:
 650:.\Generated_Source\PSoC4/Bootloader.c **** {
 1077              		.loc 1 650 0
 1078              		.cfi_startproc
 659:.\Generated_Source\PSoC4/Bootloader.c ****     if (0u == (Bootloader_RES_CAUSE_REG & Bootloader_RES_CAUSE_RESET_SOFT))
 1079              		.loc 1 659 0
 1080 0000 0C4B     		ldr	r3, .L121
 650:.\Generated_Source\PSoC4/Bootloader.c **** {
 1081              		.loc 1 650 0
 1082 0002 10B5     		push	{r4, lr}
 1083              		.cfi_def_cfa_offset 8
 1084              		.cfi_offset 4, -8
 1085              		.cfi_offset 14, -4
 659:.\Generated_Source\PSoC4/Bootloader.c ****     if (0u == (Bootloader_RES_CAUSE_REG & Bootloader_RES_CAUSE_RESET_SOFT))
 1086              		.loc 1 659 0
 1087 0004 1A68     		ldr	r2, [r3]
ARM GAS  C:\Users\ZHANGM~1\AppData\Local\Temp\ccse5bds.s 			page 44


 1088 0006 1023     		mov	r3, #16
 1089 0008 1A40     		and	r2, r3
 1090 000a 0B4B     		ldr	r3, .L121+4
 1091 000c 00D1     		bne	.L114
 661:.\Generated_Source\PSoC4/Bootloader.c ****         cyBtldrRunType = 0u;
 1092              		.loc 1 661 0
 1093 000e 1A60     		str	r2, [r3]
 1094              	.L114:
 667:.\Generated_Source\PSoC4/Bootloader.c ****     if (Bootloader_GET_RUN_TYPE == Bootloader_START_APP)
 1095              		.loc 1 667 0
 1096 0010 1A68     		ldr	r2, [r3]
 1097 0012 802A     		cmp	r2, #128
 1098 0014 0DD1     		bne	.L113
 669:.\Generated_Source\PSoC4/Bootloader.c ****         Bootloader_SET_RUN_TYPE(0u);
 1099              		.loc 1 669 0
 1100 0016 0024     		mov	r4, #0
 677:.\Generated_Source\PSoC4/Bootloader.c ****         if(0u != Bootloader_GetMetadata(Bootloader_GET_BTLDB_ADDR, Bootloader_activeApp))
 1101              		.loc 1 677 0
 1102 0018 0220     		mov	r0, #2
 1103 001a 211C     		mov	r1, r4
 669:.\Generated_Source\PSoC4/Bootloader.c ****         Bootloader_SET_RUN_TYPE(0u);
 1104              		.loc 1 669 0
 1105 001c 1C60     		str	r4, [r3]
 677:.\Generated_Source\PSoC4/Bootloader.c ****         if(0u != Bootloader_GetMetadata(Bootloader_GET_BTLDB_ADDR, Bootloader_activeApp))
 1106              		.loc 1 677 0
 1107 001e FFF7FEFF 		bl	Bootloader_GetMetadata
 1108              	.LVL85:
 1109 0022 A042     		cmp	r0, r4
 1110 0024 05D0     		beq	.L113
 680:.\Generated_Source\PSoC4/Bootloader.c ****             Bootloader_LaunchBootloadable(Bootloader_GetMetadata(Bootloader_GET_BTLDB_ADDR,
 1111              		.loc 1 680 0
 1112 0026 211C     		mov	r1, r4
 1113 0028 0220     		mov	r0, #2
 1114 002a FFF7FEFF 		bl	Bootloader_GetMetadata
 1115              	.LVL86:
 1116 002e FFF7FEFF 		bl	Bootloader_LaunchBootloadable
 1117              	.LVL87:
 1118              	.L113:
 684:.\Generated_Source\PSoC4/Bootloader.c **** }
 1119              		.loc 1 684 0
 1120              		@ sp needed
 1121 0032 10BD     		pop	{r4, pc}
 1122              	.L122:
 1123              		.align	2
 1124              	.L121:
 1125 0034 00030B40 		.word	1074463488
 1126 0038 00000000 		.word	cyBtldrRunType
 1127              		.cfi_endproc
 1128              	.LFE45:
 1129              		.size	CyBtldr_CheckLaunch, .-CyBtldr_CheckLaunch
 1130              		.section	.text.Bootloader_ValidateBootloadable,"ax",%progbits
 1131              		.align	1
 1132              		.global	Bootloader_ValidateBootloadable
 1133              		.code	16
 1134              		.thumb_func
 1135              		.type	Bootloader_ValidateBootloadable, %function
 1136              	Bootloader_ValidateBootloadable:
ARM GAS  C:\Users\ZHANGM~1\AppData\Local\Temp\ccse5bds.s 			page 45


 1137              	.LFB47:
 745:.\Generated_Source\PSoC4/Bootloader.c ****     {
 1138              		.loc 1 745 0
 1139              		.cfi_startproc
 1140              	.LVL88:
 1141 0000 F8B5     		push	{r3, r4, r5, r6, r7, lr}
 1142              		.cfi_def_cfa_offset 24
 1143              		.cfi_offset 3, -24
 1144              		.cfi_offset 4, -20
 1145              		.cfi_offset 5, -16
 1146              		.cfi_offset 6, -12
 1147              		.cfi_offset 7, -8
 1148              		.cfi_offset 14, -4
 745:.\Generated_Source\PSoC4/Bootloader.c ****     {
 1149              		.loc 1 745 0
 1150 0002 051C     		mov	r5, r0
 748:.\Generated_Source\PSoC4/Bootloader.c ****         uint32 CYDATA end   = Bootloader_FIRST_APP_BYTE(appId) +
 1151              		.loc 1 748 0
 1152 0004 291C     		mov	r1, r5
 1153 0006 0320     		mov	r0, #3
 1154              	.LVL89:
 1155 0008 FFF7FEFF 		bl	Bootloader_GetMetadata
 1156              	.LVL90:
 749:.\Generated_Source\PSoC4/Bootloader.c ****                                 Bootloader_GetMetadata(Bootloader_GET_BTLDB_LENGTH,
 1157              		.loc 1 749 0
 1158 000c 291C     		mov	r1, r5
 748:.\Generated_Source\PSoC4/Bootloader.c ****         uint32 CYDATA end   = Bootloader_FIRST_APP_BYTE(appId) +
 1159              		.loc 1 748 0
 1160 000e 041C     		mov	r4, r0
 749:.\Generated_Source\PSoC4/Bootloader.c ****                                 Bootloader_GetMetadata(Bootloader_GET_BTLDB_LENGTH,
 1161              		.loc 1 749 0
 1162 0010 0420     		mov	r0, #4
 1163 0012 FFF7FEFF 		bl	Bootloader_GetMetadata
 1164              	.LVL91:
 748:.\Generated_Source\PSoC4/Bootloader.c ****         uint32 CYDATA end   = Bootloader_FIRST_APP_BYTE(appId) +
 1165              		.loc 1 748 0
 1166 0016 671C     		add	r7, r4, #1
 1167 0018 FF01     		lsl	r7, r7, #7
 1168 001a 3F18     		add	r7, r7, r0
 1169              	.LVL92:
 755:.\Generated_Source\PSoC4/Bootloader.c ****         for(idx = Bootloader_FIRST_APP_BYTE(appId); idx < end; ++idx)
 1170              		.loc 1 755 0
 1171 001c 291C     		mov	r1, r5
 1172 001e 0320     		mov	r0, #3
 1173 0020 FFF7FEFF 		bl	Bootloader_GetMetadata
 1174              	.LVL93:
 753:.\Generated_Source\PSoC4/Bootloader.c ****         uint8  CYDATA calcedChecksum = 0u;
 1175              		.loc 1 753 0
 1176 0024 0024     		mov	r4, #0
 755:.\Generated_Source\PSoC4/Bootloader.c ****         for(idx = Bootloader_FIRST_APP_BYTE(appId); idx < end; ++idx)
 1177              		.loc 1 755 0
 1178 0026 0130     		add	r0, r0, #1
 1179 0028 C001     		lsl	r0, r0, #7
 1180              	.LVL94:
 752:.\Generated_Source\PSoC4/Bootloader.c ****         CYBIT         valid = 0u; /* Assume bad flash image */
 1181              		.loc 1 752 0
 1182 002a 261C     		mov	r6, r4
ARM GAS  C:\Users\ZHANGM~1\AppData\Local\Temp\ccse5bds.s 			page 46


 1183              	.LVL95:
 1184              	.L124:
 755:.\Generated_Source\PSoC4/Bootloader.c ****         for(idx = Bootloader_FIRST_APP_BYTE(appId); idx < end; ++idx)
 1185              		.loc 1 755 0 discriminator 1
 1186 002c B842     		cmp	r0, r7
 1187 002e 09D2     		bcs	.L131
 1188              	.LBB6:
 757:.\Generated_Source\PSoC4/Bootloader.c ****             uint8 CYDATA curByte = Bootloader_GET_CODE_BYTE(idx);
 1189              		.loc 1 757 0
 1190 0030 0378     		ldrb	r3, [r0]
 1191              	.LVL96:
 759:.\Generated_Source\PSoC4/Bootloader.c ****             if((curByte != 0u) && (curByte != 0xFFu))
 1192              		.loc 1 759 0
 1193 0032 5A1E     		sub	r2, r3, #1
 1194 0034 D2B2     		uxtb	r2, r2
 1195 0036 FD2A     		cmp	r2, #253
 1196 0038 00D8     		bhi	.L125
 761:.\Generated_Source\PSoC4/Bootloader.c ****                 valid = 1u;
 1197              		.loc 1 761 0
 1198 003a 0126     		mov	r6, #1
 1199              	.LVL97:
 1200              	.L125:
 764:.\Generated_Source\PSoC4/Bootloader.c ****             calcedChecksum += curByte;
 1201              		.loc 1 764 0
 1202 003c 1C19     		add	r4, r3, r4
 1203              	.LVL98:
 1204 003e E4B2     		uxtb	r4, r4
 1205              	.LVL99:
 1206              	.LBE6:
 755:.\Generated_Source\PSoC4/Bootloader.c ****         for(idx = Bootloader_FIRST_APP_BYTE(appId); idx < end; ++idx)
 1207              		.loc 1 755 0
 1208 0040 0130     		add	r0, r0, #1
 1209              	.LVL100:
 1210 0042 F3E7     		b	.L124
 1211              	.LVL101:
 1212              	.L131:
 767:.\Generated_Source\PSoC4/Bootloader.c ****         if((calcedChecksum != Bootloader_GetMetadata(Bootloader_GET_BTLDB_CHECKSUM, appId)) ||
 1213              		.loc 1 767 0
 1214 0044 0120     		mov	r0, #1
 1215              	.LVL102:
 1216 0046 291C     		mov	r1, r5
 1217 0048 FFF7FEFF 		bl	Bootloader_GetMetadata
 1218              	.LVL103:
 766:.\Generated_Source\PSoC4/Bootloader.c ****         calcedChecksum = ( uint8 )1u + ( uint8 )(~calcedChecksum);
 1219              		.loc 1 766 0
 1220 004c 6442     		neg	r4, r4
 1221              	.LVL104:
 767:.\Generated_Source\PSoC4/Bootloader.c ****         if((calcedChecksum != Bootloader_GetMetadata(Bootloader_GET_BTLDB_CHECKSUM, appId)) ||
 1222              		.loc 1 767 0
 1223 004e E4B2     		uxtb	r4, r4
 1224              	.LVL105:
 770:.\Generated_Source\PSoC4/Bootloader.c ****             return(CYRET_BAD_DATA);
 1225              		.loc 1 770 0
 1226 0050 0623     		mov	r3, #6
 767:.\Generated_Source\PSoC4/Bootloader.c ****         if((calcedChecksum != Bootloader_GetMetadata(Bootloader_GET_BTLDB_CHECKSUM, appId)) ||
 1227              		.loc 1 767 0
 1228 0052 8442     		cmp	r4, r0
ARM GAS  C:\Users\ZHANGM~1\AppData\Local\Temp\ccse5bds.s 			page 47


 1229 0054 03D1     		bne	.L127
 772:.\Generated_Source\PSoC4/Bootloader.c ****         return(CYRET_SUCCESS);
 1230              		.loc 1 772 0 discriminator 1
 1231 0056 7242     		neg	r2, r6
 1232 0058 5641     		adc	r6, r6, r2
 1233              	.LVL106:
 1234 005a 7642     		neg	r6, r6
 1235 005c 3340     		and	r3, r6
 1236              	.L127:
 773:.\Generated_Source\PSoC4/Bootloader.c **** }
 1237              		.loc 1 773 0
 1238 005e 181C     		mov	r0, r3
 1239              		@ sp needed
 1240              	.LVL107:
 1241 0060 F8BD     		pop	{r3, r4, r5, r6, r7, pc}
 1242              		.cfi_endproc
 1243              	.LFE47:
 1244              		.size	Bootloader_ValidateBootloadable, .-Bootloader_ValidateBootloadable
 1245              		.section	.text.Bootloader_HostLink,"ax",%progbits
 1246              		.align	1
 1247              		.code	16
 1248              		.thumb_func
 1249              		.type	Bootloader_HostLink, %function
 1250              	Bootloader_HostLink:
 1251              	.LFB49:
 806:.\Generated_Source\PSoC4/Bootloader.c **** {
 1252              		.loc 1 806 0
 1253              		.cfi_startproc
 1254              	.LVL108:
 1255 0000 F0B5     		push	{r4, r5, r6, r7, lr}
 1256              		.cfi_def_cfa_offset 20
 1257              		.cfi_offset 4, -20
 1258              		.cfi_offset 5, -16
 1259              		.cfi_offset 6, -12
 1260              		.cfi_offset 7, -8
 1261              		.cfi_offset 14, -4
 1262 0002 D3B0     		sub	sp, sp, #332
 1263              		.cfi_def_cfa_offset 352
 821:.\Generated_Source\PSoC4/Bootloader.c ****     UART_0_Init();
 1264              		.loc 1 821 0
 1265 0004 FFF7FEFF 		bl	UART_0_Init
 1266              	.LVL109:
 822:.\Generated_Source\PSoC4/Bootloader.c ****     UART_0_Enable();
 1267              		.loc 1 822 0
 1268 0008 FFF7FEFF 		bl	UART_0_Enable
 1269              	.LVL110:
 823:.\Generated_Source\PSoC4/Bootloader.c ****     UART_0_Start();
 1270              		.loc 1 823 0
 1271 000c FFF7FEFF 		bl	UART_0_Start
 1272              	.LVL111:
 824:.\Generated_Source\PSoC4/Bootloader.c ****     UART_0_SetCustomInterruptHandler(UART_ISR_0_FUN);  
 1273              		.loc 1 824 0
 1274 0010 5748     		ldr	r0, .L143
 1275 0012 FFF7FEFF 		bl	UART_0_SetCustomInterruptHandler
 1276              	.LVL112:
 825:.\Generated_Source\PSoC4/Bootloader.c ****     UART_0_SpiUartClearRxBuffer();
 1277              		.loc 1 825 0
ARM GAS  C:\Users\ZHANGM~1\AppData\Local\Temp\ccse5bds.s 			page 48


 1278 0016 FFF7FEFF 		bl	UART_0_SpiUartClearRxBuffer
 1279              	.LVL113:
 826:.\Generated_Source\PSoC4/Bootloader.c ****     UART_0_SpiUartClearTxBuffer();
 1280              		.loc 1 826 0
 1281 001a FFF7FEFF 		bl	UART_0_SpiUartClearTxBuffer
 1282              	.LVL114:
 829:.\Generated_Source\PSoC4/Bootloader.c ****     CyGlobalIntEnable;
 1283              		.loc 1 829 0
 1284              	@ 829 ".\Generated_Source\PSoC4\Bootloader.c" 1
 1285 001e 62B6     		CPSIE   i
 1286              	@ 0 "" 2
 830:.\Generated_Source\PSoC4/Bootloader.c ****     F_uart_0_tx=1;
 1287              		.loc 1 830 0
 1288              		.code	16
 1289 0020 544B     		ldr	r3, .L143+4
 1290 0022 0122     		mov	r2, #1
 833:.\Generated_Source\PSoC4/Bootloader.c ****     CyDelay(100);
 1291              		.loc 1 833 0
 1292 0024 6420     		mov	r0, #100
 832:.\Generated_Source\PSoC4/Bootloader.c ****     F_send=0;
 1293              		.loc 1 832 0
 1294 0026 0024     		mov	r4, #0
 830:.\Generated_Source\PSoC4/Bootloader.c ****     F_uart_0_tx=1;
 1295              		.loc 1 830 0
 1296 0028 1A70     		strb	r2, [r3]
 1297              	.LVL115:
 833:.\Generated_Source\PSoC4/Bootloader.c ****     CyDelay(100);
 1298              		.loc 1 833 0
 1299 002a FFF7FEFF 		bl	CyDelay
 1300              	.LVL116:
 817:.\Generated_Source\PSoC4/Bootloader.c ****     uint32 count=0,count00;
 1301              		.loc 1 817 0
 1302 002e 0194     		str	r4, [sp, #4]
 1303              	.LVL117:
 1304              	.L133:
 836:.\Generated_Source\PSoC4/Bootloader.c ****         Buzzer_Fun();
 1305              		.loc 1 836 0
 1306 0030 FFF7FEFF 		bl	Buzzer_Fun
 1307              	.LVL118:
 837:.\Generated_Source\PSoC4/Bootloader.c ****         Uart_0_Putchar();
 1308              		.loc 1 837 0
 1309 0034 FFF7FEFF 		bl	Uart_0_Putchar
 1310              	.LVL119:
 838:.\Generated_Source\PSoC4/Bootloader.c ****         BUZfkg=1;
 1311              		.loc 1 838 0
 1312 0038 4F4D     		ldr	r5, .L143+8
 841:.\Generated_Source\PSoC4/Bootloader.c ****         if(count>0)
 1313              		.loc 1 841 0
 1314 003a 019E     		ldr	r6, [sp, #4]
 838:.\Generated_Source\PSoC4/Bootloader.c ****         BUZfkg=1;
 1315              		.loc 1 838 0
 1316 003c 0123     		mov	r3, #1
 1317 003e 2B70     		strb	r3, [r5]
 841:.\Generated_Source\PSoC4/Bootloader.c ****         if(count>0)
 1318              		.loc 1 841 0
 1319 0040 002E     		cmp	r6, #0
 1320 0042 02D0     		beq	.L141
ARM GAS  C:\Users\ZHANGM~1\AppData\Local\Temp\ccse5bds.s 			page 49


 843:.\Generated_Source\PSoC4/Bootloader.c ****            count--;
 1321              		.loc 1 843 0
 1322 0044 013E     		sub	r6, r6, #1
 1323 0046 0196     		str	r6, [sp, #4]
 1324              	.LVL120:
 1325 0048 00E0     		b	.L135
 1326              	.LVL121:
 1327              	.L141:
 847:.\Generated_Source\PSoC4/Bootloader.c ****             F_send=0;
 1328              		.loc 1 847 0
 1329 004a 019C     		ldr	r4, [sp, #4]
 1330              	.LVL122:
 1331              	.L135:
 849:.\Generated_Source\PSoC4/Bootloader.c ****         if(f_delay==1)
 1332              		.loc 1 849 0
 1333 004c 4B4B     		ldr	r3, .L143+12
 1334 004e 1B78     		ldrb	r3, [r3]
 1335 0050 012B     		cmp	r3, #1
 1336 0052 13D1     		bne	.L142
 851:.\Generated_Source\PSoC4/Bootloader.c ****            count00++;
 1337              		.loc 1 851 0
 1338 0054 029E     		ldr	r6, [sp, #8]
 857:.\Generated_Source\PSoC4/Bootloader.c ****         if(count00>50000)
 1339              		.loc 1 857 0
 1340 0056 4A4B     		ldr	r3, .L143+16
 851:.\Generated_Source\PSoC4/Bootloader.c ****            count00++;
 1341              		.loc 1 851 0
 1342 0058 0136     		add	r6, r6, #1
 1343 005a 0296     		str	r6, [sp, #8]
 1344              	.LVL123:
 857:.\Generated_Source\PSoC4/Bootloader.c ****         if(count00>50000)
 1345              		.loc 1 857 0
 1346 005c 9E42     		cmp	r6, r3
 1347 005e 0FD9     		bls	.L136
 1348              	.LBB9:
 1349              	.LBB10:
 567:.\Generated_Source\PSoC4/Bootloader.c ****     Bootloader_SET_RUN_TYPE(Bootloader_START_APP);
 1350              		.loc 1 567 0
 1351 0060 484E     		ldr	r6, .L143+20
 1352              	.LVL124:
 1353 0062 8027     		mov	r7, #128
 1354 0064 3760     		str	r7, [r6]
 569:.\Generated_Source\PSoC4/Bootloader.c ****     CySoftwareReset();
 1355              		.loc 1 569 0
 1356 0066 FFF7FEFF 		bl	CySoftwareReset
 1357              	.LVL125:
 1358              	.LBE10:
 1359              	.LBE9:
 860:.\Generated_Source\PSoC4/Bootloader.c ****              if(CYRET_SUCCESS == Bootloader_ValidateBootloadable(Bootloader_activeApp))
 1360              		.loc 1 860 0
 1361 006a 0020     		mov	r0, #0
 1362 006c FFF7FEFF 		bl	Bootloader_ValidateBootloadable
 1363              	.LVL126:
 1364 0070 0028     		cmp	r0, #0
 1365 0072 05D1     		bne	.L136
 863:.\Generated_Source\PSoC4/Bootloader.c ****                                                                          Bootloader_SET_RUN_TYPE(Bo
 1366              		.loc 1 863 0
ARM GAS  C:\Users\ZHANGM~1\AppData\Local\Temp\ccse5bds.s 			page 50


 1367 0074 3760     		str	r7, [r6]
 864:.\Generated_Source\PSoC4/Bootloader.c ****             CySoftwareReset();
 1368              		.loc 1 864 0
 1369 0076 FFF7FEFF 		bl	CySoftwareReset
 1370              	.LVL127:
 1371 007a 01E0     		b	.L136
 1372              	.L142:
 855:.\Generated_Source\PSoC4/Bootloader.c ****             count00=0;
 1373              		.loc 1 855 0
 1374 007c 0026     		mov	r6, #0
 1375 007e 0296     		str	r6, [sp, #8]
 1376              	.LVL128:
 1377              	.L136:
 867:.\Generated_Source\PSoC4/Bootloader.c ****         if((F_send==0)&&(f_ack_1==0))
 1378              		.loc 1 867 0
 1379 0080 002C     		cmp	r4, #0
 1380 0082 10D1     		bne	.L137
 867:.\Generated_Source\PSoC4/Bootloader.c ****         if((F_send==0)&&(f_ack_1==0))
 1381              		.loc 1 867 0 is_stmt 0 discriminator 1
 1382 0084 404B     		ldr	r3, .L143+24
 1383 0086 1B78     		ldrb	r3, [r3]
 1384 0088 002B     		cmp	r3, #0
 1385 008a 0CD1     		bne	.L137
 1386              	.LVL129:
 870:.\Generated_Source\PSoC4/Bootloader.c ****             dataBuffer_0[0x00] 	= 0x00u;
 1387              		.loc 1 870 0 is_stmt 1
 1388 008c 3F4A     		ldr	r2, .L143+28
 871:.\Generated_Source\PSoC4/Bootloader.c **** 			dataBuffer_0[0x01] 	= 0x80u;
 1389              		.loc 1 871 0
 1390 008e 8023     		mov	r3, #128
 873:.\Generated_Source\PSoC4/Bootloader.c ****             count=100000;
 1391              		.loc 1 873 0
 1392 0090 3F4E     		ldr	r6, .L143+32
 871:.\Generated_Source\PSoC4/Bootloader.c **** 			dataBuffer_0[0x01] 	= 0x80u;
 1393              		.loc 1 871 0
 1394 0092 5370     		strb	r3, [r2, #1]
 872:.\Generated_Source\PSoC4/Bootloader.c **** 			SendDataToWifi(	0x00,0xCCC5,&dataBuffer_0[0],0x02);
 1395              		.loc 1 872 0
 1396 0094 201C     		mov	r0, r4
 1397 0096 3F49     		ldr	r1, .L143+36
 1398 0098 0223     		mov	r3, #2
 870:.\Generated_Source\PSoC4/Bootloader.c ****             dataBuffer_0[0x00] 	= 0x00u;
 1399              		.loc 1 870 0
 1400 009a 1470     		strb	r4, [r2]
 872:.\Generated_Source\PSoC4/Bootloader.c **** 			SendDataToWifi(	0x00,0xCCC5,&dataBuffer_0[0],0x02);
 1401              		.loc 1 872 0
 1402 009c FFF7FEFF 		bl	SendDataToWifi
 1403              	.LVL130:
 869:.\Generated_Source\PSoC4/Bootloader.c ****             F_send=1;
 1404              		.loc 1 869 0
 1405 00a0 0124     		mov	r4, #1
 873:.\Generated_Source\PSoC4/Bootloader.c ****             count=100000;
 1406              		.loc 1 873 0
 1407 00a2 0196     		str	r6, [sp, #4]
 1408 00a4 C4E7     		b	.L133
 1409              	.LVL131:
 1410              	.L137:
ARM GAS  C:\Users\ZHANGM~1\AppData\Local\Temp\ccse5bds.s 			page 51


 875:.\Generated_Source\PSoC4/Bootloader.c ****         else if((WifiWorkFlag.gcReceComm1OK==1)&&(giWIFIDATALength<=(WIFIBUFLEN-10-1))) 
 1411              		.loc 1 875 0
 1412 00a6 3C4B     		ldr	r3, .L143+40
 1413 00a8 6846     		mov	r0, sp
 1414 00aa 1A78     		ldrb	r2, [r3]
 1415 00ac 1107     		lsl	r1, r2, #28
 1416 00ae CE0F     		lsr	r6, r1, #31
 1417 00b0 0674     		strb	r6, [r0, #16]
 1418 00b2 0029     		cmp	r1, #0
 1419 00b4 BCDA     		bge	.L133
 875:.\Generated_Source\PSoC4/Bootloader.c ****         else if((WifiWorkFlag.gcReceComm1OK==1)&&(giWIFIDATALength<=(WIFIBUFLEN-10-1))) 
 1420              		.loc 1 875 0 is_stmt 0 discriminator 1
 1421 00b6 3949     		ldr	r1, .L143+44
 1422 00b8 0978     		ldrb	r1, [r1]
 1423 00ba F429     		cmp	r1, #244
 1424 00bc B8D8     		bhi	.L133
 877:.\Generated_Source\PSoC4/Bootloader.c ****             BUZfkg=1;
 1425              		.loc 1 877 0 is_stmt 1
 1426 00be F0B2     		uxtb	r0, r6
 1427 00c0 2870     		strb	r0, [r5]
 878:.\Generated_Source\PSoC4/Bootloader.c ****             WifiWorkFlag.gcReceComm1OK=0;
 1428              		.loc 1 878 0
 1429 00c2 0820     		mov	r0, #8
 879:.\Generated_Source\PSoC4/Bootloader.c ****             pktChecksum = ATReceBuffer[0].gcATReceData[giWIFIDATALength+10];
 1430              		.loc 1 879 0
 1431 00c4 364D     		ldr	r5, .L143+48
 878:.\Generated_Source\PSoC4/Bootloader.c ****             WifiWorkFlag.gcReceComm1OK=0;
 1432              		.loc 1 878 0
 1433 00c6 8243     		bic	r2, r0
 1434 00c8 1A70     		strb	r2, [r3]
 1435              	.LVL132:
 879:.\Generated_Source\PSoC4/Bootloader.c ****             pktChecksum = ATReceBuffer[0].gcATReceData[giWIFIDATALength+10];
 1436              		.loc 1 879 0
 1437 00ca 6B18     		add	r3, r5, r1
 1438 00cc 9E7A     		ldrb	r6, [r3, #10]
 880:.\Generated_Source\PSoC4/Bootloader.c ****             pktChecksum = (pktChecksum<<8)+ATReceBuffer[0].gcATReceData[giWIFIDATALength+11];
 1439              		.loc 1 880 0
 1440 00ce DB7A     		ldrb	r3, [r3, #11]
 1441 00d0 8640     		lsl	r6, r6, r0
 1442 00d2 F618     		add	r6, r6, r3
 881:.\Generated_Source\PSoC4/Bootloader.c ****             tmp= crc16(&ATReceBuffer[0].gcATReceData[0], giWIFIDATALength+10);
 1443              		.loc 1 881 0
 1444 00d4 0A31     		add	r1, r1, #10
 1445              	.LVL133:
 1446 00d6 281C     		mov	r0, r5
 880:.\Generated_Source\PSoC4/Bootloader.c ****             pktChecksum = (pktChecksum<<8)+ATReceBuffer[0].gcATReceData[giWIFIDATALength+11];
 1447              		.loc 1 880 0
 1448 00d8 B6B2     		uxth	r6, r6
 1449              	.LVL134:
 881:.\Generated_Source\PSoC4/Bootloader.c ****             tmp= crc16(&ATReceBuffer[0].gcATReceData[0], giWIFIDATALength+10);
 1450              		.loc 1 881 0
 1451 00da FFF7FEFF 		bl	crc16
 1452              	.LVL135:
 882:.\Generated_Source\PSoC4/Bootloader.c ****            if(pktChecksum == tmp)
 1453              		.loc 1 882 0
 1454 00de 8642     		cmp	r6, r0
 1455 00e0 A6D1     		bne	.L133
ARM GAS  C:\Users\ZHANGM~1\AppData\Local\Temp\ccse5bds.s 			page 52


 884:.\Generated_Source\PSoC4/Bootloader.c ****                 itotalcount=ATReceBuffer[0].gcATReceData[3];
 1456              		.loc 1 884 0
 1457 00e2 EE78     		ldrb	r6, [r5, #3]
 1458              	.LVL136:
 886:.\Generated_Source\PSoC4/Bootloader.c ****                 z_iicount=iicount; 
 1459              		.loc 1 886 0
 1460 00e4 2F4B     		ldr	r3, .L143+52
 884:.\Generated_Source\PSoC4/Bootloader.c ****                 itotalcount=ATReceBuffer[0].gcATReceData[3];
 1461              		.loc 1 884 0
 1462 00e6 0396     		str	r6, [sp, #12]
 1463              	.LVL137:
 885:.\Generated_Source\PSoC4/Bootloader.c ****                 iicount=ATReceBuffer[0].gcATReceData[4];
 1464              		.loc 1 885 0
 1465 00e8 2E79     		ldrb	r6, [r5, #4]
 1466              	.LVL138:
 887:.\Generated_Source\PSoC4/Bootloader.c ****                 z_itotalcount=itotalcount;
 1467              		.loc 1 887 0
 1468 00ea 0398     		ldr	r0, [sp, #12]
 1469              	.LVL139:
 886:.\Generated_Source\PSoC4/Bootloader.c ****                 z_iicount=iicount; 
 1470              		.loc 1 886 0
 1471 00ec 1E70     		strb	r6, [r3]
 887:.\Generated_Source\PSoC4/Bootloader.c ****                 z_itotalcount=itotalcount;
 1472              		.loc 1 887 0
 1473 00ee 2E4B     		ldr	r3, .L143+56
 1474 00f0 1870     		strb	r0, [r3]
 1475              	.LVL140:
 888:.\Generated_Source\PSoC4/Bootloader.c ****                 iCommand=ATReceBuffer[0].gcATReceData[Bootloader_CMD_ADDR];
 1476              		.loc 1 888 0
 1477 00f2 AF79     		ldrb	r7, [r5, #6]
 889:.\Generated_Source\PSoC4/Bootloader.c ****                 iCommand=(iCommand<<8u)+ATReceBuffer[0].gcATReceData[Bootloader_CMD_ADDR+1];
 1478              		.loc 1 889 0
 1479 00f4 EB79     		ldrb	r3, [r5, #7]
 1480 00f6 3F02     		lsl	r7, r7, #8
 1481              	.LVL141:
 1482 00f8 FF18     		add	r7, r7, r3
 1483              	.LVL142:
 890:.\Generated_Source\PSoC4/Bootloader.c ****                 switch(iCommand)
 1484              		.loc 1 890 0
 1485 00fa 264B     		ldr	r3, .L143+36
 1486 00fc BFB2     		uxth	r7, r7
 1487 00fe 9F42     		cmp	r7, r3
 1488 0100 03D0     		beq	.L138
 1489 0102 2A4B     		ldr	r3, .L143+60
 1490 0104 9F42     		cmp	r7, r3
 1491 0106 04D0     		beq	.L139
 1492 0108 92E7     		b	.L133
 1493              	.L138:
 895:.\Generated_Source\PSoC4/Bootloader.c ****                     f_ack_1=0xff;
 1494              		.loc 1 895 0
 1495 010a 1F4B     		ldr	r3, .L143+24
 1496 010c FF22     		mov	r2, #255
 1497 010e 1A70     		strb	r2, [r3]
 896:.\Generated_Source\PSoC4/Bootloader.c ****                     break;
 1498              		.loc 1 896 0
 1499 0110 8EE7     		b	.L133
 1500              	.L139:
ARM GAS  C:\Users\ZHANGM~1\AppData\Local\Temp\ccse5bds.s 			page 53


 900:.\Generated_Source\PSoC4/Bootloader.c ****                     (void) memcpy(&dataBuffer[0],&ATReceBuffer[0].gcATReceData[10],128);
 1501              		.loc 1 900 0
 1502 0112 291C     		mov	r1, r5
 1503 0114 8022     		mov	r2, #128
 1504 0116 0A31     		add	r1, r1, #10
 1505 0118 07A8     		add	r0, sp, #28
 1506 011a FFF7FEFF 		bl	memcpy
 1507              	.LVL143:
 901:.\Generated_Source\PSoC4/Bootloader.c ****                     if((iicount==itotalcount)&&(iicount>5))
 1508              		.loc 1 901 0
 1509 011e 039A     		ldr	r2, [sp, #12]
 1510 0120 1A4D     		ldr	r5, .L143+28
 1511 0122 9642     		cmp	r6, r2
 1512 0124 12D1     		bne	.L140
 901:.\Generated_Source\PSoC4/Bootloader.c ****                     if((iicount==itotalcount)&&(iicount>5))
 1513              		.loc 1 901 0 is_stmt 0 discriminator 1
 1514 0126 052E     		cmp	r6, #5
 1515 0128 10D9     		bls	.L140
 1516              	.LVL144:
 905:.\Generated_Source\PSoC4/Bootloader.c ****                             ackCode = (CYRET_SUCCESS != CySysFlashWriteRow((uint32) row, dataBuffer
 1517              		.loc 1 905 0 is_stmt 1
 1518 012a 07A9     		add	r1, sp, #28
 1519 012c FF20     		mov	r0, #255
 1520 012e FFF7FEFF 		bl	CySysFlashWriteRow
 1521              	.LVL145:
 913:.\Generated_Source\PSoC4/Bootloader.c **** f_delay=1;
 1522              		.loc 1 913 0
 1523 0132 6E46     		mov	r6, sp
 1524              	.LVL146:
 909:.\Generated_Source\PSoC4/Bootloader.c ****                             dataBuffer_0[0x00] 	= 0x00u;
 1525              		.loc 1 909 0
 1526 0134 0020     		mov	r0, #0
 911:.\Generated_Source\PSoC4/Bootloader.c ****                             SendDataToWifi(	0x00,Bootloader_COMMAND_PROGRAM,&dataBuffer_0[0],0x02);
 1527              		.loc 1 911 0
 1528 0136 0223     		mov	r3, #2
 1529 0138 391C     		mov	r1, r7
 1530 013a 2A1C     		mov	r2, r5
 909:.\Generated_Source\PSoC4/Bootloader.c ****                             dataBuffer_0[0x00] 	= 0x00u;
 1531              		.loc 1 909 0
 1532 013c 2870     		strb	r0, [r5]
 910:.\Generated_Source\PSoC4/Bootloader.c ****                             dataBuffer_0[0x01] 	= 0x00u;
 1533              		.loc 1 910 0
 1534 013e 6870     		strb	r0, [r5, #1]
 911:.\Generated_Source\PSoC4/Bootloader.c ****                             SendDataToWifi(	0x00,Bootloader_COMMAND_PROGRAM,&dataBuffer_0[0],0x02);
 1535              		.loc 1 911 0
 1536 0140 FFF7FEFF 		bl	SendDataToWifi
 1537              	.LVL147:
 913:.\Generated_Source\PSoC4/Bootloader.c **** f_delay=1;
 1538              		.loc 1 913 0
 1539 0144 0D4B     		ldr	r3, .L143+12
 1540 0146 367C     		ldrb	r6, [r6, #16]
 1541 0148 1E70     		strb	r6, [r3]
 1542 014a 71E7     		b	.L133
 1543              	.LVL148:
 1544              	.L140:
 919:.\Generated_Source\PSoC4/Bootloader.c ****                             ackCode = (CYRET_SUCCESS != CySysFlashWriteRow((uint32) row, dataBuffer
 1545              		.loc 1 919 0
ARM GAS  C:\Users\ZHANGM~1\AppData\Local\Temp\ccse5bds.s 			page 54


 1546 014c 301C     		mov	r0, r6
 1547 014e 07A9     		add	r1, sp, #28
 1548 0150 2130     		add	r0, r0, #33
 1549 0152 FFF7FEFF 		bl	CySysFlashWriteRow
 1550              	.LVL149:
 921:.\Generated_Source\PSoC4/Bootloader.c ****                             dataBuffer_0[0x03] 	= ATReceBuffer[0].gcATReceData[3];
 1551              		.loc 1 921 0
 1552 0156 124B     		ldr	r3, .L143+48
 923:.\Generated_Source\PSoC4/Bootloader.c ****                             dataBuffer_0[0x00] 	= 0x00u;
 1553              		.loc 1 923 0
 1554 0158 0020     		mov	r0, #0
 921:.\Generated_Source\PSoC4/Bootloader.c ****                             dataBuffer_0[0x03] 	= ATReceBuffer[0].gcATReceData[3];
 1555              		.loc 1 921 0
 1556 015a DB78     		ldrb	r3, [r3, #3]
 925:.\Generated_Source\PSoC4/Bootloader.c ****                             SendDataToWifi(	0x00,Bootloader_COMMAND_PROGRAM,&dataBuffer_0[0],0x02);
 1557              		.loc 1 925 0
 1558 015c 1349     		ldr	r1, .L143+60
 921:.\Generated_Source\PSoC4/Bootloader.c ****                             dataBuffer_0[0x03] 	= ATReceBuffer[0].gcATReceData[3];
 1559              		.loc 1 921 0
 1560 015e EB70     		strb	r3, [r5, #3]
 925:.\Generated_Source\PSoC4/Bootloader.c ****                             SendDataToWifi(	0x00,Bootloader_COMMAND_PROGRAM,&dataBuffer_0[0],0x02);
 1561              		.loc 1 925 0
 1562 0160 2A1C     		mov	r2, r5
 1563 0162 0223     		mov	r3, #2
 922:.\Generated_Source\PSoC4/Bootloader.c ****                             dataBuffer_0[0x04] 	= iicount;
 1564              		.loc 1 922 0
 1565 0164 2E71     		strb	r6, [r5, #4]
 923:.\Generated_Source\PSoC4/Bootloader.c ****                             dataBuffer_0[0x00] 	= 0x00u;
 1566              		.loc 1 923 0
 1567 0166 2870     		strb	r0, [r5]
 924:.\Generated_Source\PSoC4/Bootloader.c ****                             dataBuffer_0[0x01] 	= 0x00u;
 1568              		.loc 1 924 0
 1569 0168 6870     		strb	r0, [r5, #1]
 925:.\Generated_Source\PSoC4/Bootloader.c ****                             SendDataToWifi(	0x00,Bootloader_COMMAND_PROGRAM,&dataBuffer_0[0],0x02);
 1570              		.loc 1 925 0
 1571 016a FFF7FEFF 		bl	SendDataToWifi
 1572              	.LVL150:
 1573 016e 5FE7     		b	.L133
 1574              	.L144:
 1575              		.align	2
 1576              	.L143:
 1577 0170 00000000 		.word	UART_ISR_0_FUN
 1578 0174 00000000 		.word	F_uart_0_tx
 1579 0178 00000000 		.word	BUZfkg
 1580 017c 00000000 		.word	f_delay
 1581 0180 50C30000 		.word	50000
 1582 0184 00000000 		.word	cyBtldrRunType
 1583 0188 00000000 		.word	f_ack_1
 1584 018c 00000000 		.word	dataBuffer_0
 1585 0190 A0860100 		.word	100000
 1586 0194 C5CC0000 		.word	52421
 1587 0198 00000000 		.word	WifiWorkFlag
 1588 019c 00000000 		.word	giWIFIDATALength
 1589 01a0 00000000 		.word	ATReceBuffer
 1590 01a4 00000000 		.word	z_iicount
 1591 01a8 00000000 		.word	z_itotalcount
 1592 01ac D2CC0000 		.word	52434
ARM GAS  C:\Users\ZHANGM~1\AppData\Local\Temp\ccse5bds.s 			page 55


 1593              		.cfi_endproc
 1594              	.LFE49:
 1595              		.size	Bootloader_HostLink, .-Bootloader_HostLink
 1596              		.section	.text.Bootloader_Start,"ax",%progbits
 1597              		.align	1
 1598              		.global	Bootloader_Start
 1599              		.code	16
 1600              		.thumb_func
 1601              		.type	Bootloader_Start, %function
 1602              	Bootloader_Start:
 1603              	.LFB42:
 522:.\Generated_Source\PSoC4/Bootloader.c **** {
 1604              		.loc 1 522 0
 1605              		.cfi_startproc
 1606              	.LVL151:
 1607 0000 08B5     		push	{r3, lr}
 1608              		.cfi_def_cfa_offset 8
 1609              		.cfi_offset 3, -8
 1610              		.cfi_offset 14, -4
 524:.\Generated_Source\PSoC4/Bootloader.c ****     if (CYRET_SUCCESS == Bootloader_ValidateBootloadable(Bootloader_MD_BTLDB_ACTIVE_0))
 1611              		.loc 1 524 0
 1612 0002 0020     		mov	r0, #0
 1613 0004 FFF7FEFF 		bl	Bootloader_ValidateBootloadable
 1614              	.LVL152:
 526:.\Generated_Source\PSoC4/Bootloader.c ****         validApp = CYRET_SUCCESS;
 1615              		.loc 1 526 0
 1616 0008 0022     		mov	r2, #0
 524:.\Generated_Source\PSoC4/Bootloader.c ****     if (CYRET_SUCCESS == Bootloader_ValidateBootloadable(Bootloader_MD_BTLDB_ACTIVE_0))
 1617              		.loc 1 524 0
 1618 000a 9042     		cmp	r0, r2
 1619 000c 00D0     		beq	.L146
 523:.\Generated_Source\PSoC4/Bootloader.c ****     cystatus validApp  = CYRET_BAD_DATA;
 1620              		.loc 1 523 0
 1621 000e 0622     		mov	r2, #6
 1622              	.L146:
 1623              	.LVL153:
 536:.\Generated_Source\PSoC4/Bootloader.c ****     if ((Bootloader_GET_RUN_TYPE == Bootloader_START_BTLDR) ||
 1624              		.loc 1 536 0
 1625 0010 074B     		ldr	r3, .L154
 1626 0012 1868     		ldr	r0, [r3]
 1627 0014 191C     		mov	r1, r3
 1628 0016 4028     		cmp	r0, #64
 1629 0018 01D0     		beq	.L147
 536:.\Generated_Source\PSoC4/Bootloader.c ****     if ((Bootloader_GET_RUN_TYPE == Bootloader_START_BTLDR) ||
 1630              		.loc 1 536 0 is_stmt 0 discriminator 1
 1631 001a 002A     		cmp	r2, #0
 1632 001c 03D0     		beq	.L148
 1633              	.L147:
 540:.\Generated_Source\PSoC4/Bootloader.c ****             Bootloader_SET_RUN_TYPE(0u);
 1634              		.loc 1 540 0 is_stmt 1
 1635 001e 0023     		mov	r3, #0
 1636 0020 0B60     		str	r3, [r1]
 542:.\Generated_Source\PSoC4/Bootloader.c ****             Bootloader_HostLink();
 1637              		.loc 1 542 0
 1638 0022 FFF7FEFF 		bl	Bootloader_HostLink
 1639              	.LVL154:
 1640              	.L148:
ARM GAS  C:\Users\ZHANGM~1\AppData\Local\Temp\ccse5bds.s 			page 56


 1641              	.LBB13:
 1642              	.LBB14:
 567:.\Generated_Source\PSoC4/Bootloader.c ****     Bootloader_SET_RUN_TYPE(Bootloader_START_APP);
 1643              		.loc 1 567 0
 1644 0026 8022     		mov	r2, #128
 1645              	.LVL155:
 1646 0028 1A60     		str	r2, [r3]
 1647              	.LBE14:
 1648              	.LBE13:
 547:.\Generated_Source\PSoC4/Bootloader.c **** }
 1649              		.loc 1 547 0
 1650              		@ sp needed
 1651              	.LBB16:
 1652              	.LBB15:
 569:.\Generated_Source\PSoC4/Bootloader.c ****     CySoftwareReset();
 1653              		.loc 1 569 0
 1654 002a FFF7FEFF 		bl	CySoftwareReset
 1655              	.LVL156:
 1656              	.LBE15:
 1657              	.LBE16:
 547:.\Generated_Source\PSoC4/Bootloader.c **** }
 1658              		.loc 1 547 0
 1659 002e 08BD     		pop	{r3, pc}
 1660              	.L155:
 1661              		.align	2
 1662              	.L154:
 1663 0030 00000000 		.word	cyBtldrRunType
 1664              		.cfi_endproc
 1665              	.LFE42:
 1666              		.size	Bootloader_Start, .-Bootloader_Start
 1667              		.section	.text.Bootloader_Exit,"ax",%progbits
 1668              		.align	1
 1669              		.global	Bootloader_Exit
 1670              		.code	16
 1671              		.thumb_func
 1672              		.type	Bootloader_Exit, %function
 1673              	Bootloader_Exit:
 1674              	.LFB44:
 601:.\Generated_Source\PSoC4/Bootloader.c **** {
 1675              		.loc 1 601 0
 1676              		.cfi_startproc
 1677              	.LVL157:
 1678 0000 38B5     		push	{r3, r4, r5, lr}
 1679              		.cfi_def_cfa_offset 16
 1680              		.cfi_offset 3, -16
 1681              		.cfi_offset 4, -12
 1682              		.cfi_offset 5, -8
 1683              		.cfi_offset 14, -4
 601:.\Generated_Source\PSoC4/Bootloader.c **** {
 1684              		.loc 1 601 0
 1685 0002 051C     		mov	r5, r0
 1686 0004 094C     		ldr	r4, .L161
 602:.\Generated_Source\PSoC4/Bootloader.c ****     if(Bootloader_EXIT_TO_BTLDR == appId)
 1687              		.loc 1 602 0
 1688 0006 0228     		cmp	r0, #2
 1689 0008 0BD0     		beq	.L159
 608:.\Generated_Source\PSoC4/Bootloader.c ****         if(CYRET_SUCCESS == Bootloader_ValidateBootloadable(appId))
ARM GAS  C:\Users\ZHANGM~1\AppData\Local\Temp\ccse5bds.s 			page 57


 1690              		.loc 1 608 0
 1691 000a FFF7FEFF 		bl	Bootloader_ValidateBootloadable
 1692              	.LVL158:
 1693 000e 0028     		cmp	r0, #0
 1694 0010 07D1     		bne	.L159
 1695              	.LVL159:
 1696              	.LBB17:
 614:.\Generated_Source\PSoC4/Bootloader.c ****                 Bootloader_SetFlashByte((uint32) Bootloader_MD_BTLDB_ACTIVE_OFFSET(idx),
 1697              		.loc 1 614 0 discriminator 2
 1698 0012 6942     		neg	r1, r5
 1699 0014 6941     		adc	r1, r1, r5
 1700 0016 C9B2     		uxtb	r1, r1
 1701 0018 0548     		ldr	r0, .L161+4
 1702 001a FFF7FEFF 		bl	Bootloader_SetFlashByte
 1703              	.LVL160:
 619:.\Generated_Source\PSoC4/Bootloader.c ****             Bootloader_SET_RUN_TYPE(Bootloader_SCHEDULE_BTLDB);
 1704              		.loc 1 619 0 discriminator 2
 1705 001e 8023     		mov	r3, #128
 1706 0020 00E0     		b	.L160
 1707              	.LVL161:
 1708              	.L159:
 1709              	.LBE17:
 623:.\Generated_Source\PSoC4/Bootloader.c ****             Bootloader_SET_RUN_TYPE(0u);
 1710              		.loc 1 623 0
 1711 0022 0023     		mov	r3, #0
 1712              	.L160:
 1713 0024 2360     		str	r3, [r4]
 628:.\Generated_Source\PSoC4/Bootloader.c **** }
 1714              		.loc 1 628 0
 1715              		@ sp needed
 627:.\Generated_Source\PSoC4/Bootloader.c ****     CySoftwareReset();
 1716              		.loc 1 627 0
 1717 0026 FFF7FEFF 		bl	CySoftwareReset
 1718              	.LVL162:
 628:.\Generated_Source\PSoC4/Bootloader.c **** }
 1719              		.loc 1 628 0
 1720 002a 38BD     		pop	{r3, r4, r5, pc}
 1721              	.L162:
 1722              		.align	2
 1723              	.L161:
 1724 002c 00000000 		.word	cyBtldrRunType
 1725 0030 D07F0000 		.word	32720
 1726              		.cfi_endproc
 1727              	.LFE44:
 1728              		.size	Bootloader_Exit, .-Bootloader_Exit
 1729              		.global	auchCRCLo
 1730              		.global	auchCRCHi
 1731              		.comm	F_uart_0_tx,1,1
 1732              		.comm	cpSendBufPtr,4,4
 1733              		.comm	iSendCounter,2,2
 1734              		.comm	iUartSendLen,2,2
 1735              		.comm	ATReceBuffer,258,2
 1736              		.comm	giWIFIDATALength,1,1
 1737              		.comm	giWIFICommand,1,1
 1738              		.comm	gcWIFICTL,1,1
 1739              		.comm	WifidatagramWorkFlag,4,4
 1740              		.comm	WifiWorkFlag,4,4
ARM GAS  C:\Users\ZHANGM~1\AppData\Local\Temp\ccse5bds.s 			page 58


 1741              		.comm	gcWifiCommunState,1,1
 1742              		.comm	BuzzerDly,4,4
 1743              		.comm	BUZfkg,1,1
 1744              		.comm	z_itotalcount,1,1
 1745              		.comm	z_iicount,1,1
 1746              		.comm	packetBuffer,300,1
 1747              		.comm	dataBuffer_0,300,1
 1748              		.comm	f_delay,1,1
 1749              		.comm	f_ack_1,1,1
 1750              		.global	Bootloader_SizeBytesAccess
 1751              		.global	Bootloader_SizeBytes
 1752              		.global	Bootloader_ChecksumAccess
 1753              		.global	Bootloader_Checksum
 1754              		.section	.rodata
 1755              		.set	.LANCHOR0,. + 0
 1756              		.set	.LANCHOR1,. + 256
 1757              		.type	auchCRCHi, %object
 1758              		.size	auchCRCHi, 256
 1759              	auchCRCHi:
 1760 0000 00       		.byte	0
 1761 0001 C1       		.byte	-63
 1762 0002 81       		.byte	-127
 1763 0003 40       		.byte	64
 1764 0004 01       		.byte	1
 1765 0005 C0       		.byte	-64
 1766 0006 80       		.byte	-128
 1767 0007 41       		.byte	65
 1768 0008 01       		.byte	1
 1769 0009 C0       		.byte	-64
 1770 000a 80       		.byte	-128
 1771 000b 41       		.byte	65
 1772 000c 00       		.byte	0
 1773 000d C1       		.byte	-63
 1774 000e 81       		.byte	-127
 1775 000f 40       		.byte	64
 1776 0010 01       		.byte	1
 1777 0011 C0       		.byte	-64
 1778 0012 80       		.byte	-128
 1779 0013 41       		.byte	65
 1780 0014 00       		.byte	0
 1781 0015 C1       		.byte	-63
 1782 0016 81       		.byte	-127
 1783 0017 40       		.byte	64
 1784 0018 00       		.byte	0
 1785 0019 C1       		.byte	-63
 1786 001a 81       		.byte	-127
 1787 001b 40       		.byte	64
 1788 001c 01       		.byte	1
 1789 001d C0       		.byte	-64
 1790 001e 80       		.byte	-128
 1791 001f 41       		.byte	65
 1792 0020 01       		.byte	1
 1793 0021 C0       		.byte	-64
 1794 0022 80       		.byte	-128
 1795 0023 41       		.byte	65
 1796 0024 00       		.byte	0
 1797 0025 C1       		.byte	-63
ARM GAS  C:\Users\ZHANGM~1\AppData\Local\Temp\ccse5bds.s 			page 59


 1798 0026 81       		.byte	-127
 1799 0027 40       		.byte	64
 1800 0028 00       		.byte	0
 1801 0029 C1       		.byte	-63
 1802 002a 81       		.byte	-127
 1803 002b 40       		.byte	64
 1804 002c 01       		.byte	1
 1805 002d C0       		.byte	-64
 1806 002e 80       		.byte	-128
 1807 002f 41       		.byte	65
 1808 0030 00       		.byte	0
 1809 0031 C1       		.byte	-63
 1810 0032 81       		.byte	-127
 1811 0033 40       		.byte	64
 1812 0034 01       		.byte	1
 1813 0035 C0       		.byte	-64
 1814 0036 80       		.byte	-128
 1815 0037 41       		.byte	65
 1816 0038 01       		.byte	1
 1817 0039 C0       		.byte	-64
 1818 003a 80       		.byte	-128
 1819 003b 41       		.byte	65
 1820 003c 00       		.byte	0
 1821 003d C1       		.byte	-63
 1822 003e 81       		.byte	-127
 1823 003f 40       		.byte	64
 1824 0040 01       		.byte	1
 1825 0041 C0       		.byte	-64
 1826 0042 80       		.byte	-128
 1827 0043 41       		.byte	65
 1828 0044 00       		.byte	0
 1829 0045 C1       		.byte	-63
 1830 0046 81       		.byte	-127
 1831 0047 40       		.byte	64
 1832 0048 00       		.byte	0
 1833 0049 C1       		.byte	-63
 1834 004a 81       		.byte	-127
 1835 004b 40       		.byte	64
 1836 004c 01       		.byte	1
 1837 004d C0       		.byte	-64
 1838 004e 80       		.byte	-128
 1839 004f 41       		.byte	65
 1840 0050 00       		.byte	0
 1841 0051 C1       		.byte	-63
 1842 0052 81       		.byte	-127
 1843 0053 40       		.byte	64
 1844 0054 01       		.byte	1
 1845 0055 C0       		.byte	-64
 1846 0056 80       		.byte	-128
 1847 0057 41       		.byte	65
 1848 0058 01       		.byte	1
 1849 0059 C0       		.byte	-64
 1850 005a 80       		.byte	-128
 1851 005b 41       		.byte	65
 1852 005c 00       		.byte	0
 1853 005d C1       		.byte	-63
 1854 005e 81       		.byte	-127
ARM GAS  C:\Users\ZHANGM~1\AppData\Local\Temp\ccse5bds.s 			page 60


 1855 005f 40       		.byte	64
 1856 0060 00       		.byte	0
 1857 0061 C1       		.byte	-63
 1858 0062 81       		.byte	-127
 1859 0063 40       		.byte	64
 1860 0064 01       		.byte	1
 1861 0065 C0       		.byte	-64
 1862 0066 80       		.byte	-128
 1863 0067 41       		.byte	65
 1864 0068 01       		.byte	1
 1865 0069 C0       		.byte	-64
 1866 006a 80       		.byte	-128
 1867 006b 41       		.byte	65
 1868 006c 00       		.byte	0
 1869 006d C1       		.byte	-63
 1870 006e 81       		.byte	-127
 1871 006f 40       		.byte	64
 1872 0070 01       		.byte	1
 1873 0071 C0       		.byte	-64
 1874 0072 80       		.byte	-128
 1875 0073 41       		.byte	65
 1876 0074 00       		.byte	0
 1877 0075 C1       		.byte	-63
 1878 0076 81       		.byte	-127
 1879 0077 40       		.byte	64
 1880 0078 00       		.byte	0
 1881 0079 C1       		.byte	-63
 1882 007a 81       		.byte	-127
 1883 007b 40       		.byte	64
 1884 007c 01       		.byte	1
 1885 007d C0       		.byte	-64
 1886 007e 80       		.byte	-128
 1887 007f 41       		.byte	65
 1888 0080 01       		.byte	1
 1889 0081 C0       		.byte	-64
 1890 0082 80       		.byte	-128
 1891 0083 41       		.byte	65
 1892 0084 00       		.byte	0
 1893 0085 C1       		.byte	-63
 1894 0086 81       		.byte	-127
 1895 0087 40       		.byte	64
 1896 0088 00       		.byte	0
 1897 0089 C1       		.byte	-63
 1898 008a 81       		.byte	-127
 1899 008b 40       		.byte	64
 1900 008c 01       		.byte	1
 1901 008d C0       		.byte	-64
 1902 008e 80       		.byte	-128
 1903 008f 41       		.byte	65
 1904 0090 00       		.byte	0
 1905 0091 C1       		.byte	-63
 1906 0092 81       		.byte	-127
 1907 0093 40       		.byte	64
 1908 0094 01       		.byte	1
 1909 0095 C0       		.byte	-64
 1910 0096 80       		.byte	-128
 1911 0097 41       		.byte	65
ARM GAS  C:\Users\ZHANGM~1\AppData\Local\Temp\ccse5bds.s 			page 61


 1912 0098 01       		.byte	1
 1913 0099 C0       		.byte	-64
 1914 009a 80       		.byte	-128
 1915 009b 41       		.byte	65
 1916 009c 00       		.byte	0
 1917 009d C1       		.byte	-63
 1918 009e 81       		.byte	-127
 1919 009f 40       		.byte	64
 1920 00a0 00       		.byte	0
 1921 00a1 C1       		.byte	-63
 1922 00a2 81       		.byte	-127
 1923 00a3 40       		.byte	64
 1924 00a4 01       		.byte	1
 1925 00a5 C0       		.byte	-64
 1926 00a6 80       		.byte	-128
 1927 00a7 41       		.byte	65
 1928 00a8 01       		.byte	1
 1929 00a9 C0       		.byte	-64
 1930 00aa 80       		.byte	-128
 1931 00ab 41       		.byte	65
 1932 00ac 00       		.byte	0
 1933 00ad C1       		.byte	-63
 1934 00ae 81       		.byte	-127
 1935 00af 40       		.byte	64
 1936 00b0 01       		.byte	1
 1937 00b1 C0       		.byte	-64
 1938 00b2 80       		.byte	-128
 1939 00b3 41       		.byte	65
 1940 00b4 00       		.byte	0
 1941 00b5 C1       		.byte	-63
 1942 00b6 81       		.byte	-127
 1943 00b7 40       		.byte	64
 1944 00b8 00       		.byte	0
 1945 00b9 C1       		.byte	-63
 1946 00ba 81       		.byte	-127
 1947 00bb 40       		.byte	64
 1948 00bc 01       		.byte	1
 1949 00bd C0       		.byte	-64
 1950 00be 80       		.byte	-128
 1951 00bf 41       		.byte	65
 1952 00c0 00       		.byte	0
 1953 00c1 C1       		.byte	-63
 1954 00c2 81       		.byte	-127
 1955 00c3 40       		.byte	64
 1956 00c4 01       		.byte	1
 1957 00c5 C0       		.byte	-64
 1958 00c6 80       		.byte	-128
 1959 00c7 41       		.byte	65
 1960 00c8 01       		.byte	1
 1961 00c9 C0       		.byte	-64
 1962 00ca 80       		.byte	-128
 1963 00cb 41       		.byte	65
 1964 00cc 00       		.byte	0
 1965 00cd C1       		.byte	-63
 1966 00ce 81       		.byte	-127
 1967 00cf 40       		.byte	64
 1968 00d0 01       		.byte	1
ARM GAS  C:\Users\ZHANGM~1\AppData\Local\Temp\ccse5bds.s 			page 62


 1969 00d1 C0       		.byte	-64
 1970 00d2 80       		.byte	-128
 1971 00d3 41       		.byte	65
 1972 00d4 00       		.byte	0
 1973 00d5 C1       		.byte	-63
 1974 00d6 81       		.byte	-127
 1975 00d7 40       		.byte	64
 1976 00d8 00       		.byte	0
 1977 00d9 C1       		.byte	-63
 1978 00da 81       		.byte	-127
 1979 00db 40       		.byte	64
 1980 00dc 01       		.byte	1
 1981 00dd C0       		.byte	-64
 1982 00de 80       		.byte	-128
 1983 00df 41       		.byte	65
 1984 00e0 01       		.byte	1
 1985 00e1 C0       		.byte	-64
 1986 00e2 80       		.byte	-128
 1987 00e3 41       		.byte	65
 1988 00e4 00       		.byte	0
 1989 00e5 C1       		.byte	-63
 1990 00e6 81       		.byte	-127
 1991 00e7 40       		.byte	64
 1992 00e8 00       		.byte	0
 1993 00e9 C1       		.byte	-63
 1994 00ea 81       		.byte	-127
 1995 00eb 40       		.byte	64
 1996 00ec 01       		.byte	1
 1997 00ed C0       		.byte	-64
 1998 00ee 80       		.byte	-128
 1999 00ef 41       		.byte	65
 2000 00f0 00       		.byte	0
 2001 00f1 C1       		.byte	-63
 2002 00f2 81       		.byte	-127
 2003 00f3 40       		.byte	64
 2004 00f4 01       		.byte	1
 2005 00f5 C0       		.byte	-64
 2006 00f6 80       		.byte	-128
 2007 00f7 41       		.byte	65
 2008 00f8 01       		.byte	1
 2009 00f9 C0       		.byte	-64
 2010 00fa 80       		.byte	-128
 2011 00fb 41       		.byte	65
 2012 00fc 00       		.byte	0
 2013 00fd C1       		.byte	-63
 2014 00fe 81       		.byte	-127
 2015 00ff 40       		.byte	64
 2016              		.type	auchCRCLo, %object
 2017              		.size	auchCRCLo, 256
 2018              	auchCRCLo:
 2019 0100 00       		.byte	0
 2020 0101 C0       		.byte	-64
 2021 0102 C1       		.byte	-63
 2022 0103 01       		.byte	1
 2023 0104 C3       		.byte	-61
 2024 0105 03       		.byte	3
 2025 0106 02       		.byte	2
ARM GAS  C:\Users\ZHANGM~1\AppData\Local\Temp\ccse5bds.s 			page 63


 2026 0107 C2       		.byte	-62
 2027 0108 C6       		.byte	-58
 2028 0109 06       		.byte	6
 2029 010a 07       		.byte	7
 2030 010b C7       		.byte	-57
 2031 010c 05       		.byte	5
 2032 010d C5       		.byte	-59
 2033 010e C4       		.byte	-60
 2034 010f 04       		.byte	4
 2035 0110 CC       		.byte	-52
 2036 0111 0C       		.byte	12
 2037 0112 0D       		.byte	13
 2038 0113 CD       		.byte	-51
 2039 0114 0F       		.byte	15
 2040 0115 CF       		.byte	-49
 2041 0116 CE       		.byte	-50
 2042 0117 0E       		.byte	14
 2043 0118 0A       		.byte	10
 2044 0119 CA       		.byte	-54
 2045 011a CB       		.byte	-53
 2046 011b 0B       		.byte	11
 2047 011c C9       		.byte	-55
 2048 011d 09       		.byte	9
 2049 011e 08       		.byte	8
 2050 011f C8       		.byte	-56
 2051 0120 D8       		.byte	-40
 2052 0121 18       		.byte	24
 2053 0122 19       		.byte	25
 2054 0123 D9       		.byte	-39
 2055 0124 1B       		.byte	27
 2056 0125 DB       		.byte	-37
 2057 0126 DA       		.byte	-38
 2058 0127 1A       		.byte	26
 2059 0128 1E       		.byte	30
 2060 0129 DE       		.byte	-34
 2061 012a DF       		.byte	-33
 2062 012b 1F       		.byte	31
 2063 012c DD       		.byte	-35
 2064 012d 1D       		.byte	29
 2065 012e 1C       		.byte	28
 2066 012f DC       		.byte	-36
 2067 0130 14       		.byte	20
 2068 0131 D4       		.byte	-44
 2069 0132 D5       		.byte	-43
 2070 0133 15       		.byte	21
 2071 0134 D7       		.byte	-41
 2072 0135 17       		.byte	23
 2073 0136 16       		.byte	22
 2074 0137 D6       		.byte	-42
 2075 0138 D2       		.byte	-46
 2076 0139 12       		.byte	18
 2077 013a 13       		.byte	19
 2078 013b D3       		.byte	-45
 2079 013c 11       		.byte	17
 2080 013d D1       		.byte	-47
 2081 013e D0       		.byte	-48
 2082 013f 10       		.byte	16
ARM GAS  C:\Users\ZHANGM~1\AppData\Local\Temp\ccse5bds.s 			page 64


 2083 0140 F0       		.byte	-16
 2084 0141 30       		.byte	48
 2085 0142 31       		.byte	49
 2086 0143 F1       		.byte	-15
 2087 0144 33       		.byte	51
 2088 0145 F3       		.byte	-13
 2089 0146 F2       		.byte	-14
 2090 0147 32       		.byte	50
 2091 0148 36       		.byte	54
 2092 0149 F6       		.byte	-10
 2093 014a F7       		.byte	-9
 2094 014b 37       		.byte	55
 2095 014c F5       		.byte	-11
 2096 014d 35       		.byte	53
 2097 014e 34       		.byte	52
 2098 014f F4       		.byte	-12
 2099 0150 3C       		.byte	60
 2100 0151 FC       		.byte	-4
 2101 0152 FD       		.byte	-3
 2102 0153 3D       		.byte	61
 2103 0154 FF       		.byte	-1
 2104 0155 3F       		.byte	63
 2105 0156 3E       		.byte	62
 2106 0157 FE       		.byte	-2
 2107 0158 FA       		.byte	-6
 2108 0159 3A       		.byte	58
 2109 015a 3B       		.byte	59
 2110 015b FB       		.byte	-5
 2111 015c 39       		.byte	57
 2112 015d F9       		.byte	-7
 2113 015e F8       		.byte	-8
 2114 015f 38       		.byte	56
 2115 0160 28       		.byte	40
 2116 0161 E8       		.byte	-24
 2117 0162 E9       		.byte	-23
 2118 0163 29       		.byte	41
 2119 0164 EB       		.byte	-21
 2120 0165 2B       		.byte	43
 2121 0166 2A       		.byte	42
 2122 0167 EA       		.byte	-22
 2123 0168 EE       		.byte	-18
 2124 0169 2E       		.byte	46
 2125 016a 2F       		.byte	47
 2126 016b EF       		.byte	-17
 2127 016c 2D       		.byte	45
 2128 016d ED       		.byte	-19
 2129 016e EC       		.byte	-20
 2130 016f 2C       		.byte	44
 2131 0170 E4       		.byte	-28
 2132 0171 24       		.byte	36
 2133 0172 25       		.byte	37
 2134 0173 E5       		.byte	-27
 2135 0174 27       		.byte	39
 2136 0175 E7       		.byte	-25
 2137 0176 E6       		.byte	-26
 2138 0177 26       		.byte	38
 2139 0178 22       		.byte	34
ARM GAS  C:\Users\ZHANGM~1\AppData\Local\Temp\ccse5bds.s 			page 65


 2140 0179 E2       		.byte	-30
 2141 017a E3       		.byte	-29
 2142 017b 23       		.byte	35
 2143 017c E1       		.byte	-31
 2144 017d 21       		.byte	33
 2145 017e 20       		.byte	32
 2146 017f E0       		.byte	-32
 2147 0180 A0       		.byte	-96
 2148 0181 60       		.byte	96
 2149 0182 61       		.byte	97
 2150 0183 A1       		.byte	-95
 2151 0184 63       		.byte	99
 2152 0185 A3       		.byte	-93
 2153 0186 A2       		.byte	-94
 2154 0187 62       		.byte	98
 2155 0188 66       		.byte	102
 2156 0189 A6       		.byte	-90
 2157 018a A7       		.byte	-89
 2158 018b 67       		.byte	103
 2159 018c A5       		.byte	-91
 2160 018d 65       		.byte	101
 2161 018e 64       		.byte	100
 2162 018f A4       		.byte	-92
 2163 0190 6C       		.byte	108
 2164 0191 AC       		.byte	-84
 2165 0192 AD       		.byte	-83
 2166 0193 6D       		.byte	109
 2167 0194 AF       		.byte	-81
 2168 0195 6F       		.byte	111
 2169 0196 6E       		.byte	110
 2170 0197 AE       		.byte	-82
 2171 0198 AA       		.byte	-86
 2172 0199 6A       		.byte	106
 2173 019a 6B       		.byte	107
 2174 019b AB       		.byte	-85
 2175 019c 69       		.byte	105
 2176 019d A9       		.byte	-87
 2177 019e A8       		.byte	-88
 2178 019f 68       		.byte	104
 2179 01a0 78       		.byte	120
 2180 01a1 B8       		.byte	-72
 2181 01a2 B9       		.byte	-71
 2182 01a3 79       		.byte	121
 2183 01a4 BB       		.byte	-69
 2184 01a5 7B       		.byte	123
 2185 01a6 7A       		.byte	122
 2186 01a7 BA       		.byte	-70
 2187 01a8 BE       		.byte	-66
 2188 01a9 7E       		.byte	126
 2189 01aa 7F       		.byte	127
 2190 01ab BF       		.byte	-65
 2191 01ac 7D       		.byte	125
 2192 01ad BD       		.byte	-67
 2193 01ae BC       		.byte	-68
 2194 01af 7C       		.byte	124
 2195 01b0 B4       		.byte	-76
 2196 01b1 74       		.byte	116
ARM GAS  C:\Users\ZHANGM~1\AppData\Local\Temp\ccse5bds.s 			page 66


 2197 01b2 75       		.byte	117
 2198 01b3 B5       		.byte	-75
 2199 01b4 77       		.byte	119
 2200 01b5 B7       		.byte	-73
 2201 01b6 B6       		.byte	-74
 2202 01b7 76       		.byte	118
 2203 01b8 72       		.byte	114
 2204 01b9 B2       		.byte	-78
 2205 01ba B3       		.byte	-77
 2206 01bb 73       		.byte	115
 2207 01bc B1       		.byte	-79
 2208 01bd 71       		.byte	113
 2209 01be 70       		.byte	112
 2210 01bf B0       		.byte	-80
 2211 01c0 50       		.byte	80
 2212 01c1 90       		.byte	-112
 2213 01c2 91       		.byte	-111
 2214 01c3 51       		.byte	81
 2215 01c4 93       		.byte	-109
 2216 01c5 53       		.byte	83
 2217 01c6 52       		.byte	82
 2218 01c7 92       		.byte	-110
 2219 01c8 96       		.byte	-106
 2220 01c9 56       		.byte	86
 2221 01ca 57       		.byte	87
 2222 01cb 97       		.byte	-105
 2223 01cc 55       		.byte	85
 2224 01cd 95       		.byte	-107
 2225 01ce 94       		.byte	-108
 2226 01cf 54       		.byte	84
 2227 01d0 9C       		.byte	-100
 2228 01d1 5C       		.byte	92
 2229 01d2 5D       		.byte	93
 2230 01d3 9D       		.byte	-99
 2231 01d4 5F       		.byte	95
 2232 01d5 9F       		.byte	-97
 2233 01d6 9E       		.byte	-98
 2234 01d7 5E       		.byte	94
 2235 01d8 5A       		.byte	90
 2236 01d9 9A       		.byte	-102
 2237 01da 9B       		.byte	-101
 2238 01db 5B       		.byte	91
 2239 01dc 99       		.byte	-103
 2240 01dd 59       		.byte	89
 2241 01de 58       		.byte	88
 2242 01df 98       		.byte	-104
 2243 01e0 88       		.byte	-120
 2244 01e1 48       		.byte	72
 2245 01e2 49       		.byte	73
 2246 01e3 89       		.byte	-119
 2247 01e4 4B       		.byte	75
 2248 01e5 8B       		.byte	-117
 2249 01e6 8A       		.byte	-118
 2250 01e7 4A       		.byte	74
 2251 01e8 4E       		.byte	78
 2252 01e9 8E       		.byte	-114
 2253 01ea 8F       		.byte	-113
ARM GAS  C:\Users\ZHANGM~1\AppData\Local\Temp\ccse5bds.s 			page 67


 2254 01eb 4F       		.byte	79
 2255 01ec 8D       		.byte	-115
 2256 01ed 4D       		.byte	77
 2257 01ee 4C       		.byte	76
 2258 01ef 8C       		.byte	-116
 2259 01f0 44       		.byte	68
 2260 01f1 84       		.byte	-124
 2261 01f2 85       		.byte	-123
 2262 01f3 45       		.byte	69
 2263 01f4 87       		.byte	-121
 2264 01f5 47       		.byte	71
 2265 01f6 46       		.byte	70
 2266 01f7 86       		.byte	-122
 2267 01f8 82       		.byte	-126
 2268 01f9 42       		.byte	66
 2269 01fa 43       		.byte	67
 2270 01fb 83       		.byte	-125
 2271 01fc 41       		.byte	65
 2272 01fd 81       		.byte	-127
 2273 01fe 80       		.byte	-128
 2274 01ff 40       		.byte	64
 2275              		.section	.bootloader,"a",%progbits
 2276              		.align	2
 2277              		.type	Bootloader_SizeBytes, %object
 2278              		.size	Bootloader_SizeBytes, 4
 2279              	Bootloader_SizeBytes:
 2280 0000 FFFFFFFF 		.word	-1
 2281              		.type	Bootloader_Checksum, %object
 2282              		.size	Bootloader_Checksum, 1
 2283              	Bootloader_Checksum:
 2284 0004 00       		.space	1
 2285 0005 000000   		.data
 2286              		.align	2
 2287              		.type	Bootloader_SizeBytesAccess, %object
 2288              		.size	Bootloader_SizeBytesAccess, 4
 2289              	Bootloader_SizeBytesAccess:
 2290 0000 00000000 		.word	Bootloader_SizeBytes
 2291              		.type	Bootloader_ChecksumAccess, %object
 2292              		.size	Bootloader_ChecksumAccess, 4
 2293              	Bootloader_ChecksumAccess:
 2294 0004 00000000 		.word	Bootloader_Checksum
 2295              		.bss
 2296              		.set	.LANCHOR2,. + 0
 2297              		.type	cBuf.5292, %object
 2298              		.size	cBuf.5292, 255
 2299              	cBuf.5292:
 2300 0000 00000000 		.space	255
 2300      00000000 
 2300      00000000 
 2300      00000000 
 2300      00000000 
 2301              		.text
 2302              	.Letext0:
 2303              		.file 2 ".\\Generated_Source\\PSoC4\\cytypes.h"
 2304              		.file 3 ".\\Generated_Source\\PSoC4\\Bootloader.h"
 2305              		.file 4 ".\\Generated_Source\\PSoC4/PWM.h"
 2306              		.file 5 ".\\Generated_Source\\PSoC4\\CyLib.h"
ARM GAS  C:\Users\ZHANGM~1\AppData\Local\Temp\ccse5bds.s 			page 68


 2307              		.file 6 ".\\Generated_Source\\PSoC4/UART_0.h"
 2308              		.file 7 ".\\Generated_Source\\PSoC4/UART_0_SPI_UART.h"
 2309              		.file 8 ".\\Generated_Source\\PSoC4\\CyFlash.h"
 2310              		.section	.debug_info,"",%progbits
 2311              	.Ldebug_info0:
 2312 0000 B70D0000 		.4byte	0xdb7
 2313 0004 0400     		.2byte	0x4
 2314 0006 00000000 		.4byte	.Ldebug_abbrev0
 2315 000a 04       		.byte	0x4
 2316 000b 01       		.uleb128 0x1
 2317 000c B0000000 		.4byte	.LASF138
 2318 0010 01       		.byte	0x1
 2319 0011 7A070000 		.4byte	.LASF139
 2320 0015 79010000 		.4byte	.LASF140
 2321 0019 18000000 		.4byte	.Ldebug_ranges0+0x18
 2322 001d 00000000 		.4byte	0
 2323 0021 00000000 		.4byte	.Ldebug_line0
 2324 0025 02       		.uleb128 0x2
 2325 0026 01       		.byte	0x1
 2326 0027 06       		.byte	0x6
 2327 0028 9B060000 		.4byte	.LASF0
 2328 002c 02       		.uleb128 0x2
 2329 002d 01       		.byte	0x1
 2330 002e 08       		.byte	0x8
 2331 002f 4F060000 		.4byte	.LASF1
 2332 0033 02       		.uleb128 0x2
 2333 0034 02       		.byte	0x2
 2334 0035 05       		.byte	0x5
 2335 0036 E6040000 		.4byte	.LASF2
 2336 003a 02       		.uleb128 0x2
 2337 003b 02       		.byte	0x2
 2338 003c 07       		.byte	0x7
 2339 003d C1060000 		.4byte	.LASF3
 2340 0041 02       		.uleb128 0x2
 2341 0042 04       		.byte	0x4
 2342 0043 05       		.byte	0x5
 2343 0044 F5040000 		.4byte	.LASF4
 2344 0048 02       		.uleb128 0x2
 2345 0049 04       		.byte	0x4
 2346 004a 07       		.byte	0x7
 2347 004b BC050000 		.4byte	.LASF5
 2348 004f 02       		.uleb128 0x2
 2349 0050 08       		.byte	0x8
 2350 0051 05       		.byte	0x5
 2351 0052 EE030000 		.4byte	.LASF6
 2352 0056 02       		.uleb128 0x2
 2353 0057 08       		.byte	0x8
 2354 0058 07       		.byte	0x7
 2355 0059 AE020000 		.4byte	.LASF7
 2356 005d 03       		.uleb128 0x3
 2357 005e 04       		.byte	0x4
 2358 005f 05       		.byte	0x5
 2359 0060 696E7400 		.ascii	"int\000"
 2360 0064 02       		.uleb128 0x2
 2361 0065 04       		.byte	0x4
 2362 0066 07       		.byte	0x7
 2363 0067 85000000 		.4byte	.LASF8
ARM GAS  C:\Users\ZHANGM~1\AppData\Local\Temp\ccse5bds.s 			page 69


 2364 006b 04       		.uleb128 0x4
 2365 006c 1F070000 		.4byte	.LASF9
 2366 0070 02       		.byte	0x2
 2367 0071 A1       		.byte	0xa1
 2368 0072 2C000000 		.4byte	0x2c
 2369 0076 04       		.uleb128 0x4
 2370 0077 BA030000 		.4byte	.LASF10
 2371 007b 02       		.byte	0x2
 2372 007c A2       		.byte	0xa2
 2373 007d 3A000000 		.4byte	0x3a
 2374 0081 04       		.uleb128 0x4
 2375 0082 5B040000 		.4byte	.LASF11
 2376 0086 02       		.byte	0x2
 2377 0087 A3       		.byte	0xa3
 2378 0088 48000000 		.4byte	0x48
 2379 008c 02       		.uleb128 0x2
 2380 008d 04       		.byte	0x4
 2381 008e 04       		.byte	0x4
 2382 008f 8A020000 		.4byte	.LASF12
 2383 0093 02       		.uleb128 0x2
 2384 0094 08       		.byte	0x8
 2385 0095 04       		.byte	0x4
 2386 0096 25070000 		.4byte	.LASF13
 2387 009a 02       		.uleb128 0x2
 2388 009b 01       		.byte	0x1
 2389 009c 08       		.byte	0x8
 2390 009d 8F030000 		.4byte	.LASF14
 2391 00a1 05       		.uleb128 0x5
 2392 00a2 FE050000 		.4byte	.LASF15
 2393 00a6 02       		.byte	0x2
 2394 00a7 4301     		.2byte	0x143
 2395 00a9 48000000 		.4byte	0x48
 2396 00ad 05       		.uleb128 0x5
 2397 00ae 6A010000 		.4byte	.LASF16
 2398 00b2 02       		.byte	0x2
 2399 00b3 4B01     		.2byte	0x14b
 2400 00b5 B9000000 		.4byte	0xb9
 2401 00b9 06       		.uleb128 0x6
 2402 00ba 6B000000 		.4byte	0x6b
 2403 00be 05       		.uleb128 0x5
 2404 00bf D3040000 		.4byte	.LASF17
 2405 00c3 02       		.byte	0x2
 2406 00c4 4D01     		.2byte	0x14d
 2407 00c6 CA000000 		.4byte	0xca
 2408 00ca 06       		.uleb128 0x6
 2409 00cb 81000000 		.4byte	0x81
 2410 00cf 05       		.uleb128 0x5
 2411 00d0 2A040000 		.4byte	.LASF18
 2412 00d4 02       		.byte	0x2
 2413 00d5 5D01     		.2byte	0x15d
 2414 00d7 DB000000 		.4byte	0xdb
 2415 00db 07       		.uleb128 0x7
 2416 00dc 04       		.byte	0x4
 2417 00dd E1000000 		.4byte	0xe1
 2418 00e1 08       		.uleb128 0x8
 2419 00e2 02       		.uleb128 0x2
 2420 00e3 04       		.byte	0x4
ARM GAS  C:\Users\ZHANGM~1\AppData\Local\Temp\ccse5bds.s 			page 70


 2421 00e4 07       		.byte	0x7
 2422 00e5 B3050000 		.4byte	.LASF19
 2423 00e9 09       		.uleb128 0x9
 2424 00ea 04       		.byte	0x4
 2425 00eb 07       		.uleb128 0x7
 2426 00ec 04       		.byte	0x4
 2427 00ed 6B000000 		.4byte	0x6b
 2428 00f1 0A       		.uleb128 0xa
 2429 00f2 04       		.byte	0x4
 2430 00f3 01       		.byte	0x1
 2431 00f4 4F       		.byte	0x4f
 2432 00f5 72010000 		.4byte	0x172
 2433 00f9 0B       		.uleb128 0xb
 2434 00fa 23020000 		.4byte	.LASF20
 2435 00fe 01       		.byte	0x1
 2436 00ff 50       		.byte	0x50
 2437 0100 64000000 		.4byte	0x64
 2438 0104 04       		.byte	0x4
 2439 0105 01       		.byte	0x1
 2440 0106 1F       		.byte	0x1f
 2441 0107 00       		.byte	0
 2442 0108 0B       		.uleb128 0xb
 2443 0109 BE040000 		.4byte	.LASF21
 2444 010d 01       		.byte	0x1
 2445 010e 51       		.byte	0x51
 2446 010f 64000000 		.4byte	0x64
 2447 0113 04       		.byte	0x4
 2448 0114 01       		.byte	0x1
 2449 0115 1E       		.byte	0x1e
 2450 0116 00       		.byte	0
 2451 0117 0B       		.uleb128 0xb
 2452 0118 81030000 		.4byte	.LASF22
 2453 011c 01       		.byte	0x1
 2454 011d 52       		.byte	0x52
 2455 011e 64000000 		.4byte	0x64
 2456 0122 04       		.byte	0x4
 2457 0123 01       		.byte	0x1
 2458 0124 1D       		.byte	0x1d
 2459 0125 00       		.byte	0
 2460 0126 0B       		.uleb128 0xb
 2461 0127 32000000 		.4byte	.LASF23
 2462 012b 01       		.byte	0x1
 2463 012c 53       		.byte	0x53
 2464 012d 64000000 		.4byte	0x64
 2465 0131 04       		.byte	0x4
 2466 0132 01       		.byte	0x1
 2467 0133 1C       		.byte	0x1c
 2468 0134 00       		.byte	0
 2469 0135 0B       		.uleb128 0xb
 2470 0136 EE060000 		.4byte	.LASF24
 2471 013a 01       		.byte	0x1
 2472 013b 54       		.byte	0x54
 2473 013c 64000000 		.4byte	0x64
 2474 0140 04       		.byte	0x4
 2475 0141 01       		.byte	0x1
 2476 0142 1B       		.byte	0x1b
 2477 0143 00       		.byte	0
ARM GAS  C:\Users\ZHANGM~1\AppData\Local\Temp\ccse5bds.s 			page 71


 2478 0144 0B       		.uleb128 0xb
 2479 0145 FC030000 		.4byte	.LASF25
 2480 0149 01       		.byte	0x1
 2481 014a 55       		.byte	0x55
 2482 014b 64000000 		.4byte	0x64
 2483 014f 04       		.byte	0x4
 2484 0150 01       		.byte	0x1
 2485 0151 1A       		.byte	0x1a
 2486 0152 00       		.byte	0
 2487 0153 0B       		.uleb128 0xb
 2488 0154 7D000000 		.4byte	.LASF26
 2489 0158 01       		.byte	0x1
 2490 0159 56       		.byte	0x56
 2491 015a 64000000 		.4byte	0x64
 2492 015e 04       		.byte	0x4
 2493 015f 01       		.byte	0x1
 2494 0160 19       		.byte	0x19
 2495 0161 00       		.byte	0
 2496 0162 0B       		.uleb128 0xb
 2497 0163 DE040000 		.4byte	.LASF27
 2498 0167 01       		.byte	0x1
 2499 0168 57       		.byte	0x57
 2500 0169 64000000 		.4byte	0x64
 2501 016d 04       		.byte	0x4
 2502 016e 01       		.byte	0x1
 2503 016f 18       		.byte	0x18
 2504 0170 00       		.byte	0
 2505 0171 00       		.byte	0
 2506 0172 0A       		.uleb128 0xa
 2507 0173 04       		.byte	0x4
 2508 0174 01       		.byte	0x1
 2509 0175 5B       		.byte	0x5b
 2510 0176 B7010000 		.4byte	0x1b7
 2511 017a 0B       		.uleb128 0xb
 2512 017b 92000000 		.4byte	.LASF28
 2513 017f 01       		.byte	0x1
 2514 0180 5C       		.byte	0x5c
 2515 0181 64000000 		.4byte	0x64
 2516 0185 04       		.byte	0x4
 2517 0186 01       		.byte	0x1
 2518 0187 1F       		.byte	0x1f
 2519 0188 00       		.byte	0
 2520 0189 0B       		.uleb128 0xb
 2521 018a 56000000 		.4byte	.LASF29
 2522 018e 01       		.byte	0x1
 2523 018f 5D       		.byte	0x5d
 2524 0190 64000000 		.4byte	0x64
 2525 0194 04       		.byte	0x4
 2526 0195 01       		.byte	0x1
 2527 0196 1E       		.byte	0x1e
 2528 0197 00       		.byte	0
 2529 0198 0B       		.uleb128 0xb
 2530 0199 12040000 		.4byte	.LASF30
 2531 019d 01       		.byte	0x1
 2532 019e 5E       		.byte	0x5e
 2533 019f 64000000 		.4byte	0x64
 2534 01a3 04       		.byte	0x4
ARM GAS  C:\Users\ZHANGM~1\AppData\Local\Temp\ccse5bds.s 			page 72


 2535 01a4 01       		.byte	0x1
 2536 01a5 1D       		.byte	0x1d
 2537 01a6 00       		.byte	0
 2538 01a7 0B       		.uleb128 0xb
 2539 01a8 07050000 		.4byte	.LASF31
 2540 01ac 01       		.byte	0x1
 2541 01ad 5F       		.byte	0x5f
 2542 01ae 64000000 		.4byte	0x64
 2543 01b2 04       		.byte	0x4
 2544 01b3 01       		.byte	0x1
 2545 01b4 1C       		.byte	0x1c
 2546 01b5 00       		.byte	0
 2547 01b6 00       		.byte	0
 2548 01b7 0C       		.uleb128 0xc
 2549 01b8 A5070000 		.4byte	.LASF141
 2550 01bc 0201     		.2byte	0x102
 2551 01be 01       		.byte	0x1
 2552 01bf 62       		.byte	0x62
 2553 01c0 DE010000 		.4byte	0x1de
 2554 01c4 0D       		.uleb128 0xd
 2555 01c5 40000000 		.4byte	.LASF32
 2556 01c9 01       		.byte	0x1
 2557 01ca 64       		.byte	0x64
 2558 01cb DE010000 		.4byte	0x1de
 2559 01cf 00       		.byte	0
 2560 01d0 0E       		.uleb128 0xe
 2561 01d1 16050000 		.4byte	.LASF33
 2562 01d5 01       		.byte	0x1
 2563 01d6 65       		.byte	0x65
 2564 01d7 76000000 		.4byte	0x76
 2565 01db 0001     		.2byte	0x100
 2566 01dd 00       		.byte	0
 2567 01de 0F       		.uleb128 0xf
 2568 01df 6B000000 		.4byte	0x6b
 2569 01e3 EE010000 		.4byte	0x1ee
 2570 01e7 10       		.uleb128 0x10
 2571 01e8 E2000000 		.4byte	0xe2
 2572 01ec FE       		.byte	0xfe
 2573 01ed 00       		.byte	0
 2574 01ee 11       		.uleb128 0x11
 2575 01ef 86040000 		.4byte	.LASF125
 2576 01f3 01       		.byte	0x1
 2577 01f4 0603     		.2byte	0x306
 2578 01f6 01       		.byte	0x1
 2579 01f7 08020000 		.4byte	0x208
 2580 01fb 12       		.uleb128 0x12
 2581 01fc 58030000 		.4byte	.LASF87
 2582 0200 01       		.byte	0x1
 2583 0201 0803     		.2byte	0x308
 2584 0203 81000000 		.4byte	0x81
 2585 0207 00       		.byte	0
 2586 0208 13       		.uleb128 0x13
 2587 0209 31060000 		.4byte	.LASF81
 2588 020d 01       		.byte	0x1
 2589 020e BC02     		.2byte	0x2bc
 2590 0210 00000000 		.4byte	.LFB46
 2591 0214 02000000 		.4byte	.LFE46-.LFB46
ARM GAS  C:\Users\ZHANGM~1\AppData\Local\Temp\ccse5bds.s 			page 73


 2592 0218 01       		.uleb128 0x1
 2593 0219 9C       		.byte	0x9c
 2594 021a 2D020000 		.4byte	0x22d
 2595 021e 14       		.uleb128 0x14
 2596 021f 58020000 		.4byte	.LASF34
 2597 0223 01       		.byte	0x1
 2598 0224 BC02     		.2byte	0x2bc
 2599 0226 81000000 		.4byte	0x81
 2600 022a 01       		.uleb128 0x1
 2601 022b 50       		.byte	0x50
 2602 022c 00       		.byte	0
 2603 022d 15       		.uleb128 0x15
 2604 022e 56050000 		.4byte	.LASF46
 2605 0232 01       		.byte	0x1
 2606 0233 AF       		.byte	0xaf
 2607 0234 76000000 		.4byte	0x76
 2608 0238 00000000 		.4byte	.LFB33
 2609 023c 34000000 		.4byte	.LFE33-.LFB33
 2610 0240 01       		.uleb128 0x1
 2611 0241 9C       		.byte	0x9c
 2612 0242 92020000 		.4byte	0x292
 2613 0246 16       		.uleb128 0x16
 2614 0247 94030000 		.4byte	.LASF35
 2615 024b 01       		.byte	0x1
 2616 024c AF       		.byte	0xaf
 2617 024d EB000000 		.4byte	0xeb
 2618 0251 00000000 		.4byte	.LLST0
 2619 0255 16       		.uleb128 0x16
 2620 0256 77030000 		.4byte	.LASF36
 2621 025a 01       		.byte	0x1
 2622 025b AF       		.byte	0xaf
 2623 025c 76000000 		.4byte	0x76
 2624 0260 2B000000 		.4byte	.LLST1
 2625 0264 17       		.uleb128 0x17
 2626 0265 E5030000 		.4byte	.LASF37
 2627 0269 01       		.byte	0x1
 2628 026a B1       		.byte	0xb1
 2629 026b 6B000000 		.4byte	0x6b
 2630 026f 61000000 		.4byte	.LLST2
 2631 0273 17       		.uleb128 0x17
 2632 0274 62050000 		.4byte	.LASF38
 2633 0278 01       		.byte	0x1
 2634 0279 B2       		.byte	0xb2
 2635 027a 6B000000 		.4byte	0x6b
 2636 027e 8C000000 		.4byte	.LLST3
 2637 0282 17       		.uleb128 0x17
 2638 0283 2D050000 		.4byte	.LASF39
 2639 0287 01       		.byte	0x1
 2640 0288 B3       		.byte	0xb3
 2641 0289 81000000 		.4byte	0x81
 2642 028d C9000000 		.4byte	.LLST4
 2643 0291 00       		.byte	0
 2644 0292 18       		.uleb128 0x18
 2645 0293 54010000 		.4byte	.LASF41
 2646 0297 01       		.byte	0x1
 2647 0298 C2       		.byte	0xc2
 2648 0299 00000000 		.4byte	.LFB34
ARM GAS  C:\Users\ZHANGM~1\AppData\Local\Temp\ccse5bds.s 			page 74


 2649 029d 1C000000 		.4byte	.LFE34-.LFB34
 2650 02a1 01       		.uleb128 0x1
 2651 02a2 9C       		.byte	0x9c
 2652 02a3 B5020000 		.4byte	0x2b5
 2653 02a7 19       		.uleb128 0x19
 2654 02a8 1E030000 		.4byte	.LASF40
 2655 02ac 01       		.byte	0x1
 2656 02ad C2       		.byte	0xc2
 2657 02ae 6B000000 		.4byte	0x6b
 2658 02b2 01       		.uleb128 0x1
 2659 02b3 50       		.byte	0x50
 2660 02b4 00       		.byte	0
 2661 02b5 18       		.uleb128 0x18
 2662 02b6 FA020000 		.4byte	.LASF42
 2663 02ba 01       		.byte	0x1
 2664 02bb CD       		.byte	0xcd
 2665 02bc 00000000 		.4byte	.LFB35
 2666 02c0 38000000 		.4byte	.LFE35-.LFB35
 2667 02c4 01       		.uleb128 0x1
 2668 02c5 9C       		.byte	0x9c
 2669 02c6 D4020000 		.4byte	0x2d4
 2670 02ca 1A       		.uleb128 0x1a
 2671 02cb 26000000 		.4byte	.LVL15
 2672 02cf 92020000 		.4byte	0x292
 2673 02d3 00       		.byte	0
 2674 02d4 18       		.uleb128 0x18
 2675 02d5 07060000 		.4byte	.LASF43
 2676 02d9 01       		.byte	0x1
 2677 02da E0       		.byte	0xe0
 2678 02db 00000000 		.4byte	.LFB36
 2679 02df 20000000 		.4byte	.LFE36-.LFB36
 2680 02e3 01       		.uleb128 0x1
 2681 02e4 9C       		.byte	0x9c
 2682 02e5 06030000 		.4byte	0x306
 2683 02e9 19       		.uleb128 0x19
 2684 02ea 24050000 		.4byte	.LASF44
 2685 02ee 01       		.byte	0x1
 2686 02ef E0       		.byte	0xe0
 2687 02f0 EB000000 		.4byte	0xeb
 2688 02f4 01       		.uleb128 0x1
 2689 02f5 50       		.byte	0x50
 2690 02f6 16       		.uleb128 0x16
 2691 02f7 DE030000 		.4byte	.LASF45
 2692 02fb 01       		.byte	0x1
 2693 02fc E0       		.byte	0xe0
 2694 02fd 76000000 		.4byte	0x76
 2695 0301 DC000000 		.4byte	.LLST5
 2696 0305 00       		.byte	0
 2697 0306 15       		.uleb128 0x15
 2698 0307 EA020000 		.4byte	.LASF47
 2699 030b 01       		.byte	0x1
 2700 030c ED       		.byte	0xed
 2701 030d 6B000000 		.4byte	0x6b
 2702 0311 00000000 		.4byte	.LFB37
 2703 0315 20000000 		.4byte	.LFE37-.LFB37
 2704 0319 01       		.uleb128 0x1
 2705 031a 9C       		.byte	0x9c
ARM GAS  C:\Users\ZHANGM~1\AppData\Local\Temp\ccse5bds.s 			page 75


 2706 031b 4D030000 		.4byte	0x34d
 2707 031f 16       		.uleb128 0x16
 2708 0320 F0040000 		.4byte	.LASF48
 2709 0324 01       		.byte	0x1
 2710 0325 ED       		.byte	0xed
 2711 0326 EB000000 		.4byte	0xeb
 2712 032a FD000000 		.4byte	.LLST6
 2713 032e 1B       		.uleb128 0x1b
 2714 032f 4C656E00 		.ascii	"Len\000"
 2715 0333 01       		.byte	0x1
 2716 0334 ED       		.byte	0xed
 2717 0335 76000000 		.4byte	0x76
 2718 0339 28010000 		.4byte	.LLST7
 2719 033d 17       		.uleb128 0x17
 2720 033e 95040000 		.4byte	.LASF49
 2721 0342 01       		.byte	0x1
 2722 0343 EF       		.byte	0xef
 2723 0344 6B000000 		.4byte	0x6b
 2724 0348 5E010000 		.4byte	.LLST8
 2725 034c 00       		.byte	0
 2726 034d 1C       		.uleb128 0x1c
 2727 034e 23000000 		.4byte	.LASF50
 2728 0352 01       		.byte	0x1
 2729 0353 0401     		.2byte	0x104
 2730 0355 00000000 		.4byte	.LFB38
 2731 0359 A4000000 		.4byte	.LFE38-.LFB38
 2732 035d 01       		.uleb128 0x1
 2733 035e 9C       		.byte	0x9c
 2734 035f 49040000 		.4byte	0x449
 2735 0363 1D       		.uleb128 0x1d
 2736 0364 A0070000 		.4byte	.LASF51
 2737 0368 01       		.byte	0x1
 2738 0369 0401     		.2byte	0x104
 2739 036b 6B000000 		.4byte	0x6b
 2740 036f 96010000 		.4byte	.LLST9
 2741 0373 1D       		.uleb128 0x1d
 2742 0374 FE040000 		.4byte	.LASF52
 2743 0378 01       		.byte	0x1
 2744 0379 0501     		.2byte	0x105
 2745 037b 76000000 		.4byte	0x76
 2746 037f B7010000 		.4byte	.LLST10
 2747 0383 1D       		.uleb128 0x1d
 2748 0384 62040000 		.4byte	.LASF53
 2749 0388 01       		.byte	0x1
 2750 0389 0601     		.2byte	0x106
 2751 038b EB000000 		.4byte	0xeb
 2752 038f D8010000 		.4byte	.LLST11
 2753 0393 1D       		.uleb128 0x1d
 2754 0394 93060000 		.4byte	.LASF54
 2755 0398 01       		.byte	0x1
 2756 0399 0701     		.2byte	0x107
 2757 039b 76000000 		.4byte	0x76
 2758 039f F7010000 		.4byte	.LLST12
 2759 03a3 1E       		.uleb128 0x1e
 2760 03a4 5D060000 		.4byte	.LASF55
 2761 03a8 01       		.byte	0x1
 2762 03a9 0A01     		.2byte	0x10a
ARM GAS  C:\Users\ZHANGM~1\AppData\Local\Temp\ccse5bds.s 			page 76


 2763 03ab 76000000 		.4byte	0x76
 2764 03af 18020000 		.4byte	.LLST13
 2765 03b3 1F       		.uleb128 0x1f
 2766 03b4 D9040000 		.4byte	.LASF56
 2767 03b8 01       		.byte	0x1
 2768 03b9 0B01     		.2byte	0x10b
 2769 03bb DE010000 		.4byte	0x1de
 2770 03bf 05       		.uleb128 0x5
 2771 03c0 03       		.byte	0x3
 2772 03c1 00000000 		.4byte	cBuf.5292
 2773 03c5 20       		.uleb128 0x20
 2774 03c6 16000000 		.4byte	.LVL31
 2775 03ca E80C0000 		.4byte	0xce8
 2776 03ce E4030000 		.4byte	0x3e4
 2777 03d2 21       		.uleb128 0x21
 2778 03d3 01       		.uleb128 0x1
 2779 03d4 52       		.byte	0x52
 2780 03d5 02       		.uleb128 0x2
 2781 03d6 08       		.byte	0x8
 2782 03d7 FF       		.byte	0xff
 2783 03d8 21       		.uleb128 0x21
 2784 03d9 01       		.uleb128 0x1
 2785 03da 51       		.byte	0x51
 2786 03db 01       		.uleb128 0x1
 2787 03dc 30       		.byte	0x30
 2788 03dd 21       		.uleb128 0x21
 2789 03de 01       		.uleb128 0x1
 2790 03df 50       		.byte	0x50
 2791 03e0 02       		.uleb128 0x2
 2792 03e1 74       		.byte	0x74
 2793 03e2 00       		.sleb128 0
 2794 03e3 00       		.byte	0
 2795 03e4 20       		.uleb128 0x20
 2796 03e5 52000000 		.4byte	.LVL32
 2797 03e9 050D0000 		.4byte	0xd05
 2798 03ed 05040000 		.4byte	0x405
 2799 03f1 21       		.uleb128 0x21
 2800 03f2 01       		.uleb128 0x1
 2801 03f3 52       		.byte	0x52
 2802 03f4 02       		.uleb128 0x2
 2803 03f5 75       		.byte	0x75
 2804 03f6 00       		.sleb128 0
 2805 03f7 21       		.uleb128 0x21
 2806 03f8 01       		.uleb128 0x1
 2807 03f9 51       		.byte	0x51
 2808 03fa 03       		.uleb128 0x3
 2809 03fb 7D       		.byte	0x7d
 2810 03fc 04       		.sleb128 4
 2811 03fd 06       		.byte	0x6
 2812 03fe 21       		.uleb128 0x21
 2813 03ff 01       		.uleb128 0x1
 2814 0400 50       		.byte	0x50
 2815 0401 02       		.uleb128 0x2
 2816 0402 74       		.byte	0x74
 2817 0403 0A       		.sleb128 10
 2818 0404 00       		.byte	0
 2819 0405 20       		.uleb128 0x20
ARM GAS  C:\Users\ZHANGM~1\AppData\Local\Temp\ccse5bds.s 			page 77


 2820 0406 5E000000 		.4byte	.LVL33
 2821 040a 2D020000 		.4byte	0x22d
 2822 040e 1F040000 		.4byte	0x41f
 2823 0412 21       		.uleb128 0x21
 2824 0413 01       		.uleb128 0x1
 2825 0414 51       		.byte	0x51
 2826 0415 02       		.uleb128 0x2
 2827 0416 75       		.byte	0x75
 2828 0417 0A       		.sleb128 10
 2829 0418 21       		.uleb128 0x21
 2830 0419 01       		.uleb128 0x1
 2831 041a 50       		.byte	0x50
 2832 041b 02       		.uleb128 0x2
 2833 041c 74       		.byte	0x74
 2834 041d 00       		.sleb128 0
 2835 041e 00       		.byte	0
 2836 041f 20       		.uleb128 0x20
 2837 0420 6E000000 		.4byte	.LVL35
 2838 0424 2D020000 		.4byte	0x22d
 2839 0428 32040000 		.4byte	0x432
 2840 042c 21       		.uleb128 0x21
 2841 042d 01       		.uleb128 0x1
 2842 042e 51       		.byte	0x51
 2843 042f 01       		.uleb128 0x1
 2844 0430 3A       		.byte	0x3a
 2845 0431 00       		.byte	0
 2846 0432 22       		.uleb128 0x22
 2847 0433 8A000000 		.4byte	.LVL37
 2848 0437 D4020000 		.4byte	0x2d4
 2849 043b 21       		.uleb128 0x21
 2850 043c 01       		.uleb128 0x1
 2851 043d 51       		.byte	0x51
 2852 043e 02       		.uleb128 0x2
 2853 043f 75       		.byte	0x75
 2854 0440 00       		.sleb128 0
 2855 0441 21       		.uleb128 0x21
 2856 0442 01       		.uleb128 0x1
 2857 0443 50       		.byte	0x50
 2858 0444 02       		.uleb128 0x2
 2859 0445 74       		.byte	0x74
 2860 0446 00       		.sleb128 0
 2861 0447 00       		.byte	0
 2862 0448 00       		.byte	0
 2863 0449 1C       		.uleb128 0x1c
 2864 044a 3E020000 		.4byte	.LASF57
 2865 044e 01       		.byte	0x1
 2866 044f 4101     		.2byte	0x141
 2867 0451 00000000 		.4byte	.LFB39
 2868 0455 20010000 		.4byte	.LFE39-.LFB39
 2869 0459 01       		.uleb128 0x1
 2870 045a 9C       		.byte	0x9c
 2871 045b 70040000 		.4byte	0x470
 2872 045f 1D       		.uleb128 0x1d
 2873 0460 CE030000 		.4byte	.LASF58
 2874 0464 01       		.byte	0x1
 2875 0465 4101     		.2byte	0x141
 2876 0467 6B000000 		.4byte	0x6b
ARM GAS  C:\Users\ZHANGM~1\AppData\Local\Temp\ccse5bds.s 			page 78


 2877 046b 36020000 		.4byte	.LLST14
 2878 046f 00       		.byte	0
 2879 0470 23       		.uleb128 0x23
 2880 0471 EE010000 		.4byte	0x1ee
 2881 0475 00000000 		.4byte	.LFB48
 2882 0479 2C000000 		.4byte	.LFE48-.LFB48
 2883 047d 01       		.uleb128 0x1
 2884 047e 9C       		.byte	0x9c
 2885 047f AE040000 		.4byte	0x4ae
 2886 0483 24       		.uleb128 0x24
 2887 0484 FB010000 		.4byte	0x1fb
 2888 0488 57020000 		.4byte	.LLST15
 2889 048c 25       		.uleb128 0x25
 2890 048d 0C000000 		.4byte	.LBB5
 2891 0491 16000000 		.4byte	.LBE5-.LBB5
 2892 0495 26       		.uleb128 0x26
 2893 0496 FB010000 		.4byte	0x1fb
 2894 049a 1A       		.uleb128 0x1a
 2895 049b 16000000 		.4byte	.LVL42
 2896 049f 290D0000 		.4byte	0xd29
 2897 04a3 1A       		.uleb128 0x1a
 2898 04a4 1C000000 		.4byte	.LVL43
 2899 04a8 49040000 		.4byte	0x449
 2900 04ac 00       		.byte	0
 2901 04ad 00       		.byte	0
 2902 04ae 1C       		.uleb128 0x1c
 2903 04af B3040000 		.4byte	.LASF59
 2904 04b3 01       		.byte	0x1
 2905 04b4 A201     		.2byte	0x1a2
 2906 04b6 00000000 		.4byte	.LFB40
 2907 04ba 44000000 		.4byte	.LFE40-.LFB40
 2908 04be 01       		.uleb128 0x1
 2909 04bf 9C       		.byte	0x9c
 2910 04c0 D7040000 		.4byte	0x4d7
 2911 04c4 1A       		.uleb128 0x1a
 2912 04c5 18000000 		.4byte	.LVL44
 2913 04c9 350D0000 		.4byte	0xd35
 2914 04cd 1A       		.uleb128 0x1a
 2915 04ce 28000000 		.4byte	.LVL45
 2916 04d2 3D0D0000 		.4byte	0xd3d
 2917 04d6 00       		.byte	0
 2918 04d7 27       		.uleb128 0x27
 2919 04d8 37040000 		.4byte	.LASF60
 2920 04dc 01       		.byte	0x1
 2921 04dd D301     		.2byte	0x1d3
 2922 04df 6B000000 		.4byte	0x6b
 2923 04e3 00000000 		.4byte	.LFB41
 2924 04e7 26000000 		.4byte	.LFE41-.LFB41
 2925 04eb 01       		.uleb128 0x1
 2926 04ec 9C       		.byte	0x9c
 2927 04ed 41050000 		.4byte	0x541
 2928 04f1 1D       		.uleb128 0x1d
 2929 04f2 A4030000 		.4byte	.LASF61
 2930 04f6 01       		.byte	0x1
 2931 04f7 D301     		.2byte	0x1d3
 2932 04f9 81000000 		.4byte	0x81
 2933 04fd 6A020000 		.4byte	.LLST16
ARM GAS  C:\Users\ZHANGM~1\AppData\Local\Temp\ccse5bds.s 			page 79


 2934 0501 1D       		.uleb128 0x1d
 2935 0502 5C050000 		.4byte	.LASF62
 2936 0506 01       		.byte	0x1
 2937 0507 D301     		.2byte	0x1d3
 2938 0509 81000000 		.4byte	0x81
 2939 050d 96020000 		.4byte	.LLST17
 2940 0511 1D       		.uleb128 0x1d
 2941 0512 4E040000 		.4byte	.LASF63
 2942 0516 01       		.byte	0x1
 2943 0517 D301     		.2byte	0x1d3
 2944 0519 81000000 		.4byte	0x81
 2945 051d C2020000 		.4byte	.LLST18
 2946 0521 28       		.uleb128 0x28
 2947 0522 73756D00 		.ascii	"sum\000"
 2948 0526 01       		.byte	0x1
 2949 0527 D601     		.2byte	0x1d6
 2950 0529 6B000000 		.4byte	0x6b
 2951 052d E0020000 		.4byte	.LLST19
 2952 0531 22       		.uleb128 0x22
 2953 0532 12000000 		.4byte	.LVL48
 2954 0536 450D0000 		.4byte	0xd45
 2955 053a 21       		.uleb128 0x21
 2956 053b 01       		.uleb128 0x1
 2957 053c 50       		.byte	0x50
 2958 053d 01       		.uleb128 0x1
 2959 053e 30       		.byte	0x30
 2960 053f 00       		.byte	0
 2961 0540 00       		.byte	0
 2962 0541 1C       		.uleb128 0x1c
 2963 0542 6B050000 		.4byte	.LASF64
 2964 0546 01       		.byte	0x1
 2965 0547 1904     		.2byte	0x419
 2966 0549 00000000 		.4byte	.LFB50
 2967 054d 2C000000 		.4byte	.LFE50-.LFB50
 2968 0551 01       		.uleb128 0x1
 2969 0552 9C       		.byte	0x9c
 2970 0553 D8050000 		.4byte	0x5d8
 2971 0557 1D       		.uleb128 0x1d
 2972 0558 CE050000 		.4byte	.LASF65
 2973 055c 01       		.byte	0x1
 2974 055d 1904     		.2byte	0x419
 2975 055f 81000000 		.4byte	0x81
 2976 0563 15030000 		.4byte	.LLST20
 2977 0567 1D       		.uleb128 0x1d
 2978 0568 9C030000 		.4byte	.LASF66
 2979 056c 01       		.byte	0x1
 2980 056d 1904     		.2byte	0x419
 2981 056f 6B000000 		.4byte	0x6b
 2982 0573 36030000 		.4byte	.LLST21
 2983 0577 1E       		.uleb128 0x1e
 2984 0578 1B040000 		.4byte	.LASF67
 2985 057c 01       		.byte	0x1
 2986 057d 1B04     		.2byte	0x41b
 2987 057f 81000000 		.4byte	0x81
 2988 0583 15030000 		.4byte	.LLST20
 2989 0587 1F       		.uleb128 0x1f
 2990 0588 1B020000 		.4byte	.LASF68
ARM GAS  C:\Users\ZHANGM~1\AppData\Local\Temp\ccse5bds.s 			page 80


 2991 058c 01       		.byte	0x1
 2992 058d 1C04     		.2byte	0x41c
 2993 058f D8050000 		.4byte	0x5d8
 2994 0593 03       		.uleb128 0x3
 2995 0594 91       		.byte	0x91
 2996 0595 F07E     		.sleb128 -144
 2997 0597 1E       		.uleb128 0x1e
 2998 0598 14020000 		.4byte	.LASF69
 2999 059c 01       		.byte	0x1
 3000 059d 1D04     		.2byte	0x41d
 3001 059f 76000000 		.4byte	0x76
 3002 05a3 6A030000 		.4byte	.LLST23
 3003 05a7 1E       		.uleb128 0x1e
 3004 05a8 A4030000 		.4byte	.LASF61
 3005 05ac 01       		.byte	0x1
 3006 05ad 1E04     		.2byte	0x41e
 3007 05af 81000000 		.4byte	0x81
 3008 05b3 8D030000 		.4byte	.LLST24
 3009 05b7 28       		.uleb128 0x28
 3010 05b8 69647800 		.ascii	"idx\000"
 3011 05bc 01       		.byte	0x1
 3012 05bd 1F04     		.2byte	0x41f
 3013 05bf 76000000 		.4byte	0x76
 3014 05c3 B1030000 		.4byte	.LLST25
 3015 05c7 22       		.uleb128 0x22
 3016 05c8 28000000 		.4byte	.LVL64
 3017 05cc 560D0000 		.4byte	0xd56
 3018 05d0 21       		.uleb128 0x21
 3019 05d1 01       		.uleb128 0x1
 3020 05d2 51       		.byte	0x51
 3021 05d3 02       		.uleb128 0x2
 3022 05d4 76       		.byte	0x76
 3023 05d5 00       		.sleb128 0
 3024 05d6 00       		.byte	0
 3025 05d7 00       		.byte	0
 3026 05d8 0F       		.uleb128 0xf
 3027 05d9 6B000000 		.4byte	0x6b
 3028 05dd E8050000 		.4byte	0x5e8
 3029 05e1 10       		.uleb128 0x10
 3030 05e2 E2000000 		.4byte	0xe2
 3031 05e6 7F       		.byte	0x7f
 3032 05e7 00       		.byte	0
 3033 05e8 27       		.uleb128 0x27
 3034 05e9 9C040000 		.4byte	.LASF70
 3035 05ed 01       		.byte	0x1
 3036 05ee 4D04     		.2byte	0x44d
 3037 05f0 81000000 		.4byte	0x81
 3038 05f4 00000000 		.4byte	.LFB51
 3039 05f8 98000000 		.4byte	.LFE51-.LFB51
 3040 05fc 01       		.uleb128 0x1
 3041 05fd 9C       		.byte	0x9c
 3042 05fe 62060000 		.4byte	0x662
 3043 0602 1D       		.uleb128 0x1d
 3044 0603 90020000 		.4byte	.LASF71
 3045 0607 01       		.byte	0x1
 3046 0608 4D04     		.2byte	0x44d
 3047 060a 6B000000 		.4byte	0x6b
ARM GAS  C:\Users\ZHANGM~1\AppData\Local\Temp\ccse5bds.s 			page 81


 3048 060e EA030000 		.4byte	.LLST26
 3049 0612 1D       		.uleb128 0x1d
 3050 0613 77000000 		.4byte	.LASF72
 3051 0617 01       		.byte	0x1
 3052 0618 4D04     		.2byte	0x44d
 3053 061a 6B000000 		.4byte	0x6b
 3054 061e 0B040000 		.4byte	.LLST27
 3055 0622 1E       		.uleb128 0x1e
 3056 0623 80060000 		.4byte	.LASF73
 3057 0627 01       		.byte	0x1
 3058 0628 4F04     		.2byte	0x44f
 3059 062a 81000000 		.4byte	0x81
 3060 062e 45040000 		.4byte	.LLST28
 3061 0632 1E       		.uleb128 0x1e
 3062 0633 05070000 		.4byte	.LASF74
 3063 0637 01       		.byte	0x1
 3064 0638 5004     		.2byte	0x450
 3065 063a 6B000000 		.4byte	0x6b
 3066 063e 85040000 		.4byte	.LLST29
 3067 0642 1E       		.uleb128 0x1e
 3068 0643 A7020000 		.4byte	.LASF75
 3069 0647 01       		.byte	0x1
 3070 0648 5104     		.2byte	0x451
 3071 064a 81000000 		.4byte	0x81
 3072 064e C9040000 		.4byte	.LLST30
 3073 0652 22       		.uleb128 0x22
 3074 0653 64000000 		.4byte	.LVL80
 3075 0657 450D0000 		.4byte	0xd45
 3076 065b 21       		.uleb128 0x21
 3077 065c 01       		.uleb128 0x1
 3078 065d 50       		.byte	0x50
 3079 065e 01       		.uleb128 0x1
 3080 065f 30       		.byte	0x30
 3081 0660 00       		.byte	0
 3082 0661 00       		.byte	0
 3083 0662 1C       		.uleb128 0x1c
 3084 0663 63000000 		.4byte	.LASF76
 3085 0667 01       		.byte	0x1
 3086 0668 8902     		.2byte	0x289
 3087 066a 00000000 		.4byte	.LFB45
 3088 066e 3C000000 		.4byte	.LFE45-.LFB45
 3089 0672 01       		.uleb128 0x1
 3090 0673 9C       		.byte	0x9c
 3091 0674 B4060000 		.4byte	0x6b4
 3092 0678 20       		.uleb128 0x20
 3093 0679 22000000 		.4byte	.LVL85
 3094 067d E8050000 		.4byte	0x5e8
 3095 0681 91060000 		.4byte	0x691
 3096 0685 21       		.uleb128 0x21
 3097 0686 01       		.uleb128 0x1
 3098 0687 51       		.byte	0x51
 3099 0688 02       		.uleb128 0x2
 3100 0689 74       		.byte	0x74
 3101 068a 00       		.sleb128 0
 3102 068b 21       		.uleb128 0x21
 3103 068c 01       		.uleb128 0x1
 3104 068d 50       		.byte	0x50
ARM GAS  C:\Users\ZHANGM~1\AppData\Local\Temp\ccse5bds.s 			page 82


 3105 068e 01       		.uleb128 0x1
 3106 068f 32       		.byte	0x32
 3107 0690 00       		.byte	0
 3108 0691 20       		.uleb128 0x20
 3109 0692 2E000000 		.4byte	.LVL86
 3110 0696 E8050000 		.4byte	0x5e8
 3111 069a AA060000 		.4byte	0x6aa
 3112 069e 21       		.uleb128 0x21
 3113 069f 01       		.uleb128 0x1
 3114 06a0 51       		.byte	0x51
 3115 06a1 02       		.uleb128 0x2
 3116 06a2 74       		.byte	0x74
 3117 06a3 00       		.sleb128 0
 3118 06a4 21       		.uleb128 0x21
 3119 06a5 01       		.uleb128 0x1
 3120 06a6 50       		.byte	0x50
 3121 06a7 01       		.uleb128 0x1
 3122 06a8 32       		.byte	0x32
 3123 06a9 00       		.byte	0
 3124 06aa 1A       		.uleb128 0x1a
 3125 06ab 32000000 		.4byte	.LVL87
 3126 06af 08020000 		.4byte	0x208
 3127 06b3 00       		.byte	0
 3128 06b4 27       		.uleb128 0x27
 3129 06b5 6A020000 		.4byte	.LASF77
 3130 06b9 01       		.byte	0x1
 3131 06ba E702     		.2byte	0x2e7
 3132 06bc A1000000 		.4byte	0xa1
 3133 06c0 00000000 		.4byte	.LFB47
 3134 06c4 62000000 		.4byte	.LFE47-.LFB47
 3135 06c8 01       		.uleb128 0x1
 3136 06c9 9C       		.byte	0x9c
 3137 06ca 9D070000 		.4byte	0x79d
 3138 06ce 1D       		.uleb128 0x1d
 3139 06cf 77000000 		.4byte	.LASF72
 3140 06d3 01       		.byte	0x1
 3141 06d4 E702     		.2byte	0x2e7
 3142 06d6 6B000000 		.4byte	0x6b
 3143 06da 41050000 		.4byte	.LLST31
 3144 06de 28       		.uleb128 0x28
 3145 06df 69647800 		.ascii	"idx\000"
 3146 06e3 01       		.byte	0x1
 3147 06e4 EA02     		.2byte	0x2ea
 3148 06e6 81000000 		.4byte	0x81
 3149 06ea 62050000 		.4byte	.LLST32
 3150 06ee 28       		.uleb128 0x28
 3151 06ef 656E6400 		.ascii	"end\000"
 3152 06f3 01       		.byte	0x1
 3153 06f4 EC02     		.2byte	0x2ec
 3154 06f6 81000000 		.4byte	0x81
 3155 06fa 75050000 		.4byte	.LLST33
 3156 06fe 1E       		.uleb128 0x1e
 3157 06ff 04040000 		.4byte	.LASF78
 3158 0703 01       		.byte	0x1
 3159 0704 F002     		.2byte	0x2f0
 3160 0706 6B000000 		.4byte	0x6b
 3161 070a 88050000 		.4byte	.LLST34
ARM GAS  C:\Users\ZHANGM~1\AppData\Local\Temp\ccse5bds.s 			page 83


 3162 070e 1E       		.uleb128 0x1e
 3163 070f A1000000 		.4byte	.LASF79
 3164 0713 01       		.byte	0x1
 3165 0714 F102     		.2byte	0x2f1
 3166 0716 6B000000 		.4byte	0x6b
 3167 071a A7050000 		.4byte	.LLST35
 3168 071e 29       		.uleb128 0x29
 3169 071f 30000000 		.4byte	.LBB6
 3170 0723 10000000 		.4byte	.LBE6-.LBB6
 3171 0727 3C070000 		.4byte	0x73c
 3172 072b 1E       		.uleb128 0x1e
 3173 072c 0A040000 		.4byte	.LASF80
 3174 0730 01       		.byte	0x1
 3175 0731 F502     		.2byte	0x2f5
 3176 0733 6B000000 		.4byte	0x6b
 3177 0737 EE050000 		.4byte	.LLST36
 3178 073b 00       		.byte	0
 3179 073c 20       		.uleb128 0x20
 3180 073d 0C000000 		.4byte	.LVL90
 3181 0741 E8050000 		.4byte	0x5e8
 3182 0745 55070000 		.4byte	0x755
 3183 0749 21       		.uleb128 0x21
 3184 074a 01       		.uleb128 0x1
 3185 074b 51       		.byte	0x51
 3186 074c 02       		.uleb128 0x2
 3187 074d 75       		.byte	0x75
 3188 074e 00       		.sleb128 0
 3189 074f 21       		.uleb128 0x21
 3190 0750 01       		.uleb128 0x1
 3191 0751 50       		.byte	0x50
 3192 0752 01       		.uleb128 0x1
 3193 0753 33       		.byte	0x33
 3194 0754 00       		.byte	0
 3195 0755 20       		.uleb128 0x20
 3196 0756 16000000 		.4byte	.LVL91
 3197 075a E8050000 		.4byte	0x5e8
 3198 075e 6E070000 		.4byte	0x76e
 3199 0762 21       		.uleb128 0x21
 3200 0763 01       		.uleb128 0x1
 3201 0764 51       		.byte	0x51
 3202 0765 02       		.uleb128 0x2
 3203 0766 75       		.byte	0x75
 3204 0767 00       		.sleb128 0
 3205 0768 21       		.uleb128 0x21
 3206 0769 01       		.uleb128 0x1
 3207 076a 50       		.byte	0x50
 3208 076b 01       		.uleb128 0x1
 3209 076c 34       		.byte	0x34
 3210 076d 00       		.byte	0
 3211 076e 20       		.uleb128 0x20
 3212 076f 24000000 		.4byte	.LVL93
 3213 0773 E8050000 		.4byte	0x5e8
 3214 0777 87070000 		.4byte	0x787
 3215 077b 21       		.uleb128 0x21
 3216 077c 01       		.uleb128 0x1
 3217 077d 51       		.byte	0x51
 3218 077e 02       		.uleb128 0x2
ARM GAS  C:\Users\ZHANGM~1\AppData\Local\Temp\ccse5bds.s 			page 84


 3219 077f 75       		.byte	0x75
 3220 0780 00       		.sleb128 0
 3221 0781 21       		.uleb128 0x21
 3222 0782 01       		.uleb128 0x1
 3223 0783 50       		.byte	0x50
 3224 0784 01       		.uleb128 0x1
 3225 0785 33       		.byte	0x33
 3226 0786 00       		.byte	0
 3227 0787 22       		.uleb128 0x22
 3228 0788 4C000000 		.4byte	.LVL103
 3229 078c E8050000 		.4byte	0x5e8
 3230 0790 21       		.uleb128 0x21
 3231 0791 01       		.uleb128 0x1
 3232 0792 51       		.byte	0x51
 3233 0793 02       		.uleb128 0x2
 3234 0794 75       		.byte	0x75
 3235 0795 00       		.sleb128 0
 3236 0796 21       		.uleb128 0x21
 3237 0797 01       		.uleb128 0x1
 3238 0798 50       		.byte	0x50
 3239 0799 01       		.uleb128 0x1
 3240 079a 31       		.byte	0x31
 3241 079b 00       		.byte	0
 3242 079c 00       		.byte	0
 3243 079d 2A       		.uleb128 0x2a
 3244 079e 63060000 		.4byte	.LASF142
 3245 07a2 01       		.byte	0x1
 3246 07a3 3402     		.2byte	0x234
 3247 07a5 01       		.byte	0x1
 3248 07a6 13       		.uleb128 0x13
 3249 07a7 48070000 		.4byte	.LASF82
 3250 07ab 01       		.byte	0x1
 3251 07ac 2503     		.2byte	0x325
 3252 07ae 00000000 		.4byte	.LFB49
 3253 07b2 B0010000 		.4byte	.LFE49-.LFB49
 3254 07b6 01       		.uleb128 0x1
 3255 07b7 9C       		.byte	0x9c
 3256 07b8 0F0A0000 		.4byte	0xa0f
 3257 07bc 1E       		.uleb128 0x1e
 3258 07bd 53040000 		.4byte	.LASF83
 3259 07c1 01       		.byte	0x1
 3260 07c2 2903     		.2byte	0x329
 3261 07c4 6B000000 		.4byte	0x6b
 3262 07c8 0E060000 		.4byte	.LLST37
 3263 07cc 1E       		.uleb128 0x1e
 3264 07cd 24030000 		.4byte	.LASF84
 3265 07d1 01       		.byte	0x1
 3266 07d2 2A03     		.2byte	0x32a
 3267 07d4 76000000 		.4byte	0x76
 3268 07d8 2E060000 		.4byte	.LLST38
 3269 07dc 1F       		.uleb128 0x1f
 3270 07dd 9C020000 		.4byte	.LASF85
 3271 07e1 01       		.byte	0x1
 3272 07e2 2B03     		.2byte	0x32b
 3273 07e4 0F0A0000 		.4byte	0xa0f
 3274 07e8 03       		.uleb128 0x3
 3275 07e9 91       		.byte	0x91
ARM GAS  C:\Users\ZHANGM~1\AppData\Local\Temp\ccse5bds.s 			page 85


 3276 07ea BC7D     		.sleb128 -324
 3277 07ec 1E       		.uleb128 0x1e
 3278 07ed 3F070000 		.4byte	.LASF86
 3279 07f1 01       		.byte	0x1
 3280 07f2 2D03     		.2byte	0x32d
 3281 07f4 76000000 		.4byte	0x76
 3282 07f8 71060000 		.4byte	.LLST39
 3283 07fc 28       		.uleb128 0x28
 3284 07fd 726F7700 		.ascii	"row\000"
 3285 0801 01       		.byte	0x1
 3286 0802 2E03     		.2byte	0x32e
 3287 0804 76000000 		.4byte	0x76
 3288 0808 C5060000 		.4byte	.LLST40
 3289 080c 12       		.uleb128 0x12
 3290 080d 37030000 		.4byte	.LASF88
 3291 0811 01       		.byte	0x1
 3292 0812 2E03     		.2byte	0x32e
 3293 0814 76000000 		.4byte	0x76
 3294 0818 2B       		.uleb128 0x2b
 3295 0819 C8010000 		.4byte	.LASF89
 3296 081d 01       		.byte	0x1
 3297 081e 2F03     		.2byte	0x32f
 3298 0820 6B000000 		.4byte	0x6b
 3299 0824 14       		.byte	0x14
 3300 0825 1E       		.uleb128 0x1e
 3301 0826 F6060000 		.4byte	.LASF90
 3302 082a 01       		.byte	0x1
 3303 082b 2F03     		.2byte	0x32f
 3304 082d 6B000000 		.4byte	0x6b
 3305 0831 EC060000 		.4byte	.LLST41
 3306 0835 1F       		.uleb128 0x1f
 3307 0836 D6050000 		.4byte	.LASF91
 3308 083a 01       		.byte	0x1
 3309 083b 2F03     		.2byte	0x32f
 3310 083d 6B000000 		.4byte	0x6b
 3311 0841 03       		.uleb128 0x3
 3312 0842 91       		.byte	0x91
 3313 0843 AC7D     		.sleb128 -340
 3314 0845 28       		.uleb128 0x28
 3315 0846 746D7000 		.ascii	"tmp\000"
 3316 084a 01       		.byte	0x1
 3317 084b 3003     		.2byte	0x330
 3318 084d 76000000 		.4byte	0x76
 3319 0851 16070000 		.4byte	.LLST42
 3320 0855 1E       		.uleb128 0x1e
 3321 0856 96020000 		.4byte	.LASF92
 3322 085a 01       		.byte	0x1
 3323 085b 3103     		.2byte	0x331
 3324 085d 81000000 		.4byte	0x81
 3325 0861 29070000 		.4byte	.LLST43
 3326 0865 1E       		.uleb128 0x1e
 3327 0866 83050000 		.4byte	.LASF93
 3328 086a 01       		.byte	0x1
 3329 086b 3103     		.2byte	0x331
 3330 086d 81000000 		.4byte	0x81
 3331 0871 7F070000 		.4byte	.LLST44
 3332 0875 1E       		.uleb128 0x1e
ARM GAS  C:\Users\ZHANGM~1\AppData\Local\Temp\ccse5bds.s 			page 86


 3333 0876 D7030000 		.4byte	.LASF94
 3334 087a 01       		.byte	0x1
 3335 087b 3203     		.2byte	0x332
 3336 087d 6B000000 		.4byte	0x6b
 3337 0881 AC070000 		.4byte	.LLST45
 3338 0885 12       		.uleb128 0x12
 3339 0886 6E030000 		.4byte	.LASF95
 3340 088a 01       		.byte	0x1
 3341 088b 3203     		.2byte	0x332
 3342 088d 6B000000 		.4byte	0x6b
 3343 0891 2C       		.uleb128 0x2c
 3344 0892 9D070000 		.4byte	0x79d
 3345 0896 60000000 		.4byte	.LBB9
 3346 089a 0A000000 		.4byte	.LBE9-.LBB9
 3347 089e 01       		.byte	0x1
 3348 089f 5B03     		.2byte	0x35b
 3349 08a1 AF080000 		.4byte	0x8af
 3350 08a5 1A       		.uleb128 0x1a
 3351 08a6 6A000000 		.4byte	.LVL125
 3352 08aa 700D0000 		.4byte	0xd70
 3353 08ae 00       		.byte	0
 3354 08af 1A       		.uleb128 0x1a
 3355 08b0 08000000 		.4byte	.LVL109
 3356 08b4 770D0000 		.4byte	0xd77
 3357 08b8 1A       		.uleb128 0x1a
 3358 08b9 0C000000 		.4byte	.LVL110
 3359 08bd 7E0D0000 		.4byte	0xd7e
 3360 08c1 1A       		.uleb128 0x1a
 3361 08c2 10000000 		.4byte	.LVL111
 3362 08c6 850D0000 		.4byte	0xd85
 3363 08ca 20       		.uleb128 0x20
 3364 08cb 16000000 		.4byte	.LVL112
 3365 08cf 8C0D0000 		.4byte	0xd8c
 3366 08d3 E1080000 		.4byte	0x8e1
 3367 08d7 21       		.uleb128 0x21
 3368 08d8 01       		.uleb128 0x1
 3369 08d9 50       		.byte	0x50
 3370 08da 05       		.uleb128 0x5
 3371 08db 03       		.byte	0x3
 3372 08dc 00000000 		.4byte	UART_ISR_0_FUN
 3373 08e0 00       		.byte	0
 3374 08e1 1A       		.uleb128 0x1a
 3375 08e2 1A000000 		.4byte	.LVL113
 3376 08e6 9D0D0000 		.4byte	0xd9d
 3377 08ea 1A       		.uleb128 0x1a
 3378 08eb 1E000000 		.4byte	.LVL114
 3379 08ef A50D0000 		.4byte	0xda5
 3380 08f3 20       		.uleb128 0x20
 3381 08f4 2E000000 		.4byte	.LVL116
 3382 08f8 AD0D0000 		.4byte	0xdad
 3383 08fc 07090000 		.4byte	0x907
 3384 0900 21       		.uleb128 0x21
 3385 0901 01       		.uleb128 0x1
 3386 0902 50       		.byte	0x50
 3387 0903 02       		.uleb128 0x2
 3388 0904 08       		.byte	0x8
 3389 0905 64       		.byte	0x64
ARM GAS  C:\Users\ZHANGM~1\AppData\Local\Temp\ccse5bds.s 			page 87


 3390 0906 00       		.byte	0
 3391 0907 1A       		.uleb128 0x1a
 3392 0908 34000000 		.4byte	.LVL118
 3393 090c AE040000 		.4byte	0x4ae
 3394 0910 1A       		.uleb128 0x1a
 3395 0911 38000000 		.4byte	.LVL119
 3396 0915 B5020000 		.4byte	0x2b5
 3397 0919 20       		.uleb128 0x20
 3398 091a 70000000 		.4byte	.LVL126
 3399 091e B4060000 		.4byte	0x6b4
 3400 0922 2C090000 		.4byte	0x92c
 3401 0926 21       		.uleb128 0x21
 3402 0927 01       		.uleb128 0x1
 3403 0928 50       		.byte	0x50
 3404 0929 01       		.uleb128 0x1
 3405 092a 30       		.byte	0x30
 3406 092b 00       		.byte	0
 3407 092c 1A       		.uleb128 0x1a
 3408 092d 7A000000 		.4byte	.LVL127
 3409 0931 700D0000 		.4byte	0xd70
 3410 0935 20       		.uleb128 0x20
 3411 0936 A0000000 		.4byte	.LVL130
 3412 093a 4D030000 		.4byte	0x34d
 3413 093e 5E090000 		.4byte	0x95e
 3414 0942 21       		.uleb128 0x21
 3415 0943 01       		.uleb128 0x1
 3416 0944 53       		.byte	0x53
 3417 0945 01       		.uleb128 0x1
 3418 0946 32       		.byte	0x32
 3419 0947 21       		.uleb128 0x21
 3420 0948 01       		.uleb128 0x1
 3421 0949 52       		.byte	0x52
 3422 094a 05       		.uleb128 0x5
 3423 094b 03       		.byte	0x3
 3424 094c 00000000 		.4byte	dataBuffer_0
 3425 0950 21       		.uleb128 0x21
 3426 0951 01       		.uleb128 0x1
 3427 0952 51       		.byte	0x51
 3428 0953 03       		.uleb128 0x3
 3429 0954 0B       		.byte	0xb
 3430 0955 C5CC     		.2byte	0xccc5
 3431 0957 21       		.uleb128 0x21
 3432 0958 01       		.uleb128 0x1
 3433 0959 50       		.byte	0x50
 3434 095a 02       		.uleb128 0x2
 3435 095b 74       		.byte	0x74
 3436 095c 00       		.sleb128 0
 3437 095d 00       		.byte	0
 3438 095e 20       		.uleb128 0x20
 3439 095f DE000000 		.4byte	.LVL135
 3440 0963 2D020000 		.4byte	0x22d
 3441 0967 72090000 		.4byte	0x972
 3442 096b 21       		.uleb128 0x21
 3443 096c 01       		.uleb128 0x1
 3444 096d 50       		.byte	0x50
 3445 096e 02       		.uleb128 0x2
 3446 096f 75       		.byte	0x75
ARM GAS  C:\Users\ZHANGM~1\AppData\Local\Temp\ccse5bds.s 			page 88


 3447 0970 00       		.sleb128 0
 3448 0971 00       		.byte	0
 3449 0972 20       		.uleb128 0x20
 3450 0973 1E010000 		.4byte	.LVL143
 3451 0977 050D0000 		.4byte	0xd05
 3452 097b 93090000 		.4byte	0x993
 3453 097f 21       		.uleb128 0x21
 3454 0980 01       		.uleb128 0x1
 3455 0981 52       		.byte	0x52
 3456 0982 02       		.uleb128 0x2
 3457 0983 08       		.byte	0x8
 3458 0984 80       		.byte	0x80
 3459 0985 21       		.uleb128 0x21
 3460 0986 01       		.uleb128 0x1
 3461 0987 51       		.byte	0x51
 3462 0988 02       		.uleb128 0x2
 3463 0989 75       		.byte	0x75
 3464 098a 0A       		.sleb128 10
 3465 098b 21       		.uleb128 0x21
 3466 098c 01       		.uleb128 0x1
 3467 098d 50       		.byte	0x50
 3468 098e 03       		.uleb128 0x3
 3469 098f 91       		.byte	0x91
 3470 0990 BC7D     		.sleb128 -324
 3471 0992 00       		.byte	0
 3472 0993 20       		.uleb128 0x20
 3473 0994 32010000 		.4byte	.LVL145
 3474 0998 560D0000 		.4byte	0xd56
 3475 099c AE090000 		.4byte	0x9ae
 3476 09a0 21       		.uleb128 0x21
 3477 09a1 01       		.uleb128 0x1
 3478 09a2 51       		.byte	0x51
 3479 09a3 03       		.uleb128 0x3
 3480 09a4 91       		.byte	0x91
 3481 09a5 BC7D     		.sleb128 -324
 3482 09a7 21       		.uleb128 0x21
 3483 09a8 01       		.uleb128 0x1
 3484 09a9 50       		.byte	0x50
 3485 09aa 02       		.uleb128 0x2
 3486 09ab 08       		.byte	0x8
 3487 09ac FF       		.byte	0xff
 3488 09ad 00       		.byte	0
 3489 09ae 20       		.uleb128 0x20
 3490 09af 44010000 		.4byte	.LVL147
 3491 09b3 4D030000 		.4byte	0x34d
 3492 09b7 D2090000 		.4byte	0x9d2
 3493 09bb 21       		.uleb128 0x21
 3494 09bc 01       		.uleb128 0x1
 3495 09bd 53       		.byte	0x53
 3496 09be 01       		.uleb128 0x1
 3497 09bf 32       		.byte	0x32
 3498 09c0 21       		.uleb128 0x21
 3499 09c1 01       		.uleb128 0x1
 3500 09c2 52       		.byte	0x52
 3501 09c3 02       		.uleb128 0x2
 3502 09c4 75       		.byte	0x75
 3503 09c5 00       		.sleb128 0
ARM GAS  C:\Users\ZHANGM~1\AppData\Local\Temp\ccse5bds.s 			page 89


 3504 09c6 21       		.uleb128 0x21
 3505 09c7 01       		.uleb128 0x1
 3506 09c8 51       		.byte	0x51
 3507 09c9 02       		.uleb128 0x2
 3508 09ca 77       		.byte	0x77
 3509 09cb 00       		.sleb128 0
 3510 09cc 21       		.uleb128 0x21
 3511 09cd 01       		.uleb128 0x1
 3512 09ce 50       		.byte	0x50
 3513 09cf 01       		.uleb128 0x1
 3514 09d0 30       		.byte	0x30
 3515 09d1 00       		.byte	0
 3516 09d2 20       		.uleb128 0x20
 3517 09d3 56010000 		.4byte	.LVL149
 3518 09d7 560D0000 		.4byte	0xd56
 3519 09db ED090000 		.4byte	0x9ed
 3520 09df 21       		.uleb128 0x21
 3521 09e0 01       		.uleb128 0x1
 3522 09e1 51       		.byte	0x51
 3523 09e2 03       		.uleb128 0x3
 3524 09e3 91       		.byte	0x91
 3525 09e4 BC7D     		.sleb128 -324
 3526 09e6 21       		.uleb128 0x21
 3527 09e7 01       		.uleb128 0x1
 3528 09e8 50       		.byte	0x50
 3529 09e9 02       		.uleb128 0x2
 3530 09ea 76       		.byte	0x76
 3531 09eb 21       		.sleb128 33
 3532 09ec 00       		.byte	0
 3533 09ed 22       		.uleb128 0x22
 3534 09ee 6E010000 		.4byte	.LVL150
 3535 09f2 4D030000 		.4byte	0x34d
 3536 09f6 21       		.uleb128 0x21
 3537 09f7 01       		.uleb128 0x1
 3538 09f8 53       		.byte	0x53
 3539 09f9 01       		.uleb128 0x1
 3540 09fa 32       		.byte	0x32
 3541 09fb 21       		.uleb128 0x21
 3542 09fc 01       		.uleb128 0x1
 3543 09fd 52       		.byte	0x52
 3544 09fe 02       		.uleb128 0x2
 3545 09ff 75       		.byte	0x75
 3546 0a00 00       		.sleb128 0
 3547 0a01 21       		.uleb128 0x21
 3548 0a02 01       		.uleb128 0x1
 3549 0a03 51       		.byte	0x51
 3550 0a04 03       		.uleb128 0x3
 3551 0a05 0B       		.byte	0xb
 3552 0a06 D2CC     		.2byte	0xccd2
 3553 0a08 21       		.uleb128 0x21
 3554 0a09 01       		.uleb128 0x1
 3555 0a0a 50       		.byte	0x50
 3556 0a0b 01       		.uleb128 0x1
 3557 0a0c 30       		.byte	0x30
 3558 0a0d 00       		.byte	0
 3559 0a0e 00       		.byte	0
 3560 0a0f 0F       		.uleb128 0xf
ARM GAS  C:\Users\ZHANGM~1\AppData\Local\Temp\ccse5bds.s 			page 90


 3561 0a10 6B000000 		.4byte	0x6b
 3562 0a14 200A0000 		.4byte	0xa20
 3563 0a18 2D       		.uleb128 0x2d
 3564 0a19 E2000000 		.4byte	0xe2
 3565 0a1d 2B01     		.2byte	0x12b
 3566 0a1f 00       		.byte	0
 3567 0a20 1C       		.uleb128 0x1c
 3568 0a21 B7010000 		.4byte	.LASF96
 3569 0a25 01       		.byte	0x1
 3570 0a26 0902     		.2byte	0x209
 3571 0a28 00000000 		.4byte	.LFB42
 3572 0a2c 34000000 		.4byte	.LFE42-.LFB42
 3573 0a30 01       		.uleb128 0x1
 3574 0a31 9C       		.byte	0x9c
 3575 0a32 810A0000 		.4byte	0xa81
 3576 0a36 1E       		.uleb128 0x1e
 3577 0a37 4D000000 		.4byte	.LASF97
 3578 0a3b 01       		.byte	0x1
 3579 0a3c 0B02     		.2byte	0x20b
 3580 0a3e A1000000 		.4byte	0xa1
 3581 0a42 E2070000 		.4byte	.LLST46
 3582 0a46 2E       		.uleb128 0x2e
 3583 0a47 9D070000 		.4byte	0x79d
 3584 0a4b 26000000 		.4byte	.LBB13
 3585 0a4f 00000000 		.4byte	.Ldebug_ranges0+0
 3586 0a53 01       		.byte	0x1
 3587 0a54 2202     		.2byte	0x222
 3588 0a56 640A0000 		.4byte	0xa64
 3589 0a5a 1A       		.uleb128 0x1a
 3590 0a5b 2E000000 		.4byte	.LVL156
 3591 0a5f 700D0000 		.4byte	0xd70
 3592 0a63 00       		.byte	0
 3593 0a64 20       		.uleb128 0x20
 3594 0a65 08000000 		.4byte	.LVL152
 3595 0a69 B4060000 		.4byte	0x6b4
 3596 0a6d 770A0000 		.4byte	0xa77
 3597 0a71 21       		.uleb128 0x21
 3598 0a72 01       		.uleb128 0x1
 3599 0a73 50       		.byte	0x50
 3600 0a74 01       		.uleb128 0x1
 3601 0a75 30       		.byte	0x30
 3602 0a76 00       		.byte	0
 3603 0a77 1A       		.uleb128 0x1a
 3604 0a78 26000000 		.4byte	.LVL154
 3605 0a7c A6070000 		.4byte	0x7a6
 3606 0a80 00       		.byte	0
 3607 0a81 1C       		.uleb128 0x1c
 3608 0a82 0F070000 		.4byte	.LASF98
 3609 0a86 01       		.byte	0x1
 3610 0a87 5802     		.2byte	0x258
 3611 0a89 00000000 		.4byte	.LFB44
 3612 0a8d 34000000 		.4byte	.LFE44-.LFB44
 3613 0a91 01       		.uleb128 0x1
 3614 0a92 9C       		.byte	0x9c
 3615 0a93 F40A0000 		.4byte	0xaf4
 3616 0a97 1D       		.uleb128 0x1d
 3617 0a98 77000000 		.4byte	.LASF72
ARM GAS  C:\Users\ZHANGM~1\AppData\Local\Temp\ccse5bds.s 			page 91


 3618 0a9c 01       		.byte	0x1
 3619 0a9d 5802     		.2byte	0x258
 3620 0a9f 6B000000 		.4byte	0x6b
 3621 0aa3 0C080000 		.4byte	.LLST47
 3622 0aa7 29       		.uleb128 0x29
 3623 0aa8 12000000 		.4byte	.LBB17
 3624 0aac 10000000 		.4byte	.LBE17-.LBB17
 3625 0ab0 D60A0000 		.4byte	0xad6
 3626 0ab4 28       		.uleb128 0x28
 3627 0ab5 69647800 		.ascii	"idx\000"
 3628 0ab9 01       		.byte	0x1
 3629 0aba 6302     		.2byte	0x263
 3630 0abc 6B000000 		.4byte	0x6b
 3631 0ac0 2D080000 		.4byte	.LLST48
 3632 0ac4 22       		.uleb128 0x22
 3633 0ac5 1E000000 		.4byte	.LVL160
 3634 0ac9 41050000 		.4byte	0x541
 3635 0acd 21       		.uleb128 0x21
 3636 0ace 01       		.uleb128 0x1
 3637 0acf 50       		.byte	0x50
 3638 0ad0 03       		.uleb128 0x3
 3639 0ad1 0A       		.byte	0xa
 3640 0ad2 D07F     		.2byte	0x7fd0
 3641 0ad4 00       		.byte	0
 3642 0ad5 00       		.byte	0
 3643 0ad6 20       		.uleb128 0x20
 3644 0ad7 0E000000 		.4byte	.LVL158
 3645 0adb B4060000 		.4byte	0x6b4
 3646 0adf EA0A0000 		.4byte	0xaea
 3647 0ae3 21       		.uleb128 0x21
 3648 0ae4 01       		.uleb128 0x1
 3649 0ae5 50       		.byte	0x50
 3650 0ae6 02       		.uleb128 0x2
 3651 0ae7 75       		.byte	0x75
 3652 0ae8 00       		.sleb128 0
 3653 0ae9 00       		.byte	0
 3654 0aea 1A       		.uleb128 0x1a
 3655 0aeb 2A000000 		.4byte	.LVL162
 3656 0aef 700D0000 		.4byte	0xd70
 3657 0af3 00       		.byte	0
 3658 0af4 2F       		.uleb128 0x2f
 3659 0af5 5C070000 		.4byte	.LASF99
 3660 0af9 01       		.byte	0x1
 3661 0afa 26       		.byte	0x26
 3662 0afb 050B0000 		.4byte	0xb05
 3663 0aff 05       		.uleb128 0x5
 3664 0b00 03       		.byte	0x3
 3665 0b01 00000000 		.4byte	Bootloader_Checksum
 3666 0b05 30       		.uleb128 0x30
 3667 0b06 6B000000 		.4byte	0x6b
 3668 0b0a 2F       		.uleb128 0x2f
 3669 0b0b A7060000 		.4byte	.LASF100
 3670 0b0f 01       		.byte	0x1
 3671 0b10 2A       		.byte	0x2a
 3672 0b11 1B0B0000 		.4byte	0xb1b
 3673 0b15 05       		.uleb128 0x5
 3674 0b16 03       		.byte	0x3
ARM GAS  C:\Users\ZHANGM~1\AppData\Local\Temp\ccse5bds.s 			page 92


 3675 0b17 00000000 		.4byte	Bootloader_ChecksumAccess
 3676 0b1b 07       		.uleb128 0x7
 3677 0b1c 04       		.byte	0x4
 3678 0b1d 050B0000 		.4byte	0xb05
 3679 0b21 2F       		.uleb128 0x2f
 3680 0b22 09030000 		.4byte	.LASF101
 3681 0b26 01       		.byte	0x1
 3682 0b27 32       		.byte	0x32
 3683 0b28 320B0000 		.4byte	0xb32
 3684 0b2c 05       		.uleb128 0x5
 3685 0b2d 03       		.byte	0x3
 3686 0b2e 00000000 		.4byte	Bootloader_SizeBytes
 3687 0b32 30       		.uleb128 0x30
 3688 0b33 81000000 		.4byte	0x81
 3689 0b37 2F       		.uleb128 0x2f
 3690 0b38 8B050000 		.4byte	.LASF102
 3691 0b3c 01       		.byte	0x1
 3692 0b3d 33       		.byte	0x33
 3693 0b3e 480B0000 		.4byte	0xb48
 3694 0b42 05       		.uleb128 0x5
 3695 0b43 03       		.byte	0x3
 3696 0b44 00000000 		.4byte	Bootloader_SizeBytesAccess
 3697 0b48 07       		.uleb128 0x7
 3698 0b49 04       		.byte	0x4
 3699 0b4a 320B0000 		.4byte	0xb32
 3700 0b4e 31       		.uleb128 0x31
 3701 0b4f E8010000 		.4byte	.LASF103
 3702 0b53 03       		.byte	0x3
 3703 0b54 58       		.byte	0x58
 3704 0b55 CA000000 		.4byte	0xca
 3705 0b59 2F       		.uleb128 0x2f
 3706 0b5a E6060000 		.4byte	.LASF104
 3707 0b5e 01       		.byte	0x1
 3708 0b5f 36       		.byte	0x36
 3709 0b60 6B000000 		.4byte	0x6b
 3710 0b64 05       		.uleb128 0x5
 3711 0b65 03       		.byte	0x3
 3712 0b66 00000000 		.4byte	f_ack_1
 3713 0b6a 2F       		.uleb128 0x2f
 3714 0b6b E2020000 		.4byte	.LASF105
 3715 0b6f 01       		.byte	0x1
 3716 0b70 36       		.byte	0x36
 3717 0b71 6B000000 		.4byte	0x6b
 3718 0b75 05       		.uleb128 0x5
 3719 0b76 03       		.byte	0x3
 3720 0b77 00000000 		.4byte	f_delay
 3721 0b7b 2F       		.uleb128 0x2f
 3722 0b7c 0E000000 		.4byte	.LASF106
 3723 0b80 01       		.byte	0x1
 3724 0b81 3C       		.byte	0x3c
 3725 0b82 0F0A0000 		.4byte	0xa0f
 3726 0b86 05       		.uleb128 0x5
 3727 0b87 03       		.byte	0x3
 3728 0b88 00000000 		.4byte	dataBuffer_0
 3729 0b8c 2F       		.uleb128 0x2f
 3730 0b8d AD030000 		.4byte	.LASF107
 3731 0b91 01       		.byte	0x1
ARM GAS  C:\Users\ZHANGM~1\AppData\Local\Temp\ccse5bds.s 			page 93


 3732 0b92 3C       		.byte	0x3c
 3733 0b93 0F0A0000 		.4byte	0xa0f
 3734 0b97 05       		.uleb128 0x5
 3735 0b98 03       		.byte	0x3
 3736 0b99 00000000 		.4byte	packetBuffer
 3737 0b9d 2F       		.uleb128 0x2f
 3738 0b9e 70070000 		.4byte	.LASF108
 3739 0ba2 01       		.byte	0x1
 3740 0ba3 3D       		.byte	0x3d
 3741 0ba4 6B000000 		.4byte	0x6b
 3742 0ba8 05       		.uleb128 0x5
 3743 0ba9 03       		.byte	0x3
 3744 0baa 00000000 		.4byte	z_iicount
 3745 0bae 2F       		.uleb128 0x2f
 3746 0baf 00000000 		.4byte	.LASF109
 3747 0bb3 01       		.byte	0x1
 3748 0bb4 3D       		.byte	0x3d
 3749 0bb5 6B000000 		.4byte	0x6b
 3750 0bb9 05       		.uleb128 0x5
 3751 0bba 03       		.byte	0x3
 3752 0bbb 00000000 		.4byte	z_itotalcount
 3753 0bbf 2F       		.uleb128 0x2f
 3754 0bc0 30030000 		.4byte	.LASF110
 3755 0bc4 01       		.byte	0x1
 3756 0bc5 4C       		.byte	0x4c
 3757 0bc6 6B000000 		.4byte	0x6b
 3758 0bca 05       		.uleb128 0x5
 3759 0bcb 03       		.byte	0x3
 3760 0bcc 00000000 		.4byte	BUZfkg
 3761 0bd0 2F       		.uleb128 0x2f
 3762 0bd1 6F010000 		.4byte	.LASF111
 3763 0bd5 01       		.byte	0x1
 3764 0bd6 4D       		.byte	0x4d
 3765 0bd7 81000000 		.4byte	0x81
 3766 0bdb 05       		.uleb128 0x5
 3767 0bdc 03       		.byte	0x3
 3768 0bdd 00000000 		.4byte	BuzzerDly
 3769 0be1 2F       		.uleb128 0x2f
 3770 0be2 D4060000 		.4byte	.LASF112
 3771 0be6 01       		.byte	0x1
 3772 0be7 4E       		.byte	0x4e
 3773 0be8 6B000000 		.4byte	0x6b
 3774 0bec 05       		.uleb128 0x5
 3775 0bed 03       		.byte	0x3
 3776 0bee 00000000 		.4byte	gcWifiCommunState
 3777 0bf2 2F       		.uleb128 0x2f
 3778 0bf3 A6050000 		.4byte	.LASF113
 3779 0bf7 01       		.byte	0x1
 3780 0bf8 58       		.byte	0x58
 3781 0bf9 F1000000 		.4byte	0xf1
 3782 0bfd 05       		.uleb128 0x5
 3783 0bfe 03       		.byte	0x3
 3784 0bff 00000000 		.4byte	WifiWorkFlag
 3785 0c03 2F       		.uleb128 0x2f
 3786 0c04 34050000 		.4byte	.LASF114
 3787 0c08 01       		.byte	0x1
 3788 0c09 60       		.byte	0x60
ARM GAS  C:\Users\ZHANGM~1\AppData\Local\Temp\ccse5bds.s 			page 94


 3789 0c0a 72010000 		.4byte	0x172
 3790 0c0e 05       		.uleb128 0x5
 3791 0c0f 03       		.byte	0x3
 3792 0c10 00000000 		.4byte	WifidatagramWorkFlag
 3793 0c14 2F       		.uleb128 0x2f
 3794 0c15 60020000 		.4byte	.LASF115
 3795 0c19 01       		.byte	0x1
 3796 0c1a 61       		.byte	0x61
 3797 0c1b 6B000000 		.4byte	0x6b
 3798 0c1f 05       		.uleb128 0x5
 3799 0c20 03       		.byte	0x3
 3800 0c21 00000000 		.4byte	gcWIFICTL
 3801 0c25 2F       		.uleb128 0x2f
 3802 0c26 30020000 		.4byte	.LASF116
 3803 0c2a 01       		.byte	0x1
 3804 0c2b 61       		.byte	0x61
 3805 0c2c 6B000000 		.4byte	0x6b
 3806 0c30 05       		.uleb128 0x5
 3807 0c31 03       		.byte	0x3
 3808 0c32 00000000 		.4byte	giWIFICommand
 3809 0c36 2F       		.uleb128 0x2f
 3810 0c37 C5020000 		.4byte	.LASF117
 3811 0c3b 01       		.byte	0x1
 3812 0c3c 61       		.byte	0x61
 3813 0c3d 6B000000 		.4byte	0x6b
 3814 0c41 05       		.uleb128 0x5
 3815 0c42 03       		.byte	0x3
 3816 0c43 00000000 		.4byte	giWIFIDATALength
 3817 0c47 0F       		.uleb128 0xf
 3818 0c48 B7010000 		.4byte	0x1b7
 3819 0c4c 570C0000 		.4byte	0xc57
 3820 0c50 10       		.uleb128 0x10
 3821 0c51 E2000000 		.4byte	0xe2
 3822 0c55 00       		.byte	0
 3823 0c56 00       		.byte	0
 3824 0c57 2F       		.uleb128 0x2f
 3825 0c58 61030000 		.4byte	.LASF118
 3826 0c5c 01       		.byte	0x1
 3827 0c5d 67       		.byte	0x67
 3828 0c5e 470C0000 		.4byte	0xc47
 3829 0c62 05       		.uleb128 0x5
 3830 0c63 03       		.byte	0x3
 3831 0c64 00000000 		.4byte	ATReceBuffer
 3832 0c68 2F       		.uleb128 0x2f
 3833 0c69 49050000 		.4byte	.LASF119
 3834 0c6d 01       		.byte	0x1
 3835 0c6e 6A       		.byte	0x6a
 3836 0c6f 76000000 		.4byte	0x76
 3837 0c73 05       		.uleb128 0x5
 3838 0c74 03       		.byte	0x3
 3839 0c75 00000000 		.4byte	iUartSendLen
 3840 0c79 2F       		.uleb128 0x2f
 3841 0c7a C1030000 		.4byte	.LASF120
 3842 0c7e 01       		.byte	0x1
 3843 0c7f 6A       		.byte	0x6a
 3844 0c80 76000000 		.4byte	0x76
 3845 0c84 05       		.uleb128 0x5
ARM GAS  C:\Users\ZHANGM~1\AppData\Local\Temp\ccse5bds.s 			page 95


 3846 0c85 03       		.byte	0x3
 3847 0c86 00000000 		.4byte	iSendCounter
 3848 0c8a 2F       		.uleb128 0x2f
 3849 0c8b 4B030000 		.4byte	.LASF121
 3850 0c8f 01       		.byte	0x1
 3851 0c90 6B       		.byte	0x6b
 3852 0c91 EB000000 		.4byte	0xeb
 3853 0c95 05       		.uleb128 0x5
 3854 0c96 03       		.byte	0x3
 3855 0c97 00000000 		.4byte	cpSendBufPtr
 3856 0c9b 2F       		.uleb128 0x2f
 3857 0c9c E2050000 		.4byte	.LASF122
 3858 0ca0 01       		.byte	0x1
 3859 0ca1 6C       		.byte	0x6c
 3860 0ca2 6B000000 		.4byte	0x6b
 3861 0ca6 05       		.uleb128 0x5
 3862 0ca7 03       		.byte	0x3
 3863 0ca8 00000000 		.4byte	F_uart_0_tx
 3864 0cac 0F       		.uleb128 0xf
 3865 0cad 6B000000 		.4byte	0x6b
 3866 0cb1 BC0C0000 		.4byte	0xcbc
 3867 0cb5 10       		.uleb128 0x10
 3868 0cb6 E2000000 		.4byte	0xe2
 3869 0cba FF       		.byte	0xff
 3870 0cbb 00       		.byte	0
 3871 0cbc 2F       		.uleb128 0x2f
 3872 0cbd 89060000 		.4byte	.LASF123
 3873 0cc1 01       		.byte	0x1
 3874 0cc2 6F       		.byte	0x6f
 3875 0cc3 CD0C0000 		.4byte	0xccd
 3876 0cc7 05       		.uleb128 0x5
 3877 0cc8 03       		.byte	0x3
 3878 0cc9 00000000 		.4byte	auchCRCHi
 3879 0ccd 30       		.uleb128 0x30
 3880 0cce AC0C0000 		.4byte	0xcac
 3881 0cd2 2F       		.uleb128 0x2f
 3882 0cd3 F7010000 		.4byte	.LASF124
 3883 0cd7 01       		.byte	0x1
 3884 0cd8 8C       		.byte	0x8c
 3885 0cd9 E30C0000 		.4byte	0xce3
 3886 0cdd 05       		.uleb128 0x5
 3887 0cde 03       		.byte	0x3
 3888 0cdf 00000000 		.4byte	auchCRCLo
 3889 0ce3 30       		.uleb128 0x30
 3890 0ce4 AC0C0000 		.4byte	0xcac
 3891 0ce8 32       		.uleb128 0x32
 3892 0ce9 23040000 		.4byte	.LASF126
 3893 0ced E9000000 		.4byte	0xe9
 3894 0cf1 050D0000 		.4byte	0xd05
 3895 0cf5 33       		.uleb128 0x33
 3896 0cf6 E9000000 		.4byte	0xe9
 3897 0cfa 33       		.uleb128 0x33
 3898 0cfb 5D000000 		.4byte	0x5d
 3899 0cff 33       		.uleb128 0x33
 3900 0d00 E2000000 		.4byte	0xe2
 3901 0d04 00       		.byte	0
 3902 0d05 32       		.uleb128 0x32
ARM GAS  C:\Users\ZHANGM~1\AppData\Local\Temp\ccse5bds.s 			page 96


 3903 0d06 FE060000 		.4byte	.LASF127
 3904 0d0a E9000000 		.4byte	0xe9
 3905 0d0e 220D0000 		.4byte	0xd22
 3906 0d12 33       		.uleb128 0x33
 3907 0d13 E9000000 		.4byte	0xe9
 3908 0d17 33       		.uleb128 0x33
 3909 0d18 220D0000 		.4byte	0xd22
 3910 0d1c 33       		.uleb128 0x33
 3911 0d1d E2000000 		.4byte	0xe2
 3912 0d21 00       		.byte	0
 3913 0d22 07       		.uleb128 0x7
 3914 0d23 04       		.byte	0x4
 3915 0d24 280D0000 		.4byte	0xd28
 3916 0d28 34       		.uleb128 0x34
 3917 0d29 35       		.uleb128 0x35
 3918 0d2a 01020000 		.4byte	.LASF143
 3919 0d2e 07       		.byte	0x7
 3920 0d2f 5C01     		.2byte	0x15c
 3921 0d31 81000000 		.4byte	0x81
 3922 0d35 36       		.uleb128 0x36
 3923 0d36 DE010000 		.4byte	.LASF128
 3924 0d3a 04       		.byte	0x4
 3925 0d3b 3101     		.2byte	0x131
 3926 0d3d 36       		.uleb128 0x36
 3927 0d3e 42030000 		.4byte	.LASF129
 3928 0d42 04       		.byte	0x4
 3929 0d43 3201     		.2byte	0x132
 3930 0d45 37       		.uleb128 0x37
 3931 0d46 4D010000 		.4byte	.LASF130
 3932 0d4a 05       		.byte	0x5
 3933 0d4b 84       		.byte	0x84
 3934 0d4c 560D0000 		.4byte	0xd56
 3935 0d50 33       		.uleb128 0x33
 3936 0d51 6B000000 		.4byte	0x6b
 3937 0d55 00       		.byte	0
 3938 0d56 38       		.uleb128 0x38
 3939 0d57 2C070000 		.4byte	.LASF144
 3940 0d5b 08       		.byte	0x8
 3941 0d5c 1C       		.byte	0x1c
 3942 0d5d 81000000 		.4byte	0x81
 3943 0d61 700D0000 		.4byte	0xd70
 3944 0d65 33       		.uleb128 0x33
 3945 0d66 81000000 		.4byte	0x81
 3946 0d6a 33       		.uleb128 0x33
 3947 0d6b 1B0B0000 		.4byte	0xb1b
 3948 0d6f 00       		.byte	0
 3949 0d70 39       		.uleb128 0x39
 3950 0d71 EE050000 		.4byte	.LASF131
 3951 0d75 05       		.byte	0x5
 3952 0d76 81       		.byte	0x81
 3953 0d77 39       		.uleb128 0x39
 3954 0d78 D6020000 		.4byte	.LASF132
 3955 0d7c 06       		.byte	0x6
 3956 0d7d 63       		.byte	0x63
 3957 0d7e 39       		.uleb128 0x39
 3958 0d7f D0010000 		.4byte	.LASF133
 3959 0d83 06       		.byte	0x6
ARM GAS  C:\Users\ZHANGM~1\AppData\Local\Temp\ccse5bds.s 			page 97


 3960 0d84 64       		.byte	0x64
 3961 0d85 39       		.uleb128 0x39
 3962 0d86 4B020000 		.4byte	.LASF134
 3963 0d8a 06       		.byte	0x6
 3964 0d8b 65       		.byte	0x65
 3965 0d8c 37       		.uleb128 0x37
 3966 0d8d 2C010000 		.4byte	.LASF135
 3967 0d91 06       		.byte	0x6
 3968 0d92 6D       		.byte	0x6d
 3969 0d93 9D0D0000 		.4byte	0xd9d
 3970 0d97 33       		.uleb128 0x33
 3971 0d98 CF000000 		.4byte	0xcf
 3972 0d9c 00       		.byte	0
 3973 0d9d 36       		.uleb128 0x36
 3974 0d9e 15060000 		.4byte	.LASF136
 3975 0da2 07       		.byte	0x7
 3976 0da3 7801     		.2byte	0x178
 3977 0da5 36       		.uleb128 0x36
 3978 0da6 6A040000 		.4byte	.LASF137
 3979 0daa 07       		.byte	0x7
 3980 0dab 7F01     		.2byte	0x17f
 3981 0dad 3A       		.uleb128 0x3a
 3982 0dae 1B000000 		.4byte	.LASF145
 3983 0db2 05       		.byte	0x5
 3984 0db3 7B       		.byte	0x7b
 3985 0db4 33       		.uleb128 0x33
 3986 0db5 81000000 		.4byte	0x81
 3987 0db9 00       		.byte	0
 3988 0dba 00       		.byte	0
 3989              		.section	.debug_abbrev,"",%progbits
 3990              	.Ldebug_abbrev0:
 3991 0000 01       		.uleb128 0x1
 3992 0001 11       		.uleb128 0x11
 3993 0002 01       		.byte	0x1
 3994 0003 25       		.uleb128 0x25
 3995 0004 0E       		.uleb128 0xe
 3996 0005 13       		.uleb128 0x13
 3997 0006 0B       		.uleb128 0xb
 3998 0007 03       		.uleb128 0x3
 3999 0008 0E       		.uleb128 0xe
 4000 0009 1B       		.uleb128 0x1b
 4001 000a 0E       		.uleb128 0xe
 4002 000b 55       		.uleb128 0x55
 4003 000c 17       		.uleb128 0x17
 4004 000d 11       		.uleb128 0x11
 4005 000e 01       		.uleb128 0x1
 4006 000f 10       		.uleb128 0x10
 4007 0010 17       		.uleb128 0x17
 4008 0011 00       		.byte	0
 4009 0012 00       		.byte	0
 4010 0013 02       		.uleb128 0x2
 4011 0014 24       		.uleb128 0x24
 4012 0015 00       		.byte	0
 4013 0016 0B       		.uleb128 0xb
 4014 0017 0B       		.uleb128 0xb
 4015 0018 3E       		.uleb128 0x3e
 4016 0019 0B       		.uleb128 0xb
ARM GAS  C:\Users\ZHANGM~1\AppData\Local\Temp\ccse5bds.s 			page 98


 4017 001a 03       		.uleb128 0x3
 4018 001b 0E       		.uleb128 0xe
 4019 001c 00       		.byte	0
 4020 001d 00       		.byte	0
 4021 001e 03       		.uleb128 0x3
 4022 001f 24       		.uleb128 0x24
 4023 0020 00       		.byte	0
 4024 0021 0B       		.uleb128 0xb
 4025 0022 0B       		.uleb128 0xb
 4026 0023 3E       		.uleb128 0x3e
 4027 0024 0B       		.uleb128 0xb
 4028 0025 03       		.uleb128 0x3
 4029 0026 08       		.uleb128 0x8
 4030 0027 00       		.byte	0
 4031 0028 00       		.byte	0
 4032 0029 04       		.uleb128 0x4
 4033 002a 16       		.uleb128 0x16
 4034 002b 00       		.byte	0
 4035 002c 03       		.uleb128 0x3
 4036 002d 0E       		.uleb128 0xe
 4037 002e 3A       		.uleb128 0x3a
 4038 002f 0B       		.uleb128 0xb
 4039 0030 3B       		.uleb128 0x3b
 4040 0031 0B       		.uleb128 0xb
 4041 0032 49       		.uleb128 0x49
 4042 0033 13       		.uleb128 0x13
 4043 0034 00       		.byte	0
 4044 0035 00       		.byte	0
 4045 0036 05       		.uleb128 0x5
 4046 0037 16       		.uleb128 0x16
 4047 0038 00       		.byte	0
 4048 0039 03       		.uleb128 0x3
 4049 003a 0E       		.uleb128 0xe
 4050 003b 3A       		.uleb128 0x3a
 4051 003c 0B       		.uleb128 0xb
 4052 003d 3B       		.uleb128 0x3b
 4053 003e 05       		.uleb128 0x5
 4054 003f 49       		.uleb128 0x49
 4055 0040 13       		.uleb128 0x13
 4056 0041 00       		.byte	0
 4057 0042 00       		.byte	0
 4058 0043 06       		.uleb128 0x6
 4059 0044 35       		.uleb128 0x35
 4060 0045 00       		.byte	0
 4061 0046 49       		.uleb128 0x49
 4062 0047 13       		.uleb128 0x13
 4063 0048 00       		.byte	0
 4064 0049 00       		.byte	0
 4065 004a 07       		.uleb128 0x7
 4066 004b 0F       		.uleb128 0xf
 4067 004c 00       		.byte	0
 4068 004d 0B       		.uleb128 0xb
 4069 004e 0B       		.uleb128 0xb
 4070 004f 49       		.uleb128 0x49
 4071 0050 13       		.uleb128 0x13
 4072 0051 00       		.byte	0
 4073 0052 00       		.byte	0
ARM GAS  C:\Users\ZHANGM~1\AppData\Local\Temp\ccse5bds.s 			page 99


 4074 0053 08       		.uleb128 0x8
 4075 0054 15       		.uleb128 0x15
 4076 0055 00       		.byte	0
 4077 0056 27       		.uleb128 0x27
 4078 0057 19       		.uleb128 0x19
 4079 0058 00       		.byte	0
 4080 0059 00       		.byte	0
 4081 005a 09       		.uleb128 0x9
 4082 005b 0F       		.uleb128 0xf
 4083 005c 00       		.byte	0
 4084 005d 0B       		.uleb128 0xb
 4085 005e 0B       		.uleb128 0xb
 4086 005f 00       		.byte	0
 4087 0060 00       		.byte	0
 4088 0061 0A       		.uleb128 0xa
 4089 0062 13       		.uleb128 0x13
 4090 0063 01       		.byte	0x1
 4091 0064 0B       		.uleb128 0xb
 4092 0065 0B       		.uleb128 0xb
 4093 0066 3A       		.uleb128 0x3a
 4094 0067 0B       		.uleb128 0xb
 4095 0068 3B       		.uleb128 0x3b
 4096 0069 0B       		.uleb128 0xb
 4097 006a 01       		.uleb128 0x1
 4098 006b 13       		.uleb128 0x13
 4099 006c 00       		.byte	0
 4100 006d 00       		.byte	0
 4101 006e 0B       		.uleb128 0xb
 4102 006f 0D       		.uleb128 0xd
 4103 0070 00       		.byte	0
 4104 0071 03       		.uleb128 0x3
 4105 0072 0E       		.uleb128 0xe
 4106 0073 3A       		.uleb128 0x3a
 4107 0074 0B       		.uleb128 0xb
 4108 0075 3B       		.uleb128 0x3b
 4109 0076 0B       		.uleb128 0xb
 4110 0077 49       		.uleb128 0x49
 4111 0078 13       		.uleb128 0x13
 4112 0079 0B       		.uleb128 0xb
 4113 007a 0B       		.uleb128 0xb
 4114 007b 0D       		.uleb128 0xd
 4115 007c 0B       		.uleb128 0xb
 4116 007d 0C       		.uleb128 0xc
 4117 007e 0B       		.uleb128 0xb
 4118 007f 38       		.uleb128 0x38
 4119 0080 0B       		.uleb128 0xb
 4120 0081 00       		.byte	0
 4121 0082 00       		.byte	0
 4122 0083 0C       		.uleb128 0xc
 4123 0084 13       		.uleb128 0x13
 4124 0085 01       		.byte	0x1
 4125 0086 03       		.uleb128 0x3
 4126 0087 0E       		.uleb128 0xe
 4127 0088 0B       		.uleb128 0xb
 4128 0089 05       		.uleb128 0x5
 4129 008a 3A       		.uleb128 0x3a
 4130 008b 0B       		.uleb128 0xb
ARM GAS  C:\Users\ZHANGM~1\AppData\Local\Temp\ccse5bds.s 			page 100


 4131 008c 3B       		.uleb128 0x3b
 4132 008d 0B       		.uleb128 0xb
 4133 008e 01       		.uleb128 0x1
 4134 008f 13       		.uleb128 0x13
 4135 0090 00       		.byte	0
 4136 0091 00       		.byte	0
 4137 0092 0D       		.uleb128 0xd
 4138 0093 0D       		.uleb128 0xd
 4139 0094 00       		.byte	0
 4140 0095 03       		.uleb128 0x3
 4141 0096 0E       		.uleb128 0xe
 4142 0097 3A       		.uleb128 0x3a
 4143 0098 0B       		.uleb128 0xb
 4144 0099 3B       		.uleb128 0x3b
 4145 009a 0B       		.uleb128 0xb
 4146 009b 49       		.uleb128 0x49
 4147 009c 13       		.uleb128 0x13
 4148 009d 38       		.uleb128 0x38
 4149 009e 0B       		.uleb128 0xb
 4150 009f 00       		.byte	0
 4151 00a0 00       		.byte	0
 4152 00a1 0E       		.uleb128 0xe
 4153 00a2 0D       		.uleb128 0xd
 4154 00a3 00       		.byte	0
 4155 00a4 03       		.uleb128 0x3
 4156 00a5 0E       		.uleb128 0xe
 4157 00a6 3A       		.uleb128 0x3a
 4158 00a7 0B       		.uleb128 0xb
 4159 00a8 3B       		.uleb128 0x3b
 4160 00a9 0B       		.uleb128 0xb
 4161 00aa 49       		.uleb128 0x49
 4162 00ab 13       		.uleb128 0x13
 4163 00ac 38       		.uleb128 0x38
 4164 00ad 05       		.uleb128 0x5
 4165 00ae 00       		.byte	0
 4166 00af 00       		.byte	0
 4167 00b0 0F       		.uleb128 0xf
 4168 00b1 01       		.uleb128 0x1
 4169 00b2 01       		.byte	0x1
 4170 00b3 49       		.uleb128 0x49
 4171 00b4 13       		.uleb128 0x13
 4172 00b5 01       		.uleb128 0x1
 4173 00b6 13       		.uleb128 0x13
 4174 00b7 00       		.byte	0
 4175 00b8 00       		.byte	0
 4176 00b9 10       		.uleb128 0x10
 4177 00ba 21       		.uleb128 0x21
 4178 00bb 00       		.byte	0
 4179 00bc 49       		.uleb128 0x49
 4180 00bd 13       		.uleb128 0x13
 4181 00be 2F       		.uleb128 0x2f
 4182 00bf 0B       		.uleb128 0xb
 4183 00c0 00       		.byte	0
 4184 00c1 00       		.byte	0
 4185 00c2 11       		.uleb128 0x11
 4186 00c3 2E       		.uleb128 0x2e
 4187 00c4 01       		.byte	0x1
ARM GAS  C:\Users\ZHANGM~1\AppData\Local\Temp\ccse5bds.s 			page 101


 4188 00c5 3F       		.uleb128 0x3f
 4189 00c6 19       		.uleb128 0x19
 4190 00c7 03       		.uleb128 0x3
 4191 00c8 0E       		.uleb128 0xe
 4192 00c9 3A       		.uleb128 0x3a
 4193 00ca 0B       		.uleb128 0xb
 4194 00cb 3B       		.uleb128 0x3b
 4195 00cc 05       		.uleb128 0x5
 4196 00cd 27       		.uleb128 0x27
 4197 00ce 19       		.uleb128 0x19
 4198 00cf 20       		.uleb128 0x20
 4199 00d0 0B       		.uleb128 0xb
 4200 00d1 01       		.uleb128 0x1
 4201 00d2 13       		.uleb128 0x13
 4202 00d3 00       		.byte	0
 4203 00d4 00       		.byte	0
 4204 00d5 12       		.uleb128 0x12
 4205 00d6 34       		.uleb128 0x34
 4206 00d7 00       		.byte	0
 4207 00d8 03       		.uleb128 0x3
 4208 00d9 0E       		.uleb128 0xe
 4209 00da 3A       		.uleb128 0x3a
 4210 00db 0B       		.uleb128 0xb
 4211 00dc 3B       		.uleb128 0x3b
 4212 00dd 05       		.uleb128 0x5
 4213 00de 49       		.uleb128 0x49
 4214 00df 13       		.uleb128 0x13
 4215 00e0 00       		.byte	0
 4216 00e1 00       		.byte	0
 4217 00e2 13       		.uleb128 0x13
 4218 00e3 2E       		.uleb128 0x2e
 4219 00e4 01       		.byte	0x1
 4220 00e5 03       		.uleb128 0x3
 4221 00e6 0E       		.uleb128 0xe
 4222 00e7 3A       		.uleb128 0x3a
 4223 00e8 0B       		.uleb128 0xb
 4224 00e9 3B       		.uleb128 0x3b
 4225 00ea 05       		.uleb128 0x5
 4226 00eb 27       		.uleb128 0x27
 4227 00ec 19       		.uleb128 0x19
 4228 00ed 11       		.uleb128 0x11
 4229 00ee 01       		.uleb128 0x1
 4230 00ef 12       		.uleb128 0x12
 4231 00f0 06       		.uleb128 0x6
 4232 00f1 40       		.uleb128 0x40
 4233 00f2 18       		.uleb128 0x18
 4234 00f3 9742     		.uleb128 0x2117
 4235 00f5 19       		.uleb128 0x19
 4236 00f6 01       		.uleb128 0x1
 4237 00f7 13       		.uleb128 0x13
 4238 00f8 00       		.byte	0
 4239 00f9 00       		.byte	0
 4240 00fa 14       		.uleb128 0x14
 4241 00fb 05       		.uleb128 0x5
 4242 00fc 00       		.byte	0
 4243 00fd 03       		.uleb128 0x3
 4244 00fe 0E       		.uleb128 0xe
ARM GAS  C:\Users\ZHANGM~1\AppData\Local\Temp\ccse5bds.s 			page 102


 4245 00ff 3A       		.uleb128 0x3a
 4246 0100 0B       		.uleb128 0xb
 4247 0101 3B       		.uleb128 0x3b
 4248 0102 05       		.uleb128 0x5
 4249 0103 49       		.uleb128 0x49
 4250 0104 13       		.uleb128 0x13
 4251 0105 02       		.uleb128 0x2
 4252 0106 18       		.uleb128 0x18
 4253 0107 00       		.byte	0
 4254 0108 00       		.byte	0
 4255 0109 15       		.uleb128 0x15
 4256 010a 2E       		.uleb128 0x2e
 4257 010b 01       		.byte	0x1
 4258 010c 3F       		.uleb128 0x3f
 4259 010d 19       		.uleb128 0x19
 4260 010e 03       		.uleb128 0x3
 4261 010f 0E       		.uleb128 0xe
 4262 0110 3A       		.uleb128 0x3a
 4263 0111 0B       		.uleb128 0xb
 4264 0112 3B       		.uleb128 0x3b
 4265 0113 0B       		.uleb128 0xb
 4266 0114 27       		.uleb128 0x27
 4267 0115 19       		.uleb128 0x19
 4268 0116 49       		.uleb128 0x49
 4269 0117 13       		.uleb128 0x13
 4270 0118 11       		.uleb128 0x11
 4271 0119 01       		.uleb128 0x1
 4272 011a 12       		.uleb128 0x12
 4273 011b 06       		.uleb128 0x6
 4274 011c 40       		.uleb128 0x40
 4275 011d 18       		.uleb128 0x18
 4276 011e 9742     		.uleb128 0x2117
 4277 0120 19       		.uleb128 0x19
 4278 0121 01       		.uleb128 0x1
 4279 0122 13       		.uleb128 0x13
 4280 0123 00       		.byte	0
 4281 0124 00       		.byte	0
 4282 0125 16       		.uleb128 0x16
 4283 0126 05       		.uleb128 0x5
 4284 0127 00       		.byte	0
 4285 0128 03       		.uleb128 0x3
 4286 0129 0E       		.uleb128 0xe
 4287 012a 3A       		.uleb128 0x3a
 4288 012b 0B       		.uleb128 0xb
 4289 012c 3B       		.uleb128 0x3b
 4290 012d 0B       		.uleb128 0xb
 4291 012e 49       		.uleb128 0x49
 4292 012f 13       		.uleb128 0x13
 4293 0130 02       		.uleb128 0x2
 4294 0131 17       		.uleb128 0x17
 4295 0132 00       		.byte	0
 4296 0133 00       		.byte	0
 4297 0134 17       		.uleb128 0x17
 4298 0135 34       		.uleb128 0x34
 4299 0136 00       		.byte	0
 4300 0137 03       		.uleb128 0x3
 4301 0138 0E       		.uleb128 0xe
ARM GAS  C:\Users\ZHANGM~1\AppData\Local\Temp\ccse5bds.s 			page 103


 4302 0139 3A       		.uleb128 0x3a
 4303 013a 0B       		.uleb128 0xb
 4304 013b 3B       		.uleb128 0x3b
 4305 013c 0B       		.uleb128 0xb
 4306 013d 49       		.uleb128 0x49
 4307 013e 13       		.uleb128 0x13
 4308 013f 02       		.uleb128 0x2
 4309 0140 17       		.uleb128 0x17
 4310 0141 00       		.byte	0
 4311 0142 00       		.byte	0
 4312 0143 18       		.uleb128 0x18
 4313 0144 2E       		.uleb128 0x2e
 4314 0145 01       		.byte	0x1
 4315 0146 3F       		.uleb128 0x3f
 4316 0147 19       		.uleb128 0x19
 4317 0148 03       		.uleb128 0x3
 4318 0149 0E       		.uleb128 0xe
 4319 014a 3A       		.uleb128 0x3a
 4320 014b 0B       		.uleb128 0xb
 4321 014c 3B       		.uleb128 0x3b
 4322 014d 0B       		.uleb128 0xb
 4323 014e 27       		.uleb128 0x27
 4324 014f 19       		.uleb128 0x19
 4325 0150 11       		.uleb128 0x11
 4326 0151 01       		.uleb128 0x1
 4327 0152 12       		.uleb128 0x12
 4328 0153 06       		.uleb128 0x6
 4329 0154 40       		.uleb128 0x40
 4330 0155 18       		.uleb128 0x18
 4331 0156 9742     		.uleb128 0x2117
 4332 0158 19       		.uleb128 0x19
 4333 0159 01       		.uleb128 0x1
 4334 015a 13       		.uleb128 0x13
 4335 015b 00       		.byte	0
 4336 015c 00       		.byte	0
 4337 015d 19       		.uleb128 0x19
 4338 015e 05       		.uleb128 0x5
 4339 015f 00       		.byte	0
 4340 0160 03       		.uleb128 0x3
 4341 0161 0E       		.uleb128 0xe
 4342 0162 3A       		.uleb128 0x3a
 4343 0163 0B       		.uleb128 0xb
 4344 0164 3B       		.uleb128 0x3b
 4345 0165 0B       		.uleb128 0xb
 4346 0166 49       		.uleb128 0x49
 4347 0167 13       		.uleb128 0x13
 4348 0168 02       		.uleb128 0x2
 4349 0169 18       		.uleb128 0x18
 4350 016a 00       		.byte	0
 4351 016b 00       		.byte	0
 4352 016c 1A       		.uleb128 0x1a
 4353 016d 898201   		.uleb128 0x4109
 4354 0170 00       		.byte	0
 4355 0171 11       		.uleb128 0x11
 4356 0172 01       		.uleb128 0x1
 4357 0173 31       		.uleb128 0x31
 4358 0174 13       		.uleb128 0x13
ARM GAS  C:\Users\ZHANGM~1\AppData\Local\Temp\ccse5bds.s 			page 104


 4359 0175 00       		.byte	0
 4360 0176 00       		.byte	0
 4361 0177 1B       		.uleb128 0x1b
 4362 0178 05       		.uleb128 0x5
 4363 0179 00       		.byte	0
 4364 017a 03       		.uleb128 0x3
 4365 017b 08       		.uleb128 0x8
 4366 017c 3A       		.uleb128 0x3a
 4367 017d 0B       		.uleb128 0xb
 4368 017e 3B       		.uleb128 0x3b
 4369 017f 0B       		.uleb128 0xb
 4370 0180 49       		.uleb128 0x49
 4371 0181 13       		.uleb128 0x13
 4372 0182 02       		.uleb128 0x2
 4373 0183 17       		.uleb128 0x17
 4374 0184 00       		.byte	0
 4375 0185 00       		.byte	0
 4376 0186 1C       		.uleb128 0x1c
 4377 0187 2E       		.uleb128 0x2e
 4378 0188 01       		.byte	0x1
 4379 0189 3F       		.uleb128 0x3f
 4380 018a 19       		.uleb128 0x19
 4381 018b 03       		.uleb128 0x3
 4382 018c 0E       		.uleb128 0xe
 4383 018d 3A       		.uleb128 0x3a
 4384 018e 0B       		.uleb128 0xb
 4385 018f 3B       		.uleb128 0x3b
 4386 0190 05       		.uleb128 0x5
 4387 0191 27       		.uleb128 0x27
 4388 0192 19       		.uleb128 0x19
 4389 0193 11       		.uleb128 0x11
 4390 0194 01       		.uleb128 0x1
 4391 0195 12       		.uleb128 0x12
 4392 0196 06       		.uleb128 0x6
 4393 0197 40       		.uleb128 0x40
 4394 0198 18       		.uleb128 0x18
 4395 0199 9742     		.uleb128 0x2117
 4396 019b 19       		.uleb128 0x19
 4397 019c 01       		.uleb128 0x1
 4398 019d 13       		.uleb128 0x13
 4399 019e 00       		.byte	0
 4400 019f 00       		.byte	0
 4401 01a0 1D       		.uleb128 0x1d
 4402 01a1 05       		.uleb128 0x5
 4403 01a2 00       		.byte	0
 4404 01a3 03       		.uleb128 0x3
 4405 01a4 0E       		.uleb128 0xe
 4406 01a5 3A       		.uleb128 0x3a
 4407 01a6 0B       		.uleb128 0xb
 4408 01a7 3B       		.uleb128 0x3b
 4409 01a8 05       		.uleb128 0x5
 4410 01a9 49       		.uleb128 0x49
 4411 01aa 13       		.uleb128 0x13
 4412 01ab 02       		.uleb128 0x2
 4413 01ac 17       		.uleb128 0x17
 4414 01ad 00       		.byte	0
 4415 01ae 00       		.byte	0
ARM GAS  C:\Users\ZHANGM~1\AppData\Local\Temp\ccse5bds.s 			page 105


 4416 01af 1E       		.uleb128 0x1e
 4417 01b0 34       		.uleb128 0x34
 4418 01b1 00       		.byte	0
 4419 01b2 03       		.uleb128 0x3
 4420 01b3 0E       		.uleb128 0xe
 4421 01b4 3A       		.uleb128 0x3a
 4422 01b5 0B       		.uleb128 0xb
 4423 01b6 3B       		.uleb128 0x3b
 4424 01b7 05       		.uleb128 0x5
 4425 01b8 49       		.uleb128 0x49
 4426 01b9 13       		.uleb128 0x13
 4427 01ba 02       		.uleb128 0x2
 4428 01bb 17       		.uleb128 0x17
 4429 01bc 00       		.byte	0
 4430 01bd 00       		.byte	0
 4431 01be 1F       		.uleb128 0x1f
 4432 01bf 34       		.uleb128 0x34
 4433 01c0 00       		.byte	0
 4434 01c1 03       		.uleb128 0x3
 4435 01c2 0E       		.uleb128 0xe
 4436 01c3 3A       		.uleb128 0x3a
 4437 01c4 0B       		.uleb128 0xb
 4438 01c5 3B       		.uleb128 0x3b
 4439 01c6 05       		.uleb128 0x5
 4440 01c7 49       		.uleb128 0x49
 4441 01c8 13       		.uleb128 0x13
 4442 01c9 02       		.uleb128 0x2
 4443 01ca 18       		.uleb128 0x18
 4444 01cb 00       		.byte	0
 4445 01cc 00       		.byte	0
 4446 01cd 20       		.uleb128 0x20
 4447 01ce 898201   		.uleb128 0x4109
 4448 01d1 01       		.byte	0x1
 4449 01d2 11       		.uleb128 0x11
 4450 01d3 01       		.uleb128 0x1
 4451 01d4 31       		.uleb128 0x31
 4452 01d5 13       		.uleb128 0x13
 4453 01d6 01       		.uleb128 0x1
 4454 01d7 13       		.uleb128 0x13
 4455 01d8 00       		.byte	0
 4456 01d9 00       		.byte	0
 4457 01da 21       		.uleb128 0x21
 4458 01db 8A8201   		.uleb128 0x410a
 4459 01de 00       		.byte	0
 4460 01df 02       		.uleb128 0x2
 4461 01e0 18       		.uleb128 0x18
 4462 01e1 9142     		.uleb128 0x2111
 4463 01e3 18       		.uleb128 0x18
 4464 01e4 00       		.byte	0
 4465 01e5 00       		.byte	0
 4466 01e6 22       		.uleb128 0x22
 4467 01e7 898201   		.uleb128 0x4109
 4468 01ea 01       		.byte	0x1
 4469 01eb 11       		.uleb128 0x11
 4470 01ec 01       		.uleb128 0x1
 4471 01ed 31       		.uleb128 0x31
 4472 01ee 13       		.uleb128 0x13
ARM GAS  C:\Users\ZHANGM~1\AppData\Local\Temp\ccse5bds.s 			page 106


 4473 01ef 00       		.byte	0
 4474 01f0 00       		.byte	0
 4475 01f1 23       		.uleb128 0x23
 4476 01f2 2E       		.uleb128 0x2e
 4477 01f3 01       		.byte	0x1
 4478 01f4 31       		.uleb128 0x31
 4479 01f5 13       		.uleb128 0x13
 4480 01f6 11       		.uleb128 0x11
 4481 01f7 01       		.uleb128 0x1
 4482 01f8 12       		.uleb128 0x12
 4483 01f9 06       		.uleb128 0x6
 4484 01fa 40       		.uleb128 0x40
 4485 01fb 18       		.uleb128 0x18
 4486 01fc 9742     		.uleb128 0x2117
 4487 01fe 19       		.uleb128 0x19
 4488 01ff 01       		.uleb128 0x1
 4489 0200 13       		.uleb128 0x13
 4490 0201 00       		.byte	0
 4491 0202 00       		.byte	0
 4492 0203 24       		.uleb128 0x24
 4493 0204 34       		.uleb128 0x34
 4494 0205 00       		.byte	0
 4495 0206 31       		.uleb128 0x31
 4496 0207 13       		.uleb128 0x13
 4497 0208 02       		.uleb128 0x2
 4498 0209 17       		.uleb128 0x17
 4499 020a 00       		.byte	0
 4500 020b 00       		.byte	0
 4501 020c 25       		.uleb128 0x25
 4502 020d 0B       		.uleb128 0xb
 4503 020e 01       		.byte	0x1
 4504 020f 11       		.uleb128 0x11
 4505 0210 01       		.uleb128 0x1
 4506 0211 12       		.uleb128 0x12
 4507 0212 06       		.uleb128 0x6
 4508 0213 00       		.byte	0
 4509 0214 00       		.byte	0
 4510 0215 26       		.uleb128 0x26
 4511 0216 34       		.uleb128 0x34
 4512 0217 00       		.byte	0
 4513 0218 31       		.uleb128 0x31
 4514 0219 13       		.uleb128 0x13
 4515 021a 00       		.byte	0
 4516 021b 00       		.byte	0
 4517 021c 27       		.uleb128 0x27
 4518 021d 2E       		.uleb128 0x2e
 4519 021e 01       		.byte	0x1
 4520 021f 3F       		.uleb128 0x3f
 4521 0220 19       		.uleb128 0x19
 4522 0221 03       		.uleb128 0x3
 4523 0222 0E       		.uleb128 0xe
 4524 0223 3A       		.uleb128 0x3a
 4525 0224 0B       		.uleb128 0xb
 4526 0225 3B       		.uleb128 0x3b
 4527 0226 05       		.uleb128 0x5
 4528 0227 27       		.uleb128 0x27
 4529 0228 19       		.uleb128 0x19
ARM GAS  C:\Users\ZHANGM~1\AppData\Local\Temp\ccse5bds.s 			page 107


 4530 0229 49       		.uleb128 0x49
 4531 022a 13       		.uleb128 0x13
 4532 022b 11       		.uleb128 0x11
 4533 022c 01       		.uleb128 0x1
 4534 022d 12       		.uleb128 0x12
 4535 022e 06       		.uleb128 0x6
 4536 022f 40       		.uleb128 0x40
 4537 0230 18       		.uleb128 0x18
 4538 0231 9742     		.uleb128 0x2117
 4539 0233 19       		.uleb128 0x19
 4540 0234 01       		.uleb128 0x1
 4541 0235 13       		.uleb128 0x13
 4542 0236 00       		.byte	0
 4543 0237 00       		.byte	0
 4544 0238 28       		.uleb128 0x28
 4545 0239 34       		.uleb128 0x34
 4546 023a 00       		.byte	0
 4547 023b 03       		.uleb128 0x3
 4548 023c 08       		.uleb128 0x8
 4549 023d 3A       		.uleb128 0x3a
 4550 023e 0B       		.uleb128 0xb
 4551 023f 3B       		.uleb128 0x3b
 4552 0240 05       		.uleb128 0x5
 4553 0241 49       		.uleb128 0x49
 4554 0242 13       		.uleb128 0x13
 4555 0243 02       		.uleb128 0x2
 4556 0244 17       		.uleb128 0x17
 4557 0245 00       		.byte	0
 4558 0246 00       		.byte	0
 4559 0247 29       		.uleb128 0x29
 4560 0248 0B       		.uleb128 0xb
 4561 0249 01       		.byte	0x1
 4562 024a 11       		.uleb128 0x11
 4563 024b 01       		.uleb128 0x1
 4564 024c 12       		.uleb128 0x12
 4565 024d 06       		.uleb128 0x6
 4566 024e 01       		.uleb128 0x1
 4567 024f 13       		.uleb128 0x13
 4568 0250 00       		.byte	0
 4569 0251 00       		.byte	0
 4570 0252 2A       		.uleb128 0x2a
 4571 0253 2E       		.uleb128 0x2e
 4572 0254 00       		.byte	0
 4573 0255 03       		.uleb128 0x3
 4574 0256 0E       		.uleb128 0xe
 4575 0257 3A       		.uleb128 0x3a
 4576 0258 0B       		.uleb128 0xb
 4577 0259 3B       		.uleb128 0x3b
 4578 025a 05       		.uleb128 0x5
 4579 025b 27       		.uleb128 0x27
 4580 025c 19       		.uleb128 0x19
 4581 025d 20       		.uleb128 0x20
 4582 025e 0B       		.uleb128 0xb
 4583 025f 00       		.byte	0
 4584 0260 00       		.byte	0
 4585 0261 2B       		.uleb128 0x2b
 4586 0262 34       		.uleb128 0x34
ARM GAS  C:\Users\ZHANGM~1\AppData\Local\Temp\ccse5bds.s 			page 108


 4587 0263 00       		.byte	0
 4588 0264 03       		.uleb128 0x3
 4589 0265 0E       		.uleb128 0xe
 4590 0266 3A       		.uleb128 0x3a
 4591 0267 0B       		.uleb128 0xb
 4592 0268 3B       		.uleb128 0x3b
 4593 0269 05       		.uleb128 0x5
 4594 026a 49       		.uleb128 0x49
 4595 026b 13       		.uleb128 0x13
 4596 026c 1C       		.uleb128 0x1c
 4597 026d 0B       		.uleb128 0xb
 4598 026e 00       		.byte	0
 4599 026f 00       		.byte	0
 4600 0270 2C       		.uleb128 0x2c
 4601 0271 1D       		.uleb128 0x1d
 4602 0272 01       		.byte	0x1
 4603 0273 31       		.uleb128 0x31
 4604 0274 13       		.uleb128 0x13
 4605 0275 11       		.uleb128 0x11
 4606 0276 01       		.uleb128 0x1
 4607 0277 12       		.uleb128 0x12
 4608 0278 06       		.uleb128 0x6
 4609 0279 58       		.uleb128 0x58
 4610 027a 0B       		.uleb128 0xb
 4611 027b 59       		.uleb128 0x59
 4612 027c 05       		.uleb128 0x5
 4613 027d 01       		.uleb128 0x1
 4614 027e 13       		.uleb128 0x13
 4615 027f 00       		.byte	0
 4616 0280 00       		.byte	0
 4617 0281 2D       		.uleb128 0x2d
 4618 0282 21       		.uleb128 0x21
 4619 0283 00       		.byte	0
 4620 0284 49       		.uleb128 0x49
 4621 0285 13       		.uleb128 0x13
 4622 0286 2F       		.uleb128 0x2f
 4623 0287 05       		.uleb128 0x5
 4624 0288 00       		.byte	0
 4625 0289 00       		.byte	0
 4626 028a 2E       		.uleb128 0x2e
 4627 028b 1D       		.uleb128 0x1d
 4628 028c 01       		.byte	0x1
 4629 028d 31       		.uleb128 0x31
 4630 028e 13       		.uleb128 0x13
 4631 028f 52       		.uleb128 0x52
 4632 0290 01       		.uleb128 0x1
 4633 0291 55       		.uleb128 0x55
 4634 0292 17       		.uleb128 0x17
 4635 0293 58       		.uleb128 0x58
 4636 0294 0B       		.uleb128 0xb
 4637 0295 59       		.uleb128 0x59
 4638 0296 05       		.uleb128 0x5
 4639 0297 01       		.uleb128 0x1
 4640 0298 13       		.uleb128 0x13
 4641 0299 00       		.byte	0
 4642 029a 00       		.byte	0
 4643 029b 2F       		.uleb128 0x2f
ARM GAS  C:\Users\ZHANGM~1\AppData\Local\Temp\ccse5bds.s 			page 109


 4644 029c 34       		.uleb128 0x34
 4645 029d 00       		.byte	0
 4646 029e 03       		.uleb128 0x3
 4647 029f 0E       		.uleb128 0xe
 4648 02a0 3A       		.uleb128 0x3a
 4649 02a1 0B       		.uleb128 0xb
 4650 02a2 3B       		.uleb128 0x3b
 4651 02a3 0B       		.uleb128 0xb
 4652 02a4 49       		.uleb128 0x49
 4653 02a5 13       		.uleb128 0x13
 4654 02a6 3F       		.uleb128 0x3f
 4655 02a7 19       		.uleb128 0x19
 4656 02a8 02       		.uleb128 0x2
 4657 02a9 18       		.uleb128 0x18
 4658 02aa 00       		.byte	0
 4659 02ab 00       		.byte	0
 4660 02ac 30       		.uleb128 0x30
 4661 02ad 26       		.uleb128 0x26
 4662 02ae 00       		.byte	0
 4663 02af 49       		.uleb128 0x49
 4664 02b0 13       		.uleb128 0x13
 4665 02b1 00       		.byte	0
 4666 02b2 00       		.byte	0
 4667 02b3 31       		.uleb128 0x31
 4668 02b4 34       		.uleb128 0x34
 4669 02b5 00       		.byte	0
 4670 02b6 03       		.uleb128 0x3
 4671 02b7 0E       		.uleb128 0xe
 4672 02b8 3A       		.uleb128 0x3a
 4673 02b9 0B       		.uleb128 0xb
 4674 02ba 3B       		.uleb128 0x3b
 4675 02bb 0B       		.uleb128 0xb
 4676 02bc 49       		.uleb128 0x49
 4677 02bd 13       		.uleb128 0x13
 4678 02be 3F       		.uleb128 0x3f
 4679 02bf 19       		.uleb128 0x19
 4680 02c0 3C       		.uleb128 0x3c
 4681 02c1 19       		.uleb128 0x19
 4682 02c2 00       		.byte	0
 4683 02c3 00       		.byte	0
 4684 02c4 32       		.uleb128 0x32
 4685 02c5 2E       		.uleb128 0x2e
 4686 02c6 01       		.byte	0x1
 4687 02c7 3F       		.uleb128 0x3f
 4688 02c8 19       		.uleb128 0x19
 4689 02c9 03       		.uleb128 0x3
 4690 02ca 0E       		.uleb128 0xe
 4691 02cb 27       		.uleb128 0x27
 4692 02cc 19       		.uleb128 0x19
 4693 02cd 49       		.uleb128 0x49
 4694 02ce 13       		.uleb128 0x13
 4695 02cf 34       		.uleb128 0x34
 4696 02d0 19       		.uleb128 0x19
 4697 02d1 3C       		.uleb128 0x3c
 4698 02d2 19       		.uleb128 0x19
 4699 02d3 01       		.uleb128 0x1
 4700 02d4 13       		.uleb128 0x13
ARM GAS  C:\Users\ZHANGM~1\AppData\Local\Temp\ccse5bds.s 			page 110


 4701 02d5 00       		.byte	0
 4702 02d6 00       		.byte	0
 4703 02d7 33       		.uleb128 0x33
 4704 02d8 05       		.uleb128 0x5
 4705 02d9 00       		.byte	0
 4706 02da 49       		.uleb128 0x49
 4707 02db 13       		.uleb128 0x13
 4708 02dc 00       		.byte	0
 4709 02dd 00       		.byte	0
 4710 02de 34       		.uleb128 0x34
 4711 02df 26       		.uleb128 0x26
 4712 02e0 00       		.byte	0
 4713 02e1 00       		.byte	0
 4714 02e2 00       		.byte	0
 4715 02e3 35       		.uleb128 0x35
 4716 02e4 2E       		.uleb128 0x2e
 4717 02e5 00       		.byte	0
 4718 02e6 3F       		.uleb128 0x3f
 4719 02e7 19       		.uleb128 0x19
 4720 02e8 03       		.uleb128 0x3
 4721 02e9 0E       		.uleb128 0xe
 4722 02ea 3A       		.uleb128 0x3a
 4723 02eb 0B       		.uleb128 0xb
 4724 02ec 3B       		.uleb128 0x3b
 4725 02ed 05       		.uleb128 0x5
 4726 02ee 27       		.uleb128 0x27
 4727 02ef 19       		.uleb128 0x19
 4728 02f0 49       		.uleb128 0x49
 4729 02f1 13       		.uleb128 0x13
 4730 02f2 3C       		.uleb128 0x3c
 4731 02f3 19       		.uleb128 0x19
 4732 02f4 00       		.byte	0
 4733 02f5 00       		.byte	0
 4734 02f6 36       		.uleb128 0x36
 4735 02f7 2E       		.uleb128 0x2e
 4736 02f8 00       		.byte	0
 4737 02f9 3F       		.uleb128 0x3f
 4738 02fa 19       		.uleb128 0x19
 4739 02fb 03       		.uleb128 0x3
 4740 02fc 0E       		.uleb128 0xe
 4741 02fd 3A       		.uleb128 0x3a
 4742 02fe 0B       		.uleb128 0xb
 4743 02ff 3B       		.uleb128 0x3b
 4744 0300 05       		.uleb128 0x5
 4745 0301 27       		.uleb128 0x27
 4746 0302 19       		.uleb128 0x19
 4747 0303 3C       		.uleb128 0x3c
 4748 0304 19       		.uleb128 0x19
 4749 0305 00       		.byte	0
 4750 0306 00       		.byte	0
 4751 0307 37       		.uleb128 0x37
 4752 0308 2E       		.uleb128 0x2e
 4753 0309 01       		.byte	0x1
 4754 030a 3F       		.uleb128 0x3f
 4755 030b 19       		.uleb128 0x19
 4756 030c 03       		.uleb128 0x3
 4757 030d 0E       		.uleb128 0xe
ARM GAS  C:\Users\ZHANGM~1\AppData\Local\Temp\ccse5bds.s 			page 111


 4758 030e 3A       		.uleb128 0x3a
 4759 030f 0B       		.uleb128 0xb
 4760 0310 3B       		.uleb128 0x3b
 4761 0311 0B       		.uleb128 0xb
 4762 0312 27       		.uleb128 0x27
 4763 0313 19       		.uleb128 0x19
 4764 0314 3C       		.uleb128 0x3c
 4765 0315 19       		.uleb128 0x19
 4766 0316 01       		.uleb128 0x1
 4767 0317 13       		.uleb128 0x13
 4768 0318 00       		.byte	0
 4769 0319 00       		.byte	0
 4770 031a 38       		.uleb128 0x38
 4771 031b 2E       		.uleb128 0x2e
 4772 031c 01       		.byte	0x1
 4773 031d 3F       		.uleb128 0x3f
 4774 031e 19       		.uleb128 0x19
 4775 031f 03       		.uleb128 0x3
 4776 0320 0E       		.uleb128 0xe
 4777 0321 3A       		.uleb128 0x3a
 4778 0322 0B       		.uleb128 0xb
 4779 0323 3B       		.uleb128 0x3b
 4780 0324 0B       		.uleb128 0xb
 4781 0325 27       		.uleb128 0x27
 4782 0326 19       		.uleb128 0x19
 4783 0327 49       		.uleb128 0x49
 4784 0328 13       		.uleb128 0x13
 4785 0329 3C       		.uleb128 0x3c
 4786 032a 19       		.uleb128 0x19
 4787 032b 01       		.uleb128 0x1
 4788 032c 13       		.uleb128 0x13
 4789 032d 00       		.byte	0
 4790 032e 00       		.byte	0
 4791 032f 39       		.uleb128 0x39
 4792 0330 2E       		.uleb128 0x2e
 4793 0331 00       		.byte	0
 4794 0332 3F       		.uleb128 0x3f
 4795 0333 19       		.uleb128 0x19
 4796 0334 03       		.uleb128 0x3
 4797 0335 0E       		.uleb128 0xe
 4798 0336 3A       		.uleb128 0x3a
 4799 0337 0B       		.uleb128 0xb
 4800 0338 3B       		.uleb128 0x3b
 4801 0339 0B       		.uleb128 0xb
 4802 033a 27       		.uleb128 0x27
 4803 033b 19       		.uleb128 0x19
 4804 033c 3C       		.uleb128 0x3c
 4805 033d 19       		.uleb128 0x19
 4806 033e 00       		.byte	0
 4807 033f 00       		.byte	0
 4808 0340 3A       		.uleb128 0x3a
 4809 0341 2E       		.uleb128 0x2e
 4810 0342 01       		.byte	0x1
 4811 0343 3F       		.uleb128 0x3f
 4812 0344 19       		.uleb128 0x19
 4813 0345 03       		.uleb128 0x3
 4814 0346 0E       		.uleb128 0xe
ARM GAS  C:\Users\ZHANGM~1\AppData\Local\Temp\ccse5bds.s 			page 112


 4815 0347 3A       		.uleb128 0x3a
 4816 0348 0B       		.uleb128 0xb
 4817 0349 3B       		.uleb128 0x3b
 4818 034a 0B       		.uleb128 0xb
 4819 034b 27       		.uleb128 0x27
 4820 034c 19       		.uleb128 0x19
 4821 034d 3C       		.uleb128 0x3c
 4822 034e 19       		.uleb128 0x19
 4823 034f 00       		.byte	0
 4824 0350 00       		.byte	0
 4825 0351 00       		.byte	0
 4826              		.section	.debug_loc,"",%progbits
 4827              	.Ldebug_loc0:
 4828              	.LLST0:
 4829 0000 00000000 		.4byte	.LVL1
 4830 0004 10000000 		.4byte	.LVL5
 4831 0008 0100     		.2byte	0x1
 4832 000a 50       		.byte	0x50
 4833 000b 10000000 		.4byte	.LVL5
 4834 000f 14000000 		.4byte	.LVL6
 4835 0013 0300     		.2byte	0x3
 4836 0015 70       		.byte	0x70
 4837 0016 01       		.sleb128 1
 4838 0017 9F       		.byte	0x9f
 4839 0018 14000000 		.4byte	.LVL6
 4840 001c 24000000 		.4byte	.LVL13
 4841 0020 0100     		.2byte	0x1
 4842 0022 50       		.byte	0x50
 4843 0023 00000000 		.4byte	0
 4844 0027 00000000 		.4byte	0
 4845              	.LLST1:
 4846 002b 00000000 		.4byte	.LVL1
 4847 002f 06000000 		.4byte	.LVL2
 4848 0033 0100     		.2byte	0x1
 4849 0035 51       		.byte	0x51
 4850 0036 06000000 		.4byte	.LVL2
 4851 003a 08000000 		.4byte	.LVL3
 4852 003e 0100     		.2byte	0x1
 4853 0040 51       		.byte	0x51
 4854 0041 08000000 		.4byte	.LVL3
 4855 0045 0C000000 		.4byte	.LVL4
 4856 0049 0300     		.2byte	0x3
 4857 004b 71       		.byte	0x71
 4858 004c 01       		.sleb128 1
 4859 004d 9F       		.byte	0x9f
 4860 004e 0C000000 		.4byte	.LVL4
 4861 0052 34000000 		.4byte	.LFE33
 4862 0056 0100     		.2byte	0x1
 4863 0058 51       		.byte	0x51
 4864 0059 00000000 		.4byte	0
 4865 005d 00000000 		.4byte	0
 4866              	.LLST2:
 4867 0061 00000000 		.4byte	.LVL1
 4868 0065 06000000 		.4byte	.LVL2
 4869 0069 0300     		.2byte	0x3
 4870 006b 09       		.byte	0x9
 4871 006c FF       		.byte	0xff
ARM GAS  C:\Users\ZHANGM~1\AppData\Local\Temp\ccse5bds.s 			page 113


 4872 006d 9F       		.byte	0x9f
 4873 006e 06000000 		.4byte	.LVL2
 4874 0072 18000000 		.4byte	.LVL8
 4875 0076 0100     		.2byte	0x1
 4876 0078 52       		.byte	0x52
 4877 0079 1C000000 		.4byte	.LVL9
 4878 007d 34000000 		.4byte	.LFE33
 4879 0081 0100     		.2byte	0x1
 4880 0083 52       		.byte	0x52
 4881 0084 00000000 		.4byte	0
 4882 0088 00000000 		.4byte	0
 4883              	.LLST3:
 4884 008c 00000000 		.4byte	.LVL1
 4885 0090 06000000 		.4byte	.LVL2
 4886 0094 0300     		.2byte	0x3
 4887 0096 09       		.byte	0x9
 4888 0097 FF       		.byte	0xff
 4889 0098 9F       		.byte	0x9f
 4890 0099 06000000 		.4byte	.LVL2
 4891 009d 1E000000 		.4byte	.LVL10
 4892 00a1 0100     		.2byte	0x1
 4893 00a3 53       		.byte	0x53
 4894 00a4 20000000 		.4byte	.LVL11
 4895 00a8 22000000 		.4byte	.LVL12
 4896 00ac 0800     		.2byte	0x8
 4897 00ae 74       		.byte	0x74
 4898 00af 00       		.sleb128 0
 4899 00b0 03       		.byte	0x3
 4900 00b1 00010000 		.4byte	.LANCHOR1
 4901 00b5 22       		.byte	0x22
 4902 00b6 22000000 		.4byte	.LVL12
 4903 00ba 34000000 		.4byte	.LFE33
 4904 00be 0100     		.2byte	0x1
 4905 00c0 53       		.byte	0x53
 4906 00c1 00000000 		.4byte	0
 4907 00c5 00000000 		.4byte	0
 4908              	.LLST4:
 4909 00c9 16000000 		.4byte	.LVL7
 4910 00cd 22000000 		.4byte	.LVL12
 4911 00d1 0100     		.2byte	0x1
 4912 00d3 54       		.byte	0x54
 4913 00d4 00000000 		.4byte	0
 4914 00d8 00000000 		.4byte	0
 4915              	.LLST5:
 4916 00dc 00000000 		.4byte	.LVL16
 4917 00e0 04000000 		.4byte	.LVL17
 4918 00e4 0100     		.2byte	0x1
 4919 00e6 51       		.byte	0x51
 4920 00e7 04000000 		.4byte	.LVL17
 4921 00eb 20000000 		.4byte	.LFE36
 4922 00ef 0400     		.2byte	0x4
 4923 00f1 F3       		.byte	0xf3
 4924 00f2 01       		.uleb128 0x1
 4925 00f3 51       		.byte	0x51
 4926 00f4 9F       		.byte	0x9f
 4927 00f5 00000000 		.4byte	0
 4928 00f9 00000000 		.4byte	0
ARM GAS  C:\Users\ZHANGM~1\AppData\Local\Temp\ccse5bds.s 			page 114


 4929              	.LLST6:
 4930 00fd 00000000 		.4byte	.LVL18
 4931 0101 10000000 		.4byte	.LVL22
 4932 0105 0100     		.2byte	0x1
 4933 0107 50       		.byte	0x50
 4934 0108 10000000 		.4byte	.LVL22
 4935 010c 14000000 		.4byte	.LVL24
 4936 0110 0300     		.2byte	0x3
 4937 0112 70       		.byte	0x70
 4938 0113 7F       		.sleb128 -1
 4939 0114 9F       		.byte	0x9f
 4940 0115 14000000 		.4byte	.LVL24
 4941 0119 1A000000 		.4byte	.LVL26
 4942 011d 0100     		.2byte	0x1
 4943 011f 50       		.byte	0x50
 4944 0120 00000000 		.4byte	0
 4945 0124 00000000 		.4byte	0
 4946              	.LLST7:
 4947 0128 00000000 		.4byte	.LVL18
 4948 012c 02000000 		.4byte	.LVL19
 4949 0130 0100     		.2byte	0x1
 4950 0132 51       		.byte	0x51
 4951 0133 02000000 		.4byte	.LVL19
 4952 0137 04000000 		.4byte	.LVL20
 4953 013b 0100     		.2byte	0x1
 4954 013d 51       		.byte	0x51
 4955 013e 04000000 		.4byte	.LVL20
 4956 0142 08000000 		.4byte	.LVL21
 4957 0146 0300     		.2byte	0x3
 4958 0148 71       		.byte	0x71
 4959 0149 01       		.sleb128 1
 4960 014a 9F       		.byte	0x9f
 4961 014b 08000000 		.4byte	.LVL21
 4962 014f 20000000 		.4byte	.LFE37
 4963 0153 0100     		.2byte	0x1
 4964 0155 51       		.byte	0x51
 4965 0156 00000000 		.4byte	0
 4966 015a 00000000 		.4byte	0
 4967              	.LLST8:
 4968 015e 00000000 		.4byte	.LVL18
 4969 0162 02000000 		.4byte	.LVL19
 4970 0166 0200     		.2byte	0x2
 4971 0168 30       		.byte	0x30
 4972 0169 9F       		.byte	0x9f
 4973 016a 02000000 		.4byte	.LVL19
 4974 016e 12000000 		.4byte	.LVL23
 4975 0172 0100     		.2byte	0x1
 4976 0174 53       		.byte	0x53
 4977 0175 14000000 		.4byte	.LVL24
 4978 0179 18000000 		.4byte	.LVL25
 4979 017d 0100     		.2byte	0x1
 4980 017f 53       		.byte	0x53
 4981 0180 18000000 		.4byte	.LVL25
 4982 0184 20000000 		.4byte	.LFE37
 4983 0188 0400     		.2byte	0x4
 4984 018a 73       		.byte	0x73
 4985 018b 00       		.sleb128 0
ARM GAS  C:\Users\ZHANGM~1\AppData\Local\Temp\ccse5bds.s 			page 115


 4986 018c 1F       		.byte	0x1f
 4987 018d 9F       		.byte	0x9f
 4988 018e 00000000 		.4byte	0
 4989 0192 00000000 		.4byte	0
 4990              	.LLST9:
 4991 0196 00000000 		.4byte	.LVL27
 4992 019a 0C000000 		.4byte	.LVL28
 4993 019e 0100     		.2byte	0x1
 4994 01a0 50       		.byte	0x50
 4995 01a1 0C000000 		.4byte	.LVL28
 4996 01a5 A4000000 		.4byte	.LFE38
 4997 01a9 0400     		.2byte	0x4
 4998 01ab F3       		.byte	0xf3
 4999 01ac 01       		.uleb128 0x1
 5000 01ad 50       		.byte	0x50
 5001 01ae 9F       		.byte	0x9f
 5002 01af 00000000 		.4byte	0
 5003 01b3 00000000 		.4byte	0
 5004              	.LLST10:
 5005 01b7 00000000 		.4byte	.LVL27
 5006 01bb 0E000000 		.4byte	.LVL29
 5007 01bf 0100     		.2byte	0x1
 5008 01c1 51       		.byte	0x51
 5009 01c2 0E000000 		.4byte	.LVL29
 5010 01c6 A4000000 		.4byte	.LFE38
 5011 01ca 0400     		.2byte	0x4
 5012 01cc F3       		.byte	0xf3
 5013 01cd 01       		.uleb128 0x1
 5014 01ce 51       		.byte	0x51
 5015 01cf 9F       		.byte	0x9f
 5016 01d0 00000000 		.4byte	0
 5017 01d4 00000000 		.4byte	0
 5018              	.LLST11:
 5019 01d8 00000000 		.4byte	.LVL27
 5020 01dc 10000000 		.4byte	.LVL30
 5021 01e0 0100     		.2byte	0x1
 5022 01e2 52       		.byte	0x52
 5023 01e3 10000000 		.4byte	.LVL30
 5024 01e7 A4000000 		.4byte	.LFE38
 5025 01eb 0200     		.2byte	0x2
 5026 01ed 7D       		.byte	0x7d
 5027 01ee 04       		.sleb128 4
 5028 01ef 00000000 		.4byte	0
 5029 01f3 00000000 		.4byte	0
 5030              	.LLST12:
 5031 01f7 00000000 		.4byte	.LVL27
 5032 01fb 15000000 		.4byte	.LVL31-1
 5033 01ff 0100     		.2byte	0x1
 5034 0201 53       		.byte	0x53
 5035 0202 15000000 		.4byte	.LVL31-1
 5036 0206 A4000000 		.4byte	.LFE38
 5037 020a 0400     		.2byte	0x4
 5038 020c F3       		.byte	0xf3
 5039 020d 01       		.uleb128 0x1
 5040 020e 53       		.byte	0x53
 5041 020f 9F       		.byte	0x9f
 5042 0210 00000000 		.4byte	0
ARM GAS  C:\Users\ZHANGM~1\AppData\Local\Temp\ccse5bds.s 			page 116


 5043 0214 00000000 		.4byte	0
 5044              	.LLST13:
 5045 0218 5E000000 		.4byte	.LVL33
 5046 021c 68000000 		.4byte	.LVL34
 5047 0220 0100     		.2byte	0x1
 5048 0222 50       		.byte	0x50
 5049 0223 6E000000 		.4byte	.LVL35
 5050 0227 74000000 		.4byte	.LVL36
 5051 022b 0100     		.2byte	0x1
 5052 022d 50       		.byte	0x50
 5053 022e 00000000 		.4byte	0
 5054 0232 00000000 		.4byte	0
 5055              	.LLST14:
 5056 0236 00000000 		.4byte	.LVL38
 5057 023a 08000000 		.4byte	.LVL39
 5058 023e 0100     		.2byte	0x1
 5059 0240 50       		.byte	0x50
 5060 0241 08000000 		.4byte	.LVL39
 5061 0245 20010000 		.4byte	.LFE39
 5062 0249 0400     		.2byte	0x4
 5063 024b F3       		.byte	0xf3
 5064 024c 01       		.uleb128 0x1
 5065 024d 50       		.byte	0x50
 5066 024e 9F       		.byte	0x9f
 5067 024f 00000000 		.4byte	0
 5068 0253 00000000 		.4byte	0
 5069              	.LLST15:
 5070 0257 08000000 		.4byte	.LVL40
 5071 025b 10000000 		.4byte	.LVL41
 5072 025f 0100     		.2byte	0x1
 5073 0261 53       		.byte	0x53
 5074 0262 00000000 		.4byte	0
 5075 0266 00000000 		.4byte	0
 5076              	.LLST16:
 5077 026a 00000000 		.4byte	.LVL46
 5078 026e 0E000000 		.4byte	.LVL47
 5079 0272 0100     		.2byte	0x1
 5080 0274 50       		.byte	0x50
 5081 0275 0E000000 		.4byte	.LVL47
 5082 0279 24000000 		.4byte	.LVL54
 5083 027d 0100     		.2byte	0x1
 5084 027f 55       		.byte	0x55
 5085 0280 24000000 		.4byte	.LVL54
 5086 0284 26000000 		.4byte	.LFE41
 5087 0288 0400     		.2byte	0x4
 5088 028a F3       		.byte	0xf3
 5089 028b 01       		.uleb128 0x1
 5090 028c 50       		.byte	0x50
 5091 028d 9F       		.byte	0x9f
 5092 028e 00000000 		.4byte	0
 5093 0292 00000000 		.4byte	0
 5094              	.LLST17:
 5095 0296 00000000 		.4byte	.LVL46
 5096 029a 11000000 		.4byte	.LVL48-1
 5097 029e 0100     		.2byte	0x1
 5098 02a0 51       		.byte	0x51
 5099 02a1 11000000 		.4byte	.LVL48-1
ARM GAS  C:\Users\ZHANGM~1\AppData\Local\Temp\ccse5bds.s 			page 117


 5100 02a5 24000000 		.4byte	.LVL55
 5101 02a9 0100     		.2byte	0x1
 5102 02ab 56       		.byte	0x56
 5103 02ac 24000000 		.4byte	.LVL55
 5104 02b0 26000000 		.4byte	.LFE41
 5105 02b4 0400     		.2byte	0x4
 5106 02b6 F3       		.byte	0xf3
 5107 02b7 01       		.uleb128 0x1
 5108 02b8 51       		.byte	0x51
 5109 02b9 9F       		.byte	0x9f
 5110 02ba 00000000 		.4byte	0
 5111 02be 00000000 		.4byte	0
 5112              	.LLST18:
 5113 02c2 00000000 		.4byte	.LVL46
 5114 02c6 11000000 		.4byte	.LVL48-1
 5115 02ca 0100     		.2byte	0x1
 5116 02cc 52       		.byte	0x52
 5117 02cd 11000000 		.4byte	.LVL48-1
 5118 02d1 24000000 		.4byte	.LVL53
 5119 02d5 0100     		.2byte	0x1
 5120 02d7 54       		.byte	0x54
 5121 02d8 00000000 		.4byte	0
 5122 02dc 00000000 		.4byte	0
 5123              	.LLST19:
 5124 02e0 00000000 		.4byte	.LVL46
 5125 02e4 14000000 		.4byte	.LVL49
 5126 02e8 0200     		.2byte	0x2
 5127 02ea 30       		.byte	0x30
 5128 02eb 9F       		.byte	0x9f
 5129 02ec 14000000 		.4byte	.LVL49
 5130 02f0 22000000 		.4byte	.LVL51
 5131 02f4 0100     		.2byte	0x1
 5132 02f6 50       		.byte	0x50
 5133 02f7 22000000 		.4byte	.LVL51
 5134 02fb 24000000 		.4byte	.LVL52
 5135 02ff 0100     		.2byte	0x1
 5136 0301 53       		.byte	0x53
 5137 0302 24000000 		.4byte	.LVL52
 5138 0306 26000000 		.4byte	.LFE41
 5139 030a 0100     		.2byte	0x1
 5140 030c 50       		.byte	0x50
 5141 030d 00000000 		.4byte	0
 5142 0311 00000000 		.4byte	0
 5143              	.LLST20:
 5144 0315 00000000 		.4byte	.LVL56
 5145 0319 1E000000 		.4byte	.LVL62
 5146 031d 0100     		.2byte	0x1
 5147 031f 50       		.byte	0x50
 5148 0320 1E000000 		.4byte	.LVL62
 5149 0324 2C000000 		.4byte	.LFE50
 5150 0328 0400     		.2byte	0x4
 5151 032a F3       		.byte	0xf3
 5152 032b 01       		.uleb128 0x1
 5153 032c 50       		.byte	0x50
 5154 032d 9F       		.byte	0x9f
 5155 032e 00000000 		.4byte	0
 5156 0332 00000000 		.4byte	0
ARM GAS  C:\Users\ZHANGM~1\AppData\Local\Temp\ccse5bds.s 			page 118


 5157              	.LLST21:
 5158 0336 00000000 		.4byte	.LVL56
 5159 033a 24000000 		.4byte	.LVL63
 5160 033e 0100     		.2byte	0x1
 5161 0340 51       		.byte	0x51
 5162 0341 24000000 		.4byte	.LVL63
 5163 0345 27000000 		.4byte	.LVL64-1
 5164 0349 0900     		.2byte	0x9
 5165 034b F3       		.byte	0xf3
 5166 034c 01       		.uleb128 0x1
 5167 034d 50       		.byte	0x50
 5168 034e 73       		.byte	0x73
 5169 034f 00       		.sleb128 0
 5170 0350 1A       		.byte	0x1a
 5171 0351 71       		.byte	0x71
 5172 0352 00       		.sleb128 0
 5173 0353 22       		.byte	0x22
 5174 0354 27000000 		.4byte	.LVL64-1
 5175 0358 2C000000 		.4byte	.LFE50
 5176 035c 0400     		.2byte	0x4
 5177 035e F3       		.byte	0xf3
 5178 035f 01       		.uleb128 0x1
 5179 0360 51       		.byte	0x51
 5180 0361 9F       		.byte	0x9f
 5181 0362 00000000 		.4byte	0
 5182 0366 00000000 		.4byte	0
 5183              	.LLST23:
 5184 036a 0C000000 		.4byte	.LVL57
 5185 036e 27000000 		.4byte	.LVL64-1
 5186 0372 0100     		.2byte	0x1
 5187 0374 52       		.byte	0x52
 5188 0375 27000000 		.4byte	.LVL64-1
 5189 0379 2C000000 		.4byte	.LFE50
 5190 037d 0600     		.2byte	0x6
 5191 037f F3       		.byte	0xf3
 5192 0380 01       		.uleb128 0x1
 5193 0381 50       		.byte	0x50
 5194 0382 37       		.byte	0x37
 5195 0383 25       		.byte	0x25
 5196 0384 9F       		.byte	0x9f
 5197 0385 00000000 		.4byte	0
 5198 0389 00000000 		.4byte	0
 5199              	.LLST24:
 5200 038d 0C000000 		.4byte	.LVL57
 5201 0391 2A000000 		.4byte	.LVL65
 5202 0395 0100     		.2byte	0x1
 5203 0397 55       		.byte	0x55
 5204 0398 2A000000 		.4byte	.LVL65
 5205 039c 2C000000 		.4byte	.LFE50
 5206 03a0 0700     		.2byte	0x7
 5207 03a2 F3       		.byte	0xf3
 5208 03a3 01       		.uleb128 0x1
 5209 03a4 50       		.byte	0x50
 5210 03a5 09       		.byte	0x9
 5211 03a6 80       		.byte	0x80
 5212 03a7 1A       		.byte	0x1a
 5213 03a8 9F       		.byte	0x9f
ARM GAS  C:\Users\ZHANGM~1\AppData\Local\Temp\ccse5bds.s 			page 119


 5214 03a9 00000000 		.4byte	0
 5215 03ad 00000000 		.4byte	0
 5216              	.LLST25:
 5217 03b1 0C000000 		.4byte	.LVL57
 5218 03b5 0E000000 		.4byte	.LVL58
 5219 03b9 0200     		.2byte	0x2
 5220 03bb 30       		.byte	0x30
 5221 03bc 9F       		.byte	0x9f
 5222 03bd 0E000000 		.4byte	.LVL58
 5223 03c1 14000000 		.4byte	.LVL59
 5224 03c5 0100     		.2byte	0x1
 5225 03c7 53       		.byte	0x53
 5226 03c8 14000000 		.4byte	.LVL59
 5227 03cc 16000000 		.4byte	.LVL60
 5228 03d0 0300     		.2byte	0x3
 5229 03d2 73       		.byte	0x73
 5230 03d3 01       		.sleb128 1
 5231 03d4 9F       		.byte	0x9f
 5232 03d5 16000000 		.4byte	.LVL60
 5233 03d9 1C000000 		.4byte	.LVL61
 5234 03dd 0300     		.2byte	0x3
 5235 03df 73       		.byte	0x73
 5236 03e0 00       		.sleb128 0
 5237 03e1 9F       		.byte	0x9f
 5238 03e2 00000000 		.4byte	0
 5239 03e6 00000000 		.4byte	0
 5240              	.LLST26:
 5241 03ea 00000000 		.4byte	.LVL66
 5242 03ee 02000000 		.4byte	.LVL67
 5243 03f2 0100     		.2byte	0x1
 5244 03f4 50       		.byte	0x50
 5245 03f5 02000000 		.4byte	.LVL67
 5246 03f9 98000000 		.4byte	.LFE51
 5247 03fd 0400     		.2byte	0x4
 5248 03ff F3       		.byte	0xf3
 5249 0400 01       		.uleb128 0x1
 5250 0401 50       		.byte	0x50
 5251 0402 9F       		.byte	0x9f
 5252 0403 00000000 		.4byte	0
 5253 0407 00000000 		.4byte	0
 5254              	.LLST27:
 5255 040b 00000000 		.4byte	.LVL66
 5256 040f 0A000000 		.4byte	.LVL68
 5257 0413 0100     		.2byte	0x1
 5258 0415 51       		.byte	0x51
 5259 0416 0A000000 		.4byte	.LVL68
 5260 041a 5E000000 		.4byte	.LVL79
 5261 041e 0400     		.2byte	0x4
 5262 0420 F3       		.byte	0xf3
 5263 0421 01       		.uleb128 0x1
 5264 0422 51       		.byte	0x51
 5265 0423 9F       		.byte	0x9f
 5266 0424 5E000000 		.4byte	.LVL79
 5267 0428 63000000 		.4byte	.LVL80-1
 5268 042c 0100     		.2byte	0x1
 5269 042e 51       		.byte	0x51
 5270 042f 63000000 		.4byte	.LVL80-1
ARM GAS  C:\Users\ZHANGM~1\AppData\Local\Temp\ccse5bds.s 			page 120


 5271 0433 98000000 		.4byte	.LFE51
 5272 0437 0400     		.2byte	0x4
 5273 0439 F3       		.byte	0xf3
 5274 043a 01       		.uleb128 0x1
 5275 043b 51       		.byte	0x51
 5276 043c 9F       		.byte	0x9f
 5277 043d 00000000 		.4byte	0
 5278 0441 00000000 		.4byte	0
 5279              	.LLST28:
 5280 0445 32000000 		.4byte	.LVL69
 5281 0449 38000000 		.4byte	.LVL71
 5282 044d 0100     		.2byte	0x1
 5283 044f 51       		.byte	0x51
 5284 0450 44000000 		.4byte	.LVL72
 5285 0454 46000000 		.4byte	.LVL73
 5286 0458 0100     		.2byte	0x1
 5287 045a 51       		.byte	0x51
 5288 045b 4A000000 		.4byte	.LVL74
 5289 045f 5E000000 		.4byte	.LVL79
 5290 0463 0100     		.2byte	0x1
 5291 0465 51       		.byte	0x51
 5292 0466 64000000 		.4byte	.LVL80
 5293 046a 66000000 		.4byte	.LVL81
 5294 046e 0200     		.2byte	0x2
 5295 0470 30       		.byte	0x30
 5296 0471 9F       		.byte	0x9f
 5297 0472 66000000 		.4byte	.LVL81
 5298 0476 98000000 		.4byte	.LFE51
 5299 047a 0100     		.2byte	0x1
 5300 047c 51       		.byte	0x51
 5301 047d 00000000 		.4byte	0
 5302 0481 00000000 		.4byte	0
 5303              	.LLST29:
 5304 0485 00000000 		.4byte	.LVL66
 5305 0489 32000000 		.4byte	.LVL69
 5306 048d 0200     		.2byte	0x2
 5307 048f 32       		.byte	0x32
 5308 0490 9F       		.byte	0x9f
 5309 0491 32000000 		.4byte	.LVL69
 5310 0495 38000000 		.4byte	.LVL71
 5311 0499 0200     		.2byte	0x2
 5312 049b 31       		.byte	0x31
 5313 049c 9F       		.byte	0x9f
 5314 049d 38000000 		.4byte	.LVL71
 5315 04a1 4A000000 		.4byte	.LVL74
 5316 04a5 0200     		.2byte	0x2
 5317 04a7 32       		.byte	0x32
 5318 04a8 9F       		.byte	0x9f
 5319 04a9 4A000000 		.4byte	.LVL74
 5320 04ad 5E000000 		.4byte	.LVL79
 5321 04b1 0200     		.2byte	0x2
 5322 04b3 34       		.byte	0x34
 5323 04b4 9F       		.byte	0x9f
 5324 04b5 5E000000 		.4byte	.LVL79
 5325 04b9 6C000000 		.4byte	.LVL83
 5326 04bd 0200     		.2byte	0x2
 5327 04bf 32       		.byte	0x32
ARM GAS  C:\Users\ZHANGM~1\AppData\Local\Temp\ccse5bds.s 			page 121


 5328 04c0 9F       		.byte	0x9f
 5329 04c1 00000000 		.4byte	0
 5330 04c5 00000000 		.4byte	0
 5331              	.LLST30:
 5332 04c9 00000000 		.4byte	.LVL66
 5333 04cd 36000000 		.4byte	.LVL70
 5334 04d1 0200     		.2byte	0x2
 5335 04d3 30       		.byte	0x30
 5336 04d4 9F       		.byte	0x9f
 5337 04d5 36000000 		.4byte	.LVL70
 5338 04d9 38000000 		.4byte	.LVL71
 5339 04dd 0100     		.2byte	0x1
 5340 04df 50       		.byte	0x50
 5341 04e0 38000000 		.4byte	.LVL71
 5342 04e4 4C000000 		.4byte	.LVL75
 5343 04e8 0200     		.2byte	0x2
 5344 04ea 30       		.byte	0x30
 5345 04eb 9F       		.byte	0x9f
 5346 04ec 4C000000 		.4byte	.LVL75
 5347 04f0 4E000000 		.4byte	.LVL76
 5348 04f4 0100     		.2byte	0x1
 5349 04f6 53       		.byte	0x53
 5350 04f7 4E000000 		.4byte	.LVL76
 5351 04fb 52000000 		.4byte	.LVL77
 5352 04ff 0B00     		.2byte	0xb
 5353 0501 70       		.byte	0x70
 5354 0502 00       		.sleb128 0
 5355 0503 08       		.byte	0x8
 5356 0504 FF       		.byte	0xff
 5357 0505 1A       		.byte	0x1a
 5358 0506 38       		.byte	0x38
 5359 0507 24       		.byte	0x24
 5360 0508 73       		.byte	0x73
 5361 0509 00       		.sleb128 0
 5362 050a 21       		.byte	0x21
 5363 050b 9F       		.byte	0x9f
 5364 050c 58000000 		.4byte	.LVL78
 5365 0510 5E000000 		.4byte	.LVL79
 5366 0514 0100     		.2byte	0x1
 5367 0516 50       		.byte	0x50
 5368 0517 5E000000 		.4byte	.LVL79
 5369 051b 68000000 		.4byte	.LVL82
 5370 051f 0200     		.2byte	0x2
 5371 0521 30       		.byte	0x30
 5372 0522 9F       		.byte	0x9f
 5373 0523 68000000 		.4byte	.LVL82
 5374 0527 6C000000 		.4byte	.LVL83
 5375 052b 0100     		.2byte	0x1
 5376 052d 53       		.byte	0x53
 5377 052e 6E000000 		.4byte	.LVL84
 5378 0532 98000000 		.4byte	.LFE51
 5379 0536 0100     		.2byte	0x1
 5380 0538 50       		.byte	0x50
 5381 0539 00000000 		.4byte	0
 5382 053d 00000000 		.4byte	0
 5383              	.LLST31:
 5384 0541 00000000 		.4byte	.LVL88
ARM GAS  C:\Users\ZHANGM~1\AppData\Local\Temp\ccse5bds.s 			page 122


 5385 0545 08000000 		.4byte	.LVL89
 5386 0549 0100     		.2byte	0x1
 5387 054b 50       		.byte	0x50
 5388 054c 08000000 		.4byte	.LVL89
 5389 0550 62000000 		.4byte	.LFE47
 5390 0554 0400     		.2byte	0x4
 5391 0556 F3       		.byte	0xf3
 5392 0557 01       		.uleb128 0x1
 5393 0558 50       		.byte	0x50
 5394 0559 9F       		.byte	0x9f
 5395 055a 00000000 		.4byte	0
 5396 055e 00000000 		.4byte	0
 5397              	.LLST32:
 5398 0562 2A000000 		.4byte	.LVL94
 5399 0566 46000000 		.4byte	.LVL102
 5400 056a 0100     		.2byte	0x1
 5401 056c 50       		.byte	0x50
 5402 056d 00000000 		.4byte	0
 5403 0571 00000000 		.4byte	0
 5404              	.LLST33:
 5405 0575 1C000000 		.4byte	.LVL92
 5406 0579 60000000 		.4byte	.LVL107
 5407 057d 0100     		.2byte	0x1
 5408 057f 57       		.byte	0x57
 5409 0580 00000000 		.4byte	0
 5410 0584 00000000 		.4byte	0
 5411              	.LLST34:
 5412 0588 1C000000 		.4byte	.LVL92
 5413 058c 2C000000 		.4byte	.LVL95
 5414 0590 0200     		.2byte	0x2
 5415 0592 30       		.byte	0x30
 5416 0593 9F       		.byte	0x9f
 5417 0594 2C000000 		.4byte	.LVL95
 5418 0598 5A000000 		.4byte	.LVL106
 5419 059c 0100     		.2byte	0x1
 5420 059e 56       		.byte	0x56
 5421 059f 00000000 		.4byte	0
 5422 05a3 00000000 		.4byte	0
 5423              	.LLST35:
 5424 05a7 1C000000 		.4byte	.LVL92
 5425 05ab 2C000000 		.4byte	.LVL95
 5426 05af 0200     		.2byte	0x2
 5427 05b1 30       		.byte	0x30
 5428 05b2 9F       		.byte	0x9f
 5429 05b3 2C000000 		.4byte	.LVL95
 5430 05b7 3E000000 		.4byte	.LVL98
 5431 05bb 0100     		.2byte	0x1
 5432 05bd 54       		.byte	0x54
 5433 05be 40000000 		.4byte	.LVL99
 5434 05c2 44000000 		.4byte	.LVL101
 5435 05c6 0100     		.2byte	0x1
 5436 05c8 54       		.byte	0x54
 5437 05c9 44000000 		.4byte	.LVL101
 5438 05cd 4E000000 		.4byte	.LVL104
 5439 05d1 0400     		.2byte	0x4
 5440 05d3 74       		.byte	0x74
 5441 05d4 00       		.sleb128 0
ARM GAS  C:\Users\ZHANGM~1\AppData\Local\Temp\ccse5bds.s 			page 123


 5442 05d5 1F       		.byte	0x1f
 5443 05d6 9F       		.byte	0x9f
 5444 05d7 4E000000 		.4byte	.LVL104
 5445 05db 50000000 		.4byte	.LVL105
 5446 05df 0500     		.2byte	0x5
 5447 05e1 74       		.byte	0x74
 5448 05e2 00       		.sleb128 0
 5449 05e3 1F       		.byte	0x1f
 5450 05e4 1F       		.byte	0x1f
 5451 05e5 9F       		.byte	0x9f
 5452 05e6 00000000 		.4byte	0
 5453 05ea 00000000 		.4byte	0
 5454              	.LLST36:
 5455 05ee 32000000 		.4byte	.LVL96
 5456 05f2 42000000 		.4byte	.LVL100
 5457 05f6 0200     		.2byte	0x2
 5458 05f8 70       		.byte	0x70
 5459 05f9 00       		.sleb128 0
 5460 05fa 42000000 		.4byte	.LVL100
 5461 05fe 44000000 		.4byte	.LVL101
 5462 0602 0200     		.2byte	0x2
 5463 0604 70       		.byte	0x70
 5464 0605 7F       		.sleb128 -1
 5465 0606 00000000 		.4byte	0
 5466 060a 00000000 		.4byte	0
 5467              	.LLST37:
 5468 060e 32010000 		.4byte	.LVL145
 5469 0612 4C010000 		.4byte	.LVL148
 5470 0616 0200     		.2byte	0x2
 5471 0618 3A       		.byte	0x3a
 5472 0619 9F       		.byte	0x9f
 5473 061a 56010000 		.4byte	.LVL149
 5474 061e B0010000 		.4byte	.LFE49
 5475 0622 0200     		.2byte	0x2
 5476 0624 3A       		.byte	0x3a
 5477 0625 9F       		.byte	0x9f
 5478 0626 00000000 		.4byte	0
 5479 062a 00000000 		.4byte	0
 5480              	.LLST38:
 5481 062e CA000000 		.4byte	.LVL132
 5482 0632 D6000000 		.4byte	.LVL133
 5483 0636 0E00     		.2byte	0xe
 5484 0638 71       		.byte	0x71
 5485 0639 00       		.sleb128 0
 5486 063a 03       		.byte	0x3
 5487 063b 0A000000 		.4byte	ATReceBuffer+10
 5488 063f 22       		.byte	0x22
 5489 0640 94       		.byte	0x94
 5490 0641 01       		.byte	0x1
 5491 0642 08       		.byte	0x8
 5492 0643 FF       		.byte	0xff
 5493 0644 1A       		.byte	0x1a
 5494 0645 9F       		.byte	0x9f
 5495 0646 D6000000 		.4byte	.LVL133
 5496 064a DA000000 		.4byte	.LVL134
 5497 064e 0E00     		.2byte	0xe
 5498 0650 71       		.byte	0x71
ARM GAS  C:\Users\ZHANGM~1\AppData\Local\Temp\ccse5bds.s 			page 124


 5499 0651 00       		.sleb128 0
 5500 0652 03       		.byte	0x3
 5501 0653 00000000 		.4byte	ATReceBuffer
 5502 0657 22       		.byte	0x22
 5503 0658 94       		.byte	0x94
 5504 0659 01       		.byte	0x1
 5505 065a 08       		.byte	0x8
 5506 065b FF       		.byte	0xff
 5507 065c 1A       		.byte	0x1a
 5508 065d 9F       		.byte	0x9f
 5509 065e DA000000 		.4byte	.LVL134
 5510 0662 E4000000 		.4byte	.LVL136
 5511 0666 0100     		.2byte	0x1
 5512 0668 56       		.byte	0x56
 5513 0669 00000000 		.4byte	0
 5514 066d 00000000 		.4byte	0
 5515              	.LLST39:
 5516 0671 F2000000 		.4byte	.LVL140
 5517 0675 F8000000 		.4byte	.LVL141
 5518 0679 0B00     		.2byte	0xb
 5519 067b 03       		.byte	0x3
 5520 067c 06000000 		.4byte	ATReceBuffer+6
 5521 0680 94       		.byte	0x94
 5522 0681 01       		.byte	0x1
 5523 0682 08       		.byte	0x8
 5524 0683 FF       		.byte	0xff
 5525 0684 1A       		.byte	0x1a
 5526 0685 9F       		.byte	0x9f
 5527 0686 F8000000 		.4byte	.LVL141
 5528 068a FA000000 		.4byte	.LVL142
 5529 068e 0E00     		.2byte	0xe
 5530 0690 03       		.byte	0x3
 5531 0691 07000000 		.4byte	ATReceBuffer+7
 5532 0695 94       		.byte	0x94
 5533 0696 01       		.byte	0x1
 5534 0697 08       		.byte	0x8
 5535 0698 FF       		.byte	0xff
 5536 0699 1A       		.byte	0x1a
 5537 069a 77       		.byte	0x77
 5538 069b 00       		.sleb128 0
 5539 069c 22       		.byte	0x22
 5540 069d 9F       		.byte	0x9f
 5541 069e FA000000 		.4byte	.LVL142
 5542 06a2 1D010000 		.4byte	.LVL143-1
 5543 06a6 1500     		.2byte	0x15
 5544 06a8 03       		.byte	0x3
 5545 06a9 07000000 		.4byte	ATReceBuffer+7
 5546 06ad 94       		.byte	0x94
 5547 06ae 01       		.byte	0x1
 5548 06af 08       		.byte	0x8
 5549 06b0 FF       		.byte	0xff
 5550 06b1 1A       		.byte	0x1a
 5551 06b2 75       		.byte	0x75
 5552 06b3 06       		.sleb128 6
 5553 06b4 94       		.byte	0x94
 5554 06b5 01       		.byte	0x1
 5555 06b6 08       		.byte	0x8
ARM GAS  C:\Users\ZHANGM~1\AppData\Local\Temp\ccse5bds.s 			page 125


 5556 06b7 FF       		.byte	0xff
 5557 06b8 1A       		.byte	0x1a
 5558 06b9 38       		.byte	0x38
 5559 06ba 24       		.byte	0x24
 5560 06bb 22       		.byte	0x22
 5561 06bc 9F       		.byte	0x9f
 5562 06bd 00000000 		.4byte	0
 5563 06c1 00000000 		.4byte	0
 5564              	.LLST40:
 5565 06c5 2A010000 		.4byte	.LVL144
 5566 06c9 4C010000 		.4byte	.LVL148
 5567 06cd 0300     		.2byte	0x3
 5568 06cf 08       		.byte	0x8
 5569 06d0 FF       		.byte	0xff
 5570 06d1 9F       		.byte	0x9f
 5571 06d2 4C010000 		.4byte	.LVL148
 5572 06d6 B0010000 		.4byte	.LFE49
 5573 06da 0800     		.2byte	0x8
 5574 06dc 76       		.byte	0x76
 5575 06dd 00       		.sleb128 0
 5576 06de 08       		.byte	0x8
 5577 06df FF       		.byte	0xff
 5578 06e0 1A       		.byte	0x1a
 5579 06e1 23       		.byte	0x23
 5580 06e2 21       		.uleb128 0x21
 5581 06e3 9F       		.byte	0x9f
 5582 06e4 00000000 		.4byte	0
 5583 06e8 00000000 		.4byte	0
 5584              	.LLST41:
 5585 06ec EA000000 		.4byte	.LVL138
 5586 06f0 1D010000 		.4byte	.LVL143-1
 5587 06f4 0200     		.2byte	0x2
 5588 06f6 75       		.byte	0x75
 5589 06f7 04       		.sleb128 4
 5590 06f8 1D010000 		.4byte	.LVL143-1
 5591 06fc 34010000 		.4byte	.LVL146
 5592 0700 0100     		.2byte	0x1
 5593 0702 56       		.byte	0x56
 5594 0703 4C010000 		.4byte	.LVL148
 5595 0707 B0010000 		.4byte	.LFE49
 5596 070b 0100     		.2byte	0x1
 5597 070d 56       		.byte	0x56
 5598 070e 00000000 		.4byte	0
 5599 0712 00000000 		.4byte	0
 5600              	.LLST42:
 5601 0716 DE000000 		.4byte	.LVL135
 5602 071a EC000000 		.4byte	.LVL139
 5603 071e 0100     		.2byte	0x1
 5604 0720 50       		.byte	0x50
 5605 0721 00000000 		.4byte	0
 5606 0725 00000000 		.4byte	0
 5607              	.LLST43:
 5608 0729 00000000 		.4byte	.LVL108
 5609 072d 30000000 		.4byte	.LVL117
 5610 0731 0200     		.2byte	0x2
 5611 0733 30       		.byte	0x30
 5612 0734 9F       		.byte	0x9f
ARM GAS  C:\Users\ZHANGM~1\AppData\Local\Temp\ccse5bds.s 			page 126


 5613 0735 30000000 		.4byte	.LVL117
 5614 0739 48000000 		.4byte	.LVL120
 5615 073d 0300     		.2byte	0x3
 5616 073f 91       		.byte	0x91
 5617 0740 A47D     		.sleb128 -348
 5618 0742 48000000 		.4byte	.LVL120
 5619 0746 4A000000 		.4byte	.LVL121
 5620 074a 0100     		.2byte	0x1
 5621 074c 56       		.byte	0x56
 5622 074d 4A000000 		.4byte	.LVL121
 5623 0751 A0000000 		.4byte	.LVL130
 5624 0755 0300     		.2byte	0x3
 5625 0757 91       		.byte	0x91
 5626 0758 A47D     		.sleb128 -348
 5627 075a A0000000 		.4byte	.LVL130
 5628 075e A6000000 		.4byte	.LVL131
 5629 0762 0600     		.2byte	0x6
 5630 0764 0C       		.byte	0xc
 5631 0765 A0860100 		.4byte	0x186a0
 5632 0769 9F       		.byte	0x9f
 5633 076a A6000000 		.4byte	.LVL131
 5634 076e B0010000 		.4byte	.LFE49
 5635 0772 0300     		.2byte	0x3
 5636 0774 91       		.byte	0x91
 5637 0775 A47D     		.sleb128 -348
 5638 0777 00000000 		.4byte	0
 5639 077b 00000000 		.4byte	0
 5640              	.LLST44:
 5641 077f 30000000 		.4byte	.LVL117
 5642 0783 5C000000 		.4byte	.LVL123
 5643 0787 0300     		.2byte	0x3
 5644 0789 91       		.byte	0x91
 5645 078a A87D     		.sleb128 -344
 5646 078c 5C000000 		.4byte	.LVL123
 5647 0790 62000000 		.4byte	.LVL124
 5648 0794 0100     		.2byte	0x1
 5649 0796 56       		.byte	0x56
 5650 0797 62000000 		.4byte	.LVL124
 5651 079b 80000000 		.4byte	.LVL128
 5652 079f 0300     		.2byte	0x3
 5653 07a1 91       		.byte	0x91
 5654 07a2 A87D     		.sleb128 -344
 5655 07a4 00000000 		.4byte	0
 5656 07a8 00000000 		.4byte	0
 5657              	.LLST45:
 5658 07ac 2A000000 		.4byte	.LVL115
 5659 07b0 30000000 		.4byte	.LVL117
 5660 07b4 0200     		.2byte	0x2
 5661 07b6 30       		.byte	0x30
 5662 07b7 9F       		.byte	0x9f
 5663 07b8 30000000 		.4byte	.LVL117
 5664 07bc 8C000000 		.4byte	.LVL129
 5665 07c0 0100     		.2byte	0x1
 5666 07c2 54       		.byte	0x54
 5667 07c3 8C000000 		.4byte	.LVL129
 5668 07c7 A6000000 		.4byte	.LVL131
 5669 07cb 0200     		.2byte	0x2
ARM GAS  C:\Users\ZHANGM~1\AppData\Local\Temp\ccse5bds.s 			page 127


 5670 07cd 31       		.byte	0x31
 5671 07ce 9F       		.byte	0x9f
 5672 07cf A6000000 		.4byte	.LVL131
 5673 07d3 B0010000 		.4byte	.LFE49
 5674 07d7 0100     		.2byte	0x1
 5675 07d9 54       		.byte	0x54
 5676 07da 00000000 		.4byte	0
 5677 07de 00000000 		.4byte	0
 5678              	.LLST46:
 5679 07e2 00000000 		.4byte	.LVL151
 5680 07e6 10000000 		.4byte	.LVL153
 5681 07ea 0200     		.2byte	0x2
 5682 07ec 36       		.byte	0x36
 5683 07ed 9F       		.byte	0x9f
 5684 07ee 10000000 		.4byte	.LVL153
 5685 07f2 25000000 		.4byte	.LVL154-1
 5686 07f6 0100     		.2byte	0x1
 5687 07f8 52       		.byte	0x52
 5688 07f9 26000000 		.4byte	.LVL154
 5689 07fd 28000000 		.4byte	.LVL155
 5690 0801 0100     		.2byte	0x1
 5691 0803 52       		.byte	0x52
 5692 0804 00000000 		.4byte	0
 5693 0808 00000000 		.4byte	0
 5694              	.LLST47:
 5695 080c 00000000 		.4byte	.LVL157
 5696 0810 0D000000 		.4byte	.LVL158-1
 5697 0814 0100     		.2byte	0x1
 5698 0816 50       		.byte	0x50
 5699 0817 0D000000 		.4byte	.LVL158-1
 5700 081b 34000000 		.4byte	.LFE44
 5701 081f 0400     		.2byte	0x4
 5702 0821 F3       		.byte	0xf3
 5703 0822 01       		.uleb128 0x1
 5704 0823 50       		.byte	0x50
 5705 0824 9F       		.byte	0x9f
 5706 0825 00000000 		.4byte	0
 5707 0829 00000000 		.4byte	0
 5708              	.LLST48:
 5709 082d 12000000 		.4byte	.LVL159
 5710 0831 1E000000 		.4byte	.LVL160
 5711 0835 0200     		.2byte	0x2
 5712 0837 30       		.byte	0x30
 5713 0838 9F       		.byte	0x9f
 5714 0839 1E000000 		.4byte	.LVL160
 5715 083d 22000000 		.4byte	.LVL161
 5716 0841 0200     		.2byte	0x2
 5717 0843 31       		.byte	0x31
 5718 0844 9F       		.byte	0x9f
 5719 0845 00000000 		.4byte	0
 5720 0849 00000000 		.4byte	0
 5721              		.section	.debug_aranges,"",%progbits
 5722 0000 A4000000 		.4byte	0xa4
 5723 0004 0200     		.2byte	0x2
 5724 0006 00000000 		.4byte	.Ldebug_info0
 5725 000a 04       		.byte	0x4
 5726 000b 00       		.byte	0
ARM GAS  C:\Users\ZHANGM~1\AppData\Local\Temp\ccse5bds.s 			page 128


 5727 000c 0000     		.2byte	0
 5728 000e 0000     		.2byte	0
 5729 0010 00000000 		.4byte	.LFB46
 5730 0014 02000000 		.4byte	.LFE46-.LFB46
 5731 0018 00000000 		.4byte	.LFB33
 5732 001c 34000000 		.4byte	.LFE33-.LFB33
 5733 0020 00000000 		.4byte	.LFB34
 5734 0024 1C000000 		.4byte	.LFE34-.LFB34
 5735 0028 00000000 		.4byte	.LFB35
 5736 002c 38000000 		.4byte	.LFE35-.LFB35
 5737 0030 00000000 		.4byte	.LFB36
 5738 0034 20000000 		.4byte	.LFE36-.LFB36
 5739 0038 00000000 		.4byte	.LFB37
 5740 003c 20000000 		.4byte	.LFE37-.LFB37
 5741 0040 00000000 		.4byte	.LFB38
 5742 0044 A4000000 		.4byte	.LFE38-.LFB38
 5743 0048 00000000 		.4byte	.LFB39
 5744 004c 20010000 		.4byte	.LFE39-.LFB39
 5745 0050 00000000 		.4byte	.LFB48
 5746 0054 2C000000 		.4byte	.LFE48-.LFB48
 5747 0058 00000000 		.4byte	.LFB40
 5748 005c 44000000 		.4byte	.LFE40-.LFB40
 5749 0060 00000000 		.4byte	.LFB41
 5750 0064 26000000 		.4byte	.LFE41-.LFB41
 5751 0068 00000000 		.4byte	.LFB50
 5752 006c 2C000000 		.4byte	.LFE50-.LFB50
 5753 0070 00000000 		.4byte	.LFB51
 5754 0074 98000000 		.4byte	.LFE51-.LFB51
 5755 0078 00000000 		.4byte	.LFB45
 5756 007c 3C000000 		.4byte	.LFE45-.LFB45
 5757 0080 00000000 		.4byte	.LFB47
 5758 0084 62000000 		.4byte	.LFE47-.LFB47
 5759 0088 00000000 		.4byte	.LFB49
 5760 008c B0010000 		.4byte	.LFE49-.LFB49
 5761 0090 00000000 		.4byte	.LFB42
 5762 0094 34000000 		.4byte	.LFE42-.LFB42
 5763 0098 00000000 		.4byte	.LFB44
 5764 009c 34000000 		.4byte	.LFE44-.LFB44
 5765 00a0 00000000 		.4byte	0
 5766 00a4 00000000 		.4byte	0
 5767              		.section	.debug_ranges,"",%progbits
 5768              	.Ldebug_ranges0:
 5769 0000 26000000 		.4byte	.LBB13
 5770 0004 2A000000 		.4byte	.LBE13
 5771 0008 2A000000 		.4byte	.LBB16
 5772 000c 2E000000 		.4byte	.LBE16
 5773 0010 00000000 		.4byte	0
 5774 0014 00000000 		.4byte	0
 5775 0018 00000000 		.4byte	.LFB46
 5776 001c 02000000 		.4byte	.LFE46
 5777 0020 00000000 		.4byte	.LFB33
 5778 0024 34000000 		.4byte	.LFE33
 5779 0028 00000000 		.4byte	.LFB34
 5780 002c 1C000000 		.4byte	.LFE34
 5781 0030 00000000 		.4byte	.LFB35
 5782 0034 38000000 		.4byte	.LFE35
 5783 0038 00000000 		.4byte	.LFB36
ARM GAS  C:\Users\ZHANGM~1\AppData\Local\Temp\ccse5bds.s 			page 129


 5784 003c 20000000 		.4byte	.LFE36
 5785 0040 00000000 		.4byte	.LFB37
 5786 0044 20000000 		.4byte	.LFE37
 5787 0048 00000000 		.4byte	.LFB38
 5788 004c A4000000 		.4byte	.LFE38
 5789 0050 00000000 		.4byte	.LFB39
 5790 0054 20010000 		.4byte	.LFE39
 5791 0058 00000000 		.4byte	.LFB48
 5792 005c 2C000000 		.4byte	.LFE48
 5793 0060 00000000 		.4byte	.LFB40
 5794 0064 44000000 		.4byte	.LFE40
 5795 0068 00000000 		.4byte	.LFB41
 5796 006c 26000000 		.4byte	.LFE41
 5797 0070 00000000 		.4byte	.LFB50
 5798 0074 2C000000 		.4byte	.LFE50
 5799 0078 00000000 		.4byte	.LFB51
 5800 007c 98000000 		.4byte	.LFE51
 5801 0080 00000000 		.4byte	.LFB45
 5802 0084 3C000000 		.4byte	.LFE45
 5803 0088 00000000 		.4byte	.LFB47
 5804 008c 62000000 		.4byte	.LFE47
 5805 0090 00000000 		.4byte	.LFB49
 5806 0094 B0010000 		.4byte	.LFE49
 5807 0098 00000000 		.4byte	.LFB42
 5808 009c 34000000 		.4byte	.LFE42
 5809 00a0 00000000 		.4byte	.LFB44
 5810 00a4 34000000 		.4byte	.LFE44
 5811 00a8 00000000 		.4byte	0
 5812 00ac 00000000 		.4byte	0
 5813              		.section	.debug_line,"",%progbits
 5814              	.Ldebug_line0:
 5815 0000 98030000 		.section	.debug_str,"MS",%progbits,1
 5815      02009B00 
 5815      00000201 
 5815      FB0E0D00 
 5815      01010101 
 5816              	.LASF109:
 5817 0000 7A5F6974 		.ascii	"z_itotalcount\000"
 5817      6F74616C 
 5817      636F756E 
 5817      7400
 5818              	.LASF106:
 5819 000e 64617461 		.ascii	"dataBuffer_0\000"
 5819      42756666 
 5819      65725F30 
 5819      00
 5820              	.LASF145:
 5821 001b 43794465 		.ascii	"CyDelay\000"
 5821      6C617900 
 5822              	.LASF50:
 5823 0023 53656E64 		.ascii	"SendDataToWifi\000"
 5823      44617461 
 5823      546F5769 
 5823      666900
 5824              	.LASF23:
 5825 0032 67635265 		.ascii	"gcReceComm1OK\000"
 5825      6365436F 
ARM GAS  C:\Users\ZHANGM~1\AppData\Local\Temp\ccse5bds.s 			page 130


 5825      6D6D314F 
 5825      4B00
 5826              	.LASF32:
 5827 0040 67634154 		.ascii	"gcATReceData\000"
 5827      52656365 
 5827      44617461 
 5827      00
 5828              	.LASF97:
 5829 004d 76616C69 		.ascii	"validApp\000"
 5829      64417070 
 5829      00
 5830              	.LASF29:
 5831 0056 666C6167 		.ascii	"flag_rev_end\000"
 5831      5F726576 
 5831      5F656E64 
 5831      00
 5832              	.LASF76:
 5833 0063 43794274 		.ascii	"CyBtldr_CheckLaunch\000"
 5833      6C64725F 
 5833      43686563 
 5833      6B4C6175 
 5833      6E636800 
 5834              	.LASF72:
 5835 0077 61707049 		.ascii	"appId\000"
 5835      6400
 5836              	.LASF26:
 5837 007d 75384532 		.ascii	"u8E2Set\000"
 5837      53657400 
 5838              	.LASF8:
 5839 0085 756E7369 		.ascii	"unsigned int\000"
 5839      676E6564 
 5839      20696E74 
 5839      00
 5840              	.LASF28:
 5841 0092 73656E64 		.ascii	"send_data_load\000"
 5841      5F646174 
 5841      615F6C6F 
 5841      616400
 5842              	.LASF79:
 5843 00a1 63616C63 		.ascii	"calcedChecksum\000"
 5843      65644368 
 5843      65636B73 
 5843      756D00
 5844              	.LASF138:
 5845 00b0 474E5520 		.ascii	"GNU C 4.8.4 20140526 (release) [ARM/embedded-4_8-br"
 5845      4320342E 
 5845      382E3420 
 5845      32303134 
 5845      30353236 
 5846 00e3 616E6368 		.ascii	"anch revision 211358] -mcpu=cortex-m0 -mthumb -g -O"
 5846      20726576 
 5846      6973696F 
 5846      6E203231 
 5846      31333538 
 5847 0116 73202D66 		.ascii	"s -ffunction-sections\000"
 5847      66756E63 
 5847      74696F6E 
ARM GAS  C:\Users\ZHANGM~1\AppData\Local\Temp\ccse5bds.s 			page 131


 5847      2D736563 
 5847      74696F6E 
 5848              	.LASF135:
 5849 012c 55415254 		.ascii	"UART_0_SetCustomInterruptHandler\000"
 5849      5F305F53 
 5849      65744375 
 5849      73746F6D 
 5849      496E7465 
 5850              	.LASF130:
 5851 014d 43794861 		.ascii	"CyHalt\000"
 5851      6C7400
 5852              	.LASF41:
 5853 0154 436F6D6D 		.ascii	"Comm_Uart_0_PrintHex8\000"
 5853      5F556172 
 5853      745F305F 
 5853      5072696E 
 5853      74486578 
 5854              	.LASF16:
 5855 016a 72656738 		.ascii	"reg8\000"
 5855      00
 5856              	.LASF111:
 5857 016f 42757A7A 		.ascii	"BuzzerDly\000"
 5857      6572446C 
 5857      7900
 5858              	.LASF140:
 5859 0179 453A5C63 		.ascii	"E:\\code\\newboardwifi\\newboard_0514_boot\\UART_Bo"
 5859      6F64655C 
 5859      6E657762 
 5859      6F617264 
 5859      77696669 
 5860 01a8 6F746C6F 		.ascii	"otloader.cydsn\000"
 5860      61646572 
 5860      2E637964 
 5860      736E00
 5861              	.LASF96:
 5862 01b7 426F6F74 		.ascii	"Bootloader_Start\000"
 5862      6C6F6164 
 5862      65725F53 
 5862      74617274 
 5862      00
 5863              	.LASF89:
 5864 01c8 74696D65 		.ascii	"timeOut\000"
 5864      4F757400 
 5865              	.LASF133:
 5866 01d0 55415254 		.ascii	"UART_0_Enable\000"
 5866      5F305F45 
 5866      6E61626C 
 5866      6500
 5867              	.LASF128:
 5868 01de 50574D5F 		.ascii	"PWM_Start\000"
 5868      53746172 
 5868      7400
 5869              	.LASF103:
 5870 01e8 63794274 		.ascii	"cyBtldrRunType\000"
 5870      6C647252 
 5870      756E5479 
 5870      706500
ARM GAS  C:\Users\ZHANGM~1\AppData\Local\Temp\ccse5bds.s 			page 132


 5871              	.LASF124:
 5872 01f7 61756368 		.ascii	"auchCRCLo\000"
 5872      4352434C 
 5872      6F00
 5873              	.LASF143:
 5874 0201 55415254 		.ascii	"UART_0_UartGetByte\000"
 5874      5F305F55 
 5874      61727447 
 5874      65744279 
 5874      746500
 5875              	.LASF69:
 5876 0214 726F774E 		.ascii	"rowNum\000"
 5876      756D00
 5877              	.LASF68:
 5878 021b 726F7744 		.ascii	"rowData\000"
 5878      61746100 
 5879              	.LASF20:
 5880 0223 68616E64 		.ascii	"handshake_ok\000"
 5880      7368616B 
 5880      655F6F6B 
 5880      00
 5881              	.LASF116:
 5882 0230 67695749 		.ascii	"giWIFICommand\000"
 5882      4649436F 
 5882      6D6D616E 
 5882      6400
 5883              	.LASF57:
 5884 023e 4C6F6164 		.ascii	"LoadUARTData\000"
 5884      55415254 
 5884      44617461 
 5884      00
 5885              	.LASF134:
 5886 024b 55415254 		.ascii	"UART_0_Start\000"
 5886      5F305F53 
 5886      74617274 
 5886      00
 5887              	.LASF34:
 5888 0258 61707041 		.ascii	"appAddr\000"
 5888      64647200 
 5889              	.LASF115:
 5890 0260 67635749 		.ascii	"gcWIFICTL\000"
 5890      46494354 
 5890      4C00
 5891              	.LASF77:
 5892 026a 426F6F74 		.ascii	"Bootloader_ValidateBootloadable\000"
 5892      6C6F6164 
 5892      65725F56 
 5892      616C6964 
 5892      61746542 
 5893              	.LASF12:
 5894 028a 666C6F61 		.ascii	"float\000"
 5894      7400
 5895              	.LASF71:
 5896 0290 6669656C 		.ascii	"field\000"
 5896      6400
 5897              	.LASF92:
 5898 0296 636F756E 		.ascii	"count\000"
ARM GAS  C:\Users\ZHANGM~1\AppData\Local\Temp\ccse5bds.s 			page 133


 5898      7400
 5899              	.LASF85:
 5900 029c 64617461 		.ascii	"dataBuffer\000"
 5900      42756666 
 5900      657200
 5901              	.LASF75:
 5902 02a7 72657375 		.ascii	"result\000"
 5902      6C7400
 5903              	.LASF7:
 5904 02ae 6C6F6E67 		.ascii	"long long unsigned int\000"
 5904      206C6F6E 
 5904      6720756E 
 5904      7369676E 
 5904      65642069 
 5905              	.LASF117:
 5906 02c5 67695749 		.ascii	"giWIFIDATALength\000"
 5906      46494441 
 5906      54414C65 
 5906      6E677468 
 5906      00
 5907              	.LASF132:
 5908 02d6 55415254 		.ascii	"UART_0_Init\000"
 5908      5F305F49 
 5908      6E697400 
 5909              	.LASF105:
 5910 02e2 665F6465 		.ascii	"f_delay\000"
 5910      6C617900 
 5911              	.LASF47:
 5912 02ea 53756D5F 		.ascii	"Sum_Make_Verify\000"
 5912      4D616B65 
 5912      5F566572 
 5912      69667900 
 5913              	.LASF42:
 5914 02fa 55617274 		.ascii	"Uart_0_Putchar\000"
 5914      5F305F50 
 5914      75746368 
 5914      617200
 5915              	.LASF101:
 5916 0309 426F6F74 		.ascii	"Bootloader_SizeBytes\000"
 5916      6C6F6164 
 5916      65725F53 
 5916      697A6542 
 5916      79746573 
 5917              	.LASF40:
 5918 031e 76616C75 		.ascii	"value\000"
 5918      6500
 5919              	.LASF84:
 5920 0324 706B7443 		.ascii	"pktChecksum\000"
 5920      6865636B 
 5920      73756D00 
 5921              	.LASF110:
 5922 0330 42555A66 		.ascii	"BUZfkg\000"
 5922      6B6700
 5923              	.LASF88:
 5924 0337 6E756D62 		.ascii	"numberRead\000"
 5924      65725265 
 5924      616400
ARM GAS  C:\Users\ZHANGM~1\AppData\Local\Temp\ccse5bds.s 			page 134


 5925              	.LASF129:
 5926 0342 50574D5F 		.ascii	"PWM_Stop\000"
 5926      53746F70 
 5926      00
 5927              	.LASF121:
 5928 034b 63705365 		.ascii	"cpSendBufPtr\000"
 5928      6E644275 
 5928      66507472 
 5928      00
 5929              	.LASF87:
 5930 0358 7265736F 		.ascii	"resource\000"
 5930      75726365 
 5930      00
 5931              	.LASF118:
 5932 0361 41545265 		.ascii	"ATReceBuffer\000"
 5932      63654275 
 5932      66666572 
 5932      00
 5933              	.LASF95:
 5934 036e 72656164 		.ascii	"readStat\000"
 5934      53746174 
 5934      00
 5935              	.LASF36:
 5936 0377 75734461 		.ascii	"usDataLen\000"
 5936      74614C65 
 5936      6E00
 5937              	.LASF22:
 5938 0381 67635265 		.ascii	"gcReceComm2OK\000"
 5938      6365436F 
 5938      6D6D324F 
 5938      4B00
 5939              	.LASF14:
 5940 038f 63686172 		.ascii	"char\000"
 5940      00
 5941              	.LASF35:
 5942 0394 70756368 		.ascii	"puchMsg\000"
 5942      4D736700 
 5943              	.LASF66:
 5944 039c 72756E54 		.ascii	"runType\000"
 5944      79706500 
 5945              	.LASF61:
 5946 03a4 62617365 		.ascii	"baseAddr\000"
 5946      41646472 
 5946      00
 5947              	.LASF107:
 5948 03ad 7061636B 		.ascii	"packetBuffer\000"
 5948      65744275 
 5948      66666572 
 5948      00
 5949              	.LASF10:
 5950 03ba 75696E74 		.ascii	"uint16\000"
 5950      313600
 5951              	.LASF120:
 5952 03c1 6953656E 		.ascii	"iSendCounter\000"
 5952      64436F75 
 5952      6E746572 
 5952      00
ARM GAS  C:\Users\ZHANGM~1\AppData\Local\Temp\ccse5bds.s 			page 135


 5953              	.LASF58:
 5954 03ce 55617274 		.ascii	"UartData\000"
 5954      44617461 
 5954      00
 5955              	.LASF94:
 5956 03d7 465F7365 		.ascii	"F_send\000"
 5956      6E6400
 5957              	.LASF45:
 5958 03de 69436F75 		.ascii	"iCount\000"
 5958      6E7400
 5959              	.LASF37:
 5960 03e5 75636843 		.ascii	"uchCRCHi\000"
 5960      52434869 
 5960      00
 5961              	.LASF6:
 5962 03ee 6C6F6E67 		.ascii	"long long int\000"
 5962      206C6F6E 
 5962      6720696E 
 5962      7400
 5963              	.LASF25:
 5964 03fc 75384531 		.ascii	"u8E1Set\000"
 5964      53657400 
 5965              	.LASF78:
 5966 0404 76616C69 		.ascii	"valid\000"
 5966      6400
 5967              	.LASF80:
 5968 040a 63757242 		.ascii	"curByte\000"
 5968      79746500 
 5969              	.LASF30:
 5970 0412 75617274 		.ascii	"uart_ack\000"
 5970      5F61636B 
 5970      00
 5971              	.LASF67:
 5972 041b 666C7341 		.ascii	"flsAddr\000"
 5972      64647200 
 5973              	.LASF126:
 5974 0423 6D656D73 		.ascii	"memset\000"
 5974      657400
 5975              	.LASF18:
 5976 042a 63796973 		.ascii	"cyisraddress\000"
 5976      72616464 
 5976      72657373 
 5976      00
 5977              	.LASF60:
 5978 0437 426F6F74 		.ascii	"Bootloader_Calc8BitSum\000"
 5978      6C6F6164 
 5978      65725F43 
 5978      616C6338 
 5978      42697453 
 5979              	.LASF63:
 5980 044e 73697A65 		.ascii	"size\000"
 5980      00
 5981              	.LASF83:
 5982 0453 61636B43 		.ascii	"ackCode\000"
 5982      6F646500 
 5983              	.LASF11:
 5984 045b 75696E74 		.ascii	"uint32\000"
ARM GAS  C:\Users\ZHANGM~1\AppData\Local\Temp\ccse5bds.s 			page 136


 5984      333200
 5985              	.LASF53:
 5986 0462 44617461 		.ascii	"DataBuf\000"
 5986      42756600 
 5987              	.LASF137:
 5988 046a 55415254 		.ascii	"UART_0_SpiUartClearTxBuffer\000"
 5988      5F305F53 
 5988      70695561 
 5988      7274436C 
 5988      65617254 
 5989              	.LASF125:
 5990 0486 55415254 		.ascii	"UART_ISR_0_FUN\000"
 5990      5F495352 
 5990      5F305F46 
 5990      554E00
 5991              	.LASF49:
 5992 0495 56657269 		.ascii	"Verify\000"
 5992      667900
 5993              	.LASF70:
 5994 049c 426F6F74 		.ascii	"Bootloader_GetMetadata\000"
 5994      6C6F6164 
 5994      65725F47 
 5994      65744D65 
 5994      74616461 
 5995              	.LASF59:
 5996 04b3 42757A7A 		.ascii	"Buzzer_Fun\000"
 5996      65725F46 
 5996      756E00
 5997              	.LASF21:
 5998 04be 626F6F74 		.ascii	"bootloadable_load_ok\000"
 5998      6C6F6164 
 5998      61626C65 
 5998      5F6C6F61 
 5998      645F6F6B 
 5999              	.LASF17:
 6000 04d3 72656733 		.ascii	"reg32\000"
 6000      3200
 6001              	.LASF56:
 6002 04d9 63427566 		.ascii	"cBuf\000"
 6002      00
 6003              	.LASF27:
 6004 04de 75384533 		.ascii	"u8E3Set\000"
 6004      53657400 
 6005              	.LASF2:
 6006 04e6 73686F72 		.ascii	"short int\000"
 6006      7420696E 
 6006      7400
 6007              	.LASF48:
 6008 04f0 50427566 		.ascii	"PBuf\000"
 6008      00
 6009              	.LASF4:
 6010 04f5 6C6F6E67 		.ascii	"long int\000"
 6010      20696E74 
 6010      00
 6011              	.LASF52:
 6012 04fe 63436F6D 		.ascii	"cCommand\000"
 6012      6D616E64 
ARM GAS  C:\Users\ZHANGM~1\AppData\Local\Temp\ccse5bds.s 			page 137


 6012      00
 6013              	.LASF31:
 6014 0507 666C6167 		.ascii	"flag_Uart_Work\000"
 6014      5F556172 
 6014      745F576F 
 6014      726B00
 6015              	.LASF33:
 6016 0516 67634154 		.ascii	"gcATReceCount\000"
 6016      52656365 
 6016      436F756E 
 6016      7400
 6017              	.LASF44:
 6018 0524 64617461 		.ascii	"data_buf\000"
 6018      5F627566 
 6018      00
 6019              	.LASF39:
 6020 052d 75496E64 		.ascii	"uIndex\000"
 6020      657800
 6021              	.LASF114:
 6022 0534 57696669 		.ascii	"WifidatagramWorkFlag\000"
 6022      64617461 
 6022      6772616D 
 6022      576F726B 
 6022      466C6167 
 6023              	.LASF119:
 6024 0549 69556172 		.ascii	"iUartSendLen\000"
 6024      7453656E 
 6024      644C656E 
 6024      00
 6025              	.LASF46:
 6026 0556 63726331 		.ascii	"crc16\000"
 6026      3600
 6027              	.LASF62:
 6028 055c 73746172 		.ascii	"start\000"
 6028      7400
 6029              	.LASF38:
 6030 0562 75636843 		.ascii	"uchCRCLo\000"
 6030      52434C6F 
 6030      00
 6031              	.LASF64:
 6032 056b 426F6F74 		.ascii	"Bootloader_SetFlashByte\000"
 6032      6C6F6164 
 6032      65725F53 
 6032      6574466C 
 6032      61736842 
 6033              	.LASF93:
 6034 0583 636F756E 		.ascii	"count00\000"
 6034      74303000 
 6035              	.LASF102:
 6036 058b 426F6F74 		.ascii	"Bootloader_SizeBytesAccess\000"
 6036      6C6F6164 
 6036      65725F53 
 6036      697A6542 
 6036      79746573 
 6037              	.LASF113:
 6038 05a6 57696669 		.ascii	"WifiWorkFlag\000"
 6038      576F726B 
ARM GAS  C:\Users\ZHANGM~1\AppData\Local\Temp\ccse5bds.s 			page 138


 6038      466C6167 
 6038      00
 6039              	.LASF19:
 6040 05b3 73697A65 		.ascii	"sizetype\000"
 6040      74797065 
 6040      00
 6041              	.LASF5:
 6042 05bc 6C6F6E67 		.ascii	"long unsigned int\000"
 6042      20756E73 
 6042      69676E65 
 6042      6420696E 
 6042      7400
 6043              	.LASF65:
 6044 05ce 61646472 		.ascii	"address\000"
 6044      65737300 
 6045              	.LASF91:
 6046 05d6 69746F74 		.ascii	"itotalcount\000"
 6046      616C636F 
 6046      756E7400 
 6047              	.LASF122:
 6048 05e2 465F7561 		.ascii	"F_uart_0_tx\000"
 6048      72745F30 
 6048      5F747800 
 6049              	.LASF131:
 6050 05ee 4379536F 		.ascii	"CySoftwareReset\000"
 6050      66747761 
 6050      72655265 
 6050      73657400 
 6051              	.LASF15:
 6052 05fe 63797374 		.ascii	"cystatus\000"
 6052      61747573 
 6052      00
 6053              	.LASF43:
 6054 0607 55415254 		.ascii	"UART_SendData\000"
 6054      5F53656E 
 6054      64446174 
 6054      6100
 6055              	.LASF136:
 6056 0615 55415254 		.ascii	"UART_0_SpiUartClearRxBuffer\000"
 6056      5F305F53 
 6056      70695561 
 6056      7274436C 
 6056      65617252 
 6057              	.LASF81:
 6058 0631 426F6F74 		.ascii	"Bootloader_LaunchBootloadable\000"
 6058      6C6F6164 
 6058      65725F4C 
 6058      61756E63 
 6058      68426F6F 
 6059              	.LASF1:
 6060 064f 756E7369 		.ascii	"unsigned char\000"
 6060      676E6564 
 6060      20636861 
 6060      7200
 6061              	.LASF55:
 6062 065d 78787878 		.ascii	"xxxxx\000"
 6062      7800
ARM GAS  C:\Users\ZHANGM~1\AppData\Local\Temp\ccse5bds.s 			page 139


 6063              	.LASF142:
 6064 0663 426F6F74 		.ascii	"Bootloader_LaunchApplication\000"
 6064      6C6F6164 
 6064      65725F4C 
 6064      61756E63 
 6064      68417070 
 6065              	.LASF73:
 6066 0680 6669656C 		.ascii	"fieldPtr\000"
 6066      64507472 
 6066      00
 6067              	.LASF123:
 6068 0689 61756368 		.ascii	"auchCRCHi\000"
 6068      43524348 
 6068      6900
 6069              	.LASF54:
 6070 0693 694C656E 		.ascii	"iLength\000"
 6070      67746800 
 6071              	.LASF0:
 6072 069b 7369676E 		.ascii	"signed char\000"
 6072      65642063 
 6072      68617200 
 6073              	.LASF100:
 6074 06a7 426F6F74 		.ascii	"Bootloader_ChecksumAccess\000"
 6074      6C6F6164 
 6074      65725F43 
 6074      6865636B 
 6074      73756D41 
 6075              	.LASF3:
 6076 06c1 73686F72 		.ascii	"short unsigned int\000"
 6076      7420756E 
 6076      7369676E 
 6076      65642069 
 6076      6E7400
 6077              	.LASF112:
 6078 06d4 67635769 		.ascii	"gcWifiCommunState\000"
 6078      6669436F 
 6078      6D6D756E 
 6078      53746174 
 6078      6500
 6079              	.LASF104:
 6080 06e6 665F6163 		.ascii	"f_ack_1\000"
 6080      6B5F3100 
 6081              	.LASF24:
 6082 06ee 75384530 		.ascii	"u8E0Set\000"
 6082      53657400 
 6083              	.LASF90:
 6084 06f6 6969636F 		.ascii	"iicount\000"
 6084      756E7400 
 6085              	.LASF127:
 6086 06fe 6D656D63 		.ascii	"memcpy\000"
 6086      707900
 6087              	.LASF74:
 6088 0705 6669656C 		.ascii	"fieldSize\000"
 6088      6453697A 
 6088      6500
 6089              	.LASF98:
 6090 070f 426F6F74 		.ascii	"Bootloader_Exit\000"
ARM GAS  C:\Users\ZHANGM~1\AppData\Local\Temp\ccse5bds.s 			page 140


 6090      6C6F6164 
 6090      65725F45 
 6090      78697400 
 6091              	.LASF9:
 6092 071f 75696E74 		.ascii	"uint8\000"
 6092      3800
 6093              	.LASF13:
 6094 0725 646F7562 		.ascii	"double\000"
 6094      6C6500
 6095              	.LASF144:
 6096 072c 43795379 		.ascii	"CySysFlashWriteRow\000"
 6096      73466C61 
 6096      73685772 
 6096      69746552 
 6096      6F7700
 6097              	.LASF86:
 6098 073f 69436F6D 		.ascii	"iCommand\000"
 6098      6D616E64 
 6098      00
 6099              	.LASF82:
 6100 0748 426F6F74 		.ascii	"Bootloader_HostLink\000"
 6100      6C6F6164 
 6100      65725F48 
 6100      6F73744C 
 6100      696E6B00 
 6101              	.LASF99:
 6102 075c 426F6F74 		.ascii	"Bootloader_Checksum\000"
 6102      6C6F6164 
 6102      65725F43 
 6102      6865636B 
 6102      73756D00 
 6103              	.LASF108:
 6104 0770 7A5F6969 		.ascii	"z_iicount\000"
 6104      636F756E 
 6104      7400
 6105              	.LASF139:
 6106 077a 2E5C4765 		.ascii	".\\Generated_Source\\PSoC4\\Bootloader.c\000"
 6106      6E657261 
 6106      7465645F 
 6106      536F7572 
 6106      63655C50 
 6107              	.LASF51:
 6108 07a0 6343746C 		.ascii	"cCtl\000"
 6108      00
 6109              	.LASF141:
 6110 07a5 42756666 		.ascii	"Buffer0\000"
 6110      65723000 
 6111              		.ident	"GCC: (GNU Tools for ARM Embedded Processors) 4.8.4 20140526 (release) [ARM/embedded-4_8-br
